(lp0
(imeasure_core
ProblemSetSolution
p1
(dp2
S'roomset'
p3
(imeasure_core
RoomSet
p4
(dp5
S'rooms'
p6
(dp7
(iproblems
RoomID
p8
(dp9
S'dusts'
p10
I10
sS'obstacles'
p11
(I0
I8
tp12
sS'robots'
p13
I4
sS'height'
p14
I10
sS'width'
p15
I9
sS'seed'
p16
I4712128852136459333
sb(imulti_robot_problem
MultiRobotState
p17
(dp18
S'obstacle_locations'
p19
c__builtin__
frozenset
p20
((lp21
(I0
I6
tp22
ag12
a(I2
I3
tp23
a(I1
I5
tp24
a(I8
I0
tp25
a(I1
I1
tp26
a(I0
I7
tp27
atp28
Rp29
sg15
I9
sS'dirt_locations'
p30
g20
((lp31
(I4
I7
tp32
a(I1
I3
tp33
a(I4
I9
tp34
a(I8
I1
tp35
a(I7
I6
tp36
a(I2
I6
tp37
a(I8
I7
tp38
a(I2
I2
tp39
a(I4
I1
tp40
a(I2
I4
tp41
atp42
Rp43
sg13
((I5
I8
tp44
(I6
I9
tp45
(I5
I0
tp46
(I3
I1
tp47
tp48
sg14
I10
sbs(iproblems
RoomID
p49
(dp50
g10
I9
sg11
(I3
I4
tp51
sg13
I1
sg14
I7
sg15
I8
sg16
I6613812840851947673
sb(imulti_robot_problem
MultiRobotState
p52
(dp53
g19
g20
((lp54
(I3
I5
tp55
ag51
a(I2
I4
tp56
a(I2
I1
tp57
a(I1
I4
tp58
atp59
Rp60
sg15
I8
sg30
g20
((lp61
(I6
I4
tp62
a(I5
I4
tp63
a(I6
I0
tp64
a(I7
I5
tp65
a(I1
I6
tp66
a(I2
I2
tp67
a(I0
I5
tp68
a(I4
I1
tp69
a(I4
I0
tp70
atp71
Rp72
sg13
((I3
I1
tp73
tp74
sg14
I7
sbs(iproblems
RoomID
p75
(dp76
g10
I10
sg11
(I4
I8
tp77
sg13
I4
sg14
I10
sg15
I7
sg16
I956523682424107605
sb(imulti_robot_problem
MultiRobotState
p78
(dp79
g19
g20
((lp80
(I2
I8
tp81
ag77
a(I3
I7
tp82
a(I2
I9
tp83
a(I4
I2
tp84
atp85
Rp86
sg15
I7
sg30
g20
((lp87
(I5
I9
tp88
a(I4
I7
tp89
a(I1
I3
tp90
a(I3
I3
tp91
a(I5
I5
tp92
a(I6
I1
tp93
a(I5
I4
tp94
a(I0
I4
tp95
a(I5
I2
tp96
a(I5
I3
tp97
atp98
Rp99
sg13
((I1
I9
tp100
(I4
I9
tp101
(I1
I8
tp102
(I0
I3
tp103
tp104
sg14
I10
sbs(iproblems
RoomID
p105
(dp106
g10
I9
sg11
(I5
I3
tp107
sg13
I3
sg14
I7
sg15
I8
sg16
I4594210616595436404
sb(imulti_robot_problem
MultiRobotState
p108
(dp109
g19
g20
((lp110
(I0
I1
tp111
a(I3
I3
tp112
a(I4
I3
tp113
a(I4
I2
tp114
a(I6
I1
tp115
ag107
atp116
Rp117
sg15
I8
sg30
g20
((lp118
(I6
I6
tp119
a(I5
I6
tp120
a(I4
I4
tp121
a(I1
I4
tp122
a(I0
I6
tp123
a(I5
I1
tp124
a(I1
I0
tp125
a(I0
I3
tp126
a(I1
I1
tp127
atp128
Rp129
sg13
((I2
I1
tp130
(I3
I4
tp131
(I3
I6
tp132
tp133
sg14
I7
sbssS'name'
p134
S'easy_roomset'
p135
sbsg134
S"AnytimeBeam-w4-gf(2, 'lin')_with_PowerHeuristic2"
p136
sS'solutions'
p137
(dp138
g8
((lp139
(F0.49856114387512207
I11
tp140
aF40.200000000004366
tp141
sg49
((lp142
F39.989999999997963
tp143
sg75
((lp144
(F1.025015115737915
I10
tp145
aF40.010000000002037
tp146
sg105
((lp147
F40.019999999996799
tp148
ssba(imeasure_core
ProblemSetSolution
p149
(dp150
g3
(imeasure_core
RoomSet
p151
(dp152
g6
(dp153
(iproblems
RoomID
p154
(dp155
g10
I10
sg11
(I8
I7
tp156
sg13
I4
sg14
I12
sg15
I11
sg16
I4712128852136459333
sb(imulti_robot_problem
MultiRobotState
p157
(dp158
g19
g20
((lp159
(I6
I4
tp160
a(I4
I7
tp161
ag156
a(I4
I5
tp162
a(I3
I11
tp163
a(I0
I7
tp164
a(I7
I7
tp165
a(I1
I6
tp166
a(I1
I9
tp167
a(I2
I10
tp168
a(I4
I2
tp169
a(I1
I11
tp170
a(I6
I5
tp171
a(I5
I3
tp172
a(I9
I0
tp173
a(I0
I8
tp174
a(I5
I5
tp175
a(I7
I6
tp176
a(I3
I1
tp177
a(I2
I11
tp178
a(I0
I9
tp179
a(I2
I3
tp180
a(I4
I1
tp181
a(I1
I1
tp182
atp183
Rp184
sg15
I11
sg30
g20
((lp185
(I2
I7
tp186
a(I9
I1
tp187
a(I9
I8
tp188
a(I5
I1
tp189
a(I2
I5
tp190
a(I9
I7
tp191
a(I3
I4
tp192
a(I2
I4
tp193
a(I5
I8
tp194
a(I3
I3
tp195
atp196
Rp197
sg13
((I6
I10
tp198
(I8
I10
tp199
(I7
I0
tp200
(I5
I11
tp201
tp202
sg14
I12
sbs(iproblems
RoomID
p203
(dp204
g10
I9
sg11
(I4
I4
tp205
sg13
I3
sg14
I9
sg15
I10
sg16
I4594210616595436404
sb(imulti_robot_problem
MultiRobotState
p206
(dp207
g19
g20
((lp208
(I1
I3
tp209
a(I3
I0
tp210
a(I2
I1
tp211
a(I1
I6
tp212
a(I9
I4
tp213
a(I3
I7
tp214
a(I0
I3
tp215
a(I1
I2
tp216
a(I5
I5
tp217
a(I1
I5
tp218
a(I7
I6
tp219
ag205
a(I6
I3
tp220
a(I5
I6
tp221
a(I3
I6
tp222
a(I0
I4
tp223
a(I8
I6
tp224
a(I3
I5
tp225
a(I1
I1
tp226
a(I5
I4
tp227
a(I4
I5
tp228
a(I0
I5
tp229
a(I5
I3
tp230
a(I0
I1
tp231
a(I5
I2
tp232
a(I0
I6
tp233
a(I2
I0
tp234
a(I1
I8
tp235
a(I2
I3
tp236
a(I9
I5
tp237
a(I3
I4
tp238
a(I0
I2
tp239
atp240
Rp241
sg15
I10
sg30
g20
((lp242
(I7
I8
tp243
a(I7
I0
tp244
a(I6
I8
tp245
a(I2
I8
tp246
a(I8
I8
tp247
a(I0
I8
tp248
a(I8
I5
tp249
a(I5
I8
tp250
a(I8
I2
tp251
atp252
Rp253
sg13
((I4
I6
tp254
(I2
I5
tp255
(I6
I1
tp256
tp257
sg14
I9
sbs(iproblems
RoomID
p258
(dp259
g10
I5
sg11
(I4
I9
tp260
sg13
I4
sg14
I11
sg15
I11
sg16
I1881095652490078568
sb(imulti_robot_problem
MultiRobotState
p261
(dp262
g19
g20
((lp263
(I6
I9
tp264
a(I6
I6
tp265
a(I4
I5
tp266
a(I2
I8
tp267
a(I9
I3
tp268
a(I4
I7
tp269
a(I7
I5
tp270
a(I5
I4
tp271
ag260
a(I6
I5
tp272
a(I3
I5
tp273
a(I7
I4
tp274
a(I1
I7
tp275
a(I6
I7
tp276
a(I4
I6
tp277
a(I7
I6
tp278
a(I4
I4
tp279
a(I8
I10
tp280
a(I6
I3
tp281
a(I7
I10
tp282
a(I2
I2
tp283
a(I4
I8
tp284
a(I7
I8
tp285
a(I1
I1
tp286
a(I8
I4
tp287
atp288
Rp289
sg15
I11
sg30
g20
((lp290
(I1
I10
tp291
a(I5
I9
tp292
a(I0
I0
tp293
a(I10
I2
tp294
a(I9
I7
tp295
atp296
Rp297
sg13
((I5
I7
tp298
(I8
I1
tp299
(I3
I1
tp300
(I8
I8
tp301
tp302
sg14
I11
sbs(iproblems
RoomID
p303
(dp304
g10
I8
sg11
(I5
I0
tp305
sg13
I4
sg14
I9
sg15
I9
sg16
I6858376947525423350
sb(imulti_robot_problem
MultiRobotState
p306
(dp307
g19
g20
((lp308
(I6
I4
tp309
a(I4
I7
tp310
a(I1
I3
tp311
a(I4
I3
tp312
a(I7
I1
tp313
a(I3
I0
tp314
a(I2
I8
tp315
a(I6
I0
tp316
a(I2
I1
tp317
a(I1
I6
tp318
a(I5
I1
tp319
a(I2
I5
tp320
a(I0
I8
tp321
a(I7
I2
tp322
a(I2
I7
tp323
a(I3
I8
tp324
a(I5
I5
tp325
a(I6
I1
tp326
a(I5
I7
tp327
a(I6
I3
tp328
a(I1
I8
tp329
ag305
a(I2
I2
tp330
a(I2
I3
tp331
a(I3
I4
tp332
a(I2
I4
tp333
atp334
Rp335
sg15
I9
sg30
g20
((lp336
(I8
I3
tp337
a(I7
I0
tp338
a(I4
I6
tp339
a(I6
I6
tp340
a(I7
I5
tp341
a(I8
I0
tp342
a(I8
I8
tp343
a(I8
I4
tp344
atp345
Rp346
sg13
((I1
I1
tp347
(I6
I5
tp348
(I8
I2
tp349
(I1
I5
tp350
tp351
sg14
I9
sbssg134
S'mild_roomset'
p352
sbsg134
g136
sg137
(dp353
g154
((lp354
F40.0
tp355
sg203
((lp356
F40.029999999998836
tp357
sg258
((lp358
(F0.58447098731994629
I7
tp359
aF40.080000000001746
tp360
sg303
((lp361
F40.0
tp362
ssba(imeasure_core
ProblemSetSolution
p363
(dp364
g3
(imeasure_core
RoomSet
p365
(dp366
g6
(dp367
(iproblems
RoomID
p368
(dp369
g10
I15
sg11
(I5
I9
tp370
sg13
I7
sg14
I13
sg15
I12
sg16
I4712128852136459333
sb(imulti_robot_problem
MultiRobotState
p371
(dp372
g19
g20
((lp373
g370
a(I4
I9
tp374
a(I5
I5
tp375
a(I4
I12
tp376
a(I2
I8
tp377
a(I3
I1
tp378
a(I3
I9
tp379
a(I9
I4
tp380
a(I1
I7
tp381
a(I1
I10
tp382
a(I3
I12
tp383
a(I0
I8
tp384
a(I5
I2
tp385
atp386
Rp387
sg15
I12
sg30
g20
((lp388
(I6
I9
tp389
a(I3
I3
tp390
a(I1
I12
tp391
a(I5
I6
tp392
a(I7
I7
tp393
a(I3
I5
tp394
a(I3
I8
tp395
a(I8
I8
tp396
a(I10
I0
tp397
a(I2
I5
tp398
a(I10
I2
tp399
a(I3
I4
tp400
a(I1
I1
tp401
a(I5
I8
tp402
a(I9
I7
tp403
atp404
Rp405
sg13
((I6
I11
tp406
(I8
I11
tp407
(I7
I0
tp408
(I4
I1
tp409
(I6
I12
tp410
(I10
I9
tp411
(I6
I1
tp412
tp413
sg14
I13
sbs(iproblems
RoomID
p414
(dp415
g10
I14
sg11
(I5
I5
tp416
sg13
I5
sg14
I10
sg15
I11
sg16
I6613812840851947673
sb(imulti_robot_problem
MultiRobotState
p417
(dp418
g19
g20
((lp419
(I4
I7
tp420
a(I2
I6
tp421
a(I6
I6
tp422
a(I4
I5
tp423
a(I7
I5
tp424
a(I1
I6
tp425
a(I8
I7
tp426
a(I3
I7
tp427
a(I10
I3
tp428
a(I3
I5
tp429
a(I10
I8
tp430
a(I6
I3
tp431
ag416
a(I8
I5
tp432
a(I7
I4
tp433
a(I3
I8
tp434
a(I0
I6
tp435
a(I3
I6
tp436
a(I1
I3
tp437
a(I8
I6
tp438
a(I2
I4
tp439
atp440
Rp441
sg15
I11
sg30
g20
((lp442
(I6
I4
tp443
a(I3
I2
tp444
a(I4
I6
tp445
a(I4
I9
tp446
a(I3
I3
tp447
a(I9
I8
tp448
a(I8
I0
tp449
a(I8
I8
tp450
a(I5
I0
tp451
a(I1
I0
tp452
a(I8
I4
tp453
a(I5
I2
tp454
a(I6
I1
tp455
a(I9
I7
tp456
atp457
Rp458
sg13
((I5
I1
tp459
(I0
I8
tp460
(I2
I9
tp461
(I4
I1
tp462
(I7
I6
tp463
tp464
sg14
I10
sbs(iproblems
RoomID
p465
(dp466
g10
I15
sg11
(I4
I8
tp467
sg13
I6
sg14
I13
sg15
I10
sg16
I956523682424107605
sb(imulti_robot_problem
MultiRobotState
p468
(dp469
g19
g20
((lp470
(I5
I9
tp471
a(I6
I9
tp472
a(I7
I10
tp473
ag467
a(I5
I6
tp474
a(I3
I11
tp475
a(I9
I4
tp476
a(I4
I9
tp477
a(I5
I8
tp478
a(I2
I7
tp479
a(I5
I10
tp480
a(I5
I5
tp481
a(I3
I10
tp482
a(I5
I7
tp483
a(I9
I9
tp484
a(I5
I0
tp485
a(I7
I8
tp486
a(I1
I1
tp487
atp488
Rp489
sg15
I10
sg30
g20
((lp490
(I6
I10
tp491
a(I8
I3
tp492
a(I1
I3
tp493
a(I6
I6
tp494
a(I7
I6
tp495
a(I8
I12
tp496
a(I5
I4
tp497
a(I1
I4
tp498
a(I2
I10
tp499
a(I7
I4
tp500
a(I1
I5
tp501
a(I7
I5
tp502
a(I0
I9
tp503
a(I7
I11
tp504
a(I6
I2
tp505
atp506
Rp507
sg13
((I1
I12
tp508
(I6
I12
tp509
(I2
I11
tp510
(I0
I4
tp511
(I9
I1
tp512
(I7
I7
tp513
tp514
sg14
I13
sbs(iproblems
RoomID
p515
(dp516
g10
I15
sg11
(I6
I6
tp517
sg13
I5
sg14
I11
sg15
I11
sg16
I2893396244277848635
sb(imulti_robot_problem
MultiRobotState
p518
(dp519
g19
g20
((lp520
(I7
I3
tp521
a(I4
I7
tp522
a(I5
I5
tp523
a(I4
I8
tp524
a(I5
I6
tp525
a(I2
I8
tp526
ag517
a(I3
I2
tp527
a(I3
I9
tp528
a(I4
I3
tp529
a(I1
I7
tp530
a(I6
I9
tp531
atp532
Rp533
sg15
I11
sg30
g20
((lp534
(I2
I6
tp535
a(I8
I7
tp536
a(I3
I10
tp537
a(I3
I1
tp538
a(I2
I10
tp539
a(I0
I5
tp540
a(I6
I5
tp541
a(I3
I6
tp542
a(I8
I6
tp543
a(I4
I0
tp544
a(I3
I7
tp545
a(I7
I9
tp546
a(I4
I1
tp547
a(I5
I8
tp548
a(I5
I3
tp549
atp550
Rp551
sg13
((I4
I5
tp552
(I0
I9
tp553
(I0
I1
tp554
(I9
I2
tp555
(I8
I10
tp556
tp557
sg14
I11
sbssg134
S'heavy_roomset'
p558
sbsg134
g136
sg137
(dp559
g368
((lp560
F40.159999999996217
tp561
sg414
((lp562
F40.069999999999709
tp563
sg465
((lp564
F40.029999999998836
tp565
sg515
((lp566
F40.069999999999709
tp567
ssba(imeasure_core
ProblemSetSolution
p568
(dp569
g3
(imeasure_core
RoomSet
p570
(dp571
g6
(dp572
S'complexRoom'
p573
(imulti_robot_problem
MultiRobotState
p574
(dp575
g19
g20
((lp576
(I2
I7
tp577
a(I7
I3
tp578
a(I6
I3
tp579
a(I3
I3
tp580
a(I7
I6
tp581
a(I7
I4
tp582
a(I7
I5
tp583
a(I2
I3
tp584
a(I4
I3
tp585
a(I2
I5
tp586
a(I2
I4
tp587
a(I5
I3
tp588
atp589
Rp590
sg15
I11
sg30
g20
((lp591
(I1
I0
tp592
a(I9
I0
tp593
atp594
Rp595
sg13
((I6
I4
tp596
(I1
I6
tp597
tp598
sg14
I8
sbsS'exampleProblem'
p599
(imulti_robot_problem
MultiRobotState
p600
(dp601
g19
g20
((lp602
tp603
Rp604
sg15
I5
sg30
g20
((lp605
(I1
I3
tp606
a(I3
I1
tp607
a(I1
I1
tp608
a(I3
I3
tp609
atp610
Rp611
sg13
((I2
I2
tp612
tp613
sg14
I5
sbsS'linear_test'
p614
(imulti_robot_problem
MultiRobotState
p615
(dp616
g19
g604
sg15
I12
sg30
g20
((lp617
(I11
I0
tp618
a(I1
I0
tp619
a(I9
I0
tp620
atp621
Rp622
sg13
((I3
I0
tp623
(I1
I2
tp624
tp625
sg14
I7
sbsS'obstacle_Far_CloseTest'
p626
(imulti_robot_problem
MultiRobotState
p627
(dp628
g19
g20
((lp629
(I0
I1
tp630
a(I7
I3
tp631
a(I3
I1
tp632
a(I7
I1
tp633
a(I4
I5
tp634
a(I7
I6
tp635
a(I4
I4
tp636
a(I2
I1
tp637
a(I7
I4
tp638
a(I7
I5
tp639
a(I4
I3
tp640
a(I4
I2
tp641
a(I4
I1
tp642
a(I1
I1
tp643
a(I7
I2
tp644
atp645
Rp646
sg15
I12
sg30
g20
((lp647
(I3
I2
tp648
a(I9
I6
tp649
atp650
Rp651
sg13
((I0
I0
tp652
(I6
I6
tp653
tp654
sg14
I7
sbsS'zigzag'
p655
(imulti_robot_problem
MultiRobotState
p656
(dp657
g19
g20
((lp658
(I1
I2
tp659
a(I3
I2
tp660
a(I1
I3
tp661
a(I3
I0
tp662
a(I3
I1
tp663
a(I5
I1
tp664
a(I5
I2
tp665
a(I1
I1
tp666
a(I5
I3
tp667
atp668
Rp669
sg15
I20
sg30
g20
((lp670
(I6
I3
tp671
atp672
Rp673
sg13
((I0
I3
tp674
(I19
I3
tp675
tp676
sg14
I4
sbsS'room1'
p677
(imulti_robot_problem
MultiRobotState
p678
(dp679
g19
g20
((lp680
(I6
I3
tp681
a(I7
I3
tp682
a(I8
I3
tp683
a(I2
I3
tp684
a(I3
I3
tp685
a(I4
I3
tp686
a(I5
I3
tp687
atp688
Rp689
sg15
I9
sg30
g20
((lp690
(I0
I0
tp691
a(I2
I1
tp692
atp693
Rp694
sg13
((I6
I1
tp695
(I6
I5
tp696
tp697
sg14
I6
sbsS'complexRoom2'
p698
(imulti_robot_problem
MultiRobotState
p699
(dp700
g19
g20
((lp701
(I7
I3
tp702
a(I1
I3
tp703
a(I7
I1
tp704
a(I4
I5
tp705
a(I9
I3
tp706
a(I5
I5
tp707
a(I2
I6
tp708
a(I2
I3
tp709
a(I5
I1
tp710
a(I0
I3
tp711
a(I10
I3
tp712
a(I2
I5
tp713
a(I6
I5
tp714
a(I5
I3
tp715
a(I2
I7
tp716
a(I8
I3
tp717
a(I3
I3
tp718
a(I5
I2
tp719
a(I7
I6
tp720
a(I3
I1
tp721
a(I6
I3
tp722
a(I7
I5
tp723
a(I4
I3
tp724
a(I3
I5
tp725
a(I4
I1
tp726
a(I6
I1
tp727
atp728
Rp729
sg15
I11
sg30
g20
((lp730
(I7
I2
tp731
a(I0
I7
tp732
atp733
Rp734
sg13
((I1
I2
tp735
(I3
I6
tp736
tp737
sg14
I8
sbsS'zigzagUpright'
p738
(imulti_robot_problem
MultiRobotState
p739
(dp740
g19
g20
((lp741
(I1
I3
tp742
a(I3
I1
tp743
a(I2
I1
tp744
a(I1
I1
tp745
a(I1
I5
tp746
a(I2
I3
tp747
a(I2
I5
tp748
a(I0
I3
tp749
a(I3
I5
tp750
atp751
Rp752
sg15
I4
sg30
g20
((lp753
(I3
I6
tp754
atp755
Rp756
sg13
((I3
I0
tp757
(I3
I19
tp758
tp759
sg14
I20
sbsS'ivansRevenge'
p760
(imulti_robot_problem
MultiRobotState
p761
(dp762
g19
g604
sg15
I10
sg30
g20
((lp763
(I9
I2
tp764
a(I0
I0
tp765
atp766
Rp767
sg13
((I9
I0
tp768
(I0
I2
tp769
tp770
sg14
I3
sbsS'roomLongWithObstaccle'
p771
(imulti_robot_problem
MultiRobotState
p772
(dp773
g19
g20
((lp774
(I0
I1
tp775
a(I12
I1
tp776
a(I9
I1
tp777
a(I7
I1
tp778
a(I8
I1
tp779
a(I6
I1
tp780
a(I3
I1
tp781
a(I2
I1
tp782
a(I11
I1
tp783
a(I10
I1
tp784
a(I5
I1
tp785
a(I4
I1
tp786
a(I1
I1
tp787
atp788
Rp789
sg15
I15
sg30
g20
((lp790
(I0
I2
tp791
a(I14
I6
tp792
atp793
Rp794
sg13
((I0
I0
tp795
(I0
I6
tp796
tp797
sg14
I7
sbsS'twoRobotsInOpCorners'
p798
(imulti_robot_problem
MultiRobotState
p799
(dp800
g19
g604
sg15
I5
sg30
g20
((lp801
(I0
I0
tp802
a(I4
I4
tp803
atp804
Rp805
sg13
((I3
I0
tp806
(I0
I3
tp807
tp808
sg14
I5
sbsS'split2'
p809
(imulti_robot_problem
MultiRobotState
p810
(dp811
g19
g604
sg15
I10
sg30
g20
((lp812
(I0
I9
tp813
a(I9
I0
tp814
a(I0
I0
tp815
a(I9
I9
tp816
atp817
Rp818
sg13
((I1
I1
tp819
(I8
I1
tp820
(I4
I5
tp821
(I5
I5
tp822
tp823
sg14
I10
sbsS'split3'
p824
(imulti_robot_problem
MultiRobotState
p825
(dp826
g19
g604
sg15
I10
sg30
g20
((lp827
(I0
I9
tp828
a(I9
I0
tp829
a(I0
I0
tp830
a(I9
I9
tp831
atp832
Rp833
sg13
((I1
I1
tp834
(I8
I1
tp835
(I1
I7
tp836
(I7
I7
tp837
tp838
sg14
I10
sbsS'gaintRoom'
p839
(imulti_robot_problem
MultiRobotState
p840
(dp841
g19
g604
sg15
I5
sg30
g20
((lp842
(I4
I0
tp843
a(I4
I4
tp844
a(I0
I4
tp845
atp846
Rp847
sg13
((I0
I0
tp848
tp849
sg14
I5
sbsS'gaintRoomWithWall'
p850
(imulti_robot_problem
MultiRobotState
p851
(dp852
g19
g20
((lp853
(I2
I4
tp854
atp855
Rp856
sg15
I5
sg30
g20
((lp857
(I4
I0
tp858
a(I4
I4
tp859
a(I0
I4
tp860
atp861
Rp862
sg13
((I0
I0
tp863
tp864
sg14
I5
sbsS'split'
p865
(imulti_robot_problem
MultiRobotState
p866
(dp867
g19
g604
sg15
I10
sg30
g20
((lp868
(I0
I9
tp869
a(I9
I0
tp870
a(I0
I0
tp871
a(I9
I9
tp872
atp873
Rp874
sg13
((I4
I4
tp875
(I5
I4
tp876
(I4
I5
tp877
(I5
I5
tp878
tp879
sg14
I10
sbsS'twoRobots'
p880
(imulti_robot_problem
MultiRobotState
p881
(dp882
g19
g604
sg15
I9
sg30
g20
((lp883
(I8
I0
tp884
a(I0
I0
tp885
atp886
Rp887
sg13
((I2
I0
tp888
(I0
I3
tp889
tp890
sg14
I4
sbssg134
S'static_rooms'
p891
sbsg134
g136
sg137
(dp892
g809
((lp893
F40.080000000001746
tp894
sg824
((lp895
F40.120000000002619
tp896
sg573
((lp897
F39.980000000003201
tp898
sg839
((lp899
F39.989999999997963
tp900
sg599
((lp901
F39.989999999997963
tp902
sg614
((lp903
F40.0
tp904
sg626
((lp905
F40.0
tp906
sg880
((lp907
F39.989999999997963
tp908
sg850
((lp909
F39.989999999997963
tp910
sg655
((lp911
F39.989999999997963
tp912
sg677
((lp913
(F0.026021003723144531
I7
tp914
aF40.0
tp915
sg698
((lp916
F39.990000000005239
tp917
sg738
((lp918
F39.989999999997963
tp919
sg760
((lp920
(F0.0037159919738769531
I2
tp921
aF39.989999999997963
tp922
sg771
((lp923
F39.989999999997963
tp924
sg798
((lp925
F40.0
tp926
sg865
((lp927
F40.310000000004948
tp928
ssba(imeasure_core
ProblemSetSolution
p929
(dp930
g3
g4
sg134
S"AnytimeBeam-w4-gf(4, 'lin')_with_PowerHeuristic2"
p931
sg137
(dp932
g8
((lp933
(F0.49981307983398438
I11
tp934
aF40.019999999996799
tp935
sg49
((lp936
F39.989999999997963
tp937
sg75
((lp938
(F1.2832810878753662
I10
tp939
aF40.340000000003783
tp940
sg105
((lp941
F40.019999999996799
tp942
ssba(imeasure_core
ProblemSetSolution
p943
(dp944
g3
g151
sg134
g931
sg137
(dp945
g154
((lp946
F40.040000000000873
tp947
sg203
((lp948
F40.05000000000291
tp949
sg258
((lp950
(F0.58352398872375488
I7
tp951
aF40.119999999995343
tp952
sg303
((lp953
F40.069999999999709
tp954
ssba(imeasure_core
ProblemSetSolution
p955
(dp956
g3
g365
sg134
g931
sg137
(dp957
g368
((lp958
F40.380000000004657
tp959
sg414
((lp960
F40.189999999995052
tp961
sg465
((lp962
F40.930000000000291
tp963
sg515
((lp964
F40.180000000000291
tp965
ssba(imeasure_core
ProblemSetSolution
p966
(dp967
g3
g570
sg134
g931
sg137
(dp968
g809
((lp969
F40.059999999997672
tp970
sg824
((lp971
F40.180000000000291
tp972
sg573
((lp973
F39.989999999997963
tp974
sg839
((lp975
F39.989999999997963
tp976
sg599
((lp977
F39.990000000005239
tp978
sg614
((lp979
F40.0
tp980
sg626
((lp981
F40.0
tp982
sg880
((lp983
F39.989999999997963
tp984
sg850
((lp985
F39.990000000005239
tp986
sg655
((lp987
F39.989999999997963
tp988
sg677
((lp989
(F0.026078939437866211
I7
tp990
aF40.0
tp991
sg698
((lp992
F39.989999999997963
tp993
sg738
((lp994
F40.0
tp995
sg760
((lp996
(F0.0037069320678710938
I2
tp997
aF40.0
tp998
sg771
((lp999
F39.990000000005239
tp1000
sg798
((lp1001
F39.989999999997963
tp1002
sg865
((lp1003
F40.239999999997963
tp1004
ssba(imeasure_core
ProblemSetSolution
p1005
(dp1006
g3
g4
sg134
S"AnytimeBeam-w4-gf(8, 'lin')_with_PowerHeuristic2"
p1007
sg137
(dp1008
g8
((lp1009
(F0.49886894226074219
I11
tp1010
aF40.150000000001455
tp1011
sg49
((lp1012
F40.0
tp1013
sg75
((lp1014
(F1.3446531295776367
I10
tp1015
aF40.369999999995343
tp1016
sg105
((lp1017
F40.030000000006112
tp1018
ssba(imeasure_core
ProblemSetSolution
p1019
(dp1020
g3
g151
sg134
g1007
sg137
(dp1021
g154
((lp1022
F40.020000000004075
tp1023
sg203
((lp1024
F40.0
tp1025
sg258
((lp1026
(F0.59208798408508301
I7
tp1027
aF40.049999999995634
tp1028
sg303
((lp1029
F40.010000000002037
tp1030
ssba(imeasure_core
ProblemSetSolution
p1031
(dp1032
g3
g365
sg134
g1007
sg137
(dp1033
g368
((lp1034
F40.879999999997381
tp1035
sg414
((lp1036
F40.05000000000291
tp1037
sg465
((lp1038
F41.059999999997672
tp1039
sg515
((lp1040
F40.010000000002037
tp1041
ssba(imeasure_core
ProblemSetSolution
p1042
(dp1043
g3
g570
sg134
g1007
sg137
(dp1044
g809
((lp1045
F40.140000000006694
tp1046
sg824
((lp1047
F40.059999999997672
tp1048
sg573
((lp1049
F39.990000000005239
tp1050
sg839
((lp1051
F39.989999999997963
tp1052
sg599
((lp1053
F39.989999999997963
tp1054
sg614
((lp1055
F40.019999999996799
tp1056
sg626
((lp1057
F39.990000000005239
tp1058
sg880
((lp1059
F40.0
tp1060
sg850
((lp1061
F39.989999999997963
tp1062
sg655
((lp1063
F39.989999999997963
tp1064
sg677
((lp1065
(F0.025991916656494141
I7
tp1066
aF39.989999999997963
tp1067
sg698
((lp1068
F39.990000000005239
tp1069
sg738
((lp1070
F40.0
tp1071
sg760
((lp1072
(F0.0037059783935546875
I2
tp1073
aF39.989999999997963
tp1074
sg771
((lp1075
F39.989999999997963
tp1076
sg798
((lp1077
F39.989999999997963
tp1078
sg865
((lp1079
F40.490000000005239
tp1080
ssba(imeasure_core
ProblemSetSolution
p1081
(dp1082
g3
g4
sg134
S"AnytimeBeam-w4-gf(16, 'lin')_with_PowerHeuristic2"
p1083
sg137
(dp1084
g8
((lp1085
(F0.50158500671386719
I11
tp1086
aF40.19999999999709
tp1087
sg49
((lp1088
F39.989999999997963
tp1089
sg75
((lp1090
(F1.346933126449585
I10
tp1091
aF40.340000000003783
tp1092
sg105
((lp1093
F39.989999999997963
tp1094
ssba(imeasure_core
ProblemSetSolution
p1095
(dp1096
g3
g151
sg134
g1083
sg137
(dp1097
g154
((lp1098
F40.040000000000873
tp1099
sg203
((lp1100
F40.009999999994761
tp1101
sg258
((lp1102
(F0.59114193916320801
I7
tp1103
aF40.090000000003783
tp1104
sg303
((lp1105
F40.05000000000291
tp1106
ssba(imeasure_core
ProblemSetSolution
p1107
(dp1108
g3
g365
sg134
g1083
sg137
(dp1109
g368
((lp1110
F41.5
tp1111
sg414
((lp1112
F40.240000000005239
tp1113
sg465
((lp1114
F40.889999999999418
tp1115
sg515
((lp1116
F40.379999999997381
tp1117
ssba(imeasure_core
ProblemSetSolution
p1118
(dp1119
g3
g570
sg134
g1083
sg137
(dp1120
g809
((lp1121
F40.120000000002619
tp1122
sg824
((lp1123
F40.029999999998836
tp1124
sg573
((lp1125
F39.989999999997963
tp1126
sg839
((lp1127
F39.989999999997963
tp1128
sg599
((lp1129
F39.990000000005239
tp1130
sg614
((lp1131
F39.989999999997963
tp1132
sg626
((lp1133
F40.0
tp1134
sg880
((lp1135
F40.0
tp1136
sg850
((lp1137
F39.989999999997963
tp1138
sg655
((lp1139
F39.989999999997963
tp1140
sg677
((lp1141
(F0.026093959808349609
I7
tp1142
aF39.989999999997963
tp1143
sg698
((lp1144
F40.0
tp1145
sg738
((lp1146
F39.990000000005239
tp1147
sg760
((lp1148
(F0.0037050247192382812
I2
tp1149
aF39.989999999997963
tp1150
sg771
((lp1151
F39.989999999997963
tp1152
sg798
((lp1153
F40.010000000002037
tp1154
sg865
((lp1155
F40.279999999998836
tp1156
ssba(imeasure_core
ProblemSetSolution
p1157
(dp1158
g3
g4
sg134
S"AnytimeBeam-w4-gf(2, 'lin')_with_LinearHeuristic"
p1159
sg137
(dp1160
g8
((lp1161
F40.069999999999709
tp1162
sg49
((lp1163
(F0.017732858657836914
I25
tp1164
aF39.990000000005239
tp1165
sg75
((lp1166
F40.019999999996799
tp1167
sg105
((lp1168
(F0.28036999702453613
I8
tp1169
aF40.010000000002037
tp1170
ssba(imeasure_core
ProblemSetSolution
p1171
(dp1172
g3
g151
sg134
g1159
sg137
(dp1173
g154
((lp1174
F40.169999999998254
tp1175
sg203
((lp1176
F39.989999999997963
tp1177
sg258
((lp1178
(F0.92438101768493652
I7
tp1179
aF40.080000000001746
tp1180
sg303
((lp1181
F40.019999999996799
tp1182
ssba(imeasure_core
ProblemSetSolution
p1183
(dp1184
g3
g365
sg134
g1159
sg137
(dp1185
g368
((lp1186
F43.67000000000553
tp1187
sg414
((lp1188
F40.439999999995052
tp1189
sg465
((lp1190
F41.310000000004948
tp1191
sg515
((lp1192
F40.069999999999709
tp1193
ssba(imeasure_core
ProblemSetSolution
p1194
(dp1195
g3
g570
sg134
g1159
sg137
(dp1196
g809
((lp1197
F40.519999999996799
tp1198
sg824
((lp1199
F40.279999999998836
tp1200
sg573
((lp1201
F39.989999999997963
tp1202
sg839
((lp1203
F39.989999999997963
tp1204
sg599
((lp1205
F39.989999999997963
tp1206
sg614
((lp1207
F40.0
tp1208
sg626
((lp1209
F39.989999999997963
tp1210
sg880
((lp1211
F40.0
tp1212
sg850
((lp1213
F39.990000000005239
tp1214
sg655
((lp1215
F39.990000000005239
tp1216
sg677
((lp1217
F40.0
tp1218
sg698
((lp1219
F39.989999999997963
tp1220
sg738
((lp1221
F39.989999999997963
tp1222
sg760
((lp1223
(F0.0052199363708496094
I2
tp1224
aF40.0
tp1225
sg771
((lp1226
F39.990000000005239
tp1227
sg798
((lp1228
F40.0
tp1229
sg865
((lp1230
F40.769999999996799
tp1231
ssba(imeasure_core
ProblemSetSolution
p1232
(dp1233
g3
g4
sg134
S"AnytimeBeam-w4-gf(4, 'lin')_with_LinearHeuristic"
p1234
sg137
(dp1235
g8
((lp1236
F40.120000000002619
tp1237
sg49
((lp1238
(F0.018453121185302734
I25
tp1239
aF39.989999999997963
tp1240
sg75
((lp1241
F40.040000000000873
tp1242
sg105
((lp1243
(F0.30051493644714355
I8
tp1244
aF40.009999999994761
tp1245
ssba(imeasure_core
ProblemSetSolution
p1246
(dp1247
g3
g151
sg134
g1234
sg137
(dp1248
g154
((lp1249
F40.230000000003201
tp1250
sg203
((lp1251
F39.989999999997963
tp1252
sg258
((lp1253
(F0.95681595802307129
I7
tp1254
aF40.029999999998836
tp1255
sg303
((lp1256
F40.130000000004657
tp1257
ssba(imeasure_core
ProblemSetSolution
p1258
(dp1259
g3
g365
sg134
g1234
sg137
(dp1260
g368
((lp1261
F43.970000000001164
tp1262
sg414
((lp1263
F40.290000000000873
tp1264
sg465
((lp1265
F40.110000000000582
tp1266
sg515
((lp1267
F40.299999999995634
tp1268
ssba(imeasure_core
ProblemSetSolution
p1269
(dp1270
g3
g570
sg134
g1234
sg137
(dp1271
g809
((lp1272
F40.089999999996508
tp1273
sg824
((lp1274
F40.190000000002328
tp1275
sg573
((lp1276
F39.989999999997963
tp1277
sg839
((lp1278
F40.0
tp1279
sg599
((lp1280
F39.980000000003201
tp1281
sg614
((lp1282
F40.019999999996799
tp1283
sg626
((lp1284
F39.990000000005239
tp1285
sg880
((lp1286
F39.989999999997963
tp1287
sg850
((lp1288
F39.989999999997963
tp1289
sg655
((lp1290
F39.989999999997963
tp1291
sg677
((lp1292
F40.0
tp1293
sg698
((lp1294
F40.0
tp1295
sg738
((lp1296
F39.989999999997963
tp1297
sg760
((lp1298
(F0.0051820278167724609
I2
tp1299
aF39.990000000005239
tp1300
sg771
((lp1301
F39.989999999997963
tp1302
sg798
((lp1303
F40.0
tp1304
sg865
((lp1305
F40.090000000003783
tp1306
ssba(imeasure_core
ProblemSetSolution
p1307
(dp1308
g3
g4
sg134
S"AnytimeBeam-w4-gf(8, 'lin')_with_LinearHeuristic"
p1309
sg137
(dp1310
g8
((lp1311
F40.080000000001746
tp1312
sg49
((lp1313
(F0.018474102020263672
I25
tp1314
aF39.989999999997963
tp1315
sg75
((lp1316
F40.029999999998836
tp1317
sg105
((lp1318
(F0.31025815010070801
I8
tp1319
aF40.020000000004075
tp1320
ssba(imeasure_core
ProblemSetSolution
p1321
(dp1322
g3
g151
sg134
g1309
sg137
(dp1323
g154
((lp1324
F40.080000000001746
tp1325
sg203
((lp1326
F40.029999999998836
tp1327
sg258
((lp1328
(F0.99662494659423828
I7
tp1329
aF40.130000000004657
tp1330
sg303
((lp1331
F40.0
tp1332
ssba(imeasure_core
ProblemSetSolution
p1333
(dp1334
g3
g365
sg134
g1309
sg137
(dp1335
g368
((lp1336
F44.759999999994761
tp1337
sg414
((lp1338
F40.510000000002037
tp1339
sg465
((lp1340
F40.400000000001455
tp1341
sg515
((lp1342
F40.150000000001455
tp1343
ssba(imeasure_core
ProblemSetSolution
p1344
(dp1345
g3
g570
sg134
g1309
sg137
(dp1346
g809
((lp1347
F40.330000000001746
tp1348
sg824
((lp1349
F40.209999999999127
tp1350
sg573
((lp1351
F40.0
tp1352
sg839
((lp1353
F39.989999999997963
tp1354
sg599
((lp1355
F39.989999999997963
tp1356
sg614
((lp1357
F40.0
tp1358
sg626
((lp1359
F40.0
tp1360
sg880
((lp1361
F39.989999999997963
tp1362
sg850
((lp1363
F40.0
tp1364
sg655
((lp1365
F39.989999999997963
tp1366
sg677
((lp1367
(F8.8624711036682129
I7
tp1368
aF39.990000000005239
tp1369
sg698
((lp1370
F40.0
tp1371
sg738
((lp1372
F40.0
tp1373
sg760
((lp1374
(F0.0051891803741455078
I2
tp1375
aF39.989999999997963
tp1376
sg771
((lp1377
F40.0
tp1378
sg798
((lp1379
F39.989999999997963
tp1380
sg865
((lp1381
F40.260000000002037
tp1382
ssba(imeasure_core
ProblemSetSolution
p1383
(dp1384
g3
g4
sg134
S"AnytimeBeam-w4-gf(16, 'lin')_with_LinearHeuristic"
p1385
sg137
(dp1386
g8
((lp1387
F40.059999999997672
tp1388
sg49
((lp1389
(F0.018420934677124023
I25
tp1390
aF39.990000000005239
tp1391
sg75
((lp1392
F40.069999999999709
tp1393
sg105
((lp1394
(F0.32507801055908203
I8
tp1395
aF40.029999999998836
tp1396
ssba(imeasure_core
ProblemSetSolution
p1397
(dp1398
g3
g151
sg134
g1385
sg137
(dp1399
g154
((lp1400
F40.159999999996217
tp1401
sg203
((lp1402
F40.020000000004075
tp1403
sg258
((lp1404
(F1.0008440017700195
I7
tp1405
aF40.080000000001746
tp1406
sg303
((lp1407
F40.069999999999709
tp1408
ssba(imeasure_core
ProblemSetSolution
p1409
(dp1410
g3
g365
sg134
g1385
sg137
(dp1411
g368
((lp1412
F46.100000000005821
tp1413
sg414
((lp1414
F40.139999999999418
tp1415
sg465
((lp1416
F42.119999999995343
tp1417
sg515
((lp1418
F40.209999999999127
tp1419
ssba(imeasure_core
ProblemSetSolution
p1420
(dp1421
g3
g570
sg134
g1385
sg137
(dp1422
g809
((lp1423
F40.450000000004366
tp1424
sg824
((lp1425
F40.599999999998545
tp1426
sg573
((lp1427
F40.0
tp1428
sg839
((lp1429
F39.989999999997963
tp1430
sg599
((lp1431
F39.990000000005239
tp1432
sg614
((lp1433
F40.0
tp1434
sg626
((lp1435
F39.989999999997963
tp1436
sg880
((lp1437
F40.0
tp1438
sg850
((lp1439
F40.0
tp1440
sg655
((lp1441
F39.989999999997963
tp1442
sg677
((lp1443
(F8.8671729564666748
I7
tp1444
aF40.0
tp1445
sg698
((lp1446
F39.989999999997963
tp1447
sg738
((lp1448
F40.0
tp1449
sg760
((lp1450
(F0.005207061767578125
I2
tp1451
aF39.990000000005239
tp1452
sg771
((lp1453
F39.989999999997963
tp1454
sg798
((lp1455
F39.989999999997963
tp1456
sg865
((lp1457
F40.760000000002037
tp1458
ssba.