(lp0
(imeasure_core
ProblemSetSolution
p1
(dp2
S'roomset'
p3
(imeasure_core
RoomSet
p4
(dp5
S'rooms'
p6
(dp7
(iproblems
RoomID
p8
(dp9
S'dusts'
p10
I8
sS'obstacles'
p11
(I0
I4
tp12
sS'robots'
p13
I4
sS'height'
p14
I7
sS'width'
p15
I9
sS'seed'
p16
I1689441204489037471
sb(imulti_robot_problem
MultiRobotState
p17
(dp18
S'obstacle_locations'
p19
c__builtin__
frozenset
p20
((lp21
(I0
I1
tp22
a(I1
I2
tp23
a(I3
I2
tp24
a(I8
I1
tp25
a(I4
I3
tp26
ag12
a(I0
I3
tp27
a(I4
I0
tp28
atp29
Rp30
sg15
I9
sS'dirt_locations'
p31
g20
((lp32
(I0
I0
tp33
a(I7
I0
tp34
a(I7
I6
tp35
a(I1
I4
tp36
a(I6
I2
tp37
a(I2
I3
tp38
a(I5
I1
tp39
a(I3
I5
tp40
atp41
Rp42
sg13
((I6
I0
tp43
(I5
I4
tp44
(I6
I6
tp45
(I5
I0
tp46
tp47
sg14
I7
sbs(iproblems
RoomID
p48
(dp49
g10
I10
sg11
(I4
I5
tp50
sg13
I3
sg14
I8
sg15
I10
sg16
I6660334802794327005
sb(imulti_robot_problem
MultiRobotState
p51
(dp52
g19
g20
((lp53
(I9
I0
tp54
a(I2
I6
tp55
a(I1
I6
tp56
a(I3
I6
tp57
ag50
a(I8
I4
tp58
atp59
Rp60
sg15
I10
sg31
g20
((lp61
(I9
I1
tp62
a(I5
I6
tp63
a(I9
I6
tp64
a(I1
I5
tp65
a(I7
I5
tp66
a(I9
I4
tp67
a(I1
I7
tp68
a(I4
I1
tp69
a(I7
I2
tp70
a(I8
I2
tp71
atp72
Rp73
sg13
((I7
I3
tp74
(I4
I7
tp75
(I4
I2
tp76
tp77
sg14
I8
sbs(iproblems
RoomID
p78
(dp79
g10
I7
sg11
(I2
I5
tp80
sg13
I5
sg14
I9
sg15
I9
sg16
I4640892725076559864
sb(imulti_robot_problem
MultiRobotState
p81
(dp82
g19
g20
((lp83
(I2
I6
tp84
a(I6
I7
tp85
a(I0
I6
tp86
a(I3
I1
tp87
a(I1
I5
tp88
a(I1
I6
tp89
a(I0
I4
tp90
ag80
a(I3
I4
tp91
atp92
Rp93
sg15
I9
sg31
g20
((lp94
(I3
I8
tp95
a(I7
I3
tp96
a(I7
I1
tp97
a(I8
I1
tp98
a(I8
I6
tp99
a(I4
I2
tp100
a(I5
I3
tp101
atp102
Rp103
sg13
((I6
I5
tp104
(I8
I4
tp105
(I7
I6
tp106
(I6
I0
tp107
(I6
I3
tp108
tp109
sg14
I9
sbs(iproblems
RoomID
p110
(dp111
g10
I6
sg11
(I8
I4
tp112
sg13
I4
sg14
I10
sg15
I9
sg16
I3119042104763040036
sb(imulti_robot_problem
MultiRobotState
p113
(dp114
g19
g20
((lp115
(I1
I2
tp116
a(I6
I7
tp117
a(I4
I8
tp118
a(I7
I6
tp119
a(I8
I5
tp120
ag112
atp121
Rp122
sg15
I9
sg31
g20
((lp123
(I6
I8
tp124
a(I8
I7
tp125
a(I6
I6
tp126
a(I3
I0
tp127
a(I7
I2
tp128
a(I6
I5
tp129
atp130
Rp131
sg13
((I5
I9
tp132
(I6
I1
tp133
(I3
I4
tp134
(I2
I7
tp135
tp136
sg14
I10
sbssS'name'
p137
S'easy_roomset'
p138
sbsg137
S'LimitedTimeAStar_with_PowerHeuristic2'
p139
sS'solutions'
p140
(dp141
g8
((lp142
F0.23000000000001819
tp143
sg48
((lp144
F0.25
tp145
sg78
((lp146
F1.1999999999999318
tp147
sg110
((lp148
F1.2799999999999727
tp149
ssba(imeasure_core
ProblemSetSolution
p150
(dp151
g3
(imeasure_core
RoomSet
p152
(dp153
g6
(dp154
(iproblems
RoomID
p155
(dp156
g10
I6
sg11
(I5
I5
tp157
sg13
I4
sg14
I12
sg15
I11
sg16
I3119042104763040036
sb(imulti_robot_problem
MultiRobotState
p158
(dp159
g19
g20
((lp160
(I4
I6
tp161
a(I10
I4
tp162
a(I3
I0
tp163
a(I9
I8
tp164
a(I10
I6
tp165
a(I2
I1
tp166
a(I8
I9
tp167
a(I2
I3
tp168
a(I0
I10
tp169
a(I9
I5
tp170
a(I10
I3
tp171
a(I7
I9
tp172
ag157
a(I10
I7
tp173
a(I7
I8
tp174
a(I4
I4
tp175
a(I9
I2
tp176
a(I2
I4
tp177
a(I4
I5
tp178
a(I2
I2
tp179
a(I3
I3
tp180
a(I3
I4
tp181
a(I1
I1
tp182
atp183
Rp184
sg15
I11
sg31
g20
((lp185
(I8
I3
tp186
a(I8
I8
tp187
a(I5
I10
tp188
a(I9
I4
tp189
a(I8
I6
tp190
a(I10
I9
tp191
atp192
Rp193
sg13
((I6
I11
tp194
(I7
I2
tp195
(I2
I8
tp196
(I8
I10
tp197
tp198
sg14
I12
sbs(iproblems
RoomID
p199
(dp200
g10
I6
sg11
(I4
I8
tp201
sg13
I4
sg14
I12
sg15
I9
sg16
I3914746131789064238
sb(imulti_robot_problem
MultiRobotState
p202
(dp203
g19
g20
((lp204
(I4
I6
tp205
a(I6
I6
tp206
a(I4
I5
tp207
a(I5
I7
tp208
a(I0
I5
tp209
a(I0
I10
tp210
a(I8
I7
tp211
a(I7
I0
tp212
a(I0
I3
tp213
a(I8
I5
tp214
a(I4
I0
tp215
a(I2
I3
tp216
a(I6
I7
tp217
a(I3
I3
tp218
a(I8
I1
tp219
a(I7
I6
tp220
a(I3
I1
tp221
ag201
a(I5
I0
tp222
a(I2
I2
tp223
a(I0
I9
tp224
a(I8
I6
tp225
a(I5
I3
tp226
a(I6
I1
tp227
atp228
Rp229
sg15
I9
sg31
g20
((lp230
(I1
I8
tp231
a(I1
I9
tp232
a(I4
I3
tp233
a(I4
I4
tp234
a(I2
I11
tp235
a(I2
I10
tp236
atp237
Rp238
sg13
((I1
I10
tp239
(I6
I2
tp240
(I7
I3
tp241
(I1
I11
tp242
tp243
sg14
I12
sbs(iproblems
RoomID
p244
(dp245
g10
I9
sg11
(I9
I9
tp246
sg13
I3
sg14
I10
sg15
I10
sg16
I3273124617966689144
sb(imulti_robot_problem
MultiRobotState
p247
(dp248
g19
g20
((lp249
(I7
I3
tp250
a(I5
I4
tp251
a(I1
I3
tp252
a(I6
I4
tp253
a(I4
I5
tp254
a(I9
I8
tp255
a(I3
I2
tp256
a(I7
I5
tp257
a(I1
I6
tp258
a(I2
I5
tp259
a(I0
I8
tp260
a(I9
I6
tp261
a(I6
I5
tp262
a(I5
I3
tp263
a(I3
I3
tp264
a(I5
I5
tp265
a(I7
I6
tp266
ag246
a(I6
I3
tp267
a(I4
I3
tp268
a(I2
I3
tp269
a(I8
I6
tp270
a(I2
I4
tp271
a(I9
I7
tp272
atp273
Rp274
sg15
I10
sg31
g20
((lp275
(I7
I0
tp276
a(I3
I0
tp277
a(I6
I1
tp278
a(I3
I1
tp279
a(I5
I0
tp280
a(I2
I2
tp281
a(I3
I4
tp282
a(I1
I1
tp283
a(I8
I4
tp284
atp285
Rp286
sg13
((I0
I7
tp287
(I2
I1
tp288
(I6
I6
tp289
tp290
sg14
I10
sbs(iproblems
RoomID
p291
(dp292
g10
I5
sg11
(I5
I7
tp293
sg13
I4
sg14
I9
sg15
I12
sg16
I659184109953178577
sb(imulti_robot_problem
MultiRobotState
p294
(dp295
g19
g20
((lp296
(I7
I3
tp297
a(I4
I7
tp298
a(I8
I2
tp299
a(I6
I6
tp300
a(I4
I5
tp301
a(I7
I7
tp302
a(I11
I0
tp303
a(I7
I5
tp304
a(I9
I4
tp305
a(I2
I5
tp306
a(I0
I8
tp307
a(I10
I3
tp308
a(I7
I2
tp309
a(I4
I6
tp310
a(I6
I4
tp311
a(I4
I3
tp312
a(I3
I3
tp313
a(I6
I1
tp314
ag293
a(I6
I5
tp315
a(I3
I6
tp316
a(I8
I6
tp317
a(I3
I4
tp318
atp319
Rp320
sg15
I12
sg31
g20
((lp321
(I10
I8
tp322
a(I4
I1
tp323
a(I0
I2
tp324
a(I1
I6
tp325
a(I10
I4
tp326
atp327
Rp328
sg13
((I10
I0
tp329
(I7
I0
tp330
(I2
I6
tp331
(I8
I3
tp332
tp333
sg14
I9
sbssg137
S'mild_roomset'
p334
sbsg137
g139
sg140
(dp335
g155
((lp336
F0.7800000000000864
tp337
sg199
((lp338
F0.17999999999994998
tp339
sg244
((lp340
F0.81000000000005912
tp341
sg291
((lp342
F0.69999999999993179
tp343
ssba(imeasure_core
ProblemSetSolution
p344
(dp345
g3
(imeasure_core
RoomSet
p346
(dp347
g6
(dp348
(iproblems
RoomID
p349
(dp350
g10
I13
sg11
(I3
I4
tp351
sg13
I6
sg14
I10
sg15
I12
sg16
I1689441204489037471
sb(imulti_robot_problem
MultiRobotState
p352
(dp353
g19
g20
((lp354
(I7
I3
tp355
a(I1
I3
tp356
a(I8
I7
tp357
a(I10
I6
tp358
a(I7
I7
tp359
a(I6
I2
tp360
a(I1
I6
tp361
a(I9
I4
tp362
a(I4
I2
tp363
a(I5
I1
tp364
a(I10
I3
tp365
a(I2
I7
tp366
a(I9
I3
tp367
a(I9
I5
tp368
a(I0
I5
tp369
a(I11
I5
tp370
a(I8
I5
tp371
a(I5
I2
tp372
a(I0
I2
tp373
a(I3
I8
tp374
a(I4
I3
tp375
a(I0
I4
tp376
ag351
a(I8
I6
tp377
a(I4
I1
tp378
a(I1
I1
tp379
a(I8
I4
tp380
atp381
Rp382
sg15
I12
sg31
g20
((lp383
(I8
I9
tp384
a(I9
I0
tp385
a(I0
I0
tp386
a(I10
I4
tp387
a(I4
I8
tp388
a(I8
I1
tp389
a(I11
I2
tp390
a(I5
I4
tp391
a(I7
I4
tp392
a(I11
I8
tp393
a(I2
I6
tp394
a(I2
I3
tp395
a(I1
I5
tp396
atp397
Rp398
sg13
((I8
I0
tp399
(I7
I6
tp400
(I8
I8
tp401
(I7
I0
tp402
(I2
I4
tp403
(I9
I9
tp404
tp405
sg14
I10
sbs(iproblems
RoomID
p406
(dp407
g10
I15
sg11
(I10
I7
tp408
sg13
I6
sg14
I11
sg15
I13
sg16
I6660334802794327005
sb(imulti_robot_problem
MultiRobotState
p409
(dp410
g19
g20
((lp411
(I4
I7
tp412
a(I11
I7
tp413
a(I5
I6
tp414
a(I2
I8
tp415
a(I9
I9
tp416
a(I9
I10
tp417
a(I10
I8
tp418
a(I9
I0
tp419
ag408
a(I5
I7
tp420
a(I8
I10
tp421
a(I3
I8
tp422
a(I1
I5
tp423
a(I1
I8
tp424
a(I1
I10
tp425
a(I10
I0
tp426
a(I2
I4
tp427
atp428
Rp429
sg15
I13
sg31
g20
((lp430
(I2
I7
tp431
a(I12
I2
tp432
a(I6
I9
tp433
a(I6
I10
tp434
a(I12
I1
tp435
a(I2
I9
tp436
a(I12
I0
tp437
a(I12
I9
tp438
a(I11
I2
tp439
a(I10
I6
tp440
a(I1
I7
tp441
a(I12
I5
tp442
a(I6
I3
tp443
a(I10
I3
tp444
a(I12
I8
tp445
atp446
Rp447
sg13
((I9
I5
tp448
(I5
I10
tp449
(I5
I3
tp450
(I5
I1
tp451
(I9
I3
tp452
(I7
I8
tp453
tp454
sg14
I11
sbs(iproblems
RoomID
p455
(dp456
g10
I12
sg11
(I8
I7
tp457
sg13
I7
sg14
I12
sg15
I12
sg16
I4640892725076559864
sb(imulti_robot_problem
MultiRobotState
p458
(dp459
g19
g20
((lp460
(I5
I9
tp461
a(I6
I9
tp462
a(I4
I8
tp463
a(I5
I6
tp464
a(I2
I8
tp465
a(I6
I0
tp466
a(I2
I10
tp467
a(I0
I9
tp468
a(I6
I2
tp469
ag457
a(I3
I7
tp470
a(I5
I1
tp471
a(I1
I0
tp472
a(I8
I5
tp473
a(I7
I9
tp474
a(I7
I4
tp475
a(I7
I0
tp476
a(I6
I8
tp477
a(I2
I9
tp478
a(I0
I6
tp479
a(I7
I6
tp480
a(I5
I7
tp481
a(I8
I10
tp482
a(I0
I2
tp483
a(I6
I3
tp484
a(I2
I0
tp485
a(I1
I8
tp486
a(I4
I5
tp487
a(I5
I2
tp488
a(I1
I1
tp489
a(I9
I7
tp490
atp491
Rp492
sg15
I12
sg31
g20
((lp493
(I2
I7
tp494
a(I6
I4
tp495
a(I11
I10
tp496
a(I4
I6
tp497
a(I11
I8
tp498
a(I11
I2
tp499
a(I9
I3
tp500
a(I3
I2
tp501
a(I8
I8
tp502
a(I0
I5
tp503
a(I10
I3
tp504
a(I5
I3
tp505
atp506
Rp507
sg13
((I8
I6
tp508
(I11
I5
tp509
(I10
I8
tp510
(I9
I0
tp511
(I9
I4
tp512
(I9
I2
tp513
(I4
I11
tp514
tp515
sg14
I12
sbs(iproblems
RoomID
p516
(dp517
g10
I11
sg11
(I7
I6
tp518
sg13
I7
sg14
I13
sg15
I12
sg16
I3119042104763040036
sb(imulti_robot_problem
MultiRobotState
p519
(dp520
g19
g20
((lp521
(I5
I4
tp522
a(I4
I5
tp523
a(I9
I8
tp524
a(I10
I6
tp525
a(I9
I0
tp526
a(I6
I0
tp527
a(I8
I9
tp528
a(I2
I12
tp529
a(I9
I6
tp530
a(I10
I5
tp531
a(I5
I10
tp532
a(I10
I7
tp533
ag518
a(I9
I9
tp534
a(I8
I6
tp535
a(I11
I6
tp536
a(I9
I7
tp537
atp538
Rp539
sg15
I12
sg31
g20
((lp540
(I1
I2
tp541
a(I4
I4
tp542
a(I5
I11
tp543
a(I5
I6
tp544
a(I3
I4
tp545
a(I8
I0
tp546
a(I8
I10
tp547
a(I0
I11
tp548
a(I2
I3
tp549
a(I7
I8
tp550
a(I4
I0
tp551
atp552
Rp553
sg13
((I7
I12
tp554
(I8
I2
tp555
(I4
I6
tp556
(I3
I9
tp557
(I9
I11
tp558
(I11
I9
tp559
(I9
I3
tp560
tp561
sg14
I13
sbssg137
S'heavy_roomset'
p562
sbsg137
g139
sg140
(dp563
g349
((lp564
F33.090000000000032
tp565
sg406
((lp566
F16.169999999999959
tp567
sg455
((lp568
F301.94999999999993
tp569
sg516
((lp570
F310.08000000000015
tp571
ssba(imeasure_core
ProblemSetSolution
p572
(dp573
g3
(imeasure_core
RoomSet
p574
(dp575
g6
(dp576
S'complexRoom'
p577
(imulti_robot_problem
MultiRobotState
p578
(dp579
g19
g20
((lp580
(I2
I7
tp581
a(I7
I3
tp582
a(I6
I3
tp583
a(I3
I3
tp584
a(I7
I6
tp585
a(I7
I4
tp586
a(I7
I5
tp587
a(I2
I3
tp588
a(I4
I3
tp589
a(I2
I5
tp590
a(I2
I4
tp591
a(I5
I3
tp592
atp593
Rp594
sg15
I11
sg31
g20
((lp595
(I1
I0
tp596
a(I9
I0
tp597
atp598
Rp599
sg13
((I6
I4
tp600
(I1
I6
tp601
tp602
sg14
I8
sbsS'exampleProblem'
p603
(imulti_robot_problem
MultiRobotState
p604
(dp605
g19
g20
((lp606
tp607
Rp608
sg15
I5
sg31
g20
((lp609
(I1
I3
tp610
a(I3
I1
tp611
a(I1
I1
tp612
a(I3
I3
tp613
atp614
Rp615
sg13
((I2
I2
tp616
tp617
sg14
I5
sbsS'linear_test'
p618
(imulti_robot_problem
MultiRobotState
p619
(dp620
g19
g608
sg15
I12
sg31
g20
((lp621
(I11
I0
tp622
a(I1
I0
tp623
a(I9
I0
tp624
atp625
Rp626
sg13
((I3
I0
tp627
(I1
I2
tp628
tp629
sg14
I7
sbsS'obstacle_Far_CloseTest'
p630
(imulti_robot_problem
MultiRobotState
p631
(dp632
g19
g20
((lp633
(I0
I1
tp634
a(I7
I3
tp635
a(I3
I1
tp636
a(I7
I1
tp637
a(I4
I5
tp638
a(I7
I6
tp639
a(I4
I4
tp640
a(I2
I1
tp641
a(I7
I4
tp642
a(I7
I5
tp643
a(I4
I3
tp644
a(I4
I2
tp645
a(I4
I1
tp646
a(I1
I1
tp647
a(I7
I2
tp648
atp649
Rp650
sg15
I12
sg31
g20
((lp651
(I3
I2
tp652
a(I9
I6
tp653
atp654
Rp655
sg13
((I0
I0
tp656
(I6
I6
tp657
tp658
sg14
I7
sbsS'zigzag'
p659
(imulti_robot_problem
MultiRobotState
p660
(dp661
g19
g20
((lp662
(I1
I2
tp663
a(I3
I2
tp664
a(I1
I3
tp665
a(I3
I0
tp666
a(I3
I1
tp667
a(I5
I1
tp668
a(I5
I2
tp669
a(I1
I1
tp670
a(I5
I3
tp671
atp672
Rp673
sg15
I20
sg31
g20
((lp674
(I6
I3
tp675
atp676
Rp677
sg13
((I0
I3
tp678
(I19
I3
tp679
tp680
sg14
I4
sbsS'room1'
p681
(imulti_robot_problem
MultiRobotState
p682
(dp683
g19
g20
((lp684
(I6
I3
tp685
a(I7
I3
tp686
a(I8
I3
tp687
a(I2
I3
tp688
a(I3
I3
tp689
a(I4
I3
tp690
a(I5
I3
tp691
atp692
Rp693
sg15
I9
sg31
g20
((lp694
(I0
I0
tp695
a(I2
I1
tp696
atp697
Rp698
sg13
((I6
I1
tp699
(I6
I5
tp700
tp701
sg14
I6
sbsS'complexRoom2'
p702
(imulti_robot_problem
MultiRobotState
p703
(dp704
g19
g20
((lp705
(I7
I3
tp706
a(I1
I3
tp707
a(I7
I1
tp708
a(I4
I5
tp709
a(I9
I3
tp710
a(I5
I5
tp711
a(I2
I6
tp712
a(I2
I3
tp713
a(I5
I1
tp714
a(I0
I3
tp715
a(I10
I3
tp716
a(I2
I5
tp717
a(I6
I5
tp718
a(I5
I3
tp719
a(I2
I7
tp720
a(I8
I3
tp721
a(I3
I3
tp722
a(I5
I2
tp723
a(I7
I6
tp724
a(I3
I1
tp725
a(I6
I3
tp726
a(I7
I5
tp727
a(I4
I3
tp728
a(I3
I5
tp729
a(I4
I1
tp730
a(I6
I1
tp731
atp732
Rp733
sg15
I11
sg31
g20
((lp734
(I7
I2
tp735
a(I0
I7
tp736
atp737
Rp738
sg13
((I1
I2
tp739
(I3
I6
tp740
tp741
sg14
I8
sbsS'zigzagUpright'
p742
(imulti_robot_problem
MultiRobotState
p743
(dp744
g19
g20
((lp745
(I1
I3
tp746
a(I3
I1
tp747
a(I2
I1
tp748
a(I1
I1
tp749
a(I1
I5
tp750
a(I2
I3
tp751
a(I2
I5
tp752
a(I0
I3
tp753
a(I3
I5
tp754
atp755
Rp756
sg15
I4
sg31
g20
((lp757
(I3
I6
tp758
atp759
Rp760
sg13
((I3
I0
tp761
(I3
I19
tp762
tp763
sg14
I20
sbsS'ivansRevenge'
p764
(imulti_robot_problem
MultiRobotState
p765
(dp766
g19
g608
sg15
I10
sg31
g20
((lp767
(I9
I2
tp768
a(I0
I0
tp769
atp770
Rp771
sg13
((I9
I0
tp772
(I0
I2
tp773
tp774
sg14
I3
sbsS'roomLongWithObstaccle'
p775
(imulti_robot_problem
MultiRobotState
p776
(dp777
g19
g20
((lp778
(I0
I1
tp779
a(I12
I1
tp780
a(I9
I1
tp781
a(I7
I1
tp782
a(I8
I1
tp783
a(I6
I1
tp784
a(I3
I1
tp785
a(I2
I1
tp786
a(I11
I1
tp787
a(I10
I1
tp788
a(I5
I1
tp789
a(I4
I1
tp790
a(I1
I1
tp791
atp792
Rp793
sg15
I15
sg31
g20
((lp794
(I0
I2
tp795
a(I14
I6
tp796
atp797
Rp798
sg13
((I0
I0
tp799
(I0
I6
tp800
tp801
sg14
I7
sbsS'twoRobotsInOpCorners'
p802
(imulti_robot_problem
MultiRobotState
p803
(dp804
g19
g608
sg15
I5
sg31
g20
((lp805
(I0
I0
tp806
a(I4
I4
tp807
atp808
Rp809
sg13
((I3
I0
tp810
(I0
I3
tp811
tp812
sg14
I5
sbsS'split2'
p813
(imulti_robot_problem
MultiRobotState
p814
(dp815
g19
g608
sg15
I10
sg31
g20
((lp816
(I0
I9
tp817
a(I9
I0
tp818
a(I0
I0
tp819
a(I9
I9
tp820
atp821
Rp822
sg13
((I1
I1
tp823
(I8
I1
tp824
(I4
I5
tp825
(I5
I5
tp826
tp827
sg14
I10
sbsS'split3'
p828
(imulti_robot_problem
MultiRobotState
p829
(dp830
g19
g608
sg15
I10
sg31
g20
((lp831
(I0
I9
tp832
a(I9
I0
tp833
a(I0
I0
tp834
a(I9
I9
tp835
atp836
Rp837
sg13
((I1
I1
tp838
(I8
I1
tp839
(I1
I7
tp840
(I7
I7
tp841
tp842
sg14
I10
sbsS'gaintRoom'
p843
(imulti_robot_problem
MultiRobotState
p844
(dp845
g19
g608
sg15
I5
sg31
g20
((lp846
(I4
I0
tp847
a(I4
I4
tp848
a(I0
I4
tp849
atp850
Rp851
sg13
((I0
I0
tp852
tp853
sg14
I5
sbsS'gaintRoomWithWall'
p854
(imulti_robot_problem
MultiRobotState
p855
(dp856
g19
g20
((lp857
(I2
I4
tp858
atp859
Rp860
sg15
I5
sg31
g20
((lp861
(I4
I0
tp862
a(I4
I4
tp863
a(I0
I4
tp864
atp865
Rp866
sg13
((I0
I0
tp867
tp868
sg14
I5
sbsS'split'
p869
(imulti_robot_problem
MultiRobotState
p870
(dp871
g19
g608
sg15
I10
sg31
g20
((lp872
(I0
I9
tp873
a(I9
I0
tp874
a(I0
I0
tp875
a(I9
I9
tp876
atp877
Rp878
sg13
((I4
I4
tp879
(I5
I4
tp880
(I4
I5
tp881
(I5
I5
tp882
tp883
sg14
I10
sbsS'twoRobots'
p884
(imulti_robot_problem
MultiRobotState
p885
(dp886
g19
g608
sg15
I9
sg31
g20
((lp887
(I8
I0
tp888
a(I0
I0
tp889
atp890
Rp891
sg13
((I2
I0
tp892
(I0
I3
tp893
tp894
sg14
I4
sbssg137
S'static_rooms'
p895
sbsg137
g139
sg140
(dp896
g813
((lp897
F0.25999999999999091
tp898
sg828
((lp899
F0.11999999999989086
tp900
sg577
((lp901
F0.029999999999972715
tp902
sg843
((lp903
F0.029999999999972715
tp904
sg603
((lp905
F0.0
tp906
sg618
((lp907
F0.01999999999998181
tp908
sg630
((lp909
F21.529999999999973
tp910
sg884
((lp911
F0.0099999999999909051
tp912
sg854
((lp913
F0.01999999999998181
tp914
sg659
((lp915
F1.4900000000000091
tp916
sg681
((lp917
F0.01999999999998181
tp918
sg702
((lp919
F6.8900000000001
tp920
sg742
((lp921
F2.8299999999999272
tp922
sg764
((lp923
F0.0
tp924
sg775
((lp925
F11.3900000000001
tp926
sg802
((lp927
F0.0099999999999909051
tp928
sg869
((lp929
F0.25999999999999091
tp930
ssba.