(lp0
(imeasure_core
ProblemSetSolution
p1
(dp2
S'roomset'
p3
(imeasure_core
RoomSet
p4
(dp5
S'rooms'
p6
(dp7
(iproblems
RoomID
p8
(dp9
S'dusts'
p10
I6
sS'obstacles'
p11
(I0
I4
tp12
sS'robots'
p13
I1
sS'height'
p14
I9
sS'width'
p15
I9
sS'seed'
p16
I1164115433906158532
sb(imulti_robot_problem
MultiRobotState
p17
(dp18
S'obstacle_locations'
p19
c__builtin__
frozenset
p20
((lp21
(I0
I1
tp22
a(I1
I2
tp23
a(I1
I3
tp24
a(I1
I4
tp25
ag12
atp26
Rp27
sg15
I9
sS'dirt_locations'
p28
g20
((lp29
(I6
I4
tp30
a(I1
I8
tp31
a(I1
I6
tp32
a(I1
I0
tp33
a(I8
I5
tp34
a(I3
I5
tp35
atp36
Rp37
sg13
((I4
I5
tp38
tp39
sg14
I9
sbs(iproblems
RoomID
p40
(dp41
g10
I8
sg11
(I6
I5
tp42
sg13
I5
sg14
I8
sg15
I7
sg16
I2175216119781798972
sb(imulti_robot_problem
MultiRobotState
p43
(dp44
g19
g20
((lp45
(I1
I2
tp46
a(I2
I6
tp47
a(I6
I7
tp48
a(I6
I6
tp49
a(I5
I7
tp50
a(I2
I3
tp51
a(I0
I4
tp52
a(I1
I0
tp53
ag42
atp54
Rp55
sg15
I7
sg28
g20
((lp56
(I5
I4
tp57
a(I5
I5
tp58
a(I4
I4
tp59
a(I0
I6
tp60
a(I0
I5
tp61
a(I1
I7
tp62
a(I4
I2
tp63
a(I0
I2
tp64
atp65
Rp66
sg13
((I1
I3
tp67
(I6
I4
tp68
(I3
I7
tp69
(I6
I0
tp70
(I2
I1
tp71
tp72
sg14
I8
sbs(iproblems
RoomID
p73
(dp74
g10
I9
sg11
(I6
I3
tp75
sg13
I4
sg14
I9
sg15
I10
sg16
I7002664860023442459
sb(imulti_robot_problem
MultiRobotState
p76
(dp77
g19
g20
((lp78
(I7
I4
tp79
a(I7
I3
tp80
ag75
a(I6
I5
tp81
a(I9
I7
tp82
atp83
Rp84
sg15
I10
sg28
g20
((lp85
(I0
I0
tp86
a(I6
I8
tp87
a(I2
I8
tp88
a(I5
I7
tp89
a(I2
I6
tp90
a(I4
I2
tp91
a(I5
I1
tp92
a(I8
I6
tp93
a(I8
I4
tp94
atp95
Rp96
sg13
((I7
I5
tp97
(I7
I6
tp98
(I1
I7
tp99
(I1
I6
tp100
tp101
sg14
I9
sbs(iproblems
RoomID
p102
(dp103
g10
I5
sg11
(I0
I4
tp104
sg13
I5
sg14
I7
sg15
I7
sg16
I8711387064946514083
sb(imulti_robot_problem
MultiRobotState
p105
(dp106
g19
g20
((lp107
(I0
I1
tp108
a(I2
I2
tp109
a(I0
I2
tp110
a(I1
I5
tp111
ag104
a(I0
I3
tp112
a(I2
I4
tp113
a(I6
I5
tp114
atp115
Rp116
sg15
I7
sg28
g20
((lp117
(I5
I6
tp118
a(I6
I4
tp119
a(I3
I2
tp120
a(I6
I1
tp121
a(I6
I6
tp122
atp123
Rp124
sg13
((I1
I1
tp125
(I6
I0
tp126
(I5
I0
tp127
(I1
I3
tp128
(I4
I5
tp129
tp130
sg14
I7
sbssS'name'
p131
S'easy_roomset'
p132
sbsg131
S"AnytimeBeam-w4-gf(1.1000000000000001, 'exp')_with_PowerHeuristic2"
p133
sS'solutions'
p134
(dp135
g8
((lp136
(F0.074924945831298828
I64
tp137
a(F0.51775503158569336
I50
tp138
a(F0.81844305992126465
I42
tp139
a(F7.4896719455718994
I36
tp140
a(F9.3581440448760986
I34
tp141
a(F12.434250116348267
I30
tp142
a(F13.471642017364502
I28
tp143
a(F19.061347007751465
I26
tp144
aF39.980000000001382
tp145
sg40
((lp146
(F1.2416749000549316
I5
tp147
aF40.229999999999563
tp148
sg73
((lp149
F40.020000000000437
tp150
sg102
((lp151
(F0.66924905776977539
I4
tp152
aF40.079999999999927
tp153
ssba(imeasure_core
ProblemSetSolution
p154
(dp155
g3
(imeasure_core
RoomSet
p156
(dp157
g6
(dp158
(iproblems
RoomID
p159
(dp160
g10
I6
sg11
(I5
I5
tp161
sg13
I3
sg14
I11
sg15
I11
sg16
I1164115433906158532
sb(imulti_robot_problem
MultiRobotState
p162
(dp163
g19
g20
((lp164
(I5
I4
tp165
a(I1
I3
tp166
a(I4
I3
tp167
a(I4
I8
tp168
a(I3
I0
tp169
a(I8
I0
tp170
a(I3
I2
tp171
a(I0
I7
tp172
a(I2
I1
tp173
a(I3
I9
tp174
a(I0
I5
tp175
a(I1
I4
tp176
a(I3
I7
tp177
a(I2
I5
tp178
a(I5
I3
tp179
a(I8
I3
tp180
a(I3
I1
tp181
ag161
a(I2
I0
tp182
a(I3
I10
tp183
a(I6
I10
tp184
a(I0
I6
tp185
a(I1
I8
tp186
a(I3
I6
tp187
a(I4
I5
tp188
a(I0
I2
tp189
atp190
Rp191
sg15
I11
sg28
g20
((lp192
(I7
I5
tp193
a(I8
I8
tp194
a(I4
I9
tp195
a(I4
I6
tp196
a(I10
I6
tp197
a(I8
I2
tp198
atp199
Rp200
sg13
((I5
I7
tp201
(I2
I10
tp202
(I2
I8
tp203
tp204
sg14
I11
sbs(iproblems
RoomID
p205
(dp206
g10
I8
sg11
(I5
I4
tp207
sg13
I4
sg14
I10
sg15
I9
sg16
I2175216119781798972
sb(imulti_robot_problem
MultiRobotState
p208
(dp209
g19
g20
((lp210
(I6
I6
tp211
a(I2
I8
tp212
a(I0
I7
tp213
a(I6
I2
tp214
a(I1
I6
tp215
a(I2
I5
tp216
a(I5
I5
tp217
a(I8
I1
tp218
a(I7
I6
tp219
a(I6
I3
tp220
a(I2
I2
tp221
a(I8
I6
tp222
a(I6
I4
tp223
ag207
a(I8
I2
tp224
a(I7
I1
tp225
a(I1
I4
tp226
a(I7
I5
tp227
a(I8
I7
tp228
a(I1
I0
tp229
a(I6
I5
tp230
a(I3
I3
tp231
a(I8
I3
tp232
a(I7
I0
tp233
a(I6
I8
tp234
a(I3
I4
tp235
a(I7
I4
tp236
a(I0
I6
tp237
a(I1
I8
tp238
a(I8
I8
tp239
a(I4
I3
tp240
a(I1
I7
tp241
a(I7
I8
tp242
a(I0
I2
tp243
atp244
Rp245
sg15
I9
sg28
g20
((lp246
(I6
I7
tp247
a(I2
I9
tp248
a(I5
I6
tp249
a(I3
I1
tp250
a(I8
I9
tp251
a(I0
I5
tp252
a(I0
I3
tp253
a(I5
I2
tp254
atp255
Rp256
sg13
((I2
I4
tp257
(I8
I5
tp258
(I4
I9
tp259
(I7
I7
tp260
tp261
sg14
I10
sbs(iproblems
RoomID
p262
(dp263
g10
I9
sg11
(I3
I0
tp264
sg13
I3
sg14
I9
sg15
I12
sg16
I4912931603392816429
sb(imulti_robot_problem
MultiRobotState
p265
(dp266
g19
g20
((lp267
(I6
I4
tp268
a(I4
I7
tp269
a(I0
I0
tp270
a(I4
I8
tp271
a(I5
I6
tp272
a(I2
I8
tp273
a(I0
I7
tp274
a(I4
I6
tp275
a(I7
I5
tp276
a(I4
I2
tp277
a(I0
I3
tp278
a(I7
I2
tp279
a(I6
I8
tp280
a(I10
I5
tp281
a(I5
I5
tp282
a(I7
I8
tp283
a(I4
I4
tp284
a(I5
I2
tp285
ag264
a(I8
I8
tp286
a(I5
I8
tp287
a(I1
I7
tp288
a(I4
I5
tp289
a(I8
I6
tp290
a(I5
I3
tp291
a(I4
I1
tp292
atp293
Rp294
sg15
I12
sg28
g20
((lp295
(I7
I3
tp296
a(I7
I1
tp297
a(I8
I1
tp298
a(I6
I3
tp299
a(I11
I8
tp300
a(I8
I7
tp301
a(I3
I7
tp302
a(I2
I5
tp303
a(I3
I4
tp304
atp305
Rp306
sg13
((I9
I1
tp307
(I1
I6
tp308
(I8
I4
tp309
tp310
sg14
I9
sbs(iproblems
RoomID
p311
(dp312
g10
I9
sg11
(I4
I3
tp313
sg13
I4
sg14
I11
sg15
I12
sg16
I7002664860023442459
sb(imulti_robot_problem
MultiRobotState
p314
(dp315
g19
g20
((lp316
(I11
I8
tp317
a(I0
I0
tp318
a(I10
I4
tp319
a(I3
I0
tp320
a(I9
I3
tp321
a(I6
I0
tp322
a(I2
I1
tp323
a(I8
I9
tp324
a(I9
I4
tp325
a(I5
I1
tp326
a(I8
I5
tp327
a(I5
I8
tp328
a(I8
I2
tp329
a(I7
I0
tp330
a(I8
I7
tp331
a(I3
I3
tp332
a(I1
I5
tp333
a(I8
I1
tp334
a(I9
I6
tp335
a(I3
I1
tp336
a(I9
I2
tp337
a(I2
I0
tp338
ag313
a(I2
I2
tp339
a(I9
I5
tp340
a(I5
I2
tp341
a(I2
I4
tp342
atp343
Rp344
sg15
I12
sg28
g20
((lp345
(I0
I1
tp346
a(I10
I8
tp347
a(I2
I8
tp348
a(I3
I10
tp349
a(I10
I6
tp350
a(I6
I2
tp351
a(I3
I7
tp352
a(I7
I8
tp353
a(I7
I9
tp354
atp355
Rp356
sg13
((I9
I7
tp357
(I8
I8
tp358
(I2
I9
tp359
(I1
I7
tp360
tp361
sg14
I11
sbssg131
S'mild_roomset'
p362
sbsg131
g133
sg134
(dp363
g159
((lp364
F40.0
tp365
sg205
((lp366
F40.029999999998836
tp367
sg262
((lp368
F40.020000000000437
tp369
sg311
((lp370
F40.090000000000146
tp371
ssba(imeasure_core
ProblemSetSolution
p372
(dp373
g3
(imeasure_core
RoomSet
p374
(dp375
g6
(dp376
(iproblems
RoomID
p377
(dp378
g10
I11
sg11
(I7
I9
tp379
sg13
I5
sg14
I12
sg15
I12
sg16
I1164115433906158532
sb(imulti_robot_problem
MultiRobotState
p380
(dp381
g19
g20
((lp382
(I4
I7
tp383
a(I1
I3
tp384
a(I5
I6
tp385
a(I9
I3
tp386
a(I1
I4
tp387
a(I0
I5
tp388
a(I7
I11
tp389
a(I1
I0
tp390
a(I5
I8
tp391
a(I3
I3
tp392
a(I3
I1
tp393
a(I6
I7
tp394
a(I6
I8
tp395
a(I7
I8
tp396
a(I5
I7
tp397
ag379
a(I4
I1
tp398
a(I0
I2
tp399
atp400
Rp401
sg15
I12
sg28
g20
((lp402
(I4
I10
tp403
a(I9
I0
tp404
a(I2
I6
tp405
a(I5
I10
tp406
a(I9
I2
tp407
a(I0
I7
tp408
a(I8
I9
tp409
a(I1
I6
tp410
a(I8
I5
tp411
a(I4
I11
tp412
a(I5
I3
tp413
atp414
Rp415
sg13
((I1
I2
tp416
(I2
I11
tp417
(I2
I0
tp418
(I2
I9
tp419
(I11
I7
tp420
tp421
sg14
I12
sbs(iproblems
RoomID
p422
(dp423
g10
I10
sg11
(I0
I7
tp424
sg13
I7
sg14
I10
sg15
I10
sg16
I8711387064946514083
sb(imulti_robot_problem
MultiRobotState
p425
(dp426
g19
g20
((lp427
(I5
I9
tp428
a(I6
I9
tp429
a(I2
I6
tp430
a(I2
I9
tp431
a(I0
I6
tp432
ag424
a(I1
I5
tp433
a(I8
I8
tp434
a(I0
I5
tp435
a(I4
I3
tp436
a(I0
I4
tp437
a(I0
I3
tp438
a(I9
I7
tp439
a(I0
I2
tp440
a(I7
I9
tp441
atp442
Rp443
sg15
I10
sg28
g20
((lp444
(I9
I0
tp445
a(I3
I3
tp446
a(I7
I1
tp447
a(I8
I1
tp448
a(I9
I8
tp449
a(I4
I4
tp450
a(I9
I9
tp451
a(I3
I6
tp452
a(I1
I7
tp453
a(I8
I6
tp454
atp455
Rp456
sg13
((I1
I1
tp457
(I8
I0
tp458
(I7
I0
tp459
(I2
I5
tp460
(I6
I7
tp461
(I8
I9
tp462
(I5
I8
tp463
tp464
sg14
I10
sbs(iproblems
RoomID
p465
(dp466
g10
I14
sg11
(I5
I10
tp467
sg13
I5
sg14
I12
sg15
I10
sg16
I3872982626502034966
sb(imulti_robot_problem
MultiRobotState
p468
(dp469
g19
g20
((lp470
(I5
I9
tp471
a(I6
I9
tp472
a(I5
I7
tp473
a(I3
I2
tp474
ag467
a(I4
I10
tp475
a(I4
I8
tp476
a(I3
I11
tp477
a(I2
I1
tp478
a(I6
I2
tp479
a(I1
I4
tp480
a(I8
I7
tp481
a(I6
I8
tp482
a(I6
I7
tp483
a(I5
I8
tp484
a(I3
I5
tp485
a(I4
I9
tp486
a(I4
I6
tp487
a(I8
I1
tp488
a(I7
I1
tp489
a(I3
I8
tp490
a(I4
I3
tp491
a(I5
I2
tp492
a(I1
I1
tp493
atp494
Rp495
sg15
I10
sg28
g20
((lp496
(I5
I3
tp497
a(I3
I1
tp498
a(I8
I11
tp499
a(I9
I3
tp500
a(I0
I2
tp501
a(I6
I3
tp502
a(I3
I9
tp503
a(I2
I3
tp504
a(I9
I5
tp505
a(I7
I11
tp506
a(I0
I8
tp507
a(I3
I10
tp508
a(I7
I2
tp509
a(I9
I7
tp510
atp511
Rp512
sg13
((I1
I8
tp513
(I2
I9
tp514
(I1
I9
tp515
(I1
I5
tp516
(I6
I5
tp517
tp518
sg14
I12
sbs(iproblems
RoomID
p519
(dp520
g10
I14
sg11
(I0
I3
tp521
sg13
I7
sg14
I12
sg15
I13
sg16
I7002664860023442459
sb(imulti_robot_problem
MultiRobotState
p522
(dp523
g19
g20
((lp524
(I1
I2
tp525
a(I11
I4
tp526
a(I9
I8
tp527
a(I10
I6
tp528
ag521
a(I0
I8
tp529
a(I10
I3
tp530
a(I0
I1
tp531
a(I10
I5
tp532
a(I10
I7
tp533
a(I7
I8
tp534
a(I9
I9
tp535
a(I0
I9
tp536
a(I9
I5
tp537
a(I3
I4
tp538
a(I0
I2
tp539
a(I11
I6
tp540
a(I9
I7
tp541
atp542
Rp543
sg15
I13
sg28
g20
((lp544
(I6
I4
tp545
a(I11
I9
tp546
a(I4
I6
tp547
a(I2
I9
tp548
a(I5
I9
tp549
a(I12
I2
tp550
a(I3
I1
tp551
a(I3
I11
tp552
a(I10
I10
tp553
a(I7
I4
tp554
a(I0
I0
tp555
a(I11
I5
tp556
a(I2
I5
tp557
a(I12
I9
tp558
atp559
Rp560
sg13
((I2
I10
tp561
(I1
I8
tp562
(I8
I10
tp563
(I7
I2
tp564
(I3
I8
tp565
(I6
I2
tp566
(I7
I9
tp567
tp568
sg14
I12
sbssg131
S'heavy_roomset'
p569
sbsg131
g133
sg134
(dp570
g377
((lp571
F40.090000000000146
tp572
sg422
((lp573
F44.25
tp574
sg465
((lp575
F40.049999999999272
tp576
sg519
((lp577
F59.390000000001237
tp578
ssba(imeasure_core
ProblemSetSolution
p579
(dp580
g3
(imeasure_core
RoomSet
p581
(dp582
g6
(dp583
S'complexRoom'
p584
(imulti_robot_problem
MultiRobotState
p585
(dp586
g19
g20
((lp587
(I2
I7
tp588
a(I7
I3
tp589
a(I6
I3
tp590
a(I3
I3
tp591
a(I7
I6
tp592
a(I7
I4
tp593
a(I7
I5
tp594
a(I2
I3
tp595
a(I4
I3
tp596
a(I2
I5
tp597
a(I2
I4
tp598
a(I5
I3
tp599
atp600
Rp601
sg15
I11
sg28
g20
((lp602
(I1
I0
tp603
a(I9
I0
tp604
atp605
Rp606
sg13
((I6
I4
tp607
(I1
I6
tp608
tp609
sg14
I8
sbsS'exampleProblem'
p610
(imulti_robot_problem
MultiRobotState
p611
(dp612
g19
g20
((lp613
tp614
Rp615
sg15
I5
sg28
g20
((lp616
(I1
I3
tp617
a(I3
I1
tp618
a(I1
I1
tp619
a(I3
I3
tp620
atp621
Rp622
sg13
((I2
I2
tp623
tp624
sg14
I5
sbsS'linear_test'
p625
(imulti_robot_problem
MultiRobotState
p626
(dp627
g19
g615
sg15
I12
sg28
g20
((lp628
(I11
I0
tp629
a(I1
I0
tp630
a(I9
I0
tp631
atp632
Rp633
sg13
((I3
I0
tp634
(I1
I2
tp635
tp636
sg14
I7
sbsS'obstacle_Far_CloseTest'
p637
(imulti_robot_problem
MultiRobotState
p638
(dp639
g19
g20
((lp640
(I0
I1
tp641
a(I7
I3
tp642
a(I3
I1
tp643
a(I7
I1
tp644
a(I4
I5
tp645
a(I7
I6
tp646
a(I4
I4
tp647
a(I2
I1
tp648
a(I7
I4
tp649
a(I7
I5
tp650
a(I4
I3
tp651
a(I4
I2
tp652
a(I4
I1
tp653
a(I1
I1
tp654
a(I7
I2
tp655
atp656
Rp657
sg15
I12
sg28
g20
((lp658
(I3
I2
tp659
a(I9
I6
tp660
atp661
Rp662
sg13
((I0
I0
tp663
(I6
I6
tp664
tp665
sg14
I7
sbsS'zigzag'
p666
(imulti_robot_problem
MultiRobotState
p667
(dp668
g19
g20
((lp669
(I1
I2
tp670
a(I3
I2
tp671
a(I1
I3
tp672
a(I3
I0
tp673
a(I3
I1
tp674
a(I5
I1
tp675
a(I5
I2
tp676
a(I1
I1
tp677
a(I5
I3
tp678
atp679
Rp680
sg15
I20
sg28
g20
((lp681
(I6
I3
tp682
atp683
Rp684
sg13
((I0
I3
tp685
(I19
I3
tp686
tp687
sg14
I4
sbsS'room1'
p688
(imulti_robot_problem
MultiRobotState
p689
(dp690
g19
g20
((lp691
(I6
I3
tp692
a(I7
I3
tp693
a(I8
I3
tp694
a(I2
I3
tp695
a(I3
I3
tp696
a(I4
I3
tp697
a(I5
I3
tp698
atp699
Rp700
sg15
I9
sg28
g20
((lp701
(I0
I0
tp702
a(I2
I1
tp703
atp704
Rp705
sg13
((I6
I1
tp706
(I6
I5
tp707
tp708
sg14
I6
sbsS'complexRoom2'
p709
(imulti_robot_problem
MultiRobotState
p710
(dp711
g19
g20
((lp712
(I7
I3
tp713
a(I1
I3
tp714
a(I7
I1
tp715
a(I4
I5
tp716
a(I9
I3
tp717
a(I5
I5
tp718
a(I2
I6
tp719
a(I2
I3
tp720
a(I5
I1
tp721
a(I0
I3
tp722
a(I10
I3
tp723
a(I2
I5
tp724
a(I6
I5
tp725
a(I5
I3
tp726
a(I2
I7
tp727
a(I8
I3
tp728
a(I3
I3
tp729
a(I5
I2
tp730
a(I7
I6
tp731
a(I3
I1
tp732
a(I6
I3
tp733
a(I7
I5
tp734
a(I4
I3
tp735
a(I3
I5
tp736
a(I4
I1
tp737
a(I6
I1
tp738
atp739
Rp740
sg15
I11
sg28
g20
((lp741
(I7
I2
tp742
a(I0
I7
tp743
atp744
Rp745
sg13
((I1
I2
tp746
(I3
I6
tp747
tp748
sg14
I8
sbsS'zigzagUpright'
p749
(imulti_robot_problem
MultiRobotState
p750
(dp751
g19
g20
((lp752
(I1
I3
tp753
a(I3
I1
tp754
a(I2
I1
tp755
a(I1
I1
tp756
a(I1
I5
tp757
a(I2
I3
tp758
a(I2
I5
tp759
a(I0
I3
tp760
a(I3
I5
tp761
atp762
Rp763
sg15
I4
sg28
g20
((lp764
(I3
I6
tp765
atp766
Rp767
sg13
((I3
I0
tp768
(I3
I19
tp769
tp770
sg14
I20
sbsS'ivansRevenge'
p771
(imulti_robot_problem
MultiRobotState
p772
(dp773
g19
g615
sg15
I10
sg28
g20
((lp774
(I9
I2
tp775
a(I0
I0
tp776
atp777
Rp778
sg13
((I9
I0
tp779
(I0
I2
tp780
tp781
sg14
I3
sbsS'roomLongWithObstaccle'
p782
(imulti_robot_problem
MultiRobotState
p783
(dp784
g19
g20
((lp785
(I0
I1
tp786
a(I12
I1
tp787
a(I9
I1
tp788
a(I7
I1
tp789
a(I8
I1
tp790
a(I6
I1
tp791
a(I3
I1
tp792
a(I2
I1
tp793
a(I11
I1
tp794
a(I10
I1
tp795
a(I5
I1
tp796
a(I4
I1
tp797
a(I1
I1
tp798
atp799
Rp800
sg15
I15
sg28
g20
((lp801
(I0
I2
tp802
a(I14
I6
tp803
atp804
Rp805
sg13
((I0
I0
tp806
(I0
I6
tp807
tp808
sg14
I7
sbsS'twoRobotsInOpCorners'
p809
(imulti_robot_problem
MultiRobotState
p810
(dp811
g19
g615
sg15
I5
sg28
g20
((lp812
(I0
I0
tp813
a(I4
I4
tp814
atp815
Rp816
sg13
((I3
I0
tp817
(I0
I3
tp818
tp819
sg14
I5
sbsS'split2'
p820
(imulti_robot_problem
MultiRobotState
p821
(dp822
g19
g615
sg15
I10
sg28
g20
((lp823
(I0
I9
tp824
a(I9
I0
tp825
a(I0
I0
tp826
a(I9
I9
tp827
atp828
Rp829
sg13
((I1
I1
tp830
(I8
I1
tp831
(I4
I5
tp832
(I5
I5
tp833
tp834
sg14
I10
sbsS'split3'
p835
(imulti_robot_problem
MultiRobotState
p836
(dp837
g19
g615
sg15
I10
sg28
g20
((lp838
(I0
I9
tp839
a(I9
I0
tp840
a(I0
I0
tp841
a(I9
I9
tp842
atp843
Rp844
sg13
((I1
I1
tp845
(I8
I1
tp846
(I1
I7
tp847
(I7
I7
tp848
tp849
sg14
I10
sbsS'gaintRoom'
p850
(imulti_robot_problem
MultiRobotState
p851
(dp852
g19
g615
sg15
I5
sg28
g20
((lp853
(I4
I0
tp854
a(I4
I4
tp855
a(I0
I4
tp856
atp857
Rp858
sg13
((I0
I0
tp859
tp860
sg14
I5
sbsS'gaintRoomWithWall'
p861
(imulti_robot_problem
MultiRobotState
p862
(dp863
g19
g20
((lp864
(I2
I4
tp865
atp866
Rp867
sg15
I5
sg28
g20
((lp868
(I4
I0
tp869
a(I4
I4
tp870
a(I0
I4
tp871
atp872
Rp873
sg13
((I0
I0
tp874
tp875
sg14
I5
sbsS'split'
p876
(imulti_robot_problem
MultiRobotState
p877
(dp878
g19
g615
sg15
I10
sg28
g20
((lp879
(I0
I9
tp880
a(I9
I0
tp881
a(I0
I0
tp882
a(I9
I9
tp883
atp884
Rp885
sg13
((I4
I4
tp886
(I5
I4
tp887
(I4
I5
tp888
(I5
I5
tp889
tp890
sg14
I10
sbsS'twoRobots'
p891
(imulti_robot_problem
MultiRobotState
p892
(dp893
g19
g615
sg15
I9
sg28
g20
((lp894
(I8
I0
tp895
a(I0
I0
tp896
atp897
Rp898
sg13
((I2
I0
tp899
(I0
I3
tp900
tp901
sg14
I4
sbssg131
S'static_rooms'
p902
sbsg131
g133
sg134
(dp903
g820
((lp904
F40.1200000000008
tp905
sg835
((lp906
F40.090000000000146
tp907
sg584
((lp908
F39.989999999999782
tp909
sg850
((lp910
F40.0
tp911
sg610
((lp912
F39.989999999999782
tp913
sg625
((lp914
F39.989999999999782
tp915
sg637
((lp916
F40.0
tp917
sg891
((lp918
F40.0
tp919
sg861
((lp920
F39.989999999999782
tp921
sg666
((lp922
F39.989999999999782
tp923
sg688
((lp924
F40.0
tp925
sg709
((lp926
F39.989999999999782
tp927
sg749
((lp928
F40.0
tp929
sg771
((lp930
(F0.0037288665771484375
I2
tp931
aF39.989999999999782
tp932
sg782
((lp933
F39.989999999999782
tp934
sg809
((lp935
F39.989999999999782
tp936
sg876
((lp937
F40.1200000000008
tp938
ssba(imeasure_core
ProblemSetSolution
p939
(dp940
g3
g4
sg131
S"AnytimeBeam-w4-gf(1.3, 'exp')_with_PowerHeuristic2"
p941
sg134
(dp942
g8
((lp943
(F0.2966921329498291
I50
tp944
a(F0.44320392608642578
I42
tp945
a(F4.1798880100250244
I40
tp946
a(F5.5168790817260742
I34
tp947
a(F6.6729810237884521
I30
tp948
a(F7.7164409160614014
I28
tp949
a(F13.332118988037109
I26
tp950
aF39.989999999999782
tp951
sg40
((lp952
(F1.7351291179656982
I5
tp953
aF40.93999999999869
tp954
sg73
((lp955
F40.070000000001528
tp956
sg102
((lp957
(F0.67845320701599121
I4
tp958
aF40.029999999998836
tp959
ssba(imeasure_core
ProblemSetSolution
p960
(dp961
g3
g156
sg131
g941
sg134
(dp962
g159
((lp963
F40.010000000000218
tp964
sg205
((lp965
F40.040000000000873
tp966
sg262
((lp967
F40.059999999999491
tp968
sg311
((lp969
F40.209999999999127
tp970
ssba(imeasure_core
ProblemSetSolution
p971
(dp972
g3
g374
sg131
g941
sg134
(dp973
g377
((lp974
F40.100000000000364
tp975
sg422
((lp976
F50.420000000000073
tp977
sg465
((lp978
F40.639999999999418
tp979
sg519
((lp980
F45.430000000000291
tp981
ssba(imeasure_core
ProblemSetSolution
p982
(dp983
g3
g581
sg131
g941
sg134
(dp984
g820
((lp985
F40.140000000001237
tp986
sg835
((lp987
F40.260000000000218
tp988
sg584
((lp989
F39.989999999999782
tp990
sg850
((lp991
F40.0
tp992
sg610
((lp993
F39.989999999999782
tp994
sg625
((lp995
F39.990000000001601
tp996
sg637
((lp997
F40.0
tp998
sg891
((lp999
F39.989999999999782
tp1000
sg861
((lp1001
F39.989999999999782
tp1002
sg666
((lp1003
F39.989999999999782
tp1004
sg688
((lp1005
F39.989999999999782
tp1006
sg709
((lp1007
F39.989999999999782
tp1008
sg749
((lp1009
F39.989999999999782
tp1010
sg771
((lp1011
(F0.0037779808044433594
I2
tp1012
aF39.989999999999782
tp1013
sg782
((lp1014
F40.0
tp1015
sg809
((lp1016
F39.989999999999782
tp1017
sg876
((lp1018
F40.389999999999418
tp1019
ssba(imeasure_core
ProblemSetSolution
p1020
(dp1021
g3
g4
sg131
S"AnytimeBeam-w4-gf(1.5, 'exp')_with_PowerHeuristic2"
p1022
sg134
(dp1023
g8
((lp1024
(F0.21394896507263184
I50
tp1025
a(F0.36196494102478027
I42
tp1026
a(F3.3695869445800781
I40
tp1027
a(F4.7074270248413086
I34
tp1028
a(F5.8581030368804932
I30
tp1029
a(F6.8965671062469482
I28
tp1030
a(F12.497237920761108
I26
tp1031
aF39.989999999999782
tp1032
sg40
((lp1033
(F1.7450900077819824
I5
tp1034
aF40.069999999999709
tp1035
sg73
((lp1036
F40.110000000000582
tp1037
sg102
((lp1038
(F0.67347311973571777
I4
tp1039
aF40.5
tp1040
ssba(imeasure_core
ProblemSetSolution
p1041
(dp1042
g3
g156
sg131
g1022
sg134
(dp1043
g159
((lp1044
F40.020000000000437
tp1045
sg205
((lp1046
F40.079999999999927
tp1047
sg262
((lp1048
F40.100000000000364
tp1049
sg311
((lp1050
F40.049999999999272
tp1051
ssba(imeasure_core
ProblemSetSolution
p1052
(dp1053
g3
g374
sg131
g1022
sg134
(dp1054
g377
((lp1055
F40.619999999998981
tp1056
sg422
((lp1057
F50.300000000001091
tp1058
sg465
((lp1059
F40.510000000000218
tp1060
sg519
((lp1061
F45.369999999998981
tp1062
ssba(imeasure_core
ProblemSetSolution
p1063
(dp1064
g3
g581
sg131
g1022
sg134
(dp1065
g820
((lp1066
F40.030000000000655
tp1067
sg835
((lp1068
F40.239999999999782
tp1069
sg584
((lp1070
F39.989999999999782
tp1071
sg850
((lp1072
F39.989999999999782
tp1073
sg610
((lp1074
F39.989999999999782
tp1075
sg625
((lp1076
F39.990000000001601
tp1077
sg637
((lp1078
F39.989999999999782
tp1079
sg891
((lp1080
F39.989999999999782
tp1081
sg861
((lp1082
F39.989999999999782
tp1083
sg666
((lp1084
F40.0
tp1085
sg688
((lp1086
F39.989999999999782
tp1087
sg709
((lp1088
F39.989999999999782
tp1089
sg749
((lp1090
F40.0
tp1091
sg771
((lp1092
(F0.0037219524383544922
I2
tp1093
aF39.989999999999782
tp1094
sg782
((lp1095
F39.989999999999782
tp1096
sg809
((lp1097
F39.989999999999782
tp1098
sg876
((lp1099
F40.110000000000582
tp1100
ssba(imeasure_core
ProblemSetSolution
p1101
(dp1102
g3
g4
sg131
S"AnytimeBeam-w4-gf(1.7, 'exp')_with_PowerHeuristic2"
p1103
sg134
(dp1104
g8
((lp1105
(F0.07148289680480957
I64
tp1106
a(F0.31179690361022949
I42
tp1107
a(F2.8442859649658203
I40
tp1108
a(F4.1884889602661133
I34
tp1109
a(F5.3475730419158936
I30
tp1110
a(F6.3912220001220703
I28
tp1111
a(F12.008347034454346
I26
tp1112
aF39.989999999999782
tp1113
sg40
((lp1114
(F1.7626791000366211
I5
tp1115
aF40.440000000000509
tp1116
sg73
((lp1117
F40.299999999999272
tp1118
sg102
((lp1119
(F0.66679596900939941
I4
tp1120
aF40.510000000000218
tp1121
ssba(imeasure_core
ProblemSetSolution
p1122
(dp1123
g3
g156
sg131
g1103
sg134
(dp1124
g159
((lp1125
F40.040000000000873
tp1126
sg205
((lp1127
F40.059999999999491
tp1128
sg262
((lp1129
F40.119999999998981
tp1130
sg311
((lp1131
F40.110000000000582
tp1132
ssba(imeasure_core
ProblemSetSolution
p1133
(dp1134
g3
g374
sg131
g1103
sg134
(dp1135
g377
((lp1136
F40.600000000000364
tp1137
sg422
((lp1138
F50.5
tp1139
sg465
((lp1140
F40.520000000000437
tp1141
sg519
((lp1142
F45.239999999999782
tp1143
ssba(imeasure_core
ProblemSetSolution
p1144
(dp1145
g3
g581
sg131
g1103
sg134
(dp1146
g820
((lp1147
F40.139999999999418
tp1148
sg835
((lp1149
F40.270000000000437
tp1150
sg584
((lp1151
F39.989999999999782
tp1152
sg850
((lp1153
F39.989999999999782
tp1154
sg610
((lp1155
F39.989999999999782
tp1156
sg625
((lp1157
F40.0
tp1158
sg637
((lp1159
F39.989999999999782
tp1160
sg891
((lp1161
F39.989999999999782
tp1162
sg861
((lp1163
F39.989999999999782
tp1164
sg666
((lp1165
F39.989999999999782
tp1166
sg688
((lp1167
F40.0
tp1168
sg709
((lp1169
F39.989999999999782
tp1170
sg749
((lp1171
F40.0
tp1172
sg771
((lp1173
(F0.0037419795989990234
I2
tp1174
aF39.990000000001601
tp1175
sg782
((lp1176
F39.989999999999782
tp1177
sg809
((lp1178
F40.0
tp1179
sg876
((lp1180
F40.239999999999782
tp1181
ssba(imeasure_core
ProblemSetSolution
p1182
(dp1183
g3
g4
sg131
S"AnytimeBeam-w4-gf(1.1000000000000001, 'exp')_with_LinearHeuristic"
p1184
sg134
(dp1185
g8
((lp1186
(F0.083736181259155273
I28
tp1187
aF39.989999999999782
tp1188
sg40
((lp1189
F40.400000000001455
tp1190
sg73
((lp1191
(F5.1941900253295898
I27
tp1192
aF40.18999999999869
tp1193
sg102
((lp1194
(F3.8524169921875
I10
tp1195
aF40.220000000001164
tp1196
ssba(imeasure_core
ProblemSetSolution
p1197
(dp1198
g3
g156
sg131
g1184
sg134
(dp1199
g159
((lp1200
F39.989999999999782
tp1201
sg205
((lp1202
F40.010000000000218
tp1203
sg262
((lp1204
F40.029999999998836
tp1205
sg311
((lp1206
F40.200000000000728
tp1207
ssba(imeasure_core
ProblemSetSolution
p1208
(dp1209
g3
g374
sg131
g1184
sg134
(dp1210
g377
((lp1211
F40.909999999999854
tp1212
sg422
((lp1213
F44.299999999999272
tp1214
sg465
((lp1215
F40.630000000001019
tp1216
sg519
((lp1217
F46.789999999999054
tp1218
ssba(imeasure_core
ProblemSetSolution
p1219
(dp1220
g3
g581
sg131
g1184
sg134
(dp1221
g820
((lp1222
F40.220000000001164
tp1223
sg835
((lp1224
F40.409999999999854
tp1225
sg584
((lp1226
F40.0
tp1227
sg850
((lp1228
F39.989999999999782
tp1229
sg610
((lp1230
(F0.0062849521636962891
I8
tp1231
aF39.989999999999782
tp1232
sg625
((lp1233
F40.0
tp1234
sg637
((lp1235
F40.010000000000218
tp1236
sg891
((lp1237
F39.989999999999782
tp1238
sg861
((lp1239
F39.989999999999782
tp1240
sg666
((lp1241
F39.989999999999782
tp1242
sg688
((lp1243
(F9.3245291709899902
I8
tp1244
a(F25.642059087753296
I7
tp1245
aF40.010000000000218
tp1246
sg709
((lp1247
F39.989999999999782
tp1248
sg749
((lp1249
F39.989999999999782
tp1250
sg771
((lp1251
(F0.0052318572998046875
I2
tp1252
aF40.010000000000218
tp1253
sg782
((lp1254
F39.989999999999782
tp1255
sg809
((lp1256
F40.0
tp1257
sg876
((lp1258
F40.360000000000582
tp1259
ssba(imeasure_core
ProblemSetSolution
p1260
(dp1261
g3
g4
sg131
S"AnytimeBeam-w4-gf(1.3, 'exp')_with_LinearHeuristic"
p1262
sg134
(dp1263
g8
((lp1264
(F0.049539089202880859
I28
tp1265
aF39.989999999999782
tp1266
sg40
((lp1267
F40.819999999999709
tp1268
sg73
((lp1269
(F6.133681058883667
I27
tp1270
aF40.239999999999782
tp1271
sg102
((lp1272
(F4.3154740333557129
I10
tp1273
aF40.010000000000218
tp1274
ssba(imeasure_core
ProblemSetSolution
p1275
(dp1276
g3
g156
sg131
g1262
sg134
(dp1277
g159
((lp1278
F40.020000000000437
tp1279
sg205
((lp1280
F40.049999999999272
tp1281
sg262
((lp1282
F39.989999999999782
tp1283
sg311
((lp1284
F40.159999999999854
tp1285
ssba(imeasure_core
ProblemSetSolution
p1286
(dp1287
g3
g374
sg131
g1262
sg134
(dp1288
g377
((lp1289
F40.100000000000364
tp1290
sg422
((lp1291
F57.430000000000291
tp1292
sg465
((lp1293
F40.040000000000873
tp1294
sg519
((lp1295
F49.559999999999491
tp1296
ssba(imeasure_core
ProblemSetSolution
p1297
(dp1298
g3
g581
sg131
g1262
sg134
(dp1299
g820
((lp1300
F40.040000000000873
tp1301
sg835
((lp1302
F40.289999999999054
tp1303
sg584
((lp1304
F40.010000000000218
tp1305
sg850
((lp1306
F39.989999999999782
tp1307
sg610
((lp1308
(F0.0062921047210693359
I8
tp1309
aF39.989999999999782
tp1310
sg625
((lp1311
F40.010000000000218
tp1312
sg637
((lp1313
F40.0
tp1314
sg891
((lp1315
F40.010000000002037
tp1316
sg861
((lp1317
F39.990000000001601
tp1318
sg666
((lp1319
F39.989999999999782
tp1320
sg688
((lp1321
(F9.3410680294036865
I8
tp1322
a(F25.555524826049805
I7
tp1323
aF40.0
tp1324
sg709
((lp1325
F39.989999999999782
tp1326
sg749
((lp1327
F40.010000000000218
tp1328
sg771
((lp1329
(F0.0052618980407714844
I2
tp1330
aF39.989999999999782
tp1331
sg782
((lp1332
F39.989999999999782
tp1333
sg809
((lp1334
F40.0
tp1335
sg876
((lp1336
F40.259999999998399
tp1337
ssba(imeasure_core
ProblemSetSolution
p1338
(dp1339
g3
g4
sg131
S"AnytimeBeam-w4-gf(1.5, 'exp')_with_LinearHeuristic"
p1340
sg134
(dp1341
g8
((lp1342
(F0.049499034881591797
I28
tp1343
a(F28.575155019760132
I26
tp1344
aF39.989999999997963
tp1345
sg40
((lp1346
F40.130000000001019
tp1347
sg73
((lp1348
F40.110000000000582
tp1349
sg102
((lp1350
(F4.6263899803161621
I10
tp1351
aF40.549999999999272
tp1352
ssba(imeasure_core
ProblemSetSolution
p1353
(dp1354
g3
g156
sg131
g1340
sg134
(dp1355
g159
((lp1356
F40.0
tp1357
sg205
((lp1358
F40.010000000002037
tp1359
sg262
((lp1360
F40.009999999998399
tp1361
sg311
((lp1362
F40.119999999998981
tp1363
ssba(imeasure_core
ProblemSetSolution
p1364
(dp1365
g3
g374
sg131
g1340
sg134
(dp1366
g377
((lp1367
F41.790000000000873
tp1368
sg422
((lp1369
F48.920000000001892
tp1370
sg465
((lp1371
F40.389999999999418
tp1372
sg519
((lp1373
F53.630000000001019
tp1374
ssba(imeasure_core
ProblemSetSolution
p1375
(dp1376
g3
g581
sg131
g1340
sg134
(dp1377
g820
((lp1378
F40.780000000002474
tp1379
sg835
((lp1380
F40.379999999997381
tp1381
sg584
((lp1382
F40.0
tp1383
sg850
((lp1384
F40.0
tp1385
sg610
((lp1386
(F0.0062739849090576172
I8
tp1387
aF39.990000000001601
tp1388
sg625
((lp1389
F40.009999999998399
tp1390
sg637
((lp1391
F39.990000000001601
tp1392
sg891
((lp1393
F40.0
tp1394
sg861
((lp1395
F39.990000000001601
tp1396
sg666
((lp1397
F39.989999999997963
tp1398
sg688
((lp1399
(F9.2629129886627197
I8
tp1400
a(F25.486137866973877
I7
tp1401
aF40.0
tp1402
sg709
((lp1403
F39.990000000001601
tp1404
sg749
((lp1405
F39.989999999997963
tp1406
sg771
((lp1407
(F0.0052449703216552734
I2
tp1408
aF40.0
tp1409
sg782
((lp1410
F39.990000000001601
tp1411
sg809
((lp1412
F39.989999999997963
tp1413
sg876
((lp1414
F40.380000000001019
tp1415
ssba(imeasure_core
ProblemSetSolution
p1416
(dp1417
g3
g4
sg131
S"AnytimeBeam-w4-gf(1.7, 'exp')_with_LinearHeuristic"
p1418
sg134
(dp1419
g8
((lp1420
(F0.041344165802001953
I28
tp1421
a(F28.336022138595581
I26
tp1422
aF39.989999999997963
tp1423
sg40
((lp1424
F40.880000000001019
tp1425
sg73
((lp1426
F40.040000000000873
tp1427
sg102
((lp1428
(F4.919619083404541
I10
tp1429
aF40.040000000000873
tp1430
ssba(imeasure_core
ProblemSetSolution
p1431
(dp1432
g3
g156
sg131
g1418
sg134
(dp1433
g159
((lp1434
F40.009999999998399
tp1435
sg205
((lp1436
F40.110000000000582
tp1437
sg262
((lp1438
F40.090000000000146
tp1439
sg311
((lp1440
F40.510000000002037
tp1441
ssba(imeasure_core
ProblemSetSolution
p1442
(dp1443
g3
g374
sg131
g1418
sg134
(dp1444
g377
((lp1445
F43.049999999999272
tp1446
sg422
((lp1447
F50.869999999998981
tp1448
sg465
((lp1449
F40.470000000001164
tp1450
sg519
((lp1451
F53.709999999999127
tp1452
ssba(imeasure_core
ProblemSetSolution
p1453
(dp1454
g3
g581
sg131
g1418
sg134
(dp1455
g820
((lp1456
F40.200000000000728
tp1457
sg835
((lp1458
F40.319999999999709
tp1459
sg584
((lp1460
F40.020000000000437
tp1461
sg850
((lp1462
F39.990000000001601
tp1463
sg610
((lp1464
(F0.0062918663024902344
I8
tp1465
aF39.989999999997963
tp1466
sg625
((lp1467
F40.010000000002037
tp1468
sg637
((lp1469
F40.0
tp1470
sg891
((lp1471
F40.0
tp1472
sg861
((lp1473
F39.989999999997963
tp1474
sg666
((lp1475
F39.989999999997963
tp1476
sg688
((lp1477
(F9.2685060501098633
I8
tp1478
a(F25.482656002044678
I7
tp1479
aF40.0
tp1480
sg709
((lp1481
F39.990000000001601
tp1482
sg749
((lp1483
F40.0
tp1484
sg771
((lp1485
(F0.0052380561828613281
I2
tp1486
aF39.990000000001601
tp1487
sg782
((lp1488
F39.989999999997963
tp1489
sg809
((lp1490
F40.0
tp1491
sg876
((lp1492
F40.490000000001601
tp1493
ssba.