(lp0
(imeasure_core
ProblemSetSolution
p1
(dp2
S'roomset'
p3
(imeasure_core
RoomSet
p4
(dp5
S'rooms'
p6
(dp7
(iproblems
RoomID
p8
(dp9
S'dusts'
p10
I6
sS'obstacles'
p11
(I5
I1
tp12
sS'robots'
p13
I4
sS'height'
p14
I9
sS'width'
p15
I10
sS'seed'
p16
I2405875930906139466
sb(imulti_robot_problem
MultiRobotState
p17
(dp18
S'obstacle_locations'
p19
c__builtin__
frozenset
p20
((lp21
(I7
I0
tp22
a(I7
I1
tp23
ag12
a(I6
I1
tp24
a(I6
I0
tp25
a(I7
I2
tp26
atp27
Rp28
sg15
I10
sS'dirt_locations'
p29
g20
((lp30
(I7
I3
tp31
a(I2
I1
tp32
a(I6
I4
tp33
a(I5
I6
tp34
a(I5
I2
tp35
a(I0
I7
tp36
atp37
Rp38
sg13
((I7
I6
tp39
(I3
I3
tp40
(I8
I6
tp41
(I0
I2
tp42
tp43
sg14
I9
sbs(iproblems
RoomID
p44
(dp45
g10
I6
sg11
(I6
I7
tp46
sg13
I4
sg14
I10
sg15
I7
sg16
I8744744311366254845
sb(imulti_robot_problem
MultiRobotState
p47
(dp48
g19
g20
((lp49
(I0
I6
tp50
ag46
a(I4
I6
tp51
a(I3
I7
tp52
a(I5
I7
tp53
a(I1
I9
tp54
atp55
Rp56
sg15
I7
sg29
g20
((lp57
(I2
I7
tp58
a(I0
I1
tp59
a(I5
I4
tp60
a(I6
I0
tp61
a(I5
I8
tp62
a(I5
I3
tp63
atp64
Rp65
sg13
((I0
I8
tp66
(I4
I2
tp67
(I3
I0
tp68
(I1
I4
tp69
tp70
sg14
I10
sbs(iproblems
RoomID
p71
(dp72
g10
I10
sg11
(I4
I7
tp73
sg13
I5
sg14
I10
sg15
I8
sg16
I8655808914197340073
sb(imulti_robot_problem
MultiRobotState
p74
(dp75
g19
g20
((lp76
(I2
I7
tp77
ag73
a(I4
I8
tp78
a(I6
I3
tp79
a(I7
I5
tp80
a(I3
I7
tp81
a(I1
I0
tp82
a(I5
I3
tp83
atp84
Rp85
sg15
I8
sg29
g20
((lp86
(I7
I3
tp87
a(I5
I4
tp88
a(I7
I0
tp89
a(I5
I7
tp90
a(I1
I5
tp91
a(I1
I9
tp92
a(I3
I6
tp93
a(I1
I7
tp94
a(I3
I4
tp95
a(I5
I8
tp96
atp97
Rp98
sg13
((I3
I8
tp99
(I7
I9
tp100
(I6
I1
tp101
(I2
I3
tp102
(I5
I5
tp103
tp104
sg14
I10
sbs(iproblems
RoomID
p105
(dp106
g10
I6
sg11
(I4
I6
tp107
sg13
I1
sg14
I8
sg15
I7
sg16
I3537054308274871603
sb(imulti_robot_problem
MultiRobotState
p108
(dp109
g19
g20
((lp110
(I4
I7
tp111
ag107
a(I4
I5
tp112
a(I2
I5
tp113
a(I3
I5
tp114
a(I6
I0
tp115
a(I2
I4
tp116
atp117
Rp118
sg15
I7
sg29
g20
((lp119
(I0
I6
tp120
a(I6
I2
tp121
a(I5
I6
tp122
a(I4
I1
tp123
a(I1
I1
tp124
a(I5
I3
tp125
atp126
Rp127
sg13
((I0
I3
tp128
tp129
sg14
I8
sbssS'name'
p130
S'easy_roomset'
p131
sbsg130
S"AnytimeBeam-w4-gf(2, 'lin')_with_PowerHeuristic2"
p132
sS'solutions'
p133
(dp134
g8
((lp135
(F0.28947305679321289
I9
tp136
aF40.090000000000146
tp137
sg44
((lp138
F40.040000000000873
tp139
sg71
((lp140
(F2.2310700416564941
I8
tp141
aF40.219999999997526
tp142
sg105
((lp143
F39.990000000001601
tp144
ssba(imeasure_core
ProblemSetSolution
p145
(dp146
g3
(imeasure_core
RoomSet
p147
(dp148
g6
(dp149
(iproblems
RoomID
p150
(dp151
g10
I6
sg11
(I1
I8
tp152
sg13
I4
sg14
I11
sg15
I12
sg16
I2405875930906139466
sb(imulti_robot_problem
MultiRobotState
p153
(dp154
g19
g20
((lp155
(I6
I4
tp156
a(I4
I6
tp157
a(I8
I2
tp158
a(I6
I6
tp159
a(I2
I8
tp160
a(I8
I0
tp161
a(I5
I5
tp162
a(I9
I10
tp163
a(I6
I2
tp164
a(I2
I3
tp165
a(I3
I7
tp166
a(I6
I5
tp167
a(I5
I3
tp168
a(I7
I0
tp169
a(I3
I3
tp170
a(I2
I9
tp171
a(I11
I5
tp172
a(I8
I1
tp173
a(I6
I1
tp174
a(I3
I1
tp175
a(I6
I3
tp176
a(I2
I0
tp177
ag152
a(I7
I5
tp178
a(I3
I6
tp179
a(I4
I3
tp180
a(I3
I4
tp181
atp182
Rp183
sg15
I12
sg29
g20
((lp184
(I9
I4
tp185
a(I7
I1
tp186
a(I0
I9
tp187
a(I9
I3
tp188
a(I7
I7
tp189
a(I2
I1
tp190
atp191
Rp192
sg13
((I9
I7
tp193
(I4
I4
tp194
(I10
I8
tp195
(I0
I2
tp196
tp197
sg14
I11
sbs(iproblems
RoomID
p198
(dp199
g10
I10
sg11
(I0
I5
tp200
sg13
I4
sg14
I12
sg15
I10
sg16
I8655808914197340073
sb(imulti_robot_problem
MultiRobotState
p201
(dp202
g19
g20
((lp203
(I5
I9
tp204
a(I5
I4
tp205
a(I5
I7
tp206
a(I6
I6
tp207
a(I4
I8
tp208
a(I8
I0
tp209
a(I0
I7
tp210
a(I7
I5
tp211
a(I2
I3
tp212
a(I1
I4
tp213
a(I6
I8
tp214
a(I1
I11
tp215
a(I9
I6
tp216
a(I5
I8
tp217
a(I4
I6
tp218
a(I3
I8
tp219
a(I6
I7
tp220
a(I5
I5
tp221
a(I3
I4
tp222
a(I4
I4
tp223
a(I6
I3
tp224
a(I2
I0
tp225
a(I6
I5
tp226
ag200
a(I7
I8
tp227
atp228
Rp229
sg15
I10
sg29
g20
((lp230
(I6
I9
tp231
a(I2
I9
tp232
a(I2
I11
tp233
a(I9
I0
tp234
a(I7
I7
tp235
a(I8
I3
tp236
a(I1
I7
tp237
a(I8
I6
tp238
a(I8
I4
tp239
a(I3
I5
tp240
atp241
Rp242
sg13
((I4
I9
tp243
(I8
I11
tp244
(I7
I1
tp245
(I3
I3
tp246
tp247
sg14
I12
sbs(iproblems
RoomID
p248
(dp249
g10
I10
sg11
(I11
I0
tp250
sg13
I4
sg14
I9
sg15
I12
sg16
I2796939073032698495
sb(imulti_robot_problem
MultiRobotState
p251
(dp252
g19
g20
((lp253
(I7
I3
tp254
a(I5
I7
tp255
a(I9
I1
tp256
a(I6
I6
tp257
a(I8
I0
tp258
a(I7
I7
tp259
a(I5
I8
tp260
a(I3
I3
tp261
a(I8
I1
tp262
a(I4
I8
tp263
a(I6
I3
tp264
a(I7
I2
tp265
a(I3
I6
tp266
a(I6
I4
tp267
a(I5
I4
tp268
a(I2
I6
tp269
a(I7
I1
tp270
a(I4
I5
tp271
ag250
a(I2
I3
tp272
a(I10
I1
tp273
a(I1
I0
tp274
a(I6
I5
tp275
a(I5
I3
tp276
a(I8
I3
tp277
a(I7
I0
tp278
a(I6
I8
tp279
a(I9
I2
tp280
a(I6
I1
tp281
a(I3
I1
tp282
a(I8
I8
tp283
a(I4
I3
tp284
a(I5
I2
tp285
a(I10
I2
tp286
atp287
Rp288
sg15
I12
sg29
g20
((lp289
(I1
I2
tp290
a(I11
I7
tp291
a(I3
I2
tp292
a(I2
I8
tp293
a(I9
I3
tp294
a(I1
I6
tp295
a(I5
I0
tp296
a(I0
I3
tp297
a(I0
I8
tp298
a(I4
I1
tp299
atp300
Rp301
sg13
((I10
I8
tp302
(I4
I6
tp303
(I11
I4
tp304
(I7
I8
tp305
tp306
sg14
I9
sbs(iproblems
RoomID
p307
(dp308
g10
I10
sg11
(I3
I6
tp309
sg13
I4
sg14
I12
sg15
I11
sg16
I4278205817407065157
sb(imulti_robot_problem
MultiRobotState
p310
(dp311
g19
g20
((lp312
(I0
I1
tp313
a(I4
I7
tp314
a(I5
I6
tp315
a(I2
I8
tp316
a(I0
I10
tp317
a(I3
I7
tp318
a(I7
I11
tp319
a(I3
I3
tp320
a(I2
I7
tp321
a(I5
I3
tp322
a(I6
I7
tp323
a(I4
I6
tp324
a(I10
I7
tp325
a(I4
I4
tp326
a(I3
I8
tp327
a(I4
I5
tp328
ag309
a(I1
I10
tp329
a(I3
I5
tp330
a(I1
I9
tp331
atp332
Rp333
sg15
I11
sg29
g20
((lp334
(I1
I2
tp335
a(I8
I1
tp336
a(I9
I2
tp337
a(I6
I1
tp338
a(I5
I7
tp339
a(I8
I9
tp340
a(I3
I0
tp341
a(I9
I4
tp342
a(I0
I2
tp343
a(I4
I0
tp344
atp345
Rp346
sg13
((I6
I10
tp347
(I5
I11
tp348
(I2
I0
tp349
(I9
I1
tp350
tp351
sg14
I12
sbssg130
S'mild_roomset'
p352
sbsg130
g132
sg133
(dp353
g150
((lp354
F39.989999999997963
tp355
sg198
((lp356
F40.010000000002037
tp357
sg307
((lp358
F40.0
tp359
sg248
((lp360
F40.0
tp361
ssba(imeasure_core
ProblemSetSolution
p362
(dp363
g3
(imeasure_core
RoomSet
p364
(dp365
g6
(dp366
(iproblems
RoomID
p367
(dp368
g10
I11
sg11
(I10
I1
tp369
sg13
I7
sg14
I12
sg15
I13
sg16
I2405875930906139466
sb(imulti_robot_problem
MultiRobotState
p370
(dp371
g19
g20
((lp372
(I7
I3
tp373
a(I9
I1
tp374
a(I7
I1
tp375
a(I5
I6
tp376
a(I8
I11
tp377
a(I8
I0
tp378
a(I1
I4
tp379
a(I6
I2
tp380
a(I0
I7
tp381
ag369
a(I10
I3
tp382
a(I7
I2
tp383
a(I10
I4
tp384
a(I11
I7
tp385
a(I9
I0
tp386
a(I11
I5
tp387
a(I7
I4
tp388
a(I1
I5
tp389
a(I10
I2
tp390
a(I11
I6
tp391
a(I8
I4
tp392
atp393
Rp394
sg15
I13
sg29
g20
((lp395
(I12
I5
tp396
a(I10
I11
tp397
a(I8
I1
tp398
a(I7
I8
tp399
a(I8
I6
tp400
a(I6
I3
tp401
a(I2
I0
tp402
a(I2
I3
tp403
a(I5
I1
tp404
a(I10
I0
tp405
a(I3
I4
tp406
atp407
Rp408
sg13
((I10
I8
tp409
(I9
I2
tp410
(I4
I5
tp411
(I11
I8
tp412
(I1
I2
tp413
(I3
I1
tp414
(I0
I10
tp415
tp416
sg14
I12
sbs(iproblems
RoomID
p417
(dp418
g10
I11
sg11
(I7
I9
tp419
sg13
I6
sg14
I13
sg15
I10
sg16
I8744744311366254845
sb(imulti_robot_problem
MultiRobotState
p420
(dp421
g19
g20
((lp422
(I6
I9
tp423
a(I1
I3
tp424
a(I4
I9
tp425
a(I5
I6
tp426
a(I9
I8
tp427
a(I1
I8
tp428
a(I1
I0
tp429
ag419
a(I3
I4
tp430
a(I5
I8
tp431
a(I9
I7
tp432
atp433
Rp434
sg15
I10
sg29
g20
((lp435
(I0
I1
tp436
a(I7
I3
tp437
a(I9
I0
tp438
a(I1
I12
tp439
a(I4
I10
tp440
a(I5
I11
tp441
a(I9
I10
tp442
a(I7
I11
tp443
a(I3
I7
tp444
a(I0
I8
tp445
a(I9
I6
tp446
atp447
Rp448
sg13
((I0
I10
tp449
(I6
I3
tp450
(I4
I0
tp451
(I1
I6
tp452
(I7
I5
tp453
(I9
I9
tp454
tp455
sg14
I13
sbs(iproblems
RoomID
p456
(dp457
g10
I15
sg11
(I4
I8
tp458
sg13
I6
sg14
I13
sg15
I12
sg16
I4278205817407065157
sb(imulti_robot_problem
MultiRobotState
p459
(dp460
g19
g20
((lp461
(I11
I7
tp462
a(I2
I9
tp463
ag458
a(I5
I6
tp464
a(I2
I8
tp465
a(I6
I10
tp466
a(I3
I8
tp467
a(I11
I8
tp468
a(I3
I9
tp469
a(I1
I10
tp470
a(I1
I11
tp471
a(I7
I8
tp472
a(I2
I4
tp473
atp474
Rp475
sg15
I12
sg29
g20
((lp476
(I1
I2
tp477
a(I0
I1
tp478
a(I5
I4
tp479
a(I5
I7
tp480
a(I10
I4
tp481
a(I7
I1
tp482
a(I3
I1
tp483
a(I10
I5
tp484
a(I4
I7
tp485
a(I9
I9
tp486
a(I0
I10
tp487
a(I4
I3
tp488
a(I8
I12
tp489
a(I4
I1
tp490
a(I0
I2
tp491
atp492
Rp493
sg13
((I7
I10
tp494
(I6
I12
tp495
(I2
I0
tp496
(I9
I1
tp497
(I10
I3
tp498
(I4
I0
tp499
tp500
sg14
I13
sbs(iproblems
RoomID
p501
(dp502
g10
I15
sg11
(I5
I8
tp503
sg13
I7
sg14
I13
sg15
I11
sg16
I8655808914197340073
sb(imulti_robot_problem
MultiRobotState
p504
(dp505
g19
g20
((lp506
(I5
I9
tp507
a(I6
I7
tp508
a(I6
I11
tp509
a(I1
I4
tp510
a(I0
I12
tp511
a(I0
I11
tp512
a(I7
I5
tp513
a(I1
I6
tp514
a(I0
I4
tp515
a(I5
I10
tp516
a(I3
I9
tp517
a(I4
I9
tp518
a(I10
I3
tp519
ag503
atp520
Rp521
sg15
I11
sg29
g20
((lp522
(I2
I7
tp523
a(I7
I3
tp524
a(I4
I6
tp525
a(I1
I12
tp526
a(I5
I6
tp527
a(I8
I5
tp528
a(I7
I7
tp529
a(I7
I9
tp530
a(I2
I0
tp531
a(I9
I4
tp532
a(I7
I10
tp533
a(I0
I8
tp534
a(I9
I6
tp535
a(I6
I5
tp536
a(I9
I7
tp537
atp538
Rp539
sg13
((I9
I11
tp540
(I8
I1
tp541
(I3
I4
tp542
(I8
I7
tp543
(I9
I1
tp544
(I2
I10
tp545
(I2
I12
tp546
tp547
sg14
I13
sbssg130
S'heavy_roomset'
p548
sbsg130
g132
sg133
(dp549
g367
((lp550
F40.880000000001019
tp551
sg417
((lp552
F40.779999999998836
tp553
sg456
((lp554
F40.970000000001164
tp555
sg501
((lp556
F41.020000000000437
tp557
ssba(imeasure_core
ProblemSetSolution
p558
(dp559
g3
(imeasure_core
RoomSet
p560
(dp561
g6
(dp562
S'complexRoom'
p563
(imulti_robot_problem
MultiRobotState
p564
(dp565
g19
g20
((lp566
(I2
I7
tp567
a(I7
I3
tp568
a(I6
I3
tp569
a(I3
I3
tp570
a(I7
I6
tp571
a(I7
I4
tp572
a(I7
I5
tp573
a(I2
I3
tp574
a(I4
I3
tp575
a(I2
I5
tp576
a(I2
I4
tp577
a(I5
I3
tp578
atp579
Rp580
sg15
I11
sg29
g20
((lp581
(I1
I0
tp582
a(I9
I0
tp583
atp584
Rp585
sg13
((I6
I4
tp586
(I1
I6
tp587
tp588
sg14
I8
sbsS'exampleProblem'
p589
(imulti_robot_problem
MultiRobotState
p590
(dp591
g19
g20
((lp592
tp593
Rp594
sg15
I5
sg29
g20
((lp595
(I1
I3
tp596
a(I3
I1
tp597
a(I1
I1
tp598
a(I3
I3
tp599
atp600
Rp601
sg13
((I2
I2
tp602
tp603
sg14
I5
sbsS'linear_test'
p604
(imulti_robot_problem
MultiRobotState
p605
(dp606
g19
g594
sg15
I12
sg29
g20
((lp607
(I11
I0
tp608
a(I1
I0
tp609
a(I9
I0
tp610
atp611
Rp612
sg13
((I3
I0
tp613
(I1
I2
tp614
tp615
sg14
I7
sbsS'obstacle_Far_CloseTest'
p616
(imulti_robot_problem
MultiRobotState
p617
(dp618
g19
g20
((lp619
(I0
I1
tp620
a(I7
I3
tp621
a(I3
I1
tp622
a(I7
I1
tp623
a(I4
I5
tp624
a(I7
I6
tp625
a(I4
I4
tp626
a(I2
I1
tp627
a(I7
I4
tp628
a(I7
I5
tp629
a(I4
I3
tp630
a(I4
I2
tp631
a(I4
I1
tp632
a(I1
I1
tp633
a(I7
I2
tp634
atp635
Rp636
sg15
I12
sg29
g20
((lp637
(I3
I2
tp638
a(I9
I6
tp639
atp640
Rp641
sg13
((I0
I0
tp642
(I6
I6
tp643
tp644
sg14
I7
sbsS'zigzag'
p645
(imulti_robot_problem
MultiRobotState
p646
(dp647
g19
g20
((lp648
(I1
I2
tp649
a(I3
I2
tp650
a(I1
I3
tp651
a(I3
I0
tp652
a(I3
I1
tp653
a(I5
I1
tp654
a(I5
I2
tp655
a(I1
I1
tp656
a(I5
I3
tp657
atp658
Rp659
sg15
I20
sg29
g20
((lp660
(I6
I3
tp661
atp662
Rp663
sg13
((I0
I3
tp664
(I19
I3
tp665
tp666
sg14
I4
sbsS'room1'
p667
(imulti_robot_problem
MultiRobotState
p668
(dp669
g19
g20
((lp670
(I6
I3
tp671
a(I7
I3
tp672
a(I8
I3
tp673
a(I2
I3
tp674
a(I3
I3
tp675
a(I4
I3
tp676
a(I5
I3
tp677
atp678
Rp679
sg15
I9
sg29
g20
((lp680
(I0
I0
tp681
a(I2
I1
tp682
atp683
Rp684
sg13
((I6
I1
tp685
(I6
I5
tp686
tp687
sg14
I6
sbsS'complexRoom2'
p688
(imulti_robot_problem
MultiRobotState
p689
(dp690
g19
g20
((lp691
(I7
I3
tp692
a(I1
I3
tp693
a(I7
I1
tp694
a(I4
I5
tp695
a(I9
I3
tp696
a(I5
I5
tp697
a(I2
I6
tp698
a(I2
I3
tp699
a(I5
I1
tp700
a(I0
I3
tp701
a(I10
I3
tp702
a(I2
I5
tp703
a(I6
I5
tp704
a(I5
I3
tp705
a(I2
I7
tp706
a(I8
I3
tp707
a(I3
I3
tp708
a(I5
I2
tp709
a(I7
I6
tp710
a(I3
I1
tp711
a(I6
I3
tp712
a(I7
I5
tp713
a(I4
I3
tp714
a(I3
I5
tp715
a(I4
I1
tp716
a(I6
I1
tp717
atp718
Rp719
sg15
I11
sg29
g20
((lp720
(I7
I2
tp721
a(I0
I7
tp722
atp723
Rp724
sg13
((I1
I2
tp725
(I3
I6
tp726
tp727
sg14
I8
sbsS'zigzagUpright'
p728
(imulti_robot_problem
MultiRobotState
p729
(dp730
g19
g20
((lp731
(I1
I3
tp732
a(I3
I1
tp733
a(I2
I1
tp734
a(I1
I1
tp735
a(I1
I5
tp736
a(I2
I3
tp737
a(I2
I5
tp738
a(I0
I3
tp739
a(I3
I5
tp740
atp741
Rp742
sg15
I4
sg29
g20
((lp743
(I3
I6
tp744
atp745
Rp746
sg13
((I3
I0
tp747
(I3
I19
tp748
tp749
sg14
I20
sbsS'ivansRevenge'
p750
(imulti_robot_problem
MultiRobotState
p751
(dp752
g19
g594
sg15
I10
sg29
g20
((lp753
(I9
I2
tp754
a(I0
I0
tp755
atp756
Rp757
sg13
((I9
I0
tp758
(I0
I2
tp759
tp760
sg14
I3
sbsS'roomLongWithObstaccle'
p761
(imulti_robot_problem
MultiRobotState
p762
(dp763
g19
g20
((lp764
(I0
I1
tp765
a(I12
I1
tp766
a(I9
I1
tp767
a(I7
I1
tp768
a(I8
I1
tp769
a(I6
I1
tp770
a(I3
I1
tp771
a(I2
I1
tp772
a(I11
I1
tp773
a(I10
I1
tp774
a(I5
I1
tp775
a(I4
I1
tp776
a(I1
I1
tp777
atp778
Rp779
sg15
I15
sg29
g20
((lp780
(I0
I2
tp781
a(I14
I6
tp782
atp783
Rp784
sg13
((I0
I0
tp785
(I0
I6
tp786
tp787
sg14
I7
sbsS'twoRobotsInOpCorners'
p788
(imulti_robot_problem
MultiRobotState
p789
(dp790
g19
g594
sg15
I5
sg29
g20
((lp791
(I0
I0
tp792
a(I4
I4
tp793
atp794
Rp795
sg13
((I3
I0
tp796
(I0
I3
tp797
tp798
sg14
I5
sbsS'split2'
p799
(imulti_robot_problem
MultiRobotState
p800
(dp801
g19
g594
sg15
I10
sg29
g20
((lp802
(I0
I9
tp803
a(I9
I0
tp804
a(I0
I0
tp805
a(I9
I9
tp806
atp807
Rp808
sg13
((I1
I1
tp809
(I8
I1
tp810
(I4
I5
tp811
(I5
I5
tp812
tp813
sg14
I10
sbsS'split3'
p814
(imulti_robot_problem
MultiRobotState
p815
(dp816
g19
g594
sg15
I10
sg29
g20
((lp817
(I0
I9
tp818
a(I9
I0
tp819
a(I0
I0
tp820
a(I9
I9
tp821
atp822
Rp823
sg13
((I1
I1
tp824
(I8
I1
tp825
(I1
I7
tp826
(I7
I7
tp827
tp828
sg14
I10
sbsS'gaintRoom'
p829
(imulti_robot_problem
MultiRobotState
p830
(dp831
g19
g594
sg15
I5
sg29
g20
((lp832
(I4
I0
tp833
a(I4
I4
tp834
a(I0
I4
tp835
atp836
Rp837
sg13
((I0
I0
tp838
tp839
sg14
I5
sbsS'gaintRoomWithWall'
p840
(imulti_robot_problem
MultiRobotState
p841
(dp842
g19
g20
((lp843
(I2
I4
tp844
atp845
Rp846
sg15
I5
sg29
g20
((lp847
(I4
I0
tp848
a(I4
I4
tp849
a(I0
I4
tp850
atp851
Rp852
sg13
((I0
I0
tp853
tp854
sg14
I5
sbsS'split'
p855
(imulti_robot_problem
MultiRobotState
p856
(dp857
g19
g594
sg15
I10
sg29
g20
((lp858
(I0
I9
tp859
a(I9
I0
tp860
a(I0
I0
tp861
a(I9
I9
tp862
atp863
Rp864
sg13
((I4
I4
tp865
(I5
I4
tp866
(I4
I5
tp867
(I5
I5
tp868
tp869
sg14
I10
sbsS'twoRobots'
p870
(imulti_robot_problem
MultiRobotState
p871
(dp872
g19
g594
sg15
I9
sg29
g20
((lp873
(I8
I0
tp874
a(I0
I0
tp875
atp876
Rp877
sg13
((I2
I0
tp878
(I0
I3
tp879
tp880
sg14
I4
sbssg130
S'static_rooms'
p881
sbsg130
g132
sg133
(dp882
g799
((lp883
F40.159999999999854
tp884
sg814
((lp885
F40.010000000002037
tp886
sg563
((lp887
F39.990000000001601
tp888
sg829
((lp889
F39.989999999997963
tp890
sg589
((lp891
(F0.00450897216796875
I8
tp892
aF40.0
tp893
sg604
((lp894
(F0.029555082321166992
I8
tp895
aF40.0
tp896
sg616
((lp897
F39.989999999997963
tp898
sg870
((lp899
F39.990000000001601
tp900
sg840
((lp901
F39.990000000001601
tp902
sg645
((lp903
F39.990000000001601
tp904
sg667
((lp905
(F0.026165962219238281
I7
tp906
aF39.990000000001601
tp907
sg688
((lp908
F39.989999999997963
tp909
sg728
((lp910
F40.0
tp911
sg750
((lp912
(F0.0037071704864501953
I2
tp913
aF39.990000000001601
tp914
sg761
((lp915
F39.989999999997963
tp916
sg788
((lp917
F40.0
tp918
sg855
((lp919
F40.209999999999127
tp920
ssba(imeasure_core
ProblemSetSolution
p921
(dp922
g3
g4
sg130
S"AnytimeBeam-w4-gf(4, 'lin')_with_PowerHeuristic2"
p923
sg133
(dp924
g8
((lp925
(F0.29028511047363281
I9
tp926
aF40.149999999997817
tp927
sg44
((lp928
F40.069999999999709
tp929
sg71
((lp930
(F2.4663450717926025
I8
tp931
aF40.430000000000291
tp932
sg105
((lp933
F40.0
tp934
ssba(imeasure_core
ProblemSetSolution
p935
(dp936
g3
g147
sg130
g923
sg133
(dp937
g150
((lp938
F40.009999999998399
tp939
sg198
((lp940
F40.010000000002037
tp941
sg307
((lp942
F40.170000000001892
tp943
sg248
((lp944
F40.009999999998399
tp945
ssba(imeasure_core
ProblemSetSolution
p946
(dp947
g3
g364
sg130
g923
sg133
(dp948
g367
((lp949
F42.520000000000437
tp950
sg417
((lp951
F40.819999999999709
tp952
sg456
((lp953
F41.139999999999418
tp954
sg501
((lp955
F42.010000000002037
tp956
ssba(imeasure_core
ProblemSetSolution
p957
(dp958
g3
g560
sg130
g923
sg133
(dp959
g799
((lp960
F40.06000000000131
tp961
sg814
((lp962
F40.149999999997817
tp963
sg563
((lp964
F39.990000000001601
tp965
sg829
((lp966
F39.990000000001601
tp967
sg589
((lp968
(F0.0044169425964355469
I8
tp969
aF39.989999999997963
tp970
sg604
((lp971
(F0.029181957244873047
I8
tp972
aF40.0
tp973
sg616
((lp974
F39.990000000001601
tp975
sg870
((lp976
F39.990000000001601
tp977
sg840
((lp978
F39.990000000001601
tp979
sg645
((lp980
F39.990000000001601
tp981
sg667
((lp982
(F0.025988101959228516
I7
tp983
aF40.009999999998399
tp984
sg688
((lp985
F39.979999999999563
tp986
sg728
((lp987
F40.010000000002037
tp988
sg750
((lp989
(F0.0037169456481933594
I2
tp990
aF39.989999999997963
tp991
sg761
((lp992
F39.990000000001601
tp993
sg788
((lp994
F39.989999999997963
tp995
sg855
((lp996
F40.359999999996944
tp997
ssba(imeasure_core
ProblemSetSolution
p998
(dp999
g3
g4
sg130
S"AnytimeBeam-w4-gf(8, 'lin')_with_PowerHeuristic2"
p1000
sg133
(dp1001
g8
((lp1002
(F0.29295492172241211
I9
tp1003
aF40.110000000000582
tp1004
sg44
((lp1005
F40.010000000002037
tp1006
sg71
((lp1007
(F3.0162370204925537
I8
tp1008
aF40.450000000000728
tp1009
sg105
((lp1010
F39.989999999997963
tp1011
ssba(imeasure_core
ProblemSetSolution
p1012
(dp1013
g3
g147
sg130
g1000
sg133
(dp1014
g150
((lp1015
F40.039999999997235
tp1016
sg198
((lp1017
F40.06000000000131
tp1018
sg307
((lp1019
F40.029999999998836
tp1020
sg248
((lp1021
F40.020000000000437
tp1022
ssba(imeasure_core
ProblemSetSolution
p1023
(dp1024
g3
g364
sg130
g1000
sg133
(dp1025
g367
((lp1026
F45.359999999996944
tp1027
sg417
((lp1028
F39.989999999997963
tp1029
sg456
((lp1030
F43.450000000000728
tp1031
sg501
((lp1032
F43.690000000002328
tp1033
ssba(imeasure_core
ProblemSetSolution
p1034
(dp1035
g3
g560
sg130
g1000
sg133
(dp1036
g799
((lp1037
F40.119999999998981
tp1038
sg814
((lp1039
F40.319999999999709
tp1040
sg563
((lp1041
F39.990000000001601
tp1042
sg829
((lp1043
F39.990000000001601
tp1044
sg589
((lp1045
(F0.0043940544128417969
I8
tp1046
aF39.989999999997963
tp1047
sg604
((lp1048
(F0.029209136962890625
I8
tp1049
aF40.010000000002037
tp1050
sg616
((lp1051
F39.989999999997963
tp1052
sg870
((lp1053
F40.0
tp1054
sg840
((lp1055
F39.989999999997963
tp1056
sg645
((lp1057
F39.990000000001601
tp1058
sg667
((lp1059
(F0.025930881500244141
I7
tp1060
aF40.0
tp1061
sg688
((lp1062
F39.989999999997963
tp1063
sg728
((lp1064
F40.0
tp1065
sg750
((lp1066
(F0.003704071044921875
I2
tp1067
aF39.990000000001601
tp1068
sg761
((lp1069
F39.989999999997963
tp1070
sg788
((lp1071
F39.990000000001601
tp1072
sg855
((lp1073
F40.460000000002765
tp1074
ssba(imeasure_core
ProblemSetSolution
p1075
(dp1076
g3
g4
sg130
S"AnytimeBeam-w4-gf(16, 'lin')_with_PowerHeuristic2"
p1077
sg133
(dp1078
g8
((lp1079
(F0.29166817665100098
I9
tp1080
aF40.029999999998836
tp1081
sg44
((lp1082
F40.020000000000437
tp1083
sg71
((lp1084
(F3.5798251628875732
I8
tp1085
aF40.489999999997963
tp1086
sg105
((lp1087
F39.990000000001601
tp1088
ssba(imeasure_core
ProblemSetSolution
p1089
(dp1090
g3
g147
sg130
g1077
sg133
(dp1091
g150
((lp1092
F40.090000000000146
tp1093
sg198
((lp1094
F40.090000000000146
tp1095
sg307
((lp1096
F40.069999999999709
tp1097
sg248
((lp1098
F40.049999999999272
tp1099
ssba(imeasure_core
ProblemSetSolution
p1100
(dp1101
g3
g364
sg130
g1077
sg133
(dp1102
g367
((lp1103
F43.630000000001019
tp1104
sg417
((lp1105
F40.209999999999127
tp1106
sg456
((lp1107
F46.459999999999127
tp1108
sg501
((lp1109
F46.450000000000728
tp1110
ssba(imeasure_core
ProblemSetSolution
p1111
(dp1112
g3
g560
sg130
g1077
sg133
(dp1113
g799
((lp1114
F40.049999999999272
tp1115
sg814
((lp1116
F40.130000000001019
tp1117
sg563
((lp1118
F39.989999999997963
tp1119
sg829
((lp1120
F40.0
tp1121
sg589
((lp1122
(F0.0044560432434082031
I8
tp1123
aF40.0
tp1124
sg604
((lp1125
(F0.02927708625793457
I8
tp1126
aF40.010000000002037
tp1127
sg616
((lp1128
F40.0
tp1129
sg870
((lp1130
F40.0
tp1131
sg840
((lp1132
F39.989999999997963
tp1133
sg645
((lp1134
F39.989999999997963
tp1135
sg667
((lp1136
(F0.026175975799560547
I7
tp1137
aF40.0
tp1138
sg688
((lp1139
F39.990000000001601
tp1140
sg728
((lp1141
F39.989999999997963
tp1142
sg750
((lp1143
(F0.0037360191345214844
I2
tp1144
aF39.990000000001601
tp1145
sg761
((lp1146
F40.009999999998399
tp1147
sg788
((lp1148
F39.990000000001601
tp1149
sg855
((lp1150
F40.479999999999563
tp1151
ssba(imeasure_core
ProblemSetSolution
p1152
(dp1153
g3
g4
sg130
S"AnytimeBeam-w4-gf(2, 'lin')_with_LinearHeuristic"
p1154
sg133
(dp1155
g8
((lp1156
F40.110000000000582
tp1157
sg44
((lp1158
F40.020000000000437
tp1159
sg71
((lp1160
(F2.2971348762512207
I6
tp1161
aF40.169999999998254
tp1162
sg105
((lp1163
F40.0
tp1164
ssba(imeasure_core
ProblemSetSolution
p1165
(dp1166
g3
g147
sg130
g1154
sg133
(dp1167
g150
((lp1168
F40.020000000004075
tp1169
sg198
((lp1170
F40.069999999999709
tp1171
sg307
((lp1172
F40.30000000000291
tp1173
sg248
((lp1174
F40.019999999996799
tp1175
ssba(imeasure_core
ProblemSetSolution
p1176
(dp1177
g3
g364
sg130
g1154
sg133
(dp1178
g367
((lp1179
F42.389999999999418
tp1180
sg417
((lp1181
F46.44999999999709
tp1182
sg456
((lp1183
F41.970000000001164
tp1184
sg501
((lp1185
F41.139999999999418
tp1186
ssba(imeasure_core
ProblemSetSolution
p1187
(dp1188
g3
g560
sg130
g1154
sg133
(dp1189
g799
((lp1190
F40.019999999996799
tp1191
sg814
((lp1192
F40.459999999999127
tp1193
sg563
((lp1194
F40.0
tp1195
sg829
((lp1196
F40.0
tp1197
sg589
((lp1198
F39.989999999997963
tp1199
sg604
((lp1200
F40.0
tp1201
sg616
((lp1202
F40.010000000002037
tp1203
sg870
((lp1204
F39.989999999997963
tp1205
sg840
((lp1206
F39.989999999997963
tp1207
sg645
((lp1208
F39.989999999997963
tp1209
sg667
((lp1210
F40.0
tp1211
sg688
((lp1212
F39.990000000005239
tp1213
sg728
((lp1214
F39.989999999997963
tp1215
sg750
((lp1216
(F0.0052289962768554688
I2
tp1217
aF39.989999999997963
tp1218
sg761
((lp1219
F39.989999999997963
tp1220
sg788
((lp1221
F39.990000000005239
tp1222
sg855
((lp1223
F40.200000000004366
tp1224
ssba(imeasure_core
ProblemSetSolution
p1225
(dp1226
g3
g4
sg130
S"AnytimeBeam-w4-gf(4, 'lin')_with_LinearHeuristic"
p1227
sg133
(dp1228
g8
((lp1229
F40.069999999999709
tp1230
sg44
((lp1231
F40.059999999997672
tp1232
sg71
((lp1233
(F2.3213150501251221
I6
tp1234
aF40.230000000003201
tp1235
sg105
((lp1236
F39.989999999997963
tp1237
ssba(imeasure_core
ProblemSetSolution
p1238
(dp1239
g3
g147
sg130
g1227
sg133
(dp1240
g150
((lp1241
F40.120000000002619
tp1242
sg198
((lp1243
F40.209999999999127
tp1244
sg307
((lp1245
F40.220000000001164
tp1246
sg248
((lp1247
F40.029999999998836
tp1248
ssba(imeasure_core
ProblemSetSolution
p1249
(dp1250
g3
g364
sg130
g1227
sg133
(dp1251
g367
((lp1252
F48.940000000002328
tp1253
sg417
((lp1254
F51.25
tp1255
sg456
((lp1256
F41.029999999998836
tp1257
sg501
((lp1258
F47.409999999996217
tp1259
ssba(imeasure_core
ProblemSetSolution
p1260
(dp1261
g3
g560
sg130
g1227
sg133
(dp1262
g799
((lp1263
F40.639999999999418
tp1264
sg814
((lp1265
F40.310000000004948
tp1266
sg563
((lp1267
F39.979999999995925
tp1268
sg829
((lp1269
F39.989999999997963
tp1270
sg589
((lp1271
F39.990000000005239
tp1272
sg604
((lp1273
F40.019999999996799
tp1274
sg616
((lp1275
F40.0
tp1276
sg870
((lp1277
F40.0
tp1278
sg840
((lp1279
F39.989999999997963
tp1280
sg645
((lp1281
F40.0
tp1282
sg667
((lp1283
F39.989999999997963
tp1284
sg688
((lp1285
F39.990000000005239
tp1286
sg728
((lp1287
F40.0
tp1288
sg750
((lp1289
(F0.0051980018615722656
I2
tp1290
aF39.989999999997963
tp1291
sg761
((lp1292
F39.989999999997963
tp1293
sg788
((lp1294
F40.0
tp1295
sg855
((lp1296
F40.260000000002037
tp1297
ssba(imeasure_core
ProblemSetSolution
p1298
(dp1299
g3
g4
sg130
S"AnytimeBeam-w4-gf(8, 'lin')_with_LinearHeuristic"
p1300
sg133
(dp1301
g8
((lp1302
F40.029999999998836
tp1303
sg44
((lp1304
F40.30000000000291
tp1305
sg71
((lp1306
(F2.3625929355621338
I6
tp1307
aF40.529999999998836
tp1308
sg105
((lp1309
F39.989999999997963
tp1310
ssba(imeasure_core
ProblemSetSolution
p1311
(dp1312
g3
g147
sg130
g1300
sg133
(dp1313
g150
((lp1314
F40.120000000002619
tp1315
sg198
((lp1316
F40.059999999997672
tp1317
sg307
((lp1318
F40.160000000003492
tp1319
sg248
((lp1320
F40.029999999998836
tp1321
ssba(imeasure_core
ProblemSetSolution
p1322
(dp1323
g3
g364
sg130
g1300
sg133
(dp1324
g367
((lp1325
F41.109999999993306
tp1326
sg417
((lp1327
F45.600000000005821
tp1328
sg456
((lp1329
F41.189999999995052
tp1330
sg501
((lp1331
F40.110000000000582
tp1332
ssba(imeasure_core
ProblemSetSolution
p1333
(dp1334
g3
g560
sg130
g1300
sg133
(dp1335
g799
((lp1336
F40.540000000000873
tp1337
sg814
((lp1338
F40.459999999999127
tp1339
sg563
((lp1340
F39.989999999997963
tp1341
sg829
((lp1342
F39.989999999997963
tp1343
sg589
((lp1344
F39.990000000005239
tp1345
sg604
((lp1346
F40.009999999994761
tp1347
sg616
((lp1348
F40.0
tp1349
sg870
((lp1350
F40.0
tp1351
sg840
((lp1352
F39.989999999997963
tp1353
sg645
((lp1354
F39.990000000005239
tp1355
sg667
((lp1356
F40.0
tp1357
sg688
((lp1358
F39.989999999997963
tp1359
sg728
((lp1360
F39.989999999997963
tp1361
sg750
((lp1362
(F0.0052089691162109375
I2
tp1363
aF40.0
tp1364
sg761
((lp1365
F39.989999999997963
tp1366
sg788
((lp1367
F39.990000000005239
tp1368
sg855
((lp1369
F40.200000000004366
tp1370
ssba(imeasure_core
ProblemSetSolution
p1371
(dp1372
g3
g4
sg130
S"AnytimeBeam-w4-gf(16, 'lin')_with_LinearHeuristic"
p1373
sg133
(dp1374
g8
((lp1375
F40.089999999996508
tp1376
sg44
((lp1377
F40.470000000001164
tp1378
sg71
((lp1379
(F2.7279388904571533
I6
tp1380
aF40.370000000002619
tp1381
sg105
((lp1382
F39.989999999997963
tp1383
ssba(imeasure_core
ProblemSetSolution
p1384
(dp1385
g3
g147
sg130
g1373
sg133
(dp1386
g150
((lp1387
F40.099999999998545
tp1388
sg198
((lp1389
F40.339999999996508
tp1390
sg307
((lp1391
F40.020000000004075
tp1392
sg248
((lp1393
F40.040000000000873
tp1394
ssba(imeasure_core
ProblemSetSolution
p1395
(dp1396
g3
g364
sg130
g1373
sg133
(dp1397
g367
((lp1398
F50.789999999993597
tp1399
sg417
((lp1400
F44.780000000006112
tp1401
sg456
((lp1402
F43.189999999995052
tp1403
sg501
((lp1404
F50.040000000000873
tp1405
ssba(imeasure_core
ProblemSetSolution
p1406
(dp1407
g3
g560
sg130
g1373
sg133
(dp1408
g799
((lp1409
F40.450000000004366
tp1410
sg814
((lp1411
F40.569999999999709
tp1412
sg563
((lp1413
F40.010000000002037
tp1414
sg829
((lp1415
F39.989999999997963
tp1416
sg589
((lp1417
F39.989999999997963
tp1418
sg604
((lp1419
F40.0
tp1420
sg616
((lp1421
F40.0
tp1422
sg870
((lp1423
F39.990000000005239
tp1424
sg840
((lp1425
F39.989999999997963
tp1426
sg645
((lp1427
F39.989999999997963
tp1428
sg667
((lp1429
F40.0
tp1430
sg688
((lp1431
F39.989999999997963
tp1432
sg728
((lp1433
F39.990000000005239
tp1434
sg750
((lp1435
(F0.0052099227905273438
I2
tp1436
aF40.0
tp1437
sg761
((lp1438
F39.989999999997963
tp1439
sg788
((lp1440
F39.989999999997963
tp1441
sg855
((lp1442
F40.779999999998836
tp1443
ssba.