(lp0
(imeasure_core
ProblemSetSolution
p1
(dp2
S'roomset'
p3
(imeasure_core
RoomSet
p4
(dp5
S'rooms'
p6
(dp7
(iproblems
RoomID
p8
(dp9
S'dusts'
p10
I8
sS'obstacles'
p11
(I2
I8
tp12
sS'robots'
p13
I4
sS'height'
p14
I10
sS'width'
p15
I7
sS'seed'
p16
I7106521602475165645
sb(imulti_robot_problem
MultiRobotState
p17
(dp18
S'obstacle_locations'
p19
c__builtin__
frozenset
p20
((lp21
(I3
I8
tp22
a(I5
I9
tp23
a(I4
I9
tp24
ag12
a(I5
I2
tp25
a(I5
I8
tp26
atp27
Rp28
sg15
I7
sS'dirt_locations'
p29
g20
((lp30
(I1
I2
tp31
a(I2
I7
tp32
a(I0
I0
tp33
a(I3
I1
tp34
a(I6
I0
tp35
a(I2
I1
tp36
a(I2
I3
tp37
a(I2
I5
tp38
atp39
Rp40
sg13
((I0
I8
tp41
(I4
I5
tp42
(I3
I9
tp43
(I1
I8
tp44
tp45
sg14
I10
sbs(iproblems
RoomID
p46
(dp47
g10
I10
sg11
(I3
I3
tp48
sg13
I4
sg14
I10
sg15
I8
sg16
I746805015404516437
sb(imulti_robot_problem
MultiRobotState
p49
(dp50
g19
g20
((lp51
(I7
I4
tp52
ag48
a(I4
I2
tp53
a(I6
I1
tp54
a(I3
I1
tp55
a(I4
I1
tp56
a(I1
I4
tp57
atp58
Rp59
sg15
I8
sg29
g20
((lp60
(I4
I6
tp61
a(I6
I3
tp62
a(I2
I0
tp63
a(I3
I9
tp64
a(I2
I3
tp65
a(I3
I6
tp66
a(I5
I1
tp67
a(I1
I0
tp68
a(I0
I8
tp69
a(I5
I8
tp70
atp71
Rp72
sg13
((I3
I8
tp73
(I4
I8
tp74
(I4
I9
tp75
(I0
I3
tp76
tp77
sg14
I10
sbs(iproblems
RoomID
p78
(dp79
g10
I9
sg11
(I7
I6
tp80
sg13
I5
sg14
I9
sg15
I9
sg16
I8963783824838420066
sb(imulti_robot_problem
MultiRobotState
p81
(dp82
g19
g20
((lp83
(I2
I7
tp84
a(I5
I5
tp85
a(I6
I6
tp86
ag80
a(I4
I4
tp87
a(I7
I1
tp88
a(I7
I5
tp89
a(I2
I2
tp90
a(I6
I5
tp91
atp92
Rp93
sg15
I9
sg29
g20
((lp94
(I3
I0
tp95
a(I2
I1
tp96
a(I6
I3
tp97
a(I0
I7
tp98
a(I3
I7
tp99
a(I8
I6
tp100
a(I0
I8
tp101
a(I8
I5
tp102
a(I7
I2
tp103
atp104
Rp105
sg13
((I7
I7
tp106
(I2
I4
tp107
(I3
I2
tp108
(I4
I7
tp109
(I5
I0
tp110
tp111
sg14
I9
sbs(iproblems
RoomID
p112
(dp113
g10
I5
sg11
(I4
I5
tp114
sg13
I1
sg14
I9
sg15
I8
sg16
I6604845167042249220
sb(imulti_robot_problem
MultiRobotState
p115
(dp116
g19
g20
((lp117
(I7
I4
tp118
ag114
a(I5
I4
tp119
a(I6
I1
tp120
a(I6
I5
tp121
atp122
Rp123
sg15
I8
sg29
g20
((lp124
(I2
I8
tp125
a(I1
I0
tp126
a(I1
I1
tp127
a(I4
I3
tp128
a(I4
I8
tp129
atp130
Rp131
sg13
((I3
I6
tp132
tp133
sg14
I9
sbssS'name'
p134
S'easy_roomset'
p135
sbsg134
S'LimitedTimeAStar_with_PowerHeuristic2'
p136
sS'solutions'
p137
(dp138
g8
((lp139
F0.53000000000000003
tp140
sg46
((lp141
F0.42000000000000004
tp142
sg78
((lp143
F1.9500000000000002
tp144
sg112
((lp145
F0.059999999999999609
tp146
ssba(imeasure_core
ProblemSetSolution
p147
(dp148
g3
(imeasure_core
RoomSet
p149
(dp150
g6
(dp151
(iproblems
RoomID
p152
(dp153
g10
I6
sg11
(I5
I8
tp154
sg13
I3
sg14
I9
sg15
I11
sg16
I4029557120079369747
sb(imulti_robot_problem
MultiRobotState
p155
(dp156
g19
g20
((lp157
(I7
I3
tp158
a(I1
I3
tp159
a(I4
I8
tp160
a(I10
I6
tp161
a(I7
I1
tp162
a(I1
I4
tp163
a(I3
I7
tp164
a(I5
I1
tp165
a(I2
I5
tp166
a(I8
I5
tp167
ag154
a(I10
I5
tp168
a(I4
I6
tp169
a(I10
I7
tp170
a(I9
I6
tp171
a(I6
I1
tp172
a(I4
I4
tp173
a(I6
I3
tp174
a(I3
I6
tp175
a(I1
I7
tp176
a(I9
I5
tp177
a(I2
I4
tp178
a(I8
I4
tp179
atp180
Rp181
sg15
I11
sg29
g20
((lp182
(I3
I8
tp183
a(I8
I8
tp184
a(I7
I2
tp185
a(I5
I2
tp186
a(I1
I1
tp187
a(I2
I1
tp188
atp189
Rp190
sg13
((I8
I0
tp191
(I3
I1
tp192
(I4
I0
tp193
tp194
sg14
I9
sbs(iproblems
RoomID
p195
(dp196
g10
I10
sg11
(I4
I4
tp197
sg13
I4
sg14
I12
sg15
I12
sg16
I2569146471088859254
sb(imulti_robot_problem
MultiRobotState
p198
(dp199
g19
g20
((lp200
(I5
I4
tp201
a(I4
I8
tp202
a(I4
I5
tp203
a(I11
I2
tp204
a(I4
I7
tp205
a(I1
I9
tp206
a(I10
I3
tp207
a(I5
I8
tp208
a(I5
I5
tp209
a(I3
I3
tp210
ag197
a(I2
I11
tp211
a(I5
I6
tp212
a(I7
I2
tp213
a(I4
I3
tp214
a(I2
I2
tp215
a(I10
I0
tp216
a(I5
I11
tp217
a(I1
I1
tp218
atp219
Rp220
sg15
I12
sg29
g20
((lp221
(I2
I7
tp222
a(I10
I10
tp223
a(I3
I0
tp224
a(I3
I11
tp225
a(I0
I2
tp226
a(I1
I5
tp227
a(I9
I4
tp228
a(I0
I8
tp229
a(I2
I4
tp230
a(I11
I6
tp231
atp232
Rp233
sg13
((I9
I11
tp234
(I7
I10
tp235
(I6
I0
tp236
(I10
I1
tp237
tp238
sg14
I12
sbs(iproblems
RoomID
p239
(dp240
g10
I6
sg11
(I2
I4
tp241
sg13
I3
sg14
I10
sg15
I10
sg16
I1821862095355237593
sb(imulti_robot_problem
MultiRobotState
p242
(dp243
g19
g20
((lp244
(I6
I4
tp245
a(I4
I7
tp246
a(I2
I6
tp247
a(I5
I6
tp248
a(I6
I0
tp249
a(I1
I9
tp250
a(I8
I5
tp251
a(I7
I2
tp252
a(I7
I9
tp253
a(I5
I3
tp254
a(I6
I7
tp255
a(I3
I3
tp256
a(I5
I5
tp257
a(I4
I4
tp258
a(I6
I3
tp259
a(I4
I5
tp260
a(I6
I5
tp261
a(I4
I3
tp262
a(I0
I4
tp263
a(I8
I6
tp264
a(I3
I5
tp265
a(I3
I4
tp266
ag241
atp267
Rp268
sg15
I10
sg29
g20
((lp269
(I0
I6
tp270
a(I7
I0
tp271
a(I5
I1
tp272
a(I2
I3
tp273
a(I2
I8
tp274
a(I9
I6
tp275
atp276
Rp277
sg13
((I2
I2
tp278
(I4
I2
tp279
(I0
I7
tp280
tp281
sg14
I10
sbs(iproblems
RoomID
p282
(dp283
g10
I7
sg11
(I5
I4
tp284
sg13
I3
sg14
I11
sg15
I12
sg16
I2577854692418029171
sb(imulti_robot_problem
MultiRobotState
p285
(dp286
g19
g20
((lp287
(I4
I7
tp288
a(I3
I0
tp289
a(I8
I0
tp290
a(I2
I1
tp291
a(I6
I2
tp292
a(I1
I6
tp293
a(I5
I1
tp294
a(I4
I0
tp295
a(I1
I2
tp296
a(I4
I9
tp297
a(I3
I3
tp298
a(I8
I1
tp299
a(I3
I10
tp300
a(I6
I3
tp301
a(I3
I6
tp302
a(I1
I10
tp303
a(I8
I6
tp304
a(I3
I5
tp305
ag284
a(I2
I6
tp306
a(I7
I1
tp307
a(I6
I0
tp308
a(I1
I9
tp309
a(I4
I2
tp310
a(I0
I8
tp311
a(I5
I3
tp312
a(I0
I1
tp313
a(I7
I0
tp314
a(I5
I2
tp315
a(I6
I1
tp316
a(I3
I1
tp317
a(I3
I8
tp318
a(I3
I4
tp319
a(I2
I4
tp320
atp321
Rp322
sg15
I12
sg29
g20
((lp323
(I4
I10
tp324
a(I10
I5
tp325
a(I10
I1
tp326
a(I2
I8
tp327
a(I7
I6
tp328
a(I4
I4
tp329
a(I9
I7
tp330
atp331
Rp332
sg13
((I10
I6
tp333
(I1
I4
tp334
(I11
I8
tp335
tp336
sg14
I11
sbssg134
S'mild_roomset'
p337
sbsg134
g136
sg137
(dp338
g152
((lp339
F0.10000000000000009
tp340
sg195
((lp341
F3.5
tp342
sg239
((lp343
F0.12000000000000011
tp344
sg282
((lp345
F0.42999999999999972
tp346
ssba(imeasure_core
ProblemSetSolution
p347
(dp348
g3
(imeasure_core
RoomSet
p349
(dp350
g6
(dp351
(iproblems
RoomID
p352
(dp353
g10
I13
sg11
(I5
I3
tp354
sg13
I6
sg14
I13
sg15
I10
sg16
I7106521602475165645
sb(imulti_robot_problem
MultiRobotState
p355
(dp356
g19
g20
((lp357
(I5
I6
tp358
a(I5
I11
tp359
a(I7
I12
tp360
a(I0
I12
tp361
a(I2
I3
tp362
a(I6
I12
tp363
a(I7
I2
tp364
ag354
a(I1
I2
tp365
a(I4
I5
tp366
a(I8
I12
tp367
a(I7
I1
tp368
a(I2
I11
tp369
a(I6
I3
tp370
a(I6
I11
tp371
a(I0
I4
tp372
a(I0
I9
tp373
a(I0
I5
tp374
a(I3
I4
tp375
atp376
Rp377
sg15
I10
sg29
g20
((lp378
(I0
I1
tp379
a(I8
I3
tp380
a(I4
I6
tp381
a(I7
I11
tp382
a(I6
I9
tp383
a(I0
I11
tp384
a(I3
I9
tp385
a(I2
I12
tp386
a(I8
I6
tp387
a(I5
I1
tp388
a(I3
I7
tp389
a(I0
I3
tp390
a(I3
I5
tp391
atp392
Rp393
sg13
((I0
I10
tp394
(I6
I7
tp395
(I4
I11
tp396
(I1
I11
tp397
(I9
I0
tp398
(I3
I1
tp399
tp400
sg14
I13
sbs(iproblems
RoomID
p401
(dp402
g10
I15
sg11
(I9
I4
tp403
sg13
I6
sg14
I13
sg15
I11
sg16
I746805015404516437
sb(imulti_robot_problem
MultiRobotState
p404
(dp405
g19
g20
((lp406
(I8
I0
tp407
a(I4
I8
tp408
a(I4
I5
tp409
a(I10
I6
tp410
a(I6
I0
tp411
a(I3
I5
tp412
a(I3
I9
tp413
ag403
a(I4
I2
tp414
a(I7
I2
tp415
a(I7
I9
tp416
a(I10
I5
tp417
a(I5
I5
tp418
a(I4
I4
tp419
a(I1
I8
tp420
a(I8
I6
tp421
a(I5
I3
tp422
a(I5
I2
tp423
a(I2
I4
tp424
a(I9
I7
tp425
atp426
Rp427
sg15
I11
sg29
g20
((lp428
(I3
I12
tp429
a(I9
I1
tp430
a(I7
I1
tp431
a(I8
I1
tp432
a(I6
I10
tp433
a(I8
I9
tp434
a(I2
I0
tp435
a(I2
I3
tp436
a(I0
I10
tp437
a(I2
I2
tp438
a(I7
I11
tp439
a(I2
I5
tp440
a(I8
I5
tp441
a(I5
I8
tp442
a(I4
I11
tp443
atp444
Rp445
sg13
((I4
I10
tp446
(I6
I11
tp447
(I5
I12
tp448
(I0
I5
tp449
(I1
I0
tp450
(I7
I10
tp451
tp452
sg14
I13
sbs(iproblems
RoomID
p453
(dp454
g10
I10
sg11
(I6
I7
tp455
sg13
I5
sg14
I12
sg15
I11
sg16
I6604845167042249220
sb(imulti_robot_problem
MultiRobotState
p456
(dp457
g19
g20
((lp458
(I9
I0
tp459
ag455
a(I7
I1
tp460
a(I2
I8
tp461
a(I10
I6
tp462
a(I7
I7
tp463
a(I8
I8
tp464
a(I9
I4
tp465
a(I8
I6
tp466
a(I7
I11
tp467
a(I9
I7
tp468
atp469
Rp470
sg15
I11
sg29
g20
((lp471
(I10
I5
tp472
a(I3
I3
tp473
a(I5
I11
tp474
a(I8
I1
tp475
a(I9
I8
tp476
a(I6
I9
tp477
a(I0
I7
tp478
a(I0
I10
tp479
a(I4
I1
tp480
a(I8
I4
tp481
atp482
Rp483
sg13
((I4
I8
tp484
(I1
I0
tp485
(I2
I2
tp486
(I3
I11
tp487
(I6
I5
tp488
tp489
sg14
I12
sbs(iproblems
RoomID
p490
(dp491
g10
I11
sg11
(I9
I6
tp492
sg13
I6
sg14
I10
sg15
I12
sg16
I4029557120079369747
sb(imulti_robot_problem
MultiRobotState
p493
(dp494
g19
g20
((lp495
(I11
I7
tp496
a(I10
I6
tp497
a(I5
I5
tp498
a(I7
I1
tp499
a(I10
I7
tp500
a(I9
I8
tp501
a(I4
I4
tp502
a(I1
I6
tp503
a(I3
I6
tp504
a(I1
I7
tp505
ag492
a(I11
I6
tp506
atp507
Rp508
sg15
I12
sg29
g20
((lp509
(I1
I2
tp510
a(I1
I3
tp511
a(I4
I9
tp512
a(I8
I2
tp513
a(I8
I1
tp514
a(I6
I1
tp515
a(I2
I1
tp516
a(I7
I4
tp517
a(I1
I8
tp518
a(I5
I2
tp519
a(I1
I1
tp520
atp521
Rp522
sg13
((I8
I0
tp523
(I4
I1
tp524
(I4
I0
tp525
(I3
I9
tp526
(I8
I9
tp527
(I3
I8
tp528
tp529
sg14
I10
sbssg134
S'heavy_roomset'
p530
sbsg134
g136
sg137
(dp531
g352
((lp532
F292.54000000000002
tp533
sg401
((lp534
F27.599999999999966
tp535
sg453
((lp536
F8.8400000000000318
tp537
sg490
((lp538
F6.839999999999975
tp539
ssba(imeasure_core
ProblemSetSolution
p540
(dp541
g3
(imeasure_core
RoomSet
p542
(dp543
g6
(dp544
S'complexRoom'
p545
(imulti_robot_problem
MultiRobotState
p546
(dp547
g19
g20
((lp548
(I2
I7
tp549
a(I7
I3
tp550
a(I6
I3
tp551
a(I3
I3
tp552
a(I7
I6
tp553
a(I7
I4
tp554
a(I7
I5
tp555
a(I2
I3
tp556
a(I4
I3
tp557
a(I2
I5
tp558
a(I2
I4
tp559
a(I5
I3
tp560
atp561
Rp562
sg15
I11
sg29
g20
((lp563
(I1
I0
tp564
a(I9
I0
tp565
atp566
Rp567
sg13
((I6
I4
tp568
(I1
I6
tp569
tp570
sg14
I8
sbsS'exampleProblem'
p571
(imulti_robot_problem
MultiRobotState
p572
(dp573
g19
g20
((lp574
tp575
Rp576
sg15
I5
sg29
g20
((lp577
(I1
I3
tp578
a(I3
I1
tp579
a(I1
I1
tp580
a(I3
I3
tp581
atp582
Rp583
sg13
((I2
I2
tp584
tp585
sg14
I5
sbsS'linear_test'
p586
(imulti_robot_problem
MultiRobotState
p587
(dp588
g19
g576
sg15
I12
sg29
g20
((lp589
(I11
I0
tp590
a(I1
I0
tp591
a(I9
I0
tp592
atp593
Rp594
sg13
((I3
I0
tp595
(I1
I2
tp596
tp597
sg14
I7
sbsS'obstacle_Far_CloseTest'
p598
(imulti_robot_problem
MultiRobotState
p599
(dp600
g19
g20
((lp601
(I0
I1
tp602
a(I7
I3
tp603
a(I3
I1
tp604
a(I7
I1
tp605
a(I4
I5
tp606
a(I7
I6
tp607
a(I4
I4
tp608
a(I2
I1
tp609
a(I7
I4
tp610
a(I7
I5
tp611
a(I4
I3
tp612
a(I4
I2
tp613
a(I4
I1
tp614
a(I1
I1
tp615
a(I7
I2
tp616
atp617
Rp618
sg15
I12
sg29
g20
((lp619
(I3
I2
tp620
a(I9
I6
tp621
atp622
Rp623
sg13
((I0
I0
tp624
(I6
I6
tp625
tp626
sg14
I7
sbsS'zigzag'
p627
(imulti_robot_problem
MultiRobotState
p628
(dp629
g19
g20
((lp630
(I1
I2
tp631
a(I3
I2
tp632
a(I1
I3
tp633
a(I3
I0
tp634
a(I3
I1
tp635
a(I5
I1
tp636
a(I5
I2
tp637
a(I1
I1
tp638
a(I5
I3
tp639
atp640
Rp641
sg15
I20
sg29
g20
((lp642
(I6
I3
tp643
atp644
Rp645
sg13
((I0
I3
tp646
(I19
I3
tp647
tp648
sg14
I4
sbsS'room1'
p649
(imulti_robot_problem
MultiRobotState
p650
(dp651
g19
g20
((lp652
(I6
I3
tp653
a(I7
I3
tp654
a(I8
I3
tp655
a(I2
I3
tp656
a(I3
I3
tp657
a(I4
I3
tp658
a(I5
I3
tp659
atp660
Rp661
sg15
I9
sg29
g20
((lp662
(I0
I0
tp663
a(I2
I1
tp664
atp665
Rp666
sg13
((I6
I1
tp667
(I6
I5
tp668
tp669
sg14
I6
sbsS'complexRoom2'
p670
(imulti_robot_problem
MultiRobotState
p671
(dp672
g19
g20
((lp673
(I7
I3
tp674
a(I1
I3
tp675
a(I7
I1
tp676
a(I4
I5
tp677
a(I9
I3
tp678
a(I5
I5
tp679
a(I2
I6
tp680
a(I2
I3
tp681
a(I5
I1
tp682
a(I0
I3
tp683
a(I10
I3
tp684
a(I2
I5
tp685
a(I6
I5
tp686
a(I5
I3
tp687
a(I2
I7
tp688
a(I8
I3
tp689
a(I3
I3
tp690
a(I5
I2
tp691
a(I7
I6
tp692
a(I3
I1
tp693
a(I6
I3
tp694
a(I7
I5
tp695
a(I4
I3
tp696
a(I3
I5
tp697
a(I4
I1
tp698
a(I6
I1
tp699
atp700
Rp701
sg15
I11
sg29
g20
((lp702
(I7
I2
tp703
a(I0
I7
tp704
atp705
Rp706
sg13
((I1
I2
tp707
(I3
I6
tp708
tp709
sg14
I8
sbsS'zigzagUpright'
p710
(imulti_robot_problem
MultiRobotState
p711
(dp712
g19
g20
((lp713
(I1
I3
tp714
a(I3
I1
tp715
a(I2
I1
tp716
a(I1
I1
tp717
a(I1
I5
tp718
a(I2
I3
tp719
a(I2
I5
tp720
a(I0
I3
tp721
a(I3
I5
tp722
atp723
Rp724
sg15
I4
sg29
g20
((lp725
(I3
I6
tp726
atp727
Rp728
sg13
((I3
I0
tp729
(I3
I19
tp730
tp731
sg14
I20
sbsS'ivansRevenge'
p732
(imulti_robot_problem
MultiRobotState
p733
(dp734
g19
g576
sg15
I10
sg29
g20
((lp735
(I9
I2
tp736
a(I0
I0
tp737
atp738
Rp739
sg13
((I9
I0
tp740
(I0
I2
tp741
tp742
sg14
I3
sbsS'roomLongWithObstaccle'
p743
(imulti_robot_problem
MultiRobotState
p744
(dp745
g19
g20
((lp746
(I0
I1
tp747
a(I12
I1
tp748
a(I9
I1
tp749
a(I7
I1
tp750
a(I8
I1
tp751
a(I6
I1
tp752
a(I3
I1
tp753
a(I2
I1
tp754
a(I11
I1
tp755
a(I10
I1
tp756
a(I5
I1
tp757
a(I4
I1
tp758
a(I1
I1
tp759
atp760
Rp761
sg15
I15
sg29
g20
((lp762
(I0
I2
tp763
a(I14
I6
tp764
atp765
Rp766
sg13
((I0
I0
tp767
(I0
I6
tp768
tp769
sg14
I7
sbsS'twoRobotsInOpCorners'
p770
(imulti_robot_problem
MultiRobotState
p771
(dp772
g19
g576
sg15
I5
sg29
g20
((lp773
(I0
I0
tp774
a(I4
I4
tp775
atp776
Rp777
sg13
((I3
I0
tp778
(I0
I3
tp779
tp780
sg14
I5
sbsS'split2'
p781
(imulti_robot_problem
MultiRobotState
p782
(dp783
g19
g576
sg15
I10
sg29
g20
((lp784
(I0
I9
tp785
a(I9
I0
tp786
a(I0
I0
tp787
a(I9
I9
tp788
atp789
Rp790
sg13
((I1
I1
tp791
(I8
I1
tp792
(I4
I5
tp793
(I5
I5
tp794
tp795
sg14
I10
sbsS'split3'
p796
(imulti_robot_problem
MultiRobotState
p797
(dp798
g19
g576
sg15
I10
sg29
g20
((lp799
(I0
I9
tp800
a(I9
I0
tp801
a(I0
I0
tp802
a(I9
I9
tp803
atp804
Rp805
sg13
((I1
I1
tp806
(I8
I1
tp807
(I1
I7
tp808
(I7
I7
tp809
tp810
sg14
I10
sbsS'gaintRoom'
p811
(imulti_robot_problem
MultiRobotState
p812
(dp813
g19
g576
sg15
I5
sg29
g20
((lp814
(I4
I0
tp815
a(I4
I4
tp816
a(I0
I4
tp817
atp818
Rp819
sg13
((I0
I0
tp820
tp821
sg14
I5
sbsS'gaintRoomWithWall'
p822
(imulti_robot_problem
MultiRobotState
p823
(dp824
g19
g20
((lp825
(I2
I4
tp826
atp827
Rp828
sg15
I5
sg29
g20
((lp829
(I4
I0
tp830
a(I4
I4
tp831
a(I0
I4
tp832
atp833
Rp834
sg13
((I0
I0
tp835
tp836
sg14
I5
sbsS'split'
p837
(imulti_robot_problem
MultiRobotState
p838
(dp839
g19
g576
sg15
I10
sg29
g20
((lp840
(I0
I9
tp841
a(I9
I0
tp842
a(I0
I0
tp843
a(I9
I9
tp844
atp845
Rp846
sg13
((I4
I4
tp847
(I5
I4
tp848
(I4
I5
tp849
(I5
I5
tp850
tp851
sg14
I10
sbsS'twoRobots'
p852
(imulti_robot_problem
MultiRobotState
p853
(dp854
g19
g576
sg15
I9
sg29
g20
((lp855
(I8
I0
tp856
a(I0
I0
tp857
atp858
Rp859
sg13
((I2
I0
tp860
(I0
I3
tp861
tp862
sg14
I4
sbssg134
S'static_rooms'
p863
sbsg134
g136
sg137
(dp864
g781
((lp865
F0.25999999999999091
tp866
sg796
((lp867
F0.12000000000000455
tp868
sg545
((lp869
F0.040000000000020464
tp870
sg811
((lp871
F0.029999999999972715
tp872
sg571
((lp873
F0.0
tp874
sg586
((lp875
F0.01999999999998181
tp876
sg598
((lp877
F21.350000000000023
tp878
sg852
((lp879
F0.0
tp880
sg822
((lp881
F0.020000000000038654
tp882
sg627
((lp883
F1.4899999999999523
tp884
sg649
((lp885
F0.020000000000038654
tp886
sg670
((lp887
F6.8299999999999841
tp888
sg710
((lp889
F2.8000000000000114
tp890
sg732
((lp891
F0.0
tp892
sg743
((lp893
F11.310000000000002
tp894
sg770
((lp895
F0.0099999999999909051
tp896
sg837
((lp897
F0.26999999999998181
tp898
ssba.