(lp0
(imeasure_core
ProblemSetSolution
p1
(dp2
S'roomset'
p3
(imeasure_core
RoomSet
p4
(dp5
S'rooms'
p6
(dp7
(iproblems
RoomID
p8
(dp9
S'dusts'
p10
I8
sS'obstacles'
p11
(I5
I7
tp12
sS'robots'
p13
I5
sS'height'
p14
I9
sS'width'
p15
I10
sS'seed'
p16
I5594871498841892311
sb(imulti_robot_problem
MultiRobotState
p17
(dp18
S'obstacle_locations'
p19
c__builtin__
frozenset
p20
((lp21
(I4
I7
tp22
a(I3
I6
tp23
a(I5
I1
tp24
a(I1
I0
tp25
ag12
a(I8
I3
tp26
a(I5
I8
tp27
atp28
Rp29
sg15
I10
sS'dirt_locations'
p30
g20
((lp31
(I0
I1
tp32
a(I9
I0
tp33
a(I8
I2
tp34
a(I6
I0
tp35
a(I1
I1
tp36
a(I1
I5
tp37
a(I9
I4
tp38
a(I2
I4
tp39
atp40
Rp41
sg13
((I7
I6
tp42
(I8
I4
tp43
(I5
I4
tp44
(I7
I2
tp45
(I7
I8
tp46
tp47
sg14
I9
sbs(iproblems
RoomID
p48
(dp49
g10
I6
sg11
(I4
I4
tp50
sg13
I5
sg14
I7
sg15
I8
sg16
I8833747186876682921
sb(imulti_robot_problem
MultiRobotState
p51
(dp52
g19
g20
((lp53
(I2
I2
tp54
ag50
a(I3
I4
tp55
a(I3
I3
tp56
a(I3
I5
tp57
atp58
Rp59
sg15
I8
sg30
g20
((lp60
(I6
I4
tp61
a(I5
I4
tp62
a(I1
I3
tp63
a(I5
I1
tp64
a(I0
I3
tp65
a(I5
I3
tp66
atp67
Rp68
sg13
((I2
I1
tp69
(I6
I1
tp70
(I3
I1
tp71
(I5
I0
tp72
(I7
I3
tp73
tp74
sg14
I7
sbs(iproblems
RoomID
p75
(dp76
g10
I7
sg11
(I5
I2
tp77
sg13
I5
sg14
I8
sg15
I9
sg16
I365562409358139953
sb(imulti_robot_problem
MultiRobotState
p78
(dp79
g19
g20
((lp80
(I6
I4
tp81
a(I5
I5
tp82
a(I2
I1
tp83
a(I3
I7
tp84
a(I2
I5
tp85
ag77
a(I0
I2
tp86
a(I5
I3
tp87
atp88
Rp89
sg15
I9
sg30
g20
((lp90
(I2
I0
tp91
a(I1
I6
tp92
a(I8
I2
tp93
a(I4
I5
tp94
a(I8
I6
tp95
a(I5
I7
tp96
a(I3
I4
tp97
atp98
Rp99
sg13
((I4
I2
tp100
(I8
I3
tp101
(I6
I3
tp102
(I2
I4
tp103
(I6
I7
tp104
tp105
sg14
I8
sbs(iproblems
RoomID
p106
(dp107
g10
I5
sg11
(I6
I4
tp108
sg13
I2
sg14
I8
sg15
I10
sg16
I1662056218554549082
sb(imulti_robot_problem
MultiRobotState
p109
(dp110
g19
g20
((lp111
g108
a(I4
I6
tp112
a(I3
I6
tp113
a(I4
I4
tp114
a(I9
I6
tp115
a(I5
I5
tp116
atp117
Rp118
sg15
I10
sg30
g20
((lp119
(I4
I5
tp120
a(I8
I3
tp121
a(I8
I4
tp122
a(I7
I7
tp123
a(I3
I3
tp124
atp125
Rp126
sg13
((I9
I3
tp127
(I2
I0
tp128
tp129
sg14
I8
sbssS'name'
p130
S'easy_roomset'
p131
sbsg130
S"AnytimeBeam-w4-gf(2, 'lin')_with_PowerHeuristic2"
p132
sS'solutions'
p133
(dp134
g8
((lp135
(F1.5309038162231445
I9
tp136
aF40.060000000004948
tp137
sg48
((lp138
(F0.78670096397399902
I5
tp139
aF40.110000000000582
tp140
sg75
((lp141
F40.129999999997381
tp142
sg106
((lp143
F39.989999999997963
tp144
ssba(imeasure_core
ProblemSetSolution
p145
(dp146
g3
(imeasure_core
RoomSet
p147
(dp148
g6
(dp149
(iproblems
RoomID
p150
(dp151
g10
I8
sg11
(I9
I3
tp152
sg13
I4
sg14
I11
sg15
I12
sg16
I5594871498841892311
sb(imulti_robot_problem
MultiRobotState
p153
(dp154
g19
g20
((lp155
(I5
I9
tp156
a(I6
I9
tp157
a(I11
I9
tp158
a(I9
I1
tp159
a(I4
I8
tp160
a(I8
I0
tp161
a(I6
I0
tp162
a(I9
I9
tp163
ag152
a(I9
I4
tp164
a(I4
I2
tp165
a(I3
I7
tp166
a(I5
I8
tp167
a(I7
I9
tp168
a(I10
I8
tp169
a(I9
I0
tp170
a(I7
I0
tp171
a(I6
I8
tp172
a(I9
I2
tp173
a(I5
I7
tp174
a(I8
I10
tp175
a(I2
I0
tp176
a(I5
I0
tp177
a(I0
I9
tp178
a(I10
I0
tp179
a(I10
I2
tp180
atp181
Rp182
sg15
I12
sg30
g20
((lp183
(I2
I6
tp184
a(I11
I5
tp185
a(I6
I1
tp186
a(I11
I1
tp187
a(I2
I1
tp188
a(I8
I8
tp189
a(I0
I2
tp190
a(I3
I5
tp191
atp192
Rp193
sg13
((I9
I7
tp194
(I10
I5
tp195
(I6
I5
tp196
(I8
I3
tp197
tp198
sg14
I11
sbs(iproblems
RoomID
p199
(dp200
g10
I6
sg11
(I9
I4
tp201
sg13
I4
sg14
I9
sg15
I10
sg16
I8833747186876682921
sb(imulti_robot_problem
MultiRobotState
p202
(dp203
g19
g20
((lp204
(I4
I7
tp205
a(I4
I8
tp206
a(I4
I5
tp207
a(I2
I1
tp208
a(I7
I5
tp209
a(I2
I3
tp210
ag201
a(I2
I5
tp211
a(I6
I5
tp212
a(I3
I5
tp213
a(I2
I7
tp214
a(I8
I3
tp215
a(I5
I5
tp216
a(I3
I4
tp217
a(I7
I4
tp218
a(I5
I6
tp219
a(I8
I8
tp220
a(I3
I6
tp221
a(I4
I1
tp222
a(I1
I1
tp223
atp224
Rp225
sg15
I10
sg30
g20
((lp226
(I3
I2
tp227
a(I6
I2
tp228
a(I7
I0
tp229
a(I1
I4
tp230
a(I0
I4
tp231
a(I0
I7
tp232
atp233
Rp234
sg13
((I3
I1
tp235
(I8
I1
tp236
(I3
I3
tp237
(I4
I2
tp238
tp239
sg14
I9
sbs(iproblems
RoomID
p240
(dp241
g10
I7
sg11
(I8
I4
tp242
sg13
I4
sg14
I10
sg15
I11
sg16
I365562409358139953
sb(imulti_robot_problem
MultiRobotState
p243
(dp244
g19
g20
((lp245
(I7
I3
tp246
a(I8
I7
tp247
a(I4
I8
tp248
a(I2
I8
tp249
a(I5
I9
tp250
a(I6
I2
tp251
a(I1
I6
tp252
a(I9
I4
tp253
a(I6
I4
tp254
a(I9
I6
tp255
a(I6
I5
tp256
a(I10
I8
tp257
a(I10
I5
tp258
a(I6
I7
tp259
a(I10
I7
tp260
a(I7
I6
tp261
a(I3
I1
tp262
a(I0
I5
tp263
a(I3
I8
tp264
a(I7
I5
tp265
a(I8
I6
tp266
ag242
a(I5
I2
tp267
a(I6
I1
tp268
a(I9
I7
tp269
atp270
Rp271
sg15
I11
sg30
g20
((lp272
(I5
I6
tp273
a(I6
I9
tp274
a(I1
I7
tp275
a(I4
I5
tp276
a(I10
I3
tp277
a(I0
I2
tp278
a(I2
I1
tp279
atp280
Rp281
sg13
((I10
I4
tp282
(I7
I4
tp283
(I3
I6
tp284
(I8
I9
tp285
tp286
sg14
I10
sbs(iproblems
RoomID
p287
(dp288
g10
I10
sg11
(I4
I8
tp289
sg13
I3
sg14
I11
sg15
I9
sg16
I6645345695289302126
sb(imulti_robot_problem
MultiRobotState
p290
(dp291
g19
g20
((lp292
(I5
I9
tp293
a(I3
I2
tp294
a(I3
I1
tp295
ag289
a(I4
I5
tp296
a(I1
I4
tp297
a(I4
I2
tp298
a(I3
I7
tp299
a(I4
I6
tp300
a(I3
I3
tp301
a(I4
I1
tp302
a(I6
I1
tp303
a(I4
I4
tp304
a(I2
I4
tp305
a(I3
I8
tp306
a(I1
I5
tp307
a(I4
I3
tp308
a(I3
I5
tp309
a(I3
I4
tp310
a(I1
I1
tp311
a(I8
I4
tp312
atp313
Rp314
sg15
I9
sg30
g20
((lp315
(I0
I1
tp316
a(I5
I4
tp317
a(I6
I7
tp318
a(I8
I2
tp319
a(I8
I7
tp320
a(I8
I8
tp321
a(I2
I3
tp322
a(I3
I6
tp323
a(I1
I0
tp324
a(I5
I5
tp325
atp326
Rp327
sg13
((I1
I6
tp328
(I0
I9
tp329
(I0
I5
tp330
tp331
sg14
I11
sbssg130
S'mild_roomset'
p332
sbsg130
g132
sg133
(dp333
g150
((lp334
F40.010000000002037
tp335
sg199
((lp336
F40.0
tp337
sg240
((lp338
F40.0
tp339
sg287
((lp340
F40.0
tp341
ssba(imeasure_core
ProblemSetSolution
p342
(dp343
g3
(imeasure_core
RoomSet
p344
(dp345
g6
(dp346
(iproblems
RoomID
p347
(dp348
g10
I13
sg11
(I9
I8
tp349
sg13
I7
sg14
I12
sg15
I13
sg16
I5594871498841892311
sb(imulti_robot_problem
MultiRobotState
p350
(dp351
g19
g20
((lp352
(I5
I9
tp353
a(I6
I9
tp354
a(I1
I3
tp355
a(I10
I4
tp356
a(I4
I8
tp357
ag349
a(I1
I4
tp358
a(I11
I3
tp359
a(I8
I6
tp360
a(I9
I6
tp361
a(I5
I5
tp362
a(I9
I5
tp363
a(I6
I7
tp364
a(I6
I8
tp365
a(I6
I10
tp366
a(I8
I10
tp367
a(I5
I0
tp368
a(I10
I0
tp369
a(I7
I9
tp370
a(I9
I7
tp371
atp372
Rp373
sg15
I13
sg30
g20
((lp374
(I2
I7
tp375
a(I10
I5
tp376
a(I11
I5
tp377
a(I6
I1
tp378
a(I8
I0
tp379
a(I2
I1
tp380
a(I2
I0
tp381
a(I0
I10
tp382
a(I7
I10
tp383
a(I12
I10
tp384
a(I5
I2
tp385
a(I0
I2
tp386
a(I3
I5
tp387
atp388
Rp389
sg13
((I10
I8
tp390
(I11
I6
tp391
(I7
I5
tp392
(I9
I3
tp393
(I9
I11
tp394
(I12
I1
tp395
(I9
I9
tp396
tp397
sg14
I12
sbs(iproblems
RoomID
p398
(dp399
g10
I11
sg11
(I8
I7
tp400
sg13
I7
sg14
I10
sg15
I11
sg16
I8833747186876682921
sb(imulti_robot_problem
MultiRobotState
p401
(dp402
g19
g20
((lp403
(I5
I7
tp404
a(I4
I8
tp405
a(I4
I5
tp406
a(I2
I1
tp407
ag400
a(I5
I1
tp408
a(I5
I5
tp409
a(I6
I7
tp410
a(I4
I6
tp411
a(I8
I1
tp412
a(I4
I4
tp413
a(I6
I3
tp414
a(I8
I8
tp415
a(I3
I3
tp416
a(I7
I8
tp417
a(I10
I2
tp418
atp419
Rp420
sg15
I11
sg30
g20
((lp421
(I10
I5
tp422
a(I7
I6
tp423
a(I4
I7
tp424
a(I1
I4
tp425
a(I9
I9
tp426
a(I3
I8
tp427
a(I0
I5
tp428
a(I8
I6
tp429
a(I2
I5
tp430
a(I0
I8
tp431
a(I7
I2
tp432
atp433
Rp434
sg13
((I3
I1
tp435
(I9
I1
tp436
(I5
I2
tp437
(I4
I3
tp438
(I8
I0
tp439
(I10
I4
tp440
(I8
I5
tp441
tp442
sg14
I10
sbs(iproblems
RoomID
p443
(dp444
g10
I12
sg11
(I0
I5
tp445
sg13
I7
sg14
I11
sg15
I12
sg16
I365562409358139953
sb(imulti_robot_problem
MultiRobotState
p446
(dp447
g19
g20
((lp448
(I1
I3
tp449
a(I6
I6
tp450
a(I0
I4
tp451
a(I7
I5
tp452
ag445
a(I8
I7
tp453
a(I4
I2
tp454
a(I2
I9
tp455
a(I10
I7
tp456
a(I7
I8
tp457
a(I7
I6
tp458
a(I3
I1
tp459
a(I4
I8
tp460
a(I3
I9
tp461
a(I2
I2
tp462
a(I8
I6
tp463
a(I5
I2
tp464
a(I11
I6
tp465
a(I8
I4
tp466
atp467
Rp468
sg15
I12
sg30
g20
((lp469
(I3
I2
tp470
a(I11
I9
tp471
a(I4
I9
tp472
a(I10
I4
tp473
a(I5
I7
tp474
a(I2
I1
tp475
a(I0
I6
tp476
a(I1
I6
tp477
a(I7
I10
tp478
a(I3
I7
tp479
a(I5
I10
tp480
a(I0
I2
tp481
atp482
Rp483
sg13
((I6
I3
tp484
(I10
I5
tp485
(I3
I6
tp486
(I8
I10
tp487
(I4
I6
tp488
(I11
I3
tp489
(I1
I8
tp490
tp491
sg14
I11
sbs(iproblems
RoomID
p492
(dp493
g10
I13
sg11
(I3
I8
tp494
sg13
I5
sg14
I10
sg15
I10
sg16
I5338040351619750409
sb(imulti_robot_problem
MultiRobotState
p495
(dp496
g19
g20
((lp497
(I4
I7
tp498
a(I2
I6
tp499
a(I9
I1
tp500
a(I2
I8
tp501
a(I6
I1
tp502
a(I1
I4
tp503
ag494
a(I1
I6
tp504
a(I4
I3
tp505
a(I1
I7
tp506
a(I2
I5
tp507
a(I9
I7
tp508
a(I2
I4
tp509
a(I6
I8
tp510
atp511
Rp512
sg15
I10
sg30
g20
((lp513
(I6
I9
tp514
a(I1
I3
tp515
a(I4
I9
tp516
a(I4
I6
tp517
a(I6
I6
tp518
a(I8
I3
tp519
a(I2
I1
tp520
a(I8
I9
tp521
a(I1
I8
tp522
a(I7
I5
tp523
a(I3
I6
tp524
a(I9
I6
tp525
a(I4
I0
tp526
atp527
Rp528
sg13
((I2
I0
tp529
(I3
I5
tp530
(I5
I0
tp531
(I5
I2
tp532
(I4
I5
tp533
tp534
sg14
I10
sbssg130
S'heavy_roomset'
p535
sbsg130
g132
sg133
(dp536
g347
((lp537
F48.309999999997672
tp538
sg398
((lp539
F40.430000000000291
tp540
sg443
((lp541
F40.139999999999418
tp542
sg492
((lp543
F40.0
tp544
ssba(imeasure_core
ProblemSetSolution
p545
(dp546
g3
(imeasure_core
RoomSet
p547
(dp548
g6
(dp549
S'complexRoom'
p550
(imulti_robot_problem
MultiRobotState
p551
(dp552
g19
g20
((lp553
(I2
I7
tp554
a(I7
I3
tp555
a(I6
I3
tp556
a(I3
I3
tp557
a(I7
I6
tp558
a(I7
I4
tp559
a(I7
I5
tp560
a(I2
I3
tp561
a(I4
I3
tp562
a(I2
I5
tp563
a(I2
I4
tp564
a(I5
I3
tp565
atp566
Rp567
sg15
I11
sg30
g20
((lp568
(I1
I0
tp569
a(I9
I0
tp570
atp571
Rp572
sg13
((I6
I4
tp573
(I1
I6
tp574
tp575
sg14
I8
sbsS'exampleProblem'
p576
(imulti_robot_problem
MultiRobotState
p577
(dp578
g19
g20
((lp579
tp580
Rp581
sg15
I5
sg30
g20
((lp582
(I1
I3
tp583
a(I3
I1
tp584
a(I1
I1
tp585
a(I3
I3
tp586
atp587
Rp588
sg13
((I2
I2
tp589
tp590
sg14
I5
sbsS'linear_test'
p591
(imulti_robot_problem
MultiRobotState
p592
(dp593
g19
g581
sg15
I12
sg30
g20
((lp594
(I11
I0
tp595
a(I1
I0
tp596
a(I9
I0
tp597
atp598
Rp599
sg13
((I3
I0
tp600
(I1
I2
tp601
tp602
sg14
I7
sbsS'obstacle_Far_CloseTest'
p603
(imulti_robot_problem
MultiRobotState
p604
(dp605
g19
g20
((lp606
(I0
I1
tp607
a(I7
I3
tp608
a(I3
I1
tp609
a(I7
I1
tp610
a(I4
I5
tp611
a(I7
I6
tp612
a(I4
I4
tp613
a(I2
I1
tp614
a(I7
I4
tp615
a(I7
I5
tp616
a(I4
I3
tp617
a(I4
I2
tp618
a(I4
I1
tp619
a(I1
I1
tp620
a(I7
I2
tp621
atp622
Rp623
sg15
I12
sg30
g20
((lp624
(I3
I2
tp625
a(I9
I6
tp626
atp627
Rp628
sg13
((I0
I0
tp629
(I6
I6
tp630
tp631
sg14
I7
sbsS'zigzag'
p632
(imulti_robot_problem
MultiRobotState
p633
(dp634
g19
g20
((lp635
(I1
I2
tp636
a(I3
I2
tp637
a(I1
I3
tp638
a(I3
I0
tp639
a(I3
I1
tp640
a(I5
I1
tp641
a(I5
I2
tp642
a(I1
I1
tp643
a(I5
I3
tp644
atp645
Rp646
sg15
I20
sg30
g20
((lp647
(I6
I3
tp648
atp649
Rp650
sg13
((I0
I3
tp651
(I19
I3
tp652
tp653
sg14
I4
sbsS'room1'
p654
(imulti_robot_problem
MultiRobotState
p655
(dp656
g19
g20
((lp657
(I6
I3
tp658
a(I7
I3
tp659
a(I8
I3
tp660
a(I2
I3
tp661
a(I3
I3
tp662
a(I4
I3
tp663
a(I5
I3
tp664
atp665
Rp666
sg15
I9
sg30
g20
((lp667
(I0
I0
tp668
a(I2
I1
tp669
atp670
Rp671
sg13
((I6
I1
tp672
(I6
I5
tp673
tp674
sg14
I6
sbsS'complexRoom2'
p675
(imulti_robot_problem
MultiRobotState
p676
(dp677
g19
g20
((lp678
(I7
I3
tp679
a(I1
I3
tp680
a(I7
I1
tp681
a(I4
I5
tp682
a(I9
I3
tp683
a(I5
I5
tp684
a(I2
I6
tp685
a(I2
I3
tp686
a(I5
I1
tp687
a(I0
I3
tp688
a(I10
I3
tp689
a(I2
I5
tp690
a(I6
I5
tp691
a(I5
I3
tp692
a(I2
I7
tp693
a(I8
I3
tp694
a(I3
I3
tp695
a(I5
I2
tp696
a(I7
I6
tp697
a(I3
I1
tp698
a(I6
I3
tp699
a(I7
I5
tp700
a(I4
I3
tp701
a(I3
I5
tp702
a(I4
I1
tp703
a(I6
I1
tp704
atp705
Rp706
sg15
I11
sg30
g20
((lp707
(I7
I2
tp708
a(I0
I7
tp709
atp710
Rp711
sg13
((I1
I2
tp712
(I3
I6
tp713
tp714
sg14
I8
sbsS'zigzagUpright'
p715
(imulti_robot_problem
MultiRobotState
p716
(dp717
g19
g20
((lp718
(I1
I3
tp719
a(I3
I1
tp720
a(I2
I1
tp721
a(I1
I1
tp722
a(I1
I5
tp723
a(I2
I3
tp724
a(I2
I5
tp725
a(I0
I3
tp726
a(I3
I5
tp727
atp728
Rp729
sg15
I4
sg30
g20
((lp730
(I3
I6
tp731
atp732
Rp733
sg13
((I3
I0
tp734
(I3
I19
tp735
tp736
sg14
I20
sbsS'ivansRevenge'
p737
(imulti_robot_problem
MultiRobotState
p738
(dp739
g19
g581
sg15
I10
sg30
g20
((lp740
(I9
I2
tp741
a(I0
I0
tp742
atp743
Rp744
sg13
((I9
I0
tp745
(I0
I2
tp746
tp747
sg14
I3
sbsS'roomLongWithObstaccle'
p748
(imulti_robot_problem
MultiRobotState
p749
(dp750
g19
g20
((lp751
(I0
I1
tp752
a(I12
I1
tp753
a(I9
I1
tp754
a(I7
I1
tp755
a(I8
I1
tp756
a(I6
I1
tp757
a(I3
I1
tp758
a(I2
I1
tp759
a(I11
I1
tp760
a(I10
I1
tp761
a(I5
I1
tp762
a(I4
I1
tp763
a(I1
I1
tp764
atp765
Rp766
sg15
I15
sg30
g20
((lp767
(I0
I2
tp768
a(I14
I6
tp769
atp770
Rp771
sg13
((I0
I0
tp772
(I0
I6
tp773
tp774
sg14
I7
sbsS'twoRobotsInOpCorners'
p775
(imulti_robot_problem
MultiRobotState
p776
(dp777
g19
g581
sg15
I5
sg30
g20
((lp778
(I0
I0
tp779
a(I4
I4
tp780
atp781
Rp782
sg13
((I3
I0
tp783
(I0
I3
tp784
tp785
sg14
I5
sbsS'split2'
p786
(imulti_robot_problem
MultiRobotState
p787
(dp788
g19
g581
sg15
I10
sg30
g20
((lp789
(I0
I9
tp790
a(I9
I0
tp791
a(I0
I0
tp792
a(I9
I9
tp793
atp794
Rp795
sg13
((I1
I1
tp796
(I8
I1
tp797
(I4
I5
tp798
(I5
I5
tp799
tp800
sg14
I10
sbsS'split3'
p801
(imulti_robot_problem
MultiRobotState
p802
(dp803
g19
g581
sg15
I10
sg30
g20
((lp804
(I0
I9
tp805
a(I9
I0
tp806
a(I0
I0
tp807
a(I9
I9
tp808
atp809
Rp810
sg13
((I1
I1
tp811
(I8
I1
tp812
(I1
I7
tp813
(I7
I7
tp814
tp815
sg14
I10
sbsS'gaintRoom'
p816
(imulti_robot_problem
MultiRobotState
p817
(dp818
g19
g581
sg15
I5
sg30
g20
((lp819
(I4
I0
tp820
a(I4
I4
tp821
a(I0
I4
tp822
atp823
Rp824
sg13
((I0
I0
tp825
tp826
sg14
I5
sbsS'gaintRoomWithWall'
p827
(imulti_robot_problem
MultiRobotState
p828
(dp829
g19
g20
((lp830
(I2
I4
tp831
atp832
Rp833
sg15
I5
sg30
g20
((lp834
(I4
I0
tp835
a(I4
I4
tp836
a(I0
I4
tp837
atp838
Rp839
sg13
((I0
I0
tp840
tp841
sg14
I5
sbsS'split'
p842
(imulti_robot_problem
MultiRobotState
p843
(dp844
g19
g581
sg15
I10
sg30
g20
((lp845
(I0
I9
tp846
a(I9
I0
tp847
a(I0
I0
tp848
a(I9
I9
tp849
atp850
Rp851
sg13
((I4
I4
tp852
(I5
I4
tp853
(I4
I5
tp854
(I5
I5
tp855
tp856
sg14
I10
sbsS'twoRobots'
p857
(imulti_robot_problem
MultiRobotState
p858
(dp859
g19
g581
sg15
I9
sg30
g20
((lp860
(I8
I0
tp861
a(I0
I0
tp862
atp863
Rp864
sg13
((I2
I0
tp865
(I0
I3
tp866
tp867
sg14
I4
sbssg130
S'static_rooms'
p868
sbsg130
g132
sg133
(dp869
g786
((lp870
F40.05000000000291
tp871
sg801
((lp872
F40.150000000001455
tp873
sg550
((lp874
F39.990000000005239
tp875
sg816
((lp876
F39.989999999997963
tp877
sg576
((lp878
F39.989999999997963
tp879
sg591
((lp880
F40.0
tp881
sg603
((lp882
F39.989999999997963
tp883
sg857
((lp884
F39.990000000005239
tp885
sg827
((lp886
F39.989999999997963
tp887
sg632
((lp888
F40.0
tp889
sg654
((lp890
F39.989999999997963
tp891
sg675
((lp892
F39.990000000005239
tp893
sg715
((lp894
F40.0
tp895
sg737
((lp896
(F0.0036969184875488281
I2
tp897
aF39.989999999997963
tp898
sg748
((lp899
F39.989999999997963
tp900
sg775
((lp901
F40.0
tp902
sg842
((lp903
F40.389999999999418
tp904
ssba(imeasure_core
ProblemSetSolution
p905
(dp906
g3
g4
sg130
S"AnytimeBeam-w4-gf(4, 'lin')_with_PowerHeuristic2"
p907
sg133
(dp908
g8
((lp909
(F1.529451847076416
I9
tp910
aF40.089999999996508
tp911
sg48
((lp912
(F0.92549490928649902
I5
tp913
aF40.05000000000291
tp914
sg75
((lp915
F40.259999999994761
tp916
sg106
((lp917
F39.990000000005239
tp918
ssba(imeasure_core
ProblemSetSolution
p919
(dp920
g3
g147
sg130
g907
sg133
(dp921
g150
((lp922
F40.100000000005821
tp923
sg199
((lp924
F40.269999999996799
tp925
sg240
((lp926
F40.040000000000873
tp927
sg287
((lp928
F39.989999999997963
tp929
ssba(imeasure_core
ProblemSetSolution
p930
(dp931
g3
g344
sg130
g907
sg133
(dp932
g347
((lp933
F49.450000000004366
tp934
sg398
((lp935
F40.979999999995925
tp936
sg443
((lp937
F40.430000000000291
tp938
sg492
((lp939
F40.110000000000582
tp940
ssba(imeasure_core
ProblemSetSolution
p941
(dp942
g3
g547
sg130
g907
sg133
(dp943
g786
((lp944
F40.150000000001455
tp945
sg801
((lp946
F40.169999999998254
tp947
sg550
((lp948
F39.989999999997963
tp949
sg816
((lp950
F39.989999999997963
tp951
sg576
((lp952
F39.990000000005239
tp953
sg591
((lp954
F40.0
tp955
sg603
((lp956
F39.989999999997963
tp957
sg857
((lp958
F39.989999999997963
tp959
sg827
((lp960
F39.990000000005239
tp961
sg632
((lp962
F39.989999999997963
tp963
sg654
((lp964
F40.0
tp965
sg675
((lp966
F39.989999999997963
tp967
sg715
((lp968
F40.0
tp969
sg737
((lp970
(F0.0036818981170654297
I2
tp971
aF39.990000000005239
tp972
sg748
((lp973
F39.989999999997963
tp974
sg775
((lp975
F40.0
tp976
sg842
((lp977
F40.360000000000582
tp978
ssba(imeasure_core
ProblemSetSolution
p979
(dp980
g3
g4
sg130
S"AnytimeBeam-w4-gf(8, 'lin')_with_PowerHeuristic2"
p981
sg133
(dp982
g8
((lp983
(F1.5339679718017578
I9
tp984
aF40.089999999996508
tp985
sg48
((lp986
(F1.1460609436035156
I5
tp987
aF40.55000000000291
tp988
sg75
((lp989
F40.039999999993597
tp990
sg106
((lp991
F40.0
tp992
ssba(imeasure_core
ProblemSetSolution
p993
(dp994
g3
g147
sg130
g981
sg133
(dp995
g150
((lp996
F40.130000000004657
tp997
sg199
((lp998
F40.059999999997672
tp999
sg240
((lp1000
F40.010000000002037
tp1001
sg287
((lp1002
F40.0
tp1003
ssba(imeasure_core
ProblemSetSolution
p1004
(dp1005
g3
g344
sg130
g981
sg133
(dp1006
g347
((lp1007
F41.239999999997963
tp1008
sg398
((lp1009
F41.339999999996508
tp1010
sg443
((lp1011
F40.5
tp1012
sg492
((lp1013
F40.220000000001164
tp1014
ssba(imeasure_core
ProblemSetSolution
p1015
(dp1016
g3
g547
sg130
g981
sg133
(dp1017
g786
((lp1018
F40.040000000000873
tp1019
sg801
((lp1020
F40.260000000002037
tp1021
sg550
((lp1022
F40.0
tp1023
sg816
((lp1024
F39.989999999997963
tp1025
sg576
((lp1026
F39.989999999997963
tp1027
sg591
((lp1028
F39.990000000005239
tp1029
sg603
((lp1030
F39.989999999997963
tp1031
sg857
((lp1032
F39.989999999997963
tp1033
sg827
((lp1034
F39.989999999997963
tp1035
sg632
((lp1036
F40.0
tp1037
sg654
((lp1038
F39.989999999997963
tp1039
sg675
((lp1040
F39.990000000005239
tp1041
sg715
((lp1042
F39.989999999997963
tp1043
sg737
((lp1044
(F0.0037300586700439453
I2
tp1045
aF40.0
tp1046
sg748
((lp1047
F39.989999999997963
tp1048
sg775
((lp1049
F40.0
tp1050
sg842
((lp1051
F40.330000000001746
tp1052
ssba(imeasure_core
ProblemSetSolution
p1053
(dp1054
g3
g4
sg130
S"AnytimeBeam-w4-gf(16, 'lin')_with_PowerHeuristic2"
p1055
sg133
(dp1056
g8
((lp1057
(F1.5368239879608154
I9
tp1058
aF40.319999999999709
tp1059
sg48
((lp1060
(F1.4590511322021484
I5
tp1061
aF40.379999999997381
tp1062
sg75
((lp1063
F40.110000000000582
tp1064
sg106
((lp1065
F40.0
tp1066
ssba(imeasure_core
ProblemSetSolution
p1067
(dp1068
g3
g147
sg130
g1055
sg133
(dp1069
g150
((lp1070
F40.120000000002619
tp1071
sg199
((lp1072
F40.239999999997963
tp1073
sg240
((lp1074
F40.010000000002037
tp1075
sg287
((lp1076
F39.989999999997963
tp1077
ssba(imeasure_core
ProblemSetSolution
p1078
(dp1079
g3
g344
sg130
g1055
sg133
(dp1080
g347
((lp1081
F41.209999999999127
tp1082
sg398
((lp1083
F40.120000000002619
tp1084
sg443
((lp1085
F40.25
tp1086
sg492
((lp1087
F40.05000000000291
tp1088
ssba(imeasure_core
ProblemSetSolution
p1089
(dp1090
g3
g547
sg130
g1055
sg133
(dp1091
g786
((lp1092
F40.230000000003201
tp1093
sg801
((lp1094
F40.139999999999418
tp1095
sg550
((lp1096
F39.989999999997963
tp1097
sg816
((lp1098
F39.989999999997963
tp1099
sg576
((lp1100
F39.989999999997963
tp1101
sg591
((lp1102
F40.0
tp1103
sg603
((lp1104
F39.990000000005239
tp1105
sg857
((lp1106
F40.010000000002037
tp1107
sg827
((lp1108
F39.989999999997963
tp1109
sg632
((lp1110
F40.0
tp1111
sg654
((lp1112
F39.989999999997963
tp1113
sg675
((lp1114
F40.0
tp1115
sg715
((lp1116
F39.989999999997963
tp1117
sg737
((lp1118
(F0.0037779808044433594
I2
tp1119
aF39.990000000005239
tp1120
sg748
((lp1121
F39.989999999997963
tp1122
sg775
((lp1123
F39.989999999997963
tp1124
sg842
((lp1125
F40.330000000001746
tp1126
ssba(imeasure_core
ProblemSetSolution
p1127
(dp1128
g3
g4
sg130
S"AnytimeBeam-w4-gf(2, 'lin')_with_LinearHeuristic"
p1129
sg133
(dp1130
g8
((lp1131
F40.519999999996799
tp1132
sg48
((lp1133
(F0.80404520034790039
I4
tp1134
aF40.419999999998254
tp1135
sg75
((lp1136
F40.120000000002619
tp1137
sg106
((lp1138
F39.989999999997963
tp1139
ssba(imeasure_core
ProblemSetSolution
p1140
(dp1141
g3
g147
sg130
g1129
sg133
(dp1142
g150
((lp1143
F40.0
tp1144
sg199
((lp1145
F40.010000000002037
tp1146
sg240
((lp1147
F39.989999999997963
tp1148
sg287
((lp1149
F40.0
tp1150
ssba(imeasure_core
ProblemSetSolution
p1151
(dp1152
g3
g344
sg130
g1129
sg133
(dp1153
g347
((lp1154
F40.040000000000873
tp1155
sg398
((lp1156
F40.619999999995343
tp1157
sg443
((lp1158
F43.540000000000873
tp1159
sg492
((lp1160
F40.319999999999709
tp1161
ssba(imeasure_core
ProblemSetSolution
p1162
(dp1163
g3
g547
sg130
g1129
sg133
(dp1164
g786
((lp1165
F40.409999999996217
tp1166
sg801
((lp1167
F40.010000000002037
tp1168
sg550
((lp1169
F39.990000000005239
tp1170
sg816
((lp1171
F39.989999999997963
tp1172
sg576
((lp1173
F39.989999999997963
tp1174
sg591
((lp1175
F40.0
tp1176
sg603
((lp1177
F39.989999999997963
tp1178
sg857
((lp1179
F39.989999999997963
tp1180
sg827
((lp1181
F39.990000000005239
tp1182
sg632
((lp1183
F39.989999999997963
tp1184
sg654
((lp1185
F40.0
tp1186
sg675
((lp1187
F39.990000000005239
tp1188
sg715
((lp1189
F40.009999999994761
tp1190
sg737
((lp1191
(F0.0052239894866943359
I2
tp1192
aF39.990000000005239
tp1193
sg748
((lp1194
F39.989999999997963
tp1195
sg775
((lp1196
F40.0
tp1197
sg842
((lp1198
F40.739999999997963
tp1199
ssba(imeasure_core
ProblemSetSolution
p1200
(dp1201
g3
g4
sg130
S"AnytimeBeam-w4-gf(4, 'lin')_with_LinearHeuristic"
p1202
sg133
(dp1203
g8
((lp1204
F40.169999999998254
tp1205
sg48
((lp1206
(F0.92965388298034668
I4
tp1207
aF40.279999999998836
tp1208
sg75
((lp1209
F40.030000000006112
tp1210
sg106
((lp1211
F40.0
tp1212
ssba(imeasure_core
ProblemSetSolution
p1213
(dp1214
g3
g147
sg130
g1202
sg133
(dp1215
g150
((lp1216
F40.0
tp1217
sg199
((lp1218
F40.059999999997672
tp1219
sg240
((lp1220
F40.0
tp1221
sg287
((lp1222
F40.010000000002037
tp1223
ssba(imeasure_core
ProblemSetSolution
p1224
(dp1225
g3
g344
sg130
g1202
sg133
(dp1226
g347
((lp1227
F40.279999999998836
tp1228
sg398
((lp1229
F42.400000000001455
tp1230
sg443
((lp1231
F40.649999999994179
tp1232
sg492
((lp1233
F40.470000000001164
tp1234
ssba(imeasure_core
ProblemSetSolution
p1235
(dp1236
g3
g547
sg130
g1202
sg133
(dp1237
g786
((lp1238
F40.309999999997672
tp1239
sg801
((lp1240
F40.30000000000291
tp1241
sg550
((lp1242
F40.0
tp1243
sg816
((lp1244
F39.989999999997963
tp1245
sg576
((lp1246
F39.989999999997963
tp1247
sg591
((lp1248
F40.0
tp1249
sg603
((lp1250
F39.990000000005239
tp1251
sg857
((lp1252
F39.990000000005239
tp1253
sg827
((lp1254
F39.989999999997963
tp1255
sg632
((lp1256
F39.989999999997963
tp1257
sg654
((lp1258
F39.989999999997963
tp1259
sg675
((lp1260
F39.990000000005239
tp1261
sg715
((lp1262
F39.989999999997963
tp1263
sg737
((lp1264
(F0.0052700042724609375
I2
tp1265
aF40.0
tp1266
sg748
((lp1267
F39.989999999997963
tp1268
sg775
((lp1269
F40.010000000002037
tp1270
sg842
((lp1271
F40.180000000000291
tp1272
ssba(imeasure_core
ProblemSetSolution
p1273
(dp1274
g3
g4
sg130
S"AnytimeBeam-w4-gf(8, 'lin')_with_LinearHeuristic"
p1275
sg133
(dp1276
g8
((lp1277
F40.180000000000291
tp1278
sg48
((lp1279
(F0.98028206825256348
I4
tp1280
aF40.340000000003783
tp1281
sg75
((lp1282
F40.259999999994761
tp1283
sg106
((lp1284
F40.0
tp1285
ssba(imeasure_core
ProblemSetSolution
p1286
(dp1287
g3
g147
sg130
g1275
sg133
(dp1288
g150
((lp1289
F40.060000000004948
tp1290
sg199
((lp1291
F40.029999999998836
tp1292
sg240
((lp1293
F40.0
tp1294
sg287
((lp1295
F39.989999999997963
tp1296
ssba(imeasure_core
ProblemSetSolution
p1297
(dp1298
g3
g344
sg130
g1275
sg133
(dp1299
g347
((lp1300
F41.360000000000582
tp1301
sg398
((lp1302
F40.049999999995634
tp1303
sg443
((lp1304
F40.060000000004948
tp1305
sg492
((lp1306
F40.489999999997963
tp1307
ssba(imeasure_core
ProblemSetSolution
p1308
(dp1309
g3
g547
sg130
g1275
sg133
(dp1310
g786
((lp1311
F40.019999999996799
tp1312
sg801
((lp1313
F40.530000000006112
tp1314
sg550
((lp1315
F39.989999999997963
tp1316
sg816
((lp1317
F39.989999999997963
tp1318
sg576
((lp1319
F39.989999999997963
tp1320
sg591
((lp1321
F40.0
tp1322
sg603
((lp1323
F40.0
tp1324
sg857
((lp1325
F39.989999999997963
tp1326
sg827
((lp1327
F39.989999999997963
tp1328
sg632
((lp1329
F39.990000000005239
tp1330
sg654
((lp1331
F39.989999999997963
tp1332
sg675
((lp1333
F40.0
tp1334
sg715
((lp1335
F39.989999999997963
tp1336
sg737
((lp1337
(F0.0052161216735839844
I2
tp1338
aF39.989999999997963
tp1339
sg748
((lp1340
F39.990000000005239
tp1341
sg775
((lp1342
F39.989999999997963
tp1343
sg842
((lp1344
F40.160000000003492
tp1345
ssba(imeasure_core
ProblemSetSolution
p1346
(dp1347
g3
g4
sg130
S"AnytimeBeam-w4-gf(16, 'lin')_with_LinearHeuristic"
p1348
sg133
(dp1349
g8
((lp1350
F40.299999999995634
tp1351
sg48
((lp1352
(F1.084604024887085
I4
tp1353
aF40.450000000004366
tp1354
sg75
((lp1355
F40.689999999995052
tp1356
sg106
((lp1357
F40.0
tp1358
ssba(imeasure_core
ProblemSetSolution
p1359
(dp1360
g3
g147
sg130
g1348
sg133
(dp1361
g150
((lp1362
F40.060000000004948
tp1363
sg199
((lp1364
F40.169999999998254
tp1365
sg240
((lp1366
F40.019999999996799
tp1367
sg287
((lp1368
F40.0
tp1369
ssba(imeasure_core
ProblemSetSolution
p1370
(dp1371
g3
g344
sg130
g1348
sg133
(dp1372
g347
((lp1373
F42.730000000003201
tp1374
sg398
((lp1375
F42.989999999997963
tp1376
sg443
((lp1377
F42.120000000002619
tp1378
sg492
((lp1379
F40.159999999996217
tp1380
ssba(imeasure_core
ProblemSetSolution
p1381
(dp1382
g3
g547
sg130
g1348
sg133
(dp1383
g786
((lp1384
F40.519999999996799
tp1385
sg801
((lp1386
F40.080000000001746
tp1387
sg550
((lp1388
F40.0
tp1389
sg816
((lp1390
F39.989999999997963
tp1391
sg576
((lp1392
F39.990000000005239
tp1393
sg591
((lp1394
F40.009999999994761
tp1395
sg603
((lp1396
F39.990000000005239
tp1397
sg857
((lp1398
F39.989999999997963
tp1399
sg827
((lp1400
F39.989999999997963
tp1401
sg632
((lp1402
F39.989999999997963
tp1403
sg654
((lp1404
F40.0
tp1405
sg675
((lp1406
F39.989999999997963
tp1407
sg715
((lp1408
F39.990000000005239
tp1409
sg737
((lp1410
(F0.0052180290222167969
I2
tp1411
aF40.009999999994761
tp1412
sg748
((lp1413
F39.990000000005239
tp1414
sg775
((lp1415
F40.0
tp1416
sg842
((lp1417
F40.040000000000873
tp1418
ssba.