(lp0
(imeasure_core
ProblemSetSolution
p1
(dp2
S'roomset'
p3
(imeasure_core
RoomSet
p4
(dp5
S'rooms'
p6
(dp7
(iproblems
RoomID
p8
(dp9
S'dusts'
p10
I6
sS'obstacles'
p11
(I3
I2
tp12
sS'robots'
p13
I1
sS'height'
p14
I9
sS'width'
p15
I10
sS'seed'
p16
I6832892905590973747
sb(imulti_robot_problem
MultiRobotState
p17
(dp18
S'obstacle_locations'
p19
c__builtin__
frozenset
p20
((lp21
(I3
I0
tp22
a(I2
I0
tp23
ag12
a(I3
I1
tp24
atp25
Rp26
sg15
I10
sS'dirt_locations'
p27
g20
((lp28
(I1
I2
tp29
a(I2
I7
tp30
a(I0
I0
tp31
a(I0
I5
tp32
a(I5
I6
tp33
a(I0
I2
tp34
atp35
Rp36
sg13
((I8
I4
tp37
tp38
sg14
I9
sbs(iproblems
RoomID
p39
(dp40
g10
I7
sg11
(I3
I5
tp41
sg13
I5
sg14
I7
sg15
I9
sg16
I6924344268699531175
sb(imulti_robot_problem
MultiRobotState
p42
(dp43
g19
g20
((lp44
(I2
I6
tp45
a(I1
I6
tp46
a(I3
I6
tp47
ag41
atp48
Rp49
sg15
I9
sg27
g20
((lp50
(I1
I2
tp51
a(I0
I0
tp52
a(I5
I0
tp53
a(I7
I1
tp54
a(I8
I6
tp55
a(I3
I4
tp56
a(I6
I5
tp57
atp58
Rp59
sg13
((I4
I0
tp60
(I7
I2
tp61
(I1
I1
tp62
(I6
I1
tp63
(I8
I4
tp64
tp65
sg14
I7
sbs(iproblems
RoomID
p66
(dp67
g10
I6
sg11
(I3
I1
tp68
sg13
I4
sg14
I8
sg15
I7
sg16
I807570059310326234
sb(imulti_robot_problem
MultiRobotState
p69
(dp70
g19
g20
((lp71
(I6
I3
tp72
a(I4
I2
tp73
ag68
a(I5
I3
tp74
atp75
Rp76
sg15
I7
sg27
g20
((lp77
(I3
I2
tp78
a(I6
I7
tp79
a(I4
I6
tp80
a(I0
I4
tp81
a(I1
I0
tp82
a(I5
I2
tp83
atp84
Rp85
sg13
((I1
I2
tp86
(I0
I1
tp87
(I3
I7
tp88
(I2
I4
tp89
tp90
sg14
I8
sbs(iproblems
RoomID
p91
(dp92
g10
I8
sg11
(I5
I0
tp93
sg13
I4
sg14
I10
sg15
I10
sg16
I3562373307524659409
sb(imulti_robot_problem
MultiRobotState
p94
(dp95
g19
g20
((lp96
(I6
I3
tp97
a(I6
I7
tp98
ag93
a(I3
I6
tp99
a(I8
I1
tp100
a(I7
I0
tp101
a(I6
I0
tp102
atp103
Rp104
sg15
I10
sg27
g20
((lp105
(I1
I3
tp106
a(I2
I9
tp107
a(I7
I6
tp108
a(I7
I7
tp109
a(I8
I9
tp110
a(I1
I8
tp111
a(I1
I6
tp112
a(I2
I2
tp113
atp114
Rp115
sg13
((I9
I8
tp116
(I6
I5
tp117
(I5
I1
tp118
(I8
I8
tp119
tp120
sg14
I10
sbssS'name'
p121
S'easy_roomset'
p122
sbsg121
S'LimitedTimeAStar_with_PowerHeuristic2'
p123
sS'solutions'
p124
(dp125
g8
((lp126
F0.090000000000145519
tp127
sg39
((lp128
F1.3800000000001091
tp129
sg66
((lp130
F302.5
tp131
sg91
((lp132
F0.38999999999941792
tp133
ssba(imeasure_core
ProblemSetSolution
p134
(dp135
g3
(imeasure_core
RoomSet
p136
(dp137
g6
(dp138
(iproblems
RoomID
p139
(dp140
g10
I6
sg11
(I6
I2
tp141
sg13
I3
sg14
I11
sg15
I12
sg16
I6832892905590973747
sb(imulti_robot_problem
MultiRobotState
p142
(dp143
g19
g20
((lp144
(I6
I4
tp145
a(I2
I6
tp146
a(I4
I3
tp147
a(I3
I0
tp148
a(I2
I8
tp149
a(I7
I7
tp150
a(I7
I5
tp151
a(I4
I2
tp152
a(I5
I3
tp153
a(I4
I1
tp154
a(I7
I6
tp155
a(I6
I3
tp156
a(I4
I5
tp157
ag141
a(I3
I6
tp158
a(I8
I6
tp159
a(I4
I0
tp160
a(I5
I2
tp161
a(I2
I4
tp162
atp163
Rp164
sg15
I12
sg27
g20
((lp165
(I1
I6
tp166
a(I6
I8
tp167
a(I2
I9
tp168
a(I0
I3
tp169
a(I0
I2
tp170
a(I7
I9
tp171
atp172
Rp173
sg13
((I10
I6
tp174
(I1
I2
tp175
(I0
I0
tp176
tp177
sg14
I11
sbs(iproblems
RoomID
p178
(dp179
g10
I7
sg11
(I3
I1
tp180
sg13
I4
sg14
I9
sg15
I11
sg16
I6924344268699531175
sb(imulti_robot_problem
MultiRobotState
p181
(dp182
g19
g20
((lp183
(I4
I7
tp184
ag180
a(I6
I6
tp185
a(I5
I6
tp186
a(I2
I8
tp187
a(I9
I8
tp188
a(I7
I7
tp189
a(I0
I7
tp190
a(I7
I5
tp191
a(I8
I7
tp192
a(I0
I3
tp193
a(I0
I8
tp194
a(I8
I5
tp195
a(I6
I3
tp196
a(I5
I2
tp197
a(I7
I6
tp198
a(I4
I8
tp199
a(I7
I4
tp200
a(I3
I8
tp201
a(I0
I6
tp202
a(I8
I8
tp203
a(I4
I1
tp204
a(I9
I7
tp205
atp206
Rp207
sg15
I11
sg27
g20
((lp208
(I8
I3
tp209
a(I1
I3
tp210
a(I4
I6
tp211
a(I4
I3
tp212
a(I0
I4
tp213
a(I10
I5
tp214
a(I0
I0
tp215
atp216
Rp217
sg13
((I6
I0
tp218
(I9
I3
tp219
(I1
I1
tp220
(I8
I1
tp221
tp222
sg14
I9
sbs(iproblems
RoomID
p223
(dp224
g10
I6
sg11
(I2
I5
tp225
sg13
I4
sg14
I10
sg15
I9
sg16
I807570059310326234
sb(imulti_robot_problem
MultiRobotState
p226
(dp227
g19
g20
((lp228
(I6
I4
tp229
a(I3
I2
tp230
a(I1
I3
tp231
a(I8
I2
tp232
a(I2
I3
tp233
a(I3
I8
tp234
ag225
a(I1
I0
tp235
a(I1
I2
tp236
a(I7
I4
tp237
a(I4
I1
tp238
a(I3
I3
tp239
a(I3
I4
tp240
a(I1
I1
tp241
a(I6
I3
tp242
a(I2
I0
tp243
a(I1
I8
tp244
a(I2
I2
tp245
a(I5
I2
tp246
a(I0
I2
tp247
a(I8
I4
tp248
atp249
Rp250
sg15
I9
sg27
g20
((lp251
(I7
I3
tp252
a(I2
I6
tp253
a(I1
I6
tp254
a(I4
I2
tp255
a(I5
I8
tp256
a(I7
I9
tp257
atp258
Rp259
sg13
((I6
I2
tp260
(I0
I1
tp261
(I3
I9
tp262
(I3
I5
tp263
tp264
sg14
I10
sbs(iproblems
RoomID
p265
(dp266
g10
I8
sg11
(I11
I7
tp267
sg13
I4
sg14
I12
sg15
I12
sg16
I3562373307524659409
sb(imulti_robot_problem
MultiRobotState
p268
(dp269
g19
g20
((lp270
(I6
I4
tp271
a(I6
I9
tp272
a(I3
I2
tp273
a(I9
I1
tp274
a(I6
I6
tp275
a(I5
I6
tp276
a(I9
I8
tp277
a(I3
I11
tp278
a(I7
I1
tp279
ag267
a(I8
I9
tp280
a(I3
I9
tp281
a(I11
I8
tp282
a(I10
I2
tp283
a(I4
I2
tp284
a(I7
I2
tp285
a(I10
I8
tp286
a(I8
I3
tp287
a(I8
I1
tp288
a(I3
I10
tp289
a(I5
I11
tp290
a(I6
I3
tp291
a(I6
I11
tp292
a(I6
I5
tp293
a(I7
I10
tp294
a(I4
I8
tp295
a(I11
I6
tp296
a(I4
I11
tp297
atp298
Rp299
sg15
I12
sg27
g20
((lp300
(I7
I3
tp301
a(I1
I3
tp302
a(I10
I11
tp303
a(I1
I7
tp304
a(I8
I8
tp305
a(I2
I2
tp306
a(I3
I7
tp307
a(I7
I9
tp308
atp309
Rp310
sg13
((I11
I10
tp311
(I7
I6
tp312
(I10
I10
tp313
(I2
I10
tp314
tp315
sg14
I12
sbssg121
S'mild_roomset'
p316
sbsg121
g123
sg124
(dp317
g139
((lp318
F0.090000000000145519
tp319
sg178
((lp320
F0.77000000000043656
tp321
sg223
((lp322
F300.47000000000025
tp323
sg265
((lp324
F300.6299999999992
tp325
ssba(imeasure_core
ProblemSetSolution
p326
(dp327
g3
(imeasure_core
RoomSet
p328
(dp329
g6
(dp330
(iproblems
RoomID
p331
(dp332
g10
I11
sg11
(I4
I2
tp333
sg13
I5
sg14
I12
sg15
I13
sg16
I6832892905590973747
sb(imulti_robot_problem
MultiRobotState
p334
(dp335
g19
g20
((lp336
(I5
I9
tp337
a(I6
I9
tp338
a(I8
I2
tp339
a(I3
I0
tp340
a(I3
I4
tp341
a(I12
I11
tp342
ag333
a(I4
I1
tp343
a(I4
I0
tp344
atp345
Rp346
sg15
I13
sg27
g20
((lp347
(I2
I7
tp348
a(I9
I0
tp349
a(I6
I8
tp350
a(I4
I5
tp351
a(I2
I8
tp352
a(I8
I10
tp353
a(I2
I10
tp354
a(I1
I7
tp355
a(I3
I7
tp356
a(I2
I5
tp357
a(I0
I8
tp358
atp359
Rp360
sg13
((I11
I6
tp361
(I1
I2
tp362
(I1
I0
tp363
(I0
I3
tp364
(I0
I2
tp365
tp366
sg14
I12
sbs(iproblems
RoomID
p367
(dp368
g10
I12
sg11
(I6
I7
tp369
sg13
I7
sg14
I10
sg15
I12
sg16
I6924344268699531175
sb(imulti_robot_problem
MultiRobotState
p370
(dp371
g19
g20
((lp372
(I4
I7
tp373
ag369
a(I2
I9
tp374
a(I4
I8
tp375
a(I9
I6
tp376
a(I5
I7
tp377
a(I0
I6
tp378
a(I3
I9
tp379
a(I0
I9
tp380
a(I4
I9
tp381
a(I4
I1
tp382
atp383
Rp384
sg15
I12
sg27
g20
((lp385
(I7
I3
tp386
a(I5
I4
tp387
a(I1
I3
tp388
a(I9
I1
tp389
a(I8
I3
tp390
a(I0
I7
tp391
a(I8
I8
tp392
a(I0
I0
tp393
a(I0
I4
tp394
a(I0
I8
tp395
a(I11
I6
tp396
a(I9
I7
tp397
atp398
Rp399
sg13
((I6
I0
tp400
(I10
I4
tp401
(I1
I1
tp402
(I8
I2
tp403
(I11
I5
tp404
(I5
I6
tp405
(I10
I9
tp406
tp407
sg14
I10
sbs(iproblems
RoomID
p408
(dp409
g10
I13
sg11
(I7
I4
tp410
sg13
I6
sg14
I13
sg15
I13
sg16
I3562373307524659409
sb(imulti_robot_problem
MultiRobotState
p411
(dp412
g19
g20
((lp413
(I7
I3
tp414
a(I5
I4
tp415
a(I4
I9
tp416
a(I9
I1
tp417
a(I5
I9
tp418
a(I8
I1
tp419
a(I11
I2
tp420
a(I9
I3
tp421
a(I3
I11
tp422
a(I11
I7
tp423
ag410
a(I10
I1
tp424
a(I3
I10
tp425
a(I10
I5
tp426
a(I8
I2
tp427
atp428
Rp429
sg15
I13
sg27
g20
((lp430
(I8
I3
tp431
a(I3
I12
tp432
a(I4
I8
tp433
a(I6
I10
tp434
a(I9
I9
tp435
a(I12
I6
tp436
a(I8
I9
tp437
a(I1
I8
tp438
a(I4
I3
tp439
a(I2
I2
tp440
a(I4
I2
tp441
a(I11
I12
tp442
a(I2
I4
tp443
atp444
Rp445
sg13
((I12
I11
tp446
(I7
I6
tp447
(I7
I1
tp448
(I10
I11
tp449
(I2
I11
tp450
(I9
I8
tp451
tp452
sg14
I13
sbs(iproblems
RoomID
p453
(dp454
g10
I11
sg11
(I5
I1
tp455
sg13
I7
sg14
I11
sg15
I10
sg16
I807570059310326234
sb(imulti_robot_problem
MultiRobotState
p456
(dp457
g19
g20
((lp458
(I7
I3
tp459
a(I4
I6
tp460
a(I7
I4
tp461
a(I6
I2
tp462
a(I1
I9
tp463
a(I9
I4
tp464
ag455
a(I0
I3
tp465
a(I5
I2
tp466
a(I8
I4
tp467
atp468
Rp469
sg15
I10
sg27
g20
((lp470
(I5
I9
tp471
a(I6
I9
tp472
a(I2
I9
tp473
a(I4
I8
tp474
a(I9
I2
tp475
a(I2
I0
tp476
a(I1
I6
tp477
a(I9
I5
tp478
a(I4
I2
tp479
a(I1
I0
tp480
a(I3
I5
tp481
atp482
Rp483
sg13
((I1
I3
tp484
(I0
I2
tp485
(I4
I10
tp486
(I4
I5
tp487
(I8
I10
tp488
(I8
I3
tp489
(I2
I6
tp490
tp491
sg14
I11
sbssg121
S'heavy_roomset'
p492
sbsg121
g123
sg124
(dp493
g331
((lp494
F13.0
tp495
sg367
((lp496
F106.74000000000069
tp497
sg408
((lp498
F15.369999999999891
tp499
sg453
((lp500
F310.27999999999975
tp501
ssba(imeasure_core
ProblemSetSolution
p502
(dp503
g3
(imeasure_core
RoomSet
p504
(dp505
g6
(dp506
S'complexRoom'
p507
(imulti_robot_problem
MultiRobotState
p508
(dp509
g19
g20
((lp510
(I2
I7
tp511
a(I7
I3
tp512
a(I6
I3
tp513
a(I3
I3
tp514
a(I7
I6
tp515
a(I7
I4
tp516
a(I7
I5
tp517
a(I2
I3
tp518
a(I4
I3
tp519
a(I2
I5
tp520
a(I2
I4
tp521
a(I5
I3
tp522
atp523
Rp524
sg15
I11
sg27
g20
((lp525
(I1
I0
tp526
a(I9
I0
tp527
atp528
Rp529
sg13
((I6
I4
tp530
(I1
I6
tp531
tp532
sg14
I8
sbsS'exampleProblem'
p533
(imulti_robot_problem
MultiRobotState
p534
(dp535
g19
g20
((lp536
tp537
Rp538
sg15
I5
sg27
g20
((lp539
(I1
I3
tp540
a(I3
I1
tp541
a(I1
I1
tp542
a(I3
I3
tp543
atp544
Rp545
sg13
((I2
I2
tp546
tp547
sg14
I5
sbsS'linear_test'
p548
(imulti_robot_problem
MultiRobotState
p549
(dp550
g19
g538
sg15
I12
sg27
g20
((lp551
(I11
I0
tp552
a(I1
I0
tp553
a(I9
I0
tp554
atp555
Rp556
sg13
((I3
I0
tp557
(I1
I2
tp558
tp559
sg14
I7
sbsS'obstacle_Far_CloseTest'
p560
(imulti_robot_problem
MultiRobotState
p561
(dp562
g19
g20
((lp563
(I0
I1
tp564
a(I7
I3
tp565
a(I3
I1
tp566
a(I7
I1
tp567
a(I4
I5
tp568
a(I7
I6
tp569
a(I4
I4
tp570
a(I2
I1
tp571
a(I7
I4
tp572
a(I7
I5
tp573
a(I4
I3
tp574
a(I4
I2
tp575
a(I4
I1
tp576
a(I1
I1
tp577
a(I7
I2
tp578
atp579
Rp580
sg15
I12
sg27
g20
((lp581
(I3
I2
tp582
a(I9
I6
tp583
atp584
Rp585
sg13
((I0
I0
tp586
(I6
I6
tp587
tp588
sg14
I7
sbsS'zigzag'
p589
(imulti_robot_problem
MultiRobotState
p590
(dp591
g19
g20
((lp592
(I1
I2
tp593
a(I3
I2
tp594
a(I1
I3
tp595
a(I3
I0
tp596
a(I3
I1
tp597
a(I5
I1
tp598
a(I5
I2
tp599
a(I1
I1
tp600
a(I5
I3
tp601
atp602
Rp603
sg15
I20
sg27
g20
((lp604
(I6
I3
tp605
atp606
Rp607
sg13
((I0
I3
tp608
(I19
I3
tp609
tp610
sg14
I4
sbsS'room1'
p611
(imulti_robot_problem
MultiRobotState
p612
(dp613
g19
g20
((lp614
(I6
I3
tp615
a(I7
I3
tp616
a(I8
I3
tp617
a(I2
I3
tp618
a(I3
I3
tp619
a(I4
I3
tp620
a(I5
I3
tp621
atp622
Rp623
sg15
I9
sg27
g20
((lp624
(I0
I0
tp625
a(I2
I1
tp626
atp627
Rp628
sg13
((I6
I1
tp629
(I6
I5
tp630
tp631
sg14
I6
sbsS'complexRoom2'
p632
(imulti_robot_problem
MultiRobotState
p633
(dp634
g19
g20
((lp635
(I7
I3
tp636
a(I1
I3
tp637
a(I7
I1
tp638
a(I4
I5
tp639
a(I9
I3
tp640
a(I5
I5
tp641
a(I2
I6
tp642
a(I2
I3
tp643
a(I5
I1
tp644
a(I0
I3
tp645
a(I10
I3
tp646
a(I2
I5
tp647
a(I6
I5
tp648
a(I5
I3
tp649
a(I2
I7
tp650
a(I8
I3
tp651
a(I3
I3
tp652
a(I5
I2
tp653
a(I7
I6
tp654
a(I3
I1
tp655
a(I6
I3
tp656
a(I7
I5
tp657
a(I4
I3
tp658
a(I3
I5
tp659
a(I4
I1
tp660
a(I6
I1
tp661
atp662
Rp663
sg15
I11
sg27
g20
((lp664
(I7
I2
tp665
a(I0
I7
tp666
atp667
Rp668
sg13
((I1
I2
tp669
(I3
I6
tp670
tp671
sg14
I8
sbsS'zigzagUpright'
p672
(imulti_robot_problem
MultiRobotState
p673
(dp674
g19
g20
((lp675
(I1
I3
tp676
a(I3
I1
tp677
a(I2
I1
tp678
a(I1
I1
tp679
a(I1
I5
tp680
a(I2
I3
tp681
a(I2
I5
tp682
a(I0
I3
tp683
a(I3
I5
tp684
atp685
Rp686
sg15
I4
sg27
g20
((lp687
(I3
I6
tp688
atp689
Rp690
sg13
((I3
I0
tp691
(I3
I19
tp692
tp693
sg14
I20
sbsS'ivansRevenge'
p694
(imulti_robot_problem
MultiRobotState
p695
(dp696
g19
g538
sg15
I10
sg27
g20
((lp697
(I9
I2
tp698
a(I0
I0
tp699
atp700
Rp701
sg13
((I9
I0
tp702
(I0
I2
tp703
tp704
sg14
I3
sbsS'roomLongWithObstaccle'
p705
(imulti_robot_problem
MultiRobotState
p706
(dp707
g19
g20
((lp708
(I0
I1
tp709
a(I12
I1
tp710
a(I9
I1
tp711
a(I7
I1
tp712
a(I8
I1
tp713
a(I6
I1
tp714
a(I3
I1
tp715
a(I2
I1
tp716
a(I11
I1
tp717
a(I10
I1
tp718
a(I5
I1
tp719
a(I4
I1
tp720
a(I1
I1
tp721
atp722
Rp723
sg15
I15
sg27
g20
((lp724
(I0
I2
tp725
a(I14
I6
tp726
atp727
Rp728
sg13
((I0
I0
tp729
(I0
I6
tp730
tp731
sg14
I7
sbsS'twoRobotsInOpCorners'
p732
(imulti_robot_problem
MultiRobotState
p733
(dp734
g19
g538
sg15
I5
sg27
g20
((lp735
(I0
I0
tp736
a(I4
I4
tp737
atp738
Rp739
sg13
((I3
I0
tp740
(I0
I3
tp741
tp742
sg14
I5
sbsS'split2'
p743
(imulti_robot_problem
MultiRobotState
p744
(dp745
g19
g538
sg15
I10
sg27
g20
((lp746
(I0
I9
tp747
a(I9
I0
tp748
a(I0
I0
tp749
a(I9
I9
tp750
atp751
Rp752
sg13
((I1
I1
tp753
(I8
I1
tp754
(I4
I5
tp755
(I5
I5
tp756
tp757
sg14
I10
sbsS'split3'
p758
(imulti_robot_problem
MultiRobotState
p759
(dp760
g19
g538
sg15
I10
sg27
g20
((lp761
(I0
I9
tp762
a(I9
I0
tp763
a(I0
I0
tp764
a(I9
I9
tp765
atp766
Rp767
sg13
((I1
I1
tp768
(I8
I1
tp769
(I1
I7
tp770
(I7
I7
tp771
tp772
sg14
I10
sbsS'gaintRoom'
p773
(imulti_robot_problem
MultiRobotState
p774
(dp775
g19
g538
sg15
I5
sg27
g20
((lp776
(I4
I0
tp777
a(I4
I4
tp778
a(I0
I4
tp779
atp780
Rp781
sg13
((I0
I0
tp782
tp783
sg14
I5
sbsS'gaintRoomWithWall'
p784
(imulti_robot_problem
MultiRobotState
p785
(dp786
g19
g20
((lp787
(I2
I4
tp788
atp789
Rp790
sg15
I5
sg27
g20
((lp791
(I4
I0
tp792
a(I4
I4
tp793
a(I0
I4
tp794
atp795
Rp796
sg13
((I0
I0
tp797
tp798
sg14
I5
sbsS'split'
p799
(imulti_robot_problem
MultiRobotState
p800
(dp801
g19
g538
sg15
I10
sg27
g20
((lp802
(I0
I9
tp803
a(I9
I0
tp804
a(I0
I0
tp805
a(I9
I9
tp806
atp807
Rp808
sg13
((I4
I4
tp809
(I5
I4
tp810
(I4
I5
tp811
(I5
I5
tp812
tp813
sg14
I10
sbsS'twoRobots'
p814
(imulti_robot_problem
MultiRobotState
p815
(dp816
g19
g538
sg15
I9
sg27
g20
((lp817
(I8
I0
tp818
a(I0
I0
tp819
atp820
Rp821
sg13
((I2
I0
tp822
(I0
I3
tp823
tp824
sg14
I4
sbssg121
S'static_rooms'
p825
sbsg121
g123
sg124
(dp826
g743
((lp827
F0.26000000000021828
tp828
sg758
((lp829
F0.11999999999898137
tp830
sg507
((lp831
F0.019999999999527063
tp832
sg773
((lp833
F0.030000000000654836
tp834
sg533
((lp835
F0.0
tp836
sg548
((lp837
F0.020000000000436557
tp838
sg560
((lp839
F21.329999999999927
tp840
sg814
((lp841
F0.010000000000218279
tp842
sg784
((lp843
F0.020000000000436557
tp844
sg589
((lp845
F1.4799999999995634
tp846
sg611
((lp847
F0.020000000000436557
tp848
sg632
((lp849
F6.8299999999999272
tp850
sg672
((lp851
F2.7899999999999636
tp852
sg694
((lp853
F0.0
tp854
sg705
((lp855
F11.279999999999745
tp856
sg732
((lp857
F0.010000000000218279
tp858
sg799
((lp859
F0.27000000000043656
tp860
ssba.