(lp0
(imeasure_core
ProblemSetSolution
p1
(dp2
S'roomset'
p3
(imeasure_core
RoomSet
p4
(dp5
S'rooms'
p6
(dp7
(iproblems
RoomID
p8
(dp9
S'dusts'
p10
I8
sS'obstacles'
p11
(I5
I7
tp12
sS'robots'
p13
I5
sS'height'
p14
I9
sS'width'
p15
I10
sS'seed'
p16
I5594871498841892311
sb(imulti_robot_problem
MultiRobotState
p17
(dp18
S'obstacle_locations'
p19
c__builtin__
frozenset
p20
((lp21
(I4
I7
tp22
a(I3
I6
tp23
a(I5
I1
tp24
a(I1
I0
tp25
ag12
a(I8
I3
tp26
a(I5
I8
tp27
atp28
Rp29
sg15
I10
sS'dirt_locations'
p30
g20
((lp31
(I0
I1
tp32
a(I9
I0
tp33
a(I8
I2
tp34
a(I6
I0
tp35
a(I1
I1
tp36
a(I1
I5
tp37
a(I9
I4
tp38
a(I2
I4
tp39
atp40
Rp41
sg13
((I7
I6
tp42
(I8
I4
tp43
(I5
I4
tp44
(I7
I2
tp45
(I7
I8
tp46
tp47
sg14
I9
sbs(iproblems
RoomID
p48
(dp49
g10
I6
sg11
(I4
I4
tp50
sg13
I5
sg14
I7
sg15
I8
sg16
I8833747186876682921
sb(imulti_robot_problem
MultiRobotState
p51
(dp52
g19
g20
((lp53
(I2
I2
tp54
ag50
a(I3
I4
tp55
a(I3
I3
tp56
a(I3
I5
tp57
atp58
Rp59
sg15
I8
sg30
g20
((lp60
(I6
I4
tp61
a(I5
I4
tp62
a(I1
I3
tp63
a(I5
I1
tp64
a(I0
I3
tp65
a(I5
I3
tp66
atp67
Rp68
sg13
((I2
I1
tp69
(I6
I1
tp70
(I3
I1
tp71
(I5
I0
tp72
(I7
I3
tp73
tp74
sg14
I7
sbs(iproblems
RoomID
p75
(dp76
g10
I7
sg11
(I5
I2
tp77
sg13
I5
sg14
I8
sg15
I9
sg16
I365562409358139953
sb(imulti_robot_problem
MultiRobotState
p78
(dp79
g19
g20
((lp80
(I6
I4
tp81
a(I5
I5
tp82
a(I2
I1
tp83
a(I3
I7
tp84
a(I2
I5
tp85
ag77
a(I0
I2
tp86
a(I5
I3
tp87
atp88
Rp89
sg15
I9
sg30
g20
((lp90
(I2
I0
tp91
a(I1
I6
tp92
a(I8
I2
tp93
a(I4
I5
tp94
a(I8
I6
tp95
a(I5
I7
tp96
a(I3
I4
tp97
atp98
Rp99
sg13
((I4
I2
tp100
(I8
I3
tp101
(I6
I3
tp102
(I2
I4
tp103
(I6
I7
tp104
tp105
sg14
I8
sbs(iproblems
RoomID
p106
(dp107
g10
I5
sg11
(I6
I4
tp108
sg13
I2
sg14
I8
sg15
I10
sg16
I1662056218554549082
sb(imulti_robot_problem
MultiRobotState
p109
(dp110
g19
g20
((lp111
g108
a(I4
I6
tp112
a(I3
I6
tp113
a(I4
I4
tp114
a(I9
I6
tp115
a(I5
I5
tp116
atp117
Rp118
sg15
I10
sg30
g20
((lp119
(I4
I5
tp120
a(I8
I3
tp121
a(I8
I4
tp122
a(I7
I7
tp123
a(I3
I3
tp124
atp125
Rp126
sg13
((I9
I3
tp127
(I2
I0
tp128
tp129
sg14
I8
sbssS'name'
p130
S'easy_roomset'
p131
sbsg130
S'AnytimeBest-d10_with_PowerHeuristic2'
p132
sS'solutions'
p133
(dp134
g8
((lp135
(F1.7498447895050049
I9
tp136
a(F1.7507238388061523
I9
tp137
a(F1.7515847682952881
I9
tp138
a(F1.7527639865875244
I9
tp139
a(F1.7538878917694092
I9
tp140
a(F1.7551639080047607
I9
tp141
a(F1.7565569877624512
I9
tp142
a(F1.7575099468231201
I9
tp143
a(F1.7585649490356445
I9
tp144
a(F1.759833812713623
I9
tp145
a(F1.7610208988189697
I9
tp146
a(F1.7619409561157227
I9
tp147
a(F1.7629539966583252
I9
tp148
a(F1.763969898223877
I9
tp149
a(F1.7648289203643799
I9
tp150
a(F1.7656228542327881
I9
tp151
a(F1.7668378353118896
I9
tp152
a(F1.7677938938140869
I9
tp153
a(F1.768589973449707
I9
tp154
a(F1.7692868709564209
I9
tp155
a(F1.7709357738494873
I9
tp156
a(F1.7717959880828857
I9
tp157
a(F1.773298978805542
I9
tp158
a(F1.7740638256072998
I9
tp159
a(F1.7752449512481689
I9
tp160
a(F1.7762668132781982
I9
tp161
a(F1.7775559425354004
I9
tp162
a(F1.7784788608551025
I9
tp163
a(F1.7796039581298828
I9
tp164
a(F1.7803089618682861
I9
tp165
a(F1.7815859317779541
I9
tp166
a(F1.78277587890625
I9
tp167
a(F1.7841658592224121
I9
tp168
a(F1.7849678993225098
I9
tp169
a(F1.7860307693481445
I9
tp170
a(F1.786998987197876
I9
tp171
a(F1.7879629135131836
I9
tp172
a(F1.7887048721313477
I9
tp173
a(F1.7899339199066162
I9
tp174
a(F1.7911679744720459
I9
tp175
a(F1.7927138805389404
I9
tp176
a(F1.7935168743133545
I9
tp177
a(F1.794482946395874
I9
tp178
a(F1.795515775680542
I9
tp179
a(F1.796806812286377
I9
tp180
a(F1.7974479198455811
I9
tp181
a(F1.7987699508666992
I9
tp182
a(F1.7997019290924072
I9
tp183
a(F1.8006799221038818
I9
tp184
a(F1.8016409873962402
I9
tp185
a(F1.8025448322296143
I9
tp186
a(F1.8036057949066162
I9
tp187
a(F1.8048698902130127
I9
tp188
a(F1.8058338165283203
I9
tp189
a(F1.8068969249725342
I9
tp190
a(F1.8078007698059082
I9
tp191
a(F1.8090658187866211
I9
tp192
a(F1.8104608058929443
I9
tp193
a(F1.8112678527832031
I9
tp194
a(F1.8122317790985107
I9
tp195
a(F1.8134198188781738
I9
tp196
a(F1.814532995223999
I9
tp197
a(F1.8153388500213623
I9
tp198
a(F1.8162498474121094
I9
tp199
a(F1.817490816116333
I9
tp200
a(F1.8185548782348633
I9
tp201
a(F1.8194217681884766
I9
tp202
a(F1.8201649188995361
I9
tp203
a(F1.8208448886871338
I9
tp204
a(F1.8220298290252686
I9
tp205
a(F1.8229329586029053
I9
tp206
a(F1.8242819309234619
I9
tp207
a(F1.8251819610595703
I9
tp208
a(F1.8264079093933105
I9
tp209
a(F1.8274729251861572
I9
tp210
a(F1.828535795211792
I9
tp211
a(F1.8299219608306885
I9
tp212
a(F1.8307409286499023
I9
tp213
a(F1.8319017887115479
I9
tp214
a(F1.8328328132629395
I9
tp215
a(F1.8336379528045654
I9
tp216
a(F1.8343777656555176
I9
tp217
a(F1.8352818489074707
I9
tp218
a(F1.8360857963562012
I9
tp219
a(F1.8371138572692871
I9
tp220
a(F1.8380799293518066
I9
tp221
a(F1.8387877941131592
I9
tp222
a(F1.8395907878875732
I9
tp223
a(F1.840418815612793
I9
tp224
a(F1.8414359092712402
I9
tp225
a(F1.8424999713897705
I9
tp226
a(F1.8435609340667725
I9
tp227
a(F1.8447508811950684
I9
tp228
a(F1.8457520008087158
I9
tp229
a(F1.8466567993164062
I9
tp230
a(F1.847747802734375
I9
tp231
a(F1.8485507965087891
I9
tp232
a(F1.8492538928985596
I9
tp233
a(F1.8502559661865234
I9
tp234
a(F1.8511738777160645
I9
tp235
a(F1.852341890335083
I9
tp236
a(F1.8534708023071289
I9
tp237
a(F1.8545348644256592
I9
tp238
a(F1.8556668758392334
I9
tp239
a(F1.8565349578857422
I9
tp240
a(F1.8573389053344727
I9
tp241
a(F1.8579418659210205
I9
tp242
a(F1.8590078353881836
I9
tp243
a(F1.8601429462432861
I9
tp244
a(F1.8613228797912598
I9
tp245
a(F1.8620319366455078
I9
tp246
a(F1.8629748821258545
I9
tp247
a(F1.8639469146728516
I9
tp248
a(F1.8645908832550049
I9
tp249
a(F1.8657779693603516
I9
tp250
a(F1.8666248321533203
I9
tp251
a(F1.8678407669067383
I9
tp252
a(F1.8691258430480957
I9
tp253
a(F1.8699297904968262
I9
tp254
a(F1.8709068298339844
I9
tp255
a(F1.8718087673187256
I9
tp256
a(F1.872452974319458
I9
tp257
a(F1.8731968402862549
I9
tp258
a(F1.8741598129272461
I9
tp259
a(F1.8755099773406982
I9
tp260
a(F1.8763158321380615
I9
tp261
a(F1.8772828578948975
I9
tp262
a(F1.8780908584594727
I9
tp263
a(F1.879058837890625
I9
tp264
a(F1.8798627853393555
I9
tp265
a(F1.8808469772338867
I9
tp266
a(F1.8817508220672607
I9
tp267
a(F1.8825559616088867
I9
tp268
a(F1.8836419582366943
I9
tp269
a(F1.884509801864624
I9
tp270
a(F1.8852508068084717
I9
tp271
a(F1.8860208988189697
I9
tp272
a(F1.8872089385986328
I9
tp273
a(F1.8883368968963623
I9
tp274
a(F1.8895378112792969
I9
tp275
a(F1.8904809951782227
I9
tp276
a(F1.8913497924804688
I9
tp277
a(F1.8923177719116211
I9
tp278
a(F1.8930258750915527
I9
tp279
a(F1.8941857814788818
I9
tp280
a(F1.8951218128204346
I9
tp281
a(F1.896345853805542
I9
tp282
a(F1.8973538875579834
I9
tp283
a(F1.8983659744262695
I9
tp284
a(F1.8994929790496826
I9
tp285
a(F1.900256872177124
I9
tp286
a(F1.9012348651885986
I9
tp287
a(F1.9023408889770508
I9
tp288
a(F1.9033639430999756
I9
tp289
a(F1.9043309688568115
I9
tp290
a(F1.9050748348236084
I9
tp291
a(F1.906113862991333
I9
tp292
a(F1.9071378707885742
I9
tp293
a(F1.9083638191223145
I9
tp294
a(F1.9093849658966064
I9
tp295
a(F1.9108998775482178
I9
tp296
a(F1.9121840000152588
I9
tp297
a(F1.9129848480224609
I9
tp298
a(F1.9141108989715576
I9
tp299
a(F1.9146578311920166
I9
tp300
a(F1.9152989387512207
I9
tp301
a(F1.9159069061279297
I9
tp302
a(F1.9166109561920166
I9
tp303
a(F1.9177389144897461
I9
tp304
a(F1.9189298152923584
I9
tp305
a(F1.9198968410491943
I9
tp306
a(F1.9208118915557861
I9
tp307
a(F1.9217758178710938
I9
tp308
a(F1.9227468967437744
I9
tp309
a(F1.9233508110046387
I9
tp310
a(F1.9246718883514404
I9
tp311
a(F1.925703763961792
I9
tp312
a(F1.9263479709625244
I9
tp313
a(F1.926832914352417
I9
tp314
a(F1.9281859397888184
I9
tp315
a(F1.9291508197784424
I9
tp316
a(F1.9299559593200684
I9
tp317
a(F1.9308149814605713
I9
tp318
a(F1.932100772857666
I9
tp319
a(F1.9328429698944092
I9
tp320
a(F1.9335858821868896
I9
tp321
a(F1.9344937801361084
I9
tp322
a(F1.9356758594512939
I9
tp323
a(F1.9363188743591309
I9
tp324
a(F1.9371218681335449
I9
tp325
a(F1.9384078979492188
I9
tp326
a(F1.9392499923706055
I9
tp327
a(F1.9399569034576416
I9
tp328
a(F1.9405739307403564
I9
tp329
a(F1.9414188861846924
I9
tp330
a(F1.9423809051513672
I9
tp331
a(F1.9431829452514648
I9
tp332
a(F1.9440889358520508
I9
tp333
a(F1.9446918964385986
I9
tp334
a(F1.9455559253692627
I9
tp335
a(F1.9462969303131104
I9
tp336
a(F1.9472618103027344
I9
tp337
a(F1.9482288360595703
I9
tp338
a(F1.9489738941192627
I9
tp339
a(F1.9499359130859375
I9
tp340
a(F1.9508559703826904
I9
tp341
a(F1.9515008926391602
I9
tp342
a(F1.9523429870605469
I9
tp343
a(F1.9533319473266602
I9
tp344
a(F1.9541378021240234
I9
tp345
a(F1.9551408290863037
I9
tp346
a(F1.9562668800354004
I9
tp347
a(F1.9574029445648193
I9
tp348
a(F1.9584019184112549
I9
tp349
a(F1.9592478275299072
I9
tp350
a(F1.9601547718048096
I9
tp351
a(F1.9610669612884521
I9
tp352
a(F1.9620339870452881
I9
tp353
a(F1.9628758430480957
I9
tp354
a(F1.963641881942749
I9
tp355
a(F1.9643449783325195
I9
tp356
a(F1.9648289680480957
I9
tp357
a(F1.966052770614624
I9
tp358
a(F1.9671149253845215
I9
tp359
a(F1.9680848121643066
I9
tp360
a(F1.9688858985900879
I9
tp361
a(F1.9699487686157227
I9
tp362
a(F1.970801830291748
I9
tp363
a(F1.971768856048584
I9
tp364
a(F1.972639799118042
I9
tp365
a(F1.9736118316650391
I9
tp366
a(F1.9744207859039307
I9
tp367
a(F1.9755549430847168
I9
tp368
a(F1.9767429828643799
I9
tp369
a(F1.9776229858398438
I9
tp370
a(F1.9782698154449463
I9
tp371
a(F1.9791169166564941
I9
tp372
a(F1.9798197746276855
I9
tp373
a(F1.9810609817504883
I9
tp374
a(F1.9823958873748779
I9
tp375
aF40.06000000000131
tp376
sg48
((lp377
(F0.64599490165710449
I5
tp378
a(F0.64667987823486328
I5
tp379
a(F0.64758586883544922
I5
tp380
a(F0.64833188056945801
I5
tp381
a(F0.64942097663879395
I5
tp382
a(F0.65016603469848633
I5
tp383
a(F0.65106606483459473
I5
tp384
a(F0.65189599990844727
I5
tp385
a(F0.65272307395935059
I5
tp386
a(F0.65369391441345215
I5
tp387
a(F0.65446090698242188
I5
tp388
a(F0.6553499698638916
I5
tp389
a(F0.65621304512023926
I5
tp390
a(F0.6571049690246582
I5
tp391
a(F0.65813398361206055
I5
tp392
a(F0.65910005569458008
I5
tp393
a(F0.66001105308532715
I5
tp394
a(F0.66127800941467285
I5
tp395
a(F0.66222906112670898
I5
tp396
a(F0.66291499137878418
I5
tp397
a(F0.66337800025939941
I5
tp398
a(F0.66413998603820801
I5
tp399
a(F0.66498303413391113
I5
tp400
a(F0.66566896438598633
I5
tp401
a(F0.66641998291015625
I5
tp402
a(F0.6673119068145752
I5
tp403
a(F0.66814208030700684
I5
tp404
a(F0.66909003257751465
I5
tp405
a(F0.66969394683837891
I5
tp406
a(F0.67067503929138184
I5
tp407
a(F0.67156386375427246
I5
tp408
a(F0.67273187637329102
I5
tp409
a(F0.67369508743286133
I5
tp410
a(F0.67446088790893555
I5
tp411
a(F0.67514395713806152
I5
tp412
a(F0.67582988739013672
I5
tp413
a(F0.6765129566192627
I5
tp414
a(F0.67739987373352051
I5
tp415
a(F0.6781458854675293
I5
tp416
a(F0.67905187606811523
I5
tp417
a(F0.67988300323486328
I5
tp418
a(F0.68094706535339355
I5
tp419
a(F0.68191885948181152
I5
tp420
a(F0.68280887603759766
I5
tp421
a(F0.68363595008850098
I5
tp422
a(F0.68439388275146484
I5
tp423
a(F0.68550300598144531
I5
tp424
a(F0.68625092506408691
I5
tp425
a(F0.68716096878051758
I5
tp426
a(F0.68792009353637695
I5
tp427
a(F0.68868899345397949
I5
tp428
a(F0.68959903717041016
I5
tp429
a(F0.69022607803344727
I5
tp430
a(F0.69086790084838867
I5
tp431
a(F0.69178199768066406
I5
tp432
a(F0.69301390647888184
I5
tp433
a(F0.69383788108825684
I5
tp434
a(F0.69466495513916016
I5
tp435
a(F0.69563102722167969
I5
tp436
a(F0.69673991203308105
I5
tp437
a(F0.69757199287414551
I5
tp438
a(F0.69840002059936523
I5
tp439
a(F0.69914793968200684
I5
tp440
a(F0.70012187957763672
I5
tp441
a(F0.70085597038269043
I5
tp442
a(F0.70154309272766113
I5
tp443
a(F0.70230793952941895
I5
tp444
a(F0.70291304588317871
I5
tp445
a(F0.70367693901062012
I5
tp446
a(F0.70450401306152344
I5
tp447
a(F0.70518898963928223
I5
tp448
a(F0.7057340145111084
I5
tp449
a(F0.70653700828552246
I5
tp450
a(F0.70702600479125977
I5
tp451
a(F0.70777201652526855
I5
tp452
a(F0.70863890647888184
I5
tp453
a(F0.70967006683349609
I5
tp454
a(F0.71044588088989258
I5
tp455
a(F0.71133589744567871
I5
tp456
a(F0.71196198463439941
I5
tp457
a(F0.71270895004272461
I5
tp458
a(F0.71367692947387695
I5
tp459
a(F0.71444201469421387
I5
tp460
a(F0.71520805358886719
I5
tp461
a(F0.71601986885070801
I5
tp462
a(F0.71721601486206055
I5
tp463
a(F0.71783995628356934
I5
tp464
a(F0.71866893768310547
I5
tp465
a(F0.7196199893951416
I5
tp466
a(F0.72103285789489746
I5
tp467
a(F0.72194099426269531
I5
tp468
a(F0.72271895408630371
I5
tp469
a(F0.72312688827514648
I5
tp470
a(F0.72375297546386719
I5
tp471
a(F0.72463893890380859
I5
tp472
a(F0.72512102127075195
I5
tp473
a(F0.7258908748626709
I5
tp474
a(F0.7265779972076416
I5
tp475
a(F0.72718095779418945
I5
tp476
a(F0.7281489372253418
I5
tp477
a(F0.72889304161071777
I5
tp478
a(F0.72993993759155273
I5
tp479
a(F0.73106288909912109
I5
tp480
a(F0.73172807693481445
I5
tp481
a(F0.73220992088317871
I5
tp482
a(F0.7330169677734375
I5
tp483
a(F0.73398089408874512
I5
tp484
a(F0.73472785949707031
I5
tp485
a(F0.73574399948120117
I5
tp486
a(F0.73642897605895996
I5
tp487
a(F0.73754286766052246
I5
tp488
a(F0.73810696601867676
I5
tp489
a(F0.73881292343139648
I5
tp490
a(F0.73949909210205078
I5
tp491
a(F0.74056100845336914
I5
tp492
a(F0.74138689041137695
I5
tp493
a(F0.7420809268951416
I5
tp494
a(F0.74263191223144531
I5
tp495
a(F0.74339890480041504
I5
tp496
a(F0.74442791938781738
I5
tp497
a(F0.74539804458618164
I5
tp498
a(F0.74602389335632324
I5
tp499
a(F0.74658703804016113
I5
tp500
a(F0.74721097946166992
I5
tp501
a(F0.7478179931640625
I5
tp502
a(F0.74870586395263672
I5
tp503
a(F0.74941396713256836
I5
tp504
a(F0.75030398368835449
I5
tp505
a(F0.75086092948913574
I5
tp506
a(F0.75161409378051758
I5
tp507
a(F0.75230002403259277
I5
tp508
a(F0.75304388999938965
I5
tp509
a(F0.75393295288085938
I5
tp510
a(F0.75449705123901367
I5
tp511
a(F0.7552039623260498
I5
tp512
a(F0.75581002235412598
I5
tp513
a(F0.75670194625854492
I5
tp514
a(F0.75779891014099121
I5
tp515
a(F0.75850796699523926
I5
tp516
a(F0.7594599723815918
I5
tp517
a(F0.76014900207519531
I5
tp518
a(F0.76107001304626465
I5
tp519
a(F0.76181793212890625
I5
tp520
a(F0.76262903213500977
I5
tp521
a(F0.76319408416748047
I5
tp522
a(F0.76402497291564941
I5
tp523
a(F0.76479291915893555
I5
tp524
a(F0.76553893089294434
I5
tp525
a(F0.76637005805969238
I5
tp526
a(F0.76677489280700684
I5
tp527
a(F0.76746201515197754
I5
tp528
a(F0.76808786392211914
I5
tp529
a(F0.76885890960693359
I5
tp530
a(F0.76997494697570801
I5
tp531
a(F0.77053308486938477
I5
tp532
a(F0.77136492729187012
I5
tp533
a(F0.77219486236572266
I5
tp534
a(F0.77288198471069336
I5
tp535
a(F0.77371597290039062
I5
tp536
a(F0.77454090118408203
I5
tp537
a(F0.77543187141418457
I5
tp538
a(F0.77647900581359863
I5
tp539
a(F0.77734589576721191
I5
tp540
a(F0.77831292152404785
I5
tp541
a(F0.77942800521850586
I5
tp542
a(F0.7803199291229248
I5
tp543
a(F0.78079605102539062
I5
tp544
a(F0.78150296211242676
I5
tp545
a(F0.78233098983764648
I5
tp546
a(F0.78309798240661621
I5
tp547
a(F0.78407096862792969
I5
tp548
a(F0.78455400466918945
I5
tp549
a(F0.78552699089050293
I5
tp550
a(F0.78627800941467285
I5
tp551
a(F0.78686690330505371
I5
tp552
a(F0.78775691986083984
I5
tp553
a(F0.78838300704956055
I5
tp554
a(F0.78906893730163574
I5
tp555
a(F0.78967785835266113
I5
tp556
a(F0.79027485847473145
I5
tp557
a(F0.79105591773986816
I5
tp558
a(F0.79188895225524902
I5
tp559
a(F0.79278302192687988
I5
tp560
a(F0.79344892501831055
I5
tp561
a(F0.7939910888671875
I5
tp562
a(F0.79445290565490723
I5
tp563
a(F0.79548501968383789
I5
tp564
a(F0.79637503623962402
I5
tp565
a(F0.79703998565673828
I5
tp566
a(F0.79766488075256348
I5
tp567
a(F0.79829001426696777
I5
tp568
a(F0.79875397682189941
I5
tp569
a(F0.7995140552520752
I5
tp570
a(F0.80035591125488281
I5
tp571
a(F0.80132794380187988
I5
tp572
a(F0.80187392234802246
I5
tp573
a(F0.802703857421875
I5
tp574
a(F0.80367708206176758
I5
tp575
a(F0.80438494682312012
I5
tp576
a(F0.80507707595825195
I5
tp577
a(F0.80588603019714355
I5
tp578
a(F0.80697798728942871
I5
tp579
a(F0.80786991119384766
I5
tp580
a(F0.80878305435180664
I5
tp581
a(F0.80946803092956543
I5
tp582
a(F0.81045007705688477
I5
tp583
a(F0.81091403961181641
I5
tp584
a(F0.81145906448364258
I5
tp585
a(F0.81214690208435059
I5
tp586
a(F0.81289100646972656
I5
tp587
a(F0.81383395195007324
I5
tp588
a(F0.81459903717041016
I5
tp589
a(F0.8155670166015625
I5
tp590
a(F0.81596803665161133
I5
tp591
a(F0.81669092178344727
I5
tp592
a(F0.81763696670532227
I5
tp593
a(F0.81846189498901367
I5
tp594
a(F0.81949305534362793
I5
tp595
a(F0.82032108306884766
I5
tp596
a(F0.82114100456237793
I5
tp597
a(F0.82231593132019043
I5
tp598
a(F0.82320809364318848
I5
tp599
aF40.279999999998836
tp600
sg75
((lp601
F40.25
tp602
sg106
((lp603
F36.049999999999272
tp604
ssba(imeasure_core
ProblemSetSolution
p605
(dp606
g3
(imeasure_core
RoomSet
p607
(dp608
g6
(dp609
(iproblems
RoomID
p610
(dp611
g10
I8
sg11
(I9
I3
tp612
sg13
I4
sg14
I11
sg15
I12
sg16
I5594871498841892311
sb(imulti_robot_problem
MultiRobotState
p613
(dp614
g19
g20
((lp615
(I5
I9
tp616
a(I6
I9
tp617
a(I11
I9
tp618
a(I9
I1
tp619
a(I4
I8
tp620
a(I8
I0
tp621
a(I6
I0
tp622
a(I9
I9
tp623
ag612
a(I9
I4
tp624
a(I4
I2
tp625
a(I3
I7
tp626
a(I5
I8
tp627
a(I7
I9
tp628
a(I10
I8
tp629
a(I9
I0
tp630
a(I7
I0
tp631
a(I6
I8
tp632
a(I9
I2
tp633
a(I5
I7
tp634
a(I8
I10
tp635
a(I2
I0
tp636
a(I5
I0
tp637
a(I0
I9
tp638
a(I10
I0
tp639
a(I10
I2
tp640
atp641
Rp642
sg15
I12
sg30
g20
((lp643
(I2
I6
tp644
a(I11
I5
tp645
a(I6
I1
tp646
a(I11
I1
tp647
a(I2
I1
tp648
a(I8
I8
tp649
a(I0
I2
tp650
a(I3
I5
tp651
atp652
Rp653
sg13
((I9
I7
tp654
(I10
I5
tp655
(I6
I5
tp656
(I8
I3
tp657
tp658
sg14
I11
sbs(iproblems
RoomID
p659
(dp660
g10
I6
sg11
(I9
I4
tp661
sg13
I4
sg14
I9
sg15
I10
sg16
I8833747186876682921
sb(imulti_robot_problem
MultiRobotState
p662
(dp663
g19
g20
((lp664
(I4
I7
tp665
a(I4
I8
tp666
a(I4
I5
tp667
a(I2
I1
tp668
a(I7
I5
tp669
a(I2
I3
tp670
ag661
a(I2
I5
tp671
a(I6
I5
tp672
a(I3
I5
tp673
a(I2
I7
tp674
a(I8
I3
tp675
a(I5
I5
tp676
a(I3
I4
tp677
a(I7
I4
tp678
a(I5
I6
tp679
a(I8
I8
tp680
a(I3
I6
tp681
a(I4
I1
tp682
a(I1
I1
tp683
atp684
Rp685
sg15
I10
sg30
g20
((lp686
(I3
I2
tp687
a(I6
I2
tp688
a(I7
I0
tp689
a(I1
I4
tp690
a(I0
I4
tp691
a(I0
I7
tp692
atp693
Rp694
sg13
((I3
I1
tp695
(I8
I1
tp696
(I3
I3
tp697
(I4
I2
tp698
tp699
sg14
I9
sbs(iproblems
RoomID
p700
(dp701
g10
I7
sg11
(I8
I4
tp702
sg13
I4
sg14
I10
sg15
I11
sg16
I365562409358139953
sb(imulti_robot_problem
MultiRobotState
p703
(dp704
g19
g20
((lp705
(I7
I3
tp706
a(I8
I7
tp707
a(I4
I8
tp708
a(I2
I8
tp709
a(I5
I9
tp710
a(I6
I2
tp711
a(I1
I6
tp712
a(I9
I4
tp713
a(I6
I4
tp714
a(I9
I6
tp715
a(I6
I5
tp716
a(I10
I8
tp717
a(I10
I5
tp718
a(I6
I7
tp719
a(I10
I7
tp720
a(I7
I6
tp721
a(I3
I1
tp722
a(I0
I5
tp723
a(I3
I8
tp724
a(I7
I5
tp725
a(I8
I6
tp726
ag702
a(I5
I2
tp727
a(I6
I1
tp728
a(I9
I7
tp729
atp730
Rp731
sg15
I11
sg30
g20
((lp732
(I5
I6
tp733
a(I6
I9
tp734
a(I1
I7
tp735
a(I4
I5
tp736
a(I10
I3
tp737
a(I0
I2
tp738
a(I2
I1
tp739
atp740
Rp741
sg13
((I10
I4
tp742
(I7
I4
tp743
(I3
I6
tp744
(I8
I9
tp745
tp746
sg14
I10
sbs(iproblems
RoomID
p747
(dp748
g10
I10
sg11
(I4
I8
tp749
sg13
I3
sg14
I11
sg15
I9
sg16
I6645345695289302126
sb(imulti_robot_problem
MultiRobotState
p750
(dp751
g19
g20
((lp752
(I5
I9
tp753
a(I3
I2
tp754
a(I3
I1
tp755
ag749
a(I4
I5
tp756
a(I1
I4
tp757
a(I4
I2
tp758
a(I3
I7
tp759
a(I4
I6
tp760
a(I3
I3
tp761
a(I4
I1
tp762
a(I6
I1
tp763
a(I4
I4
tp764
a(I2
I4
tp765
a(I3
I8
tp766
a(I1
I5
tp767
a(I4
I3
tp768
a(I3
I5
tp769
a(I3
I4
tp770
a(I1
I1
tp771
a(I8
I4
tp772
atp773
Rp774
sg15
I9
sg30
g20
((lp775
(I0
I1
tp776
a(I5
I4
tp777
a(I6
I7
tp778
a(I8
I2
tp779
a(I8
I7
tp780
a(I8
I8
tp781
a(I2
I3
tp782
a(I3
I6
tp783
a(I1
I0
tp784
a(I5
I5
tp785
atp786
Rp787
sg13
((I1
I6
tp788
(I0
I9
tp789
(I0
I5
tp790
tp791
sg14
I11
sbssg130
S'mild_roomset'
p792
sbsg130
g132
sg133
(dp793
g610
((lp794
F40.079999999998108
tp795
sg659
((lp796
F40.010000000002037
tp797
sg700
((lp798
F40.059999999997672
tp799
sg747
((lp800
F40.029999999998836
tp801
ssba(imeasure_core
ProblemSetSolution
p802
(dp803
g3
(imeasure_core
RoomSet
p804
(dp805
g6
(dp806
(iproblems
RoomID
p807
(dp808
g10
I13
sg11
(I9
I8
tp809
sg13
I7
sg14
I12
sg15
I13
sg16
I5594871498841892311
sb(imulti_robot_problem
MultiRobotState
p810
(dp811
g19
g20
((lp812
(I5
I9
tp813
a(I6
I9
tp814
a(I1
I3
tp815
a(I10
I4
tp816
a(I4
I8
tp817
ag809
a(I1
I4
tp818
a(I11
I3
tp819
a(I8
I6
tp820
a(I9
I6
tp821
a(I5
I5
tp822
a(I9
I5
tp823
a(I6
I7
tp824
a(I6
I8
tp825
a(I6
I10
tp826
a(I8
I10
tp827
a(I5
I0
tp828
a(I10
I0
tp829
a(I7
I9
tp830
a(I9
I7
tp831
atp832
Rp833
sg15
I13
sg30
g20
((lp834
(I2
I7
tp835
a(I10
I5
tp836
a(I11
I5
tp837
a(I6
I1
tp838
a(I8
I0
tp839
a(I2
I1
tp840
a(I2
I0
tp841
a(I0
I10
tp842
a(I7
I10
tp843
a(I12
I10
tp844
a(I5
I2
tp845
a(I0
I2
tp846
a(I3
I5
tp847
atp848
Rp849
sg13
((I10
I8
tp850
(I11
I6
tp851
(I7
I5
tp852
(I9
I3
tp853
(I9
I11
tp854
(I12
I1
tp855
(I9
I9
tp856
tp857
sg14
I12
sbs(iproblems
RoomID
p858
(dp859
g10
I11
sg11
(I8
I7
tp860
sg13
I7
sg14
I10
sg15
I11
sg16
I8833747186876682921
sb(imulti_robot_problem
MultiRobotState
p861
(dp862
g19
g20
((lp863
(I5
I7
tp864
a(I4
I8
tp865
a(I4
I5
tp866
a(I2
I1
tp867
ag860
a(I5
I1
tp868
a(I5
I5
tp869
a(I6
I7
tp870
a(I4
I6
tp871
a(I8
I1
tp872
a(I4
I4
tp873
a(I6
I3
tp874
a(I8
I8
tp875
a(I3
I3
tp876
a(I7
I8
tp877
a(I10
I2
tp878
atp879
Rp880
sg15
I11
sg30
g20
((lp881
(I10
I5
tp882
a(I7
I6
tp883
a(I4
I7
tp884
a(I1
I4
tp885
a(I9
I9
tp886
a(I3
I8
tp887
a(I0
I5
tp888
a(I8
I6
tp889
a(I2
I5
tp890
a(I0
I8
tp891
a(I7
I2
tp892
atp893
Rp894
sg13
((I3
I1
tp895
(I9
I1
tp896
(I5
I2
tp897
(I4
I3
tp898
(I8
I0
tp899
(I10
I4
tp900
(I8
I5
tp901
tp902
sg14
I10
sbs(iproblems
RoomID
p903
(dp904
g10
I12
sg11
(I0
I5
tp905
sg13
I7
sg14
I11
sg15
I12
sg16
I365562409358139953
sb(imulti_robot_problem
MultiRobotState
p906
(dp907
g19
g20
((lp908
(I1
I3
tp909
a(I6
I6
tp910
a(I0
I4
tp911
a(I7
I5
tp912
ag905
a(I8
I7
tp913
a(I4
I2
tp914
a(I2
I9
tp915
a(I10
I7
tp916
a(I7
I8
tp917
a(I7
I6
tp918
a(I3
I1
tp919
a(I4
I8
tp920
a(I3
I9
tp921
a(I2
I2
tp922
a(I8
I6
tp923
a(I5
I2
tp924
a(I11
I6
tp925
a(I8
I4
tp926
atp927
Rp928
sg15
I12
sg30
g20
((lp929
(I3
I2
tp930
a(I11
I9
tp931
a(I4
I9
tp932
a(I10
I4
tp933
a(I5
I7
tp934
a(I2
I1
tp935
a(I0
I6
tp936
a(I1
I6
tp937
a(I7
I10
tp938
a(I3
I7
tp939
a(I5
I10
tp940
a(I0
I2
tp941
atp942
Rp943
sg13
((I6
I3
tp944
(I10
I5
tp945
(I3
I6
tp946
(I8
I10
tp947
(I4
I6
tp948
(I11
I3
tp949
(I1
I8
tp950
tp951
sg14
I11
sbs(iproblems
RoomID
p952
(dp953
g10
I13
sg11
(I3
I8
tp954
sg13
I5
sg14
I10
sg15
I10
sg16
I5338040351619750409
sb(imulti_robot_problem
MultiRobotState
p955
(dp956
g19
g20
((lp957
(I4
I7
tp958
a(I2
I6
tp959
a(I9
I1
tp960
a(I2
I8
tp961
a(I6
I1
tp962
a(I1
I4
tp963
ag954
a(I1
I6
tp964
a(I4
I3
tp965
a(I1
I7
tp966
a(I2
I5
tp967
a(I9
I7
tp968
a(I2
I4
tp969
a(I6
I8
tp970
atp971
Rp972
sg15
I10
sg30
g20
((lp973
(I6
I9
tp974
a(I1
I3
tp975
a(I4
I9
tp976
a(I4
I6
tp977
a(I6
I6
tp978
a(I8
I3
tp979
a(I2
I1
tp980
a(I8
I9
tp981
a(I1
I8
tp982
a(I7
I5
tp983
a(I3
I6
tp984
a(I9
I6
tp985
a(I4
I0
tp986
atp987
Rp988
sg13
((I2
I0
tp989
(I3
I5
tp990
(I5
I0
tp991
(I5
I2
tp992
(I4
I5
tp993
tp994
sg14
I10
sbssg130
S'heavy_roomset'
p995
sbsg130
g132
sg133
(dp996
g807
((lp997
F40.220000000001164
tp998
sg858
((lp999
F44.110000000000582
tp1000
sg903
((lp1001
F41.340000000000146
tp1002
sg952
((lp1003
F40.150000000001455
tp1004
ssba(imeasure_core
ProblemSetSolution
p1005
(dp1006
g3
(imeasure_core
RoomSet
p1007
(dp1008
g6
(dp1009
S'complexRoom'
p1010
(imulti_robot_problem
MultiRobotState
p1011
(dp1012
g19
g20
((lp1013
(I2
I7
tp1014
a(I7
I3
tp1015
a(I6
I3
tp1016
a(I3
I3
tp1017
a(I7
I6
tp1018
a(I7
I4
tp1019
a(I7
I5
tp1020
a(I2
I3
tp1021
a(I4
I3
tp1022
a(I2
I5
tp1023
a(I2
I4
tp1024
a(I5
I3
tp1025
atp1026
Rp1027
sg15
I11
sg30
g20
((lp1028
(I1
I0
tp1029
a(I9
I0
tp1030
atp1031
Rp1032
sg13
((I6
I4
tp1033
(I1
I6
tp1034
tp1035
sg14
I8
sbsS'exampleProblem'
p1036
(imulti_robot_problem
MultiRobotState
p1037
(dp1038
g19
g20
((lp1039
tp1040
Rp1041
sg15
I5
sg30
g20
((lp1042
(I1
I3
tp1043
a(I3
I1
tp1044
a(I1
I1
tp1045
a(I3
I3
tp1046
atp1047
Rp1048
sg13
((I2
I2
tp1049
tp1050
sg14
I5
sbsS'linear_test'
p1051
(imulti_robot_problem
MultiRobotState
p1052
(dp1053
g19
g1041
sg15
I12
sg30
g20
((lp1054
(I11
I0
tp1055
a(I1
I0
tp1056
a(I9
I0
tp1057
atp1058
Rp1059
sg13
((I3
I0
tp1060
(I1
I2
tp1061
tp1062
sg14
I7
sbsS'obstacle_Far_CloseTest'
p1063
(imulti_robot_problem
MultiRobotState
p1064
(dp1065
g19
g20
((lp1066
(I0
I1
tp1067
a(I7
I3
tp1068
a(I3
I1
tp1069
a(I7
I1
tp1070
a(I4
I5
tp1071
a(I7
I6
tp1072
a(I4
I4
tp1073
a(I2
I1
tp1074
a(I7
I4
tp1075
a(I7
I5
tp1076
a(I4
I3
tp1077
a(I4
I2
tp1078
a(I4
I1
tp1079
a(I1
I1
tp1080
a(I7
I2
tp1081
atp1082
Rp1083
sg15
I12
sg30
g20
((lp1084
(I3
I2
tp1085
a(I9
I6
tp1086
atp1087
Rp1088
sg13
((I0
I0
tp1089
(I6
I6
tp1090
tp1091
sg14
I7
sbsS'zigzag'
p1092
(imulti_robot_problem
MultiRobotState
p1093
(dp1094
g19
g20
((lp1095
(I1
I2
tp1096
a(I3
I2
tp1097
a(I1
I3
tp1098
a(I3
I0
tp1099
a(I3
I1
tp1100
a(I5
I1
tp1101
a(I5
I2
tp1102
a(I1
I1
tp1103
a(I5
I3
tp1104
atp1105
Rp1106
sg15
I20
sg30
g20
((lp1107
(I6
I3
tp1108
atp1109
Rp1110
sg13
((I0
I3
tp1111
(I19
I3
tp1112
tp1113
sg14
I4
sbsS'room1'
p1114
(imulti_robot_problem
MultiRobotState
p1115
(dp1116
g19
g20
((lp1117
(I6
I3
tp1118
a(I7
I3
tp1119
a(I8
I3
tp1120
a(I2
I3
tp1121
a(I3
I3
tp1122
a(I4
I3
tp1123
a(I5
I3
tp1124
atp1125
Rp1126
sg15
I9
sg30
g20
((lp1127
(I0
I0
tp1128
a(I2
I1
tp1129
atp1130
Rp1131
sg13
((I6
I1
tp1132
(I6
I5
tp1133
tp1134
sg14
I6
sbsS'complexRoom2'
p1135
(imulti_robot_problem
MultiRobotState
p1136
(dp1137
g19
g20
((lp1138
(I7
I3
tp1139
a(I1
I3
tp1140
a(I7
I1
tp1141
a(I4
I5
tp1142
a(I9
I3
tp1143
a(I5
I5
tp1144
a(I2
I6
tp1145
a(I2
I3
tp1146
a(I5
I1
tp1147
a(I0
I3
tp1148
a(I10
I3
tp1149
a(I2
I5
tp1150
a(I6
I5
tp1151
a(I5
I3
tp1152
a(I2
I7
tp1153
a(I8
I3
tp1154
a(I3
I3
tp1155
a(I5
I2
tp1156
a(I7
I6
tp1157
a(I3
I1
tp1158
a(I6
I3
tp1159
a(I7
I5
tp1160
a(I4
I3
tp1161
a(I3
I5
tp1162
a(I4
I1
tp1163
a(I6
I1
tp1164
atp1165
Rp1166
sg15
I11
sg30
g20
((lp1167
(I7
I2
tp1168
a(I0
I7
tp1169
atp1170
Rp1171
sg13
((I1
I2
tp1172
(I3
I6
tp1173
tp1174
sg14
I8
sbsS'zigzagUpright'
p1175
(imulti_robot_problem
MultiRobotState
p1176
(dp1177
g19
g20
((lp1178
(I1
I3
tp1179
a(I3
I1
tp1180
a(I2
I1
tp1181
a(I1
I1
tp1182
a(I1
I5
tp1183
a(I2
I3
tp1184
a(I2
I5
tp1185
a(I0
I3
tp1186
a(I3
I5
tp1187
atp1188
Rp1189
sg15
I4
sg30
g20
((lp1190
(I3
I6
tp1191
atp1192
Rp1193
sg13
((I3
I0
tp1194
(I3
I19
tp1195
tp1196
sg14
I20
sbsS'ivansRevenge'
p1197
(imulti_robot_problem
MultiRobotState
p1198
(dp1199
g19
g1041
sg15
I10
sg30
g20
((lp1200
(I9
I2
tp1201
a(I0
I0
tp1202
atp1203
Rp1204
sg13
((I9
I0
tp1205
(I0
I2
tp1206
tp1207
sg14
I3
sbsS'roomLongWithObstaccle'
p1208
(imulti_robot_problem
MultiRobotState
p1209
(dp1210
g19
g20
((lp1211
(I0
I1
tp1212
a(I12
I1
tp1213
a(I9
I1
tp1214
a(I7
I1
tp1215
a(I8
I1
tp1216
a(I6
I1
tp1217
a(I3
I1
tp1218
a(I2
I1
tp1219
a(I11
I1
tp1220
a(I10
I1
tp1221
a(I5
I1
tp1222
a(I4
I1
tp1223
a(I1
I1
tp1224
atp1225
Rp1226
sg15
I15
sg30
g20
((lp1227
(I0
I2
tp1228
a(I14
I6
tp1229
atp1230
Rp1231
sg13
((I0
I0
tp1232
(I0
I6
tp1233
tp1234
sg14
I7
sbsS'twoRobotsInOpCorners'
p1235
(imulti_robot_problem
MultiRobotState
p1236
(dp1237
g19
g1041
sg15
I5
sg30
g20
((lp1238
(I0
I0
tp1239
a(I4
I4
tp1240
atp1241
Rp1242
sg13
((I3
I0
tp1243
(I0
I3
tp1244
tp1245
sg14
I5
sbsS'split2'
p1246
(imulti_robot_problem
MultiRobotState
p1247
(dp1248
g19
g1041
sg15
I10
sg30
g20
((lp1249
(I0
I9
tp1250
a(I9
I0
tp1251
a(I0
I0
tp1252
a(I9
I9
tp1253
atp1254
Rp1255
sg13
((I1
I1
tp1256
(I8
I1
tp1257
(I4
I5
tp1258
(I5
I5
tp1259
tp1260
sg14
I10
sbsS'split3'
p1261
(imulti_robot_problem
MultiRobotState
p1262
(dp1263
g19
g1041
sg15
I10
sg30
g20
((lp1264
(I0
I9
tp1265
a(I9
I0
tp1266
a(I0
I0
tp1267
a(I9
I9
tp1268
atp1269
Rp1270
sg13
((I1
I1
tp1271
(I8
I1
tp1272
(I1
I7
tp1273
(I7
I7
tp1274
tp1275
sg14
I10
sbsS'gaintRoom'
p1276
(imulti_robot_problem
MultiRobotState
p1277
(dp1278
g19
g1041
sg15
I5
sg30
g20
((lp1279
(I4
I0
tp1280
a(I4
I4
tp1281
a(I0
I4
tp1282
atp1283
Rp1284
sg13
((I0
I0
tp1285
tp1286
sg14
I5
sbsS'gaintRoomWithWall'
p1287
(imulti_robot_problem
MultiRobotState
p1288
(dp1289
g19
g20
((lp1290
(I2
I4
tp1291
atp1292
Rp1293
sg15
I5
sg30
g20
((lp1294
(I4
I0
tp1295
a(I4
I4
tp1296
a(I0
I4
tp1297
atp1298
Rp1299
sg13
((I0
I0
tp1300
tp1301
sg14
I5
sbsS'split'
p1302
(imulti_robot_problem
MultiRobotState
p1303
(dp1304
g19
g1041
sg15
I10
sg30
g20
((lp1305
(I0
I9
tp1306
a(I9
I0
tp1307
a(I0
I0
tp1308
a(I9
I9
tp1309
atp1310
Rp1311
sg13
((I4
I4
tp1312
(I5
I4
tp1313
(I4
I5
tp1314
(I5
I5
tp1315
tp1316
sg14
I10
sbsS'twoRobots'
p1317
(imulti_robot_problem
MultiRobotState
p1318
(dp1319
g19
g1041
sg15
I9
sg30
g20
((lp1320
(I8
I0
tp1321
a(I0
I0
tp1322
atp1323
Rp1324
sg13
((I2
I0
tp1325
(I0
I3
tp1326
tp1327
sg14
I4
sbssg130
S'static_rooms'
p1328
sbsg130
g132
sg133
(dp1329
g1246
((lp1330
F40.030000000002474
tp1331
sg1261
((lp1332
F40.069999999999709
tp1333
sg1010
((lp1334
F5.1899999999986903
tp1335
sg1276
((lp1336
F0.0099999999983992893
tp1337
sg1036
((lp1338
F0.11000000000058208
tp1339
sg1051
((lp1340
F27.760000000002037
tp1341
sg1063
((lp1342
F0.62999999999738066
tp1343
sg1317
((lp1344
F0.29000000000087311
tp1345
sg1287
((lp1346
F0.0
tp1347
sg1092
((lp1348
F1.9099999999998545
tp1349
sg1114
((lp1350
F7.1900000000023283
tp1351
sg1135
((lp1352
F1.5999999999985448
tp1353
sg1175
((lp1354
F1.6399999999994179
tp1355
sg1197
((lp1356
(F0.0023820400238037109
I2
tp1357
aF0.19000000000232831
tp1358
sg1208
((lp1359
F0.049999999999272404
tp1360
sg1235
((lp1361
F0.57999999999810825
tp1362
sg1302
((lp1363
F40.130000000001019
tp1364
ssba(imeasure_core
ProblemSetSolution
p1365
(dp1366
g3
g4
sg130
S'AnytimeBest-d80_with_PowerHeuristic2'
p1367
sg133
(dp1368
g8
((lp1369
(F1.7661049365997314
I9
tp1370
a(F1.7669680118560791
I9
tp1371
a(F1.7678298950195312
I9
tp1372
a(F1.7690088748931885
I9
tp1373
a(F1.7701268196105957
I9
tp1374
a(F1.7714118957519531
I9
tp1375
a(F1.7728238105773926
I9
tp1376
a(F1.7737889289855957
I9
tp1377
a(F1.7748539447784424
I9
tp1378
a(F1.7761468887329102
I9
tp1379
a(F1.7773280143737793
I9
tp1380
a(F1.7782487869262695
I9
tp1381
a(F1.7792727947235107
I9
tp1382
a(F1.780303955078125
I9
tp1383
a(F1.781174898147583
I9
tp1384
a(F1.7819778919219971
I9
tp1385
a(F1.7832038402557373
I9
tp1386
a(F1.7841618061065674
I9
tp1387
a(F1.7849609851837158
I9
tp1388
a(F1.7856588363647461
I9
tp1389
a(F1.7873108386993408
I9
tp1390
a(F1.7881739139556885
I9
tp1391
a(F1.7896709442138672
I9
tp1392
a(F1.7904319763183594
I9
tp1393
a(F1.7916138172149658
I9
tp1394
a(F1.7926340103149414
I9
tp1395
a(F1.7939097881317139
I9
tp1396
a(F1.794827938079834
I9
tp1397
a(F1.7959468364715576
I9
tp1398
a(F1.7966639995574951
I9
tp1399
a(F1.7978827953338623
I9
tp1400
a(F1.7990717887878418
I9
tp1401
a(F1.8004539012908936
I9
tp1402
a(F1.8012537956237793
I9
tp1403
a(F1.8023138046264648
I9
tp1404
a(F1.8032698631286621
I9
tp1405
a(F1.8042290210723877
I9
tp1406
a(F1.8049678802490234
I9
tp1407
a(F1.8061950206756592
I9
tp1408
a(F1.8074188232421875
I9
tp1409
a(F1.8089628219604492
I9
tp1410
a(F1.8097639083862305
I9
tp1411
a(F1.8107278347015381
I9
tp1412
a(F1.8117468357086182
I9
tp1413
a(F1.813032865524292
I9
tp1414
a(F1.8136730194091797
I9
tp1415
a(F1.8149888515472412
I9
tp1416
a(F1.815910816192627
I9
tp1417
a(F1.8168818950653076
I9
tp1418
a(F1.8178420066833496
I9
tp1419
a(F1.8187398910522461
I9
tp1420
a(F1.8197948932647705
I9
tp1421
a(F1.8210539817810059
I9
tp1422
a(F1.8220129013061523
I9
tp1423
a(F1.8230719566345215
I9
tp1424
a(F1.8239679336547852
I9
tp1425
a(F1.8252298831939697
I9
tp1426
a(F1.826624870300293
I9
tp1427
a(F1.8274288177490234
I9
tp1428
a(F1.828394889831543
I9
tp1429
a(F1.8295779228210449
I9
tp1430
a(F1.8306369781494141
I9
tp1431
a(F1.8314378261566162
I9
tp1432
a(F1.8323369026184082
I9
tp1433
a(F1.8335578441619873
I9
tp1434
a(F1.8346250057220459
I9
tp1435
a(F1.8354887962341309
I9
tp1436
a(F1.8362419605255127
I9
tp1437
a(F1.836906909942627
I9
tp1438
a(F1.8380868434906006
I9
tp1439
a(F1.8389918804168701
I9
tp1440
a(F1.8403439521789551
I9
tp1441
a(F1.8412468433380127
I9
tp1442
a(F1.8424708843231201
I9
tp1443
a(F1.8435268402099609
I9
tp1444
a(F1.8445849418640137
I9
tp1445
a(F1.8459618091583252
I9
tp1446
a(F1.8467719554901123
I9
tp1447
a(F1.8479328155517578
I9
tp1448
a(F1.8488559722900391
I9
tp1449
a(F1.849653959274292
I9
tp1450
a(F1.8503918647766113
I9
tp1451
a(F1.8512909412384033
I9
tp1452
a(F1.8520908355712891
I9
tp1453
a(F1.8531148433685303
I9
tp1454
a(F1.8540778160095215
I9
tp1455
a(F1.8547768592834473
I9
tp1456
a(F1.8555788993835449
I9
tp1457
a(F1.8564169406890869
I9
tp1458
a(F1.8574190139770508
I9
tp1459
a(F1.8584768772125244
I9
tp1460
a(F1.85953688621521
I9
tp1461
a(F1.8607158660888672
I9
tp1462
a(F1.861710786819458
I9
tp1463
a(F1.8626139163970947
I9
tp1464
a(F1.863696813583374
I9
tp1465
a(F1.8644988536834717
I9
tp1466
a(F1.8652019500732422
I9
tp1467
a(F1.8662137985229492
I9
tp1468
a(F1.8671138286590576
I9
tp1469
a(F1.8682739734649658
I9
tp1470
a(F1.8693969249725342
I9
tp1471
a(F1.8704569339752197
I9
tp1472
a(F1.8715798854827881
I9
tp1473
a(F1.8724429607391357
I9
tp1474
a(F1.8732428550720215
I9
tp1475
a(F1.8738429546356201
I9
tp1476
a(F1.8749008178710938
I9
tp1477
a(F1.8760209083557129
I9
tp1478
a(F1.8772039413452148
I9
tp1479
a(F1.8779139518737793
I9
tp1480
a(F1.8788487911224365
I9
tp1481
a(F1.8798089027404785
I9
tp1482
a(F1.8804488182067871
I9
tp1483
a(F1.8816308975219727
I9
tp1484
a(F1.8824679851531982
I9
tp1485
a(F1.8836648464202881
I9
tp1486
a(F1.884943962097168
I9
tp1487
a(F1.8857448101043701
I9
tp1488
a(F1.8867177963256836
I9
tp1489
a(F1.8876149654388428
I9
tp1490
a(F1.8882558345794678
I9
tp1491
a(F1.8889927864074707
I9
tp1492
a(F1.8899528980255127
I9
tp1493
a(F1.8912968635559082
I9
tp1494
a(F1.8920989036560059
I9
tp1495
a(F1.8930618762969971
I9
tp1496
a(F1.8938629627227783
I9
tp1497
a(F1.8948209285736084
I9
tp1498
a(F1.8956208229064941
I9
tp1499
a(F1.8965938091278076
I9
tp1500
a(F1.8974928855895996
I9
tp1501
a(F1.8982918262481689
I9
tp1502
a(F1.8993728160858154
I9
tp1503
a(F1.9002389907836914
I9
tp1504
a(F1.9009799957275391
I9
tp1505
a(F1.9017488956451416
I9
tp1506
a(F1.9029309749603271
I9
tp1507
a(F1.904047966003418
I9
tp1508
a(F1.9052557945251465
I9
tp1509
a(F1.9062039852142334
I9
tp1510
a(F1.9070699214935303
I9
tp1511
a(F1.9080338478088379
I9
tp1512
a(F1.9087378978729248
I9
tp1513
a(F1.9098968505859375
I9
tp1514
a(F1.910836935043335
I9
tp1515
a(F1.9120578765869141
I9
tp1516
a(F1.9130527973175049
I9
tp1517
a(F1.914050817489624
I9
tp1518
a(F1.9151749610900879
I9
tp1519
a(F1.9159388542175293
I9
tp1520
a(F1.9169139862060547
I9
tp1521
a(F1.9180159568786621
I9
tp1522
a(F1.9190409183502197
I9
tp1523
a(F1.9200029373168945
I9
tp1524
a(F1.920745849609375
I9
tp1525
a(F1.9217689037322998
I9
tp1526
a(F1.9227869510650635
I9
tp1527
a(F1.9240128993988037
I9
tp1528
a(F1.9250338077545166
I9
tp1529
a(F1.926548957824707
I9
tp1530
a(F1.9278287887573242
I9
tp1531
a(F1.9286279678344727
I9
tp1532
a(F1.9297518730163574
I9
tp1533
a(F1.9303138256072998
I9
tp1534
a(F1.9309549331665039
I9
tp1535
a(F1.9315569400787354
I9
tp1536
a(F1.9322578907012939
I9
tp1537
a(F1.9333817958831787
I9
tp1538
a(F1.9345648288726807
I9
tp1539
a(F1.9355268478393555
I9
tp1540
a(F1.9364409446716309
I9
tp1541
a(F1.9374029636383057
I9
tp1542
a(F1.938363790512085
I9
tp1543
a(F1.9389698505401611
I9
tp1544
a(F1.9402890205383301
I9
tp1545
a(F1.9413080215454102
I9
tp1546
a(F1.9419498443603516
I9
tp1547
a(F1.9424309730529785
I9
tp1548
a(F1.943774938583374
I9
tp1549
a(F1.9447360038757324
I9
tp1550
a(F1.9455349445343018
I9
tp1551
a(F1.9463839530944824
I9
tp1552
a(F1.9476637840270996
I9
tp1553
a(F1.9484028816223145
I9
tp1554
a(F1.9491448402404785
I9
tp1555
a(F1.9500470161437988
I9
tp1556
a(F1.9512348175048828
I9
tp1557
a(F1.9518778324127197
I9
tp1558
a(F1.9526839256286621
I9
tp1559
a(F1.9539599418640137
I9
tp1560
a(F1.9547998905181885
I9
tp1561
a(F1.9555008411407471
I9
tp1562
a(F1.9561219215393066
I9
tp1563
a(F1.9569599628448486
I9
tp1564
a(F1.9579148292541504
I9
tp1565
a(F1.958716869354248
I9
tp1566
a(F1.9596178531646729
I9
tp1567
a(F1.9602208137512207
I9
tp1568
a(F1.9610857963562012
I9
tp1569
a(F1.9618268013000488
I9
tp1570
a(F1.9627869129180908
I9
tp1571
a(F1.9637508392333984
I9
tp1572
a(F1.9644849300384521
I9
tp1573
a(F1.9654428958892822
I9
tp1574
a(F1.9663469791412354
I9
tp1575
a(F1.9669828414916992
I9
tp1576
a(F1.9678118228912354
I9
tp1577
a(F1.9687809944152832
I9
tp1578
a(F1.9695758819580078
I9
tp1579
a(F1.9705648422241211
I9
tp1580
a(F1.9716789722442627
I9
tp1581
a(F1.9727909564971924
I9
tp1582
a(F1.973783016204834
I9
tp1583
a(F1.9746179580688477
I9
tp1584
a(F1.9755089282989502
I9
tp1585
a(F1.9764118194580078
I9
tp1586
a(F1.9773650169372559
I9
tp1587
a(F1.9781959056854248
I9
tp1588
a(F1.9789478778839111
I9
tp1589
a(F1.9796409606933594
I9
tp1590
a(F1.9801177978515625
I9
tp1591
a(F1.9813268184661865
I9
tp1592
a(F1.9823758602142334
I9
tp1593
a(F1.9833319187164307
I9
tp1594
a(F1.9841239452362061
I9
tp1595
a(F1.9851667881011963
I9
tp1596
a(F1.9859938621520996
I9
tp1597
a(F1.9869508743286133
I9
tp1598
a(F1.9878039360046387
I9
tp1599
a(F1.988757848739624
I9
tp1600
a(F1.9895529747009277
I9
tp1601
a(F1.9906649589538574
I9
tp1602
a(F1.9918358325958252
I9
tp1603
a(F1.9927089214324951
I9
tp1604
a(F1.9933438301086426
I9
tp1605
a(F1.9941749572753906
I9
tp1606
a(F1.9948678016662598
I9
tp1607
a(F1.996088981628418
I9
tp1608
a(F1.9973938465118408
I9
tp1609
aF40.259999999998399
tp1610
sg48
((lp1611
(F0.65191102027893066
I5
tp1612
a(F0.65259385108947754
I5
tp1613
a(F0.65349483489990234
I5
tp1614
a(F0.65424084663391113
I5
tp1615
a(F0.6553490161895752
I5
tp1616
a(F0.65609002113342285
I5
tp1617
a(F0.65696883201599121
I5
tp1618
a(F0.65778803825378418
I5
tp1619
a(F0.65860700607299805
I5
tp1620
a(F0.65956902503967285
I5
tp1621
a(F0.66032886505126953
I5
tp1622
a(F0.66120696067810059
I5
tp1623
a(F0.66206502914428711
I5
tp1624
a(F0.66294288635253906
I5
tp1625
a(F0.66396188735961914
I5
tp1626
a(F0.6649329662322998
I5
tp1627
a(F0.6658320426940918
I5
tp1628
a(F0.66707587242126465
I5
tp1629
a(F0.6680150032043457
I5
tp1630
a(F0.66869401931762695
I5
tp1631
a(F0.66915297508239746
I5
tp1632
a(F0.66991305351257324
I5
tp1633
a(F0.67075800895690918
I5
tp1634
a(F0.67143487930297852
I5
tp1635
a(F0.67217588424682617
I5
tp1636
a(F0.67305898666381836
I5
tp1637
a(F0.67387986183166504
I5
tp1638
a(F0.67482805252075195
I5
tp1639
a(F0.67542099952697754
I5
tp1640
a(F0.67637205123901367
I5
tp1641
a(F0.67724204063415527
I5
tp1642
a(F0.67838692665100098
I5
tp1643
a(F0.6793358325958252
I5
tp1644
a(F0.68008899688720703
I5
tp1645
a(F0.68076705932617188
I5
tp1646
a(F0.68143987655639648
I5
tp1647
a(F0.68211197853088379
I5
tp1648
a(F0.68298506736755371
I5
tp1649
a(F0.68371486663818359
I5
tp1650
a(F0.68461704254150391
I5
tp1651
a(F0.68543004989624023
I5
tp1652
a(F0.68646097183227539
I5
tp1653
a(F0.68741202354431152
I5
tp1654
a(F0.68828606605529785
I5
tp1655
a(F0.68910384178161621
I5
tp1656
a(F0.68984794616699219
I5
tp1657
a(F0.6909339427947998
I5
tp1658
a(F0.69167184829711914
I5
tp1659
a(F0.69256305694580078
I5
tp1660
a(F0.69329595565795898
I5
tp1661
a(F0.69404888153076172
I5
tp1662
a(F0.69495701789855957
I5
tp1663
a(F0.69557094573974609
I5
tp1664
a(F0.69618487358093262
I5
tp1665
a(F0.69707894325256348
I5
tp1666
a(F0.69828701019287109
I5
tp1667
a(F0.69909191131591797
I5
tp1668
a(F0.69990706443786621
I5
tp1669
a(F0.70085787773132324
I5
tp1670
a(F0.70194697380065918
I5
tp1671
a(F0.70275998115539551
I5
tp1672
a(F0.70357203483581543
I5
tp1673
a(F0.70431685447692871
I5
tp1674
a(F0.70527195930480957
I5
tp1675
a(F0.7059478759765625
I5
tp1676
a(F0.70661687850952148
I5
tp1677
a(F0.707366943359375
I5
tp1678
a(F0.70796298980712891
I5
tp1679
a(F0.70871090888977051
I5
tp1680
a(F0.70952391624450684
I5
tp1681
a(F0.71019887924194336
I5
tp1682
a(F0.71073198318481445
I5
tp1683
a(F0.71152400970458984
I5
tp1684
a(F0.71199893951416016
I5
tp1685
a(F0.71272993087768555
I5
tp1686
a(F0.7135920524597168
I5
tp1687
a(F0.71461701393127441
I5
tp1688
a(F0.71536898612976074
I5
tp1689
a(F0.71624183654785156
I5
tp1690
a(F0.71685600280761719
I5
tp1691
a(F0.71758484840393066
I5
tp1692
a(F0.71853399276733398
I5
tp1693
a(F0.71928596496582031
I5
tp1694
a(F0.72003483772277832
I5
tp1695
a(F0.7208249568939209
I5
tp1696
a(F0.72199392318725586
I5
tp1697
a(F0.72260689735412598
I5
tp1698
a(F0.72341704368591309
I5
tp1699
a(F0.72435998916625977
I5
tp1700
a(F0.72572493553161621
I5
tp1701
a(F0.72661399841308594
I5
tp1702
a(F0.72736787796020508
I5
tp1703
a(F0.72776198387145996
I5
tp1704
a(F0.72837185859680176
I5
tp1705
a(F0.72924590110778809
I5
tp1706
a(F0.72971892356872559
I5
tp1707
a(F0.7304689884185791
I5
tp1708
a(F0.73114490509033203
I5
tp1709
a(F0.73173999786376953
I5
tp1710
a(F0.73269295692443848
I5
tp1711
a(F0.73342704772949219
I5
tp1712
a(F0.73444604873657227
I5
tp1713
a(F0.73553800582885742
I5
tp1714
a(F0.73618984222412109
I5
tp1715
a(F0.7366640567779541
I5
tp1716
a(F0.73745298385620117
I5
tp1717
a(F0.73839998245239258
I5
tp1718
a(F0.73917102813720703
I5
tp1719
a(F0.74012184143066406
I5
tp1720
a(F0.74079704284667969
I5
tp1721
a(F0.74188494682312012
I5
tp1722
a(F0.74243903160095215
I5
tp1723
a(F0.7431330680847168
I5
tp1724
a(F0.74380397796630859
I5
tp1725
a(F0.74484705924987793
I5
tp1726
a(F0.7456669807434082
I5
tp1727
a(F0.74634194374084473
I5
tp1728
a(F0.74687695503234863
I5
tp1729
a(F0.74763298034667969
I5
tp1730
a(F0.74864983558654785
I5
tp1731
a(F0.74959492683410645
I5
tp1732
a(F0.75021195411682129
I5
tp1733
a(F0.75076484680175781
I5
tp1734
a(F0.75137996673583984
I5
tp1735
a(F0.75197505950927734
I5
tp1736
a(F0.75285005569458008
I5
tp1737
a(F0.75354504585266113
I5
tp1738
a(F0.75443291664123535
I5
tp1739
a(F0.75496602058410645
I5
tp1740
a(F0.75570201873779297
I5
tp1741
a(F0.75637197494506836
I5
tp1742
a(F0.75710797309875488
I5
tp1743
a(F0.75798296928405762
I5
tp1744
a(F0.75853800773620605
I5
tp1745
a(F0.7592308521270752
I5
tp1746
a(F0.7598259449005127
I5
tp1747
a(F0.7606968879699707
I5
tp1748
a(F0.76177406311035156
I5
tp1749
a(F0.7624669075012207
I5
tp1750
a(F0.76339888572692871
I5
tp1751
a(F0.76407289505004883
I5
tp1752
a(F0.76497793197631836
I5
tp1753
a(F0.76570987701416016
I5
tp1754
a(F0.76650190353393555
I5
tp1755
a(F0.76705694198608398
I5
tp1756
a(F0.76787090301513672
I5
tp1757
a(F0.76862287521362305
I5
tp1758
a(F0.76935696601867676
I5
tp1759
a(F0.77016901969909668
I5
tp1760
a(F0.77056598663330078
I5
tp1761
a(F0.77123689651489258
I5
tp1762
a(F0.77184796333312988
I5
tp1763
a(F0.77259993553161621
I5
tp1764
a(F0.77369594573974609
I5
tp1765
a(F0.77422785758972168
I5
tp1766
a(F0.77505588531494141
I5
tp1767
a(F0.77586603164672852
I5
tp1768
a(F0.77654194831848145
I5
tp1769
a(F0.77735495567321777
I5
tp1770
a(F0.77816295623779297
I5
tp1771
a(F0.77903389930725098
I5
tp1772
a(F0.78005695343017578
I5
tp1773
a(F0.78090500831604004
I5
tp1774
a(F0.78185200691223145
I5
tp1775
a(F0.78293704986572266
I5
tp1776
a(F0.78380703926086426
I5
tp1777
a(F0.78426289558410645
I5
tp1778
a(F0.78496789932250977
I5
tp1779
a(F0.78578305244445801
I5
tp1780
a(F0.78653383255004883
I5
tp1781
a(F0.78748893737792969
I5
tp1782
a(F0.78796505928039551
I5
tp1783
a(F0.78892302513122559
I5
tp1784
a(F0.7896568775177002
I5
tp1785
a(F0.79023194313049316
I5
tp1786
a(F0.79110503196716309
I5
tp1787
a(F0.7917170524597168
I5
tp1788
a(F0.79238605499267578
I5
tp1789
a(F0.79297900199890137
I5
tp1790
a(F0.79355001449584961
I5
tp1791
a(F0.79430985450744629
I5
tp1792
a(F0.79512691497802734
I5
tp1793
a(F0.79600000381469727
I5
tp1794
a(F0.79664993286132812
I5
tp1795
a(F0.79718589782714844
I5
tp1796
a(F0.79763889312744141
I5
tp1797
a(F0.79864788055419922
I5
tp1798
a(F0.79952001571655273
I5
tp1799
a(F0.80017399787902832
I5
tp1800
a(F0.80078887939453125
I5
tp1801
a(F0.80140590667724609
I5
tp1802
a(F0.80186295509338379
I5
tp1803
a(F0.80259394645690918
I5
tp1804
a(F0.8034060001373291
I5
tp1805
a(F0.80434393882751465
I5
tp1806
a(F0.80487799644470215
I5
tp1807
a(F0.80569291114807129
I5
tp1808
a(F0.80664491653442383
I5
tp1809
a(F0.80733704566955566
I5
tp1810
a(F0.80801105499267578
I5
tp1811
a(F0.8088068962097168
I5
tp1812
a(F0.80987787246704102
I5
tp1813
a(F0.81075000762939453
I5
tp1814
a(F0.81164383888244629
I5
tp1815
a(F0.81231784820556641
I5
tp1816
a(F0.81328105926513672
I5
tp1817
a(F0.81374192237854004
I5
tp1818
a(F0.81427884101867676
I5
tp1819
a(F0.81496596336364746
I5
tp1820
a(F0.81570100784301758
I5
tp1821
a(F0.81663084030151367
I5
tp1822
a(F0.81738495826721191
I5
tp1823
a(F0.81833600997924805
I5
tp1824
a(F0.81873083114624023
I5
tp1825
a(F0.81944394111633301
I5
tp1826
a(F0.82037806510925293
I5
tp1827
a(F0.82118797302246094
I5
tp1828
a(F0.82219791412353516
I5
tp1829
a(F0.82300901412963867
I5
tp1830
a(F0.82379889488220215
I5
tp1831
a(F0.82495498657226562
I5
tp1832
a(F0.82583403587341309
I5
tp1833
aF40.119999999998981
tp1834
sg75
((lp1835
F40.25
tp1836
sg106
((lp1837
F35.81000000000131
tp1838
ssba(imeasure_core
ProblemSetSolution
p1839
(dp1840
g3
g607
sg130
g1367
sg133
(dp1841
g610
((lp1842
F40.079999999998108
tp1843
sg659
((lp1844
F40.0
tp1845
sg700
((lp1846
F40.05000000000291
tp1847
sg747
((lp1848
F40.029999999998836
tp1849
ssba(imeasure_core
ProblemSetSolution
p1850
(dp1851
g3
g804
sg130
g1367
sg133
(dp1852
g807
((lp1853
F40.220000000001164
tp1854
sg858
((lp1855
F40.540000000000873
tp1856
sg903
((lp1857
F41.329999999998108
tp1858
sg952
((lp1859
F40.200000000000728
tp1860
ssba(imeasure_core
ProblemSetSolution
p1861
(dp1862
g3
g1007
sg130
g1367
sg133
(dp1863
g1246
((lp1864
F40.049999999999272
tp1865
sg1261
((lp1866
F40.06000000000131
tp1867
sg1010
((lp1868
F5.180000000000291
tp1869
sg1276
((lp1870
F0.0
tp1871
sg1036
((lp1872
F0.11999999999898137
tp1873
sg1051
((lp1874
F27.739999999997963
tp1875
sg1063
((lp1876
F0.63000000000101863
tp1877
sg1317
((lp1878
F0.29000000000087311
tp1879
sg1287
((lp1880
F0.0
tp1881
sg1092
((lp1882
F1.9099999999998545
tp1883
sg1114
((lp1884
F7.2200000000011642
tp1885
sg1135
((lp1886
F1.5999999999985448
tp1887
sg1175
((lp1888
F1.6500000000014552
tp1889
sg1197
((lp1890
(F0.0023870468139648438
I2
tp1891
aF0.18999999999869033
tp1892
sg1208
((lp1893
F0.040000000000873115
tp1894
sg1235
((lp1895
F0.59000000000014552
tp1896
sg1302
((lp1897
F40.129999999997381
tp1898
ssba(imeasure_core
ProblemSetSolution
p1899
(dp1900
g3
g4
sg130
S'AnytimeBest-d250_with_PowerHeuristic2'
p1901
sg133
(dp1902
g8
((lp1903
(F1.762437105178833
I9
tp1904
a(F1.7633020877838135
I9
tp1905
a(F1.7641611099243164
I9
tp1906
a(F1.7653341293334961
I9
tp1907
a(F1.7664470672607422
I9
tp1908
a(F1.7677321434020996
I9
tp1909
a(F1.7691531181335449
I9
tp1910
a(F1.7701210975646973
I9
tp1911
a(F1.7711861133575439
I9
tp1912
a(F1.7724671363830566
I9
tp1913
a(F1.7736430168151855
I9
tp1914
a(F1.7745621204376221
I9
tp1915
a(F1.7755811214447021
I9
tp1916
a(F1.7765970230102539
I9
tp1917
a(F1.7774569988250732
I9
tp1918
a(F1.7782571315765381
I9
tp1919
a(F1.7794909477233887
I9
tp1920
a(F1.7804460525512695
I9
tp1921
a(F1.7812459468841553
I9
tp1922
a(F1.7819449901580811
I9
tp1923
a(F1.7835819721221924
I9
tp1924
a(F1.7844419479370117
I9
tp1925
a(F1.7859351634979248
I9
tp1926
a(F1.7867040634155273
I9
tp1927
a(F1.787898063659668
I9
tp1928
a(F1.7889211177825928
I9
tp1929
a(F1.790215015411377
I9
tp1930
a(F1.7911310195922852
I9
tp1931
a(F1.7922501564025879
I9
tp1932
a(F1.7929530143737793
I9
tp1933
a(F1.7941689491271973
I9
tp1934
a(F1.7953500747680664
I9
tp1935
a(F1.7967259883880615
I9
tp1936
a(F1.79752516746521
I9
tp1937
a(F1.7985780239105225
I9
tp1938
a(F1.7995519638061523
I9
tp1939
a(F1.8005130290985107
I9
tp1940
a(F1.8012511730194092
I9
tp1941
a(F1.8024699687957764
I9
tp1942
a(F1.8036890029907227
I9
tp1943
a(F1.8052310943603516
I9
tp1944
a(F1.8060300350189209
I9
tp1945
a(F1.806988000869751
I9
tp1946
a(F1.8080060482025146
I9
tp1947
a(F1.809298038482666
I9
tp1948
a(F1.8099379539489746
I9
tp1949
a(F1.81125807762146
I9
tp1950
a(F1.8121740818023682
I9
tp1951
a(F1.8131320476531982
I9
tp1952
a(F1.8140900135040283
I9
tp1953
a(F1.8149850368499756
I9
tp1954
a(F1.8160400390625
I9
tp1955
a(F1.8172950744628906
I9
tp1956
a(F1.8182511329650879
I9
tp1957
a(F1.8193180561065674
I9
tp1958
a(F1.8202180862426758
I9
tp1959
a(F1.8214740753173828
I9
tp1960
a(F1.8228521347045898
I9
tp1961
a(F1.8236510753631592
I9
tp1962
a(F1.8246099948883057
I9
tp1963
a(F1.8257920742034912
I9
tp1964
a(F1.8268461227416992
I9
tp1965
a(F1.8276450634002686
I9
tp1966
a(F1.8285470008850098
I9
tp1967
a(F1.8297820091247559
I9
tp1968
a(F1.830841064453125
I9
tp1969
a(F1.8317060470581055
I9
tp1970
a(F1.8324451446533203
I9
tp1971
a(F1.8331141471862793
I9
tp1972
a(F1.8343031406402588
I9
tp1973
a(F1.8352110385894775
I9
tp1974
a(F1.8365540504455566
I9
tp1975
a(F1.8374590873718262
I9
tp1976
a(F1.8386750221252441
I9
tp1977
a(F1.8397440910339355
I9
tp1978
a(F1.8408000469207764
I9
tp1979
a(F1.8421750068664551
I9
tp1980
a(F1.842972993850708
I9
tp1981
a(F1.8441331386566162
I9
tp1982
a(F1.8450579643249512
I9
tp1983
a(F1.8458590507507324
I9
tp1984
a(F1.8465960025787354
I9
tp1985
a(F1.847491979598999
I9
tp1986
a(F1.8482890129089355
I9
tp1987
a(F1.8493189811706543
I9
tp1988
a(F1.8502800464630127
I9
tp1989
a(F1.8509831428527832
I9
tp1990
a(F1.8517811298370361
I9
tp1991
a(F1.8525991439819336
I9
tp1992
a(F1.8535950183868408
I9
tp1993
a(F1.85465407371521
I9
tp1994
a(F1.8557090759277344
I9
tp1995
a(F1.8568849563598633
I9
tp1996
a(F1.8578791618347168
I9
tp1997
a(F1.8587751388549805
I9
tp1998
a(F1.8598690032958984
I9
tp1999
a(F1.8606700897216797
I9
tp2000
a(F1.8613700866699219
I9
tp2001
a(F1.862368106842041
I9
tp2002
a(F1.8632659912109375
I9
tp2003
a(F1.8644261360168457
I9
tp2004
a(F1.8655440807342529
I9
tp2005
a(F1.8666031360626221
I9
tp2006
a(F1.8677170276641846
I9
tp2007
a(F1.8685760498046875
I9
tp2008
a(F1.8693881034851074
I9
tp2009
a(F1.869987964630127
I9
tp2010
a(F1.8710629940032959
I9
tp2011
a(F1.8721740245819092
I9
tp2012
a(F1.8733241558074951
I9
tp2013
a(F1.874021053314209
I9
tp2014
a(F1.8749539852142334
I9
tp2015
a(F1.8759090900421143
I9
tp2016
a(F1.8765490055084229
I9
tp2017
a(F1.8777279853820801
I9
tp2018
a(F1.8785641193389893
I9
tp2019
a(F1.8797690868377686
I9
tp2020
a(F1.8810441493988037
I9
tp2021
a(F1.8818390369415283
I9
tp2022
a(F1.882796049118042
I9
tp2023
a(F1.8836901187896729
I9
tp2024
a(F1.8843250274658203
I9
tp2025
a(F1.8850619792938232
I9
tp2026
a(F1.8860211372375488
I9
tp2027
a(F1.8873641490936279
I9
tp2028
a(F1.8881590366363525
I9
tp2029
a(F1.8891291618347168
I9
tp2030
a(F1.8899259567260742
I9
tp2031
a(F1.8908820152282715
I9
tp2032
a(F1.891679048538208
I9
tp2033
a(F1.8926360607147217
I9
tp2034
a(F1.8935301303863525
I9
tp2035
a(F1.8943259716033936
I9
tp2036
a(F1.89540696144104
I9
tp2037
a(F1.8962631225585938
I9
tp2038
a(F1.8969991207122803
I9
tp2039
a(F1.8977620601654053
I9
tp2040
a(F1.8989419937133789
I9
tp2041
a(F1.900068998336792
I9
tp2042
a(F1.9012589454650879
I9
tp2043
a(F1.9021799564361572
I9
tp2044
a(F1.9030401706695557
I9
tp2045
a(F1.9039981365203857
I9
tp2046
a(F1.9047009944915771
I9
tp2047
a(F1.9058640003204346
I9
tp2048
a(F1.9067981243133545
I9
tp2049
a(F1.9080159664154053
I9
tp2050
a(F1.909013032913208
I9
tp2051
a(F1.910006046295166
I9
tp2052
a(F1.9111261367797852
I9
tp2053
a(F1.9118871688842773
I9
tp2054
a(F1.9128460884094238
I9
tp2055
a(F1.9139430522918701
I9
tp2056
a(F1.9149620532989502
I9
tp2057
a(F1.9159231185913086
I9
tp2058
a(F1.9166631698608398
I9
tp2059
a(F1.917680025100708
I9
tp2060
a(F1.9186980724334717
I9
tp2061
a(F1.9199280738830566
I9
tp2062
a(F1.9209470748901367
I9
tp2063
a(F1.9224450588226318
I9
tp2064
a(F1.9237220287322998
I9
tp2065
a(F1.9245200157165527
I9
tp2066
a(F1.92563796043396
I9
tp2067
a(F1.9261791706085205
I9
tp2068
a(F1.9268181324005127
I9
tp2069
a(F1.9274201393127441
I9
tp2070
a(F1.9281189441680908
I9
tp2071
a(F1.9292521476745605
I9
tp2072
a(F1.9304301738739014
I9
tp2073
a(F1.9313850402832031
I9
tp2074
a(F1.932279109954834
I9
tp2075
a(F1.9332339763641357
I9
tp2076
a(F1.9341919422149658
I9
tp2077
a(F1.9347889423370361
I9
tp2078
a(F1.9360949993133545
I9
tp2079
a(F1.9371070861816406
I9
tp2080
a(F1.9377429485321045
I9
tp2081
a(F1.9382190704345703
I9
tp2082
a(F1.9395689964294434
I9
tp2083
a(F1.9405331611633301
I9
tp2084
a(F1.9413299560546875
I9
tp2085
a(F1.9421639442443848
I9
tp2086
a(F1.9434399604797363
I9
tp2087
a(F1.9441730976104736
I9
tp2088
a(F1.9449069499969482
I9
tp2089
a(F1.9458019733428955
I9
tp2090
a(F1.9469771385192871
I9
tp2091
a(F1.9476139545440674
I9
tp2092
a(F1.9484071731567383
I9
tp2093
a(F1.9496941566467285
I9
tp2094
a(F1.9505250453948975
I9
tp2095
a(F1.9512200355529785
I9
tp2096
a(F1.9518210887908936
I9
tp2097
a(F1.952653169631958
I9
tp2098
a(F1.9536051750183105
I9
tp2099
a(F1.9544010162353516
I9
tp2100
a(F1.955294132232666
I9
tp2101
a(F1.955894947052002
I9
tp2102
a(F1.9567520618438721
I9
tp2103
a(F1.9574871063232422
I9
tp2104
a(F1.9584410190582275
I9
tp2105
a(F1.9594120979309082
I9
tp2106
a(F1.9601449966430664
I9
tp2107
a(F1.9611020088195801
I9
tp2108
a(F1.9619979858398438
I9
tp2109
a(F1.9626340866088867
I9
tp2110
a(F1.9634671211242676
I9
tp2111
a(F1.9644420146942139
I9
tp2112
a(F1.9652390480041504
I9
tp2113
a(F1.9662339687347412
I9
tp2114
a(F1.9673459529876709
I9
tp2115
a(F1.9684650897979736
I9
tp2116
a(F1.9694671630859375
I9
tp2117
a(F1.9703021049499512
I9
tp2118
a(F1.9711940288543701
I9
tp2119
a(F1.9720900058746338
I9
tp2120
a(F1.9730429649353027
I9
tp2121
a(F1.9738740921020508
I9
tp2122
a(F1.9746341705322266
I9
tp2123
a(F1.9753341674804688
I9
tp2124
a(F1.9758110046386719
I9
tp2125
a(F1.9770259857177734
I9
tp2126
a(F1.9780759811401367
I9
tp2127
a(F1.9790430068969727
I9
tp2128
a(F1.9798369407653809
I9
tp2129
a(F1.9808859825134277
I9
tp2130
a(F1.9817211627960205
I9
tp2131
a(F1.9826750755310059
I9
tp2132
a(F1.9835290908813477
I9
tp2133
a(F1.9844820499420166
I9
tp2134
a(F1.9852800369262695
I9
tp2135
a(F1.9863951206207275
I9
tp2136
a(F1.9875719547271729
I9
tp2137
a(F1.9884519577026367
I9
tp2138
a(F1.9891011714935303
I9
tp2139
a(F1.9899420738220215
I9
tp2140
a(F1.990645170211792
I9
tp2141
a(F1.9918630123138428
I9
tp2142
a(F1.9931890964508057
I9
tp2143
aF40.069999999999709
tp2144
sg48
((lp2145
(F0.65358591079711914
I5
tp2146
a(F0.65426301956176758
I5
tp2147
a(F0.65515708923339844
I5
tp2148
a(F0.65589499473571777
I5
tp2149
a(F0.65697503089904785
I5
tp2150
a(F0.65772604942321777
I5
tp2151
a(F0.65859794616699219
I5
tp2152
a(F0.65941905975341797
I5
tp2153
a(F0.66024112701416016
I5
tp2154
a(F0.66119599342346191
I5
tp2155
a(F0.66195201873779297
I5
tp2156
a(F0.6628260612487793
I5
tp2157
a(F0.66367912292480469
I5
tp2158
a(F0.6645500659942627
I5
tp2159
a(F0.66556191444396973
I5
tp2160
a(F0.66651105880737305
I5
tp2161
a(F0.66740202903747559
I5
tp2162
a(F0.66864609718322754
I5
tp2163
a(F0.66958999633789062
I5
tp2164
a(F0.67026209831237793
I5
tp2165
a(F0.6707160472869873
I5
tp2166
a(F0.67146897315979004
I5
tp2167
a(F0.67230010032653809
I5
tp2168
a(F0.6729729175567627
I5
tp2169
a(F0.67370510101318359
I5
tp2170
a(F0.67458009719848633
I5
tp2171
a(F0.67539501190185547
I5
tp2172
a(F0.6763300895690918
I5
tp2173
a(F0.67693090438842773
I5
tp2174
a(F0.67789912223815918
I5
tp2175
a(F0.67877101898193359
I5
tp2176
a(F0.67992496490478516
I5
tp2177
a(F0.6808779239654541
I5
tp2178
a(F0.68163394927978516
I5
tp2179
a(F0.68230795860290527
I5
tp2180
a(F0.6829841136932373
I5
tp2181
a(F0.68365812301635742
I5
tp2182
a(F0.68454194068908691
I5
tp2183
a(F0.68529295921325684
I5
tp2184
a(F0.6861879825592041
I5
tp2185
a(F0.68700194358825684
I5
tp2186
a(F0.68804812431335449
I5
tp2187
a(F0.68900394439697266
I5
tp2188
a(F0.6898801326751709
I5
tp2189
a(F0.69069409370422363
I5
tp2190
a(F0.69144296646118164
I5
tp2191
a(F0.6925499439239502
I5
tp2192
a(F0.69329190254211426
I5
tp2193
a(F0.69419693946838379
I5
tp2194
a(F0.69493699073791504
I5
tp2195
a(F0.69569993019104004
I5
tp2196
a(F0.69660091400146484
I5
tp2197
a(F0.69722700119018555
I5
tp2198
a(F0.6978609561920166
I5
tp2199
a(F0.69876408576965332
I5
tp2200
a(F0.70000004768371582
I5
tp2201
a(F0.70082807540893555
I5
tp2202
a(F0.70164799690246582
I5
tp2203
a(F0.70260810852050781
I5
tp2204
a(F0.70371794700622559
I5
tp2205
a(F0.70454192161560059
I5
tp2206
a(F0.70536494255065918
I5
tp2207
a(F0.70610594749450684
I5
tp2208
a(F0.70707201957702637
I5
tp2209
a(F0.70776510238647461
I5
tp2210
a(F0.70844793319702148
I5
tp2211
a(F0.70921206474304199
I5
tp2212
a(F0.70981311798095703
I5
tp2213
a(F0.71057510375976562
I5
tp2214
a(F0.71139693260192871
I5
tp2215
a(F0.71208000183105469
I5
tp2216
a(F0.71262097358703613
I5
tp2217
a(F0.71342206001281738
I5
tp2218
a(F0.71389913558959961
I5
tp2219
a(F0.71464204788208008
I5
tp2220
a(F0.71550297737121582
I5
tp2221
a(F0.7165219783782959
I5
tp2222
a(F0.71728110313415527
I5
tp2223
a(F0.71817398071289062
I5
tp2224
a(F0.7187950611114502
I5
tp2225
a(F0.71953511238098145
I5
tp2226
a(F0.72049593925476074
I5
tp2227
a(F0.72125697135925293
I5
tp2228
a(F0.72201704978942871
I5
tp2229
a(F0.72281789779663086
I5
tp2230
a(F0.72400403022766113
I5
tp2231
a(F0.72462201118469238
I5
tp2232
a(F0.72544598579406738
I5
tp2233
a(F0.72639298439025879
I5
tp2234
a(F0.72779202461242676
I5
tp2235
a(F0.72869610786437988
I5
tp2236
a(F0.72945308685302734
I5
tp2237
a(F0.72985196113586426
I5
tp2238
a(F0.73047208786010742
I5
tp2239
a(F0.73135590553283691
I5
tp2240
a(F0.73183512687683105
I5
tp2241
a(F0.73259592056274414
I5
tp2242
a(F0.73327898979187012
I5
tp2243
a(F0.73388195037841797
I5
tp2244
a(F0.73484611511230469
I5
tp2245
a(F0.73558807373046875
I5
tp2246
a(F0.73661398887634277
I5
tp2247
a(F0.73773002624511719
I5
tp2248
a(F0.73839592933654785
I5
tp2249
a(F0.7388761043548584
I5
tp2250
a(F0.73967790603637695
I5
tp2251
a(F0.74064302444458008
I5
tp2252
a(F0.74138808250427246
I5
tp2253
a(F0.74235010147094727
I5
tp2254
a(F0.74303197860717773
I5
tp2255
a(F0.74413895606994629
I5
tp2256
a(F0.74469590187072754
I5
tp2257
a(F0.74539303779602051
I5
tp2258
a(F0.74607491493225098
I5
tp2259
a(F0.7471160888671875
I5
tp2260
a(F0.74795103073120117
I5
tp2261
a(F0.74863290786743164
I5
tp2262
a(F0.74917197227478027
I5
tp2263
a(F0.74993300437927246
I5
tp2264
a(F0.75095391273498535
I5
tp2265
a(F0.75191402435302734
I5
tp2266
a(F0.75253701210021973
I5
tp2267
a(F0.7530970573425293
I5
tp2268
a(F0.75371789932250977
I5
tp2269
a(F0.7543179988861084
I5
tp2270
a(F0.75520801544189453
I5
tp2271
a(F0.75591206550598145
I5
tp2272
a(F0.75679612159729004
I5
tp2273
a(F0.75733804702758789
I5
tp2274
a(F0.75809407234191895
I5
tp2275
a(F0.75878000259399414
I5
tp2276
a(F0.75952410697937012
I5
tp2277
a(F0.76040196418762207
I5
tp2278
a(F0.76096892356872559
I5
tp2279
a(F0.76166892051696777
I5
tp2280
a(F0.76226902008056641
I5
tp2281
a(F0.76314902305603027
I5
tp2282
a(F0.76423192024230957
I5
tp2283
a(F0.76493406295776367
I5
tp2284
a(F0.76587605476379395
I5
tp2285
a(F0.7665560245513916
I5
tp2286
a(F0.76746296882629395
I5
tp2287
a(F0.76821613311767578
I5
tp2288
a(F0.76901912689208984
I5
tp2289
a(F0.7695770263671875
I5
tp2290
a(F0.77040004730224609
I5
tp2291
a(F0.77116107940673828
I5
tp2292
a(F0.77190208435058594
I5
tp2293
a(F0.77272295951843262
I5
tp2294
a(F0.77311992645263672
I5
tp2295
a(F0.77379894256591797
I5
tp2296
a(F0.77441692352294922
I5
tp2297
a(F0.77517890930175781
I5
tp2298
a(F0.77628111839294434
I5
tp2299
a(F0.77682209014892578
I5
tp2300
a(F0.77765893936157227
I5
tp2301
a(F0.77848410606384277
I5
tp2302
a(F0.77917003631591797
I5
tp2303
a(F0.77999997138977051
I5
tp2304
a(F0.7808220386505127
I5
tp2305
a(F0.78170490264892578
I5
tp2306
a(F0.78274798393249512
I5
tp2307
a(F0.78361105918884277
I5
tp2308
a(F0.78457307815551758
I5
tp2309
a(F0.78567290306091309
I5
tp2310
a(F0.78655600547790527
I5
tp2311
a(F0.78701305389404297
I5
tp2312
a(F0.78772211074829102
I5
tp2313
a(F0.78854703903198242
I5
tp2314
a(F0.7893071174621582
I5
tp2315
a(F0.79026889801025391
I5
tp2316
a(F0.79074907302856445
I5
tp2317
a(F0.79171395301818848
I5
tp2318
a(F0.79245710372924805
I5
tp2319
a(F0.79304194450378418
I5
tp2320
a(F0.79392910003662109
I5
tp2321
a(F0.79455304145812988
I5
tp2322
a(F0.79523897171020508
I5
tp2323
a(F0.79584097862243652
I5
tp2324
a(F0.79642510414123535
I5
tp2325
a(F0.79718494415283203
I5
tp2326
a(F0.79802298545837402
I5
tp2327
a(F0.79890894889831543
I5
tp2328
a(F0.79957199096679688
I5
tp2329
a(F0.80011200904846191
I5
tp2330
a(F0.80057096481323242
I5
tp2331
a(F0.80159306526184082
I5
tp2332
a(F0.80247592926025391
I5
tp2333
a(F0.80313611030578613
I5
tp2334
a(F0.80375409126281738
I5
tp2335
a(F0.80437302589416504
I5
tp2336
a(F0.80483508110046387
I5
tp2337
a(F0.80557799339294434
I5
tp2338
a(F0.80639505386352539
I5
tp2339
a(F0.80733704566955566
I5
tp2340
a(F0.80788898468017578
I5
tp2341
a(F0.80871200561523438
I5
tp2342
a(F0.80967593193054199
I5
tp2343
a(F0.81037807464599609
I5
tp2344
a(F0.81105899810791016
I5
tp2345
a(F0.81187200546264648
I5
tp2346
a(F0.81295299530029297
I5
tp2347
a(F0.81384611129760742
I5
tp2348
a(F0.81474590301513672
I5
tp2349
a(F0.81542801856994629
I5
tp2350
a(F0.8163909912109375
I5
tp2351
a(F0.81685209274291992
I5
tp2352
a(F0.81739306449890137
I5
tp2353
a(F0.81808710098266602
I5
tp2354
a(F0.81882905960083008
I5
tp2355
a(F0.81977295875549316
I5
tp2356
a(F0.82053303718566895
I5
tp2357
a(F0.82149410247802734
I5
tp2358
a(F0.82189202308654785
I5
tp2359
a(F0.82261300086975098
I5
tp2360
a(F0.82355093955993652
I5
tp2361
a(F0.82437300682067871
I5
tp2362
a(F0.82539892196655273
I5
tp2363
a(F0.82622098922729492
I5
tp2364
a(F0.82702207565307617
I5
tp2365
a(F0.82819390296936035
I5
tp2366
a(F0.82907605171203613
I5
tp2367
aF40.180000000000291
tp2368
sg75
((lp2369
F40.260000000002037
tp2370
sg106
((lp2371
F36.0
tp2372
ssba(imeasure_core
ProblemSetSolution
p2373
(dp2374
g3
g607
sg130
g1901
sg133
(dp2375
g610
((lp2376
F40.080000000001746
tp2377
sg659
((lp2378
F40.009999999998399
tp2379
sg700
((lp2380
F40.049999999999272
tp2381
sg747
((lp2382
F40.030000000002474
tp2383
ssba(imeasure_core
ProblemSetSolution
p2384
(dp2385
g3
g804
sg130
g1901
sg133
(dp2386
g807
((lp2387
F40.220000000001164
tp2388
sg858
((lp2389
F40.520000000000437
tp2390
sg903
((lp2391
F41.299999999999272
tp2392
sg952
((lp2393
F40.219999999997526
tp2394
ssba(imeasure_core
ProblemSetSolution
p2395
(dp2396
g3
g1007
sg130
g1901
sg133
(dp2397
g1246
((lp2398
F40.020000000000437
tp2399
sg1261
((lp2400
F40.06000000000131
tp2401
sg1010
((lp2402
F5.25
tp2403
sg1276
((lp2404
F0.0
tp2405
sg1036
((lp2406
F0.11000000000058208
tp2407
sg1051
((lp2408
F27.80000000000291
tp2409
sg1063
((lp2410
F0.63999999999941792
tp2411
sg1317
((lp2412
F0.28999999999723514
tp2413
sg1287
((lp2414
F0.0099999999983992893
tp2415
sg1092
((lp2416
F1.9099999999998545
tp2417
sg1114
((lp2418
F7.2299999999995634
tp2419
sg1135
((lp2420
F1.5999999999985448
tp2421
sg1175
((lp2422
F1.6500000000014552
tp2423
sg1197
((lp2424
(F0.0023989677429199219
I2
tp2425
aF0.18999999999869033
tp2426
sg1208
((lp2427
F0.049999999999272404
tp2428
sg1235
((lp2429
F0.59000000000014552
tp2430
sg1302
((lp2431
F40.120000000002619
tp2432
ssba(imeasure_core
ProblemSetSolution
p2433
(dp2434
g3
g4
sg130
S'AnytimeBest-d400_with_PowerHeuristic2'
p2435
sg133
(dp2436
g8
((lp2437
(F1.7864279747009277
I9
tp2438
a(F1.7872819900512695
I9
tp2439
a(F1.7881369590759277
I9
tp2440
a(F1.7893240451812744
I9
tp2441
a(F1.7904469966888428
I9
tp2442
a(F1.7917349338531494
I9
tp2443
a(F1.7931389808654785
I9
tp2444
a(F1.7941019535064697
I9
tp2445
a(F1.7951610088348389
I9
tp2446
a(F1.7964379787445068
I9
tp2447
a(F1.7976188659667969
I9
tp2448
a(F1.7985389232635498
I9
tp2449
a(F1.7995688915252686
I9
tp2450
a(F1.8005850315093994
I9
tp2451
a(F1.8014440536499023
I9
tp2452
a(F1.8022408485412598
I9
tp2453
a(F1.8034508228302002
I9
tp2454
a(F1.8044068813323975
I9
tp2455
a(F1.8052079677581787
I9
tp2456
a(F1.8059048652648926
I9
tp2457
a(F1.8075389862060547
I9
tp2458
a(F1.8083970546722412
I9
tp2459
a(F1.8099119663238525
I9
tp2460
a(F1.8106729984283447
I9
tp2461
a(F1.8118560314178467
I9
tp2462
a(F1.8128728866577148
I9
tp2463
a(F1.8141460418701172
I9
tp2464
a(F1.815065860748291
I9
tp2465
a(F1.8161828517913818
I9
tp2466
a(F1.816882848739624
I9
tp2467
a(F1.8180968761444092
I9
tp2468
a(F1.8192839622497559
I9
tp2469
a(F1.8206608295440674
I9
tp2470
a(F1.821465015411377
I9
tp2471
a(F1.822523832321167
I9
tp2472
a(F1.823483943939209
I9
tp2473
a(F1.8244450092315674
I9
tp2474
a(F1.8251810073852539
I9
tp2475
a(F1.8263988494873047
I9
tp2476
a(F1.8276159763336182
I9
tp2477
a(F1.8291640281677246
I9
tp2478
a(F1.8299620151519775
I9
tp2479
a(F1.8309159278869629
I9
tp2480
a(F1.8319330215454102
I9
tp2481
a(F1.8332128524780273
I9
tp2482
a(F1.8338508605957031
I9
tp2483
a(F1.8351638317108154
I9
tp2484
a(F1.8360989093780518
I9
tp2485
a(F1.8370709419250488
I9
tp2486
a(F1.8380248546600342
I9
tp2487
a(F1.8389208316802979
I9
tp2488
a(F1.8399949073791504
I9
tp2489
a(F1.8412518501281738
I9
tp2490
a(F1.8422079086303711
I9
tp2491
a(F1.8432638645172119
I9
tp2492
a(F1.8441579341888428
I9
tp2493
a(F1.8454079627990723
I9
tp2494
a(F1.846782922744751
I9
tp2495
a(F1.8475799560546875
I9
tp2496
a(F1.8485369682312012
I9
tp2497
a(F1.8497328758239746
I9
tp2498
a(F1.8507909774780273
I9
tp2499
a(F1.8515889644622803
I9
tp2500
a(F1.8524880409240723
I9
tp2501
a(F1.8537039756774902
I9
tp2502
a(F1.8547608852386475
I9
tp2503
a(F1.8556199073791504
I9
tp2504
a(F1.8563549518585205
I9
tp2505
a(F1.85701584815979
I9
tp2506
a(F1.858198881149292
I9
tp2507
a(F1.8591139316558838
I9
tp2508
a(F1.8604569435119629
I9
tp2509
a(F1.8613560199737549
I9
tp2510
a(F1.86257004737854
I9
tp2511
a(F1.863631010055542
I9
tp2512
a(F1.8646869659423828
I9
tp2513
a(F1.8660578727722168
I9
tp2514
a(F1.866858959197998
I9
tp2515
a(F1.8680179119110107
I9
tp2516
a(F1.8689508438110352
I9
tp2517
a(F1.8697519302368164
I9
tp2518
a(F1.8704919815063477
I9
tp2519
a(F1.8713898658752441
I9
tp2520
a(F1.8721878528594971
I9
tp2521
a(F1.8732099533081055
I9
tp2522
a(F1.8741738796234131
I9
tp2523
a(F1.8748748302459717
I9
tp2524
a(F1.8756709098815918
I9
tp2525
a(F1.8764889240264893
I9
tp2526
a(F1.8774869441986084
I9
tp2527
a(F1.8785429000854492
I9
tp2528
a(F1.879612922668457
I9
tp2529
a(F1.8807899951934814
I9
tp2530
a(F1.881788969039917
I9
tp2531
a(F1.8826858997344971
I9
tp2532
a(F1.8837649822235107
I9
tp2533
a(F1.8845629692077637
I9
tp2534
a(F1.885261058807373
I9
tp2535
a(F1.8862578868865967
I9
tp2536
a(F1.8871529102325439
I9
tp2537
a(F1.8883059024810791
I9
tp2538
a(F1.8894319534301758
I9
tp2539
a(F1.8904948234558105
I9
tp2540
a(F1.8916158676147461
I9
tp2541
a(F1.8924820423126221
I9
tp2542
a(F1.8932828903198242
I9
tp2543
a(F1.8938798904418945
I9
tp2544
a(F1.8949370384216309
I9
tp2545
a(F1.8960568904876709
I9
tp2546
a(F1.8972220420837402
I9
tp2547
a(F1.8979189395904541
I9
tp2548
a(F1.8988540172576904
I9
tp2549
a(F1.899824857711792
I9
tp2550
a(F1.900460958480835
I9
tp2551
a(F1.9016380310058594
I9
tp2552
a(F1.9024820327758789
I9
tp2553
a(F1.9036898612976074
I9
tp2554
a(F1.9049630165100098
I9
tp2555
a(F1.9057619571685791
I9
tp2556
a(F1.9067239761352539
I9
tp2557
a(F1.9076230525970459
I9
tp2558
a(F1.9082620143890381
I9
tp2559
a(F1.9090099334716797
I9
tp2560
a(F1.9099760055541992
I9
tp2561
a(F1.9113190174102783
I9
tp2562
a(F1.9121220111846924
I9
tp2563
a(F1.9130828380584717
I9
tp2564
a(F1.9138898849487305
I9
tp2565
a(F1.9148628711700439
I9
tp2566
a(F1.9156649112701416
I9
tp2567
a(F1.9166278839111328
I9
tp2568
a(F1.9175260066986084
I9
tp2569
a(F1.9183239936828613
I9
tp2570
a(F1.9194128513336182
I9
tp2571
a(F1.9202718734741211
I9
tp2572
a(F1.9210119247436523
I9
tp2573
a(F1.9217770099639893
I9
tp2574
a(F1.9229528903961182
I9
tp2575
a(F1.9240739345550537
I9
tp2576
a(F1.9252710342407227
I9
tp2577
a(F1.9261908531188965
I9
tp2578
a(F1.9270529747009277
I9
tp2579
a(F1.9280128479003906
I9
tp2580
a(F1.9287128448486328
I9
tp2581
a(F1.9298849105834961
I9
tp2582
a(F1.9308240413665771
I9
tp2583
a(F1.9320409297943115
I9
tp2584
a(F1.9330298900604248
I9
tp2585
a(F1.9340279102325439
I9
tp2586
a(F1.9351539611816406
I9
tp2587
a(F1.9359190464019775
I9
tp2588
a(F1.936884880065918
I9
tp2589
a(F1.9379839897155762
I9
tp2590
a(F1.9390139579772949
I9
tp2591
a(F1.9399828910827637
I9
tp2592
a(F1.9407279491424561
I9
tp2593
a(F1.9417450428009033
I9
tp2594
a(F1.9427578449249268
I9
tp2595
a(F1.9439659118652344
I9
tp2596
a(F1.9449808597564697
I9
tp2597
a(F1.9464809894561768
I9
tp2598
a(F1.9477529525756836
I9
tp2599
a(F1.9485569000244141
I9
tp2600
a(F1.9497008323669434
I9
tp2601
a(F1.9502489566802979
I9
tp2602
a(F1.95088791847229
I9
tp2603
a(F1.9514880180358887
I9
tp2604
a(F1.9521858692169189
I9
tp2605
a(F1.9533069133758545
I9
tp2606
a(F1.9544858932495117
I9
tp2607
a(F1.9554460048675537
I9
tp2608
a(F1.9563479423522949
I9
tp2609
a(F1.9573080539703369
I9
tp2610
a(F1.9582710266113281
I9
tp2611
a(F1.9588730335235596
I9
tp2612
a(F1.9602060317993164
I9
tp2613
a(F1.9612269401550293
I9
tp2614
a(F1.9618680477142334
I9
tp2615
a(F1.9623479843139648
I9
tp2616
a(F1.9636869430541992
I9
tp2617
a(F1.9646480083465576
I9
tp2618
a(F1.9654450416564941
I9
tp2619
a(F1.9662809371948242
I9
tp2620
a(F1.9675600528717041
I9
tp2621
a(F1.9682948589324951
I9
tp2622
a(F1.969045877456665
I9
tp2623
a(F1.969944953918457
I9
tp2624
a(F1.9711289405822754
I9
tp2625
a(F1.9717700481414795
I9
tp2626
a(F1.9725730419158936
I9
tp2627
a(F1.9738519191741943
I9
tp2628
a(F1.9746880531311035
I9
tp2629
a(F1.9753880500793457
I9
tp2630
a(F1.9759900569915771
I9
tp2631
a(F1.9768259525299072
I9
tp2632
a(F1.9777870178222656
I9
tp2633
a(F1.9785869121551514
I9
tp2634
a(F1.979496955871582
I9
tp2635
a(F1.9800980091094971
I9
tp2636
a(F1.9809608459472656
I9
tp2637
a(F1.9816968441009521
I9
tp2638
a(F1.9826529026031494
I9
tp2639
a(F1.983612060546875
I9
tp2640
a(F1.9843480587005615
I9
tp2641
a(F1.985306978225708
I9
tp2642
a(F1.9862020015716553
I9
tp2643
a(F1.9868390560150146
I9
tp2644
a(F1.9876809120178223
I9
tp2645
a(F1.988663911819458
I9
tp2646
a(F1.9894750118255615
I9
tp2647
a(F1.9904730319976807
I9
tp2648
a(F1.9916069507598877
I9
tp2649
a(F1.9927358627319336
I9
tp2650
a(F1.9937360286712646
I9
tp2651
a(F1.9945800304412842
I9
tp2652
a(F1.995481014251709
I9
tp2653
a(F1.9963788986206055
I9
tp2654
a(F1.9973399639129639
I9
tp2655
a(F1.9981770515441895
I9
tp2656
a(F1.9989490509033203
I9
tp2657
a(F1.9996528625488281
I9
tp2658
a(F2.0001330375671387
I9
tp2659
a(F2.0013518333435059
I9
tp2660
a(F2.002410888671875
I9
tp2661
a(F2.0033679008483887
I9
tp2662
a(F2.0041649341583252
I9
tp2663
a(F2.005220890045166
I9
tp2664
a(F2.0060608386993408
I9
tp2665
a(F2.0070269107818604
I9
tp2666
a(F2.0078868865966797
I9
tp2667
a(F2.0088448524475098
I9
tp2668
a(F2.0096540451049805
I9
tp2669
a(F2.0107738971710205
I9
tp2670
a(F2.0119500160217285
I9
tp2671
a(F2.0128278732299805
I9
tp2672
a(F2.0134739875793457
I9
tp2673
a(F2.0143179893493652
I9
tp2674
a(F2.0150179862976074
I9
tp2675
a(F2.0162348747253418
I9
tp2676
a(F2.0175490379333496
I9
tp2677
aF40.069999999999709
tp2678
sg48
((lp2679
(F0.66108989715576172
I5
tp2680
a(F0.66176795959472656
I5
tp2681
a(F0.66266393661499023
I5
tp2682
a(F0.66339993476867676
I5
tp2683
a(F0.66447591781616211
I5
tp2684
a(F0.66522407531738281
I5
tp2685
a(F0.66611599922180176
I5
tp2686
a(F0.66693401336669922
I5
tp2687
a(F0.66774892807006836
I5
tp2688
a(F0.66872000694274902
I5
tp2689
a(F0.66948294639587402
I5
tp2690
a(F0.67036104202270508
I5
tp2691
a(F0.67121791839599609
I5
tp2692
a(F0.67209291458129883
I5
tp2693
a(F0.67311191558837891
I5
tp2694
a(F0.6740720272064209
I5
tp2695
a(F0.67497110366821289
I5
tp2696
a(F0.67621111869812012
I5
tp2697
a(F0.67715311050415039
I5
tp2698
a(F0.67782807350158691
I5
tp2699
a(F0.67829394340515137
I5
tp2700
a(F0.67905998229980469
I5
tp2701
a(F0.67990207672119141
I5
tp2702
a(F0.68057608604431152
I5
tp2703
a(F0.68131494522094727
I5
tp2704
a(F0.68219590187072754
I5
tp2705
a(F0.68301200866699219
I5
tp2706
a(F0.68394804000854492
I5
tp2707
a(F0.68454408645629883
I5
tp2708
a(F0.68549895286560059
I5
tp2709
a(F0.68637704849243164
I5
tp2710
a(F0.6875309944152832
I5
tp2711
a(F0.68849706649780273
I5
tp2712
a(F0.68925690650939941
I5
tp2713
a(F0.68993210792541504
I5
tp2714
a(F0.69060993194580078
I5
tp2715
a(F0.69129109382629395
I5
tp2716
a(F0.69216704368591309
I5
tp2717
a(F0.69290399551391602
I5
tp2718
a(F0.69379997253417969
I5
tp2719
a(F0.69461894035339355
I5
tp2720
a(F0.69565391540527344
I5
tp2721
a(F0.69661307334899902
I5
tp2722
a(F0.69748902320861816
I5
tp2723
a(F0.69832110404968262
I5
tp2724
a(F0.69906806945800781
I5
tp2725
a(F0.70015811920166016
I5
tp2726
a(F0.70089292526245117
I5
tp2727
a(F0.70178508758544922
I5
tp2728
a(F0.70252108573913574
I5
tp2729
a(F0.7032780647277832
I5
tp2730
a(F0.70417189598083496
I5
tp2731
a(F0.70479011535644531
I5
tp2732
a(F0.70540595054626465
I5
tp2733
a(F0.70630407333374023
I5
tp2734
a(F0.7075200080871582
I5
tp2735
a(F0.70834994316101074
I5
tp2736
a(F0.70916390419006348
I5
tp2737
a(F0.71012091636657715
I5
tp2738
a(F0.71121811866760254
I5
tp2739
a(F0.71204400062561035
I5
tp2740
a(F0.712860107421875
I5
tp2741
a(F0.71359610557556152
I5
tp2742
a(F0.71455001831054688
I5
tp2743
a(F0.71522402763366699
I5
tp2744
a(F0.71589994430541992
I5
tp2745
a(F0.71665596961975098
I5
tp2746
a(F0.71725201606750488
I5
tp2747
a(F0.71801090240478516
I5
tp2748
a(F0.7188410758972168
I5
tp2749
a(F0.71952009201049805
I5
tp2750
a(F0.72005510330200195
I5
tp2751
a(F0.72084903717041016
I5
tp2752
a(F0.72132611274719238
I5
tp2753
a(F0.72206401824951172
I5
tp2754
a(F0.72292208671569824
I5
tp2755
a(F0.72393608093261719
I5
tp2756
a(F0.72469401359558105
I5
tp2757
a(F0.7255709171295166
I5
tp2758
a(F0.72619199752807617
I5
tp2759
a(F0.72693109512329102
I5
tp2760
a(F0.72789192199707031
I5
tp2761
a(F0.72866010665893555
I5
tp2762
a(F0.72941803932189941
I5
tp2763
a(F0.73021697998046875
I5
tp2764
a(F0.73140192031860352
I5
tp2765
a(F0.73202204704284668
I5
tp2766
a(F0.73283696174621582
I5
tp2767
a(F0.73377490043640137
I5
tp2768
a(F0.73515009880065918
I5
tp2769
a(F0.73604702949523926
I5
tp2770
a(F0.73681497573852539
I5
tp2771
a(F0.7372128963470459
I5
tp2772
a(F0.73783111572265625
I5
tp2773
a(F0.73871898651123047
I5
tp2774
a(F0.73919892311096191
I5
tp2775
a(F0.73995709419250488
I5
tp2776
a(F0.74063611030578613
I5
tp2777
a(F0.74123191833496094
I5
tp2778
a(F0.74218893051147461
I5
tp2779
a(F0.74293398857116699
I5
tp2780
a(F0.74396610260009766
I5
tp2781
a(F0.74506306648254395
I5
tp2782
a(F0.74571800231933594
I5
tp2783
a(F0.74619293212890625
I5
tp2784
a(F0.74699091911315918
I5
tp2785
a(F0.74794197082519531
I5
tp2786
a(F0.74868893623352051
I5
tp2787
a(F0.74964499473571777
I5
tp2788
a(F0.7503199577331543
I5
tp2789
a(F0.75142097473144531
I5
tp2790
a(F0.75197696685791016
I5
tp2791
a(F0.75267410278320312
I5
tp2792
a(F0.75335407257080078
I5
tp2793
a(F0.7543940544128418
I5
tp2794
a(F0.75521302223205566
I5
tp2795
a(F0.75589108467102051
I5
tp2796
a(F0.75642800331115723
I5
tp2797
a(F0.75718498229980469
I5
tp2798
a(F0.75820112228393555
I5
tp2799
a(F0.75917410850524902
I5
tp2800
a(F0.75979304313659668
I5
tp2801
a(F0.76034903526306152
I5
tp2802
a(F0.76096606254577637
I5
tp2803
a(F0.76156091690063477
I5
tp2804
a(F0.76244091987609863
I5
tp2805
a(F0.76313495635986328
I5
tp2806
a(F0.76401090621948242
I5
tp2807
a(F0.76454710960388184
I5
tp2808
a(F0.76528596878051758
I5
tp2809
a(F0.76596307754516602
I5
tp2810
a(F0.76670002937316895
I5
tp2811
a(F0.76757502555847168
I5
tp2812
a(F0.76813411712646484
I5
tp2813
a(F0.7688450813293457
I5
tp2814
a(F0.76944589614868164
I5
tp2815
a(F0.77031707763671875
I5
tp2816
a(F0.77139806747436523
I5
tp2817
a(F0.77209806442260742
I5
tp2818
a(F0.77303409576416016
I5
tp2819
a(F0.77371311187744141
I5
tp2820
a(F0.7746119499206543
I5
tp2821
a(F0.77534794807434082
I5
tp2822
a(F0.77614593505859375
I5
tp2823
a(F0.77670001983642578
I5
tp2824
a(F0.77751708030700684
I5
tp2825
a(F0.77828598022460938
I5
tp2826
a(F0.77902507781982422
I5
tp2827
a(F0.77984189987182617
I5
tp2828
a(F0.78024005889892578
I5
tp2829
a(F0.78092193603515625
I5
tp2830
a(F0.78153800964355469
I5
tp2831
a(F0.78229594230651855
I5
tp2832
a(F0.78339195251464844
I5
tp2833
a(F0.78392696380615234
I5
tp2834
a(F0.78474307060241699
I5
tp2835
a(F0.78556108474731445
I5
tp2836
a(F0.78624105453491211
I5
tp2837
a(F0.78705906867980957
I5
tp2838
a(F0.78787708282470703
I5
tp2839
a(F0.78876399993896484
I5
tp2840
a(F0.78980493545532227
I5
tp2841
a(F0.79066109657287598
I5
tp2842
a(F0.79162192344665527
I5
tp2843
a(F0.79271697998046875
I5
tp2844
a(F0.7935941219329834
I5
tp2845
a(F0.79404997825622559
I5
tp2846
a(F0.79474711418151855
I5
tp2847
a(F0.7955629825592041
I5
tp2848
a(F0.79631805419921875
I5
tp2849
a(F0.79727602005004883
I5
tp2850
a(F0.79775404930114746
I5
tp2851
a(F0.7987210750579834
I5
tp2852
a(F0.79946112632751465
I5
tp2853
a(F0.80004310607910156
I5
tp2854
a(F0.80092000961303711
I5
tp2855
a(F0.80153393745422363
I5
tp2856
a(F0.80221199989318848
I5
tp2857
a(F0.80280900001525879
I5
tp2858
a(F0.80338907241821289
I5
tp2859
a(F0.80414795875549316
I5
tp2860
a(F0.80496597290039062
I5
tp2861
a(F0.80584096908569336
I5
tp2862
a(F0.80649590492248535
I5
tp2863
a(F0.80703091621398926
I5
tp2864
a(F0.80748701095581055
I5
tp2865
a(F0.80851101875305176
I5
tp2866
a(F0.80939102172851562
I5
tp2867
a(F0.81004500389099121
I5
tp2868
a(F0.81066298484802246
I5
tp2869
a(F0.8112790584564209
I5
tp2870
a(F0.81173610687255859
I5
tp2871
a(F0.81247305870056152
I5
tp2872
a(F0.81328892707824707
I5
tp2873
a(F0.81422805786132812
I5
tp2874
a(F0.81476497650146484
I5
tp2875
a(F0.8155829906463623
I5
tp2876
a(F0.81654000282287598
I5
tp2877
a(F0.81723999977111816
I5
tp2878
a(F0.81791996955871582
I5
tp2879
a(F0.81872701644897461
I5
tp2880
a(F0.8198089599609375
I5
tp2881
a(F0.82069897651672363
I5
tp2882
a(F0.82160091400146484
I5
tp2883
a(F0.82227993011474609
I5
tp2884
a(F0.82323598861694336
I5
tp2885
a(F0.82369303703308105
I5
tp2886
a(F0.82423305511474609
I5
tp2887
a(F0.82491302490234375
I5
tp2888
a(F0.82565402984619141
I5
tp2889
a(F0.82659292221069336
I5
tp2890
a(F0.82734799385070801
I5
tp2891
a(F0.82831811904907227
I5
tp2892
a(F0.82871389389038086
I5
tp2893
a(F0.82943105697631836
I5
tp2894
a(F0.83036994934082031
I5
tp2895
a(F0.83118510246276855
I5
tp2896
a(F0.83220505714416504
I5
tp2897
a(F0.83302211761474609
I5
tp2898
a(F0.83381795883178711
I5
tp2899
a(F0.83497309684753418
I5
tp2900
a(F0.83585500717163086
I5
tp2901
aF40.240000000001601
tp2902
sg75
((lp2903
F40.279999999998836
tp2904
sg106
((lp2905
F36.110000000000582
tp2906
ssba(imeasure_core
ProblemSetSolution
p2907
(dp2908
g3
g607
sg130
g2435
sg133
(dp2909
g610
((lp2910
F40.159999999999854
tp2911
sg659
((lp2912
F40.010000000002037
tp2913
sg700
((lp2914
F40.059999999997672
tp2915
sg747
((lp2916
F40.030000000002474
tp2917
ssba(imeasure_core
ProblemSetSolution
p2918
(dp2919
g3
g804
sg130
g2435
sg133
(dp2920
g807
((lp2921
F40.219999999997526
tp2922
sg858
((lp2923
F40.710000000002765
tp2924
sg903
((lp2925
F41.599999999998545
tp2926
sg952
((lp2927
F40.200000000000728
tp2928
ssba(imeasure_core
ProblemSetSolution
p2929
(dp2930
g3
g1007
sg130
g2435
sg133
(dp2931
g1246
((lp2932
F40.020000000000437
tp2933
sg1261
((lp2934
F40.06000000000131
tp2935
sg1010
((lp2936
F5.2099999999991269
tp2937
sg1276
((lp2938
F0.0
tp2939
sg1036
((lp2940
F0.12000000000261934
tp2941
sg1051
((lp2942
F27.770000000000437
tp2943
sg1063
((lp2944
F0.63999999999941792
tp2945
sg1317
((lp2946
F0.29000000000087311
tp2947
sg1287
((lp2948
F0.0099999999983992893
tp2949
sg1092
((lp2950
F1.9099999999998545
tp2951
sg1114
((lp2952
F7.2299999999995634
tp2953
sg1135
((lp2954
F1.5999999999985448
tp2955
sg1175
((lp2956
F1.6500000000014552
tp2957
sg1197
((lp2958
(F0.0024142265319824219
I2
tp2959
aF0.18999999999869033
tp2960
sg1208
((lp2961
F0.049999999999272404
tp2962
sg1235
((lp2963
F0.59000000000014552
tp2964
sg1302
((lp2965
F40.159999999999854
tp2966
ssba(imeasure_core
ProblemSetSolution
p2967
(dp2968
g3
g4
sg130
S'AnytimeBest-d10_with_LinearHeuristic'
p2969
sg133
(dp2970
g8
((lp2971
F40.68999999999869
tp2972
sg48
((lp2973
(F1.0041780471801758
I4
tp2974
a(F1.0051059722900391
I4
tp2975
a(F1.0059731006622314
I4
tp2976
a(F1.0071189403533936
I4
tp2977
a(F1.0078380107879639
I4
tp2978
a(F1.0084710121154785
I4
tp2979
a(F1.0095739364624023
I4
tp2980
a(F1.0101981163024902
I4
tp2981
a(F1.0110659599304199
I4
tp2982
a(F1.0116569995880127
I4
tp2983
a(F1.0123701095581055
I4
tp2984
a(F1.0133299827575684
I4
tp2985
a(F1.0143349170684814
I4
tp2986
a(F1.0152170658111572
I4
tp2987
a(F1.0158250331878662
I4
tp2988
a(F1.0167520046234131
I4
tp2989
a(F1.0171549320220947
I4
tp2990
a(F1.0178840160369873
I4
tp2991
a(F1.0187950134277344
I4
tp2992
a(F1.0198431015014648
I4
tp2993
a(F1.0208079814910889
I4
tp2994
a(F1.0217809677124023
I4
tp2995
a(F1.0223729610443115
I4
tp2996
a(F1.0232400894165039
I4
tp2997
a(F1.0238709449768066
I4
tp2998
a(F1.0246801376342773
I4
tp2999
a(F1.0255930423736572
I4
tp3000
a(F1.026421070098877
I4
tp3001
a(F1.0273230075836182
I4
tp3002
a(F1.0280499458312988
I4
tp3003
a(F1.0290920734405518
I4
tp3004
a(F1.0300319194793701
I4
tp3005
a(F1.0311529636383057
I4
tp3006
a(F1.0321381092071533
I4
tp3007
a(F1.0331730842590332
I4
tp3008
a(F1.033613920211792
I4
tp3009
a(F1.0344569683074951
I4
tp3010
a(F1.0353820323944092
I4
tp3011
a(F1.0361580848693848
I4
tp3012
a(F1.036776065826416
I4
tp3013
a(F1.0375699996948242
I4
tp3014
a(F1.0383350849151611
I4
tp3015
a(F1.0394489765167236
I4
tp3016
a(F1.0400769710540771
I4
tp3017
a(F1.0408689975738525
I4
tp3018
a(F1.0415599346160889
I4
tp3019
a(F1.042335033416748
I4
tp3020
a(F1.0431740283966064
I4
tp3021
a(F1.0437650680541992
I4
tp3022
a(F1.044482946395874
I4
tp3023
a(F1.0455019474029541
I4
tp3024
a(F1.046328067779541
I4
tp3025
a(F1.0469701290130615
I4
tp3026
a(F1.0475630760192871
I4
tp3027
a(F1.0483429431915283
I4
tp3028
a(F1.0491349697113037
I4
tp3029
a(F1.0500020980834961
I4
tp3030
a(F1.0505969524383545
I4
tp3031
a(F1.0513870716094971
I4
tp3032
a(F1.0520899295806885
I4
tp3033
a(F1.0529530048370361
I4
tp3034
a(F1.0538530349731445
I4
tp3035
a(F1.0547149181365967
I4
tp3036
a(F1.0552830696105957
I4
tp3037
a(F1.0562229156494141
I4
tp3038
a(F1.0570099353790283
I4
tp3039
a(F1.0574691295623779
I4
tp3040
a(F1.0582001209259033
I4
tp3041
a(F1.0589311122894287
I4
tp3042
a(F1.0598249435424805
I4
tp3043
a(F1.0604920387268066
I4
tp3044
a(F1.0613999366760254
I4
tp3045
a(F1.0624620914459229
I4
tp3046
a(F1.0633120536804199
I4
tp3047
a(F1.0641751289367676
I4
tp3048
a(F1.0652780532836914
I4
tp3049
a(F1.0660769939422607
I4
tp3050
a(F1.0668051242828369
I4
tp3051
a(F1.0673840045928955
I4
tp3052
a(F1.0681350231170654
I4
tp3053
a(F1.068850040435791
I4
tp3054
a(F1.0700559616088867
I4
tp3055
a(F1.0710089206695557
I4
tp3056
a(F1.0720109939575195
I4
tp3057
a(F1.0728840827941895
I4
tp3058
a(F1.0735139846801758
I4
tp3059
a(F1.0742549896240234
I4
tp3060
a(F1.0752949714660645
I4
tp3061
a(F1.0763330459594727
I4
tp3062
a(F1.0772330760955811
I4
tp3063
a(F1.0781049728393555
I4
tp3064
a(F1.0789201259613037
I4
tp3065
a(F1.0800340175628662
I4
tp3066
a(F1.0807499885559082
I4
tp3067
a(F1.0814840793609619
I4
tp3068
a(F1.0825939178466797
I4
tp3069
a(F1.0831730365753174
I4
tp3070
a(F1.0840020179748535
I4
tp3071
a(F1.0849330425262451
I4
tp3072
a(F1.0857889652252197
I4
tp3073
a(F1.0865359306335449
I4
tp3074
a(F1.0874350070953369
I4
tp3075
a(F1.0883369445800781
I4
tp3076
a(F1.0892009735107422
I4
tp3077
aF40.56000000000131
tp3078
sg75
((lp3079
F40.069999999999709
tp3080
sg106
((lp3081
F34.789999999997235
tp3082
ssba(imeasure_core
ProblemSetSolution
p3083
(dp3084
g3
g607
sg130
g2969
sg133
(dp3085
g610
((lp3086
F40.120000000002619
tp3087
sg659
((lp3088
F40.169999999998254
tp3089
sg700
((lp3090
F40.040000000000873
tp3091
sg747
((lp3092
F40.069999999999709
tp3093
ssba(imeasure_core
ProblemSetSolution
p3094
(dp3095
g3
g804
sg130
g2969
sg133
(dp3096
g807
((lp3097
F46.440000000002328
tp3098
sg858
((lp3099
F40.149999999997817
tp3100
sg903
((lp3101
F40.320000000003347
tp3102
sg952
((lp3103
F40.289999999997235
tp3104
ssba(imeasure_core
ProblemSetSolution
p3105
(dp3106
g3
g1007
sg130
g2969
sg133
(dp3107
g1246
((lp3108
F40.06000000000131
tp3109
sg1261
((lp3110
F40.049999999999272
tp3111
sg1010
((lp3112
F5.6000000000021828
tp3113
sg1276
((lp3114
F0.0
tp3115
sg1036
((lp3116
F0.099999999998544808
tp3117
sg1051
((lp3118
F28.330000000001746
tp3119
sg1063
((lp3120
F0.64999999999781721
tp3121
sg1317
((lp3122
F0.68000000000029104
tp3123
sg1287
((lp3124
F0.0099999999983992893
tp3125
sg1092
((lp3126
F0.84000000000014552
tp3127
sg1114
((lp3128
F7.7099999999991269
tp3129
sg1135
((lp3130
F1.8300000000017462
tp3131
sg1175
((lp3132
F0.70999999999912689
tp3133
sg1197
((lp3134
(F0.0030751228332519531
I2
tp3135
aF0.33000000000174623
tp3136
sg1208
((lp3137
F0.11000000000058208
tp3138
sg1235
((lp3139
F0.71999999999752617
tp3140
sg1302
((lp3141
F40.190000000002328
tp3142
ssba(imeasure_core
ProblemSetSolution
p3143
(dp3144
g3
g4
sg130
S'AnytimeBest-d80_with_LinearHeuristic'
p3145
sg133
(dp3146
g8
((lp3147
F40.389999999999418
tp3148
sg48
((lp3149
(F0.99553823471069336
I4
tp3150
a(F0.99646615982055664
I4
tp3151
a(F0.99731707572937012
I4
tp3152
a(F0.99845314025878906
I4
tp3153
a(F0.99916720390319824
I4
tp3154
a(F0.99981117248535156
I4
tp3155
a(F1.0009090900421143
I4
tp3156
a(F1.0015301704406738
I4
tp3157
a(F1.0023961067199707
I4
tp3158
a(F1.0029871463775635
I4
tp3159
a(F1.0036990642547607
I4
tp3160
a(F1.0046560764312744
I4
tp3161
a(F1.005662202835083
I4
tp3162
a(F1.0065431594848633
I4
tp3163
a(F1.0071341991424561
I4
tp3164
a(F1.0080571174621582
I4
tp3165
a(F1.0084609985351562
I4
tp3166
a(F1.0091900825500488
I4
tp3167
a(F1.0101292133331299
I4
tp3168
a(F1.0111792087554932
I4
tp3169
a(F1.0121362209320068
I4
tp3170
a(F1.0131070613861084
I4
tp3171
a(F1.0137012004852295
I4
tp3172
a(F1.0145602226257324
I4
tp3173
a(F1.0151851177215576
I4
tp3174
a(F1.016010046005249
I4
tp3175
a(F1.0169210433959961
I4
tp3176
a(F1.0177462100982666
I4
tp3177
a(F1.0186641216278076
I4
tp3178
a(F1.0194010734558105
I4
tp3179
a(F1.0204582214355469
I4
tp3180
a(F1.0214002132415771
I4
tp3181
a(F1.0225210189819336
I4
tp3182
a(F1.0235071182250977
I4
tp3183
a(F1.0245430469512939
I4
tp3184
a(F1.024982213973999
I4
tp3185
a(F1.0258190631866455
I4
tp3186
a(F1.0267541408538818
I4
tp3187
a(F1.0275180339813232
I4
tp3188
a(F1.0281310081481934
I4
tp3189
a(F1.0289230346679688
I4
tp3190
a(F1.0296871662139893
I4
tp3191
a(F1.030825138092041
I4
tp3192
a(F1.0314571857452393
I4
tp3193
a(F1.0322480201721191
I4
tp3194
a(F1.0329370498657227
I4
tp3195
a(F1.0337111949920654
I4
tp3196
a(F1.0345520973205566
I4
tp3197
a(F1.0351471900939941
I4
tp3198
a(F1.0358631610870361
I4
tp3199
a(F1.0368661880493164
I4
tp3200
a(F1.0376930236816406
I4
tp3201
a(F1.0383360385894775
I4
tp3202
a(F1.0389270782470703
I4
tp3203
a(F1.0397062301635742
I4
tp3204
a(F1.0405120849609375
I4
tp3205
a(F1.0413811206817627
I4
tp3206
a(F1.0419740676879883
I4
tp3207
a(F1.0427660942077637
I4
tp3208
a(F1.0434701442718506
I4
tp3209
a(F1.0443360805511475
I4
tp3210
a(F1.0452380180358887
I4
tp3211
a(F1.0461030006408691
I4
tp3212
a(F1.0466721057891846
I4
tp3213
a(F1.0475971698760986
I4
tp3214
a(F1.0483841896057129
I4
tp3215
a(F1.0488409996032715
I4
tp3216
a(F1.0495691299438477
I4
tp3217
a(F1.0503110885620117
I4
tp3218
a(F1.0512070655822754
I4
tp3219
a(F1.0518732070922852
I4
tp3220
a(F1.0527811050415039
I4
tp3221
a(F1.0538411140441895
I4
tp3222
a(F1.0546951293945312
I4
tp3223
a(F1.0555591583251953
I4
tp3224
a(F1.0566592216491699
I4
tp3225
a(F1.0574541091918945
I4
tp3226
a(F1.0581841468811035
I4
tp3227
a(F1.058758020401001
I4
tp3228
a(F1.0595090389251709
I4
tp3229
a(F1.0602331161499023
I4
tp3230
a(F1.06144118309021
I4
tp3231
a(F1.0623881816864014
I4
tp3232
a(F1.0633950233459473
I4
tp3233
a(F1.0642662048339844
I4
tp3234
a(F1.064899206161499
I4
tp3235
a(F1.0656411647796631
I4
tp3236
a(F1.0666770935058594
I4
tp3237
a(F1.0676882266998291
I4
tp3238
a(F1.0685892105102539
I4
tp3239
a(F1.0694451332092285
I4
tp3240
a(F1.0702600479125977
I4
tp3241
a(F1.0713751316070557
I4
tp3242
a(F1.0720851421356201
I4
tp3243
a(F1.0728211402893066
I4
tp3244
a(F1.0739331245422363
I4
tp3245
a(F1.0745081901550293
I4
tp3246
a(F1.0753340721130371
I4
tp3247
a(F1.076261043548584
I4
tp3248
a(F1.0771081447601318
I4
tp3249
a(F1.0778532028198242
I4
tp3250
a(F1.078754186630249
I4
tp3251
a(F1.079658031463623
I4
tp3252
a(F1.0805480480194092
I4
tp3253
aF40.340000000000146
tp3254
sg75
((lp3255
F40.080000000001746
tp3256
sg106
((lp3257
F34.819999999999709
tp3258
ssba(imeasure_core
ProblemSetSolution
p3259
(dp3260
g3
g607
sg130
g3145
sg133
(dp3261
g610
((lp3262
F40.119999999998981
tp3263
sg659
((lp3264
F40.150000000001455
tp3265
sg700
((lp3266
F40.029999999998836
tp3267
sg747
((lp3268
F40.069999999999709
tp3269
ssba(imeasure_core
ProblemSetSolution
p3270
(dp3271
g3
g804
sg130
g3145
sg133
(dp3272
g807
((lp3273
F46.659999999999854
tp3274
sg858
((lp3275
F40.149999999997817
tp3276
sg903
((lp3277
F44.460000000002765
tp3278
sg952
((lp3279
F40.359999999996944
tp3280
ssba(imeasure_core
ProblemSetSolution
p3281
(dp3282
g3
g1007
sg130
g3145
sg133
(dp3283
g1246
((lp3284
F40.06000000000131
tp3285
sg1261
((lp3286
F40.049999999999272
tp3287
sg1010
((lp3288
F5.6000000000021828
tp3289
sg1276
((lp3290
F0.010000000002037268
tp3291
sg1036
((lp3292
F0.099999999998544808
tp3293
sg1051
((lp3294
F28.229999999999563
tp3295
sg1063
((lp3296
F0.65000000000145519
tp3297
sg1317
((lp3298
F0.68999999999869033
tp3299
sg1287
((lp3300
F0.0
tp3301
sg1092
((lp3302
F0.84000000000014552
tp3303
sg1114
((lp3304
F7.6699999999982538
tp3305
sg1135
((lp3306
F1.8300000000017462
tp3307
sg1175
((lp3308
F0.7000000000007276
tp3309
sg1197
((lp3310
(F0.0030610561370849609
I2
tp3311
aF0.32999999999810825
tp3312
sg1208
((lp3313
F0.10000000000218279
tp3314
sg1235
((lp3315
F0.71999999999752617
tp3316
sg1302
((lp3317
F40.069999999999709
tp3318
ssba(imeasure_core
ProblemSetSolution
p3319
(dp3320
g3
g4
sg130
S'AnytimeBest-d250_with_LinearHeuristic'
p3321
sg133
(dp3322
g8
((lp3323
F40.529999999998836
tp3324
sg48
((lp3325
(F0.99443292617797852
I4
tp3326
a(F0.99536609649658203
I4
tp3327
a(F0.99621391296386719
I4
tp3328
a(F0.99734997749328613
I4
tp3329
a(F0.99806904792785645
I4
tp3330
a(F0.99872803688049316
I4
tp3331
a(F0.99984502792358398
I4
tp3332
a(F1.0004739761352539
I4
tp3333
a(F1.0013339519500732
I4
tp3334
a(F1.0019268989562988
I4
tp3335
a(F1.0026390552520752
I4
tp3336
a(F1.0035951137542725
I4
tp3337
a(F1.004601001739502
I4
tp3338
a(F1.0054779052734375
I4
tp3339
a(F1.0060679912567139
I4
tp3340
a(F1.0069921016693115
I4
tp3341
a(F1.0073959827423096
I4
tp3342
a(F1.0081260204315186
I4
tp3343
a(F1.0090539455413818
I4
tp3344
a(F1.0100979804992676
I4
tp3345
a(F1.0110580921173096
I4
tp3346
a(F1.0120329856872559
I4
tp3347
a(F1.012624979019165
I4
tp3348
a(F1.0134921073913574
I4
tp3349
a(F1.0141220092773438
I4
tp3350
a(F1.0149350166320801
I4
tp3351
a(F1.0158340930938721
I4
tp3352
a(F1.0166609287261963
I4
tp3353
a(F1.0175631046295166
I4
tp3354
a(F1.0183019638061523
I4
tp3355
a(F1.019340991973877
I4
tp3356
a(F1.0202820301055908
I4
tp3357
a(F1.0213980674743652
I4
tp3358
a(F1.0223870277404785
I4
tp3359
a(F1.023421049118042
I4
tp3360
a(F1.0238609313964844
I4
tp3361
a(F1.02469801902771
I4
tp3362
a(F1.0256199836730957
I4
tp3363
a(F1.0263850688934326
I4
tp3364
a(F1.0270040035247803
I4
tp3365
a(F1.0277900695800781
I4
tp3366
a(F1.0285649299621582
I4
tp3367
a(F1.0296750068664551
I4
tp3368
a(F1.0303010940551758
I4
tp3369
a(F1.0310890674591064
I4
tp3370
a(F1.0317881107330322
I4
tp3371
a(F1.0325770378112793
I4
tp3372
a(F1.0334188938140869
I4
tp3373
a(F1.034013032913208
I4
tp3374
a(F1.03472900390625
I4
tp3375
a(F1.0357310771942139
I4
tp3376
a(F1.0365540981292725
I4
tp3377
a(F1.0371980667114258
I4
tp3378
a(F1.0377929210662842
I4
tp3379
a(F1.0385959148406982
I4
tp3380
a(F1.0393869876861572
I4
tp3381
a(F1.0402600765228271
I4
tp3382
a(F1.0408570766448975
I4
tp3383
a(F1.0416409969329834
I4
tp3384
a(F1.0423500537872314
I4
tp3385
a(F1.0432300567626953
I4
tp3386
a(F1.0441279411315918
I4
tp3387
a(F1.0449941158294678
I4
tp3388
a(F1.0455598831176758
I4
tp3389
a(F1.0464820861816406
I4
tp3390
a(F1.0472679138183594
I4
tp3391
a(F1.0477240085601807
I4
tp3392
a(F1.0484659671783447
I4
tp3393
a(F1.0491960048675537
I4
tp3394
a(F1.0500869750976562
I4
tp3395
a(F1.0507559776306152
I4
tp3396
a(F1.0516700744628906
I4
tp3397
a(F1.0527379512786865
I4
tp3398
a(F1.0535910129547119
I4
tp3399
a(F1.0544579029083252
I4
tp3400
a(F1.0555589199066162
I4
tp3401
a(F1.0563449859619141
I4
tp3402
a(F1.0570709705352783
I4
tp3403
a(F1.0576479434967041
I4
tp3404
a(F1.0584120750427246
I4
tp3405
a(F1.0591259002685547
I4
tp3406
a(F1.0603311061859131
I4
tp3407
a(F1.0612781047821045
I4
tp3408
a(F1.0622780323028564
I4
tp3409
a(F1.0631530284881592
I4
tp3410
a(F1.0637838840484619
I4
tp3411
a(F1.0645210742950439
I4
tp3412
a(F1.0655689239501953
I4
tp3413
a(F1.0665841102600098
I4
tp3414
a(F1.0674870014190674
I4
tp3415
a(F1.0683579444885254
I4
tp3416
a(F1.0691618919372559
I4
tp3417
a(F1.0702691078186035
I4
tp3418
a(F1.0709810256958008
I4
tp3419
a(F1.0717151165008545
I4
tp3420
a(F1.0728240013122559
I4
tp3421
a(F1.0733990669250488
I4
tp3422
a(F1.0742249488830566
I4
tp3423
a(F1.0751509666442871
I4
tp3424
a(F1.0759890079498291
I4
tp3425
a(F1.0767290592193604
I4
tp3426
a(F1.077625036239624
I4
tp3427
a(F1.0785369873046875
I4
tp3428
a(F1.0794041156768799
I4
tp3429
aF40.400000000001455
tp3430
sg75
((lp3431
F40.079999999998108
tp3432
sg106
((lp3433
F34.5
tp3434
ssba(imeasure_core
ProblemSetSolution
p3435
(dp3436
g3
g607
sg130
g3321
sg133
(dp3437
g610
((lp3438
F40.110000000000582
tp3439
sg659
((lp3440
F40.159999999999854
tp3441
sg700
((lp3442
F40.049999999999272
tp3443
sg747
((lp3444
F40.069999999999709
tp3445
ssba(imeasure_core
ProblemSetSolution
p3446
(dp3447
g3
g804
sg130
g3321
sg133
(dp3448
g807
((lp3449
F46.619999999998981
tp3450
sg858
((lp3451
F40.150000000001455
tp3452
sg903
((lp3453
F44.450000000000728
tp3454
sg952
((lp3455
F40.270000000000437
tp3456
ssba(imeasure_core
ProblemSetSolution
p3457
(dp3458
g3
g1007
sg130
g3321
sg133
(dp3459
g1246
((lp3460
F40.059999999997672
tp3461
sg1261
((lp3462
F40.05000000000291
tp3463
sg1010
((lp3464
F5.6100000000005821
tp3465
sg1276
((lp3466
F0.0
tp3467
sg1036
((lp3468
F0.099999999998544808
tp3469
sg1051
((lp3470
F28.220000000001164
tp3471
sg1063
((lp3472
F0.65000000000145519
tp3473
sg1317
((lp3474
F0.68000000000029104
tp3475
sg1287
((lp3476
F0.0099999999983992893
tp3477
sg1092
((lp3478
F0.83999999999650754
tp3479
sg1114
((lp3480
F7.680000000000291
tp3481
sg1135
((lp3482
F1.8300000000017462
tp3483
sg1175
((lp3484
F0.7000000000007276
tp3485
sg1197
((lp3486
(F0.0030920505523681641
I2
tp3487
aF0.32999999999810825
tp3488
sg1208
((lp3489
F0.11000000000058208
tp3490
sg1235
((lp3491
F0.72000000000116415
tp3492
sg1302
((lp3493
F40.18999999999869
tp3494
ssba(imeasure_core
ProblemSetSolution
p3495
(dp3496
g3
g4
sg130
S'AnytimeBest-d400_with_LinearHeuristic'
p3497
sg133
(dp3498
g8
((lp3499
F40.470000000001164
tp3500
sg48
((lp3501
(F0.99276018142700195
I4
tp3502
a(F0.99368810653686523
I4
tp3503
a(F0.99453520774841309
I4
tp3504
a(F0.99567222595214844
I4
tp3505
a(F0.9963841438293457
I4
tp3506
a(F0.99701499938964844
I4
tp3507
a(F0.99811601638793945
I4
tp3508
a(F0.9987490177154541
I4
tp3509
a(F0.99961709976196289
I4
tp3510
a(F1.0002110004425049
I4
tp3511
a(F1.0009231567382812
I4
tp3512
a(F1.0018820762634277
I4
tp3513
a(F1.0028910636901855
I4
tp3514
a(F1.0037710666656494
I4
tp3515
a(F1.004364013671875
I4
tp3516
a(F1.0052900314331055
I4
tp3517
a(F1.005695104598999
I4
tp3518
a(F1.0064229965209961
I4
tp3519
a(F1.0073280334472656
I4
tp3520
a(F1.0083692073822021
I4
tp3521
a(F1.009343147277832
I4
tp3522
a(F1.0103161334991455
I4
tp3523
a(F1.0109071731567383
I4
tp3524
a(F1.0117712020874023
I4
tp3525
a(F1.0123991966247559
I4
tp3526
a(F1.0132150650024414
I4
tp3527
a(F1.0141291618347168
I4
tp3528
a(F1.0149710178375244
I4
tp3529
a(F1.0158710479736328
I4
tp3530
a(F1.0165982246398926
I4
tp3531
a(F1.0176370143890381
I4
tp3532
a(F1.018578052520752
I4
tp3533
a(F1.0197250843048096
I4
tp3534
a(F1.0207102298736572
I4
tp3535
a(F1.0217480659484863
I4
tp3536
a(F1.0221891403198242
I4
tp3537
a(F1.0230340957641602
I4
tp3538
a(F1.0239641666412354
I4
tp3539
a(F1.0247321128845215
I4
tp3540
a(F1.0253481864929199
I4
tp3541
a(F1.0261340141296387
I4
tp3542
a(F1.0269100666046143
I4
tp3543
a(F1.0280401706695557
I4
tp3544
a(F1.028670072555542
I4
tp3545
a(F1.0294671058654785
I4
tp3546
a(F1.0301580429077148
I4
tp3547
a(F1.0309350490570068
I4
tp3548
a(F1.0317730903625488
I4
tp3549
a(F1.0323641300201416
I4
tp3550
a(F1.0330741405487061
I4
tp3551
a(F1.0340781211853027
I4
tp3552
a(F1.0349001884460449
I4
tp3553
a(F1.0355410575866699
I4
tp3554
a(F1.0361311435699463
I4
tp3555
a(F1.0369081497192383
I4
tp3556
a(F1.0376951694488525
I4
tp3557
a(F1.0385611057281494
I4
tp3558
a(F1.039168119430542
I4
tp3559
a(F1.0399570465087891
I4
tp3560
a(F1.0406601428985596
I4
tp3561
a(F1.0415232181549072
I4
tp3562
a(F1.042424201965332
I4
tp3563
a(F1.0432910919189453
I4
tp3564
a(F1.0438601970672607
I4
tp3565
a(F1.0447862148284912
I4
tp3566
a(F1.0455729961395264
I4
tp3567
a(F1.0460281372070312
I4
tp3568
a(F1.0467541217803955
I4
tp3569
a(F1.0474801063537598
I4
tp3570
a(F1.0483701229095459
I4
tp3571
a(F1.04905104637146
I4
tp3572
a(F1.049976110458374
I4
tp3573
a(F1.0510392189025879
I4
tp3574
a(F1.051889181137085
I4
tp3575
a(F1.0527551174163818
I4
tp3576
a(F1.0538580417633057
I4
tp3577
a(F1.0546460151672363
I4
tp3578
a(F1.0553750991821289
I4
tp3579
a(F1.0559501647949219
I4
tp3580
a(F1.0567002296447754
I4
tp3581
a(F1.0574181079864502
I4
tp3582
a(F1.0586261749267578
I4
tp3583
a(F1.0595901012420654
I4
tp3584
a(F1.0605931282043457
I4
tp3585
a(F1.0614662170410156
I4
tp3586
a(F1.062096118927002
I4
tp3587
a(F1.0628352165222168
I4
tp3588
a(F1.0638730525970459
I4
tp3589
a(F1.0648901462554932
I4
tp3590
a(F1.0657942295074463
I4
tp3591
a(F1.0666561126708984
I4
tp3592
a(F1.0674591064453125
I4
tp3593
a(F1.068568229675293
I4
tp3594
a(F1.0692920684814453
I4
tp3595
a(F1.0700252056121826
I4
tp3596
a(F1.0711400508880615
I4
tp3597
a(F1.0717201232910156
I4
tp3598
a(F1.0725440979003906
I4
tp3599
a(F1.0734760761260986
I4
tp3600
a(F1.074315071105957
I4
tp3601
a(F1.0750532150268555
I4
tp3602
a(F1.0759491920471191
I4
tp3603
a(F1.0768501758575439
I4
tp3604
a(F1.0777170658111572
I4
tp3605
aF40.389999999999418
tp3606
sg75
((lp3607
F40.080000000001746
tp3608
sg106
((lp3609
F34.549999999999272
tp3610
ssba(imeasure_core
ProblemSetSolution
p3611
(dp3612
g3
g607
sg130
g3497
sg133
(dp3613
g610
((lp3614
F40.110000000000582
tp3615
sg659
((lp3616
F40.169999999998254
tp3617
sg700
((lp3618
F40.030000000002474
tp3619
sg747
((lp3620
F40.069999999999709
tp3621
ssba(imeasure_core
ProblemSetSolution
p3622
(dp3623
g3
g804
sg130
g3497
sg133
(dp3624
g807
((lp3625
F46.599999999998545
tp3626
sg858
((lp3627
F40.150000000001455
tp3628
sg903
((lp3629
F44.349999999998545
tp3630
sg952
((lp3631
F40.30000000000291
tp3632
ssba(imeasure_core
ProblemSetSolution
p3633
(dp3634
g3
g1007
sg130
g3497
sg133
(dp3635
g1246
((lp3636
F40.059999999997672
tp3637
sg1261
((lp3638
F40.05000000000291
tp3639
sg1010
((lp3640
F5.6099999999969441
tp3641
sg1276
((lp3642
F0.0
tp3643
sg1036
((lp3644
F0.10000000000218279
tp3645
sg1051
((lp3646
F28.299999999999272
tp3647
sg1063
((lp3648
F0.65999999999985448
tp3649
sg1317
((lp3650
F0.68000000000029104
tp3651
sg1287
((lp3652
F0.0099999999983992893
tp3653
sg1092
((lp3654
F0.84000000000014552
tp3655
sg1114
((lp3656
F7.7000000000007276
tp3657
sg1135
((lp3658
F1.8400000000001455
tp3659
sg1175
((lp3660
F0.7000000000007276
tp3661
sg1197
((lp3662
(F0.0030770301818847656
I2
tp3663
aF0.32999999999810825
tp3664
sg1208
((lp3665
F0.11000000000058208
tp3666
sg1235
((lp3667
F0.72000000000116415
tp3668
sg1302
((lp3669
F40.069999999999709
tp3670
ssba.