(lp0
(imeasure_core
ProblemSetSolution
p1
(dp2
S'roomset'
p3
(imeasure_core
RoomSet
p4
(dp5
S'rooms'
p6
(dp7
(iproblems
RoomID
p8
(dp9
S'dusts'
p10
I10
sS'obstacles'
p11
(I0
I8
tp12
sS'robots'
p13
I4
sS'height'
p14
I10
sS'width'
p15
I9
sS'seed'
p16
I4712128852136459333
sb(imulti_robot_problem
MultiRobotState
p17
(dp18
S'obstacle_locations'
p19
c__builtin__
frozenset
p20
((lp21
(I0
I6
tp22
ag12
a(I2
I3
tp23
a(I1
I5
tp24
a(I8
I0
tp25
a(I1
I1
tp26
a(I0
I7
tp27
atp28
Rp29
sg15
I9
sS'dirt_locations'
p30
g20
((lp31
(I4
I7
tp32
a(I1
I3
tp33
a(I4
I9
tp34
a(I8
I1
tp35
a(I7
I6
tp36
a(I2
I6
tp37
a(I8
I7
tp38
a(I2
I2
tp39
a(I4
I1
tp40
a(I2
I4
tp41
atp42
Rp43
sg13
((I5
I8
tp44
(I6
I9
tp45
(I5
I0
tp46
(I3
I1
tp47
tp48
sg14
I10
sbs(iproblems
RoomID
p49
(dp50
g10
I9
sg11
(I3
I4
tp51
sg13
I1
sg14
I7
sg15
I8
sg16
I6613812840851947673
sb(imulti_robot_problem
MultiRobotState
p52
(dp53
g19
g20
((lp54
(I3
I5
tp55
ag51
a(I2
I4
tp56
a(I2
I1
tp57
a(I1
I4
tp58
atp59
Rp60
sg15
I8
sg30
g20
((lp61
(I6
I4
tp62
a(I5
I4
tp63
a(I6
I0
tp64
a(I7
I5
tp65
a(I1
I6
tp66
a(I2
I2
tp67
a(I0
I5
tp68
a(I4
I1
tp69
a(I4
I0
tp70
atp71
Rp72
sg13
((I3
I1
tp73
tp74
sg14
I7
sbs(iproblems
RoomID
p75
(dp76
g10
I9
sg11
(I5
I3
tp77
sg13
I3
sg14
I7
sg15
I8
sg16
I4594210616595436404
sb(imulti_robot_problem
MultiRobotState
p78
(dp79
g19
g20
((lp80
(I0
I1
tp81
a(I3
I3
tp82
a(I4
I3
tp83
a(I4
I2
tp84
a(I6
I1
tp85
ag77
atp86
Rp87
sg15
I8
sg30
g20
((lp88
(I6
I6
tp89
a(I5
I6
tp90
a(I4
I4
tp91
a(I1
I4
tp92
a(I0
I6
tp93
a(I5
I1
tp94
a(I1
I0
tp95
a(I0
I3
tp96
a(I1
I1
tp97
atp98
Rp99
sg13
((I2
I1
tp100
(I3
I4
tp101
(I3
I6
tp102
tp103
sg14
I7
sbs(iproblems
RoomID
p104
(dp105
g10
I10
sg11
(I4
I8
tp106
sg13
I4
sg14
I10
sg15
I7
sg16
I956523682424107605
sb(imulti_robot_problem
MultiRobotState
p107
(dp108
g19
g20
((lp109
(I2
I8
tp110
ag106
a(I3
I7
tp111
a(I2
I9
tp112
a(I4
I2
tp113
atp114
Rp115
sg15
I7
sg30
g20
((lp116
(I5
I9
tp117
a(I4
I7
tp118
a(I1
I3
tp119
a(I3
I3
tp120
a(I5
I5
tp121
a(I6
I1
tp122
a(I5
I4
tp123
a(I0
I4
tp124
a(I5
I2
tp125
a(I5
I3
tp126
atp127
Rp128
sg13
((I1
I9
tp129
(I4
I9
tp130
(I1
I8
tp131
(I0
I3
tp132
tp133
sg14
I10
sbssS'name'
p134
S'easy_roomset'
p135
sbsg134
S"AnytimeBeam-w4-gf(1.1000000000000001, 'exp')_with_PowerHeuristic2"
p136
sS'solutions'
p137
(dp138
g8
((lp139
(F0.50266408920288086
I11
tp140
aF39.990000000005239
tp141
sg49
((lp142
F39.989999999997963
tp143
sg75
((lp144
F40.010000000002037
tp145
sg104
((lp146
(F1.3648579120635986
I10
tp147
aF40.369999999995343
tp148
ssba(imeasure_core
ProblemSetSolution
p149
(dp150
g3
(imeasure_core
RoomSet
p151
(dp152
g6
(dp153
(iproblems
RoomID
p154
(dp155
g10
I10
sg11
(I8
I7
tp156
sg13
I4
sg14
I12
sg15
I11
sg16
I4712128852136459333
sb(imulti_robot_problem
MultiRobotState
p157
(dp158
g19
g20
((lp159
(I6
I4
tp160
a(I4
I7
tp161
ag156
a(I4
I5
tp162
a(I3
I11
tp163
a(I0
I7
tp164
a(I7
I7
tp165
a(I1
I6
tp166
a(I1
I9
tp167
a(I2
I10
tp168
a(I4
I2
tp169
a(I1
I11
tp170
a(I6
I5
tp171
a(I5
I3
tp172
a(I9
I0
tp173
a(I0
I8
tp174
a(I5
I5
tp175
a(I7
I6
tp176
a(I3
I1
tp177
a(I2
I11
tp178
a(I0
I9
tp179
a(I2
I3
tp180
a(I4
I1
tp181
a(I1
I1
tp182
atp183
Rp184
sg15
I11
sg30
g20
((lp185
(I2
I7
tp186
a(I9
I1
tp187
a(I9
I8
tp188
a(I5
I1
tp189
a(I2
I5
tp190
a(I9
I7
tp191
a(I3
I4
tp192
a(I2
I4
tp193
a(I5
I8
tp194
a(I3
I3
tp195
atp196
Rp197
sg13
((I6
I10
tp198
(I8
I10
tp199
(I7
I0
tp200
(I5
I11
tp201
tp202
sg14
I12
sbs(iproblems
RoomID
p203
(dp204
g10
I9
sg11
(I4
I4
tp205
sg13
I3
sg14
I9
sg15
I10
sg16
I4594210616595436404
sb(imulti_robot_problem
MultiRobotState
p206
(dp207
g19
g20
((lp208
(I1
I3
tp209
a(I3
I0
tp210
a(I2
I1
tp211
a(I1
I6
tp212
a(I9
I4
tp213
a(I3
I7
tp214
a(I0
I3
tp215
a(I1
I2
tp216
a(I5
I5
tp217
a(I1
I5
tp218
a(I7
I6
tp219
ag205
a(I6
I3
tp220
a(I5
I6
tp221
a(I3
I6
tp222
a(I0
I4
tp223
a(I8
I6
tp224
a(I3
I5
tp225
a(I1
I1
tp226
a(I5
I4
tp227
a(I4
I5
tp228
a(I0
I5
tp229
a(I5
I3
tp230
a(I0
I1
tp231
a(I5
I2
tp232
a(I0
I6
tp233
a(I2
I0
tp234
a(I1
I8
tp235
a(I2
I3
tp236
a(I9
I5
tp237
a(I3
I4
tp238
a(I0
I2
tp239
atp240
Rp241
sg15
I10
sg30
g20
((lp242
(I7
I8
tp243
a(I7
I0
tp244
a(I6
I8
tp245
a(I2
I8
tp246
a(I8
I8
tp247
a(I0
I8
tp248
a(I8
I5
tp249
a(I5
I8
tp250
a(I8
I2
tp251
atp252
Rp253
sg13
((I4
I6
tp254
(I2
I5
tp255
(I6
I1
tp256
tp257
sg14
I9
sbs(iproblems
RoomID
p258
(dp259
g10
I5
sg11
(I4
I9
tp260
sg13
I4
sg14
I11
sg15
I11
sg16
I1881095652490078568
sb(imulti_robot_problem
MultiRobotState
p261
(dp262
g19
g20
((lp263
(I6
I9
tp264
a(I6
I6
tp265
a(I4
I5
tp266
a(I2
I8
tp267
a(I9
I3
tp268
a(I4
I7
tp269
a(I7
I5
tp270
a(I5
I4
tp271
ag260
a(I6
I5
tp272
a(I3
I5
tp273
a(I7
I4
tp274
a(I1
I7
tp275
a(I6
I7
tp276
a(I4
I6
tp277
a(I7
I6
tp278
a(I4
I4
tp279
a(I8
I10
tp280
a(I6
I3
tp281
a(I7
I10
tp282
a(I2
I2
tp283
a(I4
I8
tp284
a(I7
I8
tp285
a(I1
I1
tp286
a(I8
I4
tp287
atp288
Rp289
sg15
I11
sg30
g20
((lp290
(I1
I10
tp291
a(I5
I9
tp292
a(I0
I0
tp293
a(I10
I2
tp294
a(I9
I7
tp295
atp296
Rp297
sg13
((I5
I7
tp298
(I8
I1
tp299
(I3
I1
tp300
(I8
I8
tp301
tp302
sg14
I11
sbs(iproblems
RoomID
p303
(dp304
g10
I8
sg11
(I5
I0
tp305
sg13
I4
sg14
I9
sg15
I9
sg16
I6858376947525423350
sb(imulti_robot_problem
MultiRobotState
p306
(dp307
g19
g20
((lp308
(I6
I4
tp309
a(I4
I7
tp310
a(I1
I3
tp311
a(I4
I3
tp312
a(I7
I1
tp313
a(I3
I0
tp314
a(I2
I8
tp315
a(I6
I0
tp316
a(I2
I1
tp317
a(I1
I6
tp318
a(I5
I1
tp319
a(I2
I5
tp320
a(I0
I8
tp321
a(I7
I2
tp322
a(I2
I7
tp323
a(I3
I8
tp324
a(I5
I5
tp325
a(I6
I1
tp326
a(I5
I7
tp327
a(I6
I3
tp328
a(I1
I8
tp329
ag305
a(I2
I2
tp330
a(I2
I3
tp331
a(I3
I4
tp332
a(I2
I4
tp333
atp334
Rp335
sg15
I9
sg30
g20
((lp336
(I8
I3
tp337
a(I7
I0
tp338
a(I4
I6
tp339
a(I6
I6
tp340
a(I7
I5
tp341
a(I8
I0
tp342
a(I8
I8
tp343
a(I8
I4
tp344
atp345
Rp346
sg13
((I1
I1
tp347
(I6
I5
tp348
(I8
I2
tp349
(I1
I5
tp350
tp351
sg14
I9
sbssg134
S'mild_roomset'
p352
sbsg134
g136
sg137
(dp353
g154
((lp354
F40.180000000000291
tp355
sg203
((lp356
F40.010000000002037
tp357
sg258
((lp358
(F0.59670305252075195
I7
tp359
aF40.019999999996799
tp360
sg303
((lp361
F40.129999999997381
tp362
ssba(imeasure_core
ProblemSetSolution
p363
(dp364
g3
(imeasure_core
RoomSet
p365
(dp366
g6
(dp367
(iproblems
RoomID
p368
(dp369
g10
I15
sg11
(I5
I9
tp370
sg13
I7
sg14
I13
sg15
I12
sg16
I4712128852136459333
sb(imulti_robot_problem
MultiRobotState
p371
(dp372
g19
g20
((lp373
g370
a(I4
I9
tp374
a(I5
I5
tp375
a(I4
I12
tp376
a(I2
I8
tp377
a(I3
I1
tp378
a(I3
I9
tp379
a(I9
I4
tp380
a(I1
I7
tp381
a(I1
I10
tp382
a(I3
I12
tp383
a(I0
I8
tp384
a(I5
I2
tp385
atp386
Rp387
sg15
I12
sg30
g20
((lp388
(I6
I9
tp389
a(I3
I3
tp390
a(I1
I12
tp391
a(I5
I6
tp392
a(I7
I7
tp393
a(I3
I5
tp394
a(I3
I8
tp395
a(I8
I8
tp396
a(I10
I0
tp397
a(I2
I5
tp398
a(I10
I2
tp399
a(I3
I4
tp400
a(I1
I1
tp401
a(I5
I8
tp402
a(I9
I7
tp403
atp404
Rp405
sg13
((I6
I11
tp406
(I8
I11
tp407
(I7
I0
tp408
(I4
I1
tp409
(I6
I12
tp410
(I10
I9
tp411
(I6
I1
tp412
tp413
sg14
I13
sbs(iproblems
RoomID
p414
(dp415
g10
I14
sg11
(I5
I5
tp416
sg13
I5
sg14
I10
sg15
I11
sg16
I6613812840851947673
sb(imulti_robot_problem
MultiRobotState
p417
(dp418
g19
g20
((lp419
(I4
I7
tp420
a(I2
I6
tp421
a(I6
I6
tp422
a(I4
I5
tp423
a(I7
I5
tp424
a(I1
I6
tp425
a(I8
I7
tp426
a(I3
I7
tp427
a(I10
I3
tp428
a(I3
I5
tp429
a(I10
I8
tp430
a(I6
I3
tp431
ag416
a(I8
I5
tp432
a(I7
I4
tp433
a(I3
I8
tp434
a(I0
I6
tp435
a(I3
I6
tp436
a(I1
I3
tp437
a(I8
I6
tp438
a(I2
I4
tp439
atp440
Rp441
sg15
I11
sg30
g20
((lp442
(I6
I4
tp443
a(I3
I2
tp444
a(I4
I6
tp445
a(I4
I9
tp446
a(I3
I3
tp447
a(I9
I8
tp448
a(I8
I0
tp449
a(I8
I8
tp450
a(I5
I0
tp451
a(I1
I0
tp452
a(I8
I4
tp453
a(I5
I2
tp454
a(I6
I1
tp455
a(I9
I7
tp456
atp457
Rp458
sg13
((I5
I1
tp459
(I0
I8
tp460
(I2
I9
tp461
(I4
I1
tp462
(I7
I6
tp463
tp464
sg14
I10
sbs(iproblems
RoomID
p465
(dp466
g10
I15
sg11
(I4
I8
tp467
sg13
I6
sg14
I13
sg15
I10
sg16
I956523682424107605
sb(imulti_robot_problem
MultiRobotState
p468
(dp469
g19
g20
((lp470
(I5
I9
tp471
a(I6
I9
tp472
a(I7
I10
tp473
ag467
a(I5
I6
tp474
a(I3
I11
tp475
a(I9
I4
tp476
a(I4
I9
tp477
a(I5
I8
tp478
a(I2
I7
tp479
a(I5
I10
tp480
a(I5
I5
tp481
a(I3
I10
tp482
a(I5
I7
tp483
a(I9
I9
tp484
a(I5
I0
tp485
a(I7
I8
tp486
a(I1
I1
tp487
atp488
Rp489
sg15
I10
sg30
g20
((lp490
(I6
I10
tp491
a(I8
I3
tp492
a(I1
I3
tp493
a(I6
I6
tp494
a(I7
I6
tp495
a(I8
I12
tp496
a(I5
I4
tp497
a(I1
I4
tp498
a(I2
I10
tp499
a(I7
I4
tp500
a(I1
I5
tp501
a(I7
I5
tp502
a(I0
I9
tp503
a(I7
I11
tp504
a(I6
I2
tp505
atp506
Rp507
sg13
((I1
I12
tp508
(I6
I12
tp509
(I2
I11
tp510
(I0
I4
tp511
(I9
I1
tp512
(I7
I7
tp513
tp514
sg14
I13
sbs(iproblems
RoomID
p515
(dp516
g10
I15
sg11
(I6
I6
tp517
sg13
I5
sg14
I11
sg15
I11
sg16
I2893396244277848635
sb(imulti_robot_problem
MultiRobotState
p518
(dp519
g19
g20
((lp520
(I7
I3
tp521
a(I4
I7
tp522
a(I5
I5
tp523
a(I4
I8
tp524
a(I5
I6
tp525
a(I2
I8
tp526
ag517
a(I3
I2
tp527
a(I3
I9
tp528
a(I4
I3
tp529
a(I1
I7
tp530
a(I6
I9
tp531
atp532
Rp533
sg15
I11
sg30
g20
((lp534
(I2
I6
tp535
a(I8
I7
tp536
a(I3
I10
tp537
a(I3
I1
tp538
a(I2
I10
tp539
a(I0
I5
tp540
a(I6
I5
tp541
a(I3
I6
tp542
a(I8
I6
tp543
a(I4
I0
tp544
a(I3
I7
tp545
a(I7
I9
tp546
a(I4
I1
tp547
a(I5
I8
tp548
a(I5
I3
tp549
atp550
Rp551
sg13
((I4
I5
tp552
(I0
I9
tp553
(I0
I1
tp554
(I9
I2
tp555
(I8
I10
tp556
tp557
sg14
I11
sbssg134
S'heavy_roomset'
p558
sbsg134
g136
sg137
(dp559
g368
((lp560
F47.5
tp561
sg414
((lp562
F40.370000000002619
tp563
sg465
((lp564
F46.400000000001455
tp565
sg515
((lp566
F40.789999999993597
tp567
ssba(imeasure_core
ProblemSetSolution
p568
(dp569
g3
(imeasure_core
RoomSet
p570
(dp571
g6
(dp572
S'complexRoom'
p573
(imulti_robot_problem
MultiRobotState
p574
(dp575
g19
g20
((lp576
(I2
I7
tp577
a(I7
I3
tp578
a(I6
I3
tp579
a(I3
I3
tp580
a(I7
I6
tp581
a(I7
I4
tp582
a(I7
I5
tp583
a(I2
I3
tp584
a(I4
I3
tp585
a(I2
I5
tp586
a(I2
I4
tp587
a(I5
I3
tp588
atp589
Rp590
sg15
I11
sg30
g20
((lp591
(I1
I0
tp592
a(I9
I0
tp593
atp594
Rp595
sg13
((I6
I4
tp596
(I1
I6
tp597
tp598
sg14
I8
sbsS'exampleProblem'
p599
(imulti_robot_problem
MultiRobotState
p600
(dp601
g19
g20
((lp602
tp603
Rp604
sg15
I5
sg30
g20
((lp605
(I1
I3
tp606
a(I3
I1
tp607
a(I1
I1
tp608
a(I3
I3
tp609
atp610
Rp611
sg13
((I2
I2
tp612
tp613
sg14
I5
sbsS'linear_test'
p614
(imulti_robot_problem
MultiRobotState
p615
(dp616
g19
g604
sg15
I12
sg30
g20
((lp617
(I11
I0
tp618
a(I1
I0
tp619
a(I9
I0
tp620
atp621
Rp622
sg13
((I3
I0
tp623
(I1
I2
tp624
tp625
sg14
I7
sbsS'obstacle_Far_CloseTest'
p626
(imulti_robot_problem
MultiRobotState
p627
(dp628
g19
g20
((lp629
(I0
I1
tp630
a(I7
I3
tp631
a(I3
I1
tp632
a(I7
I1
tp633
a(I4
I5
tp634
a(I7
I6
tp635
a(I4
I4
tp636
a(I2
I1
tp637
a(I7
I4
tp638
a(I7
I5
tp639
a(I4
I3
tp640
a(I4
I2
tp641
a(I4
I1
tp642
a(I1
I1
tp643
a(I7
I2
tp644
atp645
Rp646
sg15
I12
sg30
g20
((lp647
(I3
I2
tp648
a(I9
I6
tp649
atp650
Rp651
sg13
((I0
I0
tp652
(I6
I6
tp653
tp654
sg14
I7
sbsS'zigzag'
p655
(imulti_robot_problem
MultiRobotState
p656
(dp657
g19
g20
((lp658
(I1
I2
tp659
a(I3
I2
tp660
a(I1
I3
tp661
a(I3
I0
tp662
a(I3
I1
tp663
a(I5
I1
tp664
a(I5
I2
tp665
a(I1
I1
tp666
a(I5
I3
tp667
atp668
Rp669
sg15
I20
sg30
g20
((lp670
(I6
I3
tp671
atp672
Rp673
sg13
((I0
I3
tp674
(I19
I3
tp675
tp676
sg14
I4
sbsS'room1'
p677
(imulti_robot_problem
MultiRobotState
p678
(dp679
g19
g20
((lp680
(I6
I3
tp681
a(I7
I3
tp682
a(I8
I3
tp683
a(I2
I3
tp684
a(I3
I3
tp685
a(I4
I3
tp686
a(I5
I3
tp687
atp688
Rp689
sg15
I9
sg30
g20
((lp690
(I0
I0
tp691
a(I2
I1
tp692
atp693
Rp694
sg13
((I6
I1
tp695
(I6
I5
tp696
tp697
sg14
I6
sbsS'complexRoom2'
p698
(imulti_robot_problem
MultiRobotState
p699
(dp700
g19
g20
((lp701
(I7
I3
tp702
a(I1
I3
tp703
a(I7
I1
tp704
a(I4
I5
tp705
a(I9
I3
tp706
a(I5
I5
tp707
a(I2
I6
tp708
a(I2
I3
tp709
a(I5
I1
tp710
a(I0
I3
tp711
a(I10
I3
tp712
a(I2
I5
tp713
a(I6
I5
tp714
a(I5
I3
tp715
a(I2
I7
tp716
a(I8
I3
tp717
a(I3
I3
tp718
a(I5
I2
tp719
a(I7
I6
tp720
a(I3
I1
tp721
a(I6
I3
tp722
a(I7
I5
tp723
a(I4
I3
tp724
a(I3
I5
tp725
a(I4
I1
tp726
a(I6
I1
tp727
atp728
Rp729
sg15
I11
sg30
g20
((lp730
(I7
I2
tp731
a(I0
I7
tp732
atp733
Rp734
sg13
((I1
I2
tp735
(I3
I6
tp736
tp737
sg14
I8
sbsS'zigzagUpright'
p738
(imulti_robot_problem
MultiRobotState
p739
(dp740
g19
g20
((lp741
(I1
I3
tp742
a(I3
I1
tp743
a(I2
I1
tp744
a(I1
I1
tp745
a(I1
I5
tp746
a(I2
I3
tp747
a(I2
I5
tp748
a(I0
I3
tp749
a(I3
I5
tp750
atp751
Rp752
sg15
I4
sg30
g20
((lp753
(I3
I6
tp754
atp755
Rp756
sg13
((I3
I0
tp757
(I3
I19
tp758
tp759
sg14
I20
sbsS'ivansRevenge'
p760
(imulti_robot_problem
MultiRobotState
p761
(dp762
g19
g604
sg15
I10
sg30
g20
((lp763
(I9
I2
tp764
a(I0
I0
tp765
atp766
Rp767
sg13
((I9
I0
tp768
(I0
I2
tp769
tp770
sg14
I3
sbsS'roomLongWithObstaccle'
p771
(imulti_robot_problem
MultiRobotState
p772
(dp773
g19
g20
((lp774
(I0
I1
tp775
a(I12
I1
tp776
a(I9
I1
tp777
a(I7
I1
tp778
a(I8
I1
tp779
a(I6
I1
tp780
a(I3
I1
tp781
a(I2
I1
tp782
a(I11
I1
tp783
a(I10
I1
tp784
a(I5
I1
tp785
a(I4
I1
tp786
a(I1
I1
tp787
atp788
Rp789
sg15
I15
sg30
g20
((lp790
(I0
I2
tp791
a(I14
I6
tp792
atp793
Rp794
sg13
((I0
I0
tp795
(I0
I6
tp796
tp797
sg14
I7
sbsS'twoRobotsInOpCorners'
p798
(imulti_robot_problem
MultiRobotState
p799
(dp800
g19
g604
sg15
I5
sg30
g20
((lp801
(I0
I0
tp802
a(I4
I4
tp803
atp804
Rp805
sg13
((I3
I0
tp806
(I0
I3
tp807
tp808
sg14
I5
sbsS'split2'
p809
(imulti_robot_problem
MultiRobotState
p810
(dp811
g19
g604
sg15
I10
sg30
g20
((lp812
(I0
I9
tp813
a(I9
I0
tp814
a(I0
I0
tp815
a(I9
I9
tp816
atp817
Rp818
sg13
((I1
I1
tp819
(I8
I1
tp820
(I4
I5
tp821
(I5
I5
tp822
tp823
sg14
I10
sbsS'split3'
p824
(imulti_robot_problem
MultiRobotState
p825
(dp826
g19
g604
sg15
I10
sg30
g20
((lp827
(I0
I9
tp828
a(I9
I0
tp829
a(I0
I0
tp830
a(I9
I9
tp831
atp832
Rp833
sg13
((I1
I1
tp834
(I8
I1
tp835
(I1
I7
tp836
(I7
I7
tp837
tp838
sg14
I10
sbsS'gaintRoom'
p839
(imulti_robot_problem
MultiRobotState
p840
(dp841
g19
g604
sg15
I5
sg30
g20
((lp842
(I4
I0
tp843
a(I4
I4
tp844
a(I0
I4
tp845
atp846
Rp847
sg13
((I0
I0
tp848
tp849
sg14
I5
sbsS'gaintRoomWithWall'
p850
(imulti_robot_problem
MultiRobotState
p851
(dp852
g19
g20
((lp853
(I2
I4
tp854
atp855
Rp856
sg15
I5
sg30
g20
((lp857
(I4
I0
tp858
a(I4
I4
tp859
a(I0
I4
tp860
atp861
Rp862
sg13
((I0
I0
tp863
tp864
sg14
I5
sbsS'split'
p865
(imulti_robot_problem
MultiRobotState
p866
(dp867
g19
g604
sg15
I10
sg30
g20
((lp868
(I0
I9
tp869
a(I9
I0
tp870
a(I0
I0
tp871
a(I9
I9
tp872
atp873
Rp874
sg13
((I4
I4
tp875
(I5
I4
tp876
(I4
I5
tp877
(I5
I5
tp878
tp879
sg14
I10
sbsS'twoRobots'
p880
(imulti_robot_problem
MultiRobotState
p881
(dp882
g19
g604
sg15
I9
sg30
g20
((lp883
(I8
I0
tp884
a(I0
I0
tp885
atp886
Rp887
sg13
((I2
I0
tp888
(I0
I3
tp889
tp890
sg14
I4
sbssg134
S'static_rooms'
p891
sbsg134
g136
sg137
(dp892
g809
((lp893
F40.190000000002328
tp894
sg824
((lp895
F40.169999999998254
tp896
sg573
((lp897
F39.990000000005239
tp898
sg839
((lp899
F39.990000000005239
tp900
sg599
((lp901
F39.989999999997963
tp902
sg614
((lp903
F40.010000000002037
tp904
sg626
((lp905
F39.989999999997963
tp906
sg880
((lp907
F39.989999999997963
tp908
sg850
((lp909
F39.989999999997963
tp910
sg655
((lp911
F39.989999999997963
tp912
sg677
((lp913
(F0.026205062866210938
I7
tp914
aF40.0
tp915
sg698
((lp916
F39.990000000005239
tp917
sg738
((lp918
F39.989999999997963
tp919
sg760
((lp920
(F0.0037150382995605469
I2
tp921
aF40.0
tp922
sg771
((lp923
F39.989999999997963
tp924
sg798
((lp925
F39.989999999997963
tp926
sg865
((lp927
F40.400000000001455
tp928
ssba(imeasure_core
ProblemSetSolution
p929
(dp930
g3
g4
sg134
S"AnytimeBeam-w4-gf(1.3, 'exp')_with_PowerHeuristic2"
p931
sg137
(dp932
g8
((lp933
(F0.49939894676208496
I11
tp934
aF40.019999999996799
tp935
sg49
((lp936
F39.989999999997963
tp937
sg75
((lp938
F40.060000000004948
tp939
sg104
((lp940
(F1.3461039066314697
I10
tp941
aF40.319999999999709
tp942
ssba(imeasure_core
ProblemSetSolution
p943
(dp944
g3
g151
sg134
g931
sg137
(dp945
g154
((lp946
F40.159999999996217
tp947
sg203
((lp948
F40.029999999998836
tp949
sg258
((lp950
(F0.59349703788757324
I7
tp951
aF40.150000000001455
tp952
sg303
((lp953
F40.069999999999709
tp954
ssba(imeasure_core
ProblemSetSolution
p955
(dp956
g3
g365
sg134
g931
sg137
(dp957
g368
((lp958
F47.040000000000873
tp959
sg414
((lp960
F40.269999999996799
tp961
sg465
((lp962
F46.360000000000582
tp963
sg515
((lp964
F40.810000000004948
tp965
ssba(imeasure_core
ProblemSetSolution
p966
(dp967
g3
g570
sg134
g931
sg137
(dp968
g809
((lp969
F40.119999999995343
tp970
sg824
((lp971
F40.099999999998545
tp972
sg573
((lp973
F40.0
tp974
sg839
((lp975
F39.990000000005239
tp976
sg599
((lp977
F39.989999999997963
tp978
sg614
((lp979
F40.0
tp980
sg626
((lp981
F39.989999999997963
tp982
sg880
((lp983
F40.0
tp984
sg850
((lp985
F39.989999999997963
tp986
sg655
((lp987
F39.989999999997963
tp988
sg677
((lp989
(F0.026013851165771484
I7
tp990
aF39.990000000005239
tp991
sg698
((lp992
F40.0
tp993
sg738
((lp994
F39.989999999997963
tp995
sg760
((lp996
(F0.0036978721618652344
I2
tp997
aF39.989999999997963
tp998
sg771
((lp999
F39.990000000005239
tp1000
sg798
((lp1001
F40.0
tp1002
sg865
((lp1003
F40.400000000001455
tp1004
ssba(imeasure_core
ProblemSetSolution
p1005
(dp1006
g3
g4
sg134
S"AnytimeBeam-w4-gf(1.5, 'exp')_with_PowerHeuristic2"
p1007
sg137
(dp1008
g8
((lp1009
(F0.49994015693664551
I11
tp1010
aF40.419999999998254
tp1011
sg49
((lp1012
F39.989999999997963
tp1013
sg75
((lp1014
F40.040000000000873
tp1015
sg104
((lp1016
(F1.3503680229187012
I10
tp1017
aF40.230000000003201
tp1018
ssba(imeasure_core
ProblemSetSolution
p1019
(dp1020
g3
g151
sg134
g1007
sg137
(dp1021
g154
((lp1022
F40.100000000005821
tp1023
sg203
((lp1024
F40.029999999998836
tp1025
sg258
((lp1026
(F0.59315013885498047
I7
tp1027
aF39.519999999996799
tp1028
sg303
((lp1029
F39.970000000001164
tp1030
ssba(imeasure_core
ProblemSetSolution
p1031
(dp1032
g3
g365
sg134
g1007
sg137
(dp1033
g368
((lp1034
F47.519999999996799
tp1035
sg414
((lp1036
F38.130000000004657
tp1037
sg465
((lp1038
F46.379999999997381
tp1039
sg515
((lp1040
F40.979999999995925
tp1041
ssba(imeasure_core
ProblemSetSolution
p1042
(dp1043
g3
g570
sg134
g1007
sg137
(dp1044
g809
((lp1045
F40.059999999997672
tp1046
sg824
((lp1047
F40.200000000004366
tp1048
sg573
((lp1049
F39.980000000003201
tp1050
sg839
((lp1051
F39.819999999999709
tp1052
sg599
((lp1053
F39.959999999999127
tp1054
sg614
((lp1055
F39.970000000001164
tp1056
sg626
((lp1057
F39.970000000001164
tp1058
sg880
((lp1059
F39.979999999995925
tp1060
sg850
((lp1061
F39.970000000001164
tp1062
sg655
((lp1063
F39.869999999995343
tp1064
sg677
((lp1065
(F0.026067972183227539
I7
tp1066
aF39.989999999997963
tp1067
sg698
((lp1068
F40.0
tp1069
sg738
((lp1070
F39.990000000005239
tp1071
sg760
((lp1072
(F0.0036969184875488281
I2
tp1073
aF39.979999999995925
tp1074
sg771
((lp1075
F39.980000000003201
tp1076
sg798
((lp1077
F39.989999999997963
tp1078
sg865
((lp1079
F40.139999999999418
tp1080
ssba(imeasure_core
ProblemSetSolution
p1081
(dp1082
g3
g4
sg134
S"AnytimeBeam-w4-gf(1.7, 'exp')_with_PowerHeuristic2"
p1083
sg137
(dp1084
g8
((lp1085
(F0.50078797340393066
I11
tp1086
aF40.389999999999418
tp1087
sg49
((lp1088
F39.990000000005239
tp1089
sg75
((lp1090
F40.059999999997672
tp1091
sg104
((lp1092
(F1.3535239696502686
I10
tp1093
aF40.129999999997381
tp1094
ssba(imeasure_core
ProblemSetSolution
p1095
(dp1096
g3
g151
sg134
g1083
sg137
(dp1097
g154
((lp1098
F40.220000000001164
tp1099
sg203
((lp1100
F40.029999999998836
tp1101
sg258
((lp1102
(F0.59169197082519531
I7
tp1103
aF40.060000000004948
tp1104
sg303
((lp1105
F40.080000000001746
tp1106
ssba(imeasure_core
ProblemSetSolution
p1107
(dp1108
g3
g365
sg134
g1083
sg137
(dp1109
g368
((lp1110
F47.399999999994179
tp1111
sg414
((lp1112
F40.389999999999418
tp1113
sg465
((lp1114
F46.860000000000582
tp1115
sg515
((lp1116
F40.779999999998836
tp1117
ssba(imeasure_core
ProblemSetSolution
p1118
(dp1119
g3
g570
sg134
g1083
sg137
(dp1120
g809
((lp1121
F39.990000000005239
tp1122
sg824
((lp1123
F39.959999999999127
tp1124
sg573
((lp1125
F39.980000000003201
tp1126
sg839
((lp1127
F39.94999999999709
tp1128
sg599
((lp1129
F39.979999999995925
tp1130
sg614
((lp1131
F40.0
tp1132
sg626
((lp1133
F38.25
tp1134
sg880
((lp1135
F39.979999999995925
tp1136
sg850
((lp1137
F39.880000000004657
tp1138
sg655
((lp1139
F39.990000000005239
tp1140
sg677
((lp1141
(F0.026109218597412109
I7
tp1142
aF39.899999999994179
tp1143
sg698
((lp1144
F39.870000000002619
tp1145
sg738
((lp1146
F39.919999999998254
tp1147
sg760
((lp1148
(F0.0037441253662109375
I2
tp1149
aF39.819999999999709
tp1150
sg771
((lp1151
F39.779999999998836
tp1152
sg798
((lp1153
F39.610000000000582
tp1154
sg865
((lp1155
F40.239999999997963
tp1156
ssba(imeasure_core
ProblemSetSolution
p1157
(dp1158
g3
g4
sg134
S"AnytimeBeam-w4-gf(1.1000000000000001, 'exp')_with_LinearHeuristic"
p1159
sg137
(dp1160
g8
((lp1161
F40.0
tp1162
sg49
((lp1163
(F0.018609046936035156
I25
tp1164
aF39.990000000005239
tp1165
sg75
((lp1166
(F0.31146883964538574
I8
tp1167
aF40.029999999998836
tp1168
sg104
((lp1169
F40.049999999995634
tp1170
ssba(imeasure_core
ProblemSetSolution
p1171
(dp1172
g3
g151
sg134
g1159
sg137
(dp1173
g154
((lp1174
F40.020000000004075
tp1175
sg203
((lp1176
F40.029999999998836
tp1177
sg258
((lp1178
(F1.0316641330718994
I7
tp1179
aF40.049999999995634
tp1180
sg303
((lp1181
F40.05000000000291
tp1182
ssba(imeasure_core
ProblemSetSolution
p1183
(dp1184
g3
g365
sg134
g1159
sg137
(dp1185
g368
((lp1186
F48.779999999998836
tp1187
sg414
((lp1188
F40.180000000000291
tp1189
sg465
((lp1190
F42.889999999999418
tp1191
sg515
((lp1192
F40.529999999998836
tp1193
ssba(imeasure_core
ProblemSetSolution
p1194
(dp1195
g3
g570
sg134
g1159
sg137
(dp1196
g809
((lp1197
F40.5
tp1198
sg824
((lp1199
F40.240000000005239
tp1200
sg573
((lp1201
F39.989999999997963
tp1202
sg839
((lp1203
F39.989999999997963
tp1204
sg599
((lp1205
F39.989999999997963
tp1206
sg614
((lp1207
F40.010000000002037
tp1208
sg626
((lp1209
F39.970000000001164
tp1210
sg880
((lp1211
F39.979999999995925
tp1212
sg850
((lp1213
F39.989999999997963
tp1214
sg655
((lp1215
F39.979999999995925
tp1216
sg677
((lp1217
(F8.9686808586120605
I7
tp1218
aF39.980000000003201
tp1219
sg698
((lp1220
F40.0
tp1221
sg738
((lp1222
F39.980000000003201
tp1223
sg760
((lp1224
(F0.0052618980407714844
I2
tp1225
aF39.989999999997963
tp1226
sg771
((lp1227
F39.989999999997963
tp1228
sg798
((lp1229
F39.989999999997963
tp1230
sg865
((lp1231
F40.240000000005239
tp1232
ssba(imeasure_core
ProblemSetSolution
p1233
(dp1234
g3
g4
sg134
S"AnytimeBeam-w4-gf(1.3, 'exp')_with_LinearHeuristic"
p1235
sg137
(dp1236
g8
((lp1237
F40.099999999998545
tp1238
sg49
((lp1239
(F0.01780390739440918
I25
tp1240
aF39.989999999997963
tp1241
sg75
((lp1242
(F0.34051299095153809
I8
tp1243
aF39.990000000005239
tp1244
sg104
((lp1245
F40.0
tp1246
ssba(imeasure_core
ProblemSetSolution
p1247
(dp1248
g3
g151
sg134
g1235
sg137
(dp1249
g154
((lp1250
F40.099999999998545
tp1251
sg203
((lp1252
F39.890000000006694
tp1253
sg258
((lp1254
(F1.1396739482879639
I7
tp1255
aF40.049999999995634
tp1256
sg303
((lp1257
F39.970000000001164
tp1258
ssba(imeasure_core
ProblemSetSolution
p1259
(dp1260
g3
g365
sg134
g1235
sg137
(dp1261
g368
((lp1262
F42.540000000000873
tp1263
sg414
((lp1264
F40.180000000000291
tp1265
sg465
((lp1266
F43.430000000000291
tp1267
sg515
((lp1268
F40.239999999997963
tp1269
ssba(imeasure_core
ProblemSetSolution
p1270
(dp1271
g3
g570
sg134
g1235
sg137
(dp1272
g809
((lp1273
F40.5
tp1274
sg824
((lp1275
F40.05000000000291
tp1276
sg573
((lp1277
F39.989999999997963
tp1278
sg839
((lp1279
F39.959999999999127
tp1280
sg599
((lp1281
F39.979999999995925
tp1282
sg614
((lp1283
F39.970000000001164
tp1284
sg626
((lp1285
F39.959999999999127
tp1286
sg880
((lp1287
F39.94999999999709
tp1288
sg850
((lp1289
F39.979999999995925
tp1290
sg655
((lp1291
F39.970000000001164
tp1292
sg677
((lp1293
(F8.9996778964996338
I7
tp1294
aF39.989999999997963
tp1295
sg698
((lp1296
F39.950000000004366
tp1297
sg738
((lp1298
F39.989999999997963
tp1299
sg760
((lp1300
(F0.0052039623260498047
I2
tp1301
aF39.970000000001164
tp1302
sg771
((lp1303
F39.989999999997963
tp1304
sg798
((lp1305
F39.970000000001164
tp1306
sg865
((lp1307
F40.230000000003201
tp1308
ssba(imeasure_core
ProblemSetSolution
p1309
(dp1310
g3
g4
sg134
S"AnytimeBeam-w4-gf(1.5, 'exp')_with_LinearHeuristic"
p1311
sg137
(dp1312
g8
((lp1313
F40.0
tp1314
sg49
((lp1315
(F0.018646001815795898
I25
tp1316
aF39.760000000002037
tp1317
sg75
((lp1318
(F0.34211397171020508
I8
tp1319
aF40.0
tp1320
sg104
((lp1321
F39.959999999999127
tp1322
ssba(imeasure_core
ProblemSetSolution
p1323
(dp1324
g3
g151
sg134
g1311
sg137
(dp1325
g154
((lp1326
F40.55000000000291
tp1327
sg203
((lp1328
F40.049999999995634
tp1329
sg258
((lp1330
(F1.1343669891357422
I7
tp1331
aF40.060000000004948
tp1332
sg303
((lp1333
F40.049999999995634
tp1334
ssba(imeasure_core
ProblemSetSolution
p1335
(dp1336
g3
g365
sg134
g1311
sg137
(dp1337
g368
((lp1338
F66.520000000004075
tp1339
sg414
((lp1340
F40.259999999994761
tp1341
sg465
((lp1342
F48.870000000002619
tp1343
sg515
((lp1344
F40.940000000002328
tp1345
ssba(imeasure_core
ProblemSetSolution
p1346
(dp1347
g3
g570
sg134
g1311
sg137
(dp1348
g809
((lp1349
F40.610000000000582
tp1350
sg824
((lp1351
F40.120000000002619
tp1352
sg573
((lp1353
F39.990000000005239
tp1354
sg839
((lp1355
F39.889999999999418
tp1356
sg599
((lp1357
F39.970000000001164
tp1358
sg614
((lp1359
F39.989999999997963
tp1360
sg626
((lp1361
F39.989999999997963
tp1362
sg880
((lp1363
F39.980000000003201
tp1364
sg850
((lp1365
F39.989999999997963
tp1366
sg655
((lp1367
F40.0
tp1368
sg677
((lp1369
(F8.9801740646362305
I7
tp1370
aF40.0
tp1371
sg698
((lp1372
F39.980000000003201
tp1373
sg738
((lp1374
F39.889999999999418
tp1375
sg760
((lp1376
(F0.0051910877227783203
I2
tp1377
aF39.959999999999127
tp1378
sg771
((lp1379
F39.989999999997963
tp1380
sg798
((lp1381
F39.970000000001164
tp1382
sg865
((lp1383
F40.489999999997963
tp1384
ssba(imeasure_core
ProblemSetSolution
p1385
(dp1386
g3
g4
sg134
S"AnytimeBeam-w4-gf(1.7, 'exp')_with_LinearHeuristic"
p1387
sg137
(dp1388
g8
((lp1389
F40.049999999995634
tp1390
sg49
((lp1391
(F0.018528938293457031
I25
tp1392
aF39.989999999997963
tp1393
sg75
((lp1394
(F0.35921192169189453
I8
tp1395
aF39.850000000005821
tp1396
sg104
((lp1397
F39.899999999994179
tp1398
ssba(imeasure_core
ProblemSetSolution
p1399
(dp1400
g3
g151
sg134
g1387
sg137
(dp1401
g154
((lp1402
F40.389999999999418
tp1403
sg203
((lp1404
F39.980000000003201
tp1405
sg258
((lp1406
(F1.1408140659332275
I7
tp1407
aF40.099999999998545
tp1408
sg303
((lp1409
F40.160000000003492
tp1410
ssba(imeasure_core
ProblemSetSolution
p1411
(dp1412
g3
g365
sg134
g1387
sg137
(dp1413
g368
((lp1414
F40.269999999996799
tp1415
sg414
((lp1416
F40.55000000000291
tp1417
sg465
((lp1418
F48.979999999995925
tp1419
sg515
((lp1420
F40.980000000003201
tp1421
ssba(imeasure_core
ProblemSetSolution
p1422
(dp1423
g3
g570
sg134
g1387
sg137
(dp1424
g809
((lp1425
F40.529999999998836
tp1426
sg824
((lp1427
F40.150000000001455
tp1428
sg573
((lp1429
F39.989999999997963
tp1430
sg839
((lp1431
F39.980000000003201
tp1432
sg599
((lp1433
F39.989999999997963
tp1434
sg614
((lp1435
F40.0
tp1436
sg626
((lp1437
F39.970000000001164
tp1438
sg880
((lp1439
F39.989999999997963
tp1440
sg850
((lp1441
F39.269999999996799
tp1442
sg655
((lp1443
F39.980000000003201
tp1444
sg677
((lp1445
(F8.9673969745635986
I7
tp1446
aF39.989999999997963
tp1447
sg698
((lp1448
F39.959999999999127
tp1449
sg738
((lp1450
F39.959999999999127
tp1451
sg760
((lp1452
(F0.0052461624145507812
I2
tp1453
aF39.989999999997963
tp1454
sg771
((lp1455
F39.990000000005239
tp1456
sg798
((lp1457
F39.979999999995925
tp1458
sg865
((lp1459
F40.190000000002328
tp1460
ssba.