(lp0
(imeasure_core
ProblemSetSolution
p1
(dp2
S'roomset'
p3
(imeasure_core
RoomSet
p4
(dp5
S'rooms'
p6
(dp7
(iproblems
RoomID
p8
(dp9
S'dusts'
p10
I8
sS'obstacles'
p11
(I2
I4
tp12
sS'robots'
p13
I4
sS'height'
p14
I9
sS'width'
p15
I7
sS'seed'
p16
I7283207964119141687
sb(imulti_robot_problem
MultiRobotState
p17
(dp18
S'obstacle_locations'
p19
c__builtin__
frozenset
p20
((lp21
(I4
I6
tp22
a(I4
I3
tp23
a(I3
I0
tp24
a(I4
I2
tp25
a(I3
I4
tp26
ag12
a(I3
I3
tp27
atp28
Rp29
sg15
I7
sS'dirt_locations'
p30
g20
((lp31
(I4
I5
tp32
a(I5
I7
tp33
a(I0
I6
tp34
a(I1
I6
tp35
a(I5
I0
tp36
a(I5
I1
tp37
a(I5
I2
tp38
a(I1
I1
tp39
atp40
Rp41
sg13
((I1
I5
tp42
(I5
I5
tp43
(I3
I1
tp44
(I3
I5
tp45
tp46
sg14
I9
sbs(iproblems
RoomID
p47
(dp48
g10
I8
sg11
(I4
I6
tp49
sg13
I2
sg14
I10
sg15
I8
sg16
I890727360438182992
sb(imulti_robot_problem
MultiRobotState
p50
(dp51
g19
g20
((lp52
(I0
I0
tp53
ag49
a(I6
I6
tp54
a(I5
I6
tp55
a(I7
I6
tp56
a(I7
I4
tp57
a(I4
I2
tp58
a(I2
I4
tp59
atp60
Rp61
sg15
I8
sg30
g20
((lp62
(I7
I0
tp63
a(I7
I1
tp64
a(I6
I3
tp65
a(I1
I8
tp66
a(I0
I5
tp67
a(I5
I1
tp68
a(I1
I0
tp69
a(I0
I3
tp70
atp71
Rp72
sg13
((I2
I8
tp73
(I2
I5
tp74
tp75
sg14
I10
sbs(iproblems
RoomID
p76
(dp77
g10
I5
sg11
(I7
I3
tp78
sg13
I1
sg14
I7
sg15
I8
sg16
I1736392818365009963
sb(imulti_robot_problem
MultiRobotState
p79
(dp80
g19
g20
((lp81
g78
a(I2
I6
tp82
a(I7
I0
tp83
a(I7
I1
tp84
a(I2
I1
tp85
a(I6
I3
tp86
a(I0
I4
tp87
a(I7
I2
tp88
atp89
Rp90
sg15
I8
sg30
g20
((lp91
(I0
I1
tp92
a(I6
I2
tp93
a(I1
I6
tp94
a(I4
I4
tp95
a(I0
I0
tp96
atp97
Rp98
sg13
((I3
I1
tp99
tp100
sg14
I7
sbs(iproblems
RoomID
p101
(dp102
g10
I10
sg11
(I6
I5
tp103
sg13
I5
sg14
I8
sg15
I9
sg16
I3960482443532127989
sb(imulti_robot_problem
MultiRobotState
p104
(dp105
g19
g20
((lp106
(I4
I5
tp107
a(I5
I5
tp108
ag103
a(I6
I6
tp109
atp110
Rp111
sg15
I9
sg30
g20
((lp112
(I2
I7
tp113
a(I2
I6
tp114
a(I5
I0
tp115
a(I5
I7
tp116
a(I1
I4
tp117
a(I1
I5
tp118
a(I3
I6
tp119
a(I8
I0
tp120
a(I8
I5
tp121
a(I5
I3
tp122
atp123
Rp124
sg13
((I4
I3
tp125
(I8
I7
tp126
(I1
I6
tp127
(I7
I3
tp128
(I6
I4
tp129
tp130
sg14
I8
sbssS'name'
p131
S'easy_roomset'
p132
sbsg131
S'LimitedTimeAStar_with_PowerHeuristic2'
p133
sS'solutions'
p134
(dp135
g8
((lp136
F0.31999999999970896
tp137
sg47
((lp138
F0.030000000000654836
tp139
sg76
((lp140
F0.049999999999272404
tp141
sg101
((lp142
F1.7800000000006548
tp143
ssba(imeasure_core
ProblemSetSolution
p144
(dp145
g3
(imeasure_core
RoomSet
p146
(dp147
g6
(dp148
(iproblems
RoomID
p149
(dp150
g10
I8
sg11
(I2
I6
tp151
sg13
I4
sg14
I11
sg15
I9
sg16
I7283207964119141687
sb(imulti_robot_problem
MultiRobotState
p152
(dp153
g19
g20
((lp154
(I4
I7
tp155
a(I1
I3
tp156
a(I4
I3
tp157
a(I4
I5
tp158
a(I5
I4
tp159
a(I1
I4
tp160
a(I8
I9
tp161
a(I6
I2
tp162
a(I0
I10
tp163
a(I3
I7
tp164
a(I0
I3
tp165
a(I8
I5
tp166
a(I4
I0
tp167
a(I5
I3
tp168
a(I5
I5
tp169
a(I5
I2
tp170
a(I6
I1
tp171
a(I6
I10
tp172
ag151
a(I6
I3
tp173
a(I3
I6
tp174
a(I3
I5
tp175
a(I3
I4
tp176
a(I2
I4
tp177
atp178
Rp179
sg15
I9
sg30
g20
((lp180
(I7
I0
tp181
a(I6
I8
tp182
a(I7
I1
tp183
a(I5
I6
tp184
a(I1
I8
tp185
a(I0
I8
tp186
a(I4
I1
tp187
a(I5
I8
tp188
atp189
Rp190
sg13
((I1
I7
tp191
(I6
I6
tp192
(I4
I6
tp193
(I2
I1
tp194
tp195
sg14
I11
sbs(iproblems
RoomID
p196
(dp197
g10
I8
sg11
(I3
I5
tp198
sg13
I3
sg14
I12
sg15
I10
sg16
I890727360438182992
sb(imulti_robot_problem
MultiRobotState
p199
(dp200
g19
g20
((lp201
(I4
I7
tp202
a(I0
I0
tp203
a(I3
I0
tp204
a(I3
I2
tp205
a(I1
I4
tp206
a(I8
I9
tp207
a(I7
I5
tp208
a(I2
I3
tp209
a(I3
I4
tp210
a(I5
I8
tp211
ag198
a(I3
I1
tp212
a(I6
I7
tp213
a(I6
I8
tp214
a(I5
I2
tp215
a(I5
I7
tp216
a(I8
I8
tp217
a(I3
I9
tp218
a(I4
I11
tp219
a(I7
I10
tp220
a(I2
I2
tp221
a(I0
I9
tp222
a(I7
I8
tp223
atp224
Rp225
sg15
I10
sg30
g20
((lp226
(I9
I2
tp227
a(I6
I1
tp228
a(I8
I0
tp229
a(I2
I10
tp230
a(I0
I6
tp231
a(I0
I4
tp232
a(I9
I5
tp233
a(I1
I1
tp234
atp235
Rp236
sg13
((I2
I9
tp237
(I2
I6
tp238
(I8
I4
tp239
tp240
sg14
I12
sbs(iproblems
RoomID
p241
(dp242
g10
I7
sg11
(I6
I3
tp243
sg13
I3
sg14
I12
sg15
I12
sg16
I1585446675937841368
sb(imulti_robot_problem
MultiRobotState
p244
(dp245
g19
g20
((lp246
(I5
I9
tp247
a(I4
I3
tp248
a(I5
I7
tp249
a(I8
I2
tp250
a(I4
I10
tp251
a(I7
I3
tp252
a(I2
I8
tp253
a(I9
I3
tp254
a(I3
I11
tp255
a(I7
I1
tp256
a(I7
I7
tp257
a(I6
I2
tp258
a(I5
I1
tp259
a(I1
I11
tp260
a(I8
I5
tp261
a(I7
I2
tp262
a(I2
I7
tp263
a(I6
I7
tp264
a(I6
I8
tp265
a(I2
I9
tp266
a(I5
I2
tp267
a(I7
I6
tp268
a(I6
I6
tp269
a(I2
I11
tp270
ag243
a(I4
I11
tp271
a(I7
I10
tp272
a(I3
I4
tp273
a(I8
I6
tp274
a(I7
I8
tp275
a(I8
I4
tp276
atp277
Rp278
sg15
I12
sg30
g20
((lp279
(I3
I2
tp280
a(I1
I9
tp281
a(I9
I4
tp282
a(I11
I5
tp283
a(I11
I8
tp284
a(I2
I5
tp285
a(I6
I10
tp286
atp287
Rp288
sg13
((I10
I10
tp289
(I5
I5
tp290
(I11
I10
tp291
tp292
sg14
I12
sbs(iproblems
RoomID
p293
(dp294
g10
I5
sg11
(I7
I6
tp295
sg13
I3
sg14
I9
sg15
I10
sg16
I1736392818365009963
sb(imulti_robot_problem
MultiRobotState
p296
(dp297
g19
g20
((lp298
(I7
I3
tp299
a(I9
I1
tp300
a(I4
I8
tp301
a(I9
I3
tp302
a(I7
I7
tp303
a(I6
I2
tp304
a(I0
I5
tp305
a(I0
I4
tp306
a(I8
I5
tp307
a(I7
I2
tp308
a(I1
I2
tp309
a(I3
I8
tp310
a(I9
I0
tp311
a(I9
I2
tp312
ag295
a(I7
I4
tp313
a(I7
I5
tp314
a(I6
I5
tp315
a(I4
I3
tp316
a(I2
I2
tp317
a(I0
I1
tp318
a(I5
I2
tp319
a(I8
I4
tp320
atp321
Rp322
sg15
I10
sg30
g20
((lp323
(I1
I8
tp324
a(I3
I1
tp325
a(I4
I1
tp326
a(I0
I2
tp327
a(I5
I5
tp328
atp329
Rp330
sg13
((I4
I2
tp331
(I1
I0
tp332
(I8
I2
tp333
tp334
sg14
I9
sbssg131
S'mild_roomset'
p335
sbsg131
g133
sg134
(dp336
g149
((lp337
F0.17999999999938154
tp338
sg196
((lp339
F0.26000000000021828
tp340
sg241
((lp341
F0.51000000000021828
tp342
sg293
((lp343
F174.71000000000004
tp344
ssba(imeasure_core
ProblemSetSolution
p345
(dp346
g3
(imeasure_core
RoomSet
p347
(dp348
g6
(dp349
(iproblems
RoomID
p350
(dp351
g10
I13
sg11
(I8
I4
tp352
sg13
I7
sg14
I12
sg15
I10
sg16
I7283207964119141687
sb(imulti_robot_problem
MultiRobotState
p353
(dp354
g19
g20
((lp355
(I6
I3
tp356
a(I5
I2
tp357
a(I6
I10
tp358
a(I6
I0
tp359
a(I7
I4
tp360
a(I0
I11
tp361
a(I6
I2
tp362
a(I3
I6
tp363
a(I2
I2
tp364
a(I0
I4
tp365
a(I3
I4
tp366
a(I5
I8
tp367
ag352
atp368
Rp369
sg15
I10
sg30
g20
((lp370
(I7
I3
tp371
a(I6
I7
tp372
a(I6
I8
tp373
a(I7
I1
tp374
a(I8
I1
tp375
a(I4
I4
tp376
a(I6
I6
tp377
a(I5
I6
tp378
a(I1
I9
tp379
a(I5
I0
tp380
a(I9
I10
tp381
a(I9
I6
tp382
a(I7
I9
tp383
atp384
Rp385
sg13
((I1
I7
tp386
(I7
I6
tp387
(I4
I6
tp388
(I2
I1
tp389
(I6
I4
tp390
(I0
I9
tp391
(I8
I0
tp392
tp393
sg14
I12
sbs(iproblems
RoomID
p394
(dp395
g10
I13
sg11
(I8
I3
tp396
sg13
I5
sg14
I13
sg15
I11
sg16
I890727360438182992
sb(imulti_robot_problem
MultiRobotState
p397
(dp398
g19
g20
((lp399
(I4
I10
tp400
a(I6
I9
tp401
a(I8
I2
tp402
a(I5
I9
tp403
a(I9
I8
tp404
ag396
a(I4
I12
tp405
a(I0
I10
tp406
a(I8
I7
tp407
a(I9
I1
tp408
a(I9
I0
tp409
a(I6
I8
tp410
a(I6
I10
tp411
a(I8
I8
tp412
a(I8
I6
tp413
a(I7
I8
tp414
a(I0
I2
tp415
atp416
Rp417
sg15
I11
sg30
g20
((lp418
(I10
I5
tp419
a(I0
I0
tp420
a(I4
I6
tp421
a(I0
I6
tp422
a(I9
I2
tp423
a(I8
I11
tp424
a(I2
I1
tp425
a(I9
I10
tp426
a(I1
I5
tp427
a(I0
I4
tp428
a(I0
I9
tp429
a(I5
I2
tp430
a(I4
I11
tp431
atp432
Rp433
sg13
((I3
I10
tp434
(I2
I7
tp435
(I9
I4
tp436
(I2
I11
tp437
(I7
I1
tp438
tp439
sg14
I13
sbs(iproblems
RoomID
p440
(dp441
g10
I15
sg11
(I6
I9
tp442
sg13
I7
sg14
I11
sg15
I12
sg16
I3960482443532127989
sb(imulti_robot_problem
MultiRobotState
p443
(dp444
g19
g20
((lp445
(I5
I9
tp446
ag442
a(I9
I1
tp447
a(I4
I10
tp448
a(I5
I6
tp449
a(I7
I7
tp450
a(I2
I10
tp451
a(I3
I9
tp452
a(I9
I4
tp453
a(I5
I10
tp454
a(I6
I4
tp455
a(I6
I5
tp456
a(I1
I2
tp457
a(I7
I4
tp458
a(I8
I3
tp459
a(I6
I7
tp460
a(I2
I9
tp461
a(I10
I7
tp462
a(I5
I7
tp463
a(I6
I3
tp464
a(I8
I1
tp465
a(I0
I9
tp466
a(I8
I6
tp467
a(I7
I8
tp468
a(I11
I6
tp469
a(I9
I7
tp470
atp471
Rp472
sg15
I12
sg30
g20
((lp473
(I7
I3
tp474
a(I2
I6
tp475
a(I5
I5
tp476
a(I3
I0
tp477
a(I3
I8
tp478
a(I0
I6
tp479
a(I11
I1
tp480
a(I1
I6
tp481
a(I4
I3
tp482
a(I1
I7
tp483
a(I1
I3
tp484
a(I1
I0
tp485
a(I10
I1
tp486
a(I1
I1
tp487
a(I10
I2
tp488
atp489
Rp490
sg13
((I11
I10
tp491
(I1
I8
tp492
(I10
I5
tp493
(I11
I0
tp494
(I4
I8
tp495
(I7
I9
tp496
(I7
I1
tp497
tp498
sg14
I11
sbs(iproblems
RoomID
p499
(dp500
g10
I10
sg11
(I10
I4
tp501
sg13
I5
sg14
I10
sg15
I11
sg16
I1736392818365009963
sb(imulti_robot_problem
MultiRobotState
p502
(dp503
g19
g20
((lp504
(I0
I1
tp505
a(I1
I2
tp506
a(I3
I2
tp507
ag501
a(I4
I5
tp508
a(I7
I4
tp509
a(I6
I2
tp510
a(I2
I3
tp511
a(I10
I1
tp512
a(I3
I8
tp513
a(I10
I0
tp514
a(I10
I3
tp515
a(I10
I2
tp516
atp517
Rp518
sg15
I11
sg30
g20
((lp519
(I5
I9
tp520
a(I5
I5
tp521
a(I3
I1
tp522
a(I8
I8
tp523
a(I0
I5
tp524
a(I3
I9
tp525
a(I8
I4
tp526
a(I4
I1
tp527
a(I6
I5
tp528
a(I5
I3
tp529
atp530
Rp531
sg13
((I4
I2
tp532
(I1
I0
tp533
(I9
I3
tp534
(I1
I9
tp535
(I0
I2
tp536
tp537
sg14
I10
sbssg131
S'heavy_roomset'
p538
sbsg131
g133
sg134
(dp539
g350
((lp540
F23.550000000000182
tp541
sg394
((lp542
F289.22999999999956
tp543
sg440
((lp544
F300.68000000000029
tp545
sg499
((lp546
F0.85999999999967258
tp547
ssba(imeasure_core
ProblemSetSolution
p548
(dp549
g3
(imeasure_core
RoomSet
p550
(dp551
g6
(dp552
S'complexRoom'
p553
(imulti_robot_problem
MultiRobotState
p554
(dp555
g19
g20
((lp556
(I2
I7
tp557
a(I7
I3
tp558
a(I6
I3
tp559
a(I3
I3
tp560
a(I7
I6
tp561
a(I7
I4
tp562
a(I7
I5
tp563
a(I2
I3
tp564
a(I4
I3
tp565
a(I2
I5
tp566
a(I2
I4
tp567
a(I5
I3
tp568
atp569
Rp570
sg15
I11
sg30
g20
((lp571
(I1
I0
tp572
a(I9
I0
tp573
atp574
Rp575
sg13
((I6
I4
tp576
(I1
I6
tp577
tp578
sg14
I8
sbsS'exampleProblem'
p579
(imulti_robot_problem
MultiRobotState
p580
(dp581
g19
g20
((lp582
tp583
Rp584
sg15
I5
sg30
g20
((lp585
(I1
I3
tp586
a(I3
I1
tp587
a(I1
I1
tp588
a(I3
I3
tp589
atp590
Rp591
sg13
((I2
I2
tp592
tp593
sg14
I5
sbsS'linear_test'
p594
(imulti_robot_problem
MultiRobotState
p595
(dp596
g19
g584
sg15
I12
sg30
g20
((lp597
(I11
I0
tp598
a(I1
I0
tp599
a(I9
I0
tp600
atp601
Rp602
sg13
((I3
I0
tp603
(I1
I2
tp604
tp605
sg14
I7
sbsS'obstacle_Far_CloseTest'
p606
(imulti_robot_problem
MultiRobotState
p607
(dp608
g19
g20
((lp609
(I0
I1
tp610
a(I7
I3
tp611
a(I3
I1
tp612
a(I7
I1
tp613
a(I4
I5
tp614
a(I7
I6
tp615
a(I4
I4
tp616
a(I2
I1
tp617
a(I7
I4
tp618
a(I7
I5
tp619
a(I4
I3
tp620
a(I4
I2
tp621
a(I4
I1
tp622
a(I1
I1
tp623
a(I7
I2
tp624
atp625
Rp626
sg15
I12
sg30
g20
((lp627
(I3
I2
tp628
a(I9
I6
tp629
atp630
Rp631
sg13
((I0
I0
tp632
(I6
I6
tp633
tp634
sg14
I7
sbsS'zigzag'
p635
(imulti_robot_problem
MultiRobotState
p636
(dp637
g19
g20
((lp638
(I1
I2
tp639
a(I3
I2
tp640
a(I1
I3
tp641
a(I3
I0
tp642
a(I3
I1
tp643
a(I5
I1
tp644
a(I5
I2
tp645
a(I1
I1
tp646
a(I5
I3
tp647
atp648
Rp649
sg15
I20
sg30
g20
((lp650
(I6
I3
tp651
atp652
Rp653
sg13
((I0
I3
tp654
(I19
I3
tp655
tp656
sg14
I4
sbsS'room1'
p657
(imulti_robot_problem
MultiRobotState
p658
(dp659
g19
g20
((lp660
(I6
I3
tp661
a(I7
I3
tp662
a(I8
I3
tp663
a(I2
I3
tp664
a(I3
I3
tp665
a(I4
I3
tp666
a(I5
I3
tp667
atp668
Rp669
sg15
I9
sg30
g20
((lp670
(I0
I0
tp671
a(I2
I1
tp672
atp673
Rp674
sg13
((I6
I1
tp675
(I6
I5
tp676
tp677
sg14
I6
sbsS'complexRoom2'
p678
(imulti_robot_problem
MultiRobotState
p679
(dp680
g19
g20
((lp681
(I7
I3
tp682
a(I1
I3
tp683
a(I7
I1
tp684
a(I4
I5
tp685
a(I9
I3
tp686
a(I5
I5
tp687
a(I2
I6
tp688
a(I2
I3
tp689
a(I5
I1
tp690
a(I0
I3
tp691
a(I10
I3
tp692
a(I2
I5
tp693
a(I6
I5
tp694
a(I5
I3
tp695
a(I2
I7
tp696
a(I8
I3
tp697
a(I3
I3
tp698
a(I5
I2
tp699
a(I7
I6
tp700
a(I3
I1
tp701
a(I6
I3
tp702
a(I7
I5
tp703
a(I4
I3
tp704
a(I3
I5
tp705
a(I4
I1
tp706
a(I6
I1
tp707
atp708
Rp709
sg15
I11
sg30
g20
((lp710
(I7
I2
tp711
a(I0
I7
tp712
atp713
Rp714
sg13
((I1
I2
tp715
(I3
I6
tp716
tp717
sg14
I8
sbsS'zigzagUpright'
p718
(imulti_robot_problem
MultiRobotState
p719
(dp720
g19
g20
((lp721
(I1
I3
tp722
a(I3
I1
tp723
a(I2
I1
tp724
a(I1
I1
tp725
a(I1
I5
tp726
a(I2
I3
tp727
a(I2
I5
tp728
a(I0
I3
tp729
a(I3
I5
tp730
atp731
Rp732
sg15
I4
sg30
g20
((lp733
(I3
I6
tp734
atp735
Rp736
sg13
((I3
I0
tp737
(I3
I19
tp738
tp739
sg14
I20
sbsS'ivansRevenge'
p740
(imulti_robot_problem
MultiRobotState
p741
(dp742
g19
g584
sg15
I10
sg30
g20
((lp743
(I9
I2
tp744
a(I0
I0
tp745
atp746
Rp747
sg13
((I9
I0
tp748
(I0
I2
tp749
tp750
sg14
I3
sbsS'roomLongWithObstaccle'
p751
(imulti_robot_problem
MultiRobotState
p752
(dp753
g19
g20
((lp754
(I0
I1
tp755
a(I12
I1
tp756
a(I9
I1
tp757
a(I7
I1
tp758
a(I8
I1
tp759
a(I6
I1
tp760
a(I3
I1
tp761
a(I2
I1
tp762
a(I11
I1
tp763
a(I10
I1
tp764
a(I5
I1
tp765
a(I4
I1
tp766
a(I1
I1
tp767
atp768
Rp769
sg15
I15
sg30
g20
((lp770
(I0
I2
tp771
a(I14
I6
tp772
atp773
Rp774
sg13
((I0
I0
tp775
(I0
I6
tp776
tp777
sg14
I7
sbsS'twoRobotsInOpCorners'
p778
(imulti_robot_problem
MultiRobotState
p779
(dp780
g19
g584
sg15
I5
sg30
g20
((lp781
(I0
I0
tp782
a(I4
I4
tp783
atp784
Rp785
sg13
((I3
I0
tp786
(I0
I3
tp787
tp788
sg14
I5
sbsS'split2'
p789
(imulti_robot_problem
MultiRobotState
p790
(dp791
g19
g584
sg15
I10
sg30
g20
((lp792
(I0
I9
tp793
a(I9
I0
tp794
a(I0
I0
tp795
a(I9
I9
tp796
atp797
Rp798
sg13
((I1
I1
tp799
(I8
I1
tp800
(I4
I5
tp801
(I5
I5
tp802
tp803
sg14
I10
sbsS'split3'
p804
(imulti_robot_problem
MultiRobotState
p805
(dp806
g19
g584
sg15
I10
sg30
g20
((lp807
(I0
I9
tp808
a(I9
I0
tp809
a(I0
I0
tp810
a(I9
I9
tp811
atp812
Rp813
sg13
((I1
I1
tp814
(I8
I1
tp815
(I1
I7
tp816
(I7
I7
tp817
tp818
sg14
I10
sbsS'gaintRoom'
p819
(imulti_robot_problem
MultiRobotState
p820
(dp821
g19
g584
sg15
I5
sg30
g20
((lp822
(I4
I0
tp823
a(I4
I4
tp824
a(I0
I4
tp825
atp826
Rp827
sg13
((I0
I0
tp828
tp829
sg14
I5
sbsS'gaintRoomWithWall'
p830
(imulti_robot_problem
MultiRobotState
p831
(dp832
g19
g20
((lp833
(I2
I4
tp834
atp835
Rp836
sg15
I5
sg30
g20
((lp837
(I4
I0
tp838
a(I4
I4
tp839
a(I0
I4
tp840
atp841
Rp842
sg13
((I0
I0
tp843
tp844
sg14
I5
sbsS'split'
p845
(imulti_robot_problem
MultiRobotState
p846
(dp847
g19
g584
sg15
I10
sg30
g20
((lp848
(I0
I9
tp849
a(I9
I0
tp850
a(I0
I0
tp851
a(I9
I9
tp852
atp853
Rp854
sg13
((I4
I4
tp855
(I5
I4
tp856
(I4
I5
tp857
(I5
I5
tp858
tp859
sg14
I10
sbsS'twoRobots'
p860
(imulti_robot_problem
MultiRobotState
p861
(dp862
g19
g584
sg15
I9
sg30
g20
((lp863
(I8
I0
tp864
a(I0
I0
tp865
atp866
Rp867
sg13
((I2
I0
tp868
(I0
I3
tp869
tp870
sg14
I4
sbssg131
S'static_rooms'
p871
sbsg131
g133
sg134
(dp872
g789
((lp873
F0.25
tp874
sg804
((lp875
F0.13000000000010914
tp876
sg553
((lp877
F0.029999999999745341
tp878
sg819
((lp879
F0.019999999999527063
tp880
sg579
((lp881
F0.010000000000218279
tp882
sg594
((lp883
F0.010000000000218279
tp884
sg606
((lp885
F21.229999999999563
tp886
sg860
((lp887
F0.009999999999308784
tp888
sg830
((lp889
F0.030000000000654836
tp890
sg635
((lp891
F1.4700000000002547
tp892
sg657
((lp893
F0.010000000000218279
tp894
sg678
((lp895
F6.8400000000001455
tp896
sg718
((lp897
F2.8299999999999272
tp898
sg740
((lp899
F0.0
tp900
sg751
((lp901
F11.389999999999418
tp902
sg778
((lp903
F0.010000000000218279
tp904
sg845
((lp905
F0.26000000000021828
tp906
ssba.