(lp0
(imeasure_core
ProblemSetSolution
p1
(dp2
S'roomset'
p3
(imeasure_core
RoomSet
p4
(dp5
S'rooms'
p6
(dp7
(iproblems
RoomID
p8
(dp9
S'dusts'
p10
I10
sS'obstacles'
p11
(I0
I8
tp12
sS'robots'
p13
I4
sS'height'
p14
I10
sS'width'
p15
I9
sS'seed'
p16
I4712128852136459333
sb(imulti_robot_problem
MultiRobotState
p17
(dp18
S'obstacle_locations'
p19
c__builtin__
frozenset
p20
((lp21
(I0
I6
tp22
ag12
a(I2
I3
tp23
a(I1
I5
tp24
a(I8
I0
tp25
a(I1
I1
tp26
a(I0
I7
tp27
atp28
Rp29
sg15
I9
sS'dirt_locations'
p30
g20
((lp31
(I4
I7
tp32
a(I1
I3
tp33
a(I4
I9
tp34
a(I8
I1
tp35
a(I7
I6
tp36
a(I2
I6
tp37
a(I8
I7
tp38
a(I2
I2
tp39
a(I4
I1
tp40
a(I2
I4
tp41
atp42
Rp43
sg13
((I5
I8
tp44
(I6
I9
tp45
(I5
I0
tp46
(I3
I1
tp47
tp48
sg14
I10
sbs(iproblems
RoomID
p49
(dp50
g10
I9
sg11
(I3
I4
tp51
sg13
I1
sg14
I7
sg15
I8
sg16
I6613812840851947673
sb(imulti_robot_problem
MultiRobotState
p52
(dp53
g19
g20
((lp54
(I3
I5
tp55
ag51
a(I2
I4
tp56
a(I2
I1
tp57
a(I1
I4
tp58
atp59
Rp60
sg15
I8
sg30
g20
((lp61
(I6
I4
tp62
a(I5
I4
tp63
a(I6
I0
tp64
a(I7
I5
tp65
a(I1
I6
tp66
a(I2
I2
tp67
a(I0
I5
tp68
a(I4
I1
tp69
a(I4
I0
tp70
atp71
Rp72
sg13
((I3
I1
tp73
tp74
sg14
I7
sbs(iproblems
RoomID
p75
(dp76
g10
I10
sg11
(I4
I8
tp77
sg13
I4
sg14
I10
sg15
I7
sg16
I956523682424107605
sb(imulti_robot_problem
MultiRobotState
p78
(dp79
g19
g20
((lp80
(I2
I8
tp81
ag77
a(I3
I7
tp82
a(I2
I9
tp83
a(I4
I2
tp84
atp85
Rp86
sg15
I7
sg30
g20
((lp87
(I5
I9
tp88
a(I4
I7
tp89
a(I1
I3
tp90
a(I3
I3
tp91
a(I5
I5
tp92
a(I6
I1
tp93
a(I5
I4
tp94
a(I0
I4
tp95
a(I5
I2
tp96
a(I5
I3
tp97
atp98
Rp99
sg13
((I1
I9
tp100
(I4
I9
tp101
(I1
I8
tp102
(I0
I3
tp103
tp104
sg14
I10
sbs(iproblems
RoomID
p105
(dp106
g10
I9
sg11
(I5
I3
tp107
sg13
I3
sg14
I7
sg15
I8
sg16
I4594210616595436404
sb(imulti_robot_problem
MultiRobotState
p108
(dp109
g19
g20
((lp110
(I0
I1
tp111
a(I3
I3
tp112
a(I4
I3
tp113
a(I4
I2
tp114
a(I6
I1
tp115
ag107
atp116
Rp117
sg15
I8
sg30
g20
((lp118
(I6
I6
tp119
a(I5
I6
tp120
a(I4
I4
tp121
a(I1
I4
tp122
a(I0
I6
tp123
a(I5
I1
tp124
a(I1
I0
tp125
a(I0
I3
tp126
a(I1
I1
tp127
atp128
Rp129
sg13
((I2
I1
tp130
(I3
I4
tp131
(I3
I6
tp132
tp133
sg14
I7
sbssS'name'
p134
S'easy_roomset'
p135
sbsg134
S'LimitedTimeAStar_with_PowerHeuristic2'
p136
sS'solutions'
p137
(dp138
g8
((lp139
F0.68000000000029104
tp140
sg49
((lp141
F0.049999999999727152
tp142
sg75
((lp143
F0.40000000000009095
tp144
sg105
((lp145
F0.11000000000012733
tp146
ssba(imeasure_core
ProblemSetSolution
p147
(dp148
g3
(imeasure_core
RoomSet
p149
(dp150
g6
(dp151
(iproblems
RoomID
p152
(dp153
g10
I10
sg11
(I8
I7
tp154
sg13
I4
sg14
I12
sg15
I11
sg16
I4712128852136459333
sb(imulti_robot_problem
MultiRobotState
p155
(dp156
g19
g20
((lp157
(I6
I4
tp158
a(I4
I7
tp159
ag154
a(I4
I5
tp160
a(I3
I11
tp161
a(I0
I7
tp162
a(I7
I7
tp163
a(I1
I6
tp164
a(I1
I9
tp165
a(I2
I10
tp166
a(I4
I2
tp167
a(I1
I11
tp168
a(I6
I5
tp169
a(I5
I3
tp170
a(I9
I0
tp171
a(I0
I8
tp172
a(I5
I5
tp173
a(I7
I6
tp174
a(I3
I1
tp175
a(I2
I11
tp176
a(I0
I9
tp177
a(I2
I3
tp178
a(I4
I1
tp179
a(I1
I1
tp180
atp181
Rp182
sg15
I11
sg30
g20
((lp183
(I2
I7
tp184
a(I9
I1
tp185
a(I9
I8
tp186
a(I5
I1
tp187
a(I2
I5
tp188
a(I9
I7
tp189
a(I3
I4
tp190
a(I2
I4
tp191
a(I5
I8
tp192
a(I3
I3
tp193
atp194
Rp195
sg13
((I6
I10
tp196
(I8
I10
tp197
(I7
I0
tp198
(I5
I11
tp199
tp200
sg14
I12
sbs(iproblems
RoomID
p201
(dp202
g10
I9
sg11
(I4
I4
tp203
sg13
I3
sg14
I9
sg15
I10
sg16
I4594210616595436404
sb(imulti_robot_problem
MultiRobotState
p204
(dp205
g19
g20
((lp206
(I1
I3
tp207
a(I3
I0
tp208
a(I2
I1
tp209
a(I1
I6
tp210
a(I9
I4
tp211
a(I3
I7
tp212
a(I0
I3
tp213
a(I1
I2
tp214
a(I5
I5
tp215
a(I1
I5
tp216
a(I7
I6
tp217
ag203
a(I6
I3
tp218
a(I5
I6
tp219
a(I3
I6
tp220
a(I0
I4
tp221
a(I8
I6
tp222
a(I3
I5
tp223
a(I1
I1
tp224
a(I5
I4
tp225
a(I4
I5
tp226
a(I0
I5
tp227
a(I5
I3
tp228
a(I0
I1
tp229
a(I5
I2
tp230
a(I0
I6
tp231
a(I2
I0
tp232
a(I1
I8
tp233
a(I2
I3
tp234
a(I9
I5
tp235
a(I3
I4
tp236
a(I0
I2
tp237
atp238
Rp239
sg15
I10
sg30
g20
((lp240
(I7
I8
tp241
a(I7
I0
tp242
a(I6
I8
tp243
a(I2
I8
tp244
a(I8
I8
tp245
a(I0
I8
tp246
a(I8
I5
tp247
a(I5
I8
tp248
a(I8
I2
tp249
atp250
Rp251
sg13
((I4
I6
tp252
(I2
I5
tp253
(I6
I1
tp254
tp255
sg14
I9
sbs(iproblems
RoomID
p256
(dp257
g10
I5
sg11
(I4
I9
tp258
sg13
I4
sg14
I11
sg15
I11
sg16
I1881095652490078568
sb(imulti_robot_problem
MultiRobotState
p259
(dp260
g19
g20
((lp261
(I6
I9
tp262
a(I6
I6
tp263
a(I4
I5
tp264
a(I2
I8
tp265
a(I9
I3
tp266
a(I4
I7
tp267
a(I7
I5
tp268
a(I5
I4
tp269
ag258
a(I6
I5
tp270
a(I3
I5
tp271
a(I7
I4
tp272
a(I1
I7
tp273
a(I6
I7
tp274
a(I4
I6
tp275
a(I7
I6
tp276
a(I4
I4
tp277
a(I8
I10
tp278
a(I6
I3
tp279
a(I7
I10
tp280
a(I2
I2
tp281
a(I4
I8
tp282
a(I7
I8
tp283
a(I1
I1
tp284
a(I8
I4
tp285
atp286
Rp287
sg15
I11
sg30
g20
((lp288
(I1
I10
tp289
a(I5
I9
tp290
a(I0
I0
tp291
a(I10
I2
tp292
a(I9
I7
tp293
atp294
Rp295
sg13
((I5
I7
tp296
(I8
I1
tp297
(I3
I1
tp298
(I8
I8
tp299
tp300
sg14
I11
sbs(iproblems
RoomID
p301
(dp302
g10
I8
sg11
(I5
I0
tp303
sg13
I4
sg14
I9
sg15
I9
sg16
I6858376947525423350
sb(imulti_robot_problem
MultiRobotState
p304
(dp305
g19
g20
((lp306
(I6
I4
tp307
a(I4
I7
tp308
a(I1
I3
tp309
a(I4
I3
tp310
a(I7
I1
tp311
a(I3
I0
tp312
a(I2
I8
tp313
a(I6
I0
tp314
a(I2
I1
tp315
a(I1
I6
tp316
a(I5
I1
tp317
a(I2
I5
tp318
a(I0
I8
tp319
a(I7
I2
tp320
a(I2
I7
tp321
a(I3
I8
tp322
a(I5
I5
tp323
a(I6
I1
tp324
a(I5
I7
tp325
a(I6
I3
tp326
a(I1
I8
tp327
ag303
a(I2
I2
tp328
a(I2
I3
tp329
a(I3
I4
tp330
a(I2
I4
tp331
atp332
Rp333
sg15
I9
sg30
g20
((lp334
(I8
I3
tp335
a(I7
I0
tp336
a(I4
I6
tp337
a(I6
I6
tp338
a(I7
I5
tp339
a(I8
I0
tp340
a(I8
I8
tp341
a(I8
I4
tp342
atp343
Rp344
sg13
((I1
I1
tp345
(I6
I5
tp346
(I8
I2
tp347
(I1
I5
tp348
tp349
sg14
I9
sbssg134
S'mild_roomset'
p350
sbsg134
g136
sg137
(dp351
g152
((lp352
F2.5399999999999636
tp353
sg201
((lp354
F0.23000000000001819
tp355
sg256
((lp356
F0.19000000000005457
tp357
sg301
((lp358
F0.23000000000001819
tp359
ssba(imeasure_core
ProblemSetSolution
p360
(dp361
g3
(imeasure_core
RoomSet
p362
(dp363
g6
(dp364
(iproblems
RoomID
p365
(dp366
g10
I15
sg11
(I5
I9
tp367
sg13
I7
sg14
I13
sg15
I12
sg16
I4712128852136459333
sb(imulti_robot_problem
MultiRobotState
p368
(dp369
g19
g20
((lp370
g367
a(I4
I9
tp371
a(I5
I5
tp372
a(I4
I12
tp373
a(I2
I8
tp374
a(I3
I1
tp375
a(I3
I9
tp376
a(I9
I4
tp377
a(I1
I7
tp378
a(I1
I10
tp379
a(I3
I12
tp380
a(I0
I8
tp381
a(I5
I2
tp382
atp383
Rp384
sg15
I12
sg30
g20
((lp385
(I6
I9
tp386
a(I3
I3
tp387
a(I1
I12
tp388
a(I5
I6
tp389
a(I7
I7
tp390
a(I3
I5
tp391
a(I3
I8
tp392
a(I8
I8
tp393
a(I10
I0
tp394
a(I2
I5
tp395
a(I10
I2
tp396
a(I3
I4
tp397
a(I1
I1
tp398
a(I5
I8
tp399
a(I9
I7
tp400
atp401
Rp402
sg13
((I6
I11
tp403
(I8
I11
tp404
(I7
I0
tp405
(I4
I1
tp406
(I6
I12
tp407
(I10
I9
tp408
(I6
I1
tp409
tp410
sg14
I13
sbs(iproblems
RoomID
p411
(dp412
g10
I14
sg11
(I5
I5
tp413
sg13
I5
sg14
I10
sg15
I11
sg16
I6613812840851947673
sb(imulti_robot_problem
MultiRobotState
p414
(dp415
g19
g20
((lp416
(I4
I7
tp417
a(I2
I6
tp418
a(I6
I6
tp419
a(I4
I5
tp420
a(I7
I5
tp421
a(I1
I6
tp422
a(I8
I7
tp423
a(I3
I7
tp424
a(I10
I3
tp425
a(I3
I5
tp426
a(I10
I8
tp427
a(I6
I3
tp428
ag413
a(I8
I5
tp429
a(I7
I4
tp430
a(I3
I8
tp431
a(I0
I6
tp432
a(I3
I6
tp433
a(I1
I3
tp434
a(I8
I6
tp435
a(I2
I4
tp436
atp437
Rp438
sg15
I11
sg30
g20
((lp439
(I6
I4
tp440
a(I3
I2
tp441
a(I4
I6
tp442
a(I4
I9
tp443
a(I3
I3
tp444
a(I9
I8
tp445
a(I8
I0
tp446
a(I8
I8
tp447
a(I5
I0
tp448
a(I1
I0
tp449
a(I8
I4
tp450
a(I5
I2
tp451
a(I6
I1
tp452
a(I9
I7
tp453
atp454
Rp455
sg13
((I5
I1
tp456
(I0
I8
tp457
(I2
I9
tp458
(I4
I1
tp459
(I7
I6
tp460
tp461
sg14
I10
sbs(iproblems
RoomID
p462
(dp463
g10
I15
sg11
(I4
I8
tp464
sg13
I6
sg14
I13
sg15
I10
sg16
I956523682424107605
sb(imulti_robot_problem
MultiRobotState
p465
(dp466
g19
g20
((lp467
(I5
I9
tp468
a(I6
I9
tp469
a(I7
I10
tp470
ag464
a(I5
I6
tp471
a(I3
I11
tp472
a(I9
I4
tp473
a(I4
I9
tp474
a(I5
I8
tp475
a(I2
I7
tp476
a(I5
I10
tp477
a(I5
I5
tp478
a(I3
I10
tp479
a(I5
I7
tp480
a(I9
I9
tp481
a(I5
I0
tp482
a(I7
I8
tp483
a(I1
I1
tp484
atp485
Rp486
sg15
I10
sg30
g20
((lp487
(I6
I10
tp488
a(I8
I3
tp489
a(I1
I3
tp490
a(I6
I6
tp491
a(I7
I6
tp492
a(I8
I12
tp493
a(I5
I4
tp494
a(I1
I4
tp495
a(I2
I10
tp496
a(I7
I4
tp497
a(I1
I5
tp498
a(I7
I5
tp499
a(I0
I9
tp500
a(I7
I11
tp501
a(I6
I2
tp502
atp503
Rp504
sg13
((I1
I12
tp505
(I6
I12
tp506
(I2
I11
tp507
(I0
I4
tp508
(I9
I1
tp509
(I7
I7
tp510
tp511
sg14
I13
sbs(iproblems
RoomID
p512
(dp513
g10
I15
sg11
(I6
I6
tp514
sg13
I5
sg14
I11
sg15
I11
sg16
I2893396244277848635
sb(imulti_robot_problem
MultiRobotState
p515
(dp516
g19
g20
((lp517
(I7
I3
tp518
a(I4
I7
tp519
a(I5
I5
tp520
a(I4
I8
tp521
a(I5
I6
tp522
a(I2
I8
tp523
ag514
a(I3
I2
tp524
a(I3
I9
tp525
a(I4
I3
tp526
a(I1
I7
tp527
a(I6
I9
tp528
atp529
Rp530
sg15
I11
sg30
g20
((lp531
(I2
I6
tp532
a(I8
I7
tp533
a(I3
I10
tp534
a(I3
I1
tp535
a(I2
I10
tp536
a(I0
I5
tp537
a(I6
I5
tp538
a(I3
I6
tp539
a(I8
I6
tp540
a(I4
I0
tp541
a(I3
I7
tp542
a(I7
I9
tp543
a(I4
I1
tp544
a(I5
I8
tp545
a(I5
I3
tp546
atp547
Rp548
sg13
((I4
I5
tp549
(I0
I9
tp550
(I0
I1
tp551
(I9
I2
tp552
(I8
I10
tp553
tp554
sg14
I11
sbssg134
S'heavy_roomset'
p555
sbsg134
g136
sg137
(dp556
g365
((lp557
F301.76999999999953
tp558
sg411
((lp559
F295.64000000000033
tp560
sg462
((lp561
F11.470000000000255
tp562
sg512
((lp563
F294.01000000000022
tp564
ssba(imeasure_core
ProblemSetSolution
p565
(dp566
g3
(imeasure_core
RoomSet
p567
(dp568
g6
(dp569
S'complexRoom'
p570
(imulti_robot_problem
MultiRobotState
p571
(dp572
g19
g20
((lp573
(I2
I7
tp574
a(I7
I3
tp575
a(I6
I3
tp576
a(I3
I3
tp577
a(I7
I6
tp578
a(I7
I4
tp579
a(I7
I5
tp580
a(I2
I3
tp581
a(I4
I3
tp582
a(I2
I5
tp583
a(I2
I4
tp584
a(I5
I3
tp585
atp586
Rp587
sg15
I11
sg30
g20
((lp588
(I1
I0
tp589
a(I9
I0
tp590
atp591
Rp592
sg13
((I6
I4
tp593
(I1
I6
tp594
tp595
sg14
I8
sbsS'exampleProblem'
p596
(imulti_robot_problem
MultiRobotState
p597
(dp598
g19
g20
((lp599
tp600
Rp601
sg15
I5
sg30
g20
((lp602
(I1
I3
tp603
a(I3
I1
tp604
a(I1
I1
tp605
a(I3
I3
tp606
atp607
Rp608
sg13
((I2
I2
tp609
tp610
sg14
I5
sbsS'linear_test'
p611
(imulti_robot_problem
MultiRobotState
p612
(dp613
g19
g601
sg15
I12
sg30
g20
((lp614
(I11
I0
tp615
a(I1
I0
tp616
a(I9
I0
tp617
atp618
Rp619
sg13
((I3
I0
tp620
(I1
I2
tp621
tp622
sg14
I7
sbsS'obstacle_Far_CloseTest'
p623
(imulti_robot_problem
MultiRobotState
p624
(dp625
g19
g20
((lp626
(I0
I1
tp627
a(I7
I3
tp628
a(I3
I1
tp629
a(I7
I1
tp630
a(I4
I5
tp631
a(I7
I6
tp632
a(I4
I4
tp633
a(I2
I1
tp634
a(I7
I4
tp635
a(I7
I5
tp636
a(I4
I3
tp637
a(I4
I2
tp638
a(I4
I1
tp639
a(I1
I1
tp640
a(I7
I2
tp641
atp642
Rp643
sg15
I12
sg30
g20
((lp644
(I3
I2
tp645
a(I9
I6
tp646
atp647
Rp648
sg13
((I0
I0
tp649
(I6
I6
tp650
tp651
sg14
I7
sbsS'zigzag'
p652
(imulti_robot_problem
MultiRobotState
p653
(dp654
g19
g20
((lp655
(I1
I2
tp656
a(I3
I2
tp657
a(I1
I3
tp658
a(I3
I0
tp659
a(I3
I1
tp660
a(I5
I1
tp661
a(I5
I2
tp662
a(I1
I1
tp663
a(I5
I3
tp664
atp665
Rp666
sg15
I20
sg30
g20
((lp667
(I6
I3
tp668
atp669
Rp670
sg13
((I0
I3
tp671
(I19
I3
tp672
tp673
sg14
I4
sbsS'room1'
p674
(imulti_robot_problem
MultiRobotState
p675
(dp676
g19
g20
((lp677
(I6
I3
tp678
a(I7
I3
tp679
a(I8
I3
tp680
a(I2
I3
tp681
a(I3
I3
tp682
a(I4
I3
tp683
a(I5
I3
tp684
atp685
Rp686
sg15
I9
sg30
g20
((lp687
(I0
I0
tp688
a(I2
I1
tp689
atp690
Rp691
sg13
((I6
I1
tp692
(I6
I5
tp693
tp694
sg14
I6
sbsS'complexRoom2'
p695
(imulti_robot_problem
MultiRobotState
p696
(dp697
g19
g20
((lp698
(I7
I3
tp699
a(I1
I3
tp700
a(I7
I1
tp701
a(I4
I5
tp702
a(I9
I3
tp703
a(I5
I5
tp704
a(I2
I6
tp705
a(I2
I3
tp706
a(I5
I1
tp707
a(I0
I3
tp708
a(I10
I3
tp709
a(I2
I5
tp710
a(I6
I5
tp711
a(I5
I3
tp712
a(I2
I7
tp713
a(I8
I3
tp714
a(I3
I3
tp715
a(I5
I2
tp716
a(I7
I6
tp717
a(I3
I1
tp718
a(I6
I3
tp719
a(I7
I5
tp720
a(I4
I3
tp721
a(I3
I5
tp722
a(I4
I1
tp723
a(I6
I1
tp724
atp725
Rp726
sg15
I11
sg30
g20
((lp727
(I7
I2
tp728
a(I0
I7
tp729
atp730
Rp731
sg13
((I1
I2
tp732
(I3
I6
tp733
tp734
sg14
I8
sbsS'zigzagUpright'
p735
(imulti_robot_problem
MultiRobotState
p736
(dp737
g19
g20
((lp738
(I1
I3
tp739
a(I3
I1
tp740
a(I2
I1
tp741
a(I1
I1
tp742
a(I1
I5
tp743
a(I2
I3
tp744
a(I2
I5
tp745
a(I0
I3
tp746
a(I3
I5
tp747
atp748
Rp749
sg15
I4
sg30
g20
((lp750
(I3
I6
tp751
atp752
Rp753
sg13
((I3
I0
tp754
(I3
I19
tp755
tp756
sg14
I20
sbsS'ivansRevenge'
p757
(imulti_robot_problem
MultiRobotState
p758
(dp759
g19
g601
sg15
I10
sg30
g20
((lp760
(I9
I2
tp761
a(I0
I0
tp762
atp763
Rp764
sg13
((I9
I0
tp765
(I0
I2
tp766
tp767
sg14
I3
sbsS'roomLongWithObstaccle'
p768
(imulti_robot_problem
MultiRobotState
p769
(dp770
g19
g20
((lp771
(I0
I1
tp772
a(I12
I1
tp773
a(I9
I1
tp774
a(I7
I1
tp775
a(I8
I1
tp776
a(I6
I1
tp777
a(I3
I1
tp778
a(I2
I1
tp779
a(I11
I1
tp780
a(I10
I1
tp781
a(I5
I1
tp782
a(I4
I1
tp783
a(I1
I1
tp784
atp785
Rp786
sg15
I15
sg30
g20
((lp787
(I0
I2
tp788
a(I14
I6
tp789
atp790
Rp791
sg13
((I0
I0
tp792
(I0
I6
tp793
tp794
sg14
I7
sbsS'twoRobotsInOpCorners'
p795
(imulti_robot_problem
MultiRobotState
p796
(dp797
g19
g601
sg15
I5
sg30
g20
((lp798
(I0
I0
tp799
a(I4
I4
tp800
atp801
Rp802
sg13
((I3
I0
tp803
(I0
I3
tp804
tp805
sg14
I5
sbsS'split2'
p806
(imulti_robot_problem
MultiRobotState
p807
(dp808
g19
g601
sg15
I10
sg30
g20
((lp809
(I0
I9
tp810
a(I9
I0
tp811
a(I0
I0
tp812
a(I9
I9
tp813
atp814
Rp815
sg13
((I1
I1
tp816
(I8
I1
tp817
(I4
I5
tp818
(I5
I5
tp819
tp820
sg14
I10
sbsS'split3'
p821
(imulti_robot_problem
MultiRobotState
p822
(dp823
g19
g601
sg15
I10
sg30
g20
((lp824
(I0
I9
tp825
a(I9
I0
tp826
a(I0
I0
tp827
a(I9
I9
tp828
atp829
Rp830
sg13
((I1
I1
tp831
(I8
I1
tp832
(I1
I7
tp833
(I7
I7
tp834
tp835
sg14
I10
sbsS'gaintRoom'
p836
(imulti_robot_problem
MultiRobotState
p837
(dp838
g19
g601
sg15
I5
sg30
g20
((lp839
(I4
I0
tp840
a(I4
I4
tp841
a(I0
I4
tp842
atp843
Rp844
sg13
((I0
I0
tp845
tp846
sg14
I5
sbsS'gaintRoomWithWall'
p847
(imulti_robot_problem
MultiRobotState
p848
(dp849
g19
g20
((lp850
(I2
I4
tp851
atp852
Rp853
sg15
I5
sg30
g20
((lp854
(I4
I0
tp855
a(I4
I4
tp856
a(I0
I4
tp857
atp858
Rp859
sg13
((I0
I0
tp860
tp861
sg14
I5
sbsS'split'
p862
(imulti_robot_problem
MultiRobotState
p863
(dp864
g19
g601
sg15
I10
sg30
g20
((lp865
(I0
I9
tp866
a(I9
I0
tp867
a(I0
I0
tp868
a(I9
I9
tp869
atp870
Rp871
sg13
((I4
I4
tp872
(I5
I4
tp873
(I4
I5
tp874
(I5
I5
tp875
tp876
sg14
I10
sbsS'twoRobots'
p877
(imulti_robot_problem
MultiRobotState
p878
(dp879
g19
g601
sg15
I9
sg30
g20
((lp880
(I8
I0
tp881
a(I0
I0
tp882
atp883
Rp884
sg13
((I2
I0
tp885
(I0
I3
tp886
tp887
sg14
I4
sbssg134
S'static_rooms'
p888
sbsg134
g136
sg137
(dp889
g806
((lp890
F0.25
tp891
sg821
((lp892
F0.12999999999919964
tp893
sg570
((lp894
F0.030000000000654836
tp895
sg836
((lp896
F0.020000000000436557
tp897
sg596
((lp898
F0.009999999999308784
tp899
sg611
((lp900
F0.010000000000218279
tp901
sg623
((lp902
F21.440000000000509
tp903
sg877
((lp904
F0.010000000000218279
tp905
sg847
((lp906
F0.020000000000436557
tp907
sg652
((lp908
F1.5
tp909
sg674
((lp910
F0.019999999999527063
tp911
sg695
((lp912
F6.930000000000291
tp913
sg735
((lp914
F2.8400000000001455
tp915
sg757
((lp916
F0.009999999999308784
tp917
sg768
((lp918
F11.510000000000218
tp919
sg795
((lp920
F0.020000000000436557
tp921
sg862
((lp922
F0.26999999999952706
tp923
ssba.