(lp0
(imeasure_core
ProblemSetSolution
p1
(dp2
S'roomset'
p3
(imeasure_core
RoomSet
p4
(dp5
S'rooms'
p6
(dp7
(iproblems
RoomID
p8
(dp9
S'dusts'
p10
I8
sS'obstacles'
p11
(I2
I8
tp12
sS'robots'
p13
I4
sS'height'
p14
I10
sS'width'
p15
I7
sS'seed'
p16
I7106521602475165645
sb(imulti_robot_problem
MultiRobotState
p17
(dp18
S'obstacle_locations'
p19
c__builtin__
frozenset
p20
((lp21
(I3
I8
tp22
a(I5
I9
tp23
a(I4
I9
tp24
ag12
a(I5
I2
tp25
a(I5
I8
tp26
atp27
Rp28
sg15
I7
sS'dirt_locations'
p29
g20
((lp30
(I1
I2
tp31
a(I2
I7
tp32
a(I0
I0
tp33
a(I3
I1
tp34
a(I6
I0
tp35
a(I2
I1
tp36
a(I2
I3
tp37
a(I2
I5
tp38
atp39
Rp40
sg13
((I0
I8
tp41
(I4
I5
tp42
(I3
I9
tp43
(I1
I8
tp44
tp45
sg14
I10
sbs(iproblems
RoomID
p46
(dp47
g10
I10
sg11
(I3
I3
tp48
sg13
I4
sg14
I10
sg15
I8
sg16
I746805015404516437
sb(imulti_robot_problem
MultiRobotState
p49
(dp50
g19
g20
((lp51
(I7
I4
tp52
ag48
a(I4
I2
tp53
a(I6
I1
tp54
a(I3
I1
tp55
a(I4
I1
tp56
a(I1
I4
tp57
atp58
Rp59
sg15
I8
sg29
g20
((lp60
(I4
I6
tp61
a(I6
I3
tp62
a(I2
I0
tp63
a(I3
I9
tp64
a(I2
I3
tp65
a(I3
I6
tp66
a(I5
I1
tp67
a(I1
I0
tp68
a(I0
I8
tp69
a(I5
I8
tp70
atp71
Rp72
sg13
((I3
I8
tp73
(I4
I8
tp74
(I4
I9
tp75
(I0
I3
tp76
tp77
sg14
I10
sbs(iproblems
RoomID
p78
(dp79
g10
I5
sg11
(I4
I5
tp80
sg13
I1
sg14
I9
sg15
I8
sg16
I6604845167042249220
sb(imulti_robot_problem
MultiRobotState
p81
(dp82
g19
g20
((lp83
(I7
I4
tp84
ag80
a(I5
I4
tp85
a(I6
I1
tp86
a(I6
I5
tp87
atp88
Rp89
sg15
I8
sg29
g20
((lp90
(I2
I8
tp91
a(I1
I0
tp92
a(I1
I1
tp93
a(I4
I3
tp94
a(I4
I8
tp95
atp96
Rp97
sg13
((I3
I6
tp98
tp99
sg14
I9
sbs(iproblems
RoomID
p100
(dp101
g10
I9
sg11
(I7
I6
tp102
sg13
I5
sg14
I9
sg15
I9
sg16
I8963783824838420066
sb(imulti_robot_problem
MultiRobotState
p103
(dp104
g19
g20
((lp105
(I2
I7
tp106
a(I5
I5
tp107
a(I6
I6
tp108
ag102
a(I4
I4
tp109
a(I7
I1
tp110
a(I7
I5
tp111
a(I2
I2
tp112
a(I6
I5
tp113
atp114
Rp115
sg15
I9
sg29
g20
((lp116
(I3
I0
tp117
a(I2
I1
tp118
a(I6
I3
tp119
a(I0
I7
tp120
a(I3
I7
tp121
a(I8
I6
tp122
a(I0
I8
tp123
a(I8
I5
tp124
a(I7
I2
tp125
atp126
Rp127
sg13
((I7
I7
tp128
(I2
I4
tp129
(I3
I2
tp130
(I4
I7
tp131
(I5
I0
tp132
tp133
sg14
I9
sbssS'name'
p134
S'easy_roomset'
p135
sbsg134
S"AnytimeBeam-w2-gf(1.3, 'exp')_with_PowerHeuristic2"
p136
sS'solutions'
p137
(dp138
g8
((lp139
(F0.3401339054107666
I13
tp140
aF40.030000000000001
tp141
sg46
((lp142
(F1.1854939460754395
I10
tp143
aF40.329999999999991
tp144
sg78
((lp145
F39.990000000000009
tp146
sg100
((lp147
F40.739999999999995
tp148
ssba(imeasure_core
ProblemSetSolution
p149
(dp150
g3
(imeasure_core
RoomSet
p151
(dp152
g6
(dp153
(iproblems
RoomID
p154
(dp155
g10
I6
sg11
(I5
I8
tp156
sg13
I3
sg14
I9
sg15
I11
sg16
I4029557120079369747
sb(imulti_robot_problem
MultiRobotState
p157
(dp158
g19
g20
((lp159
(I7
I3
tp160
a(I1
I3
tp161
a(I4
I8
tp162
a(I10
I6
tp163
a(I7
I1
tp164
a(I1
I4
tp165
a(I3
I7
tp166
a(I5
I1
tp167
a(I2
I5
tp168
a(I8
I5
tp169
ag156
a(I10
I5
tp170
a(I4
I6
tp171
a(I10
I7
tp172
a(I9
I6
tp173
a(I6
I1
tp174
a(I4
I4
tp175
a(I6
I3
tp176
a(I3
I6
tp177
a(I1
I7
tp178
a(I9
I5
tp179
a(I2
I4
tp180
a(I8
I4
tp181
atp182
Rp183
sg15
I11
sg29
g20
((lp184
(I3
I8
tp185
a(I8
I8
tp186
a(I7
I2
tp187
a(I5
I2
tp188
a(I1
I1
tp189
a(I2
I1
tp190
atp191
Rp192
sg13
((I8
I0
tp193
(I3
I1
tp194
(I4
I0
tp195
tp196
sg14
I9
sbs(iproblems
RoomID
p197
(dp198
g10
I10
sg11
(I4
I4
tp199
sg13
I4
sg14
I12
sg15
I12
sg16
I2569146471088859254
sb(imulti_robot_problem
MultiRobotState
p200
(dp201
g19
g20
((lp202
(I5
I4
tp203
a(I4
I8
tp204
a(I4
I5
tp205
a(I11
I2
tp206
a(I4
I7
tp207
a(I1
I9
tp208
a(I10
I3
tp209
a(I5
I8
tp210
a(I5
I5
tp211
a(I3
I3
tp212
ag199
a(I2
I11
tp213
a(I5
I6
tp214
a(I7
I2
tp215
a(I4
I3
tp216
a(I2
I2
tp217
a(I10
I0
tp218
a(I5
I11
tp219
a(I1
I1
tp220
atp221
Rp222
sg15
I12
sg29
g20
((lp223
(I2
I7
tp224
a(I10
I10
tp225
a(I3
I0
tp226
a(I3
I11
tp227
a(I0
I2
tp228
a(I1
I5
tp229
a(I9
I4
tp230
a(I0
I8
tp231
a(I2
I4
tp232
a(I11
I6
tp233
atp234
Rp235
sg13
((I9
I11
tp236
(I7
I10
tp237
(I6
I0
tp238
(I10
I1
tp239
tp240
sg14
I12
sbs(iproblems
RoomID
p241
(dp242
g10
I6
sg11
(I2
I4
tp243
sg13
I3
sg14
I10
sg15
I10
sg16
I1821862095355237593
sb(imulti_robot_problem
MultiRobotState
p244
(dp245
g19
g20
((lp246
(I6
I4
tp247
a(I4
I7
tp248
a(I2
I6
tp249
a(I5
I6
tp250
a(I6
I0
tp251
a(I1
I9
tp252
a(I8
I5
tp253
a(I7
I2
tp254
a(I7
I9
tp255
a(I5
I3
tp256
a(I6
I7
tp257
a(I3
I3
tp258
a(I5
I5
tp259
a(I4
I4
tp260
a(I6
I3
tp261
a(I4
I5
tp262
a(I6
I5
tp263
a(I4
I3
tp264
a(I0
I4
tp265
a(I8
I6
tp266
a(I3
I5
tp267
a(I3
I4
tp268
ag243
atp269
Rp270
sg15
I10
sg29
g20
((lp271
(I0
I6
tp272
a(I7
I0
tp273
a(I5
I1
tp274
a(I2
I3
tp275
a(I2
I8
tp276
a(I9
I6
tp277
atp278
Rp279
sg13
((I2
I2
tp280
(I4
I2
tp281
(I0
I7
tp282
tp283
sg14
I10
sbs(iproblems
RoomID
p284
(dp285
g10
I7
sg11
(I5
I4
tp286
sg13
I3
sg14
I11
sg15
I12
sg16
I2577854692418029171
sb(imulti_robot_problem
MultiRobotState
p287
(dp288
g19
g20
((lp289
(I4
I7
tp290
a(I3
I0
tp291
a(I8
I0
tp292
a(I2
I1
tp293
a(I6
I2
tp294
a(I1
I6
tp295
a(I5
I1
tp296
a(I4
I0
tp297
a(I1
I2
tp298
a(I4
I9
tp299
a(I3
I3
tp300
a(I8
I1
tp301
a(I3
I10
tp302
a(I6
I3
tp303
a(I3
I6
tp304
a(I1
I10
tp305
a(I8
I6
tp306
a(I3
I5
tp307
ag286
a(I2
I6
tp308
a(I7
I1
tp309
a(I6
I0
tp310
a(I1
I9
tp311
a(I4
I2
tp312
a(I0
I8
tp313
a(I5
I3
tp314
a(I0
I1
tp315
a(I7
I0
tp316
a(I5
I2
tp317
a(I6
I1
tp318
a(I3
I1
tp319
a(I3
I8
tp320
a(I3
I4
tp321
a(I2
I4
tp322
atp323
Rp324
sg15
I12
sg29
g20
((lp325
(I4
I10
tp326
a(I10
I5
tp327
a(I10
I1
tp328
a(I2
I8
tp329
a(I7
I6
tp330
a(I4
I4
tp331
a(I9
I7
tp332
atp333
Rp334
sg13
((I10
I6
tp335
(I1
I4
tp336
(I11
I8
tp337
tp338
sg14
I11
sbssg134
S'mild_roomset'
p339
sbsg134
g136
sg137
(dp340
g154
((lp341
F40.04000000000002
tp342
sg197
((lp343
F40.389999999999986
tp344
sg241
((lp345
F40.019999999999982
tp346
sg284
((lp347
F40.100000000000023
tp348
ssba(imeasure_core
ProblemSetSolution
p349
(dp350
g3
(imeasure_core
RoomSet
p351
(dp352
g6
(dp353
(iproblems
RoomID
p354
(dp355
g10
I13
sg11
(I5
I3
tp356
sg13
I6
sg14
I13
sg15
I10
sg16
I7106521602475165645
sb(imulti_robot_problem
MultiRobotState
p357
(dp358
g19
g20
((lp359
(I5
I6
tp360
a(I5
I11
tp361
a(I7
I12
tp362
a(I0
I12
tp363
a(I2
I3
tp364
a(I6
I12
tp365
a(I7
I2
tp366
ag356
a(I1
I2
tp367
a(I4
I5
tp368
a(I8
I12
tp369
a(I7
I1
tp370
a(I2
I11
tp371
a(I6
I3
tp372
a(I6
I11
tp373
a(I0
I4
tp374
a(I0
I9
tp375
a(I0
I5
tp376
a(I3
I4
tp377
atp378
Rp379
sg15
I10
sg29
g20
((lp380
(I0
I1
tp381
a(I8
I3
tp382
a(I4
I6
tp383
a(I7
I11
tp384
a(I6
I9
tp385
a(I0
I11
tp386
a(I3
I9
tp387
a(I2
I12
tp388
a(I8
I6
tp389
a(I5
I1
tp390
a(I3
I7
tp391
a(I0
I3
tp392
a(I3
I5
tp393
atp394
Rp395
sg13
((I0
I10
tp396
(I6
I7
tp397
(I4
I11
tp398
(I1
I11
tp399
(I9
I0
tp400
(I3
I1
tp401
tp402
sg14
I13
sbs(iproblems
RoomID
p403
(dp404
g10
I15
sg11
(I9
I4
tp405
sg13
I6
sg14
I13
sg15
I11
sg16
I746805015404516437
sb(imulti_robot_problem
MultiRobotState
p406
(dp407
g19
g20
((lp408
(I8
I0
tp409
a(I4
I8
tp410
a(I4
I5
tp411
a(I10
I6
tp412
a(I6
I0
tp413
a(I3
I5
tp414
a(I3
I9
tp415
ag405
a(I4
I2
tp416
a(I7
I2
tp417
a(I7
I9
tp418
a(I10
I5
tp419
a(I5
I5
tp420
a(I4
I4
tp421
a(I1
I8
tp422
a(I8
I6
tp423
a(I5
I3
tp424
a(I5
I2
tp425
a(I2
I4
tp426
a(I9
I7
tp427
atp428
Rp429
sg15
I11
sg29
g20
((lp430
(I3
I12
tp431
a(I9
I1
tp432
a(I7
I1
tp433
a(I8
I1
tp434
a(I6
I10
tp435
a(I8
I9
tp436
a(I2
I0
tp437
a(I2
I3
tp438
a(I0
I10
tp439
a(I2
I2
tp440
a(I7
I11
tp441
a(I2
I5
tp442
a(I8
I5
tp443
a(I5
I8
tp444
a(I4
I11
tp445
atp446
Rp447
sg13
((I4
I10
tp448
(I6
I11
tp449
(I5
I12
tp450
(I0
I5
tp451
(I1
I0
tp452
(I7
I10
tp453
tp454
sg14
I13
sbs(iproblems
RoomID
p455
(dp456
g10
I11
sg11
(I9
I6
tp457
sg13
I6
sg14
I10
sg15
I12
sg16
I4029557120079369747
sb(imulti_robot_problem
MultiRobotState
p458
(dp459
g19
g20
((lp460
(I11
I7
tp461
a(I10
I6
tp462
a(I5
I5
tp463
a(I7
I1
tp464
a(I10
I7
tp465
a(I9
I8
tp466
a(I4
I4
tp467
a(I1
I6
tp468
a(I3
I6
tp469
a(I1
I7
tp470
ag457
a(I11
I6
tp471
atp472
Rp473
sg15
I12
sg29
g20
((lp474
(I1
I2
tp475
a(I1
I3
tp476
a(I4
I9
tp477
a(I8
I2
tp478
a(I8
I1
tp479
a(I6
I1
tp480
a(I2
I1
tp481
a(I7
I4
tp482
a(I1
I8
tp483
a(I5
I2
tp484
a(I1
I1
tp485
atp486
Rp487
sg13
((I8
I0
tp488
(I4
I1
tp489
(I4
I0
tp490
(I3
I9
tp491
(I8
I9
tp492
(I3
I8
tp493
tp494
sg14
I10
sbs(iproblems
RoomID
p495
(dp496
g10
I10
sg11
(I6
I7
tp497
sg13
I5
sg14
I12
sg15
I11
sg16
I6604845167042249220
sb(imulti_robot_problem
MultiRobotState
p498
(dp499
g19
g20
((lp500
(I9
I0
tp501
ag497
a(I7
I1
tp502
a(I2
I8
tp503
a(I10
I6
tp504
a(I7
I7
tp505
a(I8
I8
tp506
a(I9
I4
tp507
a(I8
I6
tp508
a(I7
I11
tp509
a(I9
I7
tp510
atp511
Rp512
sg15
I11
sg29
g20
((lp513
(I10
I5
tp514
a(I3
I3
tp515
a(I5
I11
tp516
a(I8
I1
tp517
a(I9
I8
tp518
a(I6
I9
tp519
a(I0
I7
tp520
a(I0
I10
tp521
a(I4
I1
tp522
a(I8
I4
tp523
atp524
Rp525
sg13
((I4
I8
tp526
(I1
I0
tp527
(I2
I2
tp528
(I3
I11
tp529
(I6
I5
tp530
tp531
sg14
I12
sbssg134
S'heavy_roomset'
p532
sbsg134
g136
sg137
(dp533
g354
((lp534
F41.620000000000005
tp535
sg403
((lp536
F42.949999999999989
tp537
sg455
((lp538
(F30.595257997512817
I6
tp539
aF46.79000000000002
tp540
sg495
((lp541
F40.829999999999984
tp542
ssba(imeasure_core
ProblemSetSolution
p543
(dp544
g3
(imeasure_core
RoomSet
p545
(dp546
g6
(dp547
S'complexRoom'
p548
(imulti_robot_problem
MultiRobotState
p549
(dp550
g19
g20
((lp551
(I2
I7
tp552
a(I7
I3
tp553
a(I6
I3
tp554
a(I3
I3
tp555
a(I7
I6
tp556
a(I7
I4
tp557
a(I7
I5
tp558
a(I2
I3
tp559
a(I4
I3
tp560
a(I2
I5
tp561
a(I2
I4
tp562
a(I5
I3
tp563
atp564
Rp565
sg15
I11
sg29
g20
((lp566
(I1
I0
tp567
a(I9
I0
tp568
atp569
Rp570
sg13
((I6
I4
tp571
(I1
I6
tp572
tp573
sg14
I8
sbsS'exampleProblem'
p574
(imulti_robot_problem
MultiRobotState
p575
(dp576
g19
g20
((lp577
tp578
Rp579
sg15
I5
sg29
g20
((lp580
(I1
I3
tp581
a(I3
I1
tp582
a(I1
I1
tp583
a(I3
I3
tp584
atp585
Rp586
sg13
((I2
I2
tp587
tp588
sg14
I5
sbsS'linear_test'
p589
(imulti_robot_problem
MultiRobotState
p590
(dp591
g19
g579
sg15
I12
sg29
g20
((lp592
(I11
I0
tp593
a(I1
I0
tp594
a(I9
I0
tp595
atp596
Rp597
sg13
((I3
I0
tp598
(I1
I2
tp599
tp600
sg14
I7
sbsS'obstacle_Far_CloseTest'
p601
(imulti_robot_problem
MultiRobotState
p602
(dp603
g19
g20
((lp604
(I0
I1
tp605
a(I7
I3
tp606
a(I3
I1
tp607
a(I7
I1
tp608
a(I4
I5
tp609
a(I7
I6
tp610
a(I4
I4
tp611
a(I2
I1
tp612
a(I7
I4
tp613
a(I7
I5
tp614
a(I4
I3
tp615
a(I4
I2
tp616
a(I4
I1
tp617
a(I1
I1
tp618
a(I7
I2
tp619
atp620
Rp621
sg15
I12
sg29
g20
((lp622
(I3
I2
tp623
a(I9
I6
tp624
atp625
Rp626
sg13
((I0
I0
tp627
(I6
I6
tp628
tp629
sg14
I7
sbsS'zigzag'
p630
(imulti_robot_problem
MultiRobotState
p631
(dp632
g19
g20
((lp633
(I1
I2
tp634
a(I3
I2
tp635
a(I1
I3
tp636
a(I3
I0
tp637
a(I3
I1
tp638
a(I5
I1
tp639
a(I5
I2
tp640
a(I1
I1
tp641
a(I5
I3
tp642
atp643
Rp644
sg15
I20
sg29
g20
((lp645
(I6
I3
tp646
atp647
Rp648
sg13
((I0
I3
tp649
(I19
I3
tp650
tp651
sg14
I4
sbsS'room1'
p652
(imulti_robot_problem
MultiRobotState
p653
(dp654
g19
g20
((lp655
(I6
I3
tp656
a(I7
I3
tp657
a(I8
I3
tp658
a(I2
I3
tp659
a(I3
I3
tp660
a(I4
I3
tp661
a(I5
I3
tp662
atp663
Rp664
sg15
I9
sg29
g20
((lp665
(I0
I0
tp666
a(I2
I1
tp667
atp668
Rp669
sg13
((I6
I1
tp670
(I6
I5
tp671
tp672
sg14
I6
sbsS'complexRoom2'
p673
(imulti_robot_problem
MultiRobotState
p674
(dp675
g19
g20
((lp676
(I7
I3
tp677
a(I1
I3
tp678
a(I7
I1
tp679
a(I4
I5
tp680
a(I9
I3
tp681
a(I5
I5
tp682
a(I2
I6
tp683
a(I2
I3
tp684
a(I5
I1
tp685
a(I0
I3
tp686
a(I10
I3
tp687
a(I2
I5
tp688
a(I6
I5
tp689
a(I5
I3
tp690
a(I2
I7
tp691
a(I8
I3
tp692
a(I3
I3
tp693
a(I5
I2
tp694
a(I7
I6
tp695
a(I3
I1
tp696
a(I6
I3
tp697
a(I7
I5
tp698
a(I4
I3
tp699
a(I3
I5
tp700
a(I4
I1
tp701
a(I6
I1
tp702
atp703
Rp704
sg15
I11
sg29
g20
((lp705
(I7
I2
tp706
a(I0
I7
tp707
atp708
Rp709
sg13
((I1
I2
tp710
(I3
I6
tp711
tp712
sg14
I8
sbsS'zigzagUpright'
p713
(imulti_robot_problem
MultiRobotState
p714
(dp715
g19
g20
((lp716
(I1
I3
tp717
a(I3
I1
tp718
a(I2
I1
tp719
a(I1
I1
tp720
a(I1
I5
tp721
a(I2
I3
tp722
a(I2
I5
tp723
a(I0
I3
tp724
a(I3
I5
tp725
atp726
Rp727
sg15
I4
sg29
g20
((lp728
(I3
I6
tp729
atp730
Rp731
sg13
((I3
I0
tp732
(I3
I19
tp733
tp734
sg14
I20
sbsS'ivansRevenge'
p735
(imulti_robot_problem
MultiRobotState
p736
(dp737
g19
g579
sg15
I10
sg29
g20
((lp738
(I9
I2
tp739
a(I0
I0
tp740
atp741
Rp742
sg13
((I9
I0
tp743
(I0
I2
tp744
tp745
sg14
I3
sbsS'roomLongWithObstaccle'
p746
(imulti_robot_problem
MultiRobotState
p747
(dp748
g19
g20
((lp749
(I0
I1
tp750
a(I12
I1
tp751
a(I9
I1
tp752
a(I7
I1
tp753
a(I8
I1
tp754
a(I6
I1
tp755
a(I3
I1
tp756
a(I2
I1
tp757
a(I11
I1
tp758
a(I10
I1
tp759
a(I5
I1
tp760
a(I4
I1
tp761
a(I1
I1
tp762
atp763
Rp764
sg15
I15
sg29
g20
((lp765
(I0
I2
tp766
a(I14
I6
tp767
atp768
Rp769
sg13
((I0
I0
tp770
(I0
I6
tp771
tp772
sg14
I7
sbsS'twoRobotsInOpCorners'
p773
(imulti_robot_problem
MultiRobotState
p774
(dp775
g19
g579
sg15
I5
sg29
g20
((lp776
(I0
I0
tp777
a(I4
I4
tp778
atp779
Rp780
sg13
((I3
I0
tp781
(I0
I3
tp782
tp783
sg14
I5
sbsS'split2'
p784
(imulti_robot_problem
MultiRobotState
p785
(dp786
g19
g579
sg15
I10
sg29
g20
((lp787
(I0
I9
tp788
a(I9
I0
tp789
a(I0
I0
tp790
a(I9
I9
tp791
atp792
Rp793
sg13
((I1
I1
tp794
(I8
I1
tp795
(I4
I5
tp796
(I5
I5
tp797
tp798
sg14
I10
sbsS'split3'
p799
(imulti_robot_problem
MultiRobotState
p800
(dp801
g19
g579
sg15
I10
sg29
g20
((lp802
(I0
I9
tp803
a(I9
I0
tp804
a(I0
I0
tp805
a(I9
I9
tp806
atp807
Rp808
sg13
((I1
I1
tp809
(I8
I1
tp810
(I1
I7
tp811
(I7
I7
tp812
tp813
sg14
I10
sbsS'gaintRoom'
p814
(imulti_robot_problem
MultiRobotState
p815
(dp816
g19
g579
sg15
I5
sg29
g20
((lp817
(I4
I0
tp818
a(I4
I4
tp819
a(I0
I4
tp820
atp821
Rp822
sg13
((I0
I0
tp823
tp824
sg14
I5
sbsS'gaintRoomWithWall'
p825
(imulti_robot_problem
MultiRobotState
p826
(dp827
g19
g20
((lp828
(I2
I4
tp829
atp830
Rp831
sg15
I5
sg29
g20
((lp832
(I4
I0
tp833
a(I4
I4
tp834
a(I0
I4
tp835
atp836
Rp837
sg13
((I0
I0
tp838
tp839
sg14
I5
sbsS'split'
p840
(imulti_robot_problem
MultiRobotState
p841
(dp842
g19
g579
sg15
I10
sg29
g20
((lp843
(I0
I9
tp844
a(I9
I0
tp845
a(I0
I0
tp846
a(I9
I9
tp847
atp848
Rp849
sg13
((I4
I4
tp850
(I5
I4
tp851
(I4
I5
tp852
(I5
I5
tp853
tp854
sg14
I10
sbsS'twoRobots'
p855
(imulti_robot_problem
MultiRobotState
p856
(dp857
g19
g579
sg15
I9
sg29
g20
((lp858
(I8
I0
tp859
a(I0
I0
tp860
atp861
Rp862
sg13
((I2
I0
tp863
(I0
I3
tp864
tp865
sg14
I4
sbssg134
S'static_rooms'
p866
sbsg134
g136
sg137
(dp867
g784
((lp868
F40.029999999999973
tp869
sg799
((lp870
F40.120000000000005
tp871
sg548
((lp872
F39.980000000000075
tp873
sg814
((lp874
F39.980000000000018
tp875
sg574
((lp876
F39.989999999999895
tp877
sg589
((lp878
F39.980000000000018
tp879
sg601
((lp880
F39.940000000000055
tp881
sg855
((lp882
F39.960000000000036
tp883
sg825
((lp884
F39.990000000000009
tp885
sg630
((lp886
F40.0
tp887
sg652
((lp888
F39.990000000000009
tp889
sg673
((lp890
F39.990000000000009
tp891
sg713
((lp892
F40.0
tp893
sg735
((lp894
(F0.0037870407104492188
I2
tp895
aF39.959999999999923
tp896
sg746
((lp897
F39.980000000000018
tp898
sg773
((lp899
F39.82000000000005
tp900
sg840
((lp901
F40.159999999999854
tp902
ssba(imeasure_core
ProblemSetSolution
p903
(dp904
g3
g4
sg134
S"AnytimeBeam-w6-gf(1.3, 'exp')_with_PowerHeuristic2"
p905
sg137
(dp906
g8
((lp907
(F0.41726398468017578
I13
tp908
aF40.170000000000073
tp909
sg46
((lp910
(F1.180757999420166
I10
tp911
aF40.25
tp912
sg78
((lp913
F39.990000000000009
tp914
sg100
((lp915
F40.490000000000009
tp916
ssba(imeasure_core
ProblemSetSolution
p917
(dp918
g3
g151
sg134
g905
sg137
(dp919
g154
((lp920
F40.029999999999973
tp921
sg197
((lp922
F40.339999999999918
tp923
sg241
((lp924
F39.980000000000018
tp925
sg284
((lp926
F39.980000000000018
tp927
ssba(imeasure_core
ProblemSetSolution
p928
(dp929
g3
g351
sg134
g905
sg137
(dp930
g354
((lp931
F41.470000000000027
tp932
sg403
((lp933
F42.75
tp934
sg455
((lp935
(F30.645064115524292
I6
tp936
aF46.549999999999955
tp937
sg495
((lp938
F40.820000000000164
tp939
ssba(imeasure_core
ProblemSetSolution
p940
(dp941
g3
g545
sg134
g905
sg137
(dp942
g784
((lp943
F40.069999999999709
tp944
sg799
((lp945
F40.070000000000164
tp946
sg548
((lp947
F39.970000000000027
tp948
sg814
((lp949
F39.9699999999998
tp950
sg574
((lp951
F39.990000000000009
tp952
sg589
((lp953
F39.989999999999782
tp954
sg601
((lp955
F39.950000000000045
tp956
sg855
((lp957
F39.559999999999945
tp958
sg825
((lp959
F39.980000000000018
tp960
sg630
((lp961
F39.960000000000036
tp962
sg652
((lp963
F39.970000000000027
tp964
sg673
((lp965
F39.980000000000018
tp966
sg713
((lp967
F39.940000000000055
tp968
sg735
((lp969
(F0.0037400722503662109
I2
tp970
aF39.970000000000027
tp971
sg746
((lp972
F39.970000000000027
tp973
sg773
((lp974
F39.960000000000036
tp975
sg840
((lp976
F40.340000000000146
tp977
ssba(imeasure_core
ProblemSetSolution
p978
(dp979
g3
g4
sg134
S"AnytimeBeam-w9-gf(1.3, 'exp')_with_PowerHeuristic2"
p980
sg137
(dp981
g8
((lp982
(F0.48261308670043945
I13
tp983
aF40.179999999999836
tp984
sg46
((lp985
(F1.1898999214172363
I10
tp986
aF40.140000000000327
tp987
sg78
((lp988
F39.900000000000091
tp989
sg100
((lp990
F40.579999999999927
tp991
ssba(imeasure_core
ProblemSetSolution
p992
(dp993
g3
g151
sg134
g980
sg137
(dp994
g154
((lp995
F40.0300000000002
tp996
sg197
((lp997
F40.159999999999854
tp998
sg241
((lp999
F39.929999999999836
tp1000
sg284
((lp1001
F40.090000000000146
tp1002
ssba(imeasure_core
ProblemSetSolution
p1003
(dp1004
g3
g351
sg134
g980
sg137
(dp1005
g354
((lp1006
F41.409999999999854
tp1007
sg403
((lp1008
F42.880000000000109
tp1009
sg455
((lp1010
(F30.704414844512939
I6
tp1011
aF46.820000000000164
tp1012
sg495
((lp1013
F40.190000000000055
tp1014
ssba(imeasure_core
ProblemSetSolution
p1015
(dp1016
g3
g545
sg134
g980
sg137
(dp1017
g784
((lp1018
F40.099999999999909
tp1019
sg799
((lp1020
F40.019999999999982
tp1021
sg548
((lp1022
F39.900000000000091
tp1023
sg814
((lp1024
F39.900000000000091
tp1025
sg574
((lp1026
F39.800000000000182
tp1027
sg589
((lp1028
F39.869999999999891
tp1029
sg601
((lp1030
F39.920000000000073
tp1031
sg855
((lp1032
F39.889999999999873
tp1033
sg825
((lp1034
F39.920000000000073
tp1035
sg630
((lp1036
F39.980000000000018
tp1037
sg652
((lp1038
F39.9699999999998
tp1039
sg673
((lp1040
F39.940000000000055
tp1041
sg713
((lp1042
F39.909999999999854
tp1043
sg735
((lp1044
(F0.0037939548492431641
I2
tp1045
aF39.900000000000091
tp1046
sg746
((lp1047
F39.909999999999854
tp1048
sg773
((lp1049
F39.870000000000346
tp1050
sg840
((lp1051
F40.309999999999945
tp1052
ssba(imeasure_core
ProblemSetSolution
p1053
(dp1054
g3
g4
sg134
S"AnytimeBeam-w12-gf(1.3, 'exp')_with_PowerHeuristic2"
p1055
sg137
(dp1056
g8
((lp1057
(F0.49257707595825195
I13
tp1058
aF39.880000000000109
tp1059
sg46
((lp1060
(F1.1875300407409668
I10
tp1061
aF39.989999999999782
tp1062
sg78
((lp1063
F39.990000000000236
tp1064
sg100
((lp1065
F40.759999999999764
tp1066
ssba(imeasure_core
ProblemSetSolution
p1067
(dp1068
g3
g151
sg134
g1055
sg137
(dp1069
g154
((lp1070
F40.010000000000218
tp1071
sg197
((lp1072
F40.139999999999873
tp1073
sg241
((lp1074
F40.010000000000218
tp1075
sg284
((lp1076
F40.039999999999964
tp1077
ssba(imeasure_core
ProblemSetSolution
p1078
(dp1079
g3
g351
sg134
g1055
sg137
(dp1080
g354
((lp1081
F41.679999999999836
tp1082
sg403
((lp1083
F42.889999999999873
tp1084
sg455
((lp1085
(F30.739243030548096
I6
tp1086
aF46.690000000000055
tp1087
sg495
((lp1088
F40.960000000000036
tp1089
ssba(imeasure_core
ProblemSetSolution
p1090
(dp1091
g3
g545
sg134
g1055
sg137
(dp1092
g784
((lp1093
F40.030000000000655
tp1094
sg799
((lp1095
F40.039999999999964
tp1096
sg548
((lp1097
F39.900000000000091
tp1098
sg814
((lp1099
F39.909999999999854
tp1100
sg574
((lp1101
F39.880000000000109
tp1102
sg589
((lp1103
F39.889999999999873
tp1104
sg601
((lp1105
F39.869999999999891
tp1106
sg855
((lp1107
F40.0
tp1108
sg825
((lp1109
F39.890000000000327
tp1110
sg630
((lp1111
F39.930000000000291
tp1112
sg652
((lp1113
F39.929999999999382
tp1114
sg673
((lp1115
F39.890000000000327
tp1116
sg713
((lp1117
F39.980000000000473
tp1118
sg735
((lp1119
(F0.00374603271484375
I2
tp1120
aF39.960000000000036
tp1121
sg746
((lp1122
F39.989999999999782
tp1123
sg773
((lp1124
F39.889999999999418
tp1125
sg840
((lp1126
F40.399999999999636
tp1127
ssba(imeasure_core
ProblemSetSolution
p1128
(dp1129
g3
g4
sg134
S"AnytimeBeam-w2-gf(1.3, 'exp')_with_LinearHeuristic"
p1130
sg137
(dp1131
g8
((lp1132
(F27.071367025375366
I155
tp1133
aF39.989999999999782
tp1134
sg46
((lp1135
(F1.6690411567687988
I24
tp1136
aF40.199999999999818
tp1137
sg78
((lp1138
(F0.013707160949707031
I18
tp1139
aF39.980000000000473
tp1140
sg100
((lp1141
F40.699999999999818
tp1142
ssba(imeasure_core
ProblemSetSolution
p1143
(dp1144
g3
g151
sg134
g1130
sg137
(dp1145
g154
((lp1146
F40.059999999999491
tp1147
sg197
((lp1148
F40.360000000000582
tp1149
sg241
((lp1150
F40.059999999999491
tp1151
sg284
((lp1152
F40.039999999999964
tp1153
ssba(imeasure_core
ProblemSetSolution
p1154
(dp1155
g3
g351
sg134
g1130
sg137
(dp1156
g354
((lp1157
F42.960000000000036
tp1158
sg403
((lp1159
F52.949999999999818
tp1160
sg455
((lp1161
F46.730000000000473
tp1162
sg495
((lp1163
F41.260000000000218
tp1164
ssba(imeasure_core
ProblemSetSolution
p1165
(dp1166
g3
g545
sg134
g1130
sg137
(dp1167
g784
((lp1168
F40.039999999999964
tp1169
sg799
((lp1170
F40.300000000000182
tp1171
sg548
((lp1172
(F4.8872261047363281
I18
tp1173
a(F12.882163047790527
I16
tp1174
a(F20.618691205978394
I15
tp1175
a(F28.776914119720459
I14
tp1176
aF40.010000000000218
tp1177
sg814
((lp1178
F39.949999999999818
tp1179
sg574
((lp1180
(F0.0063788890838623047
I8
tp1181
aF39.989999999999782
tp1182
sg589
((lp1183
F40.0
tp1184
sg601
((lp1185
F39.990000000000691
tp1186
sg855
((lp1187
F39.990000000000691
tp1188
sg825
((lp1189
F39.539999999999964
tp1190
sg630
((lp1191
F39.989999999999782
tp1192
sg652
((lp1193
(F9.3775501251220703
I8
tp1194
a(F25.809421062469482
I7
tp1195
aF40.0
tp1196
sg673
((lp1197
F40.0
tp1198
sg713
((lp1199
F39.989999999999782
tp1200
sg735
((lp1201
(F0.0052750110626220703
I2
tp1202
aF39.940000000000509
tp1203
sg746
((lp1204
F39.960000000000036
tp1205
sg773
((lp1206
F39.979999999999563
tp1207
sg840
((lp1208
F40.239999999999782
tp1209
ssba(imeasure_core
ProblemSetSolution
p1210
(dp1211
g3
g4
sg134
S"AnytimeBeam-w6-gf(1.3, 'exp')_with_LinearHeuristic"
p1212
sg137
(dp1213
g8
((lp1214
(F25.1858229637146
I155
tp1215
aF40.049999999999272
tp1216
sg46
((lp1217
(F1.67734694480896
I24
tp1218
aF40.050000000000182
tp1219
sg78
((lp1220
(F0.013663053512573242
I18
tp1221
aF39.989999999999782
tp1222
sg100
((lp1223
F40.970000000000255
tp1224
ssba(imeasure_core
ProblemSetSolution
p1225
(dp1226
g3
g151
sg134
g1212
sg137
(dp1227
g154
((lp1228
F40.119999999999891
tp1229
sg197
((lp1230
F40.510000000000218
tp1231
sg241
((lp1232
F40.079999999999927
tp1233
sg284
((lp1234
F40.079999999999927
tp1235
ssba(imeasure_core
ProblemSetSolution
p1236
(dp1237
g3
g351
sg134
g1212
sg137
(dp1238
g354
((lp1239
F42.699999999999818
tp1240
sg403
((lp1241
F53.020000000000437
tp1242
sg455
((lp1243
F46.5600000000004
tp1244
sg495
((lp1245
F41.1299999999992
tp1246
ssba(imeasure_core
ProblemSetSolution
p1247
(dp1248
g3
g545
sg134
g1212
sg137
(dp1249
g784
((lp1250
F40.409999999999854
tp1251
sg799
((lp1252
F40.460000000000036
tp1253
sg548
((lp1254
(F4.8486411571502686
I18
tp1255
a(F12.806095123291016
I16
tp1256
a(F20.535619020462036
I15
tp1257
a(F28.573283195495605
I14
tp1258
aF40.0
tp1259
sg814
((lp1260
F39.989999999999782
tp1261
sg574
((lp1262
(F0.0063700675964355469
I8
tp1263
aF39.989999999999782
tp1264
sg589
((lp1265
F40.010000000000218
tp1266
sg601
((lp1267
F39.989999999999782
tp1268
sg855
((lp1269
F40.0
tp1270
sg825
((lp1271
F39.990000000000691
tp1272
sg630
((lp1273
F40.0
tp1274
sg652
((lp1275
(F9.3449862003326416
I8
tp1276
a(F25.741522073745728
I7
tp1277
aF40.0
tp1278
sg673
((lp1279
F40.0
tp1280
sg713
((lp1281
F39.990000000000691
tp1282
sg735
((lp1283
(F0.0053040981292724609
I2
tp1284
aF40.0
tp1285
sg746
((lp1286
F39.989999999999782
tp1287
sg773
((lp1288
F39.989999999999782
tp1289
sg840
((lp1290
F40.6899999999996
tp1291
ssba(imeasure_core
ProblemSetSolution
p1292
(dp1293
g3
g4
sg134
S"AnytimeBeam-w9-gf(1.3, 'exp')_with_LinearHeuristic"
p1294
sg137
(dp1295
g8
((lp1296
(F18.872626066207886
I155
tp1297
aF40.020000000000437
tp1298
sg46
((lp1299
(F1.6939890384674072
I24
tp1300
aF40.159999999999854
tp1301
sg78
((lp1302
(F0.013519048690795898
I18
tp1303
aF39.989999999999782
tp1304
sg100
((lp1305
F40.970000000000255
tp1306
ssba(imeasure_core
ProblemSetSolution
p1307
(dp1308
g3
g151
sg134
g1294
sg137
(dp1309
g154
((lp1310
F40.079999999999927
tp1311
sg197
((lp1312
F40.5
tp1313
sg241
((lp1314
F40.029999999999745
tp1315
sg284
((lp1316
F40.069999999999709
tp1317
ssba(imeasure_core
ProblemSetSolution
p1318
(dp1319
g3
g351
sg134
g1294
sg137
(dp1320
g354
((lp1321
F42.350000000000364
tp1322
sg403
((lp1323
F52.699999999999818
tp1324
sg455
((lp1325
F46.199999999999818
tp1326
sg495
((lp1327
F40.820000000000618
tp1328
ssba(imeasure_core
ProblemSetSolution
p1329
(dp1330
g3
g545
sg134
g1294
sg137
(dp1331
g784
((lp1332
F40.349999999999454
tp1333
sg799
((lp1334
F40.069999999999709
tp1335
sg548
((lp1336
(F4.8881409168243408
I18
tp1337
a(F12.894995927810669
I16
tp1338
a(F20.584594011306763
I15
tp1339
a(F28.67545485496521
I14
tp1340
aF40.009999999999309
tp1341
sg814
((lp1342
F39.990000000000691
tp1343
sg574
((lp1344
(F0.0063560009002685547
I8
tp1345
aF39.990000000000691
tp1346
sg589
((lp1347
F40.0
tp1348
sg601
((lp1349
F40.0
tp1350
sg855
((lp1351
F39.989999999999782
tp1352
sg825
((lp1353
F39.989999999999782
tp1354
sg630
((lp1355
F39.989999999999782
tp1356
sg652
((lp1357
(F9.395611047744751
I8
tp1358
a(F25.855566024780273
I7
tp1359
aF40.010000000000218
tp1360
sg673
((lp1361
F39.989999999999782
tp1362
sg713
((lp1363
F40.0
tp1364
sg735
((lp1365
(F0.0053489208221435547
I2
tp1366
aF39.989999999999782
tp1367
sg746
((lp1368
F39.989999999999782
tp1369
sg773
((lp1370
F39.990000000000691
tp1371
sg840
((lp1372
F40.1200000000008
tp1373
ssba(imeasure_core
ProblemSetSolution
p1374
(dp1375
g3
g4
sg134
S"AnytimeBeam-w12-gf(1.3, 'exp')_with_LinearHeuristic"
p1376
sg137
(dp1377
g8
((lp1378
(F10.317831993103027
I155
tp1379
aF40.009999999998399
tp1380
sg46
((lp1381
(F1.8975200653076172
I24
tp1382
aF40.070000000001528
tp1383
sg78
((lp1384
(F0.013523101806640625
I18
tp1385
aF39.989999999999782
tp1386
sg100
((lp1387
F40.849999999998545
tp1388
ssba(imeasure_core
ProblemSetSolution
p1389
(dp1390
g3
g151
sg134
g1376
sg137
(dp1391
g154
((lp1392
F40.030000000000655
tp1393
sg197
((lp1394
F40.680000000000291
tp1395
sg241
((lp1396
F40.110000000000582
tp1397
sg284
((lp1398
F40.069999999999709
tp1399
ssba(imeasure_core
ProblemSetSolution
p1400
(dp1401
g3
g351
sg134
g1376
sg137
(dp1402
g354
((lp1403
F42.510000000000218
tp1404
sg403
((lp1405
F52.609999999998763
tp1406
sg455
((lp1407
F46.280000000000655
tp1408
sg495
((lp1409
F40.8799999999992
tp1410
ssba(imeasure_core
ProblemSetSolution
p1411
(dp1412
g3
g545
sg134
g1376
sg137
(dp1413
g784
((lp1414
F40.369999999998981
tp1415
sg799
((lp1416
F40.100000000000364
tp1417
sg548
((lp1418
(F4.8457019329071045
I18
tp1419
a(F12.820964097976685
I16
tp1420
a(F20.496308088302612
I15
tp1421
a(F28.568024158477783
I14
tp1422
aF40.020000000000437
tp1423
sg814
((lp1424
F40.0
tp1425
sg574
((lp1426
(F0.0063560009002685547
I8
tp1427
aF39.989999999999782
tp1428
sg589
((lp1429
F40.0
tp1430
sg601
((lp1431
F39.989999999999782
tp1432
sg855
((lp1433
F39.989999999999782
tp1434
sg825
((lp1435
F39.989999999999782
tp1436
sg630
((lp1437
F39.989999999999782
tp1438
sg652
((lp1439
(F9.3547420501708984
I8
tp1440
a(F25.705651044845581
I7
tp1441
aF40.0
tp1442
sg673
((lp1443
F40.0
tp1444
sg713
((lp1445
F39.989999999999782
tp1446
sg735
((lp1447
(F0.005290985107421875
I2
tp1448
aF40.0
tp1449
sg746
((lp1450
F39.990000000001601
tp1451
sg773
((lp1452
F39.989999999999782
tp1453
sg840
((lp1454
F40.319999999999709
tp1455
ssba.