(lp0
(imeasure_core
ProblemSetSolution
p1
(dp2
S'roomset'
p3
(imeasure_core
RoomSet
p4
(dp5
S'rooms'
p6
(dp7
(iproblems
RoomID
p8
(dp9
S'dusts'
p10
I6
sS'obstacles'
p11
(I0
I4
tp12
sS'robots'
p13
I1
sS'height'
p14
I9
sS'width'
p15
I9
sS'seed'
p16
I1164115433906158532
sb(imulti_robot_problem
MultiRobotState
p17
(dp18
S'obstacle_locations'
p19
c__builtin__
frozenset
p20
((lp21
(I0
I1
tp22
a(I1
I2
tp23
a(I1
I3
tp24
a(I1
I4
tp25
ag12
atp26
Rp27
sg15
I9
sS'dirt_locations'
p28
g20
((lp29
(I6
I4
tp30
a(I1
I8
tp31
a(I1
I6
tp32
a(I1
I0
tp33
a(I8
I5
tp34
a(I3
I5
tp35
atp36
Rp37
sg13
((I4
I5
tp38
tp39
sg14
I9
sbs(iproblems
RoomID
p40
(dp41
g10
I8
sg11
(I6
I5
tp42
sg13
I5
sg14
I8
sg15
I7
sg16
I2175216119781798972
sb(imulti_robot_problem
MultiRobotState
p43
(dp44
g19
g20
((lp45
(I1
I2
tp46
a(I2
I6
tp47
a(I6
I7
tp48
a(I6
I6
tp49
a(I5
I7
tp50
a(I2
I3
tp51
a(I0
I4
tp52
a(I1
I0
tp53
ag42
atp54
Rp55
sg15
I7
sg28
g20
((lp56
(I5
I4
tp57
a(I5
I5
tp58
a(I4
I4
tp59
a(I0
I6
tp60
a(I0
I5
tp61
a(I1
I7
tp62
a(I4
I2
tp63
a(I0
I2
tp64
atp65
Rp66
sg13
((I1
I3
tp67
(I6
I4
tp68
(I3
I7
tp69
(I6
I0
tp70
(I2
I1
tp71
tp72
sg14
I8
sbs(iproblems
RoomID
p73
(dp74
g10
I5
sg11
(I0
I4
tp75
sg13
I5
sg14
I7
sg15
I7
sg16
I8711387064946514083
sb(imulti_robot_problem
MultiRobotState
p76
(dp77
g19
g20
((lp78
(I0
I1
tp79
a(I2
I2
tp80
a(I0
I2
tp81
a(I1
I5
tp82
ag75
a(I0
I3
tp83
a(I2
I4
tp84
a(I6
I5
tp85
atp86
Rp87
sg15
I7
sg28
g20
((lp88
(I5
I6
tp89
a(I6
I4
tp90
a(I3
I2
tp91
a(I6
I1
tp92
a(I6
I6
tp93
atp94
Rp95
sg13
((I1
I1
tp96
(I6
I0
tp97
(I5
I0
tp98
(I1
I3
tp99
(I4
I5
tp100
tp101
sg14
I7
sbs(iproblems
RoomID
p102
(dp103
g10
I9
sg11
(I6
I3
tp104
sg13
I4
sg14
I9
sg15
I10
sg16
I7002664860023442459
sb(imulti_robot_problem
MultiRobotState
p105
(dp106
g19
g20
((lp107
(I7
I4
tp108
a(I7
I3
tp109
ag104
a(I6
I5
tp110
a(I9
I7
tp111
atp112
Rp113
sg15
I10
sg28
g20
((lp114
(I0
I0
tp115
a(I6
I8
tp116
a(I2
I8
tp117
a(I5
I7
tp118
a(I2
I6
tp119
a(I4
I2
tp120
a(I5
I1
tp121
a(I8
I6
tp122
a(I8
I4
tp123
atp124
Rp125
sg13
((I7
I5
tp126
(I7
I6
tp127
(I1
I7
tp128
(I1
I6
tp129
tp130
sg14
I9
sbssS'name'
p131
S'easy_roomset'
p132
sbsg131
S'LimitedTimeAStar_with_PowerHeuristic2'
p133
sS'solutions'
p134
(dp135
g8
((lp136
F0.13999999999998636
tp137
sg40
((lp138
F0.46000000000003638
tp139
sg73
((lp140
F0.18999999999999773
tp141
sg102
((lp142
F0.43999999999999773
tp143
ssba(imeasure_core
ProblemSetSolution
p144
(dp145
g3
(imeasure_core
RoomSet
p146
(dp147
g6
(dp148
(iproblems
RoomID
p149
(dp150
g10
I6
sg11
(I5
I5
tp151
sg13
I3
sg14
I11
sg15
I11
sg16
I1164115433906158532
sb(imulti_robot_problem
MultiRobotState
p152
(dp153
g19
g20
((lp154
(I5
I4
tp155
a(I1
I3
tp156
a(I4
I3
tp157
a(I4
I8
tp158
a(I3
I0
tp159
a(I8
I0
tp160
a(I3
I2
tp161
a(I0
I7
tp162
a(I2
I1
tp163
a(I3
I9
tp164
a(I0
I5
tp165
a(I1
I4
tp166
a(I3
I7
tp167
a(I2
I5
tp168
a(I5
I3
tp169
a(I8
I3
tp170
a(I3
I1
tp171
ag151
a(I2
I0
tp172
a(I3
I10
tp173
a(I6
I10
tp174
a(I0
I6
tp175
a(I1
I8
tp176
a(I3
I6
tp177
a(I4
I5
tp178
a(I0
I2
tp179
atp180
Rp181
sg15
I11
sg28
g20
((lp182
(I7
I5
tp183
a(I8
I8
tp184
a(I4
I9
tp185
a(I4
I6
tp186
a(I10
I6
tp187
a(I8
I2
tp188
atp189
Rp190
sg13
((I5
I7
tp191
(I2
I10
tp192
(I2
I8
tp193
tp194
sg14
I11
sbs(iproblems
RoomID
p195
(dp196
g10
I8
sg11
(I5
I4
tp197
sg13
I4
sg14
I10
sg15
I9
sg16
I2175216119781798972
sb(imulti_robot_problem
MultiRobotState
p198
(dp199
g19
g20
((lp200
(I6
I6
tp201
a(I2
I8
tp202
a(I0
I7
tp203
a(I6
I2
tp204
a(I1
I6
tp205
a(I2
I5
tp206
a(I5
I5
tp207
a(I8
I1
tp208
a(I7
I6
tp209
a(I6
I3
tp210
a(I2
I2
tp211
a(I8
I6
tp212
a(I6
I4
tp213
ag197
a(I8
I2
tp214
a(I7
I1
tp215
a(I1
I4
tp216
a(I7
I5
tp217
a(I8
I7
tp218
a(I1
I0
tp219
a(I6
I5
tp220
a(I3
I3
tp221
a(I8
I3
tp222
a(I7
I0
tp223
a(I6
I8
tp224
a(I3
I4
tp225
a(I7
I4
tp226
a(I0
I6
tp227
a(I1
I8
tp228
a(I8
I8
tp229
a(I4
I3
tp230
a(I1
I7
tp231
a(I7
I8
tp232
a(I0
I2
tp233
atp234
Rp235
sg15
I9
sg28
g20
((lp236
(I6
I7
tp237
a(I2
I9
tp238
a(I5
I6
tp239
a(I3
I1
tp240
a(I8
I9
tp241
a(I0
I5
tp242
a(I0
I3
tp243
a(I5
I2
tp244
atp245
Rp246
sg13
((I2
I4
tp247
(I8
I5
tp248
(I4
I9
tp249
(I7
I7
tp250
tp251
sg14
I10
sbs(iproblems
RoomID
p252
(dp253
g10
I9
sg11
(I4
I3
tp254
sg13
I4
sg14
I11
sg15
I12
sg16
I7002664860023442459
sb(imulti_robot_problem
MultiRobotState
p255
(dp256
g19
g20
((lp257
(I11
I8
tp258
a(I0
I0
tp259
a(I10
I4
tp260
a(I3
I0
tp261
a(I9
I3
tp262
a(I6
I0
tp263
a(I2
I1
tp264
a(I8
I9
tp265
a(I9
I4
tp266
a(I5
I1
tp267
a(I8
I5
tp268
a(I5
I8
tp269
a(I8
I2
tp270
a(I7
I0
tp271
a(I8
I7
tp272
a(I3
I3
tp273
a(I1
I5
tp274
a(I8
I1
tp275
a(I9
I6
tp276
a(I3
I1
tp277
a(I9
I2
tp278
a(I2
I0
tp279
ag254
a(I2
I2
tp280
a(I9
I5
tp281
a(I5
I2
tp282
a(I2
I4
tp283
atp284
Rp285
sg15
I12
sg28
g20
((lp286
(I0
I1
tp287
a(I10
I8
tp288
a(I2
I8
tp289
a(I3
I10
tp290
a(I10
I6
tp291
a(I6
I2
tp292
a(I3
I7
tp293
a(I7
I8
tp294
a(I7
I9
tp295
atp296
Rp297
sg13
((I9
I7
tp298
(I8
I8
tp299
(I2
I9
tp300
(I1
I7
tp301
tp302
sg14
I11
sbs(iproblems
RoomID
p303
(dp304
g10
I9
sg11
(I3
I0
tp305
sg13
I3
sg14
I9
sg15
I12
sg16
I4912931603392816429
sb(imulti_robot_problem
MultiRobotState
p306
(dp307
g19
g20
((lp308
(I6
I4
tp309
a(I4
I7
tp310
a(I0
I0
tp311
a(I4
I8
tp312
a(I5
I6
tp313
a(I2
I8
tp314
a(I0
I7
tp315
a(I4
I6
tp316
a(I7
I5
tp317
a(I4
I2
tp318
a(I0
I3
tp319
a(I7
I2
tp320
a(I6
I8
tp321
a(I10
I5
tp322
a(I5
I5
tp323
a(I7
I8
tp324
a(I4
I4
tp325
a(I5
I2
tp326
ag305
a(I8
I8
tp327
a(I5
I8
tp328
a(I1
I7
tp329
a(I4
I5
tp330
a(I8
I6
tp331
a(I5
I3
tp332
a(I4
I1
tp333
atp334
Rp335
sg15
I12
sg28
g20
((lp336
(I7
I3
tp337
a(I7
I1
tp338
a(I8
I1
tp339
a(I6
I3
tp340
a(I11
I8
tp341
a(I8
I7
tp342
a(I3
I7
tp343
a(I2
I5
tp344
a(I3
I4
tp345
atp346
Rp347
sg13
((I9
I1
tp348
(I1
I6
tp349
(I8
I4
tp350
tp351
sg14
I9
sbssg131
S'mild_roomset'
p352
sbsg131
g133
sg134
(dp353
g149
((lp354
F25.149999999999977
tp355
sg195
((lp356
F0.40000000000003411
tp357
sg252
((lp358
F0.42999999999994998
tp359
sg303
((lp360
F0.10000000000002274
tp361
ssba(imeasure_core
ProblemSetSolution
p362
(dp363
g3
(imeasure_core
RoomSet
p364
(dp365
g6
(dp366
(iproblems
RoomID
p367
(dp368
g10
I11
sg11
(I7
I9
tp369
sg13
I5
sg14
I12
sg15
I12
sg16
I1164115433906158532
sb(imulti_robot_problem
MultiRobotState
p370
(dp371
g19
g20
((lp372
(I4
I7
tp373
a(I1
I3
tp374
a(I5
I6
tp375
a(I9
I3
tp376
a(I1
I4
tp377
a(I0
I5
tp378
a(I7
I11
tp379
a(I1
I0
tp380
a(I5
I8
tp381
a(I3
I3
tp382
a(I3
I1
tp383
a(I6
I7
tp384
a(I6
I8
tp385
a(I7
I8
tp386
a(I5
I7
tp387
ag369
a(I4
I1
tp388
a(I0
I2
tp389
atp390
Rp391
sg15
I12
sg28
g20
((lp392
(I4
I10
tp393
a(I9
I0
tp394
a(I2
I6
tp395
a(I5
I10
tp396
a(I9
I2
tp397
a(I0
I7
tp398
a(I8
I9
tp399
a(I1
I6
tp400
a(I8
I5
tp401
a(I4
I11
tp402
a(I5
I3
tp403
atp404
Rp405
sg13
((I1
I2
tp406
(I2
I11
tp407
(I2
I0
tp408
(I2
I9
tp409
(I11
I7
tp410
tp411
sg14
I12
sbs(iproblems
RoomID
p412
(dp413
g10
I10
sg11
(I0
I7
tp414
sg13
I7
sg14
I10
sg15
I10
sg16
I8711387064946514083
sb(imulti_robot_problem
MultiRobotState
p415
(dp416
g19
g20
((lp417
(I5
I9
tp418
a(I6
I9
tp419
a(I2
I6
tp420
a(I2
I9
tp421
a(I0
I6
tp422
ag414
a(I1
I5
tp423
a(I8
I8
tp424
a(I0
I5
tp425
a(I4
I3
tp426
a(I0
I4
tp427
a(I0
I3
tp428
a(I9
I7
tp429
a(I0
I2
tp430
a(I7
I9
tp431
atp432
Rp433
sg15
I10
sg28
g20
((lp434
(I9
I0
tp435
a(I3
I3
tp436
a(I7
I1
tp437
a(I8
I1
tp438
a(I9
I8
tp439
a(I4
I4
tp440
a(I9
I9
tp441
a(I3
I6
tp442
a(I1
I7
tp443
a(I8
I6
tp444
atp445
Rp446
sg13
((I1
I1
tp447
(I8
I0
tp448
(I7
I0
tp449
(I2
I5
tp450
(I6
I7
tp451
(I8
I9
tp452
(I5
I8
tp453
tp454
sg14
I10
sbs(iproblems
RoomID
p455
(dp456
g10
I14
sg11
(I5
I10
tp457
sg13
I5
sg14
I12
sg15
I10
sg16
I3872982626502034966
sb(imulti_robot_problem
MultiRobotState
p458
(dp459
g19
g20
((lp460
(I5
I9
tp461
a(I6
I9
tp462
a(I5
I7
tp463
a(I3
I2
tp464
ag457
a(I4
I10
tp465
a(I4
I8
tp466
a(I3
I11
tp467
a(I2
I1
tp468
a(I6
I2
tp469
a(I1
I4
tp470
a(I8
I7
tp471
a(I6
I8
tp472
a(I6
I7
tp473
a(I5
I8
tp474
a(I3
I5
tp475
a(I4
I9
tp476
a(I4
I6
tp477
a(I8
I1
tp478
a(I7
I1
tp479
a(I3
I8
tp480
a(I4
I3
tp481
a(I5
I2
tp482
a(I1
I1
tp483
atp484
Rp485
sg15
I10
sg28
g20
((lp486
(I5
I3
tp487
a(I3
I1
tp488
a(I8
I11
tp489
a(I9
I3
tp490
a(I0
I2
tp491
a(I6
I3
tp492
a(I3
I9
tp493
a(I2
I3
tp494
a(I9
I5
tp495
a(I7
I11
tp496
a(I0
I8
tp497
a(I3
I10
tp498
a(I7
I2
tp499
a(I9
I7
tp500
atp501
Rp502
sg13
((I1
I8
tp503
(I2
I9
tp504
(I1
I9
tp505
(I1
I5
tp506
(I6
I5
tp507
tp508
sg14
I12
sbs(iproblems
RoomID
p509
(dp510
g10
I14
sg11
(I0
I3
tp511
sg13
I7
sg14
I12
sg15
I13
sg16
I7002664860023442459
sb(imulti_robot_problem
MultiRobotState
p512
(dp513
g19
g20
((lp514
(I1
I2
tp515
a(I11
I4
tp516
a(I9
I8
tp517
a(I10
I6
tp518
ag511
a(I0
I8
tp519
a(I10
I3
tp520
a(I0
I1
tp521
a(I10
I5
tp522
a(I10
I7
tp523
a(I7
I8
tp524
a(I9
I9
tp525
a(I0
I9
tp526
a(I9
I5
tp527
a(I3
I4
tp528
a(I0
I2
tp529
a(I11
I6
tp530
a(I9
I7
tp531
atp532
Rp533
sg15
I13
sg28
g20
((lp534
(I6
I4
tp535
a(I11
I9
tp536
a(I4
I6
tp537
a(I2
I9
tp538
a(I5
I9
tp539
a(I12
I2
tp540
a(I3
I1
tp541
a(I3
I11
tp542
a(I10
I10
tp543
a(I7
I4
tp544
a(I0
I0
tp545
a(I11
I5
tp546
a(I2
I5
tp547
a(I12
I9
tp548
atp549
Rp550
sg13
((I2
I10
tp551
(I1
I8
tp552
(I8
I10
tp553
(I7
I2
tp554
(I3
I8
tp555
(I6
I2
tp556
(I7
I9
tp557
tp558
sg14
I12
sbssg131
S'heavy_roomset'
p559
sbsg131
g133
sg134
(dp560
g367
((lp561
F2.1800000000000068
tp562
sg412
((lp563
F14.160000000000025
tp564
sg455
((lp565
F298.92000000000002
tp566
sg509
((lp567
F136.14999999999998
tp568
ssba(imeasure_core
ProblemSetSolution
p569
(dp570
g3
(imeasure_core
RoomSet
p571
(dp572
g6
(dp573
S'complexRoom'
p574
(imulti_robot_problem
MultiRobotState
p575
(dp576
g19
g20
((lp577
(I2
I7
tp578
a(I7
I3
tp579
a(I6
I3
tp580
a(I3
I3
tp581
a(I7
I6
tp582
a(I7
I4
tp583
a(I7
I5
tp584
a(I2
I3
tp585
a(I4
I3
tp586
a(I2
I5
tp587
a(I2
I4
tp588
a(I5
I3
tp589
atp590
Rp591
sg15
I11
sg28
g20
((lp592
(I1
I0
tp593
a(I9
I0
tp594
atp595
Rp596
sg13
((I6
I4
tp597
(I1
I6
tp598
tp599
sg14
I8
sbsS'exampleProblem'
p600
(imulti_robot_problem
MultiRobotState
p601
(dp602
g19
g20
((lp603
tp604
Rp605
sg15
I5
sg28
g20
((lp606
(I1
I3
tp607
a(I3
I1
tp608
a(I1
I1
tp609
a(I3
I3
tp610
atp611
Rp612
sg13
((I2
I2
tp613
tp614
sg14
I5
sbsS'linear_test'
p615
(imulti_robot_problem
MultiRobotState
p616
(dp617
g19
g605
sg15
I12
sg28
g20
((lp618
(I11
I0
tp619
a(I1
I0
tp620
a(I9
I0
tp621
atp622
Rp623
sg13
((I3
I0
tp624
(I1
I2
tp625
tp626
sg14
I7
sbsS'obstacle_Far_CloseTest'
p627
(imulti_robot_problem
MultiRobotState
p628
(dp629
g19
g20
((lp630
(I0
I1
tp631
a(I7
I3
tp632
a(I3
I1
tp633
a(I7
I1
tp634
a(I4
I5
tp635
a(I7
I6
tp636
a(I4
I4
tp637
a(I2
I1
tp638
a(I7
I4
tp639
a(I7
I5
tp640
a(I4
I3
tp641
a(I4
I2
tp642
a(I4
I1
tp643
a(I1
I1
tp644
a(I7
I2
tp645
atp646
Rp647
sg15
I12
sg28
g20
((lp648
(I3
I2
tp649
a(I9
I6
tp650
atp651
Rp652
sg13
((I0
I0
tp653
(I6
I6
tp654
tp655
sg14
I7
sbsS'zigzag'
p656
(imulti_robot_problem
MultiRobotState
p657
(dp658
g19
g20
((lp659
(I1
I2
tp660
a(I3
I2
tp661
a(I1
I3
tp662
a(I3
I0
tp663
a(I3
I1
tp664
a(I5
I1
tp665
a(I5
I2
tp666
a(I1
I1
tp667
a(I5
I3
tp668
atp669
Rp670
sg15
I20
sg28
g20
((lp671
(I6
I3
tp672
atp673
Rp674
sg13
((I0
I3
tp675
(I19
I3
tp676
tp677
sg14
I4
sbsS'room1'
p678
(imulti_robot_problem
MultiRobotState
p679
(dp680
g19
g20
((lp681
(I6
I3
tp682
a(I7
I3
tp683
a(I8
I3
tp684
a(I2
I3
tp685
a(I3
I3
tp686
a(I4
I3
tp687
a(I5
I3
tp688
atp689
Rp690
sg15
I9
sg28
g20
((lp691
(I0
I0
tp692
a(I2
I1
tp693
atp694
Rp695
sg13
((I6
I1
tp696
(I6
I5
tp697
tp698
sg14
I6
sbsS'complexRoom2'
p699
(imulti_robot_problem
MultiRobotState
p700
(dp701
g19
g20
((lp702
(I7
I3
tp703
a(I1
I3
tp704
a(I7
I1
tp705
a(I4
I5
tp706
a(I9
I3
tp707
a(I5
I5
tp708
a(I2
I6
tp709
a(I2
I3
tp710
a(I5
I1
tp711
a(I0
I3
tp712
a(I10
I3
tp713
a(I2
I5
tp714
a(I6
I5
tp715
a(I5
I3
tp716
a(I2
I7
tp717
a(I8
I3
tp718
a(I3
I3
tp719
a(I5
I2
tp720
a(I7
I6
tp721
a(I3
I1
tp722
a(I6
I3
tp723
a(I7
I5
tp724
a(I4
I3
tp725
a(I3
I5
tp726
a(I4
I1
tp727
a(I6
I1
tp728
atp729
Rp730
sg15
I11
sg28
g20
((lp731
(I7
I2
tp732
a(I0
I7
tp733
atp734
Rp735
sg13
((I1
I2
tp736
(I3
I6
tp737
tp738
sg14
I8
sbsS'zigzagUpright'
p739
(imulti_robot_problem
MultiRobotState
p740
(dp741
g19
g20
((lp742
(I1
I3
tp743
a(I3
I1
tp744
a(I2
I1
tp745
a(I1
I1
tp746
a(I1
I5
tp747
a(I2
I3
tp748
a(I2
I5
tp749
a(I0
I3
tp750
a(I3
I5
tp751
atp752
Rp753
sg15
I4
sg28
g20
((lp754
(I3
I6
tp755
atp756
Rp757
sg13
((I3
I0
tp758
(I3
I19
tp759
tp760
sg14
I20
sbsS'ivansRevenge'
p761
(imulti_robot_problem
MultiRobotState
p762
(dp763
g19
g605
sg15
I10
sg28
g20
((lp764
(I9
I2
tp765
a(I0
I0
tp766
atp767
Rp768
sg13
((I9
I0
tp769
(I0
I2
tp770
tp771
sg14
I3
sbsS'roomLongWithObstaccle'
p772
(imulti_robot_problem
MultiRobotState
p773
(dp774
g19
g20
((lp775
(I0
I1
tp776
a(I12
I1
tp777
a(I9
I1
tp778
a(I7
I1
tp779
a(I8
I1
tp780
a(I6
I1
tp781
a(I3
I1
tp782
a(I2
I1
tp783
a(I11
I1
tp784
a(I10
I1
tp785
a(I5
I1
tp786
a(I4
I1
tp787
a(I1
I1
tp788
atp789
Rp790
sg15
I15
sg28
g20
((lp791
(I0
I2
tp792
a(I14
I6
tp793
atp794
Rp795
sg13
((I0
I0
tp796
(I0
I6
tp797
tp798
sg14
I7
sbsS'twoRobotsInOpCorners'
p799
(imulti_robot_problem
MultiRobotState
p800
(dp801
g19
g605
sg15
I5
sg28
g20
((lp802
(I0
I0
tp803
a(I4
I4
tp804
atp805
Rp806
sg13
((I3
I0
tp807
(I0
I3
tp808
tp809
sg14
I5
sbsS'split2'
p810
(imulti_robot_problem
MultiRobotState
p811
(dp812
g19
g605
sg15
I10
sg28
g20
((lp813
(I0
I9
tp814
a(I9
I0
tp815
a(I0
I0
tp816
a(I9
I9
tp817
atp818
Rp819
sg13
((I1
I1
tp820
(I8
I1
tp821
(I4
I5
tp822
(I5
I5
tp823
tp824
sg14
I10
sbsS'split3'
p825
(imulti_robot_problem
MultiRobotState
p826
(dp827
g19
g605
sg15
I10
sg28
g20
((lp828
(I0
I9
tp829
a(I9
I0
tp830
a(I0
I0
tp831
a(I9
I9
tp832
atp833
Rp834
sg13
((I1
I1
tp835
(I8
I1
tp836
(I1
I7
tp837
(I7
I7
tp838
tp839
sg14
I10
sbsS'gaintRoom'
p840
(imulti_robot_problem
MultiRobotState
p841
(dp842
g19
g605
sg15
I5
sg28
g20
((lp843
(I4
I0
tp844
a(I4
I4
tp845
a(I0
I4
tp846
atp847
Rp848
sg13
((I0
I0
tp849
tp850
sg14
I5
sbsS'gaintRoomWithWall'
p851
(imulti_robot_problem
MultiRobotState
p852
(dp853
g19
g20
((lp854
(I2
I4
tp855
atp856
Rp857
sg15
I5
sg28
g20
((lp858
(I4
I0
tp859
a(I4
I4
tp860
a(I0
I4
tp861
atp862
Rp863
sg13
((I0
I0
tp864
tp865
sg14
I5
sbsS'split'
p866
(imulti_robot_problem
MultiRobotState
p867
(dp868
g19
g605
sg15
I10
sg28
g20
((lp869
(I0
I9
tp870
a(I9
I0
tp871
a(I0
I0
tp872
a(I9
I9
tp873
atp874
Rp875
sg13
((I4
I4
tp876
(I5
I4
tp877
(I4
I5
tp878
(I5
I5
tp879
tp880
sg14
I10
sbsS'twoRobots'
p881
(imulti_robot_problem
MultiRobotState
p882
(dp883
g19
g605
sg15
I9
sg28
g20
((lp884
(I8
I0
tp885
a(I0
I0
tp886
atp887
Rp888
sg13
((I2
I0
tp889
(I0
I3
tp890
tp891
sg14
I4
sbssg131
S'static_rooms'
p892
sbsg131
g133
sg134
(dp893
g810
((lp894
F0.25
tp895
sg825
((lp896
F0.12999999999999545
tp897
sg574
((lp898
F0.029999999999972715
tp899
sg840
((lp900
F0.020000000000095497
tp901
sg600
((lp902
F0.0099999999999909051
tp903
sg615
((lp904
F0.0099999999999909051
tp905
sg627
((lp906
F21.410000000000082
tp907
sg881
((lp908
F0.0099999999999909051
tp909
sg851
((lp910
F0.029999999999972715
tp911
sg656
((lp912
F1.4799999999999045
tp913
sg678
((lp914
F0.020000000000095497
tp915
sg699
((lp916
F6.8599999999999
tp917
sg739
((lp918
F2.8000000000000682
tp919
sg761
((lp920
F0.0099999999999909051
tp921
sg772
((lp922
F11.289999999999964
tp923
sg799
((lp924
F0.0099999999999909051
tp925
sg866
((lp926
F0.26999999999998181
tp927
ssba.