(lp0
(imeasure_core
ProblemSetSolution
p1
(dp2
S'roomset'
p3
(imeasure_core
RoomSet
p4
(dp5
S'rooms'
p6
(dp7
(iproblems
RoomID
p8
(dp9
S'dusts'
p10
I6
sS'obstacles'
p11
(I5
I6
tp12
sS'robots'
p13
I5
sS'height'
p14
I10
sS'width'
p15
I10
sS'seed'
p16
I601088376405717203
sb(imulti_robot_problem
MultiRobotState
p17
(dp18
S'obstacle_locations'
p19
c__builtin__
frozenset
p20
((lp21
(I6
I9
tp22
a(I6
I8
tp23
a(I4
I3
tp24
ag12
a(I5
I7
tp25
a(I7
I2
tp26
atp27
Rp28
sg15
I10
sS'dirt_locations'
p29
g20
((lp30
(I5
I9
tp31
a(I8
I8
tp32
a(I0
I5
tp33
a(I2
I2
tp34
a(I2
I5
tp35
a(I7
I7
tp36
atp37
Rp38
sg13
((I7
I9
tp39
(I8
I2
tp40
(I3
I8
tp41
(I3
I6
tp42
(I9
I5
tp43
tp44
sg14
I10
sbs(iproblems
RoomID
p45
(dp46
g10
I5
sg11
(I1
I6
tp47
sg13
I2
sg14
I8
sg15
I10
sg16
I8901691684149767248
sb(imulti_robot_problem
MultiRobotState
p48
(dp49
g19
g20
((lp50
(I3
I2
tp51
a(I4
I3
tp52
a(I9
I2
tp53
a(I1
I5
tp54
ag47
a(I5
I0
tp55
a(I0
I4
tp56
a(I2
I5
tp57
atp58
Rp59
sg15
I10
sg29
g20
((lp60
(I0
I6
tp61
a(I6
I1
tp62
a(I4
I0
tp63
a(I6
I0
tp64
a(I5
I3
tp65
atp66
Rp67
sg13
((I7
I2
tp68
(I3
I0
tp69
tp70
sg14
I8
sbs(iproblems
RoomID
p71
(dp72
g10
I8
sg11
(I5
I4
tp73
sg13
I2
sg14
I7
sg15
I10
sg16
I8533104165445098112
sb(imulti_robot_problem
MultiRobotState
p74
(dp75
g19
g20
((lp76
(I4
I1
tp77
ag73
a(I5
I2
tp78
a(I4
I3
tp79
atp80
Rp81
sg15
I10
sg29
g20
((lp82
(I8
I3
tp83
a(I8
I2
tp84
a(I4
I4
tp85
a(I1
I4
tp86
a(I6
I2
tp87
a(I2
I3
tp88
a(I5
I1
tp89
a(I1
I0
tp90
atp91
Rp92
sg13
((I9
I1
tp93
(I2
I4
tp94
tp95
sg14
I7
sbs(iproblems
RoomID
p96
(dp97
g10
I7
sg11
(I5
I5
tp98
sg13
I2
sg14
I7
sg15
I9
sg16
I273610340023782072
sb(imulti_robot_problem
MultiRobotState
p99
(dp100
g19
g20
((lp101
(I8
I0
tp102
ag98
a(I3
I6
tp103
a(I4
I2
tp104
a(I4
I5
tp105
a(I4
I3
tp106
a(I4
I4
tp107
atp108
Rp109
sg15
I9
sg29
g20
((lp110
(I8
I3
tp111
a(I3
I3
tp112
a(I5
I0
tp113
a(I7
I6
tp114
a(I5
I2
tp115
a(I2
I5
tp116
a(I5
I3
tp117
atp118
Rp119
sg13
((I6
I0
tp120
(I3
I2
tp121
tp122
sg14
I7
sbssS'name'
p123
S'easy_roomset'
p124
sbsg123
S'LimitedTimeAStar_with_PowerHeuristic2'
p125
sS'solutions'
p126
(dp127
g8
((lp128
F1.6399999999994179
tp129
sg45
((lp130
F0.049999999999272404
tp131
sg96
((lp132
F0.049999999999272404
tp133
sg71
((lp134
F0.040000000000873115
tp135
ssba(imeasure_core
ProblemSetSolution
p136
(dp137
g3
(imeasure_core
RoomSet
p138
(dp139
g6
(dp140
(iproblems
RoomID
p141
(dp142
g10
I6
sg11
(I9
I5
tp143
sg13
I4
sg14
I12
sg15
I12
sg16
I601088376405717203
sb(imulti_robot_problem
MultiRobotState
p144
(dp145
g19
g20
((lp146
(I6
I9
tp147
a(I3
I2
tp148
a(I8
I2
tp149
a(I8
I11
tp150
a(I7
I7
tp151
a(I11
I3
tp152
a(I8
I9
tp153
a(I0
I5
tp154
a(I8
I7
tp155
a(I4
I2
tp156
a(I7
I11
tp157
a(I9
I6
tp158
a(I6
I5
tp159
a(I7
I9
tp160
ag143
a(I6
I8
tp161
a(I7
I6
tp162
a(I6
I10
tp163
a(I8
I10
tp164
a(I1
I5
tp165
a(I8
I8
tp166
a(I7
I10
tp167
a(I8
I6
tp168
a(I3
I10
tp169
atp170
Rp171
sg15
I12
sg29
g20
((lp172
(I9
I10
tp173
a(I0
I6
tp174
a(I5
I4
tp175
a(I2
I3
tp176
a(I3
I6
tp177
a(I11
I6
tp178
atp179
Rp180
sg13
((I9
I11
tp181
(I10
I3
tp182
(I4
I10
tp183
(I4
I7
tp184
tp185
sg14
I12
sbs(iproblems
RoomID
p186
(dp187
g10
I7
sg11
(I5
I8
tp188
sg13
I3
sg14
I9
sg15
I11
sg16
I273610340023782072
sb(imulti_robot_problem
MultiRobotState
p189
(dp190
g19
g20
((lp191
(I5
I4
tp192
a(I0
I0
tp193
a(I9
I1
tp194
a(I6
I6
tp195
a(I5
I6
tp196
a(I9
I8
tp197
a(I7
I7
tp198
a(I7
I1
tp199
a(I4
I6
tp200
a(I2
I6
tp201
a(I6
I8
tp202
a(I3
I8
tp203
a(I3
I7
tp204
ag188
a(I4
I0
tp205
a(I10
I8
tp206
a(I5
I5
tp207
a(I5
I2
tp208
a(I4
I4
tp209
a(I4
I8
tp210
a(I8
I8
tp211
a(I7
I2
tp212
a(I4
I3
tp213
a(I0
I4
tp214
a(I3
I5
tp215
a(I7
I8
tp216
a(I1
I1
tp217
atp218
Rp219
sg15
I11
sg29
g20
((lp220
(I6
I4
tp221
a(I10
I5
tp222
a(I7
I5
tp223
a(I1
I8
tp224
a(I10
I2
tp225
a(I9
I0
tp226
a(I6
I0
tp227
atp228
Rp229
sg13
((I7
I0
tp230
(I6
I3
tp231
(I10
I4
tp232
tp233
sg14
I9
sbs(iproblems
RoomID
p234
(dp235
g10
I8
sg11
(I7
I9
tp236
sg13
I4
sg14
I11
sg15
I11
sg16
I9062819402544960089
sb(imulti_robot_problem
MultiRobotState
p237
(dp238
g19
g20
((lp239
(I4
I10
tp240
a(I4
I7
tp241
a(I2
I6
tp242
a(I5
I10
tp243
a(I4
I8
tp244
a(I2
I8
tp245
a(I6
I9
tp246
a(I0
I7
tp247
a(I3
I9
tp248
a(I2
I3
tp249
a(I3
I7
tp250
a(I0
I3
tp251
a(I1
I0
tp252
a(I5
I8
tp253
a(I3
I5
tp254
a(I8
I3
tp255
a(I4
I9
tp256
a(I2
I9
tp257
a(I10
I7
tp258
a(I6
I10
tp259
a(I8
I10
tp260
a(I1
I5
tp261
a(I3
I6
tp262
a(I2
I2
tp263
ag236
a(I7
I8
tp264
a(I2
I4
tp265
a(I9
I7
tp266
atp267
Rp268
sg15
I11
sg29
g20
((lp269
(I1
I2
tp270
a(I2
I7
tp271
a(I7
I0
tp272
a(I6
I8
tp273
a(I9
I2
tp274
a(I1
I8
tp275
a(I4
I3
tp276
a(I4
I6
tp277
atp278
Rp279
sg13
((I7
I6
tp280
(I8
I6
tp281
(I5
I4
tp282
(I9
I1
tp283
tp284
sg14
I11
sbs(iproblems
RoomID
p285
(dp286
g10
I7
sg11
(I2
I7
tp287
sg13
I3
sg14
I9
sg15
I12
sg16
I5119352552216246391
sb(imulti_robot_problem
MultiRobotState
p288
(dp289
g19
g20
((lp290
(I4
I7
tp291
a(I2
I6
tp292
a(I11
I4
tp293
a(I7
I7
tp294
a(I4
I6
tp295
a(I4
I2
tp296
a(I2
I5
tp297
a(I6
I5
tp298
a(I5
I3
tp299
ag287
a(I10
I5
tp300
a(I3
I1
tp301
a(I6
I7
tp302
a(I5
I5
tp303
a(I3
I4
tp304
a(I7
I6
tp305
a(I4
I4
tp306
a(I8
I8
tp307
a(I4
I3
tp308
a(I1
I7
tp309
a(I3
I3
tp310
a(I7
I8
tp311
a(I8
I4
tp312
atp313
Rp314
sg15
I12
sg29
g20
((lp315
(I0
I1
tp316
a(I6
I2
tp317
a(I4
I8
tp318
a(I3
I7
tp319
a(I8
I6
tp320
a(I10
I0
tp321
a(I5
I8
tp322
atp323
Rp324
sg13
((I11
I1
tp325
(I0
I0
tp326
(I6
I4
tp327
tp328
sg14
I9
sbssg123
S'mild_roomset'
p329
sbsg123
g125
sg126
(dp330
g141
((lp331
F0.36000000000058208
tp332
sg186
((lp333
F300.28000000000065
tp334
sg234
((lp335
F184.27999999999884
tp336
sg285
((lp337
F0.34000000000014552
tp338
ssba(imeasure_core
ProblemSetSolution
p339
(dp340
g3
(imeasure_core
RoomSet
p341
(dp342
g6
(dp343
(iproblems
RoomID
p344
(dp345
g10
I11
sg11
(I5
I2
tp346
sg13
I7
sg14
I13
sg15
I13
sg16
I601088376405717203
sb(imulti_robot_problem
MultiRobotState
p347
(dp348
g19
g20
((lp349
(I9
I3
tp350
a(I7
I10
tp351
a(I8
I11
tp352
a(I8
I0
tp353
a(I8
I3
tp354
a(I12
I5
tp355
a(I6
I2
tp356
a(I8
I5
tp357
a(I7
I2
tp358
a(I10
I4
tp359
a(I0
I1
tp360
a(I11
I7
tp361
a(I9
I0
tp362
a(I7
I0
tp363
a(I8
I12
tp364
a(I6
I1
tp365
a(I3
I1
tp366
a(I8
I8
tp367
a(I5
I0
tp368
a(I7
I9
tp369
ag346
a(I10
I2
tp370
atp371
Rp372
sg15
I13
sg29
g20
((lp373
(I3
I2
tp374
a(I5
I5
tp375
a(I0
I6
tp376
a(I9
I2
tp377
a(I9
I9
tp378
a(I0
I7
tp379
a(I3
I11
tp380
a(I1
I5
tp381
a(I2
I3
tp382
a(I7
I11
tp383
a(I4
I2
tp384
atp385
Rp386
sg13
((I9
I12
tp387
(I11
I3
tp388
(I4
I11
tp389
(I4
I8
tp390
(I12
I7
tp391
(I3
I7
tp392
(I10
I10
tp393
tp394
sg14
I13
sbs(iproblems
RoomID
p395
(dp396
g10
I10
sg11
(I1
I8
tp397
sg13
I6
sg14
I11
sg15
I13
sg16
I8901691684149767248
sb(imulti_robot_problem
MultiRobotState
p398
(dp399
g19
g20
((lp400
(I1
I2
tp401
a(I12
I2
tp402
a(I2
I6
tp403
a(I6
I8
tp404
a(I4
I8
tp405
a(I11
I2
tp406
a(I11
I0
tp407
ag397
a(I12
I4
tp408
a(I1
I6
tp409
a(I1
I7
tp410
a(I0
I5
tp411
a(I2
I5
tp412
a(I4
I1
tp413
atp414
Rp415
sg15
I13
sg29
g20
((lp416
(I8
I2
tp417
a(I10
I10
tp418
a(I8
I1
tp419
a(I6
I0
tp420
a(I11
I3
tp421
a(I0
I6
tp422
a(I8
I8
tp423
a(I4
I3
tp424
a(I8
I6
tp425
a(I3
I6
tp426
atp427
Rp428
sg13
((I10
I2
tp429
(I4
I0
tp430
(I8
I0
tp431
(I5
I0
tp432
(I6
I4
tp433
(I0
I9
tp434
tp435
sg14
I11
sbs(iproblems
RoomID
p436
(dp437
g10
I12
sg11
(I3
I9
tp438
sg13
I6
sg14
I10
sg15
I12
sg16
I273610340023782072
sb(imulti_robot_problem
MultiRobotState
p439
(dp440
g19
g20
((lp441
(I6
I4
tp442
a(I5
I4
tp443
a(I2
I6
tp444
a(I6
I6
tp445
a(I0
I7
tp446
a(I4
I6
tp447
a(I0
I0
tp448
a(I8
I7
tp449
a(I3
I7
tp450
a(I7
I2
tp451
a(I7
I9
tp452
a(I2
I7
tp453
a(I5
I5
tp454
a(I8
I1
tp455
a(I7
I6
tp456
a(I4
I8
tp457
ag438
a(I6
I5
tp458
a(I5
I0
tp459
a(I0
I4
tp460
a(I5
I3
tp461
a(I7
I8
tp462
atp463
Rp464
sg15
I12
sg29
g20
((lp465
(I4
I9
tp466
a(I7
I1
tp467
a(I4
I5
tp468
a(I11
I3
tp469
a(I6
I3
tp470
a(I11
I6
tp471
a(I10
I1
tp472
a(I10
I0
tp473
a(I8
I6
tp474
a(I1
I1
tp475
a(I10
I9
tp476
a(I1
I9
tp477
atp478
Rp479
sg13
((I8
I0
tp480
(I4
I4
tp481
(I11
I5
tp482
(I5
I6
tp483
(I7
I0
tp484
(I3
I8
tp485
tp486
sg14
I10
sbs(iproblems
RoomID
p487
(dp488
g10
I13
sg11
(I3
I8
tp489
sg13
I5
sg14
I10
sg15
I13
sg16
I8533104165445098112
sb(imulti_robot_problem
MultiRobotState
p490
(dp491
g19
g20
((lp492
(I6
I3
tp493
a(I5
I4
tp494
a(I6
I8
tp495
a(I6
I6
tp496
a(I5
I2
tp497
a(I4
I7
tp498
ag489
a(I0
I6
tp499
a(I3
I6
tp500
a(I3
I4
tp501
a(I0
I3
tp502
a(I3
I5
tp503
a(I4
I1
tp504
a(I6
I5
tp505
a(I5
I3
tp506
atp507
Rp508
sg15
I13
sg29
g20
((lp509
(I7
I3
tp510
a(I8
I3
tp511
a(I10
I4
tp512
a(I2
I0
tp513
a(I11
I8
tp514
a(I9
I6
tp515
a(I9
I8
tp516
a(I12
I6
tp517
a(I3
I0
tp518
a(I8
I9
tp519
a(I1
I5
tp520
a(I7
I5
tp521
a(I10
I3
tp522
atp523
Rp524
sg13
((I11
I1
tp525
(I1
I6
tp526
(I2
I4
tp527
(I11
I4
tp528
(I7
I2
tp529
tp530
sg14
I10
sbssg123
S'heavy_roomset'
p531
sbsg123
g125
sg126
(dp532
g344
((lp533
F306.77000000000044
tp534
sg395
((lp535
F302.27000000000044
tp536
sg436
((lp537
F6.9899999999997817
tp538
sg487
((lp539
F5.4499999999989086
tp540
ssba(imeasure_core
ProblemSetSolution
p541
(dp542
g3
(imeasure_core
RoomSet
p543
(dp544
g6
(dp545
S'complexRoom'
p546
(imulti_robot_problem
MultiRobotState
p547
(dp548
g19
g20
((lp549
(I2
I7
tp550
a(I7
I3
tp551
a(I6
I3
tp552
a(I3
I3
tp553
a(I7
I6
tp554
a(I7
I4
tp555
a(I7
I5
tp556
a(I2
I3
tp557
a(I4
I3
tp558
a(I2
I5
tp559
a(I2
I4
tp560
a(I5
I3
tp561
atp562
Rp563
sg15
I11
sg29
g20
((lp564
(I1
I0
tp565
a(I9
I0
tp566
atp567
Rp568
sg13
((I6
I4
tp569
(I1
I6
tp570
tp571
sg14
I8
sbsS'exampleProblem'
p572
(imulti_robot_problem
MultiRobotState
p573
(dp574
g19
g20
((lp575
tp576
Rp577
sg15
I5
sg29
g20
((lp578
(I1
I3
tp579
a(I3
I1
tp580
a(I1
I1
tp581
a(I3
I3
tp582
atp583
Rp584
sg13
((I2
I2
tp585
tp586
sg14
I5
sbsS'linear_test'
p587
(imulti_robot_problem
MultiRobotState
p588
(dp589
g19
g577
sg15
I12
sg29
g20
((lp590
(I11
I0
tp591
a(I1
I0
tp592
a(I9
I0
tp593
atp594
Rp595
sg13
((I3
I0
tp596
(I1
I2
tp597
tp598
sg14
I7
sbsS'obstacle_Far_CloseTest'
p599
(imulti_robot_problem
MultiRobotState
p600
(dp601
g19
g20
((lp602
(I0
I1
tp603
a(I7
I3
tp604
a(I3
I1
tp605
a(I7
I1
tp606
a(I4
I5
tp607
a(I7
I6
tp608
a(I4
I4
tp609
a(I2
I1
tp610
a(I7
I4
tp611
a(I7
I5
tp612
a(I4
I3
tp613
a(I4
I2
tp614
a(I4
I1
tp615
a(I1
I1
tp616
a(I7
I2
tp617
atp618
Rp619
sg15
I12
sg29
g20
((lp620
(I3
I2
tp621
a(I9
I6
tp622
atp623
Rp624
sg13
((I0
I0
tp625
(I6
I6
tp626
tp627
sg14
I7
sbsS'zigzag'
p628
(imulti_robot_problem
MultiRobotState
p629
(dp630
g19
g20
((lp631
(I1
I2
tp632
a(I3
I2
tp633
a(I1
I3
tp634
a(I3
I0
tp635
a(I3
I1
tp636
a(I5
I1
tp637
a(I5
I2
tp638
a(I1
I1
tp639
a(I5
I3
tp640
atp641
Rp642
sg15
I20
sg29
g20
((lp643
(I6
I3
tp644
atp645
Rp646
sg13
((I0
I3
tp647
(I19
I3
tp648
tp649
sg14
I4
sbsS'room1'
p650
(imulti_robot_problem
MultiRobotState
p651
(dp652
g19
g20
((lp653
(I6
I3
tp654
a(I7
I3
tp655
a(I8
I3
tp656
a(I2
I3
tp657
a(I3
I3
tp658
a(I4
I3
tp659
a(I5
I3
tp660
atp661
Rp662
sg15
I9
sg29
g20
((lp663
(I0
I0
tp664
a(I2
I1
tp665
atp666
Rp667
sg13
((I6
I1
tp668
(I6
I5
tp669
tp670
sg14
I6
sbsS'complexRoom2'
p671
(imulti_robot_problem
MultiRobotState
p672
(dp673
g19
g20
((lp674
(I7
I3
tp675
a(I1
I3
tp676
a(I7
I1
tp677
a(I4
I5
tp678
a(I9
I3
tp679
a(I5
I5
tp680
a(I2
I6
tp681
a(I2
I3
tp682
a(I5
I1
tp683
a(I0
I3
tp684
a(I10
I3
tp685
a(I2
I5
tp686
a(I6
I5
tp687
a(I5
I3
tp688
a(I2
I7
tp689
a(I8
I3
tp690
a(I3
I3
tp691
a(I5
I2
tp692
a(I7
I6
tp693
a(I3
I1
tp694
a(I6
I3
tp695
a(I7
I5
tp696
a(I4
I3
tp697
a(I3
I5
tp698
a(I4
I1
tp699
a(I6
I1
tp700
atp701
Rp702
sg15
I11
sg29
g20
((lp703
(I7
I2
tp704
a(I0
I7
tp705
atp706
Rp707
sg13
((I1
I2
tp708
(I3
I6
tp709
tp710
sg14
I8
sbsS'zigzagUpright'
p711
(imulti_robot_problem
MultiRobotState
p712
(dp713
g19
g20
((lp714
(I1
I3
tp715
a(I3
I1
tp716
a(I2
I1
tp717
a(I1
I1
tp718
a(I1
I5
tp719
a(I2
I3
tp720
a(I2
I5
tp721
a(I0
I3
tp722
a(I3
I5
tp723
atp724
Rp725
sg15
I4
sg29
g20
((lp726
(I3
I6
tp727
atp728
Rp729
sg13
((I3
I0
tp730
(I3
I19
tp731
tp732
sg14
I20
sbsS'ivansRevenge'
p733
(imulti_robot_problem
MultiRobotState
p734
(dp735
g19
g577
sg15
I10
sg29
g20
((lp736
(I9
I2
tp737
a(I0
I0
tp738
atp739
Rp740
sg13
((I9
I0
tp741
(I0
I2
tp742
tp743
sg14
I3
sbsS'roomLongWithObstaccle'
p744
(imulti_robot_problem
MultiRobotState
p745
(dp746
g19
g20
((lp747
(I0
I1
tp748
a(I12
I1
tp749
a(I9
I1
tp750
a(I7
I1
tp751
a(I8
I1
tp752
a(I6
I1
tp753
a(I3
I1
tp754
a(I2
I1
tp755
a(I11
I1
tp756
a(I10
I1
tp757
a(I5
I1
tp758
a(I4
I1
tp759
a(I1
I1
tp760
atp761
Rp762
sg15
I15
sg29
g20
((lp763
(I0
I2
tp764
a(I14
I6
tp765
atp766
Rp767
sg13
((I0
I0
tp768
(I0
I6
tp769
tp770
sg14
I7
sbsS'twoRobotsInOpCorners'
p771
(imulti_robot_problem
MultiRobotState
p772
(dp773
g19
g577
sg15
I5
sg29
g20
((lp774
(I0
I0
tp775
a(I4
I4
tp776
atp777
Rp778
sg13
((I3
I0
tp779
(I0
I3
tp780
tp781
sg14
I5
sbsS'split2'
p782
(imulti_robot_problem
MultiRobotState
p783
(dp784
g19
g577
sg15
I10
sg29
g20
((lp785
(I0
I9
tp786
a(I9
I0
tp787
a(I0
I0
tp788
a(I9
I9
tp789
atp790
Rp791
sg13
((I1
I1
tp792
(I8
I1
tp793
(I4
I5
tp794
(I5
I5
tp795
tp796
sg14
I10
sbsS'split3'
p797
(imulti_robot_problem
MultiRobotState
p798
(dp799
g19
g577
sg15
I10
sg29
g20
((lp800
(I0
I9
tp801
a(I9
I0
tp802
a(I0
I0
tp803
a(I9
I9
tp804
atp805
Rp806
sg13
((I1
I1
tp807
(I8
I1
tp808
(I1
I7
tp809
(I7
I7
tp810
tp811
sg14
I10
sbsS'gaintRoom'
p812
(imulti_robot_problem
MultiRobotState
p813
(dp814
g19
g577
sg15
I5
sg29
g20
((lp815
(I4
I0
tp816
a(I4
I4
tp817
a(I0
I4
tp818
atp819
Rp820
sg13
((I0
I0
tp821
tp822
sg14
I5
sbsS'gaintRoomWithWall'
p823
(imulti_robot_problem
MultiRobotState
p824
(dp825
g19
g20
((lp826
(I2
I4
tp827
atp828
Rp829
sg15
I5
sg29
g20
((lp830
(I4
I0
tp831
a(I4
I4
tp832
a(I0
I4
tp833
atp834
Rp835
sg13
((I0
I0
tp836
tp837
sg14
I5
sbsS'split'
p838
(imulti_robot_problem
MultiRobotState
p839
(dp840
g19
g577
sg15
I10
sg29
g20
((lp841
(I0
I9
tp842
a(I9
I0
tp843
a(I0
I0
tp844
a(I9
I9
tp845
atp846
Rp847
sg13
((I4
I4
tp848
(I5
I4
tp849
(I4
I5
tp850
(I5
I5
tp851
tp852
sg14
I10
sbsS'twoRobots'
p853
(imulti_robot_problem
MultiRobotState
p854
(dp855
g19
g577
sg15
I9
sg29
g20
((lp856
(I8
I0
tp857
a(I0
I0
tp858
atp859
Rp860
sg13
((I2
I0
tp861
(I0
I3
tp862
tp863
sg14
I4
sbssg123
S'static_rooms'
p864
sbsg123
g125
sg126
(dp865
g782
((lp866
F0.25
tp867
sg797
((lp868
F0.13000000000101863
tp869
sg546
((lp870
F0.030000000000654836
tp871
sg812
((lp872
F0.020000000000436557
tp873
sg572
((lp874
F0.010000000000218279
tp875
sg587
((lp876
F0.010000000000218279
tp877
sg599
((lp878
F21.289999999999054
tp879
sg853
((lp880
F0.010000000000218279
tp881
sg823
((lp882
F0.029999999998835847
tp883
sg628
((lp884
F1.4700000000011642
tp885
sg650
((lp886
F0.019999999998617568
tp887
sg671
((lp888
F6.8700000000008004
tp889
sg711
((lp890
F2.8299999999999272
tp891
sg733
((lp892
F0.0
tp893
sg744
((lp894
F11.450000000000728
tp895
sg771
((lp896
F0.0099999999983992893
tp897
sg838
((lp898
F0.26000000000021828
tp899
ssba.