(lp0
(imeasure_core
ProblemSetSolution
p1
(dp2
S'roomset'
p3
(imeasure_core
RoomSet
p4
(dp5
S'rooms'
p6
(dp7
(iproblems
RoomID
p8
(dp9
S'dusts'
p10
I6
sS'obstacles'
p11
(I0
I4
tp12
sS'robots'
p13
I1
sS'height'
p14
I9
sS'width'
p15
I9
sS'seed'
p16
I1164115433906158532
sb(imulti_robot_problem
MultiRobotState
p17
(dp18
S'obstacle_locations'
p19
c__builtin__
frozenset
p20
((lp21
(I0
I1
tp22
a(I1
I2
tp23
a(I1
I3
tp24
a(I1
I4
tp25
ag12
atp26
Rp27
sg15
I9
sS'dirt_locations'
p28
g20
((lp29
(I6
I4
tp30
a(I1
I8
tp31
a(I1
I6
tp32
a(I1
I0
tp33
a(I8
I5
tp34
a(I3
I5
tp35
atp36
Rp37
sg13
((I4
I5
tp38
tp39
sg14
I9
sbs(iproblems
RoomID
p40
(dp41
g10
I8
sg11
(I6
I5
tp42
sg13
I5
sg14
I8
sg15
I7
sg16
I2175216119781798972
sb(imulti_robot_problem
MultiRobotState
p43
(dp44
g19
g20
((lp45
(I1
I2
tp46
a(I2
I6
tp47
a(I6
I7
tp48
a(I6
I6
tp49
a(I5
I7
tp50
a(I2
I3
tp51
a(I0
I4
tp52
a(I1
I0
tp53
ag42
atp54
Rp55
sg15
I7
sg28
g20
((lp56
(I5
I4
tp57
a(I5
I5
tp58
a(I4
I4
tp59
a(I0
I6
tp60
a(I0
I5
tp61
a(I1
I7
tp62
a(I4
I2
tp63
a(I0
I2
tp64
atp65
Rp66
sg13
((I1
I3
tp67
(I6
I4
tp68
(I3
I7
tp69
(I6
I0
tp70
(I2
I1
tp71
tp72
sg14
I8
sbs(iproblems
RoomID
p73
(dp74
g10
I5
sg11
(I0
I4
tp75
sg13
I5
sg14
I7
sg15
I7
sg16
I8711387064946514083
sb(imulti_robot_problem
MultiRobotState
p76
(dp77
g19
g20
((lp78
(I0
I1
tp79
a(I2
I2
tp80
a(I0
I2
tp81
a(I1
I5
tp82
ag75
a(I0
I3
tp83
a(I2
I4
tp84
a(I6
I5
tp85
atp86
Rp87
sg15
I7
sg28
g20
((lp88
(I5
I6
tp89
a(I6
I4
tp90
a(I3
I2
tp91
a(I6
I1
tp92
a(I6
I6
tp93
atp94
Rp95
sg13
((I1
I1
tp96
(I6
I0
tp97
(I5
I0
tp98
(I1
I3
tp99
(I4
I5
tp100
tp101
sg14
I7
sbs(iproblems
RoomID
p102
(dp103
g10
I9
sg11
(I6
I3
tp104
sg13
I4
sg14
I9
sg15
I10
sg16
I7002664860023442459
sb(imulti_robot_problem
MultiRobotState
p105
(dp106
g19
g20
((lp107
(I7
I4
tp108
a(I7
I3
tp109
ag104
a(I6
I5
tp110
a(I9
I7
tp111
atp112
Rp113
sg15
I10
sg28
g20
((lp114
(I0
I0
tp115
a(I6
I8
tp116
a(I2
I8
tp117
a(I5
I7
tp118
a(I2
I6
tp119
a(I4
I2
tp120
a(I5
I1
tp121
a(I8
I6
tp122
a(I8
I4
tp123
atp124
Rp125
sg13
((I7
I5
tp126
(I7
I6
tp127
(I1
I7
tp128
(I1
I6
tp129
tp130
sg14
I9
sbssS'name'
p131
S'easy_roomset'
p132
sbsg131
S"AnytimeBeam-w4-gf(2, 'lin')_with_PowerHeuristic2"
p133
sS'solutions'
p134
(dp135
g8
((lp136
(F0.38338494300842285
I50
tp137
a(F0.52480506896972656
I44
tp138
a(F0.66352105140686035
I42
tp139
a(F16.741777896881104
I36
tp140
a(F24.136209011077881
I34
tp141
a(F33.860342979431152
I32
tp142
a(F35.065363883972168
I30
tp143
a(F36.115010976791382
I28
tp144
aF39.899999999999636
tp145
sg40
((lp146
(F0.90789413452148438
I5
tp147
aF40.029999999998836
tp148
sg73
((lp149
(F0.48373985290527344
I4
tp150
aF39.990000000001601
tp151
sg102
((lp152
F39.909999999999854
tp153
ssba(imeasure_core
ProblemSetSolution
p154
(dp155
g3
(imeasure_core
RoomSet
p156
(dp157
g6
(dp158
(iproblems
RoomID
p159
(dp160
g10
I6
sg11
(I5
I5
tp161
sg13
I3
sg14
I11
sg15
I11
sg16
I1164115433906158532
sb(imulti_robot_problem
MultiRobotState
p162
(dp163
g19
g20
((lp164
(I5
I4
tp165
a(I1
I3
tp166
a(I4
I3
tp167
a(I4
I8
tp168
a(I3
I0
tp169
a(I8
I0
tp170
a(I3
I2
tp171
a(I0
I7
tp172
a(I2
I1
tp173
a(I3
I9
tp174
a(I0
I5
tp175
a(I1
I4
tp176
a(I3
I7
tp177
a(I2
I5
tp178
a(I5
I3
tp179
a(I8
I3
tp180
a(I3
I1
tp181
ag161
a(I2
I0
tp182
a(I3
I10
tp183
a(I6
I10
tp184
a(I0
I6
tp185
a(I1
I8
tp186
a(I3
I6
tp187
a(I4
I5
tp188
a(I0
I2
tp189
atp190
Rp191
sg15
I11
sg28
g20
((lp192
(I7
I5
tp193
a(I8
I8
tp194
a(I4
I9
tp195
a(I4
I6
tp196
a(I10
I6
tp197
a(I8
I2
tp198
atp199
Rp200
sg13
((I5
I7
tp201
(I2
I10
tp202
(I2
I8
tp203
tp204
sg14
I11
sbs(iproblems
RoomID
p205
(dp206
g10
I8
sg11
(I5
I4
tp207
sg13
I4
sg14
I10
sg15
I9
sg16
I2175216119781798972
sb(imulti_robot_problem
MultiRobotState
p208
(dp209
g19
g20
((lp210
(I6
I6
tp211
a(I2
I8
tp212
a(I0
I7
tp213
a(I6
I2
tp214
a(I1
I6
tp215
a(I2
I5
tp216
a(I5
I5
tp217
a(I8
I1
tp218
a(I7
I6
tp219
a(I6
I3
tp220
a(I2
I2
tp221
a(I8
I6
tp222
a(I6
I4
tp223
ag207
a(I8
I2
tp224
a(I7
I1
tp225
a(I1
I4
tp226
a(I7
I5
tp227
a(I8
I7
tp228
a(I1
I0
tp229
a(I6
I5
tp230
a(I3
I3
tp231
a(I8
I3
tp232
a(I7
I0
tp233
a(I6
I8
tp234
a(I3
I4
tp235
a(I7
I4
tp236
a(I0
I6
tp237
a(I1
I8
tp238
a(I8
I8
tp239
a(I4
I3
tp240
a(I1
I7
tp241
a(I7
I8
tp242
a(I0
I2
tp243
atp244
Rp245
sg15
I9
sg28
g20
((lp246
(I6
I7
tp247
a(I2
I9
tp248
a(I5
I6
tp249
a(I3
I1
tp250
a(I8
I9
tp251
a(I0
I5
tp252
a(I0
I3
tp253
a(I5
I2
tp254
atp255
Rp256
sg13
((I2
I4
tp257
(I8
I5
tp258
(I4
I9
tp259
(I7
I7
tp260
tp261
sg14
I10
sbs(iproblems
RoomID
p262
(dp263
g10
I9
sg11
(I3
I0
tp264
sg13
I3
sg14
I9
sg15
I12
sg16
I4912931603392816429
sb(imulti_robot_problem
MultiRobotState
p265
(dp266
g19
g20
((lp267
(I6
I4
tp268
a(I4
I7
tp269
a(I0
I0
tp270
a(I4
I8
tp271
a(I5
I6
tp272
a(I2
I8
tp273
a(I0
I7
tp274
a(I4
I6
tp275
a(I7
I5
tp276
a(I4
I2
tp277
a(I0
I3
tp278
a(I7
I2
tp279
a(I6
I8
tp280
a(I10
I5
tp281
a(I5
I5
tp282
a(I7
I8
tp283
a(I4
I4
tp284
a(I5
I2
tp285
ag264
a(I8
I8
tp286
a(I5
I8
tp287
a(I1
I7
tp288
a(I4
I5
tp289
a(I8
I6
tp290
a(I5
I3
tp291
a(I4
I1
tp292
atp293
Rp294
sg15
I12
sg28
g20
((lp295
(I7
I3
tp296
a(I7
I1
tp297
a(I8
I1
tp298
a(I6
I3
tp299
a(I11
I8
tp300
a(I8
I7
tp301
a(I3
I7
tp302
a(I2
I5
tp303
a(I3
I4
tp304
atp305
Rp306
sg13
((I9
I1
tp307
(I1
I6
tp308
(I8
I4
tp309
tp310
sg14
I9
sbs(iproblems
RoomID
p311
(dp312
g10
I9
sg11
(I4
I3
tp313
sg13
I4
sg14
I11
sg15
I12
sg16
I7002664860023442459
sb(imulti_robot_problem
MultiRobotState
p314
(dp315
g19
g20
((lp316
(I11
I8
tp317
a(I0
I0
tp318
a(I10
I4
tp319
a(I3
I0
tp320
a(I9
I3
tp321
a(I6
I0
tp322
a(I2
I1
tp323
a(I8
I9
tp324
a(I9
I4
tp325
a(I5
I1
tp326
a(I8
I5
tp327
a(I5
I8
tp328
a(I8
I2
tp329
a(I7
I0
tp330
a(I8
I7
tp331
a(I3
I3
tp332
a(I1
I5
tp333
a(I8
I1
tp334
a(I9
I6
tp335
a(I3
I1
tp336
a(I9
I2
tp337
a(I2
I0
tp338
ag313
a(I2
I2
tp339
a(I9
I5
tp340
a(I5
I2
tp341
a(I2
I4
tp342
atp343
Rp344
sg15
I12
sg28
g20
((lp345
(I0
I1
tp346
a(I10
I8
tp347
a(I2
I8
tp348
a(I3
I10
tp349
a(I10
I6
tp350
a(I6
I2
tp351
a(I3
I7
tp352
a(I7
I8
tp353
a(I7
I9
tp354
atp355
Rp356
sg13
((I9
I7
tp357
(I8
I8
tp358
(I2
I9
tp359
(I1
I7
tp360
tp361
sg14
I11
sbssg131
S'mild_roomset'
p362
sbsg131
g133
sg134
(dp363
g159
((lp364
F39.909999999999854
tp365
sg205
((lp366
F39.920000000000073
tp367
sg262
((lp368
F39.909999999999854
tp369
sg311
((lp370
F39.920000000000073
tp371
ssba(imeasure_core
ProblemSetSolution
p372
(dp373
g3
(imeasure_core
RoomSet
p374
(dp375
g6
(dp376
(iproblems
RoomID
p377
(dp378
g10
I11
sg11
(I7
I9
tp379
sg13
I5
sg14
I12
sg15
I12
sg16
I1164115433906158532
sb(imulti_robot_problem
MultiRobotState
p380
(dp381
g19
g20
((lp382
(I4
I7
tp383
a(I1
I3
tp384
a(I5
I6
tp385
a(I9
I3
tp386
a(I1
I4
tp387
a(I0
I5
tp388
a(I7
I11
tp389
a(I1
I0
tp390
a(I5
I8
tp391
a(I3
I3
tp392
a(I3
I1
tp393
a(I6
I7
tp394
a(I6
I8
tp395
a(I7
I8
tp396
a(I5
I7
tp397
ag379
a(I4
I1
tp398
a(I0
I2
tp399
atp400
Rp401
sg15
I12
sg28
g20
((lp402
(I4
I10
tp403
a(I9
I0
tp404
a(I2
I6
tp405
a(I5
I10
tp406
a(I9
I2
tp407
a(I0
I7
tp408
a(I8
I9
tp409
a(I1
I6
tp410
a(I8
I5
tp411
a(I4
I11
tp412
a(I5
I3
tp413
atp414
Rp415
sg13
((I1
I2
tp416
(I2
I11
tp417
(I2
I0
tp418
(I2
I9
tp419
(I11
I7
tp420
tp421
sg14
I12
sbs(iproblems
RoomID
p422
(dp423
g10
I10
sg11
(I0
I7
tp424
sg13
I7
sg14
I10
sg15
I10
sg16
I8711387064946514083
sb(imulti_robot_problem
MultiRobotState
p425
(dp426
g19
g20
((lp427
(I5
I9
tp428
a(I6
I9
tp429
a(I2
I6
tp430
a(I2
I9
tp431
a(I0
I6
tp432
ag424
a(I1
I5
tp433
a(I8
I8
tp434
a(I0
I5
tp435
a(I4
I3
tp436
a(I0
I4
tp437
a(I0
I3
tp438
a(I9
I7
tp439
a(I0
I2
tp440
a(I7
I9
tp441
atp442
Rp443
sg15
I10
sg28
g20
((lp444
(I9
I0
tp445
a(I3
I3
tp446
a(I7
I1
tp447
a(I8
I1
tp448
a(I9
I8
tp449
a(I4
I4
tp450
a(I9
I9
tp451
a(I3
I6
tp452
a(I1
I7
tp453
a(I8
I6
tp454
atp455
Rp456
sg13
((I1
I1
tp457
(I8
I0
tp458
(I7
I0
tp459
(I2
I5
tp460
(I6
I7
tp461
(I8
I9
tp462
(I5
I8
tp463
tp464
sg14
I10
sbs(iproblems
RoomID
p465
(dp466
g10
I14
sg11
(I0
I3
tp467
sg13
I7
sg14
I12
sg15
I13
sg16
I7002664860023442459
sb(imulti_robot_problem
MultiRobotState
p468
(dp469
g19
g20
((lp470
(I1
I2
tp471
a(I11
I4
tp472
a(I9
I8
tp473
a(I10
I6
tp474
ag467
a(I0
I8
tp475
a(I10
I3
tp476
a(I0
I1
tp477
a(I10
I5
tp478
a(I10
I7
tp479
a(I7
I8
tp480
a(I9
I9
tp481
a(I0
I9
tp482
a(I9
I5
tp483
a(I3
I4
tp484
a(I0
I2
tp485
a(I11
I6
tp486
a(I9
I7
tp487
atp488
Rp489
sg15
I13
sg28
g20
((lp490
(I6
I4
tp491
a(I11
I9
tp492
a(I4
I6
tp493
a(I2
I9
tp494
a(I5
I9
tp495
a(I12
I2
tp496
a(I3
I1
tp497
a(I3
I11
tp498
a(I10
I10
tp499
a(I7
I4
tp500
a(I0
I0
tp501
a(I11
I5
tp502
a(I2
I5
tp503
a(I12
I9
tp504
atp505
Rp506
sg13
((I2
I10
tp507
(I1
I8
tp508
(I8
I10
tp509
(I7
I2
tp510
(I3
I8
tp511
(I6
I2
tp512
(I7
I9
tp513
tp514
sg14
I12
sbs(iproblems
RoomID
p515
(dp516
g10
I14
sg11
(I5
I10
tp517
sg13
I5
sg14
I12
sg15
I10
sg16
I3872982626502034966
sb(imulti_robot_problem
MultiRobotState
p518
(dp519
g19
g20
((lp520
(I5
I9
tp521
a(I6
I9
tp522
a(I5
I7
tp523
a(I3
I2
tp524
ag517
a(I4
I10
tp525
a(I4
I8
tp526
a(I3
I11
tp527
a(I2
I1
tp528
a(I6
I2
tp529
a(I1
I4
tp530
a(I8
I7
tp531
a(I6
I8
tp532
a(I6
I7
tp533
a(I5
I8
tp534
a(I3
I5
tp535
a(I4
I9
tp536
a(I4
I6
tp537
a(I8
I1
tp538
a(I7
I1
tp539
a(I3
I8
tp540
a(I4
I3
tp541
a(I5
I2
tp542
a(I1
I1
tp543
atp544
Rp545
sg15
I10
sg28
g20
((lp546
(I5
I3
tp547
a(I3
I1
tp548
a(I8
I11
tp549
a(I9
I3
tp550
a(I0
I2
tp551
a(I6
I3
tp552
a(I3
I9
tp553
a(I2
I3
tp554
a(I9
I5
tp555
a(I7
I11
tp556
a(I0
I8
tp557
a(I3
I10
tp558
a(I7
I2
tp559
a(I9
I7
tp560
atp561
Rp562
sg13
((I1
I8
tp563
(I2
I9
tp564
(I1
I9
tp565
(I1
I5
tp566
(I6
I5
tp567
tp568
sg14
I12
sbssg131
S'heavy_roomset'
p569
sbsg131
g133
sg134
(dp570
g377
((lp571
F40.019999999998618
tp572
sg422
((lp573
F41.600000000000364
tp574
sg465
((lp575
F51.149999999999636
tp576
sg515
((lp577
F40.150000000001455
tp578
ssba(imeasure_core
ProblemSetSolution
p579
(dp580
g3
(imeasure_core
RoomSet
p581
(dp582
g6
(dp583
S'complexRoom'
p584
(imulti_robot_problem
MultiRobotState
p585
(dp586
g19
g20
((lp587
(I2
I7
tp588
a(I7
I3
tp589
a(I6
I3
tp590
a(I3
I3
tp591
a(I7
I6
tp592
a(I7
I4
tp593
a(I7
I5
tp594
a(I2
I3
tp595
a(I4
I3
tp596
a(I2
I5
tp597
a(I2
I4
tp598
a(I5
I3
tp599
atp600
Rp601
sg15
I11
sg28
g20
((lp602
(I1
I0
tp603
a(I9
I0
tp604
atp605
Rp606
sg13
((I6
I4
tp607
(I1
I6
tp608
tp609
sg14
I8
sbsS'exampleProblem'
p610
(imulti_robot_problem
MultiRobotState
p611
(dp612
g19
g20
((lp613
tp614
Rp615
sg15
I5
sg28
g20
((lp616
(I1
I3
tp617
a(I3
I1
tp618
a(I1
I1
tp619
a(I3
I3
tp620
atp621
Rp622
sg13
((I2
I2
tp623
tp624
sg14
I5
sbsS'linear_test'
p625
(imulti_robot_problem
MultiRobotState
p626
(dp627
g19
g615
sg15
I12
sg28
g20
((lp628
(I11
I0
tp629
a(I1
I0
tp630
a(I9
I0
tp631
atp632
Rp633
sg13
((I3
I0
tp634
(I1
I2
tp635
tp636
sg14
I7
sbsS'obstacle_Far_CloseTest'
p637
(imulti_robot_problem
MultiRobotState
p638
(dp639
g19
g20
((lp640
(I0
I1
tp641
a(I7
I3
tp642
a(I3
I1
tp643
a(I7
I1
tp644
a(I4
I5
tp645
a(I7
I6
tp646
a(I4
I4
tp647
a(I2
I1
tp648
a(I7
I4
tp649
a(I7
I5
tp650
a(I4
I3
tp651
a(I4
I2
tp652
a(I4
I1
tp653
a(I1
I1
tp654
a(I7
I2
tp655
atp656
Rp657
sg15
I12
sg28
g20
((lp658
(I3
I2
tp659
a(I9
I6
tp660
atp661
Rp662
sg13
((I0
I0
tp663
(I6
I6
tp664
tp665
sg14
I7
sbsS'zigzag'
p666
(imulti_robot_problem
MultiRobotState
p667
(dp668
g19
g20
((lp669
(I1
I2
tp670
a(I3
I2
tp671
a(I1
I3
tp672
a(I3
I0
tp673
a(I3
I1
tp674
a(I5
I1
tp675
a(I5
I2
tp676
a(I1
I1
tp677
a(I5
I3
tp678
atp679
Rp680
sg15
I20
sg28
g20
((lp681
(I6
I3
tp682
atp683
Rp684
sg13
((I0
I3
tp685
(I19
I3
tp686
tp687
sg14
I4
sbsS'room1'
p688
(imulti_robot_problem
MultiRobotState
p689
(dp690
g19
g20
((lp691
(I6
I3
tp692
a(I7
I3
tp693
a(I8
I3
tp694
a(I2
I3
tp695
a(I3
I3
tp696
a(I4
I3
tp697
a(I5
I3
tp698
atp699
Rp700
sg15
I9
sg28
g20
((lp701
(I0
I0
tp702
a(I2
I1
tp703
atp704
Rp705
sg13
((I6
I1
tp706
(I6
I5
tp707
tp708
sg14
I6
sbsS'complexRoom2'
p709
(imulti_robot_problem
MultiRobotState
p710
(dp711
g19
g20
((lp712
(I7
I3
tp713
a(I1
I3
tp714
a(I7
I1
tp715
a(I4
I5
tp716
a(I9
I3
tp717
a(I5
I5
tp718
a(I2
I6
tp719
a(I2
I3
tp720
a(I5
I1
tp721
a(I0
I3
tp722
a(I10
I3
tp723
a(I2
I5
tp724
a(I6
I5
tp725
a(I5
I3
tp726
a(I2
I7
tp727
a(I8
I3
tp728
a(I3
I3
tp729
a(I5
I2
tp730
a(I7
I6
tp731
a(I3
I1
tp732
a(I6
I3
tp733
a(I7
I5
tp734
a(I4
I3
tp735
a(I3
I5
tp736
a(I4
I1
tp737
a(I6
I1
tp738
atp739
Rp740
sg15
I11
sg28
g20
((lp741
(I7
I2
tp742
a(I0
I7
tp743
atp744
Rp745
sg13
((I1
I2
tp746
(I3
I6
tp747
tp748
sg14
I8
sbsS'zigzagUpright'
p749
(imulti_robot_problem
MultiRobotState
p750
(dp751
g19
g20
((lp752
(I1
I3
tp753
a(I3
I1
tp754
a(I2
I1
tp755
a(I1
I1
tp756
a(I1
I5
tp757
a(I2
I3
tp758
a(I2
I5
tp759
a(I0
I3
tp760
a(I3
I5
tp761
atp762
Rp763
sg15
I4
sg28
g20
((lp764
(I3
I6
tp765
atp766
Rp767
sg13
((I3
I0
tp768
(I3
I19
tp769
tp770
sg14
I20
sbsS'ivansRevenge'
p771
(imulti_robot_problem
MultiRobotState
p772
(dp773
g19
g615
sg15
I10
sg28
g20
((lp774
(I9
I2
tp775
a(I0
I0
tp776
atp777
Rp778
sg13
((I9
I0
tp779
(I0
I2
tp780
tp781
sg14
I3
sbsS'roomLongWithObstaccle'
p782
(imulti_robot_problem
MultiRobotState
p783
(dp784
g19
g20
((lp785
(I0
I1
tp786
a(I12
I1
tp787
a(I9
I1
tp788
a(I7
I1
tp789
a(I8
I1
tp790
a(I6
I1
tp791
a(I3
I1
tp792
a(I2
I1
tp793
a(I11
I1
tp794
a(I10
I1
tp795
a(I5
I1
tp796
a(I4
I1
tp797
a(I1
I1
tp798
atp799
Rp800
sg15
I15
sg28
g20
((lp801
(I0
I2
tp802
a(I14
I6
tp803
atp804
Rp805
sg13
((I0
I0
tp806
(I0
I6
tp807
tp808
sg14
I7
sbsS'twoRobotsInOpCorners'
p809
(imulti_robot_problem
MultiRobotState
p810
(dp811
g19
g615
sg15
I5
sg28
g20
((lp812
(I0
I0
tp813
a(I4
I4
tp814
atp815
Rp816
sg13
((I3
I0
tp817
(I0
I3
tp818
tp819
sg14
I5
sbsS'split2'
p820
(imulti_robot_problem
MultiRobotState
p821
(dp822
g19
g615
sg15
I10
sg28
g20
((lp823
(I0
I9
tp824
a(I9
I0
tp825
a(I0
I0
tp826
a(I9
I9
tp827
atp828
Rp829
sg13
((I1
I1
tp830
(I8
I1
tp831
(I4
I5
tp832
(I5
I5
tp833
tp834
sg14
I10
sbsS'split3'
p835
(imulti_robot_problem
MultiRobotState
p836
(dp837
g19
g615
sg15
I10
sg28
g20
((lp838
(I0
I9
tp839
a(I9
I0
tp840
a(I0
I0
tp841
a(I9
I9
tp842
atp843
Rp844
sg13
((I1
I1
tp845
(I8
I1
tp846
(I1
I7
tp847
(I7
I7
tp848
tp849
sg14
I10
sbsS'gaintRoom'
p850
(imulti_robot_problem
MultiRobotState
p851
(dp852
g19
g615
sg15
I5
sg28
g20
((lp853
(I4
I0
tp854
a(I4
I4
tp855
a(I0
I4
tp856
atp857
Rp858
sg13
((I0
I0
tp859
tp860
sg14
I5
sbsS'gaintRoomWithWall'
p861
(imulti_robot_problem
MultiRobotState
p862
(dp863
g19
g20
((lp864
(I2
I4
tp865
atp866
Rp867
sg15
I5
sg28
g20
((lp868
(I4
I0
tp869
a(I4
I4
tp870
a(I0
I4
tp871
atp872
Rp873
sg13
((I0
I0
tp874
tp875
sg14
I5
sbsS'split'
p876
(imulti_robot_problem
MultiRobotState
p877
(dp878
g19
g615
sg15
I10
sg28
g20
((lp879
(I0
I9
tp880
a(I9
I0
tp881
a(I0
I0
tp882
a(I9
I9
tp883
atp884
Rp885
sg13
((I4
I4
tp886
(I5
I4
tp887
(I4
I5
tp888
(I5
I5
tp889
tp890
sg14
I10
sbsS'twoRobots'
p891
(imulti_robot_problem
MultiRobotState
p892
(dp893
g19
g615
sg15
I9
sg28
g20
((lp894
(I8
I0
tp895
a(I0
I0
tp896
atp897
Rp898
sg13
((I2
I0
tp899
(I0
I3
tp900
tp901
sg14
I4
sbssg131
S'static_rooms'
p902
sbsg131
g133
sg134
(dp903
g820
((lp904
F39.920000000000073
tp905
sg835
((lp906
F40.100000000000364
tp907
sg584
((lp908
F39.989999999999782
tp909
sg850
((lp910
F39.899999999999636
tp911
sg610
((lp912
F39.989999999999782
tp913
sg625
((lp914
F40.0
tp915
sg637
((lp916
F39.989999999999782
tp917
sg891
((lp918
F39.909999999999854
tp919
sg861
((lp920
F39.899999999999636
tp921
sg666
((lp922
F39.989999999999782
tp923
sg688
((lp924
F39.989999999999782
tp925
sg709
((lp926
F40.0
tp927
sg749
((lp928
F39.989999999999782
tp929
sg771
((lp930
(F0.0036959648132324219
I2
tp931
aF39.989999999999782
tp932
sg782
((lp933
F39.989999999999782
tp934
sg809
((lp935
F39.970000000001164
tp936
sg876
((lp937
F40.0
tp938
ssba(imeasure_core
ProblemSetSolution
p939
(dp940
g3
g4
sg131
S"AnytimeBeam-w4-gf(4, 'lin')_with_PowerHeuristic2"
p941
sg134
(dp942
g8
((lp943
(F0.29996895790100098
I44
tp944
a(F0.44498109817504883
I42
tp945
a(F8.9733901023864746
I36
tp946
a(F11.951826095581055
I34
tp947
a(F16.889317035675049
I32
tp948
a(F17.794111967086792
I30
tp949
a(F18.830727100372314
I28
tp950
a(F37.370239973068237
I26
tp951
aF39.989999999999782
tp952
sg40
((lp953
(F0.97140002250671387
I5
tp954
aF40.059999999999491
tp955
sg73
((lp956
(F0.56021809577941895
I4
tp957
aF40.110000000000582
tp958
sg102
((lp959
F40.040000000000873
tp960
ssba(imeasure_core
ProblemSetSolution
p961
(dp962
g3
g156
sg131
g941
sg134
(dp963
g159
((lp964
F39.979999999999563
tp965
sg205
((lp966
F40.010000000000218
tp967
sg262
((lp968
F40.0
tp969
sg311
((lp970
F40.010000000000218
tp971
ssba(imeasure_core
ProblemSetSolution
p972
(dp973
g3
g374
sg131
g941
sg134
(dp974
g377
((lp975
F40.0
tp976
sg422
((lp977
F42.219999999999345
tp978
sg465
((lp979
F51.159999999999854
tp980
sg515
((lp981
F40.139999999999418
tp982
ssba(imeasure_core
ProblemSetSolution
p983
(dp984
g3
g581
sg131
g941
sg134
(dp985
g820
((lp986
F40.069999999999709
tp987
sg835
((lp988
F40.050000000001091
tp989
sg584
((lp990
F39.989999999999782
tp991
sg850
((lp992
F39.989999999999782
tp993
sg610
((lp994
F39.989999999999782
tp995
sg625
((lp996
F39.990000000001601
tp997
sg637
((lp998
F39.989999999999782
tp999
sg891
((lp1000
F39.989999999999782
tp1001
sg861
((lp1002
F39.989999999999782
tp1003
sg666
((lp1004
F40.0
tp1005
sg688
((lp1006
F39.989999999999782
tp1007
sg709
((lp1008
F39.989999999999782
tp1009
sg749
((lp1010
F40.0
tp1011
sg771
((lp1012
(F0.0037209987640380859
I2
tp1013
aF39.989999999999782
tp1014
sg782
((lp1015
F40.0
tp1016
sg809
((lp1017
F40.0
tp1018
sg876
((lp1019
F40.3799999999992
tp1020
ssba(imeasure_core
ProblemSetSolution
p1021
(dp1022
g3
g4
sg131
S"AnytimeBeam-w4-gf(8, 'lin')_with_PowerHeuristic2"
p1023
sg134
(dp1024
g8
((lp1025
(F0.23726105690002441
I42
tp1026
a(F4.7402009963989258
I36
tp1027
a(F6.6105279922485352
I34
tp1028
a(F8.6994361877441406
I32
tp1029
a(F9.6098341941833496
I30
tp1030
a(F10.64856219291687
I28
tp1031
a(F20.039642095565796
I26
tp1032
aF39.990000000001601
tp1033
sg40
((lp1034
(F1.0663609504699707
I5
tp1035
aF40.069999999999709
tp1036
sg73
((lp1037
(F0.6322479248046875
I4
tp1038
aF40.069999999999709
tp1039
sg102
((lp1040
F40.059999999999491
tp1041
ssba(imeasure_core
ProblemSetSolution
p1042
(dp1043
g3
g156
sg131
g1023
sg134
(dp1044
g159
((lp1045
F39.979999999999563
tp1046
sg205
((lp1047
F40.010000000000218
tp1048
sg262
((lp1049
F40.0
tp1050
sg311
((lp1051
F40.050000000001091
tp1052
ssba(imeasure_core
ProblemSetSolution
p1053
(dp1054
g3
g374
sg131
g1023
sg134
(dp1055
g377
((lp1056
F40.200000000000728
tp1057
sg422
((lp1058
F42.590000000000146
tp1059
sg465
((lp1060
F51.539999999999054
tp1061
sg515
((lp1062
F40.130000000001019
tp1063
ssba(imeasure_core
ProblemSetSolution
p1064
(dp1065
g3
g581
sg131
g1023
sg134
(dp1066
g820
((lp1067
F40.180000000000291
tp1068
sg835
((lp1069
F40.209999999999127
tp1070
sg584
((lp1071
F39.989999999999782
tp1072
sg850
((lp1073
F39.989999999999782
tp1074
sg610
((lp1075
F39.989999999999782
tp1076
sg625
((lp1077
F39.989999999999782
tp1078
sg637
((lp1079
F39.989999999999782
tp1080
sg891
((lp1081
F39.989999999999782
tp1082
sg861
((lp1083
F39.989999999999782
tp1084
sg666
((lp1085
F39.989999999999782
tp1086
sg688
((lp1087
F40.0
tp1088
sg709
((lp1089
F39.989999999999782
tp1090
sg749
((lp1091
F40.0
tp1092
sg771
((lp1093
(F0.0036900043487548828
I2
tp1094
aF39.990000000001601
tp1095
sg782
((lp1096
F39.989999999999782
tp1097
sg809
((lp1098
F40.0
tp1099
sg876
((lp1100
F40.440000000000509
tp1101
ssba(imeasure_core
ProblemSetSolution
p1102
(dp1103
g3
g4
sg131
S"AnytimeBeam-w4-gf(16, 'lin')_with_PowerHeuristic2"
p1104
sg134
(dp1105
g8
((lp1106
(F0.14757013320922852
I42
tp1107
a(F2.5277800559997559
I36
tp1108
a(F3.2727401256561279
I34
tp1109
a(F4.4058201313018799
I32
tp1110
a(F5.3016421794891357
I30
tp1111
a(F6.3331830501556396
I28
tp1112
a(F11.934287071228027
I26
tp1113
aF39.979999999999563
tp1114
sg40
((lp1115
(F1.2677218914031982
I5
tp1116
aF40.380000000001019
tp1117
sg73
((lp1118
(F0.66701793670654297
I4
tp1119
aF40.020000000000437
tp1120
sg102
((lp1121
F40.009999999998399
tp1122
ssba(imeasure_core
ProblemSetSolution
p1123
(dp1124
g3
g156
sg131
g1104
sg134
(dp1125
g159
((lp1126
F39.990000000001601
tp1127
sg205
((lp1128
F39.989999999999782
tp1129
sg262
((lp1130
F39.989999999999782
tp1131
sg311
((lp1132
F40.010000000000218
tp1133
ssba(imeasure_core
ProblemSetSolution
p1134
(dp1135
g3
g374
sg131
g1104
sg134
(dp1136
g377
((lp1137
F39.979999999999563
tp1138
sg422
((lp1139
F43.609999999998763
tp1140
sg465
((lp1141
F51.970000000001164
tp1142
sg515
((lp1143
F40.090000000000146
tp1144
ssba(imeasure_core
ProblemSetSolution
p1145
(dp1146
g3
g581
sg131
g1104
sg134
(dp1147
g820
((lp1148
F40.119999999998981
tp1149
sg835
((lp1150
F40.059999999999491
tp1151
sg584
((lp1152
F39.989999999999782
tp1153
sg850
((lp1154
F39.980000000001382
tp1155
sg610
((lp1156
F39.989999999999782
tp1157
sg625
((lp1158
F39.989999999999782
tp1159
sg637
((lp1160
F39.989999999999782
tp1161
sg891
((lp1162
F39.989999999999782
tp1163
sg861
((lp1164
F39.989999999999782
tp1165
sg666
((lp1166
F40.0
tp1167
sg688
((lp1168
F39.989999999999782
tp1169
sg709
((lp1170
F40.0
tp1171
sg749
((lp1172
F39.989999999999782
tp1173
sg771
((lp1174
(F0.0037081241607666016
I2
tp1175
aF39.989999999999782
tp1176
sg782
((lp1177
F39.990000000001601
tp1178
sg809
((lp1179
F40.0
tp1180
sg876
((lp1181
F40.340000000000146
tp1182
ssba(imeasure_core
ProblemSetSolution
p1183
(dp1184
g3
g4
sg131
S"AnytimeBeam-w4-gf(2, 'lin')_with_LinearHeuristic"
p1185
sg134
(dp1186
g8
((lp1187
(F0.058218955993652344
I28
tp1188
aF39.979999999999563
tp1189
sg40
((lp1190
F41.010000000000218
tp1191
sg73
((lp1192
(F1.376086950302124
I10
tp1193
aF40.039999999999054
tp1194
sg102
((lp1195
F40.0
tp1196
ssba(imeasure_core
ProblemSetSolution
p1197
(dp1198
g3
g156
sg131
g1185
sg134
(dp1199
g159
((lp1200
F40.0
tp1201
sg205
((lp1202
F40.020000000000437
tp1203
sg262
((lp1204
F40.030000000000655
tp1205
sg311
((lp1206
F40.010000000000218
tp1207
ssba(imeasure_core
ProblemSetSolution
p1208
(dp1209
g3
g374
sg131
g1185
sg134
(dp1210
g377
((lp1211
F40.369999999998981
tp1212
sg422
((lp1213
(F29.65929102897644
I7
tp1214
aF42.020000000000437
tp1215
sg465
((lp1216
F40.309999999999491
tp1217
sg515
((lp1218
F40.050000000001091
tp1219
ssba(imeasure_core
ProblemSetSolution
p1220
(dp1221
g3
g581
sg131
g1185
sg134
(dp1222
g820
((lp1223
F40.049999999999272
tp1224
sg835
((lp1225
F40.280000000000655
tp1226
sg584
((lp1227
F39.979999999999563
tp1228
sg850
((lp1229
F39.989999999999782
tp1230
sg610
((lp1231
F39.979999999999563
tp1232
sg625
((lp1233
F40.010000000000218
tp1234
sg637
((lp1235
F40.0
tp1236
sg891
((lp1237
F40.0
tp1238
sg861
((lp1239
F39.989999999999782
tp1240
sg666
((lp1241
F39.989999999999782
tp1242
sg688
((lp1243
F40.0
tp1244
sg709
((lp1245
F39.989999999999782
tp1246
sg749
((lp1247
F40.0
tp1248
sg771
((lp1249
(F0.0052068233489990234
I2
tp1250
aF39.989999999999782
tp1251
sg782
((lp1252
F39.989999999999782
tp1253
sg809
((lp1254
F39.990000000001601
tp1255
sg876
((lp1256
F40.119999999998981
tp1257
ssba(imeasure_core
ProblemSetSolution
p1258
(dp1259
g3
g4
sg131
S"AnytimeBeam-w4-gf(4, 'lin')_with_LinearHeuristic"
p1260
sg134
(dp1261
g8
((lp1262
(F0.041610002517700195
I28
tp1263
aF39.990000000001601
tp1264
sg40
((lp1265
F40.639999999999418
tp1266
sg73
((lp1267
(F1.9672350883483887
I10
tp1268
aF40.199999999998909
tp1269
sg102
((lp1270
F40.260000000000218
tp1271
ssba(imeasure_core
ProblemSetSolution
p1272
(dp1273
g3
g156
sg131
g1260
sg134
(dp1274
g159
((lp1275
F39.979999999999563
tp1276
sg205
((lp1277
F40.030000000000655
tp1278
sg262
((lp1279
F40.010000000000218
tp1280
sg311
((lp1281
F40.209999999999127
tp1282
ssba(imeasure_core
ProblemSetSolution
p1283
(dp1284
g3
g374
sg131
g1260
sg134
(dp1285
g377
((lp1286
F40.910000000001673
tp1287
sg422
((lp1288
(F32.710729122161865
I7
tp1289
aF43.179999999998472
tp1290
sg465
((lp1291
F40.860000000000582
tp1292
sg515
((lp1293
F40.559999999999491
tp1294
ssba(imeasure_core
ProblemSetSolution
p1295
(dp1296
g3
g581
sg131
g1260
sg134
(dp1297
g820
((lp1298
F40.239999999999782
tp1299
sg835
((lp1300
F40.260000000000218
tp1301
sg584
((lp1302
F39.979999999999563
tp1303
sg850
((lp1304
F39.989999999999782
tp1305
sg610
((lp1306
F39.990000000001601
tp1307
sg625
((lp1308
F40.0
tp1309
sg637
((lp1310
F40.0
tp1311
sg891
((lp1312
F39.990000000001601
tp1313
sg861
((lp1314
F39.989999999999782
tp1315
sg666
((lp1316
F40.0
tp1317
sg688
((lp1318
F40.0
tp1319
sg709
((lp1320
F39.989999999999782
tp1321
sg749
((lp1322
F39.989999999999782
tp1323
sg771
((lp1324
(F0.0051929950714111328
I2
tp1325
aF39.989999999999782
tp1326
sg782
((lp1327
F39.989999999999782
tp1328
sg809
((lp1329
F40.0
tp1330
sg876
((lp1331
F40.159999999999854
tp1332
ssba(imeasure_core
ProblemSetSolution
p1333
(dp1334
g3
g4
sg131
S"AnytimeBeam-w4-gf(8, 'lin')_with_LinearHeuristic"
p1335
sg134
(dp1336
g8
((lp1337
(F0.032757997512817383
I28
tp1338
aF39.989999999997963
tp1339
sg40
((lp1340
F40.150000000001455
tp1341
sg73
((lp1342
(F2.7380988597869873
I10
tp1343
aF40.180000000000291
tp1344
sg102
((lp1345
F40.220000000001164
tp1346
ssba(imeasure_core
ProblemSetSolution
p1347
(dp1348
g3
g156
sg131
g1335
sg134
(dp1349
g159
((lp1350
F39.990000000001601
tp1351
sg205
((lp1352
F39.989999999997963
tp1353
sg262
((lp1354
F40.010000000002037
tp1355
sg311
((lp1356
F40.019999999996799
tp1357
ssba(imeasure_core
ProblemSetSolution
p1358
(dp1359
g3
g374
sg131
g1335
sg134
(dp1360
g377
((lp1361
F40.380000000001019
tp1362
sg422
((lp1363
(F34.655745983123779
I7
tp1364
aF40.139999999999418
tp1365
sg465
((lp1366
F41.0
tp1367
sg515
((lp1368
F40.159999999999854
tp1369
ssba(imeasure_core
ProblemSetSolution
p1370
(dp1371
g3
g581
sg131
g1335
sg134
(dp1372
g820
((lp1373
F40.600000000002183
tp1374
sg835
((lp1375
F40.319999999999709
tp1376
sg584
((lp1377
F39.989999999997963
tp1378
sg850
((lp1379
F39.989999999997963
tp1380
sg610
((lp1381
F39.990000000001601
tp1382
sg625
((lp1383
F40.0
tp1384
sg637
((lp1385
F39.989999999997963
tp1386
sg891
((lp1387
F39.990000000001601
tp1388
sg861
((lp1389
F39.990000000001601
tp1390
sg666
((lp1391
F40.0
tp1392
sg688
((lp1393
(F8.8592710494995117
I7
tp1394
aF39.990000000001601
tp1395
sg709
((lp1396
F39.990000000001601
tp1397
sg749
((lp1398
F39.989999999997963
tp1399
sg771
((lp1400
(F0.0052440166473388672
I2
tp1401
aF39.990000000001601
tp1402
sg782
((lp1403
F39.989999999997963
tp1404
sg809
((lp1405
F40.0
tp1406
sg876
((lp1407
F40.029999999998836
tp1408
ssba(imeasure_core
ProblemSetSolution
p1409
(dp1410
g3
g4
sg131
S"AnytimeBeam-w4-gf(16, 'lin')_with_LinearHeuristic"
p1411
sg134
(dp1412
g8
((lp1413
(F0.033465147018432617
I28
tp1414
aF39.979999999999563
tp1415
sg40
((lp1416
F40.240000000001601
tp1417
sg73
((lp1418
(F3.0640928745269775
I10
tp1419
aF40.130000000001019
tp1420
sg102
((lp1421
F40.179999999996653
tp1422
ssba(imeasure_core
ProblemSetSolution
p1423
(dp1424
g3
g156
sg131
g1411
sg134
(dp1425
g159
((lp1426
F40.020000000000437
tp1427
sg205
((lp1428
F39.990000000001601
tp1429
sg262
((lp1430
F40.009999999998399
tp1431
sg311
((lp1432
F40.290000000000873
tp1433
ssba(imeasure_core
ProblemSetSolution
p1434
(dp1435
g3
g374
sg131
g1411
sg134
(dp1436
g377
((lp1437
F40.43999999999869
tp1438
sg422
((lp1439
(F38.87797999382019
I7
tp1440
aF42.68999999999869
tp1441
sg465
((lp1442
F41.720000000001164
tp1443
sg515
((lp1444
F40.659999999999854
tp1445
ssba(imeasure_core
ProblemSetSolution
p1446
(dp1447
g3
g581
sg131
g1411
sg134
(dp1448
g820
((lp1449
F40.420000000001892
tp1450
sg835
((lp1451
F40.610000000000582
tp1452
sg584
((lp1453
F39.990000000001601
tp1454
sg850
((lp1455
F39.989999999997963
tp1456
sg610
((lp1457
F39.989999999997963
tp1458
sg625
((lp1459
F40.0
tp1460
sg637
((lp1461
F39.990000000001601
tp1462
sg891
((lp1463
F39.990000000001601
tp1464
sg861
((lp1465
F39.990000000001601
tp1466
sg666
((lp1467
F40.0
tp1468
sg688
((lp1469
(F8.9920539855957031
I7
tp1470
aF40.0
tp1471
sg709
((lp1472
F39.979999999999563
tp1473
sg749
((lp1474
F39.989999999997963
tp1475
sg771
((lp1476
(F0.005207061767578125
I2
tp1477
aF40.0
tp1478
sg782
((lp1479
F39.990000000001601
tp1480
sg809
((lp1481
F40.009999999998399
tp1482
sg876
((lp1483
F40.059999999997672
tp1484
ssba.