(lp0
(imeasure_core
ProblemSetSolution
p1
(dp2
S'roomset'
p3
(imeasure_core
RoomSet
p4
(dp5
S'rooms'
p6
(dp7
(iproblems
RoomID
p8
(dp9
S'width'
p10
I9
sS'dusts'
p11
I7
sS'seed'
p12
I1486246605650367638
sS'obstacles'
p13
(I1
I3
tp14
sS'robots'
p15
I1
sS'height'
p16
I7
sb(imulti_robot_problem
MultiRobotState
p17
(dp18
S'obstacle_locations'
p19
c__builtin__
frozenset
p20
((lp21
(I0
I1
tp22
a(I8
I3
tp23
ag14
a(I0
I3
tp24
a(I0
I2
tp25
atp26
Rp27
sg10
I9
sS'dirt_locations'
p28
g20
((lp29
(I7
I0
tp30
a(I4
I4
tp31
a(I7
I5
tp32
a(I0
I4
tp33
a(I1
I0
tp34
a(I6
I5
tp35
a(I4
I0
tp36
atp37
Rp38
sg15
((I5
I1
tp39
tp40
sg16
I7
sbs(iproblems
RoomID
p41
(dp42
g10
I10
sg11
I9
sg12
I679259829289197625
sg13
(I7
I5
tp43
sg15
I4
sg16
I10
sb(imulti_robot_problem
MultiRobotState
p44
(dp45
g19
g20
((lp46
(I7
I0
tp47
a(I8
I6
tp48
a(I7
I6
tp49
ag43
a(I9
I6
tp50
atp51
Rp52
sg10
I10
sg28
g20
((lp53
(I5
I4
tp54
a(I2
I6
tp55
a(I7
I1
tp56
a(I6
I1
tp57
a(I0
I5
tp58
a(I8
I7
tp59
a(I9
I5
tp60
a(I0
I9
tp61
a(I1
I6
tp62
atp63
Rp64
sg15
((I7
I8
tp65
(I6
I7
tp66
(I3
I5
tp67
(I3
I9
tp68
tp69
sg16
I10
sbs(iproblems
RoomID
p70
(dp71
g10
I9
sg11
I6
sg12
I5891625650498269233
sg13
(I4
I4
tp72
sg15
I4
sg16
I9
sb(imulti_robot_problem
MultiRobotState
p73
(dp74
g19
g20
((lp75
(I2
I7
tp76
a(I4
I5
tp77
ag72
a(I3
I6
tp78
atp79
Rp80
sg10
I9
sg28
g20
((lp81
(I8
I3
tp82
a(I5
I5
tp83
a(I6
I6
tp84
a(I7
I4
tp85
a(I0
I5
tp86
a(I4
I0
tp87
atp88
Rp89
sg15
((I4
I6
tp90
(I7
I1
tp91
(I0
I4
tp92
(I7
I2
tp93
tp94
sg16
I9
sbs(iproblems
RoomID
p95
(dp96
g10
I10
sg11
I6
sg12
I403795515464475257
sg13
(I1
I6
tp97
sg15
I4
sg16
I8
sb(imulti_robot_problem
MultiRobotState
p98
(dp99
g19
g20
((lp100
(I8
I3
tp101
a(I1
I3
tp102
a(I6
I7
tp103
ag97
a(I0
I4
tp104
a(I0
I5
tp105
a(I4
I1
tp106
atp107
Rp108
sg10
I10
sg28
g20
((lp109
(I7
I3
tp110
a(I4
I7
tp111
a(I8
I0
tp112
a(I0
I7
tp113
a(I2
I2
tp114
a(I0
I2
tp115
atp116
Rp117
sg15
((I8
I2
tp118
(I6
I1
tp119
(I5
I0
tp120
(I2
I0
tp121
tp122
sg16
I8
sbs(iproblems
RoomID
p123
(dp124
g10
I9
sg11
I5
sg12
I2685440357799139976
sg13
(I3
I4
tp125
sg15
I1
sg16
I9
sb(imulti_robot_problem
MultiRobotState
p126
(dp127
g19
g20
((lp128
(I8
I3
tp129
a(I1
I3
tp130
a(I5
I6
tp131
a(I7
I8
tp132
a(I1
I1
tp133
a(I3
I8
tp134
a(I2
I3
tp135
ag125
a(I2
I4
tp136
atp137
Rp138
sg10
I9
sg28
g20
((lp139
(I0
I1
tp140
a(I0
I0
tp141
a(I3
I1
tp142
a(I5
I0
tp143
a(I8
I7
tp144
atp145
Rp146
sg15
((I5
I5
tp147
tp148
sg16
I9
sbssS'name'
p149
S'easy_roomset'
p150
sbsS'name'
p151
S"AnytimeBeam-w20-gf(1.3, 'exp')_with_PowerHeuristic2"
p152
sS'solutions'
p153
(dp154
g8
((lp155
(F0.11000000000058208
I45
tp156
a(F2.180000000000291
I44
tp157
a(F2.8100000000013097
I37
tp158
a(F3.4200000000018917
I36
tp159
a(F4.0600000000013097
I34
tp160
a(F6.1700000000018917
I33
tp161
a(F8.430000000000291
I31
tp162
a(F11.420000000001892
I30
tp163
a(F14.620000000002619
I28
tp164
a(F17.06000000000131
I26
tp165
a(F22.100000000002183
I25
tp166
a(F28.600000000002183
I24
tp167
aF40.0
tp168
sg41
((lp169
(F0.80000000000291038
I20
tp170
aF40.020000000000437
tp171
sg70
((lp172
(F0.40999999999985448
I8
tp173
aF40.270000000000437
tp174
sg95
((lp175
(F6.9099999999998545
I134
tp176
aF40.010000000002037
tp177
sg123
((lp178
(F0.059999999997671694
I41
tp179
a(F2.0299999999988358
I35
tp180
a(F3.1899999999986903
I33
tp181
a(F4.4599999999991269
I31
tp182
a(F5.7899999999972351
I29
tp183
a(F8.1599999999998545
I27
tp184
a(F11.419999999998254
I25
tp185
a(F14.19999999999709
I23
tp186
aF40.0
tp187
ssba(imeasure_core
ProblemSetSolution
p188
(dp189
g3
(imeasure_core
RoomSet
p190
(dp191
S'rooms'
p192
(dp193
(iproblems
RoomID
p194
(dp195
S'width'
p196
I12
sS'dusts'
p197
I9
sS'seed'
p198
I679259829289197625
sS'obstacles'
p199
(I7
I7
tp200
sS'robots'
p201
I4
sS'height'
p202
I12
sb(imulti_robot_problem
MultiRobotState
p203
(dp204
S'obstacle_locations'
p205
g20
((lp206
(I6
I9
tp207
a(I6
I6
tp208
a(I5
I6
tp209
a(I9
I8
tp210
ag200
a(I8
I5
tp211
a(I10
I8
tp212
a(I6
I7
tp213
a(I10
I7
tp214
a(I7
I6
tp215
a(I8
I10
tp216
a(I7
I10
tp217
a(I8
I6
tp218
a(I9
I7
tp219
a(I6
I4
tp220
a(I11
I9
tp221
a(I1
I4
tp222
a(I7
I5
tp223
a(I8
I7
tp224
a(I4
I2
tp225
a(I9
I6
tp226
a(I6
I5
tp227
a(I11
I7
tp228
a(I10
I5
tp229
a(I6
I8
tp230
a(I11
I8
tp231
a(I6
I1
tp232
a(I7
I4
tp233
atp234
Rp235
sg196
I12
sS'dirt_locations'
p236
g20
((lp237
(I2
I7
tp238
a(I9
I0
tp239
a(I8
I2
tp240
a(I7
I1
tp241
a(I11
I0
tp242
a(I0
I11
tp243
a(I1
I6
tp244
a(I1
I7
tp245
a(I11
I6
tp246
atp247
Rp248
sg201
((I9
I10
tp249
(I8
I9
tp250
(I3
I7
tp251
(I3
I11
tp252
tp253
sg202
I12
sbs(iproblems
RoomID
p254
(dp255
g196
I11
sg197
I5
sg198
I2685440357799139976
sg199
(I9
I1
tp256
sg201
I3
sg202
I11
sb(imulti_robot_problem
MultiRobotState
p257
(dp258
g205
g20
((lp259
(I7
I3
tp260
ag256
a(I5
I6
tp261
a(I10
I6
tp262
a(I9
I4
tp263
a(I7
I10
tp264
a(I10
I3
tp265
a(I7
I2
tp266
a(I5
I5
tp267
a(I10
I7
tp268
a(I8
I5
tp269
a(I3
I6
tp270
a(I3
I5
tp271
a(I10
I9
tp272
a(I10
I4
tp273
a(I7
I1
tp274
a(I4
I5
tp275
a(I9
I3
tp276
a(I1
I4
tp277
a(I3
I9
tp278
a(I9
I6
tp279
a(I6
I5
tp280
a(I5
I3
tp281
a(I8
I3
tp282
a(I6
I8
tp283
a(I9
I2
tp284
a(I7
I8
tp285
a(I9
I9
tp286
a(I9
I5
tp287
a(I3
I4
tp288
a(I2
I4
tp289
atp290
Rp291
sg196
I11
sg236
g20
((lp292
(I1
I2
tp293
a(I9
I10
tp294
a(I6
I1
tp295
a(I4
I1
tp296
a(I0
I2
tp297
atp298
Rp299
sg201
((I6
I6
tp300
(I0
I0
tp301
(I10
I8
tp302
tp303
sg202
I11
sbs(iproblems
RoomID
p304
(dp305
g196
I9
sg197
I7
sg198
I7834319822419845881
sg199
(I8
I8
tp306
sg201
I3
sg202
I9
sb(imulti_robot_problem
MultiRobotState
p307
(dp308
g205
g20
((lp309
(I4
I7
tp310
a(I1
I3
tp311
a(I6
I6
tp312
a(I5
I6
tp313
a(I2
I8
tp314
a(I3
I7
tp315
a(I0
I3
tp316
a(I8
I5
tp317
a(I5
I8
tp318
a(I6
I7
tp319
a(I5
I5
tp320
a(I4
I4
tp321
a(I1
I5
tp322
a(I5
I0
tp323
a(I3
I5
tp324
a(I2
I6
tp325
a(I3
I6
tp326
a(I4
I5
tp327
a(I0
I5
tp328
a(I0
I8
tp329
a(I3
I3
tp330
a(I2
I7
tp331
a(I5
I3
tp332
a(I4
I6
tp333
a(I3
I4
tp334
a(I1
I8
tp335
ag306
a(I1
I7
tp336
a(I7
I8
tp337
atp338
Rp339
sg196
I9
sg236
g20
((lp340
(I7
I0
tp341
a(I7
I1
tp342
a(I1
I4
tp343
a(I7
I4
tp344
a(I2
I0
tp345
a(I6
I2
tp346
a(I8
I7
tp347
atp348
Rp349
sg201
((I2
I1
tp350
(I2
I3
tp351
(I5
I7
tp352
tp353
sg202
I9
sbs(iproblems
RoomID
p354
(dp355
g196
I11
sg197
I6
sg198
I5891625650498269233
sg199
(I3
I9
tp356
sg201
I4
sg202
I11
sb(imulti_robot_problem
MultiRobotState
p357
(dp358
g205
g20
((lp359
(I7
I3
tp360
a(I4
I7
tp361
a(I6
I6
tp362
a(I5
I6
tp363
a(I2
I8
tp364
a(I6
I2
tp365
a(I5
I1
tp366
a(I3
I7
tp367
a(I8
I5
tp368
a(I5
I5
tp369
a(I2
I9
tp370
a(I7
I6
tp371
a(I4
I4
tp372
a(I2
I2
tp373
a(I1
I1
tp374
a(I9
I7
tp375
a(I3
I2
tp376
a(I10
I4
tp377
a(I4
I5
tp378
a(I9
I3
tp379
a(I8
I3
tp380
a(I2
I10
tp381
a(I7
I5
tp382
a(I2
I3
tp383
a(I10
I5
tp384
a(I4
I6
tp385
a(I3
I4
tp386
a(I6
I1
tp387
a(I3
I8
tp388
a(I1
I8
tp389
ag356
a(I4
I3
tp390
a(I9
I5
tp391
a(I5
I2
tp392
a(I8
I4
tp393
atp394
Rp395
sg196
I11
sg236
g20
((lp396
(I5
I10
tp397
a(I9
I1
tp398
a(I10
I7
tp399
a(I8
I8
tp400
a(I1
I6
tp401
a(I7
I9
tp402
atp403
Rp404
sg201
((I5
I7
tp405
(I8
I1
tp406
(I0
I5
tp407
(I4
I0
tp408
tp409
sg202
I11
sbs(iproblems
RoomID
p410
(dp411
g196
I10
sg197
I10
sg198
I1737871632067391849
sg199
(I1
I5
tp412
sg201
I4
sg202
I12
sb(imulti_robot_problem
MultiRobotState
p413
(dp414
g205
g20
((lp415
(I6
I6
tp416
a(I5
I6
tp417
a(I2
I8
tp418
a(I8
I9
tp419
a(I6
I2
tp420
a(I5
I1
tp421
a(I8
I5
tp422
a(I5
I8
tp423
a(I5
I5
tp424
a(I7
I6
tp425
a(I8
I10
tp426
ag412
a(I2
I2
tp427
a(I4
I1
tp428
a(I3
I2
tp429
a(I0
I0
tp430
a(I2
I10
tp431
a(I2
I3
tp432
a(I8
I7
tp433
a(I6
I5
tp434
a(I8
I3
tp435
a(I7
I8
tp436
a(I2
I4
tp437
atp438
Rp439
sg196
I10
sg236
g20
((lp440
(I0
I1
tp441
a(I4
I10
tp442
a(I4
I8
tp443
a(I3
I0
tp444
a(I3
I4
tp445
a(I3
I10
tp446
a(I5
I11
tp447
a(I2
I7
tp448
a(I1
I9
tp449
a(I9
I6
tp450
atp451
Rp452
sg201
((I4
I9
tp453
(I8
I11
tp454
(I4
I0
tp455
(I3
I9
tp456
tp457
sg202
I12
sbssS'name'
p458
S'mild_roomset'
p459
sbsg151
g152
sg153
(dp460
g194
((lp461
F40.209999999999127
tp462
sg254
((lp463
(F3.7399999999979627
I127
tp464
aF40.020000000000437
tp465
sg354
((lp466
(F2.4499999999970896
I64
tp467
aF40.009999999998399
tp468
sg410
((lp469
(F0.40000000000145519
I12
tp470
aF40.119999999998981
tp471
sg304
((lp472
(F0.11000000000058208
I25
tp473
aF40.0
tp474
ssba(imeasure_core
ProblemSetSolution
p475
(dp476
g3
(imeasure_core
RoomSet
p477
(dp478
S'rooms'
p479
(dp480
(iproblems
RoomID
p481
(dp482
S'width'
p483
I12
sS'dusts'
p484
I12
sS'seed'
p485
I1486246605650367638
sS'obstacles'
p486
(I6
I3
tp487
sS'robots'
p488
I5
sS'height'
p489
I10
sb(imulti_robot_problem
MultiRobotState
p490
(dp491
S'obstacle_locations'
p492
g20
((lp493
(I2
I7
tp494
a(I5
I9
tp495
a(I1
I3
tp496
a(I3
I1
tp497
a(I7
I1
tp498
a(I5
I2
tp499
a(I1
I2
tp500
a(I1
I4
tp501
ag487
a(I1
I5
tp502
a(I6
I2
tp503
a(I1
I6
tp504
a(I2
I1
tp505
a(I10
I0
tp506
a(I2
I0
tp507
a(I0
I3
tp508
a(I4
I1
tp509
a(I1
I1
tp510
a(I6
I5
tp511
a(I8
I4
tp512
atp513
Rp514
sg483
I12
sS'dirt_locations'
p515
g20
((lp516
(I11
I7
tp517
a(I11
I4
tp518
a(I9
I1
tp519
a(I11
I8
tp520
a(I2
I8
tp521
a(I6
I0
tp522
a(I0
I6
tp523
a(I11
I1
tp524
a(I0
I4
tp525
a(I4
I9
tp526
a(I10
I9
tp527
a(I9
I7
tp528
atp529
Rp530
sg488
((I2
I4
tp531
(I10
I1
tp532
(I2
I5
tp533
(I9
I8
tp534
(I6
I6
tp535
tp536
sg489
I10
sbs(iproblems
RoomID
p537
(dp538
g483
I13
sg484
I14
sg485
I679259829289197625
sg486
(I7
I6
tp539
sg488
I7
sg489
I13
sb(imulti_robot_problem
MultiRobotState
p540
(dp541
g492
g20
((lp542
(I1
I2
tp543
a(I6
I4
tp544
a(I4
I3
tp545
a(I4
I8
tp546
a(I10
I7
tp547
a(I3
I4
tp548
a(I12
I7
tp549
a(I10
I6
tp550
a(I11
I7
tp551
a(I6
I3
tp552
a(I7
I5
tp553
a(I12
I11
tp554
a(I6
I2
tp555
a(I9
I6
tp556
ag539
a(I12
I8
tp557
atp558
Rp559
sg483
I13
sg515
g20
((lp560
(I2
I7
tp561
a(I12
I1
tp562
a(I9
I2
tp563
a(I2
I8
tp564
a(I5
I7
tp565
a(I1
I4
tp566
a(I0
I12
tp567
a(I7
I4
tp568
a(I11
I4
tp569
a(I11
I6
tp570
a(I4
I2
tp571
a(I10
I0
tp572
a(I10
I9
tp573
a(I1
I9
tp574
atp575
Rp576
sg488
((I9
I11
tp577
(I9
I10
tp578
(I4
I7
tp579
(I4
I12
tp580
(I7
I1
tp581
(I1
I8
tp582
(I1
I6
tp583
tp584
sg489
I13
sbs(iproblems
RoomID
p585
(dp586
g483
I12
sg484
I11
sg485
I5891625650498269233
sg486
(I11
I9
tp587
sg488
I7
sg489
I12
sb(imulti_robot_problem
MultiRobotState
p588
(dp589
g492
g20
((lp590
g587
a(I6
I7
tp591
a(I4
I8
tp592
a(I5
I6
tp593
a(I6
I11
tp594
a(I8
I11
tp595
a(I4
I4
tp596
a(I2
I11
tp597
a(I7
I7
tp598
a(I7
I1
tp599
a(I9
I10
tp600
a(I10
I7
tp601
a(I3
I9
tp602
a(I1
I9
tp603
a(I7
I10
tp604
a(I5
I7
tp605
a(I9
I11
tp606
a(I7
I6
tp607
a(I10
I9
tp608
atp609
Rp610
sg483
I12
sg515
g20
((lp611
(I11
I7
tp612
a(I11
I4
tp613
a(I4
I6
tp614
a(I5
I11
tp615
a(I8
I10
tp616
a(I0
I5
tp617
a(I8
I7
tp618
a(I1
I7
tp619
a(I10
I1
tp620
a(I1
I1
tp621
a(I5
I5
tp622
atp623
Rp624
sg488
((I6
I8
tp625
(I9
I2
tp626
(I0
I6
tp627
(I10
I3
tp628
(I9
I5
tp629
(I5
I0
tp630
(I9
I8
tp631
tp632
sg489
I12
sbs(iproblems
RoomID
p633
(dp634
g483
I12
sg484
I10
sg485
I2685440357799139976
sg486
(I6
I9
tp635
sg488
I5
sg489
I12
sb(imulti_robot_problem
MultiRobotState
p636
(dp637
g492
g20
((lp638
g635
a(I9
I1
tp639
a(I3
I0
tp640
a(I0
I7
tp641
a(I0
I3
tp642
a(I4
I0
tp643
a(I1
I2
tp644
a(I11
I10
tp645
a(I6
I10
tp646
a(I5
I6
tp647
a(I9
I11
tp648
a(I7
I9
tp649
a(I4
I10
tp650
a(I5
I11
tp651
a(I4
I5
tp652
a(I1
I4
tp653
a(I3
I9
tp654
a(I0
I5
tp655
a(I1
I9
tp656
a(I3
I5
tp657
a(I3
I4
tp658
a(I2
I4
tp659
atp660
Rp661
sg483
I12
sg515
g20
((lp662
(I11
I7
tp663
a(I8
I3
tp664
a(I10
I11
tp665
a(I7
I1
tp666
a(I10
I5
tp667
a(I8
I10
tp668
a(I6
I3
tp669
a(I3
I6
tp670
a(I9
I10
tp671
a(I6
I5
tp672
atp673
Rp674
sg488
((I7
I7
tp675
(I0
I0
tp676
(I11
I9
tp677
(I0
I2
tp678
(I4
I1
tp679
tp680
sg489
I12
sbs(iproblems
RoomID
p681
(dp682
g483
I13
sg484
I11
sg485
I403795515464475257
sg486
(I2
I7
tp683
sg488
I6
sg489
I11
sb(imulti_robot_problem
MultiRobotState
p684
(dp685
g492
g20
((lp686
g683
a(I10
I8
tp687
a(I3
I10
tp688
a(I4
I4
tp689
a(I2
I2
tp690
a(I1
I4
tp691
a(I12
I5
tp692
a(I0
I6
tp693
a(I0
I5
tp694
a(I3
I6
tp695
a(I1
I7
tp696
a(I0
I8
tp697
a(I7
I9
tp698
atp699
Rp700
sg483
I13
sg515
g20
((lp701
(I6
I4
tp702
a(I0
I0
tp703
a(I2
I9
tp704
a(I11
I5
tp705
a(I8
I9
tp706
a(I11
I1
tp707
a(I2
I3
tp708
a(I1
I10
tp709
a(I12
I2
tp710
a(I0
I3
tp711
a(I5
I2
tp712
atp713
Rp714
sg488
((I10
I3
tp715
(I7
I2
tp716
(I7
I0
tp717
(I3
I1
tp718
(I5
I10
tp719
(I9
I4
tp720
tp721
sg489
I11
sbssS'name'
p722
S'heavy_roomset'
p723
sbsg151
g152
sg153
(dp724
g481
((lp725
(F16.360000000000582
I113
tp726
aF40.059999999997672
tp727
sg537
((lp728
F43.170000000001892
tp729
sg585
((lp730
F42.959999999999127
tp731
sg633
((lp732
(F4.6000000000021828
I58
tp733
aF40.270000000000437
tp734
sg681
((lp735
(F23.840000000000146
I19
tp736
aF41.349999999998545
tp737
ssba(imeasure_core
ProblemSetSolution
p738
(dp739
g3
g4
sg151
S"AnytimeBeam-w20-gf(1.5, 'exp')_with_PowerHeuristic2"
p740
sg153
(dp741
g8
((lp742
(F0.11000000000058208
I45
tp743
a(F1.3600000000005821
I44
tp744
a(F1.9900000000016007
I37
tp745
a(F2.6100000000005821
I36
tp746
a(F3.25
I34
tp747
a(F5.3500000000021828
I33
tp748
a(F7.6000000000021828
I31
tp749
a(F10.570000000003347
I30
tp750
a(F13.760000000002037
I28
tp751
a(F16.190000000002328
I26
tp752
a(F21.270000000000437
I25
tp753
a(F27.790000000000873
I24
tp754
aF40.0
tp755
sg41
((lp756
(F0.79000000000087311
I20
tp757
aF40.040000000000873
tp758
sg70
((lp759
(F0.42000000000189175
I8
tp760
aF40.040000000000873
tp761
sg95
((lp762
(F6.8699999999989814
I134
tp763
aF40.040000000000873
tp764
sg123
((lp765
(F0.069999999999708962
I41
tp766
a(F1.6499999999978172
I35
tp767
a(F2.7799999999988358
I33
tp768
a(F4.069999999999709
I31
tp769
a(F5.3999999999978172
I29
tp770
a(F7.7700000000004366
I27
tp771
a(F11.049999999999272
I25
tp772
a(F13.819999999999709
I23
tp773
aF40.0
tp774
ssba(imeasure_core
ProblemSetSolution
p775
(dp776
g3
g190
sg151
g740
sg153
(dp777
g194
((lp778
F40.25
tp779
sg254
((lp780
(F3.7199999999975262
I127
tp781
aF40.069999999999709
tp782
sg354
((lp783
(F2.4400000000023283
I64
tp784
aF40.25
tp785
sg410
((lp786
(F0.40000000000145519
I12
tp787
aF40.110000000000582
tp788
sg304
((lp789
(F0.11000000000058208
I25
tp790
aF40.009999999998399
tp791
ssba(imeasure_core
ProblemSetSolution
p792
(dp793
g3
g477
sg151
g740
sg153
(dp794
g481
((lp795
(F16.18999999999869
I113
tp796
aF40.0
tp797
sg537
((lp798
F42.209999999999127
tp799
sg585
((lp800
F42.280000000002474
tp801
sg633
((lp802
(F4.5799999999981083
I58
tp803
aF40.049999999999272
tp804
sg681
((lp805
(F23.450000000000728
I19
tp806
aF40.639999999999418
tp807
ssba(imeasure_core
ProblemSetSolution
p808
(dp809
g3
g4
sg151
S"AnytimeBeam-w20-gf(1.7, 'exp')_with_PowerHeuristic2"
p810
sg153
(dp811
g8
((lp812
(F0.11000000000058208
I45
tp813
a(F1.5500000000029104
I44
tp814
a(F2.2000000000007276
I37
tp815
a(F2.8200000000033469
I36
tp816
a(F3.4600000000027649
I34
tp817
a(F5.5700000000033469
I33
tp818
a(F7.8300000000017462
I31
tp819
a(F10.80000000000291
I30
tp820
a(F14.030000000002474
I28
tp821
a(F16.490000000001601
I26
tp822
a(F21.590000000000146
I25
tp823
a(F28.100000000002183
I24
tp824
aF40.0
tp825
sg41
((lp826
(F0.80000000000291038
I20
tp827
aF40.270000000000437
tp828
sg70
((lp829
(F0.42000000000189175
I8
tp830
aF40.200000000000728
tp831
sg95
((lp832
(F6.8400000000001455
I134
tp833
aF40.010000000002037
tp834
sg123
((lp835
(F0.059999999997671694
I41
tp836
a(F1.2399999999979627
I35
tp837
a(F2.3899999999994179
I33
tp838
a(F3.680000000000291
I31
tp839
a(F5.0099999999983993
I29
tp840
a(F7.3699999999989814
I27
tp841
a(F10.649999999997817
I25
tp842
a(F13.430000000000291
I23
tp843
aF40.0
tp844
ssba(imeasure_core
ProblemSetSolution
p845
(dp846
g3
g190
sg151
g810
sg153
(dp847
g194
((lp848
F40.169999999998254
tp849
sg254
((lp850
(F3.7299999999995634
I127
tp851
aF40.020000000000437
tp852
sg354
((lp853
(F2.4399999999986903
I64
tp854
aF40.18999999999869
tp855
sg410
((lp856
(F0.40000000000145519
I12
tp857
aF40.210000000002765
tp858
sg304
((lp859
(F0.11000000000058208
I25
tp860
aF40.0
tp861
ssba(imeasure_core
ProblemSetSolution
p862
(dp863
g3
g477
sg151
g810
sg153
(dp864
g481
((lp865
(F16.229999999999563
I113
tp866
aF40.130000000001019
tp867
sg537
((lp868
F42.469999999997526
tp869
sg585
((lp870
F42.480000000003201
tp871
sg633
((lp872
(F4.5899999999965075
I58
tp873
aF40.019999999996799
tp874
sg681
((lp875
(F23.420000000001892
I19
tp876
aF40.670000000001892
tp877
ssba(imeasure_core
ProblemSetSolution
p878
(dp879
g3
g4
sg151
S"AnytimeBeam-w20-gf(1.8999999999999999, 'exp')_with_PowerHeuristic2"
p880
sg153
(dp881
g8
((lp882
(F0.11000000000058208
I45
tp883
a(F1.0800000000017462
I44
tp884
a(F1.7400000000016007
I37
tp885
a(F2.3600000000005821
I36
tp886
a(F3.0
I34
tp887
a(F5.1100000000005821
I33
tp888
a(F7.3800000000010186
I31
tp889
a(F10.360000000000582
I30
tp890
a(F13.56000000000131
I28
tp891
a(F16.0
I26
tp892
a(F21.05000000000291
I25
tp893
a(F27.520000000000437
I24
tp894
aF40.0
tp895
sg41
((lp896
(F0.79000000000087311
I20
tp897
aF40.220000000001164
tp898
sg70
((lp899
(F0.41999999999825377
I8
tp900
aF40.139999999999418
tp901
sg95
((lp902
(F6.9000000000014552
I134
tp903
aF40.049999999999272
tp904
sg123
((lp905
(F0.060000000001309672
I41
tp906
a(F1.25
I35
tp907
a(F2.4099999999998545
I33
tp908
a(F3.6900000000023283
I31
tp909
a(F5.0100000000020373
I29
tp910
a(F7.3600000000005821
I27
tp911
a(F10.600000000002183
I25
tp912
a(F13.360000000000582
I23
tp913
aF40.0
tp914
ssba(imeasure_core
ProblemSetSolution
p915
(dp916
g3
g190
sg151
g880
sg153
(dp917
g194
((lp918
F40.180000000000291
tp919
sg254
((lp920
(F3.7299999999995634
I127
tp921
aF40.079999999998108
tp922
sg354
((lp923
(F2.4399999999986903
I64
tp924
aF40.009999999998399
tp925
sg410
((lp926
(F0.40000000000145519
I12
tp927
aF40.200000000000728
tp928
sg304
((lp929
(F0.11000000000058208
I25
tp930
aF40.010000000002037
tp931
ssba(imeasure_core
ProblemSetSolution
p932
(dp933
g3
g477
sg151
g880
sg153
(dp934
g481
((lp935
(F16.190000000002328
I113
tp936
aF40.25
tp937
sg537
((lp938
F42.330000000001746
tp939
sg585
((lp940
F42.470000000001164
tp941
sg633
((lp942
(F4.5799999999981083
I58
tp943
aF40.179999999996653
tp944
sg681
((lp945
(F23.620000000002619
I19
tp946
aF41.010000000002037
tp947
ssba(imeasure_core
ProblemSetSolution
p948
(dp949
g3
g4
sg151
S"AnytimeBeam-w20-gf(1.3, 'exp')_with_LinearHeuristic"
p950
sg153
(dp951
g8
((lp952
(F0.010000000002037268
I24
tp953
aF40.0
tp954
sg41
((lp955
F40.210000000002765
tp956
sg70
((lp957
(F0.36999999999898137
I4
tp958
aF40.019999999996799
tp959
sg95
((lp960
F40.040000000000873
tp961
sg123
((lp962
(F0.020000000000436557
I23
tp963
aF40.0
tp964
ssba(imeasure_core
ProblemSetSolution
p965
(dp966
g3
g190
sg151
g950
sg153
(dp967
g194
((lp968
F40.080000000001746
tp969
sg254
((lp970
(F32.409999999999854
I391
tp971
aF40.020000000000437
tp972
sg354
((lp973
F40.159999999999854
tp974
sg410
((lp975
F40.020000000000437
tp976
sg304
((lp977
(F0.68000000000029104
I60
tp978
aF40.009999999998399
tp979
ssba(imeasure_core
ProblemSetSolution
p980
(dp981
g3
g477
sg151
g950
sg153
(dp982
g481
((lp983
F40.110000000000582
tp984
sg537
((lp985
F43.899999999997817
tp986
sg585
((lp987
F45.770000000000437
tp988
sg633
((lp989
F40.0
tp990
sg681
((lp991
(F16.450000000000728
I10
tp992
aF41.040000000000873
tp993
ssba(imeasure_core
ProblemSetSolution
p994
(dp995
g3
g4
sg151
S"AnytimeBeam-w20-gf(1.5, 'exp')_with_LinearHeuristic"
p996
sg153
(dp997
g8
((lp998
(F0.020000000000436557
I24
tp999
aF40.0
tp1000
sg41
((lp1001
F40.240000000001601
tp1002
sg70
((lp1003
(F0.36999999999898137
I4
tp1004
aF40.090000000000146
tp1005
sg95
((lp1006
F40.039999999997235
tp1007
sg123
((lp1008
(F0.020000000000436557
I23
tp1009
aF40.0
tp1010
ssba(imeasure_core
ProblemSetSolution
p1011
(dp1012
g3
g190
sg151
g996
sg153
(dp1013
g194
((lp1014
F40.229999999999563
tp1015
sg254
((lp1016
(F32.510000000002037
I391
tp1017
aF40.030000000002474
tp1018
sg354
((lp1019
F40.069999999999709
tp1020
sg410
((lp1021
F40.05000000000291
tp1022
sg304
((lp1023
(F0.68000000000029104
I60
tp1024
aF40.009999999998399
tp1025
ssba(imeasure_core
ProblemSetSolution
p1026
(dp1027
g3
g477
sg151
g996
sg153
(dp1028
g481
((lp1029
F40.129999999997381
tp1030
sg537
((lp1031
F44.319999999999709
tp1032
sg585
((lp1033
F46.309999999997672
tp1034
sg633
((lp1035
F40.130000000004657
tp1036
sg681
((lp1037
(F16.559999999997672
I10
tp1038
aF41.440000000002328
tp1039
ssba(imeasure_core
ProblemSetSolution
p1040
(dp1041
g3
g4
sg151
S"AnytimeBeam-w20-gf(1.7, 'exp')_with_LinearHeuristic"
p1042
sg153
(dp1043
g8
((lp1044
(F0.010000000002037268
I24
tp1045
aF40.0
tp1046
sg41
((lp1047
F40.010000000002037
tp1048
sg70
((lp1049
(F0.37000000000261934
I4
tp1050
aF40.029999999998836
tp1051
sg95
((lp1052
F40.5
tp1053
sg123
((lp1054
(F0.010000000002037268
I23
tp1055
aF40.0
tp1056
ssba(imeasure_core
ProblemSetSolution
p1057
(dp1058
g3
g190
sg151
g1042
sg153
(dp1059
g194
((lp1060
F40.110000000000582
tp1061
sg254
((lp1062
(F32.840000000003783
I391
tp1063
aF40.080000000001746
tp1064
sg354
((lp1065
F40.110000000000582
tp1066
sg410
((lp1067
F40.19999999999709
tp1068
sg304
((lp1069
(F0.68999999999505235
I60
tp1070
aF40.0
tp1071
ssba(imeasure_core
ProblemSetSolution
p1072
(dp1073
g3
g477
sg151
g1042
sg153
(dp1074
g481
((lp1075
F40.150000000001455
tp1076
sg537
((lp1077
F44.309999999997672
tp1078
sg585
((lp1079
F46.489999999997963
tp1080
sg633
((lp1081
F40.330000000001746
tp1082
sg681
((lp1083
(F16.610000000000582
I10
tp1084
aF40.959999999999127
tp1085
ssba(imeasure_core
ProblemSetSolution
p1086
(dp1087
g3
g4
sg151
S"AnytimeBeam-w20-gf(1.8999999999999999, 'exp')_with_LinearHeuristic"
p1088
sg153
(dp1089
g8
((lp1090
(F0.020000000004074536
I24
tp1091
aF40.0
tp1092
sg41
((lp1093
F40.059999999997672
tp1094
sg70
((lp1095
(F0.37000000000261934
I4
tp1096
aF40.090000000003783
tp1097
sg95
((lp1098
F40.069999999999709
tp1099
sg123
((lp1100
(F0.019999999996798579
I23
tp1101
aF40.0
tp1102
ssba(imeasure_core
ProblemSetSolution
p1103
(dp1104
g3
g190
sg151
g1088
sg153
(dp1105
g194
((lp1106
F40.080000000001746
tp1107
sg254
((lp1108
(F32.69999999999709
I391
tp1109
aF40.07999999999447
tp1110
sg354
((lp1111
F40.130000000004657
tp1112
sg410
((lp1113
F40.069999999999709
tp1114
sg304
((lp1115
(F0.69000000000232831
I60
tp1116
aF40.0
tp1117
ssba(imeasure_core
ProblemSetSolution
p1118
(dp1119
g3
g477
sg151
g1088
sg153
(dp1120
g481
((lp1121
F40.059999999997672
tp1122
sg537
((lp1123
F43.930000000000291
tp1124
sg585
((lp1125
F45.910000000003492
tp1126
sg633
((lp1127
F40.309999999997672
tp1128
sg681
((lp1129
(F16.459999999999127
I10
tp1130
aF40.769999999996799
tp1131
ssba.