(lp0
(imeasure_core
ProblemSetSolution
p1
(dp2
S'roomset'
p3
(imeasure_core
RoomSet
p4
(dp5
S'rooms'
p6
(dp7
(iproblems
RoomID
p8
(dp9
S'width'
p10
I9
sS'dusts'
p11
I8
sS'seed'
p12
I3433768247134474666
sS'obstacles'
p13
(I1
I6
tp14
sS'robots'
p15
I4
sS'height'
p16
I10
sb(imulti_robot_problem
MultiRobotState
p17
(dp18
S'obstacle_locations'
p19
c__builtin__
frozenset
p20
((lp21
(I4
I9
tp22
a(I4
I6
tp23
a(I0
I7
tp24
ag14
a(I0
I9
tp25
a(I8
I6
tp26
a(I0
I8
tp27
a(I3
I3
tp28
atp29
Rp30
sg10
I9
sS'dirt_locations'
p31
g20
((lp32
(I5
I4
tp33
a(I3
I2
tp34
a(I7
I7
tp35
a(I1
I9
tp36
a(I8
I7
tp37
a(I1
I1
tp38
a(I5
I8
tp39
a(I7
I9
tp40
atp41
Rp42
sg15
((I5
I9
tp43
(I5
I5
tp44
(I6
I9
tp45
(I2
I0
tp46
tp47
sg16
I10
sbs(iproblems
RoomID
p48
(dp49
g10
I9
sg11
I7
sg12
I6241004153072892496
sg13
(I2
I2
tp50
sg15
I3
sg16
I9
sb(imulti_robot_problem
MultiRobotState
p51
(dp52
g19
g20
((lp53
(I7
I3
tp54
a(I3
I2
tp55
a(I7
I1
tp56
a(I7
I7
tp57
ag50
a(I5
I1
tp58
a(I4
I1
tp59
atp60
Rp61
sg10
I9
sg31
g20
((lp62
(I4
I8
tp63
a(I5
I7
tp64
a(I6
I0
tp65
a(I3
I8
tp66
a(I1
I5
tp67
a(I3
I7
tp68
a(I3
I4
tp69
atp70
Rp71
sg15
((I6
I5
tp72
(I4
I3
tp73
(I3
I5
tp74
tp75
sg16
I9
sbs(iproblems
RoomID
p76
(dp77
g10
I8
sg11
I9
sg12
I6161655336973386967
sg13
(I4
I3
tp78
sg15
I3
sg16
I9
sb(imulti_robot_problem
MultiRobotState
p79
(dp80
g19
g20
((lp81
(I7
I3
tp82
a(I5
I4
tp83
a(I6
I6
tp84
a(I2
I1
tp85
a(I6
I3
tp86
ag78
a(I5
I2
tp87
atp88
Rp89
sg10
I8
sg31
g20
((lp90
(I6
I4
tp91
a(I6
I8
tp92
a(I2
I0
tp93
a(I5
I7
tp94
a(I1
I4
tp95
a(I1
I5
tp96
a(I0
I5
tp97
a(I2
I5
tp98
a(I4
I1
tp99
atp100
Rp101
sg15
((I3
I5
tp102
(I4
I6
tp103
(I4
I5
tp104
tp105
sg16
I9
sbs(iproblems
RoomID
p106
(dp107
g10
I10
sg11
I10
sg12
I3125140389427113411
sg13
(I6
I4
tp108
sg15
I4
sg16
I7
sb(imulti_robot_problem
MultiRobotState
p109
(dp110
g19
g20
((lp111
(I6
I3
tp112
a(I5
I1
tp113
a(I5
I2
tp114
ag108
atp115
Rp116
sg10
I10
sg31
g20
((lp117
(I1
I2
tp118
a(I7
I3
tp119
a(I0
I0
tp120
a(I3
I3
tp121
a(I6
I2
tp122
a(I1
I6
tp123
a(I9
I4
tp124
a(I2
I5
tp125
a(I0
I2
tp126
a(I7
I2
tp127
atp128
Rp129
sg15
((I9
I0
tp130
(I6
I5
tp131
(I1
I4
tp132
(I1
I3
tp133
tp134
sg16
I7
sbs(iproblems
RoomID
p135
(dp136
g10
I9
sg11
I6
sg12
I8554152435637441414
sg13
(I7
I4
tp137
sg15
I4
sg16
I8
sb(imulti_robot_problem
MultiRobotState
p138
(dp139
g19
g20
((lp140
(I6
I6
tp141
a(I5
I7
tp142
ag137
a(I2
I0
tp143
a(I7
I5
tp144
a(I3
I7
tp145
a(I0
I3
tp146
a(I4
I1
tp147
atp148
Rp149
sg10
I9
sg31
g20
((lp150
(I7
I3
tp151
a(I1
I6
tp152
a(I5
I1
tp153
a(I8
I6
tp154
a(I0
I2
tp155
a(I4
I0
tp156
atp157
Rp158
sg15
((I5
I3
tp159
(I6
I2
tp160
(I6
I3
tp161
(I6
I4
tp162
tp163
sg16
I8
sbssS'name'
p164
S'easy_roomset'
p165
sbsS'name'
p166
S"AnytimeBeam-w20-gf(1.3, 'exp')_with_PowerHeuristic2"
p167
sS'solutions'
p168
(dp169
g8
((lp170
(F0.41999999999825377
I10
tp171
aF40.099999999998545
tp172
sg48
((lp173
(F0.11000000000058208
I8
tp174
aF40.059999999997672
tp175
sg76
((lp176
(F0.71000000000640284
I48
tp177
aF40.010000000002037
tp178
sg106
((lp179
(F0.58000000000174623
I13
tp180
aF40.389999999999418
tp181
sg135
((lp182
(F0.27999999999883585
I8
tp183
aF40.110000000000582
tp184
ssba(imeasure_core
ProblemSetSolution
p185
(dp186
g3
(imeasure_core
RoomSet
p187
(dp188
S'rooms'
p189
(dp190
(iproblems
RoomID
p191
(dp192
S'width'
p193
I9
sS'dusts'
p194
I10
sS'seed'
p195
I4927760411464392432
sS'obstacles'
p196
(I1
I6
tp197
sS'robots'
p198
I3
sS'height'
p199
I12
sb(imulti_robot_problem
MultiRobotState
p200
(dp201
S'obstacle_locations'
p202
g20
((lp203
(I5
I9
tp204
a(I1
I3
tp205
a(I7
I7
tp206
ag197
a(I3
I7
tp207
a(I2
I5
tp208
a(I2
I9
tp209
a(I3
I10
tp210
a(I6
I10
tp211
a(I3
I6
tp212
a(I2
I2
tp213
a(I4
I5
tp214
a(I6
I0
tp215
a(I3
I9
tp216
a(I2
I3
tp217
a(I8
I7
tp218
a(I7
I9
tp219
a(I4
I6
tp220
a(I3
I1
tp221
a(I2
I11
tp222
a(I3
I8
tp223
a(I0
I6
tp224
a(I3
I4
tp225
a(I7
I6
tp226
atp227
Rp228
sg193
I9
sS'dirt_locations'
p229
g20
((lp230
(I1
I2
tp231
a(I6
I4
tp232
a(I6
I9
tp233
a(I8
I2
tp234
a(I8
I0
tp235
a(I0
I9
tp236
a(I1
I10
tp237
a(I1
I0
tp238
a(I0
I2
tp239
a(I4
I11
tp240
atp241
Rp242
sg198
((I1
I11
tp243
(I0
I11
tp244
(I7
I5
tp245
tp246
sg199
I12
sbs(iproblems
RoomID
p247
(dp248
g193
I11
sg194
I8
sg195
I3433768247134474666
sg196
(I1
I11
tp249
sg198
I4
sg199
I12
sb(imulti_robot_problem
MultiRobotState
p250
(dp251
g202
g20
((lp252
(I5
I0
tp253
a(I4
I8
tp254
a(I2
I8
tp255
a(I10
I6
tp256
a(I0
I10
tp257
a(I9
I4
tp258
a(I3
I7
tp259
ag249
a(I10
I3
tp260
a(I5
I8
tp261
a(I6
I7
tp262
a(I2
I9
tp263
a(I0
I11
tp264
a(I3
I6
tp265
a(I10
I4
tp266
a(I4
I5
tp267
a(I9
I3
tp268
a(I2
I10
tp269
a(I2
I3
tp270
a(I8
I7
tp271
a(I4
I9
tp272
a(I9
I6
tp273
a(I4
I11
tp274
a(I2
I7
tp275
a(I10
I5
tp276
a(I3
I8
tp277
a(I1
I8
tp278
a(I8
I8
tp279
a(I0
I9
tp280
a(I7
I8
tp281
atp282
Rp283
sg193
I11
sg229
g20
((lp284
(I4
I3
tp285
a(I5
I11
tp286
a(I9
I8
tp287
a(I2
I11
tp288
a(I9
I11
tp289
a(I7
I10
tp290
a(I1
I1
tp291
a(I6
I5
tp292
atp293
Rp294
sg198
((I7
I11
tp295
(I7
I7
tp296
(I2
I0
tp297
(I10
I9
tp298
tp299
sg199
I12
sbs(iproblems
RoomID
p300
(dp301
g193
I11
sg194
I6
sg195
I8554152435637441414
sg196
(I5
I4
tp302
sg198
I4
sg199
I10
sb(imulti_robot_problem
MultiRobotState
p303
(dp304
g202
g20
((lp305
(I2
I8
tp306
a(I7
I7
tp307
a(I0
I7
tp308
a(I6
I2
tp309
a(I3
I7
tp310
a(I5
I1
tp311
a(I0
I3
tp312
a(I8
I5
tp313
a(I4
I9
tp314
a(I6
I3
tp315
a(I3
I6
tp316
a(I8
I6
tp317
a(I10
I9
tp318
a(I6
I4
tp319
ag302
a(I4
I5
tp320
a(I9
I3
tp321
a(I7
I5
tp322
a(I2
I1
tp323
a(I5
I3
tp324
a(I8
I3
tp325
a(I7
I0
tp326
a(I6
I8
tp327
a(I3
I8
tp328
a(I7
I8
tp329
atp330
Rp331
sg193
I11
sg229
g20
((lp332
(I1
I3
tp333
a(I9
I4
tp334
a(I3
I0
tp335
a(I5
I0
tp336
a(I4
I2
tp337
a(I7
I2
tp338
atp339
Rp340
sg198
((I8
I2
tp341
(I8
I4
tp342
(I9
I7
tp343
(I0
I2
tp344
tp345
sg199
I10
sbs(iproblems
RoomID
p346
(dp347
g193
I12
sg194
I10
sg195
I3125140389427113411
sg196
(I5
I4
tp348
sg198
I4
sg199
I9
sb(imulti_robot_problem
MultiRobotState
p349
(dp350
g202
g20
((lp351
(I7
I3
tp352
a(I4
I7
tp353
a(I6
I6
tp354
a(I5
I6
tp355
a(I6
I2
tp356
a(I3
I7
tp357
a(I5
I1
tp358
a(I2
I5
tp359
a(I6
I7
tp360
a(I3
I3
tp361
a(I10
I7
tp362
a(I8
I6
tp363
a(I5
I3
tp364
a(I6
I4
tp365
ag348
a(I2
I6
tp366
a(I1
I4
tp367
a(I10
I1
tp368
a(I6
I5
tp369
a(I5
I5
tp370
a(I2
I7
tp371
a(I6
I1
tp372
a(I7
I4
tp373
a(I9
I5
tp374
a(I5
I2
tp375
a(I8
I4
tp376
atp377
Rp378
sg193
I12
sg229
g20
((lp379
(I0
I0
tp380
a(I11
I4
tp381
a(I8
I2
tp382
a(I3
I0
tp383
a(I6
I0
tp384
a(I1
I8
tp385
a(I2
I3
tp386
a(I0
I3
tp387
a(I11
I6
tp388
a(I3
I5
tp389
atp390
Rp391
sg198
((I11
I0
tp392
(I7
I7
tp393
(I1
I5
tp394
(I2
I4
tp395
tp396
sg199
I9
sbs(iproblems
RoomID
p397
(dp398
g193
I11
sg194
I7
sg195
I6241004153072892496
sg196
(I10
I3
tp399
sg198
I3
sg199
I11
sb(imulti_robot_problem
MultiRobotState
p400
(dp401
g202
g20
((lp402
(I9
I8
tp403
a(I7
I7
tp404
a(I8
I9
tp405
a(I6
I2
tp406
a(I9
I4
tp407
a(I5
I1
tp408
a(I0
I3
tp409
a(I8
I5
tp410
a(I1
I2
tp411
a(I5
I5
tp412
a(I10
I7
tp413
ag399
a(I8
I6
tp414
a(I3
I2
tp415
a(I0
I0
tp416
a(I2
I3
tp417
a(I4
I2
tp418
a(I6
I1
tp419
a(I1
I8
tp420
a(I8
I8
tp421
a(I9
I5
tp422
a(I7
I8
tp423
a(I2
I4
tp424
atp425
Rp426
sg193
I11
sg229
g20
((lp427
(I4
I10
tp428
a(I6
I9
tp429
a(I4
I9
tp430
a(I9
I1
tp431
a(I3
I10
tp432
a(I8
I0
tp433
a(I5
I10
tp434
atp435
Rp436
sg198
((I5
I4
tp437
(I4
I6
tp438
(I1
I6
tp439
tp440
sg199
I11
sbssS'name'
p441
S'mild_roomset'
p442
sbsg166
g167
sg168
(dp443
g191
((lp444
F40.010000000002037
tp445
sg247
((lp446
(F1.0299999999988358
I30
tp447
aF40.129999999997381
tp448
sg300
((lp449
(F2.430000000000291
I55
tp450
aF40.330000000001746
tp451
sg346
((lp452
(F31.989999999997963
I288
tp453
aF40.019999999996799
tp454
sg397
((lp455
(F0.25
I13
tp456
aF40.059999999997672
tp457
ssba(imeasure_core
ProblemSetSolution
p458
(dp459
g3
(imeasure_core
RoomSet
p460
(dp461
S'rooms'
p462
(dp463
(iproblems
RoomID
p464
(dp465
S'width'
p466
I10
sS'dusts'
p467
I15
sS'seed'
p468
I4927760411464392432
sS'obstacles'
p469
(I3
I3
tp470
sS'robots'
p471
I5
sS'height'
p472
I13
sb(imulti_robot_problem
MultiRobotState
p473
(dp474
S'obstacle_locations'
p475
g20
((lp476
(I1
I2
tp477
a(I3
I1
tp478
ag470
a(I6
I11
tp479
a(I7
I6
tp480
a(I6
I10
tp481
a(I3
I11
tp482
a(I2
I1
tp483
a(I2
I10
tp484
a(I3
I9
tp485
a(I2
I3
tp486
a(I1
I7
tp487
a(I1
I3
tp488
a(I1
I0
tp489
a(I3
I10
tp490
a(I1
I1
tp491
a(I9
I12
tp492
a(I4
I0
tp493
atp494
Rp495
sg466
I10
sS'dirt_locations'
p496
g20
((lp497
(I9
I0
tp498
a(I7
I0
tp499
a(I5
I5
tp500
a(I4
I12
tp501
a(I0
I10
tp502
a(I8
I10
tp503
a(I1
I4
tp504
a(I8
I8
tp505
a(I2
I12
tp506
a(I8
I7
tp507
a(I1
I10
tp508
a(I7
I11
tp509
a(I9
I7
tp510
a(I0
I2
tp511
a(I8
I2
tp512
atp513
Rp514
sg471
((I1
I12
tp515
(I0
I12
tp516
(I8
I5
tp517
(I7
I9
tp518
(I7
I4
tp519
tp520
sg472
I13
sbs(iproblems
RoomID
p521
(dp522
g466
I12
sg467
I13
sg468
I3433768247134474666
sg469
(I4
I11
tp523
sg471
I6
sg472
I13
sb(imulti_robot_problem
MultiRobotState
p524
(dp525
g475
g20
((lp526
(I4
I10
tp527
a(I11
I3
tp528
a(I3
I12
tp529
a(I5
I11
tp530
a(I6
I11
tp531
a(I11
I7
tp532
a(I9
I8
tp533
a(I8
I8
tp534
a(I6
I0
tp535
a(I0
I12
tp536
a(I1
I1
tp537
a(I0
I11
tp538
a(I4
I12
tp539
a(I2
I3
tp540
a(I2
I12
tp541
a(I1
I6
tp542
a(I0
I10
tp543
a(I10
I3
tp544
a(I3
I10
tp545
ag523
a(I1
I9
tp546
atp547
Rp548
sg466
I12
sg496
g20
((lp549
(I10
I8
tp550
a(I10
I5
tp551
a(I6
I7
tp552
a(I6
I8
tp553
a(I4
I4
tp554
a(I10
I12
tp555
a(I5
I10
tp556
a(I9
I9
tp557
a(I7
I5
tp558
a(I7
I10
tp559
a(I6
I12
tp560
a(I8
I10
tp561
a(I5
I3
tp562
atp563
Rp564
sg471
((I7
I12
tp565
(I7
I7
tp566
(I8
I12
tp567
(I2
I0
tp568
(I11
I9
tp569
(I1
I2
tp570
tp571
sg472
I13
sbs(iproblems
RoomID
p572
(dp573
g466
I12
sg467
I11
sg468
I8554152435637441414
sg469
(I3
I6
tp574
sg471
I7
sg472
I11
sb(imulti_robot_problem
MultiRobotState
p575
(dp576
g475
g20
((lp577
(I2
I8
tp578
a(I11
I2
tp579
a(I9
I4
tp580
a(I3
I7
tp581
a(I5
I1
tp582
a(I3
I8
tp583
a(I7
I6
tp584
a(I4
I4
tp585
a(I6
I3
tp586
ag574
a(I0
I4
tp587
a(I8
I6
tp588
a(I9
I7
tp589
a(I4
I5
tp590
a(I7
I5
tp591
a(I9
I6
tp592
a(I7
I9
tp593
a(I3
I1
tp594
a(I7
I4
tp595
a(I1
I8
tp596
a(I8
I8
tp597
a(I1
I7
tp598
a(I0
I9
tp599
atp600
Rp601
sg466
I12
sg496
g20
((lp602
(I11
I10
tp603
a(I4
I9
tp604
a(I2
I9
tp605
a(I3
I0
tp606
a(I8
I0
tp607
a(I4
I7
tp608
a(I1
I4
tp609
a(I0
I3
tp610
a(I0
I8
tp611
a(I5
I2
tp612
a(I7
I2
tp613
atp614
Rp615
sg471
((I6
I4
tp616
(I8
I2
tp617
(I8
I5
tp618
(I10
I8
tp619
(I1
I2
tp620
(I6
I0
tp621
(I10
I4
tp622
tp623
sg472
I11
sbs(iproblems
RoomID
p624
(dp625
g466
I13
sg467
I15
sg468
I3125140389427113411
sg469
(I1
I6
tp626
sg471
I6
sg472
I10
sb(imulti_robot_problem
MultiRobotState
p627
(dp628
g475
g20
((lp629
(I7
I3
tp630
a(I3
I3
tp631
a(I2
I0
tp632
a(I6
I1
tp633
a(I1
I4
tp634
a(I7
I4
tp635
a(I1
I5
tp636
a(I11
I1
tp637
a(I2
I3
tp638
a(I0
I7
tp639
a(I8
I7
tp640
a(I6
I2
tp641
ag626
atp642
Rp643
sg466
I13
sg496
g20
((lp644
(I0
I1
tp645
a(I2
I6
tp646
a(I2
I9
tp647
a(I11
I8
tp648
a(I2
I8
tp649
a(I9
I3
tp650
a(I6
I0
tp651
a(I7
I7
tp652
a(I6
I3
tp653
a(I3
I0
tp654
a(I12
I4
tp655
a(I0
I4
tp656
a(I9
I7
tp657
a(I2
I4
tp658
a(I9
I2
tp659
atp660
Rp661
sg471
((I12
I0
tp662
(I7
I8
tp663
(I2
I5
tp664
(I4
I5
tp665
(I12
I7
tp666
(I9
I4
tp667
tp668
sg472
I10
sbs(iproblems
RoomID
p669
(dp670
g466
I12
sg467
I12
sg468
I6241004153072892496
sg469
(I3
I3
tp671
sg471
I6
sg472
I12
sb(imulti_robot_problem
MultiRobotState
p672
(dp673
g475
g20
((lp674
(I3
I1
tp675
ag671
a(I2
I9
tp676
a(I7
I1
tp677
a(I11
I8
tp678
a(I5
I2
tp679
a(I6
I1
tp680
a(I9
I3
tp681
a(I8
I5
tp682
a(I4
I3
tp683
a(I4
I2
tp684
a(I3
I4
tp685
a(I11
I6
tp686
atp687
Rp688
sg466
I12
sg496
g20
((lp689
(I4
I10
tp690
a(I0
I0
tp691
a(I8
I7
tp692
a(I5
I11
tp693
a(I8
I0
tp694
a(I9
I10
tp695
a(I7
I10
tp696
a(I10
I1
tp697
a(I2
I5
tp698
a(I8
I9
tp699
a(I4
I11
tp700
a(I10
I4
tp701
atp702
Rp703
sg471
((I8
I6
tp704
(I5
I4
tp705
(I7
I2
tp706
(I4
I7
tp707
(I1
I7
tp708
(I5
I6
tp709
tp710
sg472
I12
sbssS'name'
p711
S'heavy_roomset'
p712
sbsg166
g167
sg168
(dp713
g464
((lp714
F40.400000000001455
tp715
sg521
((lp716
(F18.459999999999127
I17
tp717
aF41.779999999998836
tp718
sg572
((lp719
(F38.309999999997672
I14
tp720
aF45.139999999999418
tp721
sg624
((lp722
(F18.380000000004657
I29
tp723
aF41.180000000000291
tp724
sg669
((lp725
F40.090000000003783
tp726
ssba(imeasure_core
ProblemSetSolution
p727
(dp728
g3
g4
sg166
S"AnytimeBeam-w20-gf(1.5, 'exp')_with_PowerHeuristic2"
p729
sg168
(dp730
g8
((lp731
(F0.41999999999825377
I10
tp732
aF40.229999999995925
tp733
sg48
((lp734
(F0.099999999998544808
I8
tp735
aF40.060000000004948
tp736
sg76
((lp737
(F0.7199999999938882
I48
tp738
aF40.089999999996508
tp739
sg106
((lp740
(F0.58000000000174623
I13
tp741
aF40.160000000003492
tp742
sg135
((lp743
(F0.28999999999359716
I8
tp744
aF40.419999999998254
tp745
ssba(imeasure_core
ProblemSetSolution
p746
(dp747
g3
g187
sg166
g729
sg168
(dp748
g191
((lp749
F40.009999999994761
tp750
sg247
((lp751
(F1.0200000000040745
I30
tp752
aF40.070000000006985
tp753
sg300
((lp754
(F2.4599999999991269
I55
tp755
aF40.25
tp756
sg346
((lp757
(F34.089999999996508
I288
tp758
aF40.0
tp759
sg397
((lp760
(F0.23999999999796273
I13
tp761
aF40.029999999998836
tp762
ssba(imeasure_core
ProblemSetSolution
p763
(dp764
g3
g460
sg166
g729
sg168
(dp765
g464
((lp766
F40.360000000000582
tp767
sg521
((lp768
(F18.459999999999127
I17
tp769
aF41.810000000004948
tp770
sg572
((lp771
(F38.290000000000873
I14
tp772
aF45.129999999997381
tp773
sg624
((lp774
(F18.440000000002328
I29
tp775
aF41.339999999996508
tp776
sg669
((lp777
F40.0
tp778
ssba(imeasure_core
ProblemSetSolution
p779
(dp780
g3
g4
sg166
S"AnytimeBeam-w20-gf(1.7, 'exp')_with_PowerHeuristic2"
p781
sg168
(dp782
g8
((lp783
(F0.41999999999825377
I10
tp784
aF40.220000000001164
tp785
sg48
((lp786
(F0.11000000000058208
I8
tp787
aF40.040000000000873
tp788
sg76
((lp789
(F0.72000000000116415
I48
tp790
aF40.150000000001455
tp791
sg106
((lp792
(F0.56999999999970896
I13
tp793
aF40.150000000001455
tp794
sg135
((lp795
(F0.27999999999883585
I8
tp796
aF40.169999999998254
tp797
ssba(imeasure_core
ProblemSetSolution
p798
(dp799
g3
g187
sg166
g781
sg168
(dp800
g191
((lp801
F40.009999999994761
tp802
sg247
((lp803
(F1.0300000000061118
I30
tp804
aF40.030000000006112
tp805
sg300
((lp806
(F2.4599999999991269
I55
tp807
aF40.389999999999418
tp808
sg346
((lp809
(F37.729999999995925
I281
tp810
aF40.0
tp811
sg397
((lp812
(F0.23999999999796273
I13
tp813
aF40.009999999994761
tp814
ssba(imeasure_core
ProblemSetSolution
p815
(dp816
g3
g460
sg166
g781
sg168
(dp817
g464
((lp818
F40.330000000001746
tp819
sg521
((lp820
(F18.389999999999418
I17
tp821
aF42.129999999997381
tp822
sg572
((lp823
(F38.110000000000582
I14
tp824
aF44.930000000000291
tp825
sg624
((lp826
(F18.410000000003492
I29
tp827
aF42.290000000000873
tp828
sg669
((lp829
F40.05000000000291
tp830
ssba(imeasure_core
ProblemSetSolution
p831
(dp832
g3
g4
sg166
S"AnytimeBeam-w20-gf(1.8999999999999999, 'exp')_with_PowerHeuristic2"
p833
sg168
(dp834
g8
((lp835
(F0.41000000000349246
I10
tp836
aF40.069999999999709
tp837
sg48
((lp838
(F0.10000000000582077
I8
tp839
aF40.070000000006985
tp840
sg76
((lp841
(F0.7199999999938882
I48
tp842
aF40.0
tp843
sg106
((lp844
(F0.56999999999970896
I13
tp845
aF40.069999999999709
tp846
sg135
((lp847
(F0.28999999999359716
I8
tp848
aF40.439999999995052
tp849
ssba(imeasure_core
ProblemSetSolution
p850
(dp851
g3
g187
sg166
g833
sg168
(dp852
g191
((lp853
F40.010000000002037
tp854
sg247
((lp855
(F1.0299999999988358
I30
tp856
aF40.149999999994179
tp857
sg300
((lp858
(F2.4500000000043656
I55
tp859
aF40.160000000003492
tp860
sg346
((lp861
F40.029999999998836
tp862
sg397
((lp863
(F0.25
I13
tp864
aF40.0
tp865
ssba(imeasure_core
ProblemSetSolution
p866
(dp867
g3
g460
sg166
g833
sg168
(dp868
g464
((lp869
F40.410000000003492
tp870
sg521
((lp871
(F18.419999999998254
I17
tp872
aF40.089999999996508
tp873
sg572
((lp874
(F38.220000000001164
I14
tp875
aF45.020000000004075
tp876
sg624
((lp877
(F18.399999999994179
I29
tp878
aF42.409999999996217
tp879
sg669
((lp880
F40.029999999998836
tp881
ssba(imeasure_core
ProblemSetSolution
p882
(dp883
g3
g4
sg166
S"AnytimeBeam-w20-gf(1.3, 'exp')_with_LinearHeuristic"
p884
sg168
(dp885
g8
((lp886
(F1.2399999999979627
I29
tp887
aF40.370000000002619
tp888
sg48
((lp889
(F0.12999999999738066
I7
tp890
aF40.019999999996799
tp891
sg76
((lp892
(F31.029999999998836
I256
tp893
aF40.099999999998545
tp894
sg106
((lp895
F40.080000000001746
tp896
sg135
((lp897
F40.019999999996799
tp898
ssba(imeasure_core
ProblemSetSolution
p899
(dp900
g3
g187
sg166
g884
sg168
(dp901
g191
((lp902
F40.0
tp903
sg247
((lp904
F40.040000000000873
tp905
sg300
((lp906
(F0.31999999999970896
I8
tp907
aF40.150000000001455
tp908
sg346
((lp909
F40.230000000003201
tp910
sg397
((lp911
(F0.50999999999476131
I27
tp912
aF40.0
tp913
ssba(imeasure_core
ProblemSetSolution
p914
(dp915
g3
g460
sg166
g884
sg168
(dp916
g464
((lp917
F40.349999999998545
tp918
sg521
((lp919
F40.479999999995925
tp920
sg572
((lp921
F40.060000000004948
tp922
sg624
((lp923
F40.269999999996799
tp924
sg669
((lp925
(F18.610000000000582
I10
tp926
aF41.169999999998254
tp927
ssba(imeasure_core
ProblemSetSolution
p928
(dp929
g3
g4
sg166
S"AnytimeBeam-w20-gf(1.5, 'exp')_with_LinearHeuristic"
p930
sg168
(dp931
g8
((lp932
(F1.2400000000052387
I29
tp933
aF40.030000000006112
tp934
sg48
((lp935
(F0.12999999999738066
I7
tp936
aF40.0
tp937
sg76
((lp938
(F31.290000000000873
I256
tp939
aF40.07999999999447
tp940
sg106
((lp941
F40.010000000002037
tp942
sg135
((lp943
F40.139999999999418
tp944
ssba(imeasure_core
ProblemSetSolution
p945
(dp946
g3
g187
sg166
g930
sg168
(dp947
g191
((lp948
F40.089999999996508
tp949
sg247
((lp950
F40.060000000004948
tp951
sg300
((lp952
(F0.29999999999563443
I8
tp953
aF40.049999999995634
tp954
sg346
((lp955
F40.190000000002328
tp956
sg397
((lp957
(F0.51000000000203727
I27
tp958
aF40.069999999999709
tp959
ssba(imeasure_core
ProblemSetSolution
p960
(dp961
g3
g460
sg166
g930
sg168
(dp962
g464
((lp963
F40.25
tp964
sg521
((lp965
F40.319999999999709
tp966
sg572
((lp967
F40.349999999998545
tp968
sg624
((lp969
F40.220000000001164
tp970
sg669
((lp971
(F18.610000000000582
I10
tp972
aF41.180000000000291
tp973
ssba(imeasure_core
ProblemSetSolution
p974
(dp975
g3
g4
sg166
S"AnytimeBeam-w20-gf(1.7, 'exp')_with_LinearHeuristic"
p976
sg168
(dp977
g8
((lp978
(F1.2299999999959255
I29
tp979
aF40.0
tp980
sg48
((lp981
(F0.12999999999738066
I7
tp982
aF40.059999999997672
tp983
sg76
((lp984
(F31.309999999997672
I256
tp985
aF40.019999999996799
tp986
sg106
((lp987
F40.110000000000582
tp988
sg135
((lp989
F40.069999999999709
tp990
ssba(imeasure_core
ProblemSetSolution
p991
(dp992
g3
g187
sg166
g976
sg168
(dp993
g191
((lp994
F40.010000000002037
tp995
sg247
((lp996
F40.119999999995343
tp997
sg300
((lp998
(F0.31999999999970896
I8
tp999
aF40.17000000000553
tp1000
sg346
((lp1001
F40.680000000000291
tp1002
sg397
((lp1003
(F0.51999999999679858
I27
tp1004
aF40.069999999999709
tp1005
ssba(imeasure_core
ProblemSetSolution
p1006
(dp1007
g3
g460
sg166
g976
sg168
(dp1008
g464
((lp1009
F40.150000000001455
tp1010
sg521
((lp1011
F40.379999999997381
tp1012
sg572
((lp1013
F40.440000000002328
tp1014
sg624
((lp1015
F40.220000000001164
tp1016
sg669
((lp1017
(F18.620000000002619
I10
tp1018
aF42.709999999999127
tp1019
ssba(imeasure_core
ProblemSetSolution
p1020
(dp1021
g3
g4
sg166
S"AnytimeBeam-w20-gf(1.8999999999999999, 'exp')_with_LinearHeuristic"
p1022
sg168
(dp1023
g8
((lp1024
(F1.2299999999959255
I29
tp1025
aF40.189999999995052
tp1026
sg48
((lp1027
(F0.13000000000465661
I7
tp1028
aF40.020000000004075
tp1029
sg76
((lp1030
(F31.099999999998545
I256
tp1031
aF40.029999999998836
tp1032
sg106
((lp1033
F40.0
tp1034
sg135
((lp1035
F40.129999999997381
tp1036
ssba(imeasure_core
ProblemSetSolution
p1037
(dp1038
g3
g187
sg166
g1022
sg168
(dp1039
g191
((lp1040
F40.110000000000582
tp1041
sg247
((lp1042
F40.150000000001455
tp1043
sg300
((lp1044
(F0.31999999999970896
I8
tp1045
aF40.040000000000873
tp1046
sg346
((lp1047
F40.080000000001746
tp1048
sg397
((lp1049
(F0.51999999999679858
I27
tp1050
aF40.089999999996508
tp1051
ssba(imeasure_core
ProblemSetSolution
p1052
(dp1053
g3
g460
sg166
g1022
sg168
(dp1054
g464
((lp1055
F40.309999999997672
tp1056
sg521
((lp1057
F40.209999999999127
tp1058
sg572
((lp1059
F40.220000000001164
tp1060
sg624
((lp1061
F40.069999999999709
tp1062
sg669
((lp1063
(F18.55000000000291
I10
tp1064
aF42.650000000001455
tp1065
ssba.