(lp0
(imeasure_core
ProblemSetSolution
p1
(dp2
S'roomset'
p3
(imeasure_core
RoomSet
p4
(dp5
S'rooms'
p6
(dp7
(iproblems
RoomID
p8
(dp9
S'dusts'
p10
I8
sS'obstacles'
p11
(I5
I7
tp12
sS'robots'
p13
I5
sS'height'
p14
I9
sS'width'
p15
I10
sS'seed'
p16
I5594871498841892311
sb(imulti_robot_problem
MultiRobotState
p17
(dp18
S'obstacle_locations'
p19
c__builtin__
frozenset
p20
((lp21
(I4
I7
tp22
a(I3
I6
tp23
a(I5
I1
tp24
a(I1
I0
tp25
ag12
a(I8
I3
tp26
a(I5
I8
tp27
atp28
Rp29
sg15
I10
sS'dirt_locations'
p30
g20
((lp31
(I0
I1
tp32
a(I9
I0
tp33
a(I8
I2
tp34
a(I6
I0
tp35
a(I1
I1
tp36
a(I1
I5
tp37
a(I9
I4
tp38
a(I2
I4
tp39
atp40
Rp41
sg13
((I7
I6
tp42
(I8
I4
tp43
(I5
I4
tp44
(I7
I2
tp45
(I7
I8
tp46
tp47
sg14
I9
sbs(iproblems
RoomID
p48
(dp49
g10
I6
sg11
(I4
I4
tp50
sg13
I5
sg14
I7
sg15
I8
sg16
I8833747186876682921
sb(imulti_robot_problem
MultiRobotState
p51
(dp52
g19
g20
((lp53
(I2
I2
tp54
ag50
a(I3
I4
tp55
a(I3
I3
tp56
a(I3
I5
tp57
atp58
Rp59
sg15
I8
sg30
g20
((lp60
(I6
I4
tp61
a(I5
I4
tp62
a(I1
I3
tp63
a(I5
I1
tp64
a(I0
I3
tp65
a(I5
I3
tp66
atp67
Rp68
sg13
((I2
I1
tp69
(I6
I1
tp70
(I3
I1
tp71
(I5
I0
tp72
(I7
I3
tp73
tp74
sg14
I7
sbs(iproblems
RoomID
p75
(dp76
g10
I5
sg11
(I6
I4
tp77
sg13
I2
sg14
I8
sg15
I10
sg16
I1662056218554549082
sb(imulti_robot_problem
MultiRobotState
p78
(dp79
g19
g20
((lp80
g77
a(I4
I6
tp81
a(I3
I6
tp82
a(I4
I4
tp83
a(I9
I6
tp84
a(I5
I5
tp85
atp86
Rp87
sg15
I10
sg30
g20
((lp88
(I4
I5
tp89
a(I8
I3
tp90
a(I8
I4
tp91
a(I7
I7
tp92
a(I3
I3
tp93
atp94
Rp95
sg13
((I9
I3
tp96
(I2
I0
tp97
tp98
sg14
I8
sbs(iproblems
RoomID
p99
(dp100
g10
I6
sg11
(I2
I3
tp101
sg13
I1
sg14
I8
sg15
I8
sg16
I1085536589165212248
sb(imulti_robot_problem
MultiRobotState
p102
(dp103
g19
g20
((lp104
(I1
I5
tp105
ag101
a(I1
I4
tp106
a(I1
I6
tp107
a(I0
I7
tp108
a(I4
I0
tp109
atp110
Rp111
sg15
I8
sg30
g20
((lp112
(I0
I1
tp113
a(I1
I2
tp114
a(I7
I3
tp115
a(I5
I1
tp116
a(I6
I0
tp117
a(I2
I1
tp118
atp119
Rp120
sg13
((I3
I2
tp121
tp122
sg14
I8
sbs(iproblems
RoomID
p123
(dp124
g10
I7
sg11
(I5
I2
tp125
sg13
I5
sg14
I8
sg15
I9
sg16
I365562409358139953
sb(imulti_robot_problem
MultiRobotState
p126
(dp127
g19
g20
((lp128
(I6
I4
tp129
a(I5
I5
tp130
a(I2
I1
tp131
a(I3
I7
tp132
a(I2
I5
tp133
ag125
a(I0
I2
tp134
a(I5
I3
tp135
atp136
Rp137
sg15
I9
sg30
g20
((lp138
(I2
I0
tp139
a(I1
I6
tp140
a(I8
I2
tp141
a(I4
I5
tp142
a(I8
I6
tp143
a(I5
I7
tp144
a(I3
I4
tp145
atp146
Rp147
sg13
((I4
I2
tp148
(I8
I3
tp149
(I6
I3
tp150
(I2
I4
tp151
(I6
I7
tp152
tp153
sg14
I8
sbssS'name'
p154
S'easy_roomset'
p155
sbsg154
S'AnytimeBest-dinf_with_PowerHeuristic2'
p156
sS'solutions'
p157
(dp158
g8
((lp159
(F2.3699999999998909
I13
tp160
aF40.0600000000004
tp161
sg48
((lp162
(F0.63000000000010914
I4
tp163
aF40.029999999999745
tp164
sg75
((lp165
(F0.010000000000218279
I7
tp166
aF40.0
tp167
sg99
((lp168
(F0.090000000000145519
I30
tp169
a(F0.5
I28
tp170
a(F0.77000000000043656
I27
tp171
a(F0.90999999999985448
I25
tp172
a(F1.0500000000001819
I23
tp173
a(F1.9400000000005093
I21
tp174
a(F2.9499999999998181
I20
tp175
a(F3.8800000000001091
I19
tp176
a(F4.7100000000000364
I17
tp177
a(F5.5500000000001819
I15
tp178
aF6.069999999999709
tp179
sg123
((lp180
F40.700000000000728
tp181
ssba(imeasure_core
ProblemSetSolution
p182
(dp183
g3
(imeasure_core
RoomSet
p184
(dp185
g6
(dp186
(iproblems
RoomID
p187
(dp188
g10
I8
sg11
(I9
I3
tp189
sg13
I4
sg14
I11
sg15
I12
sg16
I5594871498841892311
sb(imulti_robot_problem
MultiRobotState
p190
(dp191
g19
g20
((lp192
(I5
I9
tp193
a(I6
I9
tp194
a(I11
I9
tp195
a(I9
I1
tp196
a(I4
I8
tp197
a(I8
I0
tp198
a(I6
I0
tp199
a(I9
I9
tp200
ag189
a(I9
I4
tp201
a(I4
I2
tp202
a(I3
I7
tp203
a(I5
I8
tp204
a(I7
I9
tp205
a(I10
I8
tp206
a(I9
I0
tp207
a(I7
I0
tp208
a(I6
I8
tp209
a(I9
I2
tp210
a(I5
I7
tp211
a(I8
I10
tp212
a(I2
I0
tp213
a(I5
I0
tp214
a(I0
I9
tp215
a(I10
I0
tp216
a(I10
I2
tp217
atp218
Rp219
sg15
I12
sg30
g20
((lp220
(I2
I6
tp221
a(I11
I5
tp222
a(I6
I1
tp223
a(I11
I1
tp224
a(I2
I1
tp225
a(I8
I8
tp226
a(I0
I2
tp227
a(I3
I5
tp228
atp229
Rp230
sg13
((I9
I7
tp231
(I10
I5
tp232
(I6
I5
tp233
(I8
I3
tp234
tp235
sg14
I11
sbs(iproblems
RoomID
p236
(dp237
g10
I6
sg11
(I9
I4
tp238
sg13
I4
sg14
I9
sg15
I10
sg16
I8833747186876682921
sb(imulti_robot_problem
MultiRobotState
p239
(dp240
g19
g20
((lp241
(I4
I7
tp242
a(I4
I8
tp243
a(I4
I5
tp244
a(I2
I1
tp245
a(I7
I5
tp246
a(I2
I3
tp247
ag238
a(I2
I5
tp248
a(I6
I5
tp249
a(I3
I5
tp250
a(I2
I7
tp251
a(I8
I3
tp252
a(I5
I5
tp253
a(I3
I4
tp254
a(I7
I4
tp255
a(I5
I6
tp256
a(I8
I8
tp257
a(I3
I6
tp258
a(I4
I1
tp259
a(I1
I1
tp260
atp261
Rp262
sg15
I10
sg30
g20
((lp263
(I3
I2
tp264
a(I6
I2
tp265
a(I7
I0
tp266
a(I1
I4
tp267
a(I0
I4
tp268
a(I0
I7
tp269
atp270
Rp271
sg13
((I3
I1
tp272
(I8
I1
tp273
(I3
I3
tp274
(I4
I2
tp275
tp276
sg14
I9
sbs(iproblems
RoomID
p277
(dp278
g10
I7
sg11
(I8
I4
tp279
sg13
I4
sg14
I10
sg15
I11
sg16
I365562409358139953
sb(imulti_robot_problem
MultiRobotState
p280
(dp281
g19
g20
((lp282
(I7
I3
tp283
a(I8
I7
tp284
a(I4
I8
tp285
a(I2
I8
tp286
a(I5
I9
tp287
a(I6
I2
tp288
a(I1
I6
tp289
a(I9
I4
tp290
a(I6
I4
tp291
a(I9
I6
tp292
a(I6
I5
tp293
a(I10
I8
tp294
a(I10
I5
tp295
a(I6
I7
tp296
a(I10
I7
tp297
a(I7
I6
tp298
a(I3
I1
tp299
a(I0
I5
tp300
a(I3
I8
tp301
a(I7
I5
tp302
a(I8
I6
tp303
ag279
a(I5
I2
tp304
a(I6
I1
tp305
a(I9
I7
tp306
atp307
Rp308
sg15
I11
sg30
g20
((lp309
(I5
I6
tp310
a(I6
I9
tp311
a(I1
I7
tp312
a(I4
I5
tp313
a(I10
I3
tp314
a(I0
I2
tp315
a(I2
I1
tp316
atp317
Rp318
sg13
((I10
I4
tp319
(I7
I4
tp320
(I3
I6
tp321
(I8
I9
tp322
tp323
sg14
I10
sbs(iproblems
RoomID
p324
(dp325
g10
I8
sg11
(I4
I6
tp326
sg13
I3
sg14
I9
sg15
I12
sg16
I4800841617172907184
sb(imulti_robot_problem
MultiRobotState
p327
(dp328
g19
g20
((lp329
(I5
I4
tp330
ag326
a(I8
I7
tp331
a(I6
I6
tp332
a(I4
I5
tp333
a(I9
I8
tp334
a(I9
I3
tp335
a(I6
I0
tp336
a(I2
I1
tp337
a(I10
I1
tp338
a(I4
I2
tp339
a(I8
I5
tp340
a(I7
I2
tp341
a(I5
I3
tp342
a(I8
I3
tp343
a(I3
I1
tp344
a(I3
I3
tp345
a(I11
I8
tp346
a(I7
I1
tp347
a(I11
I3
tp348
a(I6
I3
tp349
a(I0
I6
tp350
a(I4
I3
tp351
a(I8
I6
tp352
a(I8
I4
tp353
a(I9
I7
tp354
atp355
Rp356
sg15
I12
sg30
g20
((lp357
(I11
I4
tp358
a(I8
I2
tp359
a(I10
I7
tp360
a(I7
I6
tp361
a(I1
I4
tp362
a(I11
I0
tp363
a(I9
I2
tp364
a(I0
I2
tp365
atp366
Rp367
sg13
((I9
I1
tp368
(I0
I4
tp369
(I7
I4
tp370
tp371
sg14
I9
sbs(iproblems
RoomID
p372
(dp373
g10
I10
sg11
(I4
I8
tp374
sg13
I3
sg14
I11
sg15
I9
sg16
I6645345695289302126
sb(imulti_robot_problem
MultiRobotState
p375
(dp376
g19
g20
((lp377
(I5
I9
tp378
a(I3
I2
tp379
a(I3
I1
tp380
ag374
a(I4
I5
tp381
a(I1
I4
tp382
a(I4
I2
tp383
a(I3
I7
tp384
a(I4
I6
tp385
a(I3
I3
tp386
a(I4
I1
tp387
a(I6
I1
tp388
a(I4
I4
tp389
a(I2
I4
tp390
a(I3
I8
tp391
a(I1
I5
tp392
a(I4
I3
tp393
a(I3
I5
tp394
a(I3
I4
tp395
a(I1
I1
tp396
a(I8
I4
tp397
atp398
Rp399
sg15
I9
sg30
g20
((lp400
(I0
I1
tp401
a(I5
I4
tp402
a(I6
I7
tp403
a(I8
I2
tp404
a(I8
I7
tp405
a(I8
I8
tp406
a(I2
I3
tp407
a(I3
I6
tp408
a(I1
I0
tp409
a(I5
I5
tp410
atp411
Rp412
sg13
((I1
I6
tp413
(I0
I9
tp414
(I0
I5
tp415
tp416
sg14
I11
sbssg154
S'mild_roomset'
p417
sbsg154
g156
sg157
(dp418
g187
((lp419
(F1.3500000000003638
I32
tp420
aF40.090000000000146
tp421
sg236
((lp422
(F1.4099999999998545
I32
tp423
aF40.030000000000655
tp424
sg277
((lp425
(F0.25
I25
tp426
aF40.019999999999527
tp427
sg324
((lp428
(F0.13000000000010914
I17
tp429
aF40.010000000000218
tp430
sg372
((lp431
F40.109999999999673
tp432
ssba(imeasure_core
ProblemSetSolution
p433
(dp434
g3
(imeasure_core
RoomSet
p435
(dp436
g6
(dp437
(iproblems
RoomID
p438
(dp439
g10
I13
sg11
(I9
I8
tp440
sg13
I7
sg14
I12
sg15
I13
sg16
I5594871498841892311
sb(imulti_robot_problem
MultiRobotState
p441
(dp442
g19
g20
((lp443
(I5
I9
tp444
a(I6
I9
tp445
a(I1
I3
tp446
a(I10
I4
tp447
a(I4
I8
tp448
ag440
a(I1
I4
tp449
a(I11
I3
tp450
a(I8
I6
tp451
a(I9
I6
tp452
a(I5
I5
tp453
a(I9
I5
tp454
a(I6
I7
tp455
a(I6
I8
tp456
a(I6
I10
tp457
a(I8
I10
tp458
a(I5
I0
tp459
a(I10
I0
tp460
a(I7
I9
tp461
a(I9
I7
tp462
atp463
Rp464
sg15
I13
sg30
g20
((lp465
(I2
I7
tp466
a(I10
I5
tp467
a(I11
I5
tp468
a(I6
I1
tp469
a(I8
I0
tp470
a(I2
I1
tp471
a(I2
I0
tp472
a(I0
I10
tp473
a(I7
I10
tp474
a(I12
I10
tp475
a(I5
I2
tp476
a(I0
I2
tp477
a(I3
I5
tp478
atp479
Rp480
sg13
((I10
I8
tp481
(I11
I6
tp482
(I7
I5
tp483
(I9
I3
tp484
(I9
I11
tp485
(I12
I1
tp486
(I9
I9
tp487
tp488
sg14
I12
sbs(iproblems
RoomID
p489
(dp490
g10
I11
sg11
(I8
I7
tp491
sg13
I7
sg14
I10
sg15
I11
sg16
I8833747186876682921
sb(imulti_robot_problem
MultiRobotState
p492
(dp493
g19
g20
((lp494
(I5
I7
tp495
a(I4
I8
tp496
a(I4
I5
tp497
a(I2
I1
tp498
ag491
a(I5
I1
tp499
a(I5
I5
tp500
a(I6
I7
tp501
a(I4
I6
tp502
a(I8
I1
tp503
a(I4
I4
tp504
a(I6
I3
tp505
a(I8
I8
tp506
a(I3
I3
tp507
a(I7
I8
tp508
a(I10
I2
tp509
atp510
Rp511
sg15
I11
sg30
g20
((lp512
(I10
I5
tp513
a(I7
I6
tp514
a(I4
I7
tp515
a(I1
I4
tp516
a(I9
I9
tp517
a(I3
I8
tp518
a(I0
I5
tp519
a(I8
I6
tp520
a(I2
I5
tp521
a(I0
I8
tp522
a(I7
I2
tp523
atp524
Rp525
sg13
((I3
I1
tp526
(I9
I1
tp527
(I5
I2
tp528
(I4
I3
tp529
(I8
I0
tp530
(I10
I4
tp531
(I8
I5
tp532
tp533
sg14
I10
sbs(iproblems
RoomID
p534
(dp535
g10
I11
sg11
(I4
I6
tp536
sg13
I5
sg14
I11
sg15
I11
sg16
I1085536589165212248
sb(imulti_robot_problem
MultiRobotState
p537
(dp538
g19
g20
((lp539
(I10
I5
tp540
a(I2
I6
tp541
ag536
a(I9
I3
tp542
a(I3
I2
tp543
a(I9
I9
tp544
a(I1
I8
tp545
a(I1
I9
tp546
a(I1
I7
tp547
a(I3
I7
tp548
a(I6
I9
tp549
a(I5
I8
tp550
a(I3
I3
tp551
atp552
Rp553
sg15
I11
sg30
g20
((lp554
(I0
I1
tp555
a(I4
I9
tp556
a(I10
I4
tp557
a(I10
I7
tp558
a(I6
I0
tp559
a(I0
I7
tp560
a(I2
I3
tp561
a(I1
I4
tp562
a(I2
I2
tp563
a(I10
I0
tp564
a(I0
I10
tp565
atp566
Rp567
sg13
((I5
I3
tp568
(I0
I2
tp569
(I3
I1
tp570
(I7
I1
tp571
(I9
I0
tp572
tp573
sg14
I11
sbs(iproblems
RoomID
p574
(dp575
g10
I12
sg11
(I0
I5
tp576
sg13
I7
sg14
I11
sg15
I12
sg16
I365562409358139953
sb(imulti_robot_problem
MultiRobotState
p577
(dp578
g19
g20
((lp579
(I1
I3
tp580
a(I6
I6
tp581
a(I0
I4
tp582
a(I7
I5
tp583
ag576
a(I8
I7
tp584
a(I4
I2
tp585
a(I2
I9
tp586
a(I10
I7
tp587
a(I7
I8
tp588
a(I7
I6
tp589
a(I3
I1
tp590
a(I4
I8
tp591
a(I3
I9
tp592
a(I2
I2
tp593
a(I8
I6
tp594
a(I5
I2
tp595
a(I11
I6
tp596
a(I8
I4
tp597
atp598
Rp599
sg15
I12
sg30
g20
((lp600
(I3
I2
tp601
a(I11
I9
tp602
a(I4
I9
tp603
a(I10
I4
tp604
a(I5
I7
tp605
a(I2
I1
tp606
a(I0
I6
tp607
a(I1
I6
tp608
a(I7
I10
tp609
a(I3
I7
tp610
a(I5
I10
tp611
a(I0
I2
tp612
atp613
Rp614
sg13
((I6
I3
tp615
(I10
I5
tp616
(I3
I6
tp617
(I8
I10
tp618
(I4
I6
tp619
(I11
I3
tp620
(I1
I8
tp621
tp622
sg14
I11
sbs(iproblems
RoomID
p623
(dp624
g10
I13
sg11
(I3
I8
tp625
sg13
I5
sg14
I10
sg15
I10
sg16
I5338040351619750409
sb(imulti_robot_problem
MultiRobotState
p626
(dp627
g19
g20
((lp628
(I4
I7
tp629
a(I2
I6
tp630
a(I9
I1
tp631
a(I2
I8
tp632
a(I6
I1
tp633
a(I1
I4
tp634
ag625
a(I1
I6
tp635
a(I4
I3
tp636
a(I1
I7
tp637
a(I2
I5
tp638
a(I9
I7
tp639
a(I2
I4
tp640
a(I6
I8
tp641
atp642
Rp643
sg15
I10
sg30
g20
((lp644
(I6
I9
tp645
a(I1
I3
tp646
a(I4
I9
tp647
a(I4
I6
tp648
a(I6
I6
tp649
a(I8
I3
tp650
a(I2
I1
tp651
a(I8
I9
tp652
a(I1
I8
tp653
a(I7
I5
tp654
a(I3
I6
tp655
a(I9
I6
tp656
a(I4
I0
tp657
atp658
Rp659
sg13
((I2
I0
tp660
(I3
I5
tp661
(I5
I0
tp662
(I5
I2
tp663
(I4
I5
tp664
tp665
sg14
I10
sbssg154
S'heavy_roomset'
p666
sbsg154
g156
sg157
(dp667
g438
((lp668
F41.449999999999818
tp669
sg489
((lp670
(F25.199999999999818
I19
tp671
aF40.260000000000218
tp672
sg534
((lp673
(F2.1599999999998545
I15
tp674
aF40.050000000000182
tp675
sg574
((lp676
F41.199999999999818
tp677
sg623
((lp678
(F2.3000000000001819
I16
tp679
aF40.159999999999854
tp680
ssba(imeasure_core
ProblemSetSolution
p681
(dp682
g3
g4
sg154
S'AnytimeBest-dinf_with_LinearHeuristic'
p683
sg157
(dp684
g8
((lp685
F40.210000000000036
tp686
sg48
((lp687
(F1.0
I4
tp688
aF40.1899999999996
tp689
sg75
((lp690
(F0.020000000000436557
I7
tp691
aF40.020000000000437
tp692
sg99
((lp693
(F0.010000000000218279
I15
tp694
aF5.7899999999999636
tp695
sg123
((lp696
(F3.2300000000004729
I17
tp697
aF40.119999999999891
tp698
ssba(imeasure_core
ProblemSetSolution
p699
(dp700
g3
g184
sg154
g683
sg157
(dp701
g187
((lp702
F40.159999999999854
tp703
sg236
((lp704
F40.350000000000364
tp705
sg277
((lp706
F40.199999999999818
tp707
sg324
((lp708
F40.130000000000109
tp709
sg372
((lp710
F40.079999999999927
tp711
ssba(imeasure_core
ProblemSetSolution
p712
(dp713
g3
g435
sg154
g683
sg157
(dp714
g438
((lp715
F48.730000000000473
tp716
sg489
((lp717
F41.269999999999527
tp718
sg534
((lp719
F40.579999999999927
tp720
sg574
((lp721
F42.329999999999927
tp722
sg623
((lp723
F40.199999999999818
tp724
ssba.