(lp0
(imeasure_core
ProblemSetSolution
p1
(dp2
S'roomset'
p3
(imeasure_core
RoomSet
p4
(dp5
S'rooms'
p6
(dp7
(iproblems
RoomID
p8
(dp9
S'width'
p10
I10
sS'dusts'
p11
I6
sS'seed'
p12
I2405875930906139466
sS'obstacles'
p13
(I5
I1
tp14
sS'robots'
p15
I4
sS'height'
p16
I9
sb(imulti_robot_problem
MultiRobotState
p17
(dp18
S'obstacle_locations'
p19
c__builtin__
frozenset
p20
((lp21
(I7
I0
tp22
a(I7
I1
tp23
a(I6
I1
tp24
a(I6
I0
tp25
ag14
a(I7
I2
tp26
atp27
Rp28
sg10
I10
sS'dirt_locations'
p29
g20
((lp30
(I7
I3
tp31
a(I6
I4
tp32
a(I5
I6
tp33
a(I0
I7
tp34
a(I2
I1
tp35
a(I5
I2
tp36
atp37
Rp38
sg15
((I7
I6
tp39
(I3
I3
tp40
(I8
I6
tp41
(I0
I2
tp42
tp43
sg16
I9
sbs(iproblems
RoomID
p44
(dp45
g10
I7
sg11
I6
sg12
I8744744311366254845
sg13
(I6
I7
tp46
sg15
I4
sg16
I10
sb(imulti_robot_problem
MultiRobotState
p47
(dp48
g19
g20
((lp49
g46
a(I4
I6
tp50
a(I5
I7
tp51
a(I0
I6
tp52
a(I1
I9
tp53
a(I3
I7
tp54
atp55
Rp56
sg10
I7
sg29
g20
((lp57
(I2
I7
tp58
a(I0
I1
tp59
a(I5
I4
tp60
a(I6
I0
tp61
a(I5
I8
tp62
a(I5
I3
tp63
atp64
Rp65
sg15
((I0
I8
tp66
(I4
I2
tp67
(I3
I0
tp68
(I1
I4
tp69
tp70
sg16
I10
sbs(iproblems
RoomID
p71
(dp72
g10
I7
sg11
I6
sg12
I3537054308274871603
sg13
(I4
I6
tp73
sg15
I1
sg16
I8
sb(imulti_robot_problem
MultiRobotState
p74
(dp75
g19
g20
((lp76
(I4
I7
tp77
ag73
a(I4
I5
tp78
a(I6
I0
tp79
a(I2
I5
tp80
a(I2
I4
tp81
a(I3
I5
tp82
atp83
Rp84
sg10
I7
sg29
g20
((lp85
(I5
I6
tp86
a(I0
I6
tp87
a(I6
I2
tp88
a(I4
I1
tp89
a(I1
I1
tp90
a(I5
I3
tp91
atp92
Rp93
sg15
((I0
I3
tp94
tp95
sg16
I8
sbs(iproblems
RoomID
p96
(dp97
g10
I7
sg11
I8
sg12
I7325839828077136048
sg13
(I5
I3
tp98
sg15
I3
sg16
I7
sb(imulti_robot_problem
MultiRobotState
p99
(dp100
g19
g20
((lp101
(I6
I4
tp102
a(I5
I4
tp103
a(I5
I5
tp104
a(I6
I6
tp105
a(I3
I1
tp106
a(I6
I0
tp107
a(I2
I0
tp108
a(I0
I4
tp109
ag98
atp110
Rp111
sg10
I7
sg29
g20
((lp112
(I1
I5
tp113
a(I3
I0
tp114
a(I1
I1
tp115
a(I0
I6
tp116
a(I4
I3
tp117
a(I2
I2
tp118
a(I2
I4
tp119
a(I3
I5
tp120
atp121
Rp122
sg15
((I1
I0
tp123
(I3
I3
tp124
(I6
I2
tp125
tp126
sg16
I7
sbs(iproblems
RoomID
p127
(dp128
g10
I8
sg11
I10
sg12
I8655808914197340073
sg13
(I4
I7
tp129
sg15
I5
sg16
I10
sb(imulti_robot_problem
MultiRobotState
p130
(dp131
g19
g20
((lp132
(I2
I7
tp133
ag129
a(I4
I8
tp134
a(I6
I3
tp135
a(I7
I5
tp136
a(I3
I7
tp137
a(I1
I0
tp138
a(I5
I3
tp139
atp140
Rp141
sg10
I8
sg29
g20
((lp142
(I7
I3
tp143
a(I5
I4
tp144
a(I7
I0
tp145
a(I5
I7
tp146
a(I1
I5
tp147
a(I1
I9
tp148
a(I3
I6
tp149
a(I1
I7
tp150
a(I3
I4
tp151
a(I5
I8
tp152
atp153
Rp154
sg15
((I3
I8
tp155
(I7
I9
tp156
(I6
I1
tp157
(I2
I3
tp158
(I5
I5
tp159
tp160
sg16
I10
sbssS'name'
p161
S'easy_roomset'
p162
sbsS'name'
p163
S"AnytimeBeam-w20-gf(2, 'lin')_with_PowerHeuristic2"
p164
sS'solutions'
p165
(dp166
g8
((lp167
(F0.47000000000116415
I10
tp168
aF40.030000000000655
tp169
sg44
((lp170
(F0.32999999999992724
I14
tp171
aF40.010000000000218
tp172
sg71
((lp173
(F0.090000000000145519
I49
tp174
a(F1.4099999999998545
I47
tp175
a(F1.6199999999989814
I45
tp176
a(F3.8400000000001455
I43
tp177
a(F12.479999999999563
I41
tp178
a(F12.889999999999418
I40
tp179
a(F16.489999999999782
I39
tp180
a(F17.369999999998981
I38
tp181
a(F18.609999999998763
I37
tp182
a(F19.769999999998618
I35
tp183
a(F22.889999999999418
I33
tp184
a(F25.199999999998909
I31
tp185
a(F27.139999999999418
I29
tp186
a(F28.680000000000291
I27
tp187
a(F30.659999999999854
I25
tp188
a(F34.969999999999345
I24
tp189
a(F38.819999999999709
I22
tp190
aF40.0
tp191
sg96
((lp192
(F5.0299999999988358
I144
tp193
aF40.019999999998618
tp194
sg127
((lp195
(F1.5100000000002183
I9
tp196
aF40.110000000000582
tp197
ssba(imeasure_core
ProblemSetSolution
p198
(dp199
g3
(imeasure_core
RoomSet
p200
(dp201
S'rooms'
p202
(dp203
(iproblems
RoomID
p204
(dp205
S'width'
p206
I12
sS'dusts'
p207
I6
sS'seed'
p208
I2405875930906139466
sS'obstacles'
p209
(I1
I8
tp210
sS'robots'
p211
I4
sS'height'
p212
I11
sb(imulti_robot_problem
MultiRobotState
p213
(dp214
S'obstacle_locations'
p215
g20
((lp216
(I6
I6
tp217
a(I2
I8
tp218
a(I8
I0
tp219
a(I6
I2
tp220
a(I3
I7
tp221
a(I5
I5
tp222
a(I2
I9
tp223
a(I11
I5
tp224
a(I8
I1
tp225
a(I6
I3
tp226
a(I3
I6
tp227
a(I5
I3
tp228
a(I6
I4
tp229
a(I8
I2
tp230
a(I9
I10
tp231
a(I7
I5
tp232
a(I2
I3
tp233
a(I6
I5
tp234
a(I3
I3
tp235
a(I7
I0
tp236
a(I4
I6
tp237
a(I6
I1
tp238
a(I3
I1
tp239
a(I2
I0
tp240
ag210
a(I4
I3
tp241
a(I3
I4
tp242
atp243
Rp244
sg206
I12
sS'dirt_locations'
p245
g20
((lp246
(I7
I1
tp247
a(I9
I3
tp248
a(I7
I7
tp249
a(I2
I1
tp250
a(I9
I4
tp251
a(I0
I9
tp252
atp253
Rp254
sg211
((I9
I7
tp255
(I4
I4
tp256
(I10
I8
tp257
(I0
I2
tp258
tp259
sg212
I11
sbs(iproblems
RoomID
p260
(dp261
g206
I10
sg207
I10
sg208
I8655808914197340073
sg209
(I0
I5
tp262
sg211
I4
sg212
I12
sb(imulti_robot_problem
MultiRobotState
p263
(dp264
g215
g20
((lp265
(I5
I9
tp266
a(I4
I4
tp267
a(I6
I6
tp268
a(I8
I0
tp269
a(I0
I7
tp270
a(I1
I11
tp271
a(I5
I8
tp272
a(I6
I7
tp273
a(I5
I5
tp274
a(I4
I8
tp275
a(I6
I3
tp276
a(I5
I4
tp277
a(I1
I4
tp278
a(I7
I5
tp279
a(I2
I3
tp280
a(I9
I6
tp281
a(I6
I5
tp282
a(I4
I6
tp283
a(I6
I8
tp284
a(I7
I8
tp285
a(I5
I7
tp286
a(I3
I8
tp287
a(I2
I0
tp288
ag262
a(I3
I4
tp289
atp290
Rp291
sg206
I10
sg245
g20
((lp292
(I8
I3
tp293
a(I9
I0
tp294
a(I2
I9
tp295
a(I2
I11
tp296
a(I6
I9
tp297
a(I7
I7
tp298
a(I1
I7
tp299
a(I8
I6
tp300
a(I3
I5
tp301
a(I8
I4
tp302
atp303
Rp304
sg211
((I4
I9
tp305
(I8
I11
tp306
(I7
I1
tp307
(I3
I3
tp308
tp309
sg212
I12
sbs(iproblems
RoomID
p310
(dp311
g206
I12
sg207
I10
sg208
I2796939073032698495
sg209
(I11
I0
tp312
sg211
I4
sg212
I9
sb(imulti_robot_problem
MultiRobotState
p313
(dp314
g215
g20
((lp315
(I7
I3
tp316
a(I3
I1
tp317
a(I9
I1
tp318
a(I6
I6
tp319
a(I8
I0
tp320
a(I7
I7
tp321
a(I7
I2
tp322
a(I3
I3
tp323
a(I8
I1
tp324
a(I4
I8
tp325
a(I6
I3
tp326
a(I5
I8
tp327
a(I3
I6
tp328
a(I6
I4
tp329
a(I5
I4
tp330
a(I2
I6
tp331
a(I7
I1
tp332
a(I4
I5
tp333
ag312
a(I2
I3
tp334
a(I10
I1
tp335
a(I1
I0
tp336
a(I6
I5
tp337
a(I5
I3
tp338
a(I8
I3
tp339
a(I7
I0
tp340
a(I6
I8
tp341
a(I9
I2
tp342
a(I6
I1
tp343
a(I5
I7
tp344
a(I8
I8
tp345
a(I4
I3
tp346
a(I5
I2
tp347
a(I10
I2
tp348
atp349
Rp350
sg206
I12
sg245
g20
((lp351
(I1
I2
tp352
a(I11
I7
tp353
a(I3
I2
tp354
a(I2
I8
tp355
a(I9
I3
tp356
a(I1
I6
tp357
a(I5
I0
tp358
a(I0
I3
tp359
a(I0
I8
tp360
a(I4
I1
tp361
atp362
Rp363
sg211
((I10
I8
tp364
(I4
I6
tp365
(I11
I4
tp366
(I7
I8
tp367
tp368
sg212
I9
sbs(iproblems
RoomID
p369
(dp370
g206
I12
sg207
I6
sg208
I7193062864237573168
sg209
(I3
I3
tp371
sg211
I4
sg212
I12
sb(imulti_robot_problem
MultiRobotState
p372
(dp373
g215
g20
((lp374
(I1
I3
tp375
a(I6
I6
tp376
a(I0
I7
tp377
a(I1
I6
tp378
a(I2
I5
tp379
a(I10
I3
tp380
a(I3
I1
tp381
ag371
a(I9
I7
tp382
a(I6
I4
tp383
a(I5
I4
tp384
a(I7
I1
tp385
a(I9
I3
tp386
a(I2
I3
tp387
a(I0
I8
tp388
a(I8
I3
tp389
a(I5
I7
tp390
a(I11
I3
tp391
a(I7
I4
tp392
a(I0
I9
tp393
a(I3
I4
tp394
a(I2
I4
tp395
a(I8
I4
tp396
atp397
Rp398
sg206
I12
sg245
g20
((lp399
(I2
I6
tp400
a(I6
I8
tp401
a(I0
I6
tp402
a(I4
I4
tp403
a(I7
I7
tp404
a(I2
I0
tp405
atp406
Rp407
sg211
((I11
I9
tp408
(I11
I2
tp409
(I4
I11
tp410
(I3
I6
tp411
tp412
sg212
I12
sbs(iproblems
RoomID
p413
(dp414
g206
I11
sg207
I10
sg208
I4278205817407065157
sg209
(I3
I6
tp415
sg211
I4
sg212
I12
sb(imulti_robot_problem
MultiRobotState
p416
(dp417
g215
g20
((lp418
(I0
I1
tp419
a(I2
I7
tp420
a(I4
I7
tp421
a(I4
I6
tp422
a(I6
I7
tp423
a(I3
I3
tp424
a(I5
I6
tp425
a(I2
I8
tp426
a(I1
I10
tp427
a(I4
I4
tp428
a(I3
I8
tp429
a(I10
I7
tp430
a(I1
I9
tp431
a(I0
I10
tp432
ag415
a(I7
I11
tp433
a(I4
I5
tp434
a(I3
I7
tp435
a(I3
I5
tp436
a(I5
I3
tp437
atp438
Rp439
sg206
I11
sg245
g20
((lp440
(I1
I2
tp441
a(I8
I1
tp442
a(I6
I1
tp443
a(I5
I7
tp444
a(I3
I0
tp445
a(I8
I9
tp446
a(I9
I2
tp447
a(I9
I4
tp448
a(I0
I2
tp449
a(I4
I0
tp450
atp451
Rp452
sg211
((I6
I10
tp453
(I5
I11
tp454
(I2
I0
tp455
(I9
I1
tp456
tp457
sg212
I12
sbssS'name'
p458
S'mild_roomset'
p459
sbsg163
g164
sg165
(dp460
g204
((lp461
(F3.3700000000008004
I60
tp462
a(F10.790000000000873
I55
tp463
aF40.0
tp464
sg260
((lp465
(F11.770000000000437
I171
tp466
aF40.040000000000873
tp467
sg310
((lp468
F40.009999999998399
tp469
sg369
((lp470
(F0.90000000000145519
I25
tp471
aF40.030000000000655
tp472
sg413
((lp473
(F1.4200000000000728
I28
tp474
aF40.049999999999272
tp475
ssba(imeasure_core
ProblemSetSolution
p476
(dp477
g3
(imeasure_core
RoomSet
p478
(dp479
S'rooms'
p480
(dp481
(iproblems
RoomID
p482
(dp483
S'width'
p484
I13
sS'dusts'
p485
I11
sS'seed'
p486
I2405875930906139466
sS'obstacles'
p487
(I10
I1
tp488
sS'robots'
p489
I7
sS'height'
p490
I12
sb(imulti_robot_problem
MultiRobotState
p491
(dp492
S'obstacle_locations'
p493
g20
((lp494
(I7
I3
tp495
a(I9
I0
tp496
a(I8
I4
tp497
a(I9
I1
tp498
a(I7
I1
tp499
a(I5
I6
tp500
a(I8
I11
tp501
a(I8
I0
tp502
a(I1
I4
tp503
a(I11
I7
tp504
a(I7
I4
tp505
a(I1
I5
tp506
a(I6
I2
tp507
a(I0
I7
tp508
ag488
a(I11
I6
tp509
a(I11
I5
tp510
a(I10
I2
tp511
a(I10
I3
tp512
a(I7
I2
tp513
a(I10
I4
tp514
atp515
Rp516
sg484
I13
sS'dirt_locations'
p517
g20
((lp518
(I6
I3
tp519
a(I10
I11
tp520
a(I8
I1
tp521
a(I3
I4
tp522
a(I10
I0
tp523
a(I12
I5
tp524
a(I2
I0
tp525
a(I2
I3
tp526
a(I5
I1
tp527
a(I8
I6
tp528
a(I7
I8
tp529
atp530
Rp531
sg489
((I10
I8
tp532
(I9
I2
tp533
(I4
I5
tp534
(I11
I8
tp535
(I1
I2
tp536
(I3
I1
tp537
(I0
I10
tp538
tp539
sg490
I12
sbs(iproblems
RoomID
p540
(dp541
g484
I10
sg485
I11
sg486
I8744744311366254845
sg487
(I7
I9
tp542
sg489
I6
sg490
I13
sb(imulti_robot_problem
MultiRobotState
p543
(dp544
g493
g20
((lp545
(I6
I9
tp546
a(I1
I3
tp547
a(I4
I9
tp548
a(I5
I6
tp549
a(I9
I8
tp550
a(I1
I8
tp551
a(I1
I0
tp552
a(I9
I7
tp553
a(I3
I4
tp554
a(I5
I8
tp555
ag542
atp556
Rp557
sg484
I10
sg517
g20
((lp558
(I0
I1
tp559
a(I7
I3
tp560
a(I9
I0
tp561
a(I1
I12
tp562
a(I5
I11
tp563
a(I4
I10
tp564
a(I9
I10
tp565
a(I3
I7
tp566
a(I7
I11
tp567
a(I0
I8
tp568
a(I9
I6
tp569
atp570
Rp571
sg489
((I0
I10
tp572
(I6
I3
tp573
(I4
I0
tp574
(I1
I6
tp575
(I7
I5
tp576
(I9
I9
tp577
tp578
sg490
I13
sbs(iproblems
RoomID
p579
(dp580
g484
I11
sg485
I15
sg486
I8655808914197340073
sg487
(I5
I8
tp581
sg489
I7
sg490
I13
sb(imulti_robot_problem
MultiRobotState
p582
(dp583
g493
g20
((lp584
(I5
I9
tp585
a(I6
I7
tp586
a(I6
I11
tp587
a(I1
I4
tp588
a(I0
I12
tp589
a(I0
I11
tp590
a(I7
I5
tp591
a(I1
I6
tp592
a(I0
I4
tp593
a(I5
I10
tp594
a(I3
I9
tp595
a(I4
I9
tp596
a(I10
I3
tp597
ag581
atp598
Rp599
sg484
I11
sg517
g20
((lp600
(I2
I7
tp601
a(I7
I3
tp602
a(I9
I7
tp603
a(I4
I6
tp604
a(I1
I12
tp605
a(I5
I6
tp606
a(I9
I6
tp607
a(I7
I7
tp608
a(I2
I0
tp609
a(I9
I4
tp610
a(I7
I10
tp611
a(I0
I8
tp612
a(I8
I5
tp613
a(I6
I5
tp614
a(I7
I9
tp615
atp616
Rp617
sg489
((I9
I11
tp618
(I8
I1
tp619
(I3
I4
tp620
(I8
I7
tp621
(I9
I1
tp622
(I2
I10
tp623
(I2
I12
tp624
tp625
sg490
I13
sbs(iproblems
RoomID
p626
(dp627
g484
I13
sg485
I15
sg486
I2796939073032698495
sg487
(I3
I6
tp628
sg489
I7
sg490
I10
sb(imulti_robot_problem
MultiRobotState
p629
(dp630
g493
g20
((lp631
(I5
I9
tp632
a(I6
I9
tp633
a(I5
I7
tp634
a(I6
I6
tp635
a(I6
I2
tp636
a(I5
I1
tp637
a(I12
I9
tp638
a(I5
I8
tp639
a(I6
I7
tp640
a(I5
I5
tp641
a(I4
I8
tp642
a(I5
I0
tp643
a(I6
I4
tp644
a(I5
I4
tp645
ag628
a(I4
I5
tp646
a(I3
I9
tp647
a(I0
I5
tp648
a(I8
I7
tp649
a(I4
I9
tp650
a(I6
I5
tp651
a(I5
I3
tp652
a(I2
I7
tp653
a(I4
I6
tp654
a(I3
I1
tp655
a(I2
I0
tp656
a(I7
I8
tp657
atp658
Rp659
sg484
I13
sg517
g20
((lp660
(I1
I2
tp661
a(I8
I2
tp662
a(I2
I9
tp663
a(I12
I0
tp664
a(I3
I4
tp665
a(I6
I0
tp666
a(I9
I9
tp667
a(I2
I3
tp668
a(I9
I4
tp669
a(I1
I7
tp670
a(I0
I9
tp671
a(I3
I3
tp672
a(I7
I9
tp673
a(I4
I1
tp674
a(I12
I8
tp675
atp676
Rp677
sg489
((I10
I2
tp678
(I11
I8
tp679
(I12
I5
tp680
(I8
I9
tp681
(I10
I3
tp682
(I0
I3
tp683
(I11
I2
tp684
tp685
sg490
I10
sbs(iproblems
RoomID
p686
(dp687
g484
I12
sg485
I15
sg486
I4278205817407065157
sg487
(I4
I8
tp688
sg489
I6
sg490
I13
sb(imulti_robot_problem
MultiRobotState
p689
(dp690
g493
g20
((lp691
(I11
I7
tp692
a(I2
I9
tp693
ag688
a(I5
I6
tp694
a(I2
I8
tp695
a(I6
I10
tp696
a(I3
I8
tp697
a(I11
I8
tp698
a(I3
I9
tp699
a(I1
I10
tp700
a(I1
I11
tp701
a(I7
I8
tp702
a(I2
I4
tp703
atp704
Rp705
sg484
I12
sg517
g20
((lp706
(I1
I2
tp707
a(I0
I1
tp708
a(I5
I4
tp709
a(I3
I1
tp710
a(I10
I4
tp711
a(I7
I1
tp712
a(I5
I7
tp713
a(I10
I5
tp714
a(I4
I7
tp715
a(I9
I9
tp716
a(I0
I10
tp717
a(I4
I3
tp718
a(I8
I12
tp719
a(I4
I1
tp720
a(I0
I2
tp721
atp722
Rp723
sg489
((I7
I10
tp724
(I6
I12
tp725
(I2
I0
tp726
(I9
I1
tp727
(I10
I3
tp728
(I4
I0
tp729
tp730
sg490
I13
sbssS'name'
p731
S'heavy_roomset'
p732
sbsg163
g164
sg165
(dp733
g482
((lp734
F41.150000000001455
tp735
sg540
((lp736
(F12.389999999999418
I13
tp737
aF40.539999999999054
tp738
sg579
((lp739
F42.670000000000073
tp740
sg626
((lp741
F40.139999999999418
tp742
sg686
((lp743
(F20.880000000001019
I15
tp744
aF40.690000000000509
tp745
ssba(imeasure_core
ProblemSetSolution
p746
(dp747
g3
g4
sg163
S"AnytimeBeam-w20-gf(4, 'lin')_with_PowerHeuristic2"
p748
sg165
(dp749
g8
((lp750
(F0.47000000000116415
I10
tp751
aF40.25
tp752
sg44
((lp753
(F0.32999999999992724
I14
tp754
aF40.059999999999491
tp755
sg71
((lp756
(F0.090000000000145519
I49
tp757
a(F0.75
I47
tp758
a(F0.96000000000094587
I45
tp759
a(F2.0500000000010914
I43
tp760
a(F5.9900000000016007
I41
tp761
a(F6.4000000000014552
I40
tp762
a(F8.2600000000002183
I39
tp763
a(F9.1400000000012369
I38
tp764
a(F10.390000000001237
I37
tp765
a(F11.540000000000873
I35
tp766
a(F13.150000000001455
I33
tp767
a(F15.450000000000728
I31
tp768
a(F17.410000000001673
I29
tp769
a(F18.950000000000728
I27
tp770
a(F20.920000000000073
I25
tp771
a(F25.240000000001601
I24
tp772
a(F29.090000000000146
I22
tp773
a(F32.340000000000146
I20
tp774
aF40.0
tp775
sg96
((lp776
(F5.0
I144
tp777
aF40.030000000000655
tp778
sg127
((lp779
(F1.5200000000004366
I9
tp780
aF40.139999999999418
tp781
ssba(imeasure_core
ProblemSetSolution
p782
(dp783
g3
g200
sg163
g748
sg165
(dp784
g204
((lp785
(F3.3800000000010186
I60
tp786
a(F7.1700000000000728
I55
tp787
a(F29.140000000001237
I44
tp788
a(F35.1200000000008
I32
tp789
aF40.010000000000218
tp790
sg260
((lp791
(F11.950000000000728
I171
tp792
aF40.020000000000437
tp793
sg310
((lp794
F40.020000000000437
tp795
sg369
((lp796
(F0.90999999999985448
I25
tp797
aF40.039999999999054
tp798
sg413
((lp799
(F1.4099999999998545
I28
tp800
aF40.010000000000218
tp801
ssba(imeasure_core
ProblemSetSolution
p802
(dp803
g3
g478
sg163
g748
sg165
(dp804
g482
((lp805
F41.360000000000582
tp806
sg540
((lp807
(F12.389999999999418
I13
tp808
aF40.680000000000291
tp809
sg579
((lp810
F42.489999999999782
tp811
sg626
((lp812
F40.329999999999927
tp813
sg686
((lp814
(F20.989999999999782
I15
tp815
aF40.139999999999418
tp816
ssba(imeasure_core
ProblemSetSolution
p817
(dp818
g3
g4
sg163
S"AnytimeBeam-w20-gf(8, 'lin')_with_PowerHeuristic2"
p819
sg165
(dp820
g8
((lp821
(F0.46999999999934516
I10
tp822
aF40.059999999999491
tp823
sg44
((lp824
(F0.32999999999992724
I14
tp825
aF40.040000000000873
tp826
sg71
((lp827
(F0.090000000000145519
I49
tp828
a(F0.5499999999992724
I47
tp829
a(F0.75
I45
tp830
a(F1.0200000000004366
I43
tp831
a(F2.8999999999996362
I41
tp832
a(F3.3099999999994907
I40
tp833
a(F4.3099999999994907
I39
tp834
a(F5.1999999999989086
I38
tp835
a(F6.4599999999991269
I37
tp836
a(F7.6199999999989814
I35
tp837
a(F9.25
I33
tp838
a(F11.569999999999709
I31
tp839
a(F13.510000000000218
I29
tp840
a(F15.049999999999272
I27
tp841
a(F17.020000000000437
I25
tp842
a(F21.329999999999927
I24
tp843
a(F25.170000000000073
I22
tp844
a(F28.430000000000291
I20
tp845
aF40.0
tp846
sg96
((lp847
(F5.0100000000002183
I144
tp848
aF40.139999999999418
tp849
sg127
((lp850
(F1.5
I9
tp851
aF40.030000000000655
tp852
ssba(imeasure_core
ProblemSetSolution
p853
(dp854
g3
g200
sg163
g819
sg165
(dp855
g204
((lp856
(F3.3500000000003638
I60
tp857
a(F7.7799999999988358
I55
tp858
a(F19.68999999999869
I32
tp859
aF40.010000000000218
tp860
sg260
((lp861
(F11.799999999999272
I171
tp862
aF40.009999999998399
tp863
sg310
((lp864
F40.0
tp865
sg369
((lp866
(F0.91000000000167347
I25
tp867
aF40.070000000001528
tp868
sg413
((lp869
(F1.3999999999996362
I28
tp870
aF40.010000000000218
tp871
ssba(imeasure_core
ProblemSetSolution
p872
(dp873
g3
g478
sg163
g819
sg165
(dp874
g482
((lp875
F41.170000000000073
tp876
sg540
((lp877
(F12.400000000001455
I13
tp878
aF41.829999999999927
tp879
sg579
((lp880
F42.210000000000946
tp881
sg626
((lp882
F40.449999999998909
tp883
sg686
((lp884
(F20.819999999999709
I15
tp885
aF40.819999999999709
tp886
ssba(imeasure_core
ProblemSetSolution
p887
(dp888
g3
g4
sg163
S"AnytimeBeam-w20-gf(16, 'lin')_with_PowerHeuristic2"
p889
sg165
(dp890
g8
((lp891
(F0.47000000000116415
I10
tp892
aF40.020000000000437
tp893
sg44
((lp894
(F0.33000000000174623
I14
tp895
aF40.110000000000582
tp896
sg71
((lp897
(F0.099999999998544808
I49
tp898
a(F0.2999999999992724
I47
tp899
a(F0.50999999999839929
I45
tp900
a(F0.77999999999883585
I43
tp901
a(F1.5800000000017462
I41
tp902
a(F2.0
I40
tp903
a(F3.0099999999983993
I39
tp904
a(F3.9000000000014552
I38
tp905
a(F5.1500000000014552
I37
tp906
a(F6.3100000000013097
I35
tp907
a(F7.930000000000291
I33
tp908
a(F10.240000000001601
I31
tp909
a(F12.180000000000291
I29
tp910
a(F13.720000000001164
I27
tp911
a(F15.68999999999869
I25
tp912
a(F20.0
I24
tp913
a(F23.840000000000146
I22
tp914
a(F27.099999999998545
I20
tp915
aF40.0
tp916
sg96
((lp917
(F5.0
I144
tp918
aF40.009999999998399
tp919
sg127
((lp920
(F1.5
I9
tp921
aF40.420000000001892
tp922
ssba(imeasure_core
ProblemSetSolution
p923
(dp924
g3
g200
sg163
g889
sg165
(dp925
g204
((lp926
(F3.3600000000005821
I60
tp927
a(F9.2200000000011642
I55
tp928
a(F15.369999999998981
I32
tp929
aF40.0
tp930
sg260
((lp931
(F11.860000000000582
I171
tp932
aF40.040000000000873
tp933
sg310
((lp934
F40.039999999997235
tp935
sg369
((lp936
(F0.90000000000145519
I25
tp937
aF40.220000000001164
tp938
sg413
((lp939
(F1.4099999999998545
I28
tp940
aF40.150000000001455
tp941
ssba(imeasure_core
ProblemSetSolution
p942
(dp943
g3
g478
sg163
g889
sg165
(dp944
g482
((lp945
F41.260000000002037
tp946
sg540
((lp947
(F12.430000000000291
I13
tp948
aF40.059999999997672
tp949
sg579
((lp950
F42.370000000002619
tp951
sg626
((lp952
F40.179999999996653
tp953
sg686
((lp954
(F20.910000000003492
I15
tp955
aF40.780000000002474
tp956
ssba(imeasure_core
ProblemSetSolution
p957
(dp958
g3
g4
sg163
S"AnytimeBeam-w20-gf(2, 'lin')_with_LinearHeuristic"
p959
sg165
(dp960
g8
((lp961
F40.259999999998399
tp962
sg44
((lp963
F40.06000000000131
tp964
sg71
((lp965
(F0.020000000000436557
I22
tp966
a(F1.3600000000005821
I20
tp967
aF40.0
tp968
sg96
((lp969
(F1.1300000000010186
I58
tp970
aF40.079999999998108
tp971
sg127
((lp972
(F1.930000000000291
I6
tp973
aF40.159999999999854
tp974
ssba(imeasure_core
ProblemSetSolution
p975
(dp976
g3
g200
sg163
g959
sg165
(dp977
g204
((lp978
F40.080000000001746
tp979
sg260
((lp980
F40.119999999998981
tp981
sg310
((lp982
F40.280000000002474
tp983
sg369
((lp984
F40.119999999998981
tp985
sg413
((lp986
(F15.18999999999869
I146
tp987
aF40.099999999998545
tp988
ssba(imeasure_core
ProblemSetSolution
p989
(dp990
g3
g478
sg163
g959
sg165
(dp991
g482
((lp992
F47.599999999998545
tp993
sg540
((lp994
(F11.409999999999854
I8
tp995
aF41.529999999998836
tp996
sg579
((lp997
F45.25
tp998
sg626
((lp999
F40.590000000000146
tp1000
sg686
((lp1001
F40.220000000001164
tp1002
ssba(imeasure_core
ProblemSetSolution
p1003
(dp1004
g3
g4
sg163
S"AnytimeBeam-w20-gf(4, 'lin')_with_LinearHeuristic"
p1005
sg165
(dp1006
g8
((lp1007
F40.180000000000291
tp1008
sg44
((lp1009
F40.159999999999854
tp1010
sg71
((lp1011
(F0.020000000000436557
I22
tp1012
a(F0.75
I20
tp1013
aF40.0
tp1014
sg96
((lp1015
(F1.1300000000010186
I58
tp1016
aF40.0
tp1017
sg127
((lp1018
(F1.9399999999986903
I6
tp1019
aF40.259999999998399
tp1020
ssba(imeasure_core
ProblemSetSolution
p1021
(dp1022
g3
g200
sg163
g1005
sg165
(dp1023
g204
((lp1024
F40.009999999998399
tp1025
sg260
((lp1026
F40.210000000002765
tp1027
sg310
((lp1028
F40.319999999999709
tp1029
sg369
((lp1030
F40.020000000000437
tp1031
sg413
((lp1032
(F15.19999999999709
I146
tp1033
aF40.169999999998254
tp1034
ssba(imeasure_core
ProblemSetSolution
p1035
(dp1036
g3
g478
sg163
g1005
sg165
(dp1037
g482
((lp1038
F47.700000000000728
tp1039
sg540
((lp1040
(F11.510000000002037
I8
tp1041
aF41.920000000001892
tp1042
sg579
((lp1043
F45.200000000000728
tp1044
sg626
((lp1045
F40.599999999998545
tp1046
sg686
((lp1047
F40.049999999999272
tp1048
ssba(imeasure_core
ProblemSetSolution
p1049
(dp1050
g3
g4
sg163
S"AnytimeBeam-w20-gf(8, 'lin')_with_LinearHeuristic"
p1051
sg165
(dp1052
g8
((lp1053
F40.130000000001019
tp1054
sg44
((lp1055
F40.059999999997672
tp1056
sg71
((lp1057
(F0.020000000000436557
I22
tp1058
a(F0.47000000000116415
I20
tp1059
aF40.0
tp1060
sg96
((lp1061
(F1.1300000000010186
I58
tp1062
aF40.020000000000437
tp1063
sg127
((lp1064
(F1.9400000000023283
I6
tp1065
aF40.040000000000873
tp1066
ssba(imeasure_core
ProblemSetSolution
p1067
(dp1068
g3
g200
sg163
g1051
sg165
(dp1069
g204
((lp1070
F40.090000000000146
tp1071
sg260
((lp1072
F40.630000000001019
tp1073
sg310
((lp1074
F40.239999999997963
tp1075
sg369
((lp1076
F40.020000000000437
tp1077
sg413
((lp1078
(F15.150000000001455
I146
tp1079
aF40.090000000000146
tp1080
ssba(imeasure_core
ProblemSetSolution
p1081
(dp1082
g3
g478
sg163
g1051
sg165
(dp1083
g482
((lp1084
F47.490000000001601
tp1085
sg540
((lp1086
(F11.450000000000728
I8
tp1087
aF40.979999999999563
tp1088
sg579
((lp1089
F45.209999999999127
tp1090
sg626
((lp1091
F40.420000000001892
tp1092
sg686
((lp1093
F40.19999999999709
tp1094
ssba(imeasure_core
ProblemSetSolution
p1095
(dp1096
g3
g4
sg163
S"AnytimeBeam-w20-gf(16, 'lin')_with_LinearHeuristic"
p1097
sg165
(dp1098
g8
((lp1099
F40.509999999998399
tp1100
sg44
((lp1101
F40.180000000000291
tp1102
sg71
((lp1103
(F0.010000000002037268
I22
tp1104
a(F0.24000000000160071
I20
tp1105
aF40.0
tp1106
sg96
((lp1107
(F1.1399999999994179
I58
tp1108
aF40.030000000002474
tp1109
sg127
((lp1110
(F1.9399999999986903
I6
tp1111
aF40.299999999999272
tp1112
ssba(imeasure_core
ProblemSetSolution
p1113
(dp1114
g3
g200
sg163
g1097
sg165
(dp1115
g204
((lp1116
F40.099999999998545
tp1117
sg260
((lp1118
F40.569999999999709
tp1119
sg310
((lp1120
F40.190000000002328
tp1121
sg369
((lp1122
F40.069999999999709
tp1123
sg413
((lp1124
(F15.159999999999854
I146
tp1125
aF40.0
tp1126
ssba(imeasure_core
ProblemSetSolution
p1127
(dp1128
g3
g478
sg163
g1097
sg165
(dp1129
g482
((lp1130
F47.510000000002037
tp1131
sg540
((lp1132
(F11.409999999999854
I8
tp1133
aF40.969999999997526
tp1134
sg579
((lp1135
F45.080000000001746
tp1136
sg626
((lp1137
F40.610000000000582
tp1138
sg686
((lp1139
F40.259999999998399
tp1140
ssba.