(lp0
(imeasure_core
ProblemSetSolution
p1
(dp2
S'roomset'
p3
(imeasure_core
RoomSet
p4
(dp5
S'rooms'
p6
(dp7
(iproblems
RoomID
p8
(dp9
S'width'
p10
I10
sS'dusts'
p11
I6
sS'seed'
p12
I6832892905590973747
sS'obstacles'
p13
(I3
I2
tp14
sS'robots'
p15
I1
sS'height'
p16
I9
sb(imulti_robot_problem
MultiRobotState
p17
(dp18
S'obstacle_locations'
p19
c__builtin__
frozenset
p20
((lp21
(I3
I0
tp22
a(I2
I0
tp23
ag14
a(I3
I1
tp24
atp25
Rp26
sg10
I10
sS'dirt_locations'
p27
g20
((lp28
(I1
I2
tp29
a(I2
I7
tp30
a(I0
I0
tp31
a(I5
I6
tp32
a(I0
I5
tp33
a(I0
I2
tp34
atp35
Rp36
sg15
((I8
I4
tp37
tp38
sg16
I9
sbs(iproblems
RoomID
p39
(dp40
g10
I9
sg11
I7
sg12
I6924344268699531175
sg13
(I3
I5
tp41
sg15
I5
sg16
I7
sb(imulti_robot_problem
MultiRobotState
p42
(dp43
g19
g20
((lp44
(I2
I6
tp45
a(I1
I6
tp46
a(I3
I6
tp47
ag41
atp48
Rp49
sg10
I9
sg27
g20
((lp50
(I1
I2
tp51
a(I0
I0
tp52
a(I7
I1
tp53
a(I5
I0
tp54
a(I8
I6
tp55
a(I3
I4
tp56
a(I6
I5
tp57
atp58
Rp59
sg15
((I4
I0
tp60
(I7
I2
tp61
(I1
I1
tp62
(I6
I1
tp63
(I8
I4
tp64
tp65
sg16
I7
sbs(iproblems
RoomID
p66
(dp67
g10
I7
sg11
I6
sg12
I807570059310326234
sg13
(I3
I1
tp68
sg15
I4
sg16
I8
sb(imulti_robot_problem
MultiRobotState
p69
(dp70
g19
g20
((lp71
(I6
I3
tp72
a(I4
I2
tp73
ag68
a(I5
I3
tp74
atp75
Rp76
sg10
I7
sg27
g20
((lp77
(I3
I2
tp78
a(I6
I7
tp79
a(I4
I6
tp80
a(I0
I4
tp81
a(I1
I0
tp82
a(I5
I2
tp83
atp84
Rp85
sg15
((I1
I2
tp86
(I0
I1
tp87
(I3
I7
tp88
(I2
I4
tp89
tp90
sg16
I8
sbs(iproblems
RoomID
p91
(dp92
g10
I10
sg11
I8
sg12
I3562373307524659409
sg13
(I5
I0
tp93
sg15
I4
sg16
I10
sb(imulti_robot_problem
MultiRobotState
p94
(dp95
g19
g20
((lp96
(I7
I0
tp97
ag93
a(I8
I1
tp98
a(I6
I0
tp99
a(I6
I3
tp100
a(I3
I6
tp101
a(I6
I7
tp102
atp103
Rp104
sg10
I10
sg27
g20
((lp105
(I1
I3
tp106
a(I2
I9
tp107
a(I7
I6
tp108
a(I7
I7
tp109
a(I8
I9
tp110
a(I1
I8
tp111
a(I1
I6
tp112
a(I2
I2
tp113
atp114
Rp115
sg15
((I9
I8
tp116
(I6
I5
tp117
(I5
I1
tp118
(I8
I8
tp119
tp120
sg16
I10
sbs(iproblems
RoomID
p121
(dp122
g10
I7
sg11
I5
sg12
I2524308075868763041
sg13
(I4
I7
tp123
sg15
I3
sg16
I9
sb(imulti_robot_problem
MultiRobotState
p124
(dp125
g19
g20
((lp126
(I1
I2
tp127
ag123
a(I4
I6
tp128
a(I3
I8
tp129
a(I4
I1
tp130
a(I2
I4
tp131
a(I3
I5
tp132
atp133
Rp134
sg10
I7
sg27
g20
((lp135
(I2
I6
tp136
a(I5
I2
tp137
a(I3
I3
tp138
a(I0
I7
tp139
a(I3
I6
tp140
atp141
Rp142
sg15
((I0
I6
tp143
(I3
I1
tp144
(I4
I8
tp145
tp146
sg16
I9
sbssS'name'
p147
S'easy_roomset'
p148
sbsS'name'
p149
S"AnytimeBeam-w20-gf(1.3, 'exp')_with_PowerHeuristic2"
p150
sS'solutions'
p151
(dp152
g8
((lp153
(F0.16000000000349246
I50
tp154
a(F0.75
I44
tp155
a(F3.2300000000032014
I43
tp156
a(F4.1700000000055297
I42
tp157
a(F5.1300000000046566
I38
tp158
a(F6.7900000000008731
I37
tp159
a(F8.4000000000014552
I35
tp160
a(F9.7000000000043656
I33
tp161
a(F10.710000000006403
I31
tp162
a(F12.530000000006112
I29
tp163
a(F15.190000000002328
I27
tp164
a(F18.75
I25
tp165
a(F23.340000000003783
I22
tp166
a(F26.010000000002037
I20
tp167
aF40.0
tp168
sg39
((lp169
(F2.0800000000017462
I7
tp170
aF40.05000000000291
tp171
sg66
((lp172
F40.19999999999709
tp173
sg91
((lp174
(F0.5
I10
tp175
aF40.220000000001164
tp176
sg121
((lp177
(F0.060000000004947651
I7
tp178
aF40.010000000002037
tp179
ssba(imeasure_core
ProblemSetSolution
p180
(dp181
g3
(imeasure_core
RoomSet
p182
(dp183
S'rooms'
p184
(dp185
(iproblems
RoomID
p186
(dp187
S'width'
p188
I12
sS'dusts'
p189
I6
sS'seed'
p190
I6832892905590973747
sS'obstacles'
p191
(I6
I2
tp192
sS'robots'
p193
I3
sS'height'
p194
I11
sb(imulti_robot_problem
MultiRobotState
p195
(dp196
S'obstacle_locations'
p197
g20
((lp198
(I6
I4
tp199
a(I2
I6
tp200
a(I3
I6
tp201
a(I3
I0
tp202
a(I2
I8
tp203
a(I7
I6
tp204
a(I5
I2
tp205
a(I7
I7
tp206
a(I6
I3
tp207
a(I4
I5
tp208
a(I7
I5
tp209
a(I4
I3
tp210
a(I8
I6
tp211
ag192
a(I4
I2
tp212
a(I4
I0
tp213
a(I4
I1
tp214
a(I2
I4
tp215
a(I5
I3
tp216
atp217
Rp218
sg188
I12
sS'dirt_locations'
p219
g20
((lp220
(I6
I8
tp221
a(I2
I9
tp222
a(I1
I6
tp223
a(I0
I3
tp224
a(I0
I2
tp225
a(I7
I9
tp226
atp227
Rp228
sg193
((I10
I6
tp229
(I1
I2
tp230
(I0
I0
tp231
tp232
sg194
I11
sbs(iproblems
RoomID
p233
(dp234
g188
I11
sg189
I7
sg190
I6924344268699531175
sg191
(I3
I1
tp235
sg193
I4
sg194
I9
sb(imulti_robot_problem
MultiRobotState
p236
(dp237
g197
g20
((lp238
(I4
I7
tp239
a(I6
I6
tp240
a(I5
I6
tp241
a(I2
I8
tp242
a(I9
I8
tp243
a(I7
I7
tp244
a(I0
I7
tp245
a(I0
I3
tp246
a(I8
I5
tp247
a(I3
I8
tp248
a(I7
I6
tp249
a(I4
I8
tp250
a(I6
I3
tp251
a(I4
I1
tp252
a(I9
I7
tp253
a(I7
I5
tp254
a(I8
I7
tp255
a(I0
I8
tp256
ag235
a(I7
I4
tp257
a(I0
I6
tp258
a(I8
I8
tp259
a(I5
I2
tp260
atp261
Rp262
sg188
I11
sg219
g20
((lp263
(I10
I5
tp264
a(I1
I3
tp265
a(I4
I6
tp266
a(I8
I3
tp267
a(I0
I0
tp268
a(I4
I3
tp269
a(I0
I4
tp270
atp271
Rp272
sg193
((I6
I0
tp273
(I9
I3
tp274
(I1
I1
tp275
(I8
I1
tp276
tp277
sg194
I9
sbs(iproblems
RoomID
p278
(dp279
g188
I10
sg189
I10
sg190
I7391799147228763464
sg191
(I6
I8
tp280
sg193
I3
sg194
I11
sb(imulti_robot_problem
MultiRobotState
p281
(dp282
g197
g20
((lp283
(I5
I9
tp284
a(I4
I7
tp285
a(I4
I8
tp286
a(I6
I9
tp287
a(I0
I7
tp288
a(I3
I7
tp289
a(I5
I8
tp290
a(I4
I9
tp291
a(I3
I3
tp292
a(I6
I3
tp293
a(I3
I6
tp294
a(I4
I5
tp295
a(I1
I4
tp296
a(I1
I9
tp297
ag280
a(I2
I7
tp298
a(I4
I6
tp299
a(I9
I2
tp300
a(I3
I8
tp301
a(I1
I7
tp302
a(I0
I9
tp303
a(I7
I8
tp304
a(I0
I2
tp305
atp306
Rp307
sg188
I10
sg219
g20
((lp308
(I8
I3
tp309
a(I5
I10
tp310
a(I5
I5
tp311
a(I2
I8
tp312
a(I7
I6
tp313
a(I6
I0
tp314
a(I2
I10
tp315
a(I9
I4
tp316
a(I1
I10
tp317
a(I0
I3
tp318
atp319
Rp320
sg193
((I3
I10
tp321
(I7
I1
tp322
(I1
I5
tp323
tp324
sg194
I11
sbs(iproblems
RoomID
p325
(dp326
g188
I9
sg189
I6
sg190
I807570059310326234
sg191
(I2
I5
tp327
sg193
I4
sg194
I10
sb(imulti_robot_problem
MultiRobotState
p328
(dp329
g197
g20
((lp330
(I1
I2
tp331
a(I6
I4
tp332
a(I3
I2
tp333
a(I1
I3
tp334
a(I0
I2
tp335
a(I8
I2
tp336
a(I6
I3
tp337
a(I3
I4
tp338
a(I5
I2
tp339
a(I7
I4
tp340
a(I1
I1
tp341
a(I3
I8
tp342
a(I2
I0
tp343
a(I1
I8
tp344
a(I2
I3
tp345
a(I2
I2
tp346
ag327
a(I8
I4
tp347
a(I4
I1
tp348
a(I1
I0
tp349
a(I3
I3
tp350
atp351
Rp352
sg188
I9
sg219
g20
((lp353
(I7
I3
tp354
a(I2
I6
tp355
a(I1
I6
tp356
a(I4
I2
tp357
a(I5
I8
tp358
a(I7
I9
tp359
atp360
Rp361
sg193
((I6
I2
tp362
(I0
I1
tp363
(I3
I9
tp364
(I3
I5
tp365
tp366
sg194
I10
sbs(iproblems
RoomID
p367
(dp368
g188
I12
sg189
I8
sg190
I3562373307524659409
sg191
(I11
I7
tp369
sg193
I4
sg194
I12
sb(imulti_robot_problem
MultiRobotState
p370
(dp371
g197
g20
((lp372
(I6
I9
tp373
a(I9
I1
tp374
a(I6
I6
tp375
a(I5
I6
tp376
a(I9
I8
tp377
a(I3
I11
tp378
a(I8
I9
tp379
a(I7
I2
tp380
a(I10
I8
tp381
a(I8
I1
tp382
a(I3
I10
tp383
a(I5
I11
tp384
a(I6
I3
tp385
a(I4
I11
tp386
a(I7
I10
tp387
a(I6
I4
tp388
a(I3
I2
tp389
a(I7
I1
tp390
a(I6
I11
tp391
a(I3
I9
tp392
a(I4
I2
tp393
a(I6
I5
tp394
ag369
a(I8
I3
tp395
a(I11
I8
tp396
a(I4
I8
tp397
a(I11
I6
tp398
a(I10
I2
tp399
atp400
Rp401
sg188
I12
sg219
g20
((lp402
(I7
I3
tp403
a(I1
I3
tp404
a(I10
I11
tp405
a(I1
I7
tp406
a(I8
I8
tp407
a(I2
I2
tp408
a(I3
I7
tp409
a(I7
I9
tp410
atp411
Rp412
sg193
((I11
I10
tp413
(I7
I6
tp414
(I10
I10
tp415
(I2
I10
tp416
tp417
sg194
I12
sbssS'name'
p418
S'mild_roomset'
p419
sbsg149
g150
sg151
(dp420
g186
((lp421
(F0.11999999999534339
I10
tp422
aF40.029999999998836
tp423
sg233
((lp424
(F5.3300000000017462
I79
tp425
aF40.0
tp426
sg278
((lp427
(F0.54000000000087311
I36
tp428
aF40.0
tp429
sg325
((lp430
(F5.3799999999973807
I108
tp431
aF40.099999999998545
tp432
sg367
((lp433
(F3.1399999999994179
I75
tp434
aF40.05000000000291
tp435
ssba(imeasure_core
ProblemSetSolution
p436
(dp437
g3
(imeasure_core
RoomSet
p438
(dp439
S'rooms'
p440
(dp441
(iproblems
RoomID
p442
(dp443
S'width'
p444
I13
sS'dusts'
p445
I11
sS'seed'
p446
I6832892905590973747
sS'obstacles'
p447
(I4
I2
tp448
sS'robots'
p449
I5
sS'height'
p450
I12
sb(imulti_robot_problem
MultiRobotState
p451
(dp452
S'obstacle_locations'
p453
g20
((lp454
(I5
I9
tp455
a(I6
I9
tp456
a(I8
I2
tp457
a(I3
I0
tp458
a(I4
I1
tp459
a(I12
I11
tp460
ag448
a(I3
I4
tp461
a(I4
I0
tp462
atp463
Rp464
sg444
I13
sS'dirt_locations'
p465
g20
((lp466
(I2
I7
tp467
a(I9
I0
tp468
a(I6
I8
tp469
a(I4
I5
tp470
a(I2
I8
tp471
a(I8
I10
tp472
a(I2
I10
tp473
a(I1
I7
tp474
a(I3
I7
tp475
a(I2
I5
tp476
a(I0
I8
tp477
atp478
Rp479
sg449
((I11
I6
tp480
(I1
I2
tp481
(I1
I0
tp482
(I0
I3
tp483
(I0
I2
tp484
tp485
sg450
I12
sbs(iproblems
RoomID
p486
(dp487
g444
I12
sg445
I12
sg446
I6924344268699531175
sg447
(I6
I7
tp488
sg449
I7
sg450
I10
sb(imulti_robot_problem
MultiRobotState
p489
(dp490
g453
g20
((lp491
(I4
I7
tp492
ag488
a(I2
I9
tp493
a(I4
I8
tp494
a(I4
I1
tp495
a(I5
I7
tp496
a(I0
I6
tp497
a(I3
I9
tp498
a(I0
I9
tp499
a(I4
I9
tp500
a(I9
I6
tp501
atp502
Rp503
sg444
I12
sg465
g20
((lp504
(I7
I3
tp505
a(I5
I4
tp506
a(I1
I3
tp507
a(I9
I1
tp508
a(I8
I3
tp509
a(I0
I7
tp510
a(I8
I8
tp511
a(I0
I4
tp512
a(I0
I0
tp513
a(I0
I8
tp514
a(I11
I6
tp515
a(I9
I7
tp516
atp517
Rp518
sg449
((I6
I0
tp519
(I10
I4
tp520
(I1
I1
tp521
(I8
I2
tp522
(I11
I5
tp523
(I5
I6
tp524
(I10
I9
tp525
tp526
sg450
I10
sbs(iproblems
RoomID
p527
(dp528
g444
I11
sg445
I15
sg446
I7391799147228763464
sg447
(I4
I8
tp529
sg449
I6
sg450
I12
sb(imulti_robot_problem
MultiRobotState
p530
(dp531
g453
g20
((lp532
(I6
I4
tp533
a(I4
I7
tp534
ag529
a(I5
I6
tp535
a(I2
I8
tp536
a(I5
I7
tp537
a(I6
I9
tp538
a(I9
I2
tp539
a(I1
I6
tp540
a(I10
I7
tp541
a(I8
I6
tp542
a(I4
I2
tp543
a(I2
I4
tp544
atp545
Rp546
sg444
I11
sg465
g20
((lp547
(I7
I0
tp548
a(I10
I4
tp549
a(I6
I11
tp550
a(I7
I6
tp551
a(I1
I4
tp552
a(I8
I9
tp553
a(I1
I8
tp554
a(I3
I9
tp555
a(I0
I10
tp556
a(I9
I4
tp557
a(I7
I10
tp558
a(I1
I10
tp559
a(I4
I3
tp560
a(I0
I3
tp561
a(I0
I2
tp562
atp563
Rp564
sg449
((I4
I6
tp565
(I3
I11
tp566
(I7
I1
tp567
(I2
I5
tp568
(I5
I9
tp569
(I2
I11
tp570
tp571
sg450
I12
sbs(iproblems
RoomID
p572
(dp573
g444
I13
sg445
I13
sg446
I3562373307524659409
sg447
(I7
I4
tp574
sg449
I6
sg450
I13
sb(imulti_robot_problem
MultiRobotState
p575
(dp576
g453
g20
((lp577
(I7
I3
tp578
a(I5
I4
tp579
a(I4
I9
tp580
a(I9
I1
tp581
a(I5
I9
tp582
a(I8
I1
tp583
a(I11
I2
tp584
a(I9
I3
tp585
a(I3
I11
tp586
a(I11
I7
tp587
ag574
a(I10
I1
tp588
a(I10
I5
tp589
a(I3
I10
tp590
a(I8
I2
tp591
atp592
Rp593
sg444
I13
sg465
g20
((lp594
(I8
I3
tp595
a(I3
I12
tp596
a(I4
I8
tp597
a(I6
I10
tp598
a(I9
I9
tp599
a(I12
I6
tp600
a(I8
I9
tp601
a(I1
I8
tp602
a(I4
I3
tp603
a(I2
I2
tp604
a(I4
I2
tp605
a(I11
I12
tp606
a(I2
I4
tp607
atp608
Rp609
sg449
((I12
I11
tp610
(I7
I6
tp611
(I7
I1
tp612
(I10
I11
tp613
(I2
I11
tp614
(I9
I8
tp615
tp616
sg450
I13
sbs(iproblems
RoomID
p617
(dp618
g444
I10
sg445
I11
sg446
I807570059310326234
sg447
(I5
I1
tp619
sg449
I7
sg450
I11
sb(imulti_robot_problem
MultiRobotState
p620
(dp621
g453
g20
((lp622
(I7
I3
tp623
a(I4
I6
tp624
a(I7
I4
tp625
a(I6
I2
tp626
a(I1
I9
tp627
a(I9
I4
tp628
ag619
a(I0
I3
tp629
a(I5
I2
tp630
a(I8
I4
tp631
atp632
Rp633
sg444
I10
sg465
g20
((lp634
(I5
I9
tp635
a(I6
I9
tp636
a(I2
I9
tp637
a(I4
I8
tp638
a(I9
I2
tp639
a(I2
I0
tp640
a(I1
I6
tp641
a(I4
I2
tp642
a(I9
I5
tp643
a(I1
I0
tp644
a(I3
I5
tp645
atp646
Rp647
sg449
((I1
I3
tp648
(I0
I2
tp649
(I4
I10
tp650
(I4
I5
tp651
(I8
I10
tp652
(I8
I3
tp653
(I2
I6
tp654
tp655
sg450
I11
sbssS'name'
p656
S'heavy_roomset'
p657
sbsg149
g150
sg151
(dp658
g442
((lp659
(F7.3100000000049477
I24
tp660
aF40.390000000006694
tp661
sg486
((lp662
F56.539999999993597
tp663
sg527
((lp664
(F36.290000000000873
I40
tp665
aF41.410000000003492
tp666
sg572
((lp667
(F21.489999999997963
I15
tp668
aF41.150000000001455
tp669
sg617
((lp670
F40.239999999997963
tp671
ssba(imeasure_core
ProblemSetSolution
p672
(dp673
g3
g4
sg149
S"AnytimeBeam-w20-gf(1.5, 'exp')_with_PowerHeuristic2"
p674
sg151
(dp675
g8
((lp676
(F0.15000000000145519
I50
tp677
a(F0.40000000000145519
I44
tp678
a(F2.069999999999709
I43
tp679
a(F3.0099999999947613
I42
tp680
a(F3.9399999999950523
I38
tp681
a(F5.5999999999985448
I37
tp682
a(F7.1899999999950523
I35
tp683
a(F8.4799999999959255
I33
tp684
a(F9.4700000000011642
I31
tp685
a(F11.279999999998836
I29
tp686
a(F13.909999999996217
I27
tp687
a(F17.439999999995052
I25
tp688
a(F21.979999999995925
I22
tp689
a(F24.650000000001455
I20
tp690
aF40.0
tp691
sg39
((lp692
(F2.069999999999709
I7
tp693
aF40.269999999996799
tp694
sg66
((lp695
F40.230000000003201
tp696
sg91
((lp697
(F0.5
I10
tp698
aF40.07999999999447
tp699
sg121
((lp700
(F0.060000000004947651
I7
tp701
aF40.040000000000873
tp702
ssba(imeasure_core
ProblemSetSolution
p703
(dp704
g3
g182
sg149
g674
sg151
(dp705
g186
((lp706
(F0.12999999999738066
I10
tp707
aF40.020000000004075
tp708
sg233
((lp709
(F5.3399999999965075
I79
tp710
aF40.029999999998836
tp711
sg278
((lp712
(F0.54999999999563443
I36
tp713
aF40.040000000000873
tp714
sg325
((lp715
(F5.3599999999933061
I108
tp716
aF40.07999999999447
tp717
sg367
((lp718
(F3.1300000000046566
I75
tp719
aF40.240000000005239
tp720
ssba(imeasure_core
ProblemSetSolution
p721
(dp722
g3
g438
sg149
g674
sg151
(dp723
g442
((lp724
(F7.2900000000008731
I24
tp725
aF40.17000000000553
tp726
sg486
((lp727
F56.209999999999127
tp728
sg527
((lp729
(F36.180000000000291
I40
tp730
aF41.279999999998836
tp731
sg572
((lp732
(F21.440000000002328
I15
tp733
aF41.059999999997672
tp734
sg617
((lp735
F40.110000000000582
tp736
ssba(imeasure_core
ProblemSetSolution
p737
(dp738
g3
g4
sg149
S"AnytimeBeam-w20-gf(1.7, 'exp')_with_PowerHeuristic2"
p739
sg151
(dp740
g8
((lp741
(F0.16000000000349246
I50
tp742
a(F0.41999999999825377
I44
tp743
a(F2.1600000000034925
I43
tp744
a(F3.0900000000037835
I42
tp745
a(F4.0100000000020373
I38
tp746
a(F5.6699999999982538
I37
tp747
a(F7.2700000000040745
I35
tp748
a(F8.569999999999709
I33
tp749
a(F9.569999999999709
I31
tp750
a(F11.379999999997381
I29
tp751
a(F14.010000000002037
I27
tp752
a(F17.55000000000291
I25
tp753
a(F22.080000000001746
I22
tp754
a(F24.75
I20
tp755
aF40.0
tp756
sg39
((lp757
(F2.069999999999709
I7
tp758
aF40.120000000002619
tp759
sg66
((lp760
F40.049999999995634
tp761
sg91
((lp762
(F0.5
I10
tp763
aF40.42000000000553
tp764
sg121
((lp765
(F0.059999999997671694
I7
tp766
aF40.019999999996799
tp767
ssba(imeasure_core
ProblemSetSolution
p768
(dp769
g3
g182
sg149
g739
sg151
(dp770
g186
((lp771
(F0.12999999999738066
I10
tp772
aF40.040000000000873
tp773
sg233
((lp774
(F5.3399999999965075
I79
tp775
aF40.019999999996799
tp776
sg278
((lp777
(F0.55000000000291038
I36
tp778
aF40.020000000004075
tp779
sg325
((lp780
(F5.3600000000005821
I108
tp781
aF40.0
tp782
sg367
((lp783
(F3.1100000000005821
I75
tp784
aF40.569999999999709
tp785
ssba(imeasure_core
ProblemSetSolution
p786
(dp787
g3
g438
sg149
g739
sg151
(dp788
g442
((lp789
(F7.2999999999956344
I24
tp790
aF40.109999999993306
tp791
sg486
((lp792
F56.450000000004366
tp793
sg527
((lp794
(F36.19999999999709
I40
tp795
aF41.319999999999709
tp796
sg572
((lp797
(F21.430000000000291
I15
tp798
aF41.690000000002328
tp799
sg617
((lp800
F40.19999999999709
tp801
ssba(imeasure_core
ProblemSetSolution
p802
(dp803
g3
g4
sg149
S"AnytimeBeam-w20-gf(1.8999999999999999, 'exp')_with_PowerHeuristic2"
p804
sg151
(dp805
g8
((lp806
(F0.1599999999962165
I50
tp807
a(F0.41999999999825377
I44
tp808
a(F1.3700000000026193
I43
tp809
a(F2.3099999999976717
I42
tp810
a(F3.2300000000032014
I38
tp811
a(F4.8700000000026193
I37
tp812
a(F6.4499999999970896
I35
tp813
a(F7.7399999999979627
I33
tp814
a(F8.7300000000032014
I31
tp815
a(F10.55000000000291
I29
tp816
a(F13.169999999998254
I27
tp817
a(F16.690000000002328
I25
tp818
a(F21.220000000001164
I22
tp819
a(F23.870000000002619
I20
tp820
aF40.0
tp821
sg39
((lp822
(F2.0500000000029104
I7
tp823
aF40.139999999999418
tp824
sg66
((lp825
F40.080000000001746
tp826
sg91
((lp827
(F0.5
I10
tp828
aF40.159999999996217
tp829
sg121
((lp830
(F0.060000000004947651
I7
tp831
aF40.020000000004075
tp832
ssba(imeasure_core
ProblemSetSolution
p833
(dp834
g3
g182
sg149
g804
sg151
(dp835
g186
((lp836
(F0.13000000000465661
I10
tp837
aF40.030000000006112
tp838
sg233
((lp839
(F5.319999999999709
I79
tp840
aF40.009999999994761
tp841
sg278
((lp842
(F0.54000000000087311
I36
tp843
aF40.030000000006112
tp844
sg325
((lp845
(F5.3499999999985448
I108
tp846
aF40.279999999998836
tp847
sg367
((lp848
(F3.0999999999985448
I75
tp849
aF40.239999999997963
tp850
ssba(imeasure_core
ProblemSetSolution
p851
(dp852
g3
g438
sg149
g804
sg151
(dp853
g442
((lp854
(F7.2799999999988358
I24
tp855
aF40.339999999996508
tp856
sg486
((lp857
F56.30000000000291
tp858
sg527
((lp859
(F36.30000000000291
I40
tp860
aF41.410000000003492
tp861
sg572
((lp862
(F21.459999999999127
I15
tp863
aF41.649999999994179
tp864
sg617
((lp865
F40.220000000001164
tp866
ssba(imeasure_core
ProblemSetSolution
p867
(dp868
g3
g4
sg149
S"AnytimeBeam-w20-gf(1.3, 'exp')_with_LinearHeuristic"
p869
sg151
(dp870
g8
((lp871
(F0.020000000004074536
I20
tp872
aF40.0
tp873
sg39
((lp874
(F1.6500000000014552
I7
tp875
aF40.410000000003492
tp876
sg66
((lp877
F40.069999999999709
tp878
sg91
((lp879
F40.089999999996508
tp880
sg121
((lp881
(F0.99000000000523869
I47
tp882
a(F10.090000000003783
I46
tp883
a(F15.860000000000582
I45
tp884
a(F21.470000000001164
I44
tp885
a(F28.959999999999127
I43
tp886
a(F35.80000000000291
I42
tp887
aF40.110000000000582
tp888
ssba(imeasure_core
ProblemSetSolution
p889
(dp890
g3
g182
sg149
g869
sg151
(dp891
g186
((lp892
(F0.23999999999796273
I12
tp893
aF40.010000000002037
tp894
sg233
((lp895
F40.049999999995634
tp896
sg278
((lp897
(F0.68000000000029104
I38
tp898
aF40.040000000000873
tp899
sg325
((lp900
F40.010000000002037
tp901
sg367
((lp902
(F0.98999999999796273
I31
tp903
a(F20.970000000001164
I30
tp904
a(F27.549999999995634
I29
tp905
a(F37.0
I28
tp906
aF40.119999999995343
tp907
ssba(imeasure_core
ProblemSetSolution
p908
(dp909
g3
g438
sg149
g869
sg151
(dp910
g442
((lp911
F40.270000000004075
tp912
sg486
((lp913
F40.099999999998545
tp914
sg527
((lp915
F40.659999999996217
tp916
sg572
((lp917
F40.209999999999127
tp918
sg617
((lp919
F40.610000000000582
tp920
ssba(imeasure_core
ProblemSetSolution
p921
(dp922
g3
g4
sg149
S"AnytimeBeam-w20-gf(1.5, 'exp')_with_LinearHeuristic"
p923
sg151
(dp924
g8
((lp925
(F0.020000000004074536
I20
tp926
aF40.0
tp927
sg39
((lp928
(F1.6399999999994179
I7
tp929
aF40.230000000003201
tp930
sg66
((lp931
F40.010000000002037
tp932
sg91
((lp933
F40.089999999996508
tp934
sg121
((lp935
(F0.98999999999796273
I47
tp936
a(F7.2399999999979627
I46
tp937
a(F13.080000000001746
I45
tp938
a(F19.309999999997672
I44
tp939
a(F27.830000000001746
I43
tp940
a(F35.940000000002328
I42
tp941
aF40.05000000000291
tp942
ssba(imeasure_core
ProblemSetSolution
p943
(dp944
g3
g182
sg149
g923
sg151
(dp945
g186
((lp946
(F0.23999999999796273
I12
tp947
aF40.029999999998836
tp948
sg233
((lp949
F40.059999999997672
tp950
sg278
((lp951
(F0.68000000000029104
I38
tp952
aF40.040000000000873
tp953
sg325
((lp954
F40.040000000000873
tp955
sg367
((lp956
(F0.98999999999796273
I31
tp957
a(F18.480000000003201
I30
tp958
a(F25.860000000000582
I29
tp959
a(F36.209999999999127
I28
tp960
aF40.190000000002328
tp961
ssba(imeasure_core
ProblemSetSolution
p962
(dp963
g3
g438
sg149
g923
sg151
(dp964
g442
((lp965
F40.269999999996799
tp966
sg486
((lp967
F40.160000000003492
tp968
sg527
((lp969
F40.57999999999447
tp970
sg572
((lp971
F40.130000000004657
tp972
sg617
((lp973
F40.559999999997672
tp974
ssba(imeasure_core
ProblemSetSolution
p975
(dp976
g3
g4
sg149
S"AnytimeBeam-w20-gf(1.7, 'exp')_with_LinearHeuristic"
p977
sg151
(dp978
g8
((lp979
(F0.010000000002037268
I20
tp980
aF40.0
tp981
sg39
((lp982
(F1.6399999999994179
I7
tp983
aF41.220000000001164
tp984
sg66
((lp985
F40.010000000002037
tp986
sg91
((lp987
F40.110000000000582
tp988
sg121
((lp989
(F0.98999999999796273
I47
tp990
a(F5.8499999999985448
I46
tp991
a(F11.659999999996217
I45
tp992
a(F18.649999999994179
I44
tp993
a(F27.929999999993015
I43
tp994
a(F36.489999999997963
I42
tp995
aF40.07999999999447
tp996
ssba(imeasure_core
ProblemSetSolution
p997
(dp998
g3
g182
sg149
g977
sg151
(dp999
g186
((lp1000
(F0.25
I12
tp1001
aF40.010000000002037
tp1002
sg233
((lp1003
F40.040000000000873
tp1004
sg278
((lp1005
(F0.68000000000029104
I38
tp1006
aF40.120000000002619
tp1007
sg325
((lp1008
F40.139999999999418
tp1009
sg367
((lp1010
(F0.98999999999796273
I31
tp1011
a(F12.739999999997963
I30
tp1012
a(F19.939999999995052
I29
tp1013
a(F29.82999999999447
I28
tp1014
aF40.149999999994179
tp1015
ssba(imeasure_core
ProblemSetSolution
p1016
(dp1017
g3
g438
sg149
g977
sg151
(dp1018
g442
((lp1019
F40.419999999998254
tp1020
sg486
((lp1021
F40.520000000004075
tp1022
sg527
((lp1023
F41.019999999996799
tp1024
sg572
((lp1025
F40.360000000000582
tp1026
sg617
((lp1027
F41.080000000001746
tp1028
ssba(imeasure_core
ProblemSetSolution
p1029
(dp1030
g3
g4
sg149
S"AnytimeBeam-w20-gf(1.8999999999999999, 'exp')_with_LinearHeuristic"
p1031
sg151
(dp1032
g8
((lp1033
(F0.019999999996798579
I20
tp1034
aF40.0
tp1035
sg39
((lp1036
(F1.6500000000014552
I7
tp1037
aF40.379999999997381
tp1038
sg66
((lp1039
F40.069999999999709
tp1040
sg91
((lp1041
F40.270000000004075
tp1042
sg121
((lp1043
(F0.97999999999592546
I47
tp1044
a(F6.5499999999956344
I46
tp1045
a(F13.569999999999709
I45
tp1046
a(F21.299999999995634
I44
tp1047
a(F31.849999999998545
I43
tp1048
aF40.0
tp1049
ssba(imeasure_core
ProblemSetSolution
p1050
(dp1051
g3
g182
sg149
g1031
sg151
(dp1052
g186
((lp1053
(F0.24000000000523869
I12
tp1054
aF40.05000000000291
tp1055
sg233
((lp1056
F40.090000000003783
tp1057
sg278
((lp1058
(F0.68000000000029104
I38
tp1059
aF40.099999999998545
tp1060
sg325
((lp1061
F40.069999999999709
tp1062
sg367
((lp1063
(F0.98999999999796273
I31
tp1064
a(F14.360000000000582
I30
tp1065
a(F21.989999999997963
I29
tp1066
a(F32.919999999998254
I28
tp1067
aF40.139999999999418
tp1068
ssba(imeasure_core
ProblemSetSolution
p1069
(dp1070
g3
g438
sg149
g1031
sg151
(dp1071
g442
((lp1072
F40.269999999996799
tp1073
sg486
((lp1074
F40.060000000004948
tp1075
sg527
((lp1076
F40.540000000000873
tp1077
sg572
((lp1078
F40.029999999998836
tp1079
sg617
((lp1080
F40.569999999999709
tp1081
ssba.