(lp0
(imeasure_core
ProblemSetSolution
p1
(dp2
S'roomset'
p3
(imeasure_core
RoomSet
p4
(dp5
S'rooms'
p6
(dp7
(iproblems
RoomID
p8
(dp9
S'dusts'
p10
I8
sS'obstacles'
p11
(I2
I4
tp12
sS'robots'
p13
I4
sS'height'
p14
I9
sS'width'
p15
I7
sS'seed'
p16
I7283207964119141687
sb(imulti_robot_problem
MultiRobotState
p17
(dp18
S'obstacle_locations'
p19
c__builtin__
frozenset
p20
((lp21
(I4
I6
tp22
a(I4
I3
tp23
a(I3
I0
tp24
a(I4
I2
tp25
a(I3
I4
tp26
ag12
a(I3
I3
tp27
atp28
Rp29
sg15
I7
sS'dirt_locations'
p30
g20
((lp31
(I4
I5
tp32
a(I5
I7
tp33
a(I0
I6
tp34
a(I1
I6
tp35
a(I5
I0
tp36
a(I5
I1
tp37
a(I5
I2
tp38
a(I1
I1
tp39
atp40
Rp41
sg13
((I1
I5
tp42
(I5
I5
tp43
(I3
I1
tp44
(I3
I5
tp45
tp46
sg14
I9
sbs(iproblems
RoomID
p47
(dp48
g10
I8
sg11
(I4
I6
tp49
sg13
I2
sg14
I10
sg15
I8
sg16
I890727360438182992
sb(imulti_robot_problem
MultiRobotState
p50
(dp51
g19
g20
((lp52
(I0
I0
tp53
ag49
a(I6
I6
tp54
a(I5
I6
tp55
a(I7
I6
tp56
a(I7
I4
tp57
a(I4
I2
tp58
a(I2
I4
tp59
atp60
Rp61
sg15
I8
sg30
g20
((lp62
(I7
I0
tp63
a(I7
I1
tp64
a(I6
I3
tp65
a(I1
I8
tp66
a(I0
I5
tp67
a(I5
I1
tp68
a(I1
I0
tp69
a(I0
I3
tp70
atp71
Rp72
sg13
((I2
I8
tp73
(I2
I5
tp74
tp75
sg14
I10
sbs(iproblems
RoomID
p76
(dp77
g10
I5
sg11
(I7
I3
tp78
sg13
I1
sg14
I7
sg15
I8
sg16
I1736392818365009963
sb(imulti_robot_problem
MultiRobotState
p79
(dp80
g19
g20
((lp81
g78
a(I2
I6
tp82
a(I7
I0
tp83
a(I7
I1
tp84
a(I2
I1
tp85
a(I6
I3
tp86
a(I0
I4
tp87
a(I7
I2
tp88
atp89
Rp90
sg15
I8
sg30
g20
((lp91
(I0
I1
tp92
a(I6
I2
tp93
a(I1
I6
tp94
a(I4
I4
tp95
a(I0
I0
tp96
atp97
Rp98
sg13
((I3
I1
tp99
tp100
sg14
I7
sbs(iproblems
RoomID
p101
(dp102
g10
I10
sg11
(I6
I5
tp103
sg13
I5
sg14
I8
sg15
I9
sg16
I3960482443532127989
sb(imulti_robot_problem
MultiRobotState
p104
(dp105
g19
g20
((lp106
(I4
I5
tp107
a(I5
I5
tp108
ag103
a(I6
I6
tp109
atp110
Rp111
sg15
I9
sg30
g20
((lp112
(I2
I7
tp113
a(I2
I6
tp114
a(I5
I0
tp115
a(I5
I7
tp116
a(I1
I4
tp117
a(I1
I5
tp118
a(I3
I6
tp119
a(I8
I0
tp120
a(I8
I5
tp121
a(I5
I3
tp122
atp123
Rp124
sg13
((I4
I3
tp125
(I8
I7
tp126
(I1
I6
tp127
(I7
I3
tp128
(I6
I4
tp129
tp130
sg14
I8
sbs(iproblems
RoomID
p131
(dp132
g10
I7
sg11
(I4
I1
tp133
sg13
I3
sg14
I10
sg15
I10
sg16
I1585446675937841368
sb(imulti_robot_problem
MultiRobotState
p134
(dp135
g19
g20
((lp136
(I3
I2
tp137
a(I2
I6
tp138
a(I6
I7
tp139
a(I6
I1
tp140
a(I7
I2
tp141
a(I5
I0
tp142
ag133
a(I2
I4
tp143
a(I5
I8
tp144
atp145
Rp146
sg15
I10
sg30
g20
((lp147
(I7
I3
tp148
a(I9
I4
tp149
a(I2
I9
tp150
a(I1
I7
tp151
a(I2
I2
tp152
a(I5
I2
tp153
a(I9
I7
tp154
atp155
Rp156
sg13
((I8
I9
tp157
(I4
I4
tp158
(I9
I8
tp159
tp160
sg14
I10
sbssS'name'
p161
S'easy_roomset'
p162
sbsg161
S"AnytimeBeam-w20-gf(2, 'lin')_with_PowerHeuristic2"
p163
sS'solutions'
p164
(dp165
g8
((lp166
(F1.8099999999976717
I28
tp167
aF40.0
tp168
sg47
((lp169
(F0.08999999999650754
I19
tp170
aF40.009999999994761
tp171
sg76
((lp172
(F0.060000000004947651
I30
tp173
a(F0.15000000000145519
I28
tp174
a(F2.7700000000040745
I27
tp175
a(F6.5100000000020373
I25
tp176
a(F6.8700000000026193
I23
tp177
a(F7.1700000000055297
I22
tp178
a(F16.850000000005821
I20
tp179
aF40.0
tp180
sg101
((lp181
(F1.7800000000061118
I10
tp182
aF40.040000000000873
tp183
sg131
((lp184
(F0.22000000000116415
I14
tp185
aF40.010000000002037
tp186
ssba(imeasure_core
ProblemSetSolution
p187
(dp188
g3
(imeasure_core
RoomSet
p189
(dp190
g6
(dp191
(iproblems
RoomID
p192
(dp193
g10
I8
sg11
(I2
I6
tp194
sg13
I4
sg14
I11
sg15
I9
sg16
I7283207964119141687
sb(imulti_robot_problem
MultiRobotState
p195
(dp196
g19
g20
((lp197
(I4
I7
tp198
a(I1
I3
tp199
a(I4
I3
tp200
a(I4
I5
tp201
a(I5
I4
tp202
a(I1
I4
tp203
a(I8
I9
tp204
a(I6
I2
tp205
a(I0
I10
tp206
a(I3
I7
tp207
a(I0
I3
tp208
a(I8
I5
tp209
a(I4
I0
tp210
a(I5
I3
tp211
a(I5
I5
tp212
a(I5
I2
tp213
a(I6
I1
tp214
a(I6
I10
tp215
ag194
a(I6
I3
tp216
a(I3
I6
tp217
a(I3
I5
tp218
a(I3
I4
tp219
a(I2
I4
tp220
atp221
Rp222
sg15
I9
sg30
g20
((lp223
(I7
I0
tp224
a(I6
I8
tp225
a(I7
I1
tp226
a(I5
I6
tp227
a(I1
I8
tp228
a(I0
I8
tp229
a(I4
I1
tp230
a(I5
I8
tp231
atp232
Rp233
sg13
((I1
I7
tp234
(I6
I6
tp235
(I4
I6
tp236
(I2
I1
tp237
tp238
sg14
I11
sbs(iproblems
RoomID
p239
(dp240
g10
I8
sg11
(I3
I5
tp241
sg13
I3
sg14
I12
sg15
I10
sg16
I890727360438182992
sb(imulti_robot_problem
MultiRobotState
p242
(dp243
g19
g20
((lp244
(I4
I7
tp245
a(I0
I0
tp246
a(I3
I0
tp247
a(I3
I2
tp248
a(I1
I4
tp249
a(I8
I9
tp250
a(I7
I5
tp251
a(I2
I3
tp252
a(I3
I4
tp253
a(I5
I8
tp254
ag241
a(I3
I1
tp255
a(I6
I7
tp256
a(I6
I8
tp257
a(I5
I2
tp258
a(I5
I7
tp259
a(I8
I8
tp260
a(I3
I9
tp261
a(I4
I11
tp262
a(I7
I10
tp263
a(I2
I2
tp264
a(I0
I9
tp265
a(I7
I8
tp266
atp267
Rp268
sg15
I10
sg30
g20
((lp269
(I9
I2
tp270
a(I6
I1
tp271
a(I8
I0
tp272
a(I2
I10
tp273
a(I0
I6
tp274
a(I0
I4
tp275
a(I9
I5
tp276
a(I1
I1
tp277
atp278
Rp279
sg13
((I2
I9
tp280
(I2
I6
tp281
(I8
I4
tp282
tp283
sg14
I12
sbs(iproblems
RoomID
p284
(dp285
g10
I9
sg11
(I1
I3
tp286
sg13
I4
sg14
I9
sg15
I10
sg16
I7713914763314685786
sb(imulti_robot_problem
MultiRobotState
p287
(dp288
g19
g20
((lp289
(I3
I2
tp290
ag286
a(I7
I1
tp291
a(I9
I3
tp292
a(I6
I0
tp293
a(I2
I1
tp294
a(I4
I2
tp295
a(I5
I1
tp296
a(I9
I6
tp297
a(I7
I2
tp298
a(I4
I0
tp299
a(I1
I2
tp300
a(I7
I0
tp301
a(I5
I2
tp302
a(I6
I1
tp303
a(I3
I1
tp304
a(I1
I5
tp305
a(I1
I8
tp306
a(I2
I2
tp307
a(I3
I5
tp308
a(I4
I1
tp309
a(I1
I1
tp310
atp311
Rp312
sg15
I10
sg30
g20
((lp313
(I7
I3
tp314
a(I5
I4
tp315
a(I7
I6
tp316
a(I7
I5
tp317
a(I0
I5
tp318
a(I8
I7
tp319
a(I8
I6
tp320
a(I8
I5
tp321
a(I9
I7
tp322
atp323
Rp324
sg13
((I3
I0
tp325
(I7
I7
tp326
(I2
I0
tp327
(I4
I6
tp328
tp329
sg14
I9
sbs(iproblems
RoomID
p330
(dp331
g10
I7
sg11
(I6
I3
tp332
sg13
I3
sg14
I12
sg15
I12
sg16
I1585446675937841368
sb(imulti_robot_problem
MultiRobotState
p333
(dp334
g19
g20
((lp335
(I5
I9
tp336
a(I4
I3
tp337
a(I5
I7
tp338
a(I8
I2
tp339
a(I4
I10
tp340
a(I7
I3
tp341
a(I2
I8
tp342
a(I9
I3
tp343
a(I3
I11
tp344
a(I7
I1
tp345
a(I7
I7
tp346
a(I6
I2
tp347
a(I5
I1
tp348
a(I1
I11
tp349
a(I8
I5
tp350
a(I7
I2
tp351
a(I2
I7
tp352
a(I6
I7
tp353
a(I6
I8
tp354
a(I2
I9
tp355
a(I5
I2
tp356
a(I7
I6
tp357
a(I6
I6
tp358
a(I2
I11
tp359
ag332
a(I4
I11
tp360
a(I7
I10
tp361
a(I3
I4
tp362
a(I8
I6
tp363
a(I7
I8
tp364
a(I8
I4
tp365
atp366
Rp367
sg15
I12
sg30
g20
((lp368
(I3
I2
tp369
a(I1
I9
tp370
a(I9
I4
tp371
a(I11
I5
tp372
a(I11
I8
tp373
a(I2
I5
tp374
a(I6
I10
tp375
atp376
Rp377
sg13
((I10
I10
tp378
(I5
I5
tp379
(I11
I10
tp380
tp381
sg14
I12
sbs(iproblems
RoomID
p382
(dp383
g10
I5
sg11
(I7
I6
tp384
sg13
I3
sg14
I9
sg15
I10
sg16
I1736392818365009963
sb(imulti_robot_problem
MultiRobotState
p385
(dp386
g19
g20
((lp387
(I7
I3
tp388
a(I9
I1
tp389
a(I4
I8
tp390
a(I9
I3
tp391
a(I7
I7
tp392
a(I6
I2
tp393
a(I0
I5
tp394
a(I0
I4
tp395
a(I8
I5
tp396
a(I7
I2
tp397
a(I1
I2
tp398
a(I3
I8
tp399
a(I9
I0
tp400
a(I9
I2
tp401
ag384
a(I7
I4
tp402
a(I7
I5
tp403
a(I6
I5
tp404
a(I4
I3
tp405
a(I2
I2
tp406
a(I0
I1
tp407
a(I5
I2
tp408
a(I8
I4
tp409
atp410
Rp411
sg15
I10
sg30
g20
((lp412
(I1
I8
tp413
a(I3
I1
tp414
a(I4
I1
tp415
a(I0
I2
tp416
a(I5
I5
tp417
atp418
Rp419
sg13
((I4
I2
tp420
(I1
I0
tp421
(I8
I2
tp422
tp423
sg14
I9
sbssg161
S'mild_roomset'
p424
sbsg161
g163
sg164
(dp425
g192
((lp426
(F0.13999999999941792
I7
tp427
aF40.0
tp428
sg239
((lp429
F40.089999999996508
tp430
sg284
((lp431
(F0.52999999999883585
I15
tp432
aF40.060000000004948
tp433
sg330
((lp434
(F0.27999999999883585
I20
tp435
aF40.009999999994761
tp436
sg382
((lp437
(F1.2900000000008731
I66
tp438
aF40.0
tp439
ssba(imeasure_core
ProblemSetSolution
p440
(dp441
g3
(imeasure_core
RoomSet
p442
(dp443
g6
(dp444
(iproblems
RoomID
p445
(dp446
g10
I13
sg11
(I8
I4
tp447
sg13
I7
sg14
I12
sg15
I10
sg16
I7283207964119141687
sb(imulti_robot_problem
MultiRobotState
p448
(dp449
g19
g20
((lp450
(I6
I3
tp451
a(I5
I2
tp452
a(I6
I10
tp453
a(I6
I0
tp454
a(I7
I4
tp455
a(I0
I11
tp456
a(I6
I2
tp457
a(I3
I6
tp458
a(I2
I2
tp459
a(I0
I4
tp460
a(I3
I4
tp461
a(I5
I8
tp462
ag447
atp463
Rp464
sg15
I10
sg30
g20
((lp465
(I7
I3
tp466
a(I6
I7
tp467
a(I6
I8
tp468
a(I7
I1
tp469
a(I8
I1
tp470
a(I4
I4
tp471
a(I6
I6
tp472
a(I5
I6
tp473
a(I1
I9
tp474
a(I5
I0
tp475
a(I9
I10
tp476
a(I9
I6
tp477
a(I7
I9
tp478
atp479
Rp480
sg13
((I1
I7
tp481
(I7
I6
tp482
(I4
I6
tp483
(I2
I1
tp484
(I6
I4
tp485
(I0
I9
tp486
(I8
I0
tp487
tp488
sg14
I12
sbs(iproblems
RoomID
p489
(dp490
g10
I13
sg11
(I8
I3
tp491
sg13
I5
sg14
I13
sg15
I11
sg16
I890727360438182992
sb(imulti_robot_problem
MultiRobotState
p492
(dp493
g19
g20
((lp494
(I4
I10
tp495
a(I6
I9
tp496
a(I8
I2
tp497
a(I5
I9
tp498
a(I9
I8
tp499
ag491
a(I4
I12
tp500
a(I0
I10
tp501
a(I8
I7
tp502
a(I9
I1
tp503
a(I9
I0
tp504
a(I6
I8
tp505
a(I6
I10
tp506
a(I8
I8
tp507
a(I8
I6
tp508
a(I7
I8
tp509
a(I0
I2
tp510
atp511
Rp512
sg15
I11
sg30
g20
((lp513
(I10
I5
tp514
a(I0
I0
tp515
a(I4
I6
tp516
a(I0
I6
tp517
a(I9
I2
tp518
a(I8
I11
tp519
a(I2
I1
tp520
a(I9
I10
tp521
a(I1
I5
tp522
a(I0
I4
tp523
a(I0
I9
tp524
a(I5
I2
tp525
a(I4
I11
tp526
atp527
Rp528
sg13
((I3
I10
tp529
(I2
I7
tp530
(I9
I4
tp531
(I2
I11
tp532
(I7
I1
tp533
tp534
sg14
I13
sbs(iproblems
RoomID
p535
(dp536
g10
I12
sg11
(I6
I9
tp537
sg13
I6
sg14
I13
sg15
I13
sg16
I1585446675937841368
sb(imulti_robot_problem
MultiRobotState
p538
(dp539
g19
g20
((lp540
(I7
I3
tp541
ag537
a(I8
I11
tp542
a(I7
I7
tp543
a(I4
I12
tp544
a(I10
I3
tp545
a(I5
I8
tp546
a(I7
I4
tp547
a(I1
I12
tp548
a(I2
I9
tp549
a(I8
I1
tp550
a(I7
I6
tp551
a(I6
I3
tp552
a(I9
I2
tp553
a(I7
I5
tp554
a(I7
I2
tp555
a(I7
I10
tp556
a(I8
I4
tp557
a(I3
I4
tp558
a(I2
I4
tp559
a(I9
I12
tp560
a(I9
I7
tp561
atp562
Rp563
sg15
I13
sg30
g20
((lp564
(I3
I3
tp565
a(I2
I8
tp566
a(I12
I9
tp567
a(I6
I10
tp568
a(I8
I10
tp569
a(I2
I10
tp570
a(I12
I5
tp571
a(I4
I3
tp572
a(I5
I1
tp573
a(I7
I9
tp574
a(I5
I2
tp575
a(I3
I5
tp576
atp577
Rp578
sg13
((I10
I11
tp579
(I5
I5
tp580
(I12
I11
tp581
(I1
I10
tp582
(I3
I12
tp583
(I10
I4
tp584
tp585
sg14
I13
sbs(iproblems
RoomID
p586
(dp587
g10
I10
sg11
(I10
I4
tp588
sg13
I5
sg14
I10
sg15
I11
sg16
I1736392818365009963
sb(imulti_robot_problem
MultiRobotState
p589
(dp590
g19
g20
((lp591
(I0
I1
tp592
a(I1
I2
tp593
a(I3
I2
tp594
ag588
a(I4
I5
tp595
a(I7
I4
tp596
a(I6
I2
tp597
a(I2
I3
tp598
a(I10
I1
tp599
a(I3
I8
tp600
a(I10
I0
tp601
a(I10
I3
tp602
a(I10
I2
tp603
atp604
Rp605
sg15
I11
sg30
g20
((lp606
(I5
I9
tp607
a(I5
I5
tp608
a(I3
I1
tp609
a(I8
I8
tp610
a(I0
I5
tp611
a(I3
I9
tp612
a(I8
I4
tp613
a(I4
I1
tp614
a(I6
I5
tp615
a(I5
I3
tp616
atp617
Rp618
sg13
((I4
I2
tp619
(I1
I0
tp620
(I9
I3
tp621
(I1
I9
tp622
(I0
I2
tp623
tp624
sg14
I10
sbs(iproblems
RoomID
p625
(dp626
g10
I15
sg11
(I6
I9
tp627
sg13
I7
sg14
I11
sg15
I12
sg16
I3960482443532127989
sb(imulti_robot_problem
MultiRobotState
p628
(dp629
g19
g20
((lp630
(I5
I9
tp631
ag627
a(I9
I1
tp632
a(I4
I10
tp633
a(I5
I6
tp634
a(I7
I7
tp635
a(I2
I10
tp636
a(I3
I9
tp637
a(I9
I4
tp638
a(I5
I10
tp639
a(I6
I4
tp640
a(I6
I5
tp641
a(I1
I2
tp642
a(I7
I4
tp643
a(I8
I3
tp644
a(I6
I7
tp645
a(I2
I9
tp646
a(I10
I7
tp647
a(I5
I7
tp648
a(I6
I3
tp649
a(I8
I1
tp650
a(I0
I9
tp651
a(I8
I6
tp652
a(I7
I8
tp653
a(I11
I6
tp654
a(I9
I7
tp655
atp656
Rp657
sg15
I12
sg30
g20
((lp658
(I7
I3
tp659
a(I2
I6
tp660
a(I5
I5
tp661
a(I3
I0
tp662
a(I3
I8
tp663
a(I0
I6
tp664
a(I11
I1
tp665
a(I1
I6
tp666
a(I4
I3
tp667
a(I1
I7
tp668
a(I1
I3
tp669
a(I1
I0
tp670
a(I10
I1
tp671
a(I1
I1
tp672
a(I10
I2
tp673
atp674
Rp675
sg13
((I11
I10
tp676
(I1
I8
tp677
(I10
I5
tp678
(I11
I0
tp679
(I4
I8
tp680
(I7
I9
tp681
(I7
I1
tp682
tp683
sg14
I11
sbssg161
S'heavy_roomset'
p684
sbsg161
g163
sg164
(dp685
g445
((lp686
(F35.389999999999418
I10
tp687
aF43.75
tp688
sg489
((lp689
F40.270000000004075
tp690
sg535
((lp691
F40.089999999996508
tp692
sg586
((lp693
(F1.2200000000011642
I9
tp694
aF40.080000000001746
tp695
sg625
((lp696
F40.209999999999127
tp697
ssba(imeasure_core
ProblemSetSolution
p698
(dp699
g3
g4
sg161
S"AnytimeBeam-w20-gf(4, 'lin')_with_PowerHeuristic2"
p700
sg164
(dp701
g8
((lp702
(F1.7900000000008731
I28
tp703
aF40.099999999998545
tp704
sg47
((lp705
(F0.099999999998544808
I19
tp706
aF40.010000000002037
tp707
sg76
((lp708
(F0.069999999999708962
I30
tp709
a(F0.14999999999417923
I28
tp710
a(F1.4799999999959255
I27
tp711
a(F3.3699999999953434
I25
tp712
a(F3.7299999999959255
I23
tp713
a(F4.0299999999988358
I22
tp714
a(F8.0499999999956344
I21
tp715
a(F9.1499999999941792
I20
tp716
aF40.0
tp717
sg101
((lp718
(F1.7999999999956344
I10
tp719
aF40.459999999999127
tp720
sg131
((lp721
(F0.20999999999912689
I14
tp722
aF40.049999999995634
tp723
ssba(imeasure_core
ProblemSetSolution
p724
(dp725
g3
g189
sg161
g700
sg164
(dp726
g192
((lp727
(F0.13999999999941792
I7
tp728
aF40.05000000000291
tp729
sg239
((lp730
F40.110000000000582
tp731
sg284
((lp732
(F0.54000000000087311
I15
tp733
aF40.029999999998836
tp734
sg330
((lp735
(F0.27999999999883585
I20
tp736
aF40.0
tp737
sg382
((lp738
(F1.2999999999956344
I66
tp739
aF40.059999999997672
tp740
ssba(imeasure_core
ProblemSetSolution
p741
(dp742
g3
g442
sg161
g700
sg164
(dp743
g445
((lp744
(F35.400000000001455
I10
tp745
aF43.739999999997963
tp746
sg489
((lp747
F40.25
tp748
sg535
((lp749
F40.389999999999418
tp750
sg586
((lp751
(F1.2100000000064028
I9
tp752
aF40.020000000004075
tp753
sg625
((lp754
F40.159999999996217
tp755
ssba(imeasure_core
ProblemSetSolution
p756
(dp757
g3
g4
sg161
S"AnytimeBeam-w20-gf(8, 'lin')_with_PowerHeuristic2"
p758
sg164
(dp759
g8
((lp760
(F1.7900000000008731
I28
tp761
aF40.010000000002037
tp762
sg47
((lp763
(F0.099999999998544808
I19
tp764
aF40.0
tp765
sg76
((lp766
(F0.059999999997671694
I30
tp767
a(F0.15000000000145519
I28
tp768
a(F0.97000000000116415
I27
tp769
a(F2.0
I25
tp770
a(F2.3499999999985448
I23
tp771
a(F2.6500000000014552
I22
tp772
a(F3.8700000000026193
I21
tp773
a(F4.9500000000043656
I20
tp774
aF40.0
tp775
sg101
((lp776
(F1.7799999999988358
I10
tp777
aF40.370000000002619
tp778
sg131
((lp779
(F0.22000000000116415
I14
tp780
aF40.059999999997672
tp781
ssba(imeasure_core
ProblemSetSolution
p782
(dp783
g3
g189
sg161
g758
sg164
(dp784
g192
((lp785
(F0.15000000000145519
I7
tp786
aF40.040000000000873
tp787
sg239
((lp788
F40.129999999997381
tp789
sg284
((lp790
(F0.5300000000061118
I15
tp791
aF40.190000000002328
tp792
sg330
((lp793
(F0.27999999999883585
I20
tp794
aF40.0
tp795
sg382
((lp796
(F1.2999999999956344
I66
tp797
aF40.059999999997672
tp798
ssba(imeasure_core
ProblemSetSolution
p799
(dp800
g3
g442
sg161
g758
sg164
(dp801
g445
((lp802
(F35.330000000001746
I10
tp803
aF43.660000000003492
tp804
sg489
((lp805
F40.25
tp806
sg535
((lp807
F40.049999999995634
tp808
sg586
((lp809
(F1.2100000000064028
I9
tp810
aF40.630000000004657
tp811
sg625
((lp812
F40.25
tp813
ssba(imeasure_core
ProblemSetSolution
p814
(dp815
g3
g4
sg161
S"AnytimeBeam-w20-gf(16, 'lin')_with_PowerHeuristic2"
p816
sg164
(dp817
g8
((lp818
(F1.7799999999988358
I28
tp819
aF40.07999999999447
tp820
sg47
((lp821
(F0.090000000003783498
I19
tp822
aF40.0
tp823
sg76
((lp824
(F0.069999999999708962
I30
tp825
a(F0.16000000000349246
I28
tp826
a(F0.48000000000320142
I27
tp827
a(F1.2099999999991269
I25
tp828
a(F1.569999999999709
I23
tp829
a(F1.8600000000005821
I22
tp830
a(F3.0800000000017462
I21
tp831
a(F4.180000000000291
I20
tp832
aF40.0
tp833
sg101
((lp834
(F1.7900000000008731
I10
tp835
aF40.150000000001455
tp836
sg131
((lp837
(F0.22000000000116415
I14
tp838
aF40.040000000000873
tp839
ssba(imeasure_core
ProblemSetSolution
p840
(dp841
g3
g189
sg161
g816
sg164
(dp842
g192
((lp843
(F0.15000000000145519
I7
tp844
aF40.150000000001455
tp845
sg239
((lp846
F40.059999999997672
tp847
sg284
((lp848
(F0.54000000000087311
I15
tp849
aF40.090000000003783
tp850
sg330
((lp851
(F0.27999999999883585
I20
tp852
aF40.039999999993597
tp853
sg382
((lp854
(F1.3000000000029104
I66
tp855
aF40.040000000000873
tp856
ssba(imeasure_core
ProblemSetSolution
p857
(dp858
g3
g442
sg161
g816
sg164
(dp859
g445
((lp860
(F35.360000000000582
I10
tp861
aF43.690000000002328
tp862
sg489
((lp863
F40.389999999999418
tp864
sg535
((lp865
F40.010000000002037
tp866
sg586
((lp867
(F1.2199999999938882
I9
tp868
aF40.439999999995052
tp869
sg625
((lp870
F40.160000000003492
tp871
ssba(imeasure_core
ProblemSetSolution
p872
(dp873
g3
g4
sg161
S"AnytimeBeam-w20-gf(2, 'lin')_with_LinearHeuristic"
p874
sg164
(dp875
g8
((lp876
(F0.37999999999738066
I5
tp877
aF40.080000000001746
tp878
sg47
((lp879
(F0.16999999999825377
I22
tp880
aF40.0
tp881
sg76
((lp882
(F0.0099999999947613105
I20
tp883
aF40.0
tp884
sg101
((lp885
(F2.1399999999994179
I10
tp886
aF40.299999999995634
tp887
sg131
((lp888
(F2.8600000000005821
I67
tp889
aF40.020000000004075
tp890
ssba(imeasure_core
ProblemSetSolution
p891
(dp892
g3
g189
sg161
g874
sg164
(dp893
g192
((lp894
(F13.459999999999127
I177
tp895
aF40.040000000000873
tp896
sg239
((lp897
F40.090000000003783
tp898
sg284
((lp899
F40.099999999998545
tp900
sg330
((lp901
F40.049999999995634
tp902
sg382
((lp903
(F0.30000000000291038
I23
tp904
aF40.040000000000873
tp905
ssba(imeasure_core
ProblemSetSolution
p906
(dp907
g3
g442
sg161
g874
sg164
(dp908
g445
((lp909
F42.709999999999127
tp910
sg489
((lp911
F40.220000000001164
tp912
sg535
((lp913
F40.260000000002037
tp914
sg586
((lp915
(F18.629999999997381
I95
tp916
aF40.75
tp917
sg625
((lp918
F40.19999999999709
tp919
ssba(imeasure_core
ProblemSetSolution
p920
(dp921
g3
g4
sg161
S"AnytimeBeam-w20-gf(4, 'lin')_with_LinearHeuristic"
p922
sg164
(dp923
g8
((lp924
(F0.37999999999738066
I5
tp925
aF40.05000000000291
tp926
sg47
((lp927
(F0.18000000000029104
I22
tp928
aF40.009999999994761
tp929
sg76
((lp930
(F0.020000000004074536
I20
tp931
aF40.0
tp932
sg101
((lp933
(F2.1300000000046566
I10
tp934
aF40.190000000002328
tp935
sg131
((lp936
(F2.8400000000037835
I67
tp937
aF40.129999999997381
tp938
ssba(imeasure_core
ProblemSetSolution
p939
(dp940
g3
g189
sg161
g922
sg164
(dp941
g192
((lp942
(F13.220000000001164
I177
tp943
aF40.010000000002037
tp944
sg239
((lp945
F40.010000000002037
tp946
sg284
((lp947
F40.339999999996508
tp948
sg330
((lp949
F40.05000000000291
tp950
sg382
((lp951
(F0.29999999999563443
I23
tp952
a(F24.409999999996217
I21
tp953
a(F29.790000000000873
I20
tp954
a(F38.339999999996508
I19
tp955
aF40.029999999998836
tp956
ssba(imeasure_core
ProblemSetSolution
p957
(dp958
g3
g442
sg161
g922
sg164
(dp959
g445
((lp960
F42.930000000000291
tp961
sg489
((lp962
F40.19999999999709
tp963
sg535
((lp964
F40.339999999996508
tp965
sg586
((lp966
(F18.600000000005821
I95
tp967
aF40.850000000005821
tp968
sg625
((lp969
F40.209999999999127
tp970
ssba(imeasure_core
ProblemSetSolution
p971
(dp972
g3
g4
sg161
S"AnytimeBeam-w20-gf(8, 'lin')_with_LinearHeuristic"
p973
sg164
(dp974
g8
((lp975
(F0.37999999999738066
I5
tp976
aF40.139999999999418
tp977
sg47
((lp978
(F0.18000000000029104
I22
tp979
aF40.0
tp980
sg76
((lp981
(F0.010000000002037268
I20
tp982
aF40.0
tp983
sg101
((lp984
(F2.1399999999994179
I10
tp985
aF40.319999999999709
tp986
sg131
((lp987
(F2.8499999999985448
I67
tp988
aF40.110000000000582
tp989
ssba(imeasure_core
ProblemSetSolution
p990
(dp991
g3
g189
sg161
g973
sg164
(dp992
g192
((lp993
(F13.419999999998254
I177
tp994
aF40.040000000000873
tp995
sg239
((lp996
F40.009999999994761
tp997
sg284
((lp998
F40.30000000000291
tp999
sg330
((lp1000
F40.080000000001746
tp1001
sg382
((lp1002
(F0.29999999999563443
I23
tp1003
a(F15.529999999998836
I21
tp1004
a(F20.94999999999709
I20
tp1005
a(F29.599999999998545
I19
tp1006
aF40.049999999995634
tp1007
ssba(imeasure_core
ProblemSetSolution
p1008
(dp1009
g3
g442
sg161
g973
sg164
(dp1010
g445
((lp1011
F42.540000000000873
tp1012
sg489
((lp1013
F40.169999999998254
tp1014
sg535
((lp1015
F40.180000000000291
tp1016
sg586
((lp1017
(F18.55000000000291
I95
tp1018
aF41.220000000001164
tp1019
sg625
((lp1020
F40.25
tp1021
ssba(imeasure_core
ProblemSetSolution
p1022
(dp1023
g3
g4
sg161
S"AnytimeBeam-w20-gf(16, 'lin')_with_LinearHeuristic"
p1024
sg164
(dp1025
g8
((lp1026
(F0.37999999999738066
I5
tp1027
aF40.009999999994761
tp1028
sg47
((lp1029
(F0.17000000000552973
I22
tp1030
aF40.030000000006112
tp1031
sg76
((lp1032
(F0.0099999999947613105
I20
tp1033
aF40.0
tp1034
sg101
((lp1035
(F2.1199999999953434
I10
tp1036
aF40.209999999999127
tp1037
sg131
((lp1038
(F2.8799999999973807
I67
tp1039
aF40.009999999994761
tp1040
ssba(imeasure_core
ProblemSetSolution
p1041
(dp1042
g3
g189
sg161
g1024
sg164
(dp1043
g192
((lp1044
(F13.17000000000553
I177
tp1045
aF40.030000000006112
tp1046
sg239
((lp1047
F40.069999999999709
tp1048
sg284
((lp1049
F40.110000000000582
tp1050
sg330
((lp1051
F40.139999999999418
tp1052
sg382
((lp1053
(F0.29999999999563443
I23
tp1054
a(F15.779999999998836
I21
tp1055
a(F21.219999999993888
I20
tp1056
a(F29.860000000000582
I19
tp1057
aF40.019999999996799
tp1058
ssba(imeasure_core
ProblemSetSolution
p1059
(dp1060
g3
g442
sg161
g1024
sg164
(dp1061
g445
((lp1062
F42.790000000000873
tp1063
sg489
((lp1064
F40.089999999996508
tp1065
sg535
((lp1066
F40.220000000001164
tp1067
sg586
((lp1068
(F18.510000000002037
I95
tp1069
aF43.94999999999709
tp1070
sg625
((lp1071
F40.17000000000553
tp1072
ssba.