(lp0
(imeasure_core
ProblemSetSolution
p1
(dp2
S'roomset'
p3
(imeasure_core
RoomSet
p4
(dp5
S'rooms'
p6
(dp7
(iproblems
RoomID
p8
(dp9
S'width'
p10
I9
sS'dusts'
p11
I10
sS'seed'
p12
I4712128852136459333
sS'obstacles'
p13
(I0
I8
tp14
sS'robots'
p15
I4
sS'height'
p16
I10
sb(imulti_robot_problem
MultiRobotState
p17
(dp18
S'obstacle_locations'
p19
c__builtin__
frozenset
p20
((lp21
(I1
I5
tp22
a(I8
I0
tp23
a(I0
I7
tp24
a(I0
I6
tp25
a(I2
I3
tp26
ag14
a(I1
I1
tp27
atp28
Rp29
sg10
I9
sS'dirt_locations'
p30
g20
((lp31
(I4
I7
tp32
a(I1
I3
tp33
a(I4
I9
tp34
a(I8
I1
tp35
a(I7
I6
tp36
a(I2
I6
tp37
a(I8
I7
tp38
a(I2
I2
tp39
a(I4
I1
tp40
a(I2
I4
tp41
atp42
Rp43
sg15
((I5
I8
tp44
(I6
I9
tp45
(I5
I0
tp46
(I3
I1
tp47
tp48
sg16
I10
sbs(iproblems
RoomID
p49
(dp50
g10
I8
sg11
I9
sg12
I6613812840851947673
sg13
(I3
I4
tp51
sg15
I1
sg16
I7
sb(imulti_robot_problem
MultiRobotState
p52
(dp53
g19
g20
((lp54
(I1
I4
tp55
ag51
a(I2
I4
tp56
a(I2
I1
tp57
a(I3
I5
tp58
atp59
Rp60
sg10
I8
sg30
g20
((lp61
(I6
I4
tp62
a(I5
I4
tp63
a(I6
I0
tp64
a(I7
I5
tp65
a(I1
I6
tp66
a(I2
I2
tp67
a(I0
I5
tp68
a(I4
I1
tp69
a(I4
I0
tp70
atp71
Rp72
sg15
((I3
I1
tp73
tp74
sg16
I7
sbs(iproblems
RoomID
p75
(dp76
g10
I8
sg11
I10
sg12
I2893396244277848635
sg13
(I4
I5
tp77
sg15
I1
sg16
I8
sb(imulti_robot_problem
MultiRobotState
p78
(dp79
g19
g20
((lp80
g77
a(I3
I7
tp81
a(I2
I6
tp82
a(I4
I6
tp83
atp84
Rp85
sg10
I8
sg30
g20
((lp86
(I6
I4
tp87
a(I0
I0
tp88
a(I6
I7
tp89
a(I3
I0
tp90
a(I2
I1
tp91
a(I0
I6
tp92
a(I6
I5
tp93
a(I2
I4
tp94
a(I7
I2
tp95
a(I5
I3
tp96
atp97
Rp98
sg15
((I2
I3
tp99
tp100
sg16
I8
sbs(iproblems
RoomID
p101
(dp102
g10
I7
sg11
I10
sg12
I956523682424107605
sg13
(I4
I8
tp103
sg15
I4
sg16
I10
sb(imulti_robot_problem
MultiRobotState
p104
(dp105
g19
g20
((lp106
(I2
I8
tp107
a(I4
I2
tp108
a(I3
I7
tp109
a(I2
I9
tp110
ag103
atp111
Rp112
sg10
I7
sg30
g20
((lp113
(I5
I9
tp114
a(I4
I7
tp115
a(I1
I3
tp116
a(I3
I3
tp117
a(I6
I1
tp118
a(I5
I4
tp119
a(I0
I4
tp120
a(I5
I3
tp121
a(I5
I2
tp122
a(I5
I5
tp123
atp124
Rp125
sg15
((I1
I9
tp126
(I4
I9
tp127
(I1
I8
tp128
(I0
I3
tp129
tp130
sg16
I10
sbs(iproblems
RoomID
p131
(dp132
g10
I8
sg11
I9
sg12
I4594210616595436404
sg13
(I5
I3
tp133
sg15
I3
sg16
I7
sb(imulti_robot_problem
MultiRobotState
p134
(dp135
g19
g20
((lp136
(I0
I1
tp137
a(I3
I3
tp138
a(I6
I1
tp139
a(I4
I3
tp140
a(I4
I2
tp141
ag133
atp142
Rp143
sg10
I8
sg30
g20
((lp144
(I6
I6
tp145
a(I5
I6
tp146
a(I4
I4
tp147
a(I1
I4
tp148
a(I1
I1
tp149
a(I0
I6
tp150
a(I5
I1
tp151
a(I1
I0
tp152
a(I0
I3
tp153
atp154
Rp155
sg15
((I2
I1
tp156
(I3
I4
tp157
(I3
I6
tp158
tp159
sg16
I7
sbssS'name'
p160
S'easy_roomset'
p161
sbsS'name'
p162
S'AnytimeBest-d10_with_PowerHeuristic2'
p163
sS'solutions'
p164
(dp165
g8
((lp166
F40.180000000000291
tp167
sg49
((lp168
F0.69999999999708962
tp169
sg75
((lp170
F0.86000000000058208
tp171
sg101
((lp172
(F0.33000000000174623
I10
tp173
aF40.05000000000291
tp174
sg131
((lp175
F40.119999999995343
tp176
ssba(imeasure_core
ProblemSetSolution
p177
(dp178
g3
(imeasure_core
RoomSet
p179
(dp180
S'rooms'
p181
(dp182
(iproblems
RoomID
p183
(dp184
S'width'
p185
I11
sS'dusts'
p186
I10
sS'seed'
p187
I4712128852136459333
sS'obstacles'
p188
(I8
I7
tp189
sS'robots'
p190
I4
sS'height'
p191
I12
sb(imulti_robot_problem
MultiRobotState
p192
(dp193
S'obstacle_locations'
p194
g20
((lp195
(I4
I7
tp196
a(I3
I11
tp197
a(I0
I7
tp198
a(I1
I6
tp199
a(I2
I10
tp200
a(I1
I11
tp201
a(I9
I0
tp202
a(I5
I5
tp203
a(I7
I6
tp204
a(I4
I1
tp205
a(I1
I1
tp206
a(I6
I4
tp207
a(I4
I5
tp208
a(I7
I7
tp209
a(I2
I3
tp210
a(I1
I9
tp211
ag189
a(I4
I2
tp212
a(I0
I8
tp213
a(I6
I5
tp214
a(I5
I3
tp215
a(I3
I1
tp216
a(I2
I11
tp217
a(I0
I9
tp218
atp219
Rp220
sg185
I11
sS'dirt_locations'
p221
g20
((lp222
(I2
I7
tp223
a(I9
I1
tp224
a(I9
I8
tp225
a(I3
I3
tp226
a(I5
I1
tp227
a(I2
I5
tp228
a(I3
I4
tp229
a(I2
I4
tp230
a(I5
I8
tp231
a(I9
I7
tp232
atp233
Rp234
sg190
((I6
I10
tp235
(I8
I10
tp236
(I7
I0
tp237
(I5
I11
tp238
tp239
sg191
I12
sbs(iproblems
RoomID
p240
(dp241
g185
I10
sg186
I9
sg187
I4594210616595436404
sg188
(I4
I4
tp242
sg190
I3
sg191
I9
sb(imulti_robot_problem
MultiRobotState
p243
(dp244
g194
g20
((lp245
(I1
I3
tp246
a(I5
I6
tp247
a(I2
I1
tp248
a(I1
I6
tp249
a(I9
I4
tp250
a(I3
I7
tp251
a(I0
I3
tp252
a(I1
I2
tp253
a(I5
I5
tp254
a(I1
I5
tp255
a(I7
I6
tp256
ag242
a(I6
I3
tp257
a(I3
I0
tp258
a(I3
I6
tp259
a(I0
I4
tp260
a(I8
I6
tp261
a(I5
I3
tp262
a(I1
I1
tp263
a(I5
I4
tp264
a(I4
I5
tp265
a(I0
I5
tp266
a(I9
I5
tp267
a(I3
I5
tp268
a(I0
I1
tp269
a(I3
I4
tp270
a(I0
I6
tp271
a(I1
I8
tp272
a(I2
I3
tp273
a(I2
I0
tp274
a(I5
I2
tp275
a(I0
I2
tp276
atp277
Rp278
sg185
I10
sg221
g20
((lp279
(I7
I0
tp280
a(I6
I8
tp281
a(I2
I8
tp282
a(I8
I5
tp283
a(I8
I8
tp284
a(I0
I8
tp285
a(I7
I8
tp286
a(I5
I8
tp287
a(I8
I2
tp288
atp289
Rp290
sg190
((I4
I6
tp291
(I2
I5
tp292
(I6
I1
tp293
tp294
sg191
I9
sbs(iproblems
RoomID
p295
(dp296
g185
I11
sg186
I5
sg187
I1881095652490078568
sg188
(I4
I9
tp297
sg190
I4
sg191
I11
sb(imulti_robot_problem
MultiRobotState
p298
(dp299
g194
g20
((lp300
(I6
I9
tp301
a(I6
I6
tp302
a(I2
I8
tp303
a(I4
I7
tp304
ag297
a(I7
I6
tp305
a(I4
I4
tp306
a(I8
I10
tp307
a(I6
I3
tp308
a(I7
I10
tp309
a(I2
I2
tp310
a(I1
I1
tp311
a(I5
I4
tp312
a(I4
I5
tp313
a(I9
I3
tp314
a(I7
I5
tp315
a(I6
I7
tp316
a(I6
I5
tp317
a(I3
I5
tp318
a(I4
I6
tp319
a(I7
I4
tp320
a(I1
I7
tp321
a(I4
I8
tp322
a(I7
I8
tp323
a(I8
I4
tp324
atp325
Rp326
sg185
I11
sg221
g20
((lp327
(I1
I10
tp328
a(I5
I9
tp329
a(I0
I0
tp330
a(I9
I7
tp331
a(I10
I2
tp332
atp333
Rp334
sg190
((I5
I7
tp335
(I8
I1
tp336
(I3
I1
tp337
(I8
I8
tp338
tp339
sg191
I11
sbs(iproblems
RoomID
p340
(dp341
g185
I12
sg186
I6
sg187
I7529058068588108450
sg188
(I8
I8
tp342
sg190
I4
sg191
I11
sb(imulti_robot_problem
MultiRobotState
p343
(dp344
g194
g20
((lp345
(I5
I9
tp346
a(I6
I9
tp347
a(I9
I1
tp348
a(I6
I6
tp349
a(I7
I7
tp350
a(I3
I7
tp351
a(I5
I8
tp352
a(I8
I2
tp353
a(I5
I5
tp354
a(I7
I6
tp355
a(I4
I4
tp356
a(I1
I5
tp357
a(I7
I2
tp358
a(I3
I6
tp359
a(I2
I2
tp360
a(I1
I10
tp361
a(I4
I10
tp362
a(I3
I2
tp363
a(I2
I6
tp364
a(I10
I4
tp365
a(I7
I1
tp366
a(I7
I5
tp367
a(I4
I6
tp368
a(I6
I8
tp369
a(I7
I4
tp370
ag342
a(I7
I8
tp371
a(I3
I10
tp372
atp373
Rp374
sg185
I12
sg221
g20
((lp375
(I7
I3
tp376
a(I6
I0
tp377
a(I11
I3
tp378
a(I0
I5
tp379
a(I11
I6
tp380
a(I4
I0
tp381
atp382
Rp383
sg190
((I11
I7
tp384
(I6
I2
tp385
(I11
I5
tp386
(I6
I7
tp387
tp388
sg191
I11
sbs(iproblems
RoomID
p389
(dp390
g185
I9
sg186
I8
sg187
I6858376947525423350
sg188
(I5
I0
tp391
sg190
I4
sg191
I9
sb(imulti_robot_problem
MultiRobotState
p392
(dp393
g194
g20
((lp394
(I4
I7
tp395
a(I1
I3
tp396
a(I3
I0
tp397
a(I2
I8
tp398
a(I2
I1
tp399
a(I1
I6
tp400
a(I5
I1
tp401
a(I2
I5
tp402
a(I7
I2
tp403
a(I5
I5
tp404
a(I6
I3
tp405
ag391
a(I2
I2
tp406
a(I6
I4
tp407
a(I7
I1
tp408
a(I6
I0
tp409
a(I2
I3
tp410
a(I0
I8
tp411
a(I2
I7
tp412
a(I6
I1
tp413
a(I5
I7
tp414
a(I3
I8
tp415
a(I1
I8
tp416
a(I4
I3
tp417
a(I3
I4
tp418
a(I2
I4
tp419
atp420
Rp421
sg185
I9
sg221
g20
((lp422
(I8
I3
tp423
a(I7
I0
tp424
a(I4
I6
tp425
a(I6
I6
tp426
a(I8
I0
tp427
a(I8
I8
tp428
a(I7
I5
tp429
a(I8
I4
tp430
atp431
Rp432
sg190
((I1
I1
tp433
(I6
I5
tp434
(I8
I2
tp435
(I1
I5
tp436
tp437
sg191
I9
sbssS'name'
p438
S'mild_roomset'
p439
sbsg162
g163
sg164
(dp440
g183
((lp441
F40.330000000001746
tp442
sg240
((lp443
F40.040000000000873
tp444
sg295
((lp445
(F0.15000000000145519
I7
tp446
aF40.010000000002037
tp447
sg340
((lp448
F40.029999999998836
tp449
sg389
((lp450
F40.029999999998836
tp451
ssba(imeasure_core
ProblemSetSolution
p452
(dp453
g3
(imeasure_core
RoomSet
p454
(dp455
S'rooms'
p456
(dp457
(iproblems
RoomID
p458
(dp459
S'width'
p460
I12
sS'dusts'
p461
I15
sS'seed'
p462
I4712128852136459333
sS'obstacles'
p463
(I5
I9
tp464
sS'robots'
p465
I7
sS'height'
p466
I13
sb(imulti_robot_problem
MultiRobotState
p467
(dp468
S'obstacle_locations'
p469
g20
((lp470
g464
a(I4
I9
tp471
a(I5
I5
tp472
a(I2
I8
tp473
a(I3
I1
tp474
a(I4
I12
tp475
a(I9
I4
tp476
a(I1
I7
tp477
a(I1
I10
tp478
a(I3
I12
tp479
a(I3
I9
tp480
a(I0
I8
tp481
a(I5
I2
tp482
atp483
Rp484
sg460
I12
sS'dirt_locations'
p485
g20
((lp486
(I6
I9
tp487
a(I9
I7
tp488
a(I3
I3
tp489
a(I1
I12
tp490
a(I5
I6
tp491
a(I7
I7
tp492
a(I3
I8
tp493
a(I8
I8
tp494
a(I10
I0
tp495
a(I2
I5
tp496
a(I10
I2
tp497
a(I3
I4
tp498
a(I1
I1
tp499
a(I5
I8
tp500
a(I3
I5
tp501
atp502
Rp503
sg465
((I6
I11
tp504
(I8
I11
tp505
(I7
I0
tp506
(I4
I1
tp507
(I6
I12
tp508
(I10
I9
tp509
(I6
I1
tp510
tp511
sg466
I13
sbs(iproblems
RoomID
p512
(dp513
g460
I11
sg461
I14
sg462
I6613812840851947673
sg463
(I5
I5
tp514
sg465
I5
sg466
I10
sb(imulti_robot_problem
MultiRobotState
p515
(dp516
g469
g20
((lp517
(I10
I8
tp518
a(I4
I7
tp519
a(I2
I6
tp520
ag514
a(I6
I6
tp521
a(I4
I5
tp522
a(I8
I5
tp523
a(I7
I4
tp524
a(I3
I6
tp525
a(I6
I3
tp526
a(I0
I6
tp527
a(I7
I5
tp528
a(I1
I6
tp529
a(I1
I3
tp530
a(I8
I7
tp531
a(I8
I6
tp532
a(I3
I8
tp533
a(I3
I7
tp534
a(I10
I3
tp535
a(I2
I4
tp536
a(I3
I5
tp537
atp538
Rp539
sg460
I11
sg485
g20
((lp540
(I6
I4
tp541
a(I3
I2
tp542
a(I4
I9
tp543
a(I4
I6
tp544
a(I9
I8
tp545
a(I8
I0
tp546
a(I9
I7
tp547
a(I8
I8
tp548
a(I5
I0
tp549
a(I1
I0
tp550
a(I8
I4
tp551
a(I5
I2
tp552
a(I6
I1
tp553
a(I3
I3
tp554
atp555
Rp556
sg465
((I5
I1
tp557
(I0
I8
tp558
(I2
I9
tp559
(I4
I1
tp560
(I7
I6
tp561
tp562
sg466
I10
sbs(iproblems
RoomID
p563
(dp564
g460
I10
sg461
I15
sg462
I956523682424107605
sg463
(I4
I8
tp565
sg465
I6
sg466
I13
sb(imulti_robot_problem
MultiRobotState
p566
(dp567
g469
g20
((lp568
(I2
I7
tp569
a(I5
I9
tp570
a(I6
I9
tp571
a(I5
I0
tp572
a(I4
I9
tp573
a(I9
I4
tp574
ag565
a(I5
I6
tp575
a(I3
I10
tp576
a(I5
I7
tp577
a(I3
I11
tp578
a(I9
I9
tp579
a(I7
I10
tp580
a(I5
I10
tp581
a(I7
I8
tp582
a(I1
I1
tp583
a(I5
I8
tp584
a(I5
I5
tp585
atp586
Rp587
sg460
I10
sg485
g20
((lp588
(I8
I3
tp589
a(I1
I3
tp590
a(I6
I6
tp591
a(I8
I12
tp592
a(I7
I6
tp593
a(I6
I10
tp594
a(I5
I4
tp595
a(I1
I4
tp596
a(I2
I10
tp597
a(I7
I4
tp598
a(I1
I5
tp599
a(I7
I5
tp600
a(I0
I9
tp601
a(I7
I11
tp602
a(I6
I2
tp603
atp604
Rp605
sg465
((I1
I12
tp606
(I6
I12
tp607
(I2
I11
tp608
(I0
I4
tp609
(I9
I1
tp610
(I7
I7
tp611
tp612
sg466
I13
sbs(iproblems
RoomID
p613
(dp614
g460
I10
sg461
I13
sg462
I6858376947525423350
sg463
(I1
I6
tp615
sg465
I7
sg466
I10
sb(imulti_robot_problem
MultiRobotState
p616
(dp617
g469
g20
((lp618
(I2
I7
tp619
a(I8
I6
tp620
a(I4
I7
tp621
a(I1
I3
tp622
a(I2
I9
tp623
ag615
a(I8
I1
tp624
a(I2
I8
tp625
a(I1
I7
tp626
a(I2
I1
tp627
a(I2
I3
tp628
a(I2
I2
tp629
a(I0
I9
tp630
a(I9
I5
tp631
a(I2
I5
tp632
a(I2
I4
tp633
atp634
Rp635
sg460
I10
sg485
g20
((lp636
(I5
I7
tp637
a(I4
I9
tp638
a(I3
I3
tp639
a(I3
I0
tp640
a(I7
I6
tp641
a(I8
I0
tp642
a(I9
I9
tp643
a(I6
I2
tp644
a(I5
I8
tp645
a(I9
I4
tp646
a(I8
I5
tp647
a(I4
I4
tp648
a(I5
I3
tp649
atp650
Rp651
sg465
((I1
I2
tp652
(I7
I5
tp653
(I7
I2
tp654
(I9
I2
tp655
(I1
I5
tp656
(I9
I0
tp657
(I6
I6
tp658
tp659
sg466
I10
sbs(iproblems
RoomID
p660
(dp661
g460
I11
sg461
I15
sg462
I2893396244277848635
sg463
(I6
I6
tp662
sg465
I5
sg466
I11
sb(imulti_robot_problem
MultiRobotState
p663
(dp664
g469
g20
((lp665
(I7
I3
tp666
a(I4
I7
tp667
a(I5
I5
tp668
a(I4
I8
tp669
a(I5
I6
tp670
a(I2
I8
tp671
ag662
a(I3
I2
tp672
a(I3
I9
tp673
a(I4
I3
tp674
a(I1
I7
tp675
a(I6
I9
tp676
atp677
Rp678
sg460
I11
sg485
g20
((lp679
(I5
I3
tp680
a(I2
I6
tp681
a(I3
I6
tp682
a(I3
I10
tp683
a(I3
I1
tp684
a(I2
I10
tp685
a(I0
I5
tp686
a(I5
I8
tp687
a(I8
I7
tp688
a(I3
I7
tp689
a(I8
I6
tp690
a(I7
I9
tp691
a(I4
I1
tp692
a(I6
I5
tp693
a(I4
I0
tp694
atp695
Rp696
sg465
((I4
I5
tp697
(I0
I9
tp698
(I0
I1
tp699
(I9
I2
tp700
(I8
I10
tp701
tp702
sg466
I11
sbssS'name'
p703
S'heavy_roomset'
p704
sbsg162
g163
sg164
(dp705
g458
((lp706
F46.509999999994761
tp707
sg512
((lp708
F40.480000000003201
tp709
sg660
((lp710
F40.310000000004948
tp711
sg563
((lp712
(F12.599999999998545
I10
tp713
aF40.819999999999709
tp714
sg613
((lp715
F40.309999999997672
tp716
ssba(imeasure_core
ProblemSetSolution
p717
(dp718
g3
g4
sg162
S'AnytimeBest-d80_with_PowerHeuristic2'
p719
sg164
(dp720
g8
((lp721
(F3.3099999999976717
I51
tp722
aF40.040000000000873
tp723
sg49
((lp724
(F0.13999999999941792
I36
tp725
a(F1.5499999999956344
I30
tp726
a(F2.3399999999965075
I29
tp727
a(F9.4599999999991269
I28
tp728
a(F13.169999999998254
I27
tp729
a(F24.169999999998254
I26
tp730
a(F24.239999999997963
I25
tp731
aF40.019999999996799
tp732
sg75
((lp733
(F0.69000000000232831
I61
tp734
a(F2.0400000000008731
I57
tp735
a(F2.5800000000017462
I56
tp736
a(F3.3300000000017462
I54
tp737
a(F3.5599999999976717
I52
tp738
a(F5.5599999999976717
I51
tp739
a(F7.7600000000020373
I50
tp740
a(F8.3300000000017462
I48
tp741
a(F9.6200000000026193
I46
tp742
a(F10.830000000001746
I44
tp743
a(F21.760000000002037
I43
tp744
a(F22.360000000000582
I42
tp745
a(F23.099999999998545
I41
tp746
a(F24.30000000000291
I40
tp747
a(F25.730000000003201
I39
tp748
a(F29.220000000001164
I37
tp749
a(F29.650000000001455
I35
tp750
a(F30.610000000000582
I33
tp751
aF40.0
tp752
sg101
((lp753
(F0.33999999999650754
I10
tp754
aF40.099999999998545
tp755
sg131
((lp756
(F2.1300000000046566
I26
tp757
aF40.029999999998836
tp758
ssba(imeasure_core
ProblemSetSolution
p759
(dp760
g3
g179
sg162
g719
sg164
(dp761
g183
((lp762
(F1.25
I23
tp763
aF40.060000000004948
tp764
sg240
((lp765
F40.009999999994761
tp766
sg295
((lp767
(F0.15000000000145519
I7
tp768
aF40.010000000002037
tp769
sg340
((lp770
(F0.93000000000029104
I33
tp771
aF40.029999999998836
tp772
sg389
((lp773
(F0.26000000000203727
I16
tp774
aF40.020000000004075
tp775
ssba(imeasure_core
ProblemSetSolution
p776
(dp777
g3
g454
sg162
g719
sg164
(dp778
g458
((lp779
F45.869999999995343
tp780
sg512
((lp781
F40.120000000002619
tp782
sg660
((lp783
(F8.4099999999962165
I27
tp784
aF40.169999999998254
tp785
sg563
((lp786
(F12.779999999998836
I10
tp787
aF40.430000000000291
tp788
sg613
((lp789
(F35.720000000001164
I14
tp790
aF40.330000000001746
tp791
ssba(imeasure_core
ProblemSetSolution
p792
(dp793
g3
g4
sg162
S'AnytimeBest-d150_with_PowerHeuristic2'
p794
sg164
(dp795
g8
((lp796
(F3.2600000000020373
I51
tp797
aF40.040000000000873
tp798
sg49
((lp799
(F0.13999999999941792
I36
tp800
a(F1.5199999999967986
I30
tp801
a(F2.2999999999956344
I29
tp802
a(F9.2799999999988358
I28
tp803
a(F12.94999999999709
I27
tp804
a(F23.790000000000873
I26
tp805
a(F23.860000000000582
I25
tp806
aF40.010000000002037
tp807
sg75
((lp808
(F0.68000000000029104
I61
tp809
a(F2.0
I57
tp810
a(F2.5399999999935972
I56
tp811
a(F3.2699999999967986
I54
tp812
a(F3.5
I52
tp813
a(F5.5
I51
tp814
a(F7.6599999999962165
I50
tp815
a(F8.2099999999991269
I48
tp816
a(F9.4699999999938882
I46
tp817
a(F10.659999999996217
I44
tp818
a(F21.479999999995925
I43
tp819
a(F22.07999999999447
I42
tp820
a(F22.809999999997672
I41
tp821
a(F23.989999999997963
I40
tp822
a(F25.409999999996217
I39
tp823
a(F28.849999999998545
I37
tp824
a(F29.259999999994761
I35
tp825
a(F30.219999999993888
I33
tp826
aF40.0
tp827
sg101
((lp828
(F0.32999999999447027
I10
tp829
aF40.049999999995634
tp830
sg131
((lp831
(F2.1300000000046566
I26
tp832
aF40.029999999998836
tp833
ssba(imeasure_core
ProblemSetSolution
p834
(dp835
g3
g179
sg162
g794
sg164
(dp836
g183
((lp837
(F1.25
I23
tp838
aF40.190000000002328
tp839
sg240
((lp840
F40.059999999997672
tp841
sg295
((lp842
(F0.16000000000349246
I7
tp843
aF40.010000000002037
tp844
sg340
((lp845
(F0.93000000000029104
I33
tp846
aF40.05000000000291
tp847
sg389
((lp848
(F0.25999999999476131
I16
tp849
aF40.019999999996799
tp850
ssba(imeasure_core
ProblemSetSolution
p851
(dp852
g3
g454
sg162
g794
sg164
(dp853
g458
((lp854
F45.930000000000291
tp855
sg512
((lp856
F40.400000000001455
tp857
sg660
((lp858
(F8.4000000000014552
I27
tp859
aF40.180000000000291
tp860
sg563
((lp861
(F12.720000000001164
I10
tp862
aF40.709999999999127
tp863
sg613
((lp864
(F35.5
I14
tp865
aF40.330000000001746
tp866
ssba(imeasure_core
ProblemSetSolution
p867
(dp868
g3
g4
sg162
S'AnytimeBest-d250_with_PowerHeuristic2'
p869
sg164
(dp870
g8
((lp871
(F3.2700000000040745
I51
tp872
aF40.05000000000291
tp873
sg49
((lp874
(F0.13999999999941792
I36
tp875
a(F1.5299999999988358
I30
tp876
a(F2.3000000000029104
I29
tp877
a(F9.3000000000029104
I28
tp878
a(F12.970000000001164
I27
tp879
a(F23.839999999996508
I26
tp880
a(F23.910000000003492
I25
tp881
aF40.010000000002037
tp882
sg75
((lp883
(F0.68999999999505235
I61
tp884
a(F2.0099999999947613
I57
tp885
a(F2.5499999999956344
I56
tp886
a(F3.2900000000008731
I54
tp887
a(F3.5199999999967986
I52
tp888
a(F5.5299999999988358
I51
tp889
a(F7.6999999999970896
I50
tp890
a(F8.2599999999947613
I48
tp891
a(F9.5199999999967986
I46
tp892
a(F10.709999999999127
I44
tp893
a(F21.569999999999709
I43
tp894
a(F22.159999999996217
I42
tp895
a(F22.900000000001455
I41
tp896
a(F24.089999999996508
I40
tp897
a(F25.509999999994761
I39
tp898
a(F28.94999999999709
I37
tp899
a(F29.360000000000582
I35
tp900
a(F30.319999999999709
I33
tp901
aF40.0
tp902
sg101
((lp903
(F0.32999999999447027
I10
tp904
aF40.049999999995634
tp905
sg131
((lp906
(F2.1300000000046566
I26
tp907
aF40.029999999998836
tp908
ssba(imeasure_core
ProblemSetSolution
p909
(dp910
g3
g179
sg162
g869
sg164
(dp911
g183
((lp912
(F1.2400000000052387
I23
tp913
aF40.05000000000291
tp914
sg240
((lp915
F40.05000000000291
tp916
sg295
((lp917
(F0.14999999999417923
I7
tp918
aF40.019999999996799
tp919
sg340
((lp920
(F0.93000000000029104
I33
tp921
aF40.020000000004075
tp922
sg389
((lp923
(F0.26999999999679858
I16
tp924
aF40.019999999996799
tp925
ssba(imeasure_core
ProblemSetSolution
p926
(dp927
g3
g454
sg162
g869
sg164
(dp928
g458
((lp929
F45.839999999996508
tp930
sg512
((lp931
F40.320000000006985
tp932
sg660
((lp933
(F8.3700000000026193
I27
tp934
aF40.110000000000582
tp935
sg563
((lp936
(F12.649999999994179
I10
tp937
aF40.649999999994179
tp938
sg613
((lp939
(F35.450000000004366
I14
tp940
aF40.330000000001746
tp941
ssba(imeasure_core
ProblemSetSolution
p942
(dp943
g3
g4
sg162
S'AnytimeBest-d400_with_PowerHeuristic2'
p944
sg164
(dp945
g8
((lp946
(F3.2699999999967986
I51
tp947
aF40.040000000000873
tp948
sg49
((lp949
(F0.13999999999941792
I36
tp950
a(F1.5399999999935972
I30
tp951
a(F2.319999999999709
I29
tp952
a(F9.3799999999973807
I28
tp953
a(F13.07999999999447
I27
tp954
a(F24.019999999996799
I26
tp955
a(F24.089999999996508
I25
tp956
aF40.009999999994761
tp957
sg75
((lp958
(F0.68000000000029104
I61
tp959
a(F2.0
I57
tp960
a(F2.5299999999988358
I56
tp961
a(F3.2700000000040745
I54
tp962
a(F3.5
I52
tp963
a(F5.5
I51
tp964
a(F7.6600000000034925
I50
tp965
a(F8.2200000000011642
I48
tp966
a(F9.4700000000011642
I46
tp967
a(F10.660000000003492
I44
tp968
a(F21.470000000001164
I43
tp969
a(F22.069999999999709
I42
tp970
a(F22.80000000000291
I41
tp971
a(F23.980000000003201
I40
tp972
a(F25.389999999999418
I39
tp973
a(F28.830000000001746
I37
tp974
a(F29.240000000005239
I35
tp975
a(F30.200000000004366
I33
tp976
aF40.0
tp977
sg101
((lp978
(F0.33000000000174623
I10
tp979
aF40.05000000000291
tp980
sg131
((lp981
(F2.1200000000026193
I26
tp982
aF40.029999999998836
tp983
ssba(imeasure_core
ProblemSetSolution
p984
(dp985
g3
g179
sg162
g944
sg164
(dp986
g183
((lp987
(F1.2399999999979627
I23
tp988
aF40.05000000000291
tp989
sg240
((lp990
F40.119999999995343
tp991
sg295
((lp992
(F0.16000000000349246
I7
tp993
aF40.010000000002037
tp994
sg340
((lp995
(F0.91999999999825377
I33
tp996
aF40.040000000000873
tp997
sg389
((lp998
(F0.26000000000203727
I16
tp999
aF40.019999999996799
tp1000
ssba(imeasure_core
ProblemSetSolution
p1001
(dp1002
g3
g454
sg162
g944
sg164
(dp1003
g458
((lp1004
F45.810000000004948
tp1005
sg512
((lp1006
F40.279999999998836
tp1007
sg660
((lp1008
(F8.319999999999709
I27
tp1009
aF40.110000000000582
tp1010
sg563
((lp1011
(F12.619999999995343
I10
tp1012
aF40.559999999997672
tp1013
sg613
((lp1014
(F35.860000000000582
I14
tp1015
aF40.330000000001746
tp1016
ssba(imeasure_core
ProblemSetSolution
p1017
(dp1018
g3
g4
sg162
S'AnytimeBest-d1000_with_PowerHeuristic2'
p1019
sg164
(dp1020
g8
((lp1021
(F3.2599999999947613
I51
tp1022
aF40.07999999999447
tp1023
sg49
((lp1024
(F0.13000000000465661
I36
tp1025
a(F1.5100000000020373
I30
tp1026
a(F2.2900000000008731
I29
tp1027
a(F9.2799999999988358
I28
tp1028
a(F12.950000000004366
I27
tp1029
a(F23.770000000004075
I26
tp1030
a(F23.840000000003783
I25
tp1031
aF40.010000000002037
tp1032
sg75
((lp1033
(F0.68000000000029104
I61
tp1034
a(F2.0
I57
tp1035
a(F2.5400000000008731
I56
tp1036
a(F3.2600000000020373
I54
tp1037
a(F3.5
I52
tp1038
a(F5.4899999999979627
I51
tp1039
a(F7.6600000000034925
I50
tp1040
a(F8.2200000000011642
I48
tp1041
a(F9.4700000000011642
I46
tp1042
a(F10.669999999998254
I44
tp1043
a(F21.480000000003201
I43
tp1044
a(F22.080000000001746
I42
tp1045
a(F22.819999999999709
I41
tp1046
a(F24.0
I40
tp1047
a(F25.410000000003492
I39
tp1048
a(F28.849999999998545
I37
tp1049
a(F29.260000000002037
I35
tp1050
a(F30.209999999999127
I33
tp1051
aF40.0
tp1052
sg101
((lp1053
(F0.3400000000037835
I10
tp1054
aF40.05000000000291
tp1055
sg131
((lp1056
(F2.1100000000005821
I26
tp1057
aF40.059999999997672
tp1058
ssba(imeasure_core
ProblemSetSolution
p1059
(dp1060
g3
g179
sg162
g1019
sg164
(dp1061
g183
((lp1062
(F1.2300000000032014
I23
tp1063
aF40.05000000000291
tp1064
sg240
((lp1065
F40.109999999993306
tp1066
sg295
((lp1067
(F0.15000000000145519
I7
tp1068
aF40.010000000002037
tp1069
sg340
((lp1070
(F0.91999999999825377
I33
tp1071
aF40.040000000000873
tp1072
sg389
((lp1073
(F0.26000000000203727
I16
tp1074
aF40.020000000004075
tp1075
ssba(imeasure_core
ProblemSetSolution
p1076
(dp1077
g3
g454
sg162
g1019
sg164
(dp1078
g458
((lp1079
F46.010000000002037
tp1080
sg512
((lp1081
F40.370000000002619
tp1082
sg660
((lp1083
(F8.4199999999982538
I27
tp1084
aF40.169999999998254
tp1085
sg563
((lp1086
(F12.539999999993597
I10
tp1087
aF40.419999999998254
tp1088
sg613
((lp1089
(F35.690000000002328
I14
tp1090
aF40.330000000001746
tp1091
ssba(imeasure_core
ProblemSetSolution
p1092
(dp1093
g3
g4
sg162
S'AnytimeBest-d10_with_LinearHeuristic'
p1094
sg164
(dp1095
g8
((lp1096
F40.290000000000873
tp1097
sg49
((lp1098
F2.2599999999947613
tp1099
sg75
((lp1100
F2.680000000000291
tp1101
sg101
((lp1102
F40.100000000005821
tp1103
sg131
((lp1104
(F0.11000000000058208
I8
tp1105
aF40.069999999999709
tp1106
ssba(imeasure_core
ProblemSetSolution
p1107
(dp1108
g3
g179
sg162
g1094
sg164
(dp1109
g183
((lp1110
F40.07999999999447
tp1111
sg240
((lp1112
(F20.290000000000873
I10
tp1113
aF40.040000000000873
tp1114
sg295
((lp1115
(F0.34999999999854481
I7
tp1116
aF40.130000000004657
tp1117
sg340
((lp1118
F40.159999999996217
tp1119
sg389
((lp1120
F40.099999999998545
tp1121
ssba(imeasure_core
ProblemSetSolution
p1122
(dp1123
g3
g454
sg162
g1094
sg164
(dp1124
g458
((lp1125
F48.150000000001455
tp1126
sg512
((lp1127
F40.430000000000291
tp1128
sg660
((lp1129
F40.459999999999127
tp1130
sg563
((lp1131
F41.30000000000291
tp1132
sg613
((lp1133
F42.44999999999709
tp1134
ssba(imeasure_core
ProblemSetSolution
p1135
(dp1136
g3
g4
sg162
S'AnytimeBest-d80_with_LinearHeuristic'
p1137
sg164
(dp1138
g8
((lp1139
F40.120000000002619
tp1140
sg49
((lp1141
(F0.019999999996798579
I25
tp1142
aF40.0
tp1143
sg75
((lp1144
(F0.029999999998835847
I32
tp1145
a(F1.0799999999944703
I30
tp1146
aF40.0
tp1147
sg101
((lp1148
F40.19999999999709
tp1149
sg131
((lp1150
(F0.11000000000058208
I8
tp1151
aF40.069999999999709
tp1152
ssba(imeasure_core
ProblemSetSolution
p1153
(dp1154
g3
g179
sg162
g1137
sg164
(dp1155
g183
((lp1156
F40.049999999995634
tp1157
sg240
((lp1158
(F12.80000000000291
I14
tp1159
aF40.030000000006112
tp1160
sg295
((lp1161
(F0.34999999999854481
I7
tp1162
aF40.129999999997381
tp1163
sg340
((lp1164
F40.139999999999418
tp1165
sg389
((lp1166
F40.129999999997381
tp1167
ssba(imeasure_core
ProblemSetSolution
p1168
(dp1169
g3
g454
sg162
g1137
sg164
(dp1170
g458
((lp1171
F48.069999999999709
tp1172
sg512
((lp1173
F41.220000000001164
tp1174
sg660
((lp1175
F40.259999999994761
tp1176
sg563
((lp1177
F40.709999999999127
tp1178
sg613
((lp1179
F42.350000000005821
tp1180
ssba(imeasure_core
ProblemSetSolution
p1181
(dp1182
g3
g4
sg162
S'AnytimeBest-d150_with_LinearHeuristic'
p1183
sg164
(dp1184
g8
((lp1185
F40.110000000000582
tp1186
sg49
((lp1187
(F0.019999999996798579
I25
tp1188
aF40.0
tp1189
sg75
((lp1190
(F0.029999999998835847
I32
tp1191
a(F1.0800000000017462
I30
tp1192
aF40.0
tp1193
sg101
((lp1194
F40.150000000001455
tp1195
sg131
((lp1196
(F0.11000000000058208
I8
tp1197
aF40.069999999999709
tp1198
ssba(imeasure_core
ProblemSetSolution
p1199
(dp1200
g3
g179
sg162
g1183
sg164
(dp1201
g183
((lp1202
F40.150000000001455
tp1203
sg240
((lp1204
(F12.82999999999447
I14
tp1205
aF40.029999999998836
tp1206
sg295
((lp1207
(F0.34999999999854481
I7
tp1208
aF40.07999999999447
tp1209
sg340
((lp1210
F40.090000000003783
tp1211
sg389
((lp1212
F40.029999999998836
tp1213
ssba(imeasure_core
ProblemSetSolution
p1214
(dp1215
g3
g454
sg162
g1183
sg164
(dp1216
g458
((lp1217
F48.479999999995925
tp1218
sg512
((lp1219
F40.350000000005821
tp1220
sg660
((lp1221
F40.44999999999709
tp1222
sg563
((lp1223
F40.409999999996217
tp1224
sg613
((lp1225
F42.0
tp1226
ssba(imeasure_core
ProblemSetSolution
p1227
(dp1228
g3
g4
sg162
S'AnytimeBest-d250_with_LinearHeuristic'
p1229
sg164
(dp1230
g8
((lp1231
F40.390000000006694
tp1232
sg49
((lp1233
(F0.019999999996798579
I25
tp1234
aF40.0
tp1235
sg75
((lp1236
(F0.029999999998835847
I32
tp1237
a(F1.0799999999944703
I30
tp1238
aF40.0
tp1239
sg101
((lp1240
F40.069999999999709
tp1241
sg131
((lp1242
(F0.11000000000058208
I8
tp1243
aF40.069999999999709
tp1244
ssba(imeasure_core
ProblemSetSolution
p1245
(dp1246
g3
g179
sg162
g1229
sg164
(dp1247
g183
((lp1248
F40.57999999999447
tp1249
sg240
((lp1250
(F12.819999999999709
I14
tp1251
aF40.030000000006112
tp1252
sg295
((lp1253
(F0.34999999999854481
I7
tp1254
aF40.099999999998545
tp1255
sg340
((lp1256
F40.139999999999418
tp1257
sg389
((lp1258
F40.029999999998836
tp1259
ssba(imeasure_core
ProblemSetSolution
p1260
(dp1261
g3
g454
sg162
g1229
sg164
(dp1262
g458
((lp1263
F48.290000000000873
tp1264
sg512
((lp1265
F40.430000000000291
tp1266
sg660
((lp1267
F40.510000000002037
tp1268
sg563
((lp1269
F40.69999999999709
tp1270
sg613
((lp1271
F42.319999999999709
tp1272
ssba(imeasure_core
ProblemSetSolution
p1273
(dp1274
g3
g4
sg162
S'AnytimeBest-d400_with_LinearHeuristic'
p1275
sg164
(dp1276
g8
((lp1277
F40.260000000002037
tp1278
sg49
((lp1279
(F0.020000000004074536
I25
tp1280
aF40.0
tp1281
sg75
((lp1282
(F0.029999999998835847
I32
tp1283
a(F1.0800000000017462
I30
tp1284
aF40.0
tp1285
sg101
((lp1286
F40.069999999999709
tp1287
sg131
((lp1288
(F0.11000000000058208
I8
tp1289
aF40.060000000004948
tp1290
ssba(imeasure_core
ProblemSetSolution
p1291
(dp1292
g3
g179
sg162
g1275
sg164
(dp1293
g183
((lp1294
F40.569999999999709
tp1295
sg240
((lp1296
(F12.810000000004948
I14
tp1297
aF40.029999999998836
tp1298
sg295
((lp1299
(F0.35000000000582077
I7
tp1300
aF40.080000000001746
tp1301
sg340
((lp1302
F40.099999999998545
tp1303
sg389
((lp1304
F40.100000000005821
tp1305
ssba(imeasure_core
ProblemSetSolution
p1306
(dp1307
g3
g454
sg162
g1275
sg164
(dp1308
g458
((lp1309
F48.439999999995052
tp1310
sg512
((lp1311
F40.380000000004657
tp1312
sg660
((lp1313
F40.30000000000291
tp1314
sg563
((lp1315
F40.319999999999709
tp1316
sg613
((lp1317
F42.479999999995925
tp1318
ssba(imeasure_core
ProblemSetSolution
p1319
(dp1320
g3
g4
sg162
S'AnytimeBest-d1000_with_LinearHeuristic'
p1321
sg164
(dp1322
g8
((lp1323
F40.409999999996217
tp1324
sg49
((lp1325
(F0.020000000004074536
I25
tp1326
aF40.0
tp1327
sg75
((lp1328
(F0.030000000006111804
I32
tp1329
a(F1.0800000000017462
I30
tp1330
aF40.0
tp1331
sg101
((lp1332
F40.130000000004657
tp1333
sg131
((lp1334
(F0.11000000000058208
I8
tp1335
aF40.059999999997672
tp1336
ssba(imeasure_core
ProblemSetSolution
p1337
(dp1338
g3
g179
sg162
g1321
sg164
(dp1339
g183
((lp1340
F40.150000000001455
tp1341
sg240
((lp1342
(F12.939999999995052
I14
tp1343
aF40.029999999998836
tp1344
sg295
((lp1345
(F0.34999999999854481
I7
tp1346
aF40.119999999995343
tp1347
sg340
((lp1348
F40.110000000000582
tp1349
sg389
((lp1350
F40.060000000004948
tp1351
ssba(imeasure_core
ProblemSetSolution
p1352
(dp1353
g3
g454
sg162
g1321
sg164
(dp1354
g458
((lp1355
F48.189999999995052
tp1356
sg512
((lp1357
F40.599999999998545
tp1358
sg660
((lp1359
F40.290000000000873
tp1360
sg563
((lp1361
F40.730000000003201
tp1362
sg613
((lp1363
F42.360000000000582
tp1364
ssba.