(lp0
(imeasure_core
ProblemSetSolution
p1
(dp2
S'roomset'
p3
(imeasure_core
RoomSet
p4
(dp5
S'rooms'
p6
(dp7
(iproblems
RoomID
p8
(dp9
S'width'
p10
I9
sS'dusts'
p11
I8
sS'seed'
p12
I1689441204489037471
sS'obstacles'
p13
(I0
I4
tp14
sS'robots'
p15
I4
sS'height'
p16
I7
sb(imulti_robot_problem
MultiRobotState
p17
(dp18
S'obstacle_locations'
p19
c__builtin__
frozenset
p20
((lp21
(I0
I1
tp22
a(I1
I2
tp23
a(I3
I2
tp24
a(I8
I1
tp25
a(I4
I3
tp26
ag14
a(I0
I3
tp27
a(I4
I0
tp28
atp29
Rp30
sg10
I9
sS'dirt_locations'
p31
g20
((lp32
(I0
I0
tp33
a(I7
I0
tp34
a(I7
I6
tp35
a(I1
I4
tp36
a(I6
I2
tp37
a(I2
I3
tp38
a(I5
I1
tp39
a(I3
I5
tp40
atp41
Rp42
sg15
((I6
I0
tp43
(I5
I4
tp44
(I6
I6
tp45
(I5
I0
tp46
tp47
sg16
I7
sbs(iproblems
RoomID
p48
(dp49
g10
I10
sg11
I10
sg12
I6660334802794327005
sg13
(I4
I5
tp50
sg15
I3
sg16
I8
sb(imulti_robot_problem
MultiRobotState
p51
(dp52
g19
g20
((lp53
(I9
I0
tp54
a(I2
I6
tp55
ag50
a(I1
I6
tp56
a(I3
I6
tp57
a(I8
I4
tp58
atp59
Rp60
sg10
I10
sg31
g20
((lp61
(I9
I1
tp62
a(I5
I6
tp63
a(I4
I1
tp64
a(I1
I5
tp65
a(I7
I5
tp66
a(I9
I4
tp67
a(I1
I7
tp68
a(I9
I6
tp69
a(I7
I2
tp70
a(I8
I2
tp71
atp72
Rp73
sg15
((I7
I3
tp74
(I4
I7
tp75
(I4
I2
tp76
tp77
sg16
I8
sbs(iproblems
RoomID
p78
(dp79
g10
I9
sg11
I7
sg12
I4640892725076559864
sg13
(I2
I5
tp80
sg15
I5
sg16
I9
sb(imulti_robot_problem
MultiRobotState
p81
(dp82
g19
g20
((lp83
(I2
I6
tp84
a(I6
I7
tp85
a(I1
I5
tp86
a(I3
I1
tp87
a(I0
I6
tp88
a(I1
I6
tp89
a(I0
I4
tp90
ag80
a(I3
I4
tp91
atp92
Rp93
sg10
I9
sg31
g20
((lp94
(I7
I3
tp95
a(I7
I1
tp96
a(I8
I1
tp97
a(I3
I8
tp98
a(I4
I2
tp99
a(I8
I6
tp100
a(I5
I3
tp101
atp102
Rp103
sg15
((I6
I5
tp104
(I8
I4
tp105
(I7
I6
tp106
(I6
I0
tp107
(I6
I3
tp108
tp109
sg16
I9
sbs(iproblems
RoomID
p110
(dp111
g10
I9
sg11
I6
sg12
I3119042104763040036
sg13
(I8
I4
tp112
sg15
I4
sg16
I10
sb(imulti_robot_problem
MultiRobotState
p113
(dp114
g19
g20
((lp115
(I1
I2
tp116
a(I6
I7
tp117
a(I4
I8
tp118
a(I7
I6
tp119
a(I8
I5
tp120
ag112
atp121
Rp122
sg10
I9
sg31
g20
((lp123
(I6
I8
tp124
a(I6
I6
tp125
a(I3
I0
tp126
a(I6
I5
tp127
a(I8
I7
tp128
a(I7
I2
tp129
atp130
Rp131
sg15
((I5
I9
tp132
(I6
I1
tp133
(I3
I4
tp134
(I2
I7
tp135
tp136
sg16
I10
sbs(iproblems
RoomID
p137
(dp138
g10
I7
sg11
I6
sg12
I3914746131789064238
sg13
(I3
I0
tp139
sg15
I4
sg16
I10
sb(imulti_robot_problem
MultiRobotState
p140
(dp141
g19
g20
((lp142
g139
a(I6
I1
tp143
a(I2
I3
tp144
a(I5
I0
tp145
a(I2
I2
tp146
a(I0
I3
tp147
a(I0
I8
tp148
a(I4
I1
tp149
a(I3
I5
tp150
atp151
Rp152
sg10
I7
sg31
g20
((lp153
(I3
I3
tp154
a(I1
I7
tp155
a(I0
I7
tp156
a(I0
I4
tp157
a(I3
I4
tp158
a(I6
I5
tp159
atp160
Rp161
sg15
((I1
I8
tp162
(I5
I1
tp163
(I5
I3
tp164
(I1
I9
tp165
tp166
sg16
I10
sbssS'name'
p167
S'easy_roomset'
p168
sbsS'name'
p169
S"AnytimeBeam-w20-gf(1.3, 'exp')_with_PowerHeuristic2"
p170
sS'solutions'
p171
(dp172
g8
((lp173
(F0.3500000000003638
I8
tp174
aF40.219999999999345
tp175
sg48
((lp176
(F0.26000000000021828
I23
tp177
aF40.020000000000437
tp178
sg78
((lp179
(F1.3800000000010186
I6
tp180
aF40.380000000001019
tp181
sg110
((lp182
(F0.48999999999978172
I11
tp183
aF40.359999999998763
tp184
sg137
((lp185
(F0.22000000000116415
I7
tp186
aF40.059999999999491
tp187
ssba(imeasure_core
ProblemSetSolution
p188
(dp189
g3
(imeasure_core
RoomSet
p190
(dp191
S'rooms'
p192
(dp193
(iproblems
RoomID
p194
(dp195
S'width'
p196
I11
sS'dusts'
p197
I6
sS'seed'
p198
I3119042104763040036
sS'obstacles'
p199
(I5
I5
tp200
sS'robots'
p201
I4
sS'height'
p202
I12
sb(imulti_robot_problem
MultiRobotState
p203
(dp204
S'obstacle_locations'
p205
g20
((lp206
(I3
I0
tp207
a(I9
I8
tp208
a(I10
I6
tp209
a(I2
I1
tp210
a(I8
I9
tp211
a(I0
I10
tp212
a(I10
I3
tp213
ag200
a(I10
I7
tp214
a(I4
I4
tp215
a(I2
I2
tp216
a(I7
I9
tp217
a(I1
I1
tp218
a(I10
I4
tp219
a(I4
I5
tp220
a(I2
I3
tp221
a(I3
I3
tp222
a(I4
I6
tp223
a(I9
I2
tp224
a(I3
I4
tp225
a(I9
I5
tp226
a(I7
I8
tp227
a(I2
I4
tp228
atp229
Rp230
sg196
I11
sS'dirt_locations'
p231
g20
((lp232
(I8
I3
tp233
a(I5
I10
tp234
a(I8
I8
tp235
a(I9
I4
tp236
a(I8
I6
tp237
a(I10
I9
tp238
atp239
Rp240
sg201
((I6
I11
tp241
(I7
I2
tp242
(I2
I8
tp243
(I8
I10
tp244
tp245
sg202
I12
sbs(iproblems
RoomID
p246
(dp247
g196
I9
sg197
I6
sg198
I3914746131789064238
sg199
(I4
I8
tp248
sg201
I4
sg202
I12
sb(imulti_robot_problem
MultiRobotState
p249
(dp250
g205
g20
((lp251
(I5
I7
tp252
a(I6
I6
tp253
a(I0
I10
tp254
a(I0
I3
tp255
a(I8
I5
tp256
a(I4
I0
tp257
a(I6
I7
tp258
a(I3
I3
tp259
a(I8
I1
tp260
a(I7
I6
tp261
ag248
a(I5
I0
tp262
a(I2
I2
tp263
a(I8
I6
tp264
a(I4
I5
tp265
a(I0
I5
tp266
a(I8
I7
tp267
a(I5
I3
tp268
a(I7
I0
tp269
a(I4
I6
tp270
a(I6
I1
tp271
a(I3
I1
tp272
a(I0
I9
tp273
a(I2
I3
tp274
atp275
Rp276
sg196
I9
sg231
g20
((lp277
(I4
I4
tp278
a(I2
I11
tp279
a(I2
I10
tp280
a(I1
I8
tp281
a(I1
I9
tp282
a(I4
I3
tp283
atp284
Rp285
sg201
((I1
I10
tp286
(I6
I2
tp287
(I7
I3
tp288
(I1
I11
tp289
tp290
sg202
I12
sbs(iproblems
RoomID
p291
(dp292
g196
I10
sg197
I9
sg198
I3273124617966689144
sg199
(I9
I9
tp293
sg201
I3
sg202
I10
sb(imulti_robot_problem
MultiRobotState
p294
(dp295
g205
g20
((lp296
(I7
I3
tp297
a(I1
I3
tp298
a(I9
I8
tp299
a(I3
I2
tp300
a(I1
I6
tp301
a(I2
I5
tp302
a(I3
I3
tp303
a(I7
I6
tp304
a(I6
I3
tp305
a(I8
I6
tp306
a(I5
I3
tp307
a(I9
I7
tp308
a(I6
I4
tp309
a(I5
I4
tp310
a(I4
I5
tp311
a(I7
I5
tp312
a(I2
I3
tp313
a(I0
I8
tp314
a(I9
I6
tp315
a(I6
I5
tp316
a(I5
I5
tp317
ag293
a(I4
I3
tp318
a(I2
I4
tp319
atp320
Rp321
sg196
I10
sg231
g20
((lp322
(I7
I0
tp323
a(I3
I0
tp324
a(I6
I1
tp325
a(I3
I1
tp326
a(I5
I0
tp327
a(I2
I2
tp328
a(I3
I4
tp329
a(I1
I1
tp330
a(I8
I4
tp331
atp332
Rp333
sg201
((I0
I7
tp334
(I2
I1
tp335
(I6
I6
tp336
tp337
sg202
I10
sbs(iproblems
RoomID
p338
(dp339
g196
I12
sg197
I5
sg198
I659184109953178577
sg199
(I5
I7
tp340
sg201
I4
sg202
I9
sb(imulti_robot_problem
MultiRobotState
p341
(dp342
g205
g20
((lp343
(I7
I3
tp344
a(I4
I7
tp345
a(I6
I6
tp346
a(I7
I7
tp347
a(I9
I4
tp348
a(I2
I5
tp349
a(I10
I3
tp350
a(I7
I2
tp351
a(I3
I3
tp352
a(I3
I6
tp353
a(I8
I6
tp354
a(I6
I4
tp355
a(I8
I2
tp356
a(I4
I5
tp357
a(I11
I0
tp358
a(I7
I5
tp359
a(I0
I8
tp360
a(I6
I5
tp361
a(I4
I6
tp362
a(I6
I1
tp363
ag340
a(I4
I3
tp364
a(I3
I4
tp365
atp366
Rp367
sg196
I12
sg231
g20
((lp368
(I10
I8
tp369
a(I4
I1
tp370
a(I0
I2
tp371
a(I1
I6
tp372
a(I10
I4
tp373
atp374
Rp375
sg201
((I10
I0
tp376
(I7
I0
tp377
(I2
I6
tp378
(I8
I3
tp379
tp380
sg202
I9
sbs(iproblems
RoomID
p381
(dp382
g196
I10
sg197
I9
sg198
I4253868527325451640
sg199
(I9
I10
tp383
sg201
I3
sg202
I11
sb(imulti_robot_problem
MultiRobotState
p384
(dp385
g205
g20
((lp386
(I7
I3
tp387
a(I4
I7
tp388
a(I2
I6
tp389
a(I5
I0
tp390
a(I4
I8
tp391
a(I3
I4
tp392
a(I7
I1
tp393
a(I6
I9
tp394
a(I8
I10
tp395
ag383
a(I3
I9
tp396
a(I1
I6
tp397
a(I7
I10
tp398
a(I2
I3
tp399
a(I3
I7
tp400
a(I2
I5
tp401
a(I3
I5
tp402
a(I8
I5
tp403
a(I2
I4
tp404
a(I5
I8
tp405
a(I7
I9
tp406
atp407
Rp408
sg196
I10
sg231
g20
((lp409
(I3
I8
tp410
a(I5
I10
tp411
a(I6
I8
tp412
a(I7
I6
tp413
a(I8
I9
tp414
a(I0
I10
tp415
a(I9
I4
tp416
a(I0
I9
tp417
a(I5
I3
tp418
atp419
Rp420
sg201
((I3
I6
tp421
(I0
I8
tp422
(I2
I1
tp423
tp424
sg202
I11
sbssS'name'
p425
S'mild_roomset'
p426
sbsg169
g170
sg171
(dp427
g194
((lp428
(F6.9100000000016735
I164
tp429
aF40.020000000000437
tp430
sg246
((lp431
(F0.23999999999978172
I6
tp432
aF40.069999999999709
tp433
sg338
((lp434
(F1.2700000000004366
I18
tp435
aF40.110000000000582
tp436
sg291
((lp437
(F2.1100000000005821
I89
tp438
a(F4.7700000000004366
I52
tp439
aF40.0
tp440
sg381
((lp441
(F0.38999999999941792
I32
tp442
aF40.040000000000873
tp443
ssba(imeasure_core
ProblemSetSolution
p444
(dp445
g3
(imeasure_core
RoomSet
p446
(dp447
S'rooms'
p448
(dp449
(iproblems
RoomID
p450
(dp451
S'width'
p452
I12
sS'dusts'
p453
I13
sS'seed'
p454
I1689441204489037471
sS'obstacles'
p455
(I3
I4
tp456
sS'robots'
p457
I6
sS'height'
p458
I10
sb(imulti_robot_problem
MultiRobotState
p459
(dp460
S'obstacle_locations'
p461
g20
((lp462
(I7
I3
tp463
a(I1
I3
tp464
a(I10
I6
tp465
a(I7
I7
tp466
a(I6
I2
tp467
a(I1
I6
tp468
a(I9
I4
tp469
a(I5
I1
tp470
a(I8
I5
tp471
a(I11
I5
tp472
a(I10
I3
tp473
a(I0
I4
tp474
a(I8
I6
tp475
a(I4
I1
tp476
a(I1
I1
tp477
a(I9
I3
tp478
a(I0
I5
tp479
a(I8
I7
tp480
a(I4
I2
tp481
a(I2
I7
tp482
ag456
a(I3
I8
tp483
a(I4
I3
tp484
a(I9
I5
tp485
a(I5
I2
tp486
a(I0
I2
tp487
a(I8
I4
tp488
atp489
Rp490
sg452
I12
sS'dirt_locations'
p491
g20
((lp492
(I7
I4
tp493
a(I9
I0
tp494
a(I0
I0
tp495
a(I10
I4
tp496
a(I4
I8
tp497
a(I8
I1
tp498
a(I11
I2
tp499
a(I5
I4
tp500
a(I8
I9
tp501
a(I11
I8
tp502
a(I2
I6
tp503
a(I2
I3
tp504
a(I1
I5
tp505
atp506
Rp507
sg457
((I8
I0
tp508
(I7
I6
tp509
(I8
I8
tp510
(I7
I0
tp511
(I2
I4
tp512
(I9
I9
tp513
tp514
sg458
I10
sbs(iproblems
RoomID
p515
(dp516
g452
I13
sg453
I15
sg454
I6660334802794327005
sg455
(I10
I7
tp517
sg457
I6
sg458
I11
sb(imulti_robot_problem
MultiRobotState
p518
(dp519
g461
g20
((lp520
(I11
I7
tp521
a(I4
I7
tp522
a(I9
I0
tp523
a(I3
I8
tp524
a(I10
I8
tp525
a(I5
I6
tp526
a(I2
I8
tp527
a(I5
I7
tp528
a(I9
I9
tp529
a(I8
I10
tp530
a(I9
I10
tp531
ag517
a(I1
I8
tp532
a(I10
I0
tp533
a(I1
I10
tp534
a(I1
I5
tp535
a(I2
I4
tp536
atp537
Rp538
sg452
I13
sg491
g20
((lp539
(I2
I7
tp540
a(I12
I2
tp541
a(I6
I9
tp542
a(I10
I6
tp543
a(I12
I1
tp544
a(I2
I9
tp545
a(I12
I0
tp546
a(I10
I3
tp547
a(I11
I2
tp548
a(I6
I10
tp549
a(I12
I5
tp550
a(I6
I3
tp551
a(I1
I7
tp552
a(I12
I9
tp553
a(I12
I8
tp554
atp555
Rp556
sg457
((I9
I5
tp557
(I5
I10
tp558
(I5
I3
tp559
(I5
I1
tp560
(I9
I3
tp561
(I7
I8
tp562
tp563
sg458
I11
sbs(iproblems
RoomID
p564
(dp565
g452
I10
sg453
I11
sg454
I3914746131789064238
sg455
(I6
I1
tp566
sg457
I7
sg458
I13
sb(imulti_robot_problem
MultiRobotState
p567
(dp568
g461
g20
((lp569
(I0
I0
tp570
a(I7
I0
tp571
a(I9
I1
tp572
a(I2
I9
tp573
a(I7
I1
tp574
a(I9
I2
tp575
ag566
a(I6
I3
tp576
a(I8
I1
tp577
a(I6
I5
tp578
a(I5
I1
tp579
a(I7
I8
tp580
a(I7
I2
tp581
a(I5
I5
tp582
atp583
Rp584
sg452
I10
sg491
g20
((lp585
(I4
I7
tp586
a(I3
I3
tp587
a(I4
I5
tp588
a(I4
I4
tp589
a(I1
I4
tp590
a(I0
I11
tp591
a(I0
I5
tp592
a(I0
I10
tp593
a(I8
I7
tp594
a(I9
I5
tp595
a(I5
I3
tp596
atp597
Rp598
sg457
((I1
I11
tp599
(I8
I4
tp600
(I2
I12
tp601
(I1
I9
tp602
(I2
I11
tp603
(I5
I4
tp604
(I5
I0
tp605
tp606
sg458
I13
sbs(iproblems
RoomID
p607
(dp608
g452
I12
sg453
I11
sg454
I3119042104763040036
sg455
(I7
I6
tp609
sg457
I7
sg458
I13
sb(imulti_robot_problem
MultiRobotState
p610
(dp611
g461
g20
((lp612
(I5
I4
tp613
a(I9
I0
tp614
a(I5
I10
tp615
a(I10
I5
tp616
a(I4
I5
tp617
a(I9
I8
tp618
a(I10
I6
tp619
a(I6
I0
tp620
a(I9
I9
tp621
a(I8
I9
tp622
a(I10
I7
tp623
a(I2
I12
tp624
a(I8
I6
tp625
a(I9
I6
tp626
ag609
a(I11
I6
tp627
a(I9
I7
tp628
atp629
Rp630
sg452
I12
sg491
g20
((lp631
(I1
I2
tp632
a(I8
I0
tp633
a(I5
I11
tp634
a(I5
I6
tp635
a(I7
I8
tp636
a(I4
I4
tp637
a(I8
I10
tp638
a(I0
I11
tp639
a(I2
I3
tp640
a(I3
I4
tp641
a(I4
I0
tp642
atp643
Rp644
sg457
((I7
I12
tp645
(I8
I2
tp646
(I4
I6
tp647
(I3
I9
tp648
(I9
I11
tp649
(I11
I9
tp650
(I9
I3
tp651
tp652
sg458
I13
sbs(iproblems
RoomID
p653
(dp654
g452
I12
sg453
I12
sg454
I4640892725076559864
sg455
(I8
I7
tp655
sg457
I7
sg458
I12
sb(imulti_robot_problem
MultiRobotState
p656
(dp657
g461
g20
((lp658
(I5
I9
tp659
a(I6
I9
tp660
a(I4
I8
tp661
a(I5
I6
tp662
a(I2
I8
tp663
a(I6
I2
tp664
a(I3
I7
tp665
a(I5
I1
tp666
a(I8
I5
tp667
a(I2
I9
tp668
a(I2
I0
tp669
a(I7
I6
tp670
a(I8
I10
tp671
a(I6
I3
tp672
a(I1
I1
tp673
a(I9
I7
tp674
a(I4
I5
tp675
a(I6
I0
tp676
a(I2
I10
tp677
ag655
a(I1
I0
tp678
a(I7
I9
tp679
a(I7
I0
tp680
a(I6
I8
tp681
a(I5
I7
tp682
a(I7
I4
tp683
a(I0
I6
tp684
a(I1
I8
tp685
a(I0
I9
tp686
a(I5
I2
tp687
a(I0
I2
tp688
atp689
Rp690
sg452
I12
sg491
g20
((lp691
(I2
I7
tp692
a(I6
I4
tp693
a(I11
I10
tp694
a(I4
I6
tp695
a(I11
I8
tp696
a(I11
I2
tp697
a(I9
I3
tp698
a(I3
I2
tp699
a(I8
I8
tp700
a(I0
I5
tp701
a(I10
I3
tp702
a(I5
I3
tp703
atp704
Rp705
sg457
((I8
I6
tp706
(I11
I5
tp707
(I10
I8
tp708
(I9
I0
tp709
(I9
I4
tp710
(I9
I2
tp711
(I4
I11
tp712
tp713
sg458
I12
sbssS'name'
p714
S'heavy_roomset'
p715
sbsg169
g170
sg171
(dp716
g450
((lp717
F40.179999999998472
tp718
sg515
((lp719
(F16.340000000000146
I11
tp720
aF42.740000000001601
tp721
sg564
((lp722
F41.479999999999563
tp723
sg607
((lp724
F45.649999999999636
tp725
sg653
((lp726
F40.399999999999636
tp727
ssba(imeasure_core
ProblemSetSolution
p728
(dp729
g3
g4
sg169
S"AnytimeBeam-w20-gf(1.5, 'exp')_with_PowerHeuristic2"
p730
sg171
(dp731
g8
((lp732
(F0.3500000000003638
I8
tp733
aF40.159999999999854
tp734
sg48
((lp735
(F0.26000000000021828
I23
tp736
aF40.069999999999709
tp737
sg78
((lp738
(F1.4000000000014552
I6
tp739
aF40.800000000001091
tp740
sg110
((lp741
(F0.47999999999956344
I11
tp742
aF40.299999999999272
tp743
sg137
((lp744
(F0.21000000000094587
I7
tp745
aF40.100000000000364
tp746
ssba(imeasure_core
ProblemSetSolution
p747
(dp748
g3
g190
sg169
g730
sg171
(dp749
g194
((lp750
(F6.8500000000003638
I164
tp751
aF40.059999999999491
tp752
sg246
((lp753
(F0.22999999999956344
I6
tp754
aF40.090000000000146
tp755
sg338
((lp756
(F1.2800000000006548
I18
tp757
aF40.190000000000509
tp758
sg291
((lp759
(F2.1000000000003638
I89
tp760
a(F4.8600000000005821
I52
tp761
aF40.049999999999272
tp762
sg381
((lp763
(F0.38999999999941792
I32
tp764
aF40.0
tp765
ssba(imeasure_core
ProblemSetSolution
p766
(dp767
g3
g446
sg169
g730
sg171
(dp768
g450
((lp769
F40.139999999999418
tp770
sg515
((lp771
(F16.430000000000291
I11
tp772
aF42.980000000001382
tp773
sg564
((lp774
F41.729999999999563
tp775
sg607
((lp776
F45.969999999999345
tp777
sg653
((lp778
F40.389999999999418
tp779
ssba(imeasure_core
ProblemSetSolution
p780
(dp781
g3
g4
sg169
S"AnytimeBeam-w20-gf(1.7, 'exp')_with_PowerHeuristic2"
p782
sg171
(dp783
g8
((lp784
(F0.3500000000003638
I8
tp785
aF40.020000000000437
tp786
sg48
((lp787
(F0.25
I23
tp788
aF40.050000000001091
tp789
sg78
((lp790
(F1.3999999999996362
I6
tp791
aF41.449999999998909
tp792
sg110
((lp793
(F0.48999999999978172
I11
tp794
aF40.309999999999491
tp795
sg137
((lp796
(F0.22000000000116415
I7
tp797
aF40.190000000000509
tp798
ssba(imeasure_core
ProblemSetSolution
p799
(dp800
g3
g190
sg169
g782
sg171
(dp801
g194
((lp802
(F6.9200000000000728
I164
tp803
aF40.110000000000582
tp804
sg246
((lp805
(F0.23999999999978172
I6
tp806
aF40.019999999998618
tp807
sg338
((lp808
(F1.2800000000006548
I18
tp809
aF40.059999999999491
tp810
sg291
((lp811
(F2.1000000000003638
I89
tp812
a(F5.070000000001528
I52
tp813
aF40.020000000000437
tp814
sg381
((lp815
(F0.39000000000123691
I32
tp816
aF40.100000000000364
tp817
ssba(imeasure_core
ProblemSetSolution
p818
(dp819
g3
g446
sg169
g782
sg171
(dp820
g450
((lp821
F40.56000000000131
tp822
sg515
((lp823
(F16.420000000000073
I11
tp824
aF43.279999999998836
tp825
sg564
((lp826
F41.680000000000291
tp827
sg607
((lp828
F46.049999999999272
tp829
sg653
((lp830
F40.640000000001237
tp831
ssba(imeasure_core
ProblemSetSolution
p832
(dp833
g3
g4
sg169
S"AnytimeBeam-w20-gf(1.8999999999999999, 'exp')_with_PowerHeuristic2"
p834
sg171
(dp835
g8
((lp836
(F0.3500000000003638
I8
tp837
aF40.340000000000146
tp838
sg48
((lp839
(F0.26000000000021828
I23
tp840
aF40.029999999998836
tp841
sg78
((lp842
(F1.4000000000014552
I6
tp843
aF40.690000000000509
tp844
sg110
((lp845
(F0.47999999999956344
I11
tp846
aF40.110000000000582
tp847
sg137
((lp848
(F0.20999999999912689
I7
tp849
aF40.079999999999927
tp850
ssba(imeasure_core
ProblemSetSolution
p851
(dp852
g3
g190
sg169
g834
sg171
(dp853
g194
((lp854
(F6.8999999999996362
I164
tp855
aF40.349999999998545
tp856
sg246
((lp857
(F0.24000000000160071
I6
tp858
aF40.079999999999927
tp859
sg338
((lp860
(F1.2700000000004366
I18
tp861
aF40.010000000000218
tp862
sg291
((lp863
(F2.0900000000001455
I89
tp864
a(F5.1500000000014552
I52
tp865
aF40.040000000000873
tp866
sg381
((lp867
(F0.38999999999941792
I32
tp868
aF40.049999999999272
tp869
ssba(imeasure_core
ProblemSetSolution
p870
(dp871
g3
g446
sg169
g834
sg171
(dp872
g450
((lp873
F40.110000000000582
tp874
sg515
((lp875
(F16.559999999999491
I11
tp876
aF40.180000000000291
tp877
sg564
((lp878
F41.770000000000437
tp879
sg607
((lp880
F46.349999999998545
tp881
sg653
((lp882
F40.6200000000008
tp883
ssba(imeasure_core
ProblemSetSolution
p884
(dp885
g3
g4
sg169
S"AnytimeBeam-w20-gf(1.3, 'exp')_with_LinearHeuristic"
p886
sg171
(dp887
g8
((lp888
(F33.469999999999345
I223
tp889
aF40.039999999999054
tp890
sg48
((lp891
(F2.1700000000000728
I49
tp892
aF40.0
tp893
sg78
((lp894
(F1.6400000000012369
I6
tp895
aF40.530000000000655
tp896
sg110
((lp897
(F17.780000000000655
I165
tp898
aF40.039999999999054
tp899
sg137
((lp900
F40.010000000000218
tp901
ssba(imeasure_core
ProblemSetSolution
p902
(dp903
g3
g190
sg169
g886
sg171
(dp904
g194
((lp905
F40.380000000001019
tp906
sg246
((lp907
(F0.35999999999876309
I12
tp908
a(F30.270000000000437
I11
tp909
aF40.049999999999272
tp910
sg338
((lp911
F40.1200000000008
tp912
sg291
((lp913
F40.020000000000437
tp914
sg381
((lp915
(F6.5499999999992724
I92
tp916
aF40.009999999998399
tp917
ssba(imeasure_core
ProblemSetSolution
p918
(dp919
g3
g446
sg169
g886
sg171
(dp920
g450
((lp921
F40.010000000000218
tp922
sg515
((lp923
F41.510000000000218
tp924
sg564
((lp925
F41.909999999999854
tp926
sg607
((lp927
F43.309999999999491
tp928
sg653
((lp929
F40.31000000000131
tp930
ssba(imeasure_core
ProblemSetSolution
p931
(dp932
g3
g4
sg169
S"AnytimeBeam-w20-gf(1.5, 'exp')_with_LinearHeuristic"
p933
sg171
(dp934
g8
((lp935
(F33.369999999998981
I223
tp936
aF40.009999999998399
tp937
sg48
((lp938
(F2.2000000000007276
I49
tp939
aF40.040000000000873
tp940
sg78
((lp941
(F1.6399999999994179
I6
tp942
aF40.360000000000582
tp943
sg110
((lp944
(F17.779999999998836
I165
tp945
aF40.079999999999927
tp946
sg137
((lp947
F40.279999999998836
tp948
ssba(imeasure_core
ProblemSetSolution
p949
(dp950
g3
g190
sg169
g933
sg171
(dp951
g194
((lp952
F40.309999999999491
tp953
sg246
((lp954
(F0.3500000000003638
I12
tp955
a(F26.650000000001455
I11
tp956
aF40.06000000000131
tp957
sg338
((lp958
F40.260000000000218
tp959
sg291
((lp960
F40.010000000000218
tp961
sg381
((lp962
(F6.5499999999992724
I92
tp963
aF40.019999999998618
tp964
ssba(imeasure_core
ProblemSetSolution
p965
(dp966
g3
g446
sg169
g933
sg171
(dp967
g450
((lp968
F40.25
tp969
sg515
((lp970
F41.479999999999563
tp971
sg564
((lp972
F41.920000000000073
tp973
sg607
((lp974
F43.659999999999854
tp975
sg653
((lp976
F40.380000000001019
tp977
ssba(imeasure_core
ProblemSetSolution
p978
(dp979
g3
g4
sg169
S"AnytimeBeam-w20-gf(1.7, 'exp')_with_LinearHeuristic"
p980
sg171
(dp981
g8
((lp982
(F33.449999999998909
I223
tp983
aF40.069999999999709
tp984
sg48
((lp985
(F2.180000000000291
I49
tp986
aF40.049999999999272
tp987
sg78
((lp988
(F1.6500000000014552
I6
tp989
aF40.450000000000728
tp990
sg110
((lp991
(F17.770000000000437
I165
tp992
aF40.0
tp993
sg137
((lp994
F40.180000000000291
tp995
ssba(imeasure_core
ProblemSetSolution
p996
(dp997
g3
g190
sg169
g980
sg171
(dp998
g194
((lp999
F40.260000000000218
tp1000
sg246
((lp1001
(F0.35999999999876309
I12
tp1002
a(F19.869999999998981
I11
tp1003
a(F35.75
I10
tp1004
aF40.059999999999491
tp1005
sg338
((lp1006
F40.199999999998909
tp1007
sg291
((lp1008
F40.030000000000655
tp1009
sg381
((lp1010
(F6.5500000000010914
I92
tp1011
aF40.110000000000582
tp1012
ssba(imeasure_core
ProblemSetSolution
p1013
(dp1014
g3
g446
sg169
g980
sg171
(dp1015
g450
((lp1016
F40.049999999999272
tp1017
sg515
((lp1018
F41.559999999999491
tp1019
sg564
((lp1020
F41.980000000001382
tp1021
sg607
((lp1022
F43.779999999998836
tp1023
sg653
((lp1024
F40.329999999999927
tp1025
ssba(imeasure_core
ProblemSetSolution
p1026
(dp1027
g3
g4
sg169
S"AnytimeBeam-w20-gf(1.8999999999999999, 'exp')_with_LinearHeuristic"
p1028
sg171
(dp1029
g8
((lp1030
(F33.400000000001455
I223
tp1031
aF40.069999999999709
tp1032
sg48
((lp1033
(F2.1900000000005093
I49
tp1034
aF40.06000000000131
tp1035
sg78
((lp1036
(F1.6499999999996362
I6
tp1037
aF40.699999999998909
tp1038
sg110
((lp1039
(F17.790000000000873
I165
tp1040
aF40.760000000000218
tp1041
sg137
((lp1042
F40.260000000000218
tp1043
ssba(imeasure_core
ProblemSetSolution
p1044
(dp1045
g3
g190
sg169
g1028
sg171
(dp1046
g194
((lp1047
F40.1299999999992
tp1048
sg246
((lp1049
(F0.36000000000058208
I12
tp1050
a(F19.0
I11
tp1051
a(F35.1200000000008
I10
tp1052
aF40.079999999999927
tp1053
sg338
((lp1054
F40.309999999999491
tp1055
sg291
((lp1056
F40.030000000000655
tp1057
sg381
((lp1058
(F6.5600000000013097
I92
tp1059
aF40.079999999999927
tp1060
ssba(imeasure_core
ProblemSetSolution
p1061
(dp1062
g3
g446
sg169
g1028
sg171
(dp1063
g450
((lp1064
F40.06000000000131
tp1065
sg515
((lp1066
F41.369999999998981
tp1067
sg564
((lp1068
F41.899999999999636
tp1069
sg607
((lp1070
F43.290000000000873
tp1071
sg653
((lp1072
F40.319999999999709
tp1073
ssba.