(lp0
(imeasure_core
ProblemSetSolution
p1
(dp2
S'roomset'
p3
(imeasure_core
RoomSet
p4
(dp5
S'rooms'
p6
(dp7
(iproblems
RoomID
p8
(dp9
S'width'
p10
I7
sS'dusts'
p11
I8
sS'seed'
p12
I7283207964119141687
sS'obstacles'
p13
(I2
I4
tp14
sS'robots'
p15
I4
sS'height'
p16
I9
sb(imulti_robot_problem
MultiRobotState
p17
(dp18
S'obstacle_locations'
p19
c__builtin__
frozenset
p20
((lp21
(I4
I6
tp22
a(I3
I0
tp23
a(I4
I3
tp24
a(I4
I2
tp25
a(I3
I4
tp26
ag14
a(I3
I3
tp27
atp28
Rp29
sg10
I7
sS'dirt_locations'
p30
g20
((lp31
(I4
I5
tp32
a(I5
I7
tp33
a(I0
I6
tp34
a(I1
I6
tp35
a(I5
I0
tp36
a(I5
I1
tp37
a(I5
I2
tp38
a(I1
I1
tp39
atp40
Rp41
sg15
((I1
I5
tp42
(I5
I5
tp43
(I3
I1
tp44
(I3
I5
tp45
tp46
sg16
I9
sbs(iproblems
RoomID
p47
(dp48
g10
I8
sg11
I8
sg12
I890727360438182992
sg13
(I4
I6
tp49
sg15
I2
sg16
I10
sb(imulti_robot_problem
MultiRobotState
p50
(dp51
g19
g20
((lp52
(I0
I0
tp53
ag49
a(I6
I6
tp54
a(I5
I6
tp55
a(I7
I6
tp56
a(I7
I4
tp57
a(I4
I2
tp58
a(I2
I4
tp59
atp60
Rp61
sg10
I8
sg30
g20
((lp62
(I7
I0
tp63
a(I7
I1
tp64
a(I6
I3
tp65
a(I1
I8
tp66
a(I0
I5
tp67
a(I5
I1
tp68
a(I1
I0
tp69
a(I0
I3
tp70
atp71
Rp72
sg15
((I2
I8
tp73
(I2
I5
tp74
tp75
sg16
I10
sbs(iproblems
RoomID
p76
(dp77
g10
I8
sg11
I5
sg12
I1736392818365009963
sg13
(I7
I3
tp78
sg15
I1
sg16
I7
sb(imulti_robot_problem
MultiRobotState
p79
(dp80
g19
g20
((lp81
g78
a(I2
I6
tp82
a(I7
I0
tp83
a(I7
I1
tp84
a(I2
I1
tp85
a(I6
I3
tp86
a(I0
I4
tp87
a(I7
I2
tp88
atp89
Rp90
sg10
I8
sg30
g20
((lp91
(I0
I1
tp92
a(I6
I2
tp93
a(I1
I6
tp94
a(I4
I4
tp95
a(I0
I0
tp96
atp97
Rp98
sg15
((I3
I1
tp99
tp100
sg16
I7
sbs(iproblems
RoomID
p101
(dp102
g10
I9
sg11
I10
sg12
I3960482443532127989
sg13
(I6
I5
tp103
sg15
I5
sg16
I8
sb(imulti_robot_problem
MultiRobotState
p104
(dp105
g19
g20
((lp106
(I4
I5
tp107
a(I5
I5
tp108
ag103
a(I6
I6
tp109
atp110
Rp111
sg10
I9
sg30
g20
((lp112
(I2
I7
tp113
a(I2
I6
tp114
a(I3
I6
tp115
a(I5
I7
tp116
a(I1
I4
tp117
a(I1
I5
tp118
a(I5
I0
tp119
a(I8
I0
tp120
a(I8
I5
tp121
a(I5
I3
tp122
atp123
Rp124
sg15
((I4
I3
tp125
(I8
I7
tp126
(I1
I6
tp127
(I7
I3
tp128
(I6
I4
tp129
tp130
sg16
I8
sbs(iproblems
RoomID
p131
(dp132
g10
I10
sg11
I7
sg12
I1585446675937841368
sg13
(I4
I1
tp133
sg15
I3
sg16
I10
sb(imulti_robot_problem
MultiRobotState
p134
(dp135
g19
g20
((lp136
(I3
I2
tp137
a(I2
I6
tp138
a(I6
I7
tp139
a(I6
I1
tp140
a(I5
I8
tp141
a(I5
I0
tp142
ag133
a(I2
I4
tp143
a(I7
I2
tp144
atp145
Rp146
sg10
I10
sg30
g20
((lp147
(I7
I3
tp148
a(I2
I9
tp149
a(I1
I7
tp150
a(I9
I4
tp151
a(I2
I2
tp152
a(I5
I2
tp153
a(I9
I7
tp154
atp155
Rp156
sg15
((I8
I9
tp157
(I4
I4
tp158
(I9
I8
tp159
tp160
sg16
I10
sbssS'name'
p161
S'easy_roomset'
p162
sbsS'name'
p163
S'LimitedTimeAStar_with_PowerHeuristic2'
p164
sS'solutions'
p165
(dp166
g8
((lp167
(F0.52999999999974534
I10
tp168
aF0.52999999999974534
tp169
sg47
((lp170
(F0.050000000000181899
I19
tp171
aF0.050000000000181899
tp172
sg76
((lp173
(F0.060000000000400178
I27
tp174
aF0.060000000000400178
tp175
sg101
((lp176
(F9.1999999999998181
I10
tp177
aF9.3099999999994907
tp178
sg131
((lp179
(F0.17000000000007276
I14
tp180
aF0.17000000000007276
tp181
ssba(imeasure_core
ProblemSetSolution
p182
(dp183
g3
(imeasure_core
RoomSet
p184
(dp185
S'rooms'
p186
(dp187
(iproblems
RoomID
p188
(dp189
S'width'
p190
I9
sS'dusts'
p191
I8
sS'seed'
p192
I7283207964119141687
sS'obstacles'
p193
(I2
I6
tp194
sS'robots'
p195
I4
sS'height'
p196
I11
sb(imulti_robot_problem
MultiRobotState
p197
(dp198
S'obstacle_locations'
p199
g20
((lp200
(I4
I7
tp201
a(I1
I3
tp202
a(I8
I9
tp203
a(I6
I2
tp204
a(I0
I10
tp205
a(I3
I7
tp206
a(I0
I3
tp207
a(I8
I5
tp208
a(I4
I0
tp209
a(I5
I5
tp210
a(I6
I10
tp211
a(I6
I3
tp212
a(I3
I6
tp213
a(I5
I3
tp214
a(I5
I4
tp215
ag194
a(I4
I5
tp216
a(I1
I4
tp217
a(I3
I5
tp218
a(I3
I4
tp219
a(I6
I1
tp220
a(I4
I3
tp221
a(I5
I2
tp222
a(I2
I4
tp223
atp224
Rp225
sg190
I9
sS'dirt_locations'
p226
g20
((lp227
(I7
I0
tp228
a(I6
I8
tp229
a(I7
I1
tp230
a(I5
I6
tp231
a(I1
I8
tp232
a(I0
I8
tp233
a(I4
I1
tp234
a(I5
I8
tp235
atp236
Rp237
sg195
((I1
I7
tp238
(I6
I6
tp239
(I4
I6
tp240
(I2
I1
tp241
tp242
sg196
I11
sbs(iproblems
RoomID
p243
(dp244
g190
I10
sg191
I8
sg192
I890727360438182992
sg193
(I3
I5
tp245
sg195
I3
sg196
I12
sb(imulti_robot_problem
MultiRobotState
p246
(dp247
g199
g20
((lp248
(I7
I8
tp249
a(I4
I7
tp250
a(I5
I7
tp251
a(I3
I0
tp252
a(I8
I9
tp253
a(I5
I8
tp254
a(I6
I7
tp255
a(I7
I10
tp256
a(I2
I2
tp257
a(I3
I2
tp258
a(I0
I0
tp259
a(I1
I4
tp260
a(I7
I5
tp261
a(I2
I3
tp262
a(I4
I11
tp263
ag245
a(I6
I8
tp264
a(I3
I4
tp265
a(I3
I1
tp266
a(I8
I8
tp267
a(I0
I9
tp268
a(I3
I9
tp269
a(I5
I2
tp270
atp271
Rp272
sg190
I10
sg226
g20
((lp273
(I9
I2
tp274
a(I6
I1
tp275
a(I8
I0
tp276
a(I2
I10
tp277
a(I0
I6
tp278
a(I0
I4
tp279
a(I9
I5
tp280
a(I1
I1
tp281
atp282
Rp283
sg195
((I2
I9
tp284
(I2
I6
tp285
(I8
I4
tp286
tp287
sg196
I12
sbs(iproblems
RoomID
p288
(dp289
g190
I10
sg191
I9
sg192
I7713914763314685786
sg193
(I1
I3
tp290
sg195
I4
sg196
I9
sb(imulti_robot_problem
MultiRobotState
p291
(dp292
g199
g20
((lp293
g290
a(I2
I1
tp294
a(I5
I1
tp295
a(I7
I2
tp296
a(I4
I0
tp297
a(I1
I2
tp298
a(I1
I5
tp299
a(I2
I2
tp300
a(I4
I1
tp301
a(I1
I1
tp302
a(I3
I2
tp303
a(I7
I1
tp304
a(I9
I3
tp305
a(I6
I0
tp306
a(I4
I2
tp307
a(I9
I6
tp308
a(I3
I5
tp309
a(I7
I0
tp310
a(I6
I1
tp311
a(I3
I1
tp312
a(I1
I8
tp313
a(I5
I2
tp314
atp315
Rp316
sg190
I10
sg226
g20
((lp317
(I7
I3
tp318
a(I5
I4
tp319
a(I7
I6
tp320
a(I7
I5
tp321
a(I0
I5
tp322
a(I8
I7
tp323
a(I8
I6
tp324
a(I8
I5
tp325
a(I9
I7
tp326
atp327
Rp328
sg195
((I3
I0
tp329
(I7
I7
tp330
(I2
I0
tp331
(I4
I6
tp332
tp333
sg196
I9
sbs(iproblems
RoomID
p334
(dp335
g190
I12
sg191
I7
sg192
I1585446675937841368
sg193
(I6
I3
tp336
sg195
I3
sg196
I12
sb(imulti_robot_problem
MultiRobotState
p337
(dp338
g199
g20
((lp339
(I5
I9
tp340
a(I7
I3
tp341
a(I2
I8
tp342
a(I3
I11
tp343
a(I6
I2
tp344
a(I5
I1
tp345
a(I1
I11
tp346
a(I8
I5
tp347
a(I7
I2
tp348
a(I7
I8
tp349
a(I6
I7
tp350
a(I2
I9
tp351
a(I7
I6
tp352
a(I6
I6
tp353
ag336
a(I7
I10
tp354
a(I8
I6
tp355
a(I4
I10
tp356
a(I8
I2
tp357
a(I7
I1
tp358
a(I9
I3
tp359
a(I7
I7
tp360
a(I4
I11
tp361
a(I2
I7
tp362
a(I6
I8
tp363
a(I3
I4
tp364
a(I5
I7
tp365
a(I2
I11
tp366
a(I4
I3
tp367
a(I5
I2
tp368
a(I8
I4
tp369
atp370
Rp371
sg190
I12
sg226
g20
((lp372
(I3
I2
tp373
a(I11
I5
tp374
a(I11
I8
tp375
a(I6
I10
tp376
a(I1
I9
tp377
a(I9
I4
tp378
a(I2
I5
tp379
atp380
Rp381
sg195
((I10
I10
tp382
(I5
I5
tp383
(I11
I10
tp384
tp385
sg196
I12
sbs(iproblems
RoomID
p386
(dp387
g190
I10
sg191
I5
sg192
I1736392818365009963
sg193
(I7
I6
tp388
sg195
I3
sg196
I9
sb(imulti_robot_problem
MultiRobotState
p389
(dp390
g199
g20
((lp391
(I7
I3
tp392
a(I9
I1
tp393
a(I4
I8
tp394
a(I7
I7
tp395
a(I6
I2
tp396
a(I8
I5
tp397
a(I7
I2
tp398
a(I1
I2
tp399
a(I3
I8
tp400
a(I9
I0
tp401
ag388
a(I2
I2
tp402
a(I9
I3
tp403
a(I7
I5
tp404
a(I0
I5
tp405
a(I0
I4
tp406
a(I6
I5
tp407
a(I0
I1
tp408
a(I9
I2
tp409
a(I7
I4
tp410
a(I4
I3
tp411
a(I5
I2
tp412
a(I8
I4
tp413
atp414
Rp415
sg190
I10
sg226
g20
((lp416
(I1
I8
tp417
a(I3
I1
tp418
a(I4
I1
tp419
a(I0
I2
tp420
a(I5
I5
tp421
atp422
Rp423
sg195
((I4
I2
tp424
(I1
I0
tp425
(I8
I2
tp426
tp427
sg196
I9
sbssS'name'
p428
S'mild_roomset'
p429
sbsg163
g164
sg165
(dp430
g188
((lp431
(F0.10999999999967258
I7
tp432
aF0.10999999999967258
tp433
sg243
((lp434
F300.71000000000004
tp435
sg288
((lp436
(F1.0499999999992724
I15
tp437
aF1.0599999999994907
tp438
sg334
((lp439
(F31.200000000000728
I20
tp440
aF31.280000000000655
tp441
sg386
((lp442
(F0.36000000000058208
I23
tp443
aF0.36000000000058208
tp444
ssba(imeasure_core
ProblemSetSolution
p445
(dp446
g3
(imeasure_core
RoomSet
p447
(dp448
S'rooms'
p449
(dp450
(iproblems
RoomID
p451
(dp452
S'width'
p453
I10
sS'dusts'
p454
I13
sS'seed'
p455
I7283207964119141687
sS'obstacles'
p456
(I8
I4
tp457
sS'robots'
p458
I7
sS'height'
p459
I12
sb(imulti_robot_problem
MultiRobotState
p460
(dp461
S'obstacle_locations'
p462
g20
((lp463
(I7
I4
tp464
a(I3
I4
tp465
a(I6
I10
tp466
a(I6
I0
tp467
a(I6
I3
tp468
a(I0
I11
tp469
a(I6
I2
tp470
a(I3
I6
tp471
a(I2
I2
tp472
a(I0
I4
tp473
a(I5
I2
tp474
a(I5
I8
tp475
ag457
atp476
Rp477
sg453
I10
sS'dirt_locations'
p478
g20
((lp479
(I7
I3
tp480
a(I6
I7
tp481
a(I6
I8
tp482
a(I7
I1
tp483
a(I8
I1
tp484
a(I4
I4
tp485
a(I6
I6
tp486
a(I5
I6
tp487
a(I1
I9
tp488
a(I5
I0
tp489
a(I9
I10
tp490
a(I9
I6
tp491
a(I7
I9
tp492
atp493
Rp494
sg458
((I1
I7
tp495
(I7
I6
tp496
(I4
I6
tp497
(I2
I1
tp498
(I6
I4
tp499
(I0
I9
tp500
(I8
I0
tp501
tp502
sg459
I12
sbs(iproblems
RoomID
p503
(dp504
g453
I11
sg454
I13
sg455
I890727360438182992
sg456
(I8
I3
tp505
sg458
I5
sg459
I13
sb(imulti_robot_problem
MultiRobotState
p506
(dp507
g462
g20
((lp508
(I4
I10
tp509
a(I6
I9
tp510
a(I9
I0
tp511
a(I8
I2
tp512
a(I5
I9
tp513
a(I9
I8
tp514
a(I6
I10
tp515
ag505
a(I8
I8
tp516
a(I4
I12
tp517
a(I0
I10
tp518
a(I8
I7
tp519
a(I6
I8
tp520
a(I8
I6
tp521
a(I7
I8
tp522
a(I0
I2
tp523
a(I9
I1
tp524
atp525
Rp526
sg453
I11
sg478
g20
((lp527
(I10
I5
tp528
a(I0
I0
tp529
a(I4
I6
tp530
a(I1
I5
tp531
a(I9
I2
tp532
a(I8
I11
tp533
a(I2
I1
tp534
a(I9
I10
tp535
a(I0
I6
tp536
a(I0
I4
tp537
a(I0
I9
tp538
a(I5
I2
tp539
a(I4
I11
tp540
atp541
Rp542
sg458
((I3
I10
tp543
(I2
I7
tp544
(I9
I4
tp545
(I2
I11
tp546
(I7
I1
tp547
tp548
sg459
I13
sbs(iproblems
RoomID
p549
(dp550
g453
I12
sg454
I15
sg455
I3960482443532127989
sg456
(I6
I9
tp551
sg458
I7
sg459
I11
sb(imulti_robot_problem
MultiRobotState
p552
(dp553
g462
g20
((lp554
(I5
I9
tp555
ag551
a(I9
I1
tp556
a(I6
I4
tp557
a(I5
I6
tp558
a(I7
I7
tp559
a(I9
I4
tp560
a(I1
I2
tp561
a(I6
I7
tp562
a(I2
I9
tp563
a(I8
I1
tp564
a(I6
I3
tp565
a(I8
I6
tp566
a(I9
I7
tp567
a(I4
I10
tp568
a(I2
I10
tp569
a(I3
I9
tp570
a(I6
I5
tp571
a(I8
I3
tp572
a(I5
I10
tp573
a(I5
I7
tp574
a(I7
I4
tp575
a(I10
I7
tp576
a(I0
I9
tp577
a(I7
I8
tp578
a(I11
I6
tp579
atp580
Rp581
sg453
I12
sg478
g20
((lp582
(I7
I3
tp583
a(I2
I6
tp584
a(I5
I5
tp585
a(I3
I0
tp586
a(I3
I8
tp587
a(I0
I6
tp588
a(I11
I1
tp589
a(I1
I6
tp590
a(I4
I3
tp591
a(I1
I7
tp592
a(I1
I3
tp593
a(I1
I0
tp594
a(I10
I1
tp595
a(I1
I1
tp596
a(I10
I2
tp597
atp598
Rp599
sg458
((I11
I10
tp600
(I1
I8
tp601
(I10
I5
tp602
(I11
I0
tp603
(I4
I8
tp604
(I7
I9
tp605
(I7
I1
tp606
tp607
sg459
I11
sbs(iproblems
RoomID
p608
(dp609
g453
I11
sg454
I10
sg455
I1736392818365009963
sg456
(I10
I4
tp610
sg458
I5
sg459
I10
sb(imulti_robot_problem
MultiRobotState
p611
(dp612
g462
g20
((lp613
(I0
I1
tp614
a(I1
I2
tp615
a(I3
I2
tp616
ag610
a(I4
I5
tp617
a(I7
I4
tp618
a(I6
I2
tp619
a(I2
I3
tp620
a(I10
I1
tp621
a(I3
I8
tp622
a(I10
I0
tp623
a(I10
I3
tp624
a(I10
I2
tp625
atp626
Rp627
sg453
I11
sg478
g20
((lp628
(I5
I9
tp629
a(I5
I5
tp630
a(I3
I1
tp631
a(I8
I8
tp632
a(I3
I9
tp633
a(I0
I5
tp634
a(I5
I3
tp635
a(I4
I1
tp636
a(I6
I5
tp637
a(I8
I4
tp638
atp639
Rp640
sg458
((I4
I2
tp641
(I1
I0
tp642
(I9
I3
tp643
(I1
I9
tp644
(I0
I2
tp645
tp646
sg459
I10
sbs(iproblems
RoomID
p647
(dp648
g453
I13
sg454
I12
sg455
I1585446675937841368
sg456
(I6
I9
tp649
sg458
I6
sg459
I13
sb(imulti_robot_problem
MultiRobotState
p650
(dp651
g462
g20
((lp652
(I7
I3
tp653
ag649
a(I7
I7
tp654
a(I4
I12
tp655
a(I10
I3
tp656
a(I7
I2
tp657
a(I2
I9
tp658
a(I8
I1
tp659
a(I7
I6
tp660
a(I6
I3
tp661
a(I5
I8
tp662
a(I7
I10
tp663
a(I9
I7
tp664
a(I8
I11
tp665
a(I7
I5
tp666
a(I1
I12
tp667
a(I9
I2
tp668
a(I7
I4
tp669
a(I3
I4
tp670
a(I2
I4
tp671
a(I9
I12
tp672
a(I8
I4
tp673
atp674
Rp675
sg453
I13
sg478
g20
((lp676
(I3
I3
tp677
a(I2
I8
tp678
a(I6
I10
tp679
a(I5
I2
tp680
a(I8
I10
tp681
a(I2
I10
tp682
a(I12
I5
tp683
a(I4
I3
tp684
a(I5
I1
tp685
a(I3
I5
tp686
a(I12
I9
tp687
a(I7
I9
tp688
atp689
Rp690
sg458
((I10
I11
tp691
(I5
I5
tp692
(I12
I11
tp693
(I1
I10
tp694
(I3
I12
tp695
(I10
I4
tp696
tp697
sg459
I13
sbssS'name'
p698
S'heavy_roomset'
p699
sbsg163
g164
sg165
(dp700
g451
((lp701
(F39.789999999999054
I10
tp702
aF40.119999999998981
tp703
sg503
((lp704
F304.11000000000058
tp705
sg549
((lp706
F304.05999999999949
tp707
sg608
((lp708
(F1.2399999999997817
I9
tp709
aF1.25
tp710
sg647
((lp711
F304.61000000000058
tp712
ssba.