(lp0
(imeasure_core
ProblemSetSolution
p1
(dp2
S'roomset'
p3
(imeasure_core
RoomSet
p4
(dp5
S'rooms'
p6
(dp7
(iproblems
RoomID
p8
(dp9
S'width'
p10
I9
sS'dusts'
p11
I7
sS'seed'
p12
I1486246605650367638
sS'obstacles'
p13
(I1
I3
tp14
sS'robots'
p15
I1
sS'height'
p16
I7
sb(imulti_robot_problem
MultiRobotState
p17
(dp18
S'obstacle_locations'
p19
c__builtin__
frozenset
p20
((lp21
(I0
I1
tp22
a(I8
I3
tp23
ag14
a(I0
I3
tp24
a(I0
I2
tp25
atp26
Rp27
sg10
I9
sS'dirt_locations'
p28
g20
((lp29
(I7
I0
tp30
a(I4
I4
tp31
a(I7
I5
tp32
a(I0
I4
tp33
a(I1
I0
tp34
a(I6
I5
tp35
a(I4
I0
tp36
atp37
Rp38
sg15
((I5
I1
tp39
tp40
sg16
I7
sbs(iproblems
RoomID
p41
(dp42
g10
I10
sg11
I9
sg12
I679259829289197625
sg13
(I7
I5
tp43
sg15
I4
sg16
I10
sb(imulti_robot_problem
MultiRobotState
p44
(dp45
g19
g20
((lp46
(I7
I0
tp47
a(I8
I6
tp48
a(I7
I6
tp49
ag43
a(I9
I6
tp50
atp51
Rp52
sg10
I10
sg28
g20
((lp53
(I5
I4
tp54
a(I2
I6
tp55
a(I7
I1
tp56
a(I6
I1
tp57
a(I0
I5
tp58
a(I8
I7
tp59
a(I9
I5
tp60
a(I0
I9
tp61
a(I1
I6
tp62
atp63
Rp64
sg15
((I7
I8
tp65
(I6
I7
tp66
(I3
I5
tp67
(I3
I9
tp68
tp69
sg16
I10
sbs(iproblems
RoomID
p70
(dp71
g10
I9
sg11
I5
sg12
I2685440357799139976
sg13
(I3
I4
tp72
sg15
I1
sg16
I9
sb(imulti_robot_problem
MultiRobotState
p73
(dp74
g19
g20
((lp75
(I8
I3
tp76
a(I1
I3
tp77
a(I5
I6
tp78
a(I7
I8
tp79
a(I1
I1
tp80
a(I3
I8
tp81
a(I2
I3
tp82
ag72
a(I2
I4
tp83
atp84
Rp85
sg10
I9
sg28
g20
((lp86
(I0
I1
tp87
a(I0
I0
tp88
a(I3
I1
tp89
a(I5
I0
tp90
a(I8
I7
tp91
atp92
Rp93
sg15
((I5
I5
tp94
tp95
sg16
I9
sbs(iproblems
RoomID
p96
(dp97
g10
I9
sg11
I6
sg12
I5891625650498269233
sg13
(I4
I4
tp98
sg15
I4
sg16
I9
sb(imulti_robot_problem
MultiRobotState
p99
(dp100
g19
g20
((lp101
(I2
I7
tp102
a(I4
I5
tp103
ag98
a(I3
I6
tp104
atp105
Rp106
sg10
I9
sg28
g20
((lp107
(I8
I3
tp108
a(I5
I5
tp109
a(I6
I6
tp110
a(I7
I4
tp111
a(I0
I5
tp112
a(I4
I0
tp113
atp114
Rp115
sg15
((I4
I6
tp116
(I7
I1
tp117
(I0
I4
tp118
(I7
I2
tp119
tp120
sg16
I9
sbs(iproblems
RoomID
p121
(dp122
g10
I10
sg11
I6
sg12
I403795515464475257
sg13
(I1
I6
tp123
sg15
I4
sg16
I8
sb(imulti_robot_problem
MultiRobotState
p124
(dp125
g19
g20
((lp126
(I8
I3
tp127
a(I1
I3
tp128
a(I6
I7
tp129
ag123
a(I0
I4
tp130
a(I0
I5
tp131
a(I4
I1
tp132
atp133
Rp134
sg10
I10
sg28
g20
((lp135
(I7
I3
tp136
a(I4
I7
tp137
a(I8
I0
tp138
a(I0
I7
tp139
a(I2
I2
tp140
a(I0
I2
tp141
atp142
Rp143
sg15
((I8
I2
tp144
(I6
I1
tp145
(I5
I0
tp146
(I2
I0
tp147
tp148
sg16
I8
sbssS'name'
p149
S'easy_roomset'
p150
sbsS'name'
p151
S"AnytimeBeam-w20-gf(2, 'lin')_with_PowerHeuristic2"
p152
sS'solutions'
p153
(dp154
g8
((lp155
(F0.11000000000058208
I45
tp156
a(F8.7800000000024738
I44
tp157
a(F15.130000000001019
I42
tp158
a(F15.600000000002183
I39
tp159
a(F15.909999999999854
I37
tp160
a(F16.520000000000437
I36
tp161
a(F17.150000000001455
I34
tp162
a(F19.209999999999127
I33
tp163
a(F23.900000000001455
I31
tp164
a(F34.830000000001746
I30
tp165
aF40.0
tp166
sg41
((lp167
(F0.79000000000087311
I20
tp168
aF40.010000000002037
tp169
sg70
((lp170
(F0.059999999997671694
I41
tp171
a(F8.6199999999989814
I35
tp172
a(F15.18999999999869
I33
tp173
a(F22.349999999998545
I31
tp174
a(F23.649999999997817
I29
tp175
a(F39.799999999999272
I27
tp176
aF40.0
tp177
sg96
((lp178
(F0.40999999999985448
I8
tp179
aF40.009999999998399
tp180
sg121
((lp181
(F6.7799999999988358
I134
tp182
aF40.06000000000131
tp183
ssba(imeasure_core
ProblemSetSolution
p184
(dp185
g3
(imeasure_core
RoomSet
p186
(dp187
S'rooms'
p188
(dp189
(iproblems
RoomID
p190
(dp191
S'width'
p192
I12
sS'dusts'
p193
I9
sS'seed'
p194
I679259829289197625
sS'obstacles'
p195
(I7
I7
tp196
sS'robots'
p197
I4
sS'height'
p198
I12
sb(imulti_robot_problem
MultiRobotState
p199
(dp200
S'obstacle_locations'
p201
g20
((lp202
(I6
I9
tp203
a(I6
I6
tp204
a(I5
I6
tp205
a(I9
I8
tp206
ag196
a(I8
I5
tp207
a(I10
I8
tp208
a(I6
I7
tp209
a(I10
I7
tp210
a(I7
I6
tp211
a(I8
I10
tp212
a(I7
I10
tp213
a(I8
I6
tp214
a(I9
I7
tp215
a(I6
I4
tp216
a(I11
I9
tp217
a(I1
I4
tp218
a(I7
I5
tp219
a(I8
I7
tp220
a(I4
I2
tp221
a(I9
I6
tp222
a(I6
I5
tp223
a(I11
I7
tp224
a(I10
I5
tp225
a(I6
I8
tp226
a(I11
I8
tp227
a(I6
I1
tp228
a(I7
I4
tp229
atp230
Rp231
sg192
I12
sS'dirt_locations'
p232
g20
((lp233
(I2
I7
tp234
a(I9
I0
tp235
a(I8
I2
tp236
a(I7
I1
tp237
a(I11
I0
tp238
a(I0
I11
tp239
a(I1
I6
tp240
a(I1
I7
tp241
a(I11
I6
tp242
atp243
Rp244
sg197
((I9
I10
tp245
(I8
I9
tp246
(I3
I7
tp247
(I3
I11
tp248
tp249
sg198
I12
sbs(iproblems
RoomID
p250
(dp251
g192
I11
sg193
I5
sg194
I2685440357799139976
sg195
(I9
I1
tp252
sg197
I3
sg198
I11
sb(imulti_robot_problem
MultiRobotState
p253
(dp254
g201
g20
((lp255
(I7
I3
tp256
ag252
a(I5
I6
tp257
a(I10
I6
tp258
a(I9
I4
tp259
a(I7
I10
tp260
a(I10
I3
tp261
a(I7
I2
tp262
a(I5
I5
tp263
a(I10
I7
tp264
a(I8
I5
tp265
a(I3
I6
tp266
a(I3
I5
tp267
a(I10
I9
tp268
a(I10
I4
tp269
a(I7
I1
tp270
a(I4
I5
tp271
a(I9
I3
tp272
a(I1
I4
tp273
a(I3
I9
tp274
a(I9
I6
tp275
a(I6
I5
tp276
a(I5
I3
tp277
a(I8
I3
tp278
a(I6
I8
tp279
a(I9
I2
tp280
a(I7
I8
tp281
a(I9
I9
tp282
a(I9
I5
tp283
a(I3
I4
tp284
a(I2
I4
tp285
atp286
Rp287
sg192
I11
sg232
g20
((lp288
(I1
I2
tp289
a(I9
I10
tp290
a(I6
I1
tp291
a(I4
I1
tp292
a(I0
I2
tp293
atp294
Rp295
sg197
((I6
I6
tp296
(I0
I0
tp297
(I10
I8
tp298
tp299
sg198
I11
sbs(iproblems
RoomID
p300
(dp301
g192
I11
sg193
I6
sg194
I5891625650498269233
sg195
(I3
I9
tp302
sg197
I4
sg198
I11
sb(imulti_robot_problem
MultiRobotState
p303
(dp304
g201
g20
((lp305
(I7
I3
tp306
a(I4
I7
tp307
a(I6
I6
tp308
a(I5
I6
tp309
a(I2
I8
tp310
a(I6
I2
tp311
a(I5
I1
tp312
a(I3
I7
tp313
a(I8
I5
tp314
a(I5
I5
tp315
a(I2
I9
tp316
a(I7
I6
tp317
a(I4
I4
tp318
a(I2
I2
tp319
a(I1
I1
tp320
a(I9
I7
tp321
a(I3
I2
tp322
a(I10
I4
tp323
a(I4
I5
tp324
a(I9
I3
tp325
a(I8
I3
tp326
a(I2
I10
tp327
a(I7
I5
tp328
a(I2
I3
tp329
a(I10
I5
tp330
a(I4
I6
tp331
a(I3
I4
tp332
a(I6
I1
tp333
a(I3
I8
tp334
a(I1
I8
tp335
ag302
a(I4
I3
tp336
a(I9
I5
tp337
a(I5
I2
tp338
a(I8
I4
tp339
atp340
Rp341
sg192
I11
sg232
g20
((lp342
(I5
I10
tp343
a(I9
I1
tp344
a(I10
I7
tp345
a(I8
I8
tp346
a(I1
I6
tp347
a(I7
I9
tp348
atp349
Rp350
sg197
((I5
I7
tp351
(I8
I1
tp352
(I0
I5
tp353
(I4
I0
tp354
tp355
sg198
I11
sbs(iproblems
RoomID
p356
(dp357
g192
I9
sg193
I7
sg194
I7834319822419845881
sg195
(I8
I8
tp358
sg197
I3
sg198
I9
sb(imulti_robot_problem
MultiRobotState
p359
(dp360
g201
g20
((lp361
(I4
I7
tp362
a(I1
I3
tp363
a(I6
I6
tp364
a(I5
I6
tp365
a(I2
I8
tp366
a(I3
I7
tp367
a(I0
I3
tp368
a(I8
I5
tp369
a(I5
I8
tp370
a(I6
I7
tp371
a(I5
I5
tp372
a(I4
I4
tp373
a(I1
I5
tp374
a(I5
I0
tp375
a(I3
I5
tp376
a(I2
I6
tp377
a(I3
I6
tp378
a(I4
I5
tp379
a(I0
I5
tp380
a(I0
I8
tp381
a(I3
I3
tp382
a(I2
I7
tp383
a(I5
I3
tp384
a(I4
I6
tp385
a(I3
I4
tp386
a(I1
I8
tp387
ag358
a(I1
I7
tp388
a(I7
I8
tp389
atp390
Rp391
sg192
I9
sg232
g20
((lp392
(I7
I0
tp393
a(I7
I1
tp394
a(I1
I4
tp395
a(I7
I4
tp396
a(I2
I0
tp397
a(I6
I2
tp398
a(I8
I7
tp399
atp400
Rp401
sg197
((I2
I1
tp402
(I2
I3
tp403
(I5
I7
tp404
tp405
sg198
I9
sbs(iproblems
RoomID
p406
(dp407
g192
I10
sg193
I10
sg194
I1737871632067391849
sg195
(I1
I5
tp408
sg197
I4
sg198
I12
sb(imulti_robot_problem
MultiRobotState
p409
(dp410
g201
g20
((lp411
(I6
I6
tp412
a(I5
I6
tp413
a(I2
I8
tp414
a(I8
I9
tp415
a(I6
I2
tp416
a(I5
I1
tp417
a(I8
I5
tp418
a(I5
I8
tp419
a(I5
I5
tp420
a(I7
I6
tp421
a(I8
I10
tp422
ag408
a(I2
I2
tp423
a(I4
I1
tp424
a(I3
I2
tp425
a(I0
I0
tp426
a(I2
I10
tp427
a(I2
I3
tp428
a(I8
I7
tp429
a(I6
I5
tp430
a(I8
I3
tp431
a(I7
I8
tp432
a(I2
I4
tp433
atp434
Rp435
sg192
I10
sg232
g20
((lp436
(I0
I1
tp437
a(I4
I10
tp438
a(I4
I8
tp439
a(I3
I0
tp440
a(I3
I4
tp441
a(I3
I10
tp442
a(I5
I11
tp443
a(I2
I7
tp444
a(I1
I9
tp445
a(I9
I6
tp446
atp447
Rp448
sg197
((I4
I9
tp449
(I8
I11
tp450
(I4
I0
tp451
(I3
I9
tp452
tp453
sg198
I12
sbssS'name'
p454
S'mild_roomset'
p455
sbsg151
g152
sg153
(dp456
g190
((lp457
F40.200000000000728
tp458
sg250
((lp459
(F3.6899999999986903
I127
tp460
aF40.039999999997235
tp461
sg300
((lp462
(F2.4200000000018917
I64
tp463
aF40.020000000000437
tp464
sg356
((lp465
(F0.11000000000058208
I25
tp466
aF40.010000000002037
tp467
sg406
((lp468
(F0.39999999999781721
I12
tp469
aF40.059999999997672
tp470
ssba(imeasure_core
ProblemSetSolution
p471
(dp472
g3
(imeasure_core
RoomSet
p473
(dp474
S'rooms'
p475
(dp476
(iproblems
RoomID
p477
(dp478
S'width'
p479
I12
sS'dusts'
p480
I12
sS'seed'
p481
I1486246605650367638
sS'obstacles'
p482
(I6
I3
tp483
sS'robots'
p484
I5
sS'height'
p485
I10
sb(imulti_robot_problem
MultiRobotState
p486
(dp487
S'obstacle_locations'
p488
g20
((lp489
(I2
I7
tp490
a(I5
I9
tp491
a(I1
I3
tp492
a(I3
I1
tp493
a(I7
I1
tp494
a(I5
I2
tp495
a(I1
I2
tp496
a(I1
I4
tp497
ag483
a(I1
I5
tp498
a(I6
I2
tp499
a(I1
I6
tp500
a(I2
I1
tp501
a(I10
I0
tp502
a(I2
I0
tp503
a(I0
I3
tp504
a(I4
I1
tp505
a(I1
I1
tp506
a(I6
I5
tp507
a(I8
I4
tp508
atp509
Rp510
sg479
I12
sS'dirt_locations'
p511
g20
((lp512
(I11
I7
tp513
a(I11
I4
tp514
a(I9
I1
tp515
a(I11
I8
tp516
a(I2
I8
tp517
a(I6
I0
tp518
a(I0
I6
tp519
a(I11
I1
tp520
a(I0
I4
tp521
a(I4
I9
tp522
a(I10
I9
tp523
a(I9
I7
tp524
atp525
Rp526
sg484
((I2
I4
tp527
(I10
I1
tp528
(I2
I5
tp529
(I9
I8
tp530
(I6
I6
tp531
tp532
sg485
I10
sbs(iproblems
RoomID
p533
(dp534
g479
I13
sg480
I14
sg481
I679259829289197625
sg482
(I7
I6
tp535
sg484
I7
sg485
I13
sb(imulti_robot_problem
MultiRobotState
p536
(dp537
g488
g20
((lp538
(I1
I2
tp539
a(I6
I4
tp540
a(I4
I3
tp541
a(I4
I8
tp542
a(I10
I7
tp543
a(I3
I4
tp544
a(I12
I7
tp545
a(I10
I6
tp546
a(I11
I7
tp547
a(I6
I3
tp548
a(I7
I5
tp549
a(I12
I11
tp550
a(I6
I2
tp551
a(I9
I6
tp552
ag535
a(I12
I8
tp553
atp554
Rp555
sg479
I13
sg511
g20
((lp556
(I2
I7
tp557
a(I12
I1
tp558
a(I9
I2
tp559
a(I2
I8
tp560
a(I5
I7
tp561
a(I1
I4
tp562
a(I0
I12
tp563
a(I7
I4
tp564
a(I11
I4
tp565
a(I11
I6
tp566
a(I4
I2
tp567
a(I10
I0
tp568
a(I10
I9
tp569
a(I1
I9
tp570
atp571
Rp572
sg484
((I9
I11
tp573
(I9
I10
tp574
(I4
I7
tp575
(I4
I12
tp576
(I7
I1
tp577
(I1
I8
tp578
(I1
I6
tp579
tp580
sg485
I13
sbs(iproblems
RoomID
p581
(dp582
g479
I13
sg480
I11
sg481
I403795515464475257
sg482
(I2
I7
tp583
sg484
I6
sg485
I11
sb(imulti_robot_problem
MultiRobotState
p584
(dp585
g488
g20
((lp586
g583
a(I10
I8
tp587
a(I3
I10
tp588
a(I4
I4
tp589
a(I2
I2
tp590
a(I1
I4
tp591
a(I12
I5
tp592
a(I0
I6
tp593
a(I0
I5
tp594
a(I3
I6
tp595
a(I1
I7
tp596
a(I0
I8
tp597
a(I7
I9
tp598
atp599
Rp600
sg479
I13
sg511
g20
((lp601
(I6
I4
tp602
a(I0
I0
tp603
a(I2
I9
tp604
a(I11
I5
tp605
a(I8
I9
tp606
a(I11
I1
tp607
a(I2
I3
tp608
a(I1
I10
tp609
a(I12
I2
tp610
a(I0
I3
tp611
a(I5
I2
tp612
atp613
Rp614
sg484
((I10
I3
tp615
(I7
I2
tp616
(I7
I0
tp617
(I3
I1
tp618
(I5
I10
tp619
(I9
I4
tp620
tp621
sg485
I11
sbs(iproblems
RoomID
p622
(dp623
g479
I12
sg480
I10
sg481
I2685440357799139976
sg482
(I6
I9
tp624
sg484
I5
sg485
I12
sb(imulti_robot_problem
MultiRobotState
p625
(dp626
g488
g20
((lp627
g624
a(I9
I1
tp628
a(I3
I0
tp629
a(I0
I7
tp630
a(I0
I3
tp631
a(I4
I0
tp632
a(I1
I2
tp633
a(I11
I10
tp634
a(I6
I10
tp635
a(I5
I6
tp636
a(I9
I11
tp637
a(I7
I9
tp638
a(I4
I10
tp639
a(I5
I11
tp640
a(I4
I5
tp641
a(I1
I4
tp642
a(I3
I9
tp643
a(I0
I5
tp644
a(I1
I9
tp645
a(I3
I5
tp646
a(I3
I4
tp647
a(I2
I4
tp648
atp649
Rp650
sg479
I12
sg511
g20
((lp651
(I11
I7
tp652
a(I8
I3
tp653
a(I10
I11
tp654
a(I7
I1
tp655
a(I10
I5
tp656
a(I8
I10
tp657
a(I6
I3
tp658
a(I3
I6
tp659
a(I9
I10
tp660
a(I6
I5
tp661
atp662
Rp663
sg484
((I7
I7
tp664
(I0
I0
tp665
(I11
I9
tp666
(I0
I2
tp667
(I4
I1
tp668
tp669
sg485
I12
sbs(iproblems
RoomID
p670
(dp671
g479
I12
sg480
I11
sg481
I5891625650498269233
sg482
(I11
I9
tp672
sg484
I7
sg485
I12
sb(imulti_robot_problem
MultiRobotState
p673
(dp674
g488
g20
((lp675
g672
a(I6
I7
tp676
a(I4
I8
tp677
a(I5
I6
tp678
a(I6
I11
tp679
a(I8
I11
tp680
a(I4
I4
tp681
a(I2
I11
tp682
a(I7
I7
tp683
a(I7
I1
tp684
a(I9
I10
tp685
a(I10
I7
tp686
a(I3
I9
tp687
a(I1
I9
tp688
a(I7
I10
tp689
a(I5
I7
tp690
a(I9
I11
tp691
a(I7
I6
tp692
a(I10
I9
tp693
atp694
Rp695
sg479
I12
sg511
g20
((lp696
(I11
I7
tp697
a(I11
I4
tp698
a(I4
I6
tp699
a(I5
I11
tp700
a(I8
I10
tp701
a(I0
I5
tp702
a(I8
I7
tp703
a(I1
I7
tp704
a(I10
I1
tp705
a(I1
I1
tp706
a(I5
I5
tp707
atp708
Rp709
sg484
((I6
I8
tp710
(I9
I2
tp711
(I0
I6
tp712
(I10
I3
tp713
(I9
I5
tp714
(I5
I0
tp715
(I9
I8
tp716
tp717
sg485
I12
sbssS'name'
p718
S'heavy_roomset'
p719
sbsg151
g152
sg153
(dp720
g477
((lp721
(F16.159999999999854
I113
tp722
aF40.049999999999272
tp723
sg533
((lp724
F42.020000000000437
tp725
sg581
((lp726
(F23.290000000000873
I19
tp727
aF40.389999999999418
tp728
sg622
((lp729
(F4.5299999999988358
I58
tp730
aF40.06000000000131
tp731
sg670
((lp732
F41.859999999996944
tp733
ssba(imeasure_core
ProblemSetSolution
p734
(dp735
g3
g4
sg151
S"AnytimeBeam-w20-gf(4, 'lin')_with_PowerHeuristic2"
p736
sg153
(dp737
g8
((lp738
(F0.11000000000058208
I45
tp739
a(F4.7800000000024738
I44
tp740
a(F7.8500000000021828
I41
tp741
a(F8.2600000000020373
I37
tp742
a(F8.8600000000005821
I36
tp743
a(F9.4700000000011642
I34
tp744
a(F11.480000000003201
I33
tp745
a(F13.680000000000291
I31
tp746
a(F16.600000000002183
I30
tp747
a(F19.760000000002037
I28
tp748
a(F22.170000000001892
I26
tp749
a(F27.170000000001892
I25
tp750
aF40.0
tp751
sg41
((lp752
(F0.78000000000247383
I20
tp753
aF40.110000000000582
tp754
sg70
((lp755
(F0.060000000001309672
I41
tp756
a(F4.4600000000027649
I35
tp757
a(F8.4099999999998545
I33
tp758
a(F12.319999999999709
I31
tp759
a(F13.630000000001019
I29
tp760
a(F20.020000000000437
I27
tp761
a(F32.880000000001019
I25
tp762
a(F35.639999999999418
I23
tp763
aF40.0
tp764
sg96
((lp765
(F0.40999999999985448
I8
tp766
aF40.030000000002474
tp767
sg121
((lp768
(F6.8299999999981083
I134
tp769
aF40.009999999998399
tp770
ssba(imeasure_core
ProblemSetSolution
p771
(dp772
g3
g186
sg151
g736
sg153
(dp773
g190
((lp774
F40.120000000002619
tp775
sg250
((lp776
(F3.6899999999986903
I127
tp777
aF40.020000000000437
tp778
sg300
((lp779
(F2.4099999999998545
I64
tp780
aF40.039999999997235
tp781
sg356
((lp782
(F0.11000000000058208
I25
tp783
aF40.0
tp784
sg406
((lp785
(F0.40999999999985448
I12
tp786
aF40.010000000002037
tp787
ssba(imeasure_core
ProblemSetSolution
p788
(dp789
g3
g473
sg151
g736
sg153
(dp790
g477
((lp791
(F16.069999999999709
I113
tp792
aF40.009999999998399
tp793
sg533
((lp794
F42.150000000001455
tp795
sg581
((lp796
(F23.360000000000582
I19
tp797
aF40.540000000000873
tp798
sg622
((lp799
(F4.5399999999972351
I58
tp800
aF40.0
tp801
sg670
((lp802
F41.930000000000291
tp803
ssba(imeasure_core
ProblemSetSolution
p804
(dp805
g3
g4
sg151
S"AnytimeBeam-w20-gf(8, 'lin')_with_PowerHeuristic2"
p806
sg153
(dp807
g8
((lp808
(F0.11999999999898137
I45
tp809
a(F2.5499999999992724
I44
tp810
a(F4.4399999999986903
I39
tp811
a(F4.75
I37
tp812
a(F5.3499999999985448
I36
tp813
a(F5.9699999999975262
I34
tp814
a(F8.0399999999972351
I33
tp815
a(F10.279999999998836
I31
tp816
a(F13.239999999997963
I30
tp817
a(F16.429999999996653
I28
tp818
a(F18.859999999996944
I26
tp819
a(F23.899999999997817
I25
tp820
a(F30.389999999999418
I24
tp821
aF40.0
tp822
sg41
((lp823
(F0.77999999999883585
I20
tp824
aF40.159999999999854
tp825
sg70
((lp826
(F0.069999999999708962
I41
tp827
a(F2.8899999999994179
I35
tp828
a(F5.1299999999973807
I33
tp829
a(F6.3899999999994179
I31
tp830
a(F7.6899999999986903
I29
tp831
a(F10.0
I27
tp832
a(F16.44999999999709
I25
tp833
a(F19.180000000000291
I23
tp834
aF40.0
tp835
sg96
((lp836
(F0.40999999999985448
I8
tp837
aF40.0
tp838
sg121
((lp839
(F6.7999999999992724
I134
tp840
aF40.059999999997672
tp841
ssba(imeasure_core
ProblemSetSolution
p842
(dp843
g3
g186
sg151
g806
sg153
(dp844
g190
((lp845
F40.100000000002183
tp846
sg250
((lp847
(F3.6999999999970896
I127
tp848
aF40.020000000000437
tp849
sg300
((lp850
(F2.4199999999982538
I64
tp851
aF40.0
tp852
sg356
((lp853
(F0.1099999999969441
I25
tp854
aF40.0
tp855
sg406
((lp856
(F0.39999999999781721
I12
tp857
aF40.259999999998399
tp858
ssba(imeasure_core
ProblemSetSolution
p859
(dp860
g3
g473
sg151
g806
sg153
(dp861
g477
((lp862
(F16.130000000001019
I113
tp863
aF40.099999999998545
tp864
sg533
((lp865
F42.020000000000437
tp866
sg581
((lp867
(F23.299999999999272
I19
tp868
aF40.440000000002328
tp869
sg622
((lp870
(F4.5499999999992724
I58
tp871
aF40.019999999996799
tp872
sg670
((lp873
F41.980000000003201
tp874
ssba(imeasure_core
ProblemSetSolution
p875
(dp876
g3
g4
sg151
S"AnytimeBeam-w20-gf(16, 'lin')_with_PowerHeuristic2"
p877
sg153
(dp878
g8
((lp879
(F0.11000000000058208
I45
tp880
a(F1.4099999999998545
I44
tp881
a(F2.7000000000007276
I37
tp882
a(F3.2999999999992724
I36
tp883
a(F3.9099999999998545
I34
tp884
a(F5.9799999999995634
I33
tp885
a(F8.2000000000007276
I31
tp886
a(F11.139999999999418
I30
tp887
a(F14.31000000000131
I28
tp888
a(F16.720000000001164
I26
tp889
a(F21.720000000001164
I25
tp890
a(F28.150000000001455
I24
tp891
aF40.0
tp892
sg41
((lp893
(F0.79000000000087311
I20
tp894
aF40.06000000000131
tp895
sg70
((lp896
(F0.069999999999708962
I41
tp897
a(F2.2999999999992724
I35
tp898
a(F3.4199999999982538
I33
tp899
a(F4.6699999999982538
I31
tp900
a(F5.9699999999975262
I29
tp901
a(F8.2899999999972351
I27
tp902
a(F11.5
I25
tp903
a(F14.229999999999563
I23
tp904
aF40.0
tp905
sg96
((lp906
(F0.40999999999985448
I8
tp907
aF40.049999999999272
tp908
sg121
((lp909
(F6.7799999999988358
I134
tp910
aF40.0
tp911
ssba(imeasure_core
ProblemSetSolution
p912
(dp913
g3
g186
sg151
g877
sg153
(dp914
g190
((lp915
F40.029999999998836
tp916
sg250
((lp917
(F3.7000000000007276
I127
tp918
aF40.010000000002037
tp919
sg300
((lp920
(F2.4199999999982538
I64
tp921
aF40.219999999997526
tp922
sg356
((lp923
(F0.11000000000058208
I25
tp924
aF40.020000000000437
tp925
sg406
((lp926
(F0.40000000000145519
I12
tp927
aF40.06000000000131
tp928
ssba(imeasure_core
ProblemSetSolution
p929
(dp930
g3
g473
sg151
g877
sg153
(dp931
g477
((lp932
(F16.099999999998545
I113
tp933
aF40.090000000000146
tp934
sg533
((lp935
F41.919999999998254
tp936
sg581
((lp937
(F23.380000000001019
I19
tp938
aF40.540000000000873
tp939
sg622
((lp940
(F4.5299999999988358
I58
tp941
aF40.06000000000131
tp942
sg670
((lp943
F42.029999999998836
tp944
ssba(imeasure_core
ProblemSetSolution
p945
(dp946
g3
g4
sg151
S"AnytimeBeam-w20-gf(2, 'lin')_with_LinearHeuristic"
p947
sg153
(dp948
g8
((lp949
(F0.010000000002037268
I24
tp950
aF40.0
tp951
sg41
((lp952
F40.110000000000582
tp953
sg70
((lp954
(F0.020000000000436557
I23
tp955
aF40.0
tp956
sg96
((lp957
(F0.36000000000058208
I4
tp958
aF40.130000000001019
tp959
sg121
((lp960
F40.080000000001746
tp961
ssba(imeasure_core
ProblemSetSolution
p962
(dp963
g3
g186
sg151
g947
sg153
(dp964
g190
((lp965
F40.099999999998545
tp966
sg250
((lp967
(F32.209999999999127
I391
tp968
aF40.020000000000437
tp969
sg300
((lp970
F40.079999999998108
tp971
sg356
((lp972
(F0.68000000000029104
I60
tp973
aF40.020000000000437
tp974
sg406
((lp975
F40.340000000000146
tp976
ssba(imeasure_core
ProblemSetSolution
p977
(dp978
g3
g473
sg151
g947
sg153
(dp979
g477
((lp980
F40.039999999997235
tp981
sg533
((lp982
F44.080000000001746
tp983
sg581
((lp984
(F16.509999999998399
I10
tp985
aF41.090000000000146
tp986
sg622
((lp987
F40.090000000000146
tp988
sg670
((lp989
F45.959999999999127
tp990
ssba(imeasure_core
ProblemSetSolution
p991
(dp992
g3
g4
sg151
S"AnytimeBeam-w20-gf(4, 'lin')_with_LinearHeuristic"
p993
sg153
(dp994
g8
((lp995
(F0.010000000002037268
I24
tp996
aF40.0
tp997
sg41
((lp998
F40.010000000002037
tp999
sg70
((lp1000
(F0.020000000000436557
I23
tp1001
aF40.0
tp1002
sg96
((lp1003
(F0.36000000000058208
I4
tp1004
aF40.110000000000582
tp1005
sg121
((lp1006
F40.229999999999563
tp1007
ssba(imeasure_core
ProblemSetSolution
p1008
(dp1009
g3
g186
sg151
g993
sg153
(dp1010
g190
((lp1011
F40.06000000000131
tp1012
sg250
((lp1013
(F32.009999999998399
I391
tp1014
aF40.029999999998836
tp1015
sg300
((lp1016
F40.239999999997963
tp1017
sg356
((lp1018
(F0.68000000000029104
I60
tp1019
aF40.010000000002037
tp1020
sg406
((lp1021
F40.130000000001019
tp1022
ssba(imeasure_core
ProblemSetSolution
p1023
(dp1024
g3
g473
sg151
g993
sg153
(dp1025
g477
((lp1026
F40.029999999998836
tp1027
sg533
((lp1028
F44.150000000001455
tp1029
sg581
((lp1030
(F16.599999999998545
I10
tp1031
aF41.239999999997963
tp1032
sg622
((lp1033
F40.270000000004075
tp1034
sg670
((lp1035
F46.049999999995634
tp1036
ssba(imeasure_core
ProblemSetSolution
p1037
(dp1038
g3
g4
sg151
S"AnytimeBeam-w20-gf(8, 'lin')_with_LinearHeuristic"
p1039
sg153
(dp1040
g8
((lp1041
(F0.010000000002037268
I24
tp1042
aF40.0
tp1043
sg41
((lp1044
F40.25
tp1045
sg70
((lp1046
(F0.019999999996798579
I23
tp1047
aF40.0
tp1048
sg96
((lp1049
(F0.36000000000058208
I4
tp1050
aF40.180000000000291
tp1051
sg121
((lp1052
F40.220000000001164
tp1053
ssba(imeasure_core
ProblemSetSolution
p1054
(dp1055
g3
g186
sg151
g1039
sg153
(dp1056
g190
((lp1057
F40.040000000000873
tp1058
sg250
((lp1059
(F32.159999999996217
I391
tp1060
aF40.0
tp1061
sg300
((lp1062
F40.129999999997381
tp1063
sg356
((lp1064
(F0.66999999999825377
I60
tp1065
aF40.010000000002037
tp1066
sg406
((lp1067
F40.110000000000582
tp1068
ssba(imeasure_core
ProblemSetSolution
p1069
(dp1070
g3
g473
sg151
g1039
sg153
(dp1071
g477
((lp1072
F40.149999999994179
tp1073
sg533
((lp1074
F44.110000000000582
tp1075
sg581
((lp1076
(F16.520000000004075
I10
tp1077
aF41.30000000000291
tp1078
sg622
((lp1079
F40.330000000001746
tp1080
sg670
((lp1081
F45.959999999999127
tp1082
ssba(imeasure_core
ProblemSetSolution
p1083
(dp1084
g3
g4
sg151
S"AnytimeBeam-w20-gf(16, 'lin')_with_LinearHeuristic"
p1085
sg153
(dp1086
g8
((lp1087
(F0.019999999996798579
I24
tp1088
aF40.0
tp1089
sg41
((lp1090
F40.019999999996799
tp1091
sg70
((lp1092
(F0.020000000004074536
I23
tp1093
aF40.0
tp1094
sg96
((lp1095
(F0.36000000000058208
I4
tp1096
aF40.0
tp1097
sg121
((lp1098
F40.069999999999709
tp1099
ssba(imeasure_core
ProblemSetSolution
p1100
(dp1101
g3
g186
sg151
g1085
sg153
(dp1102
g190
((lp1103
F40.150000000001455
tp1104
sg250
((lp1105
(F32.69999999999709
I391
tp1106
aF40.049999999995634
tp1107
sg300
((lp1108
F40.080000000001746
tp1109
sg356
((lp1110
(F0.68000000000029104
I60
tp1111
aF40.010000000002037
tp1112
sg406
((lp1113
F40.159999999996217
tp1114
ssba(imeasure_core
ProblemSetSolution
p1115
(dp1116
g3
g473
sg151
g1085
sg153
(dp1117
g477
((lp1118
F40.17000000000553
tp1119
sg533
((lp1120
F44.419999999998254
tp1121
sg581
((lp1122
(F16.650000000001455
I10
tp1123
aF40.989999999997963
tp1124
sg622
((lp1125
F40.310000000004948
tp1126
sg670
((lp1127
F46.409999999996217
tp1128
ssba.