(lp0
(imeasure_core
ProblemSetSolution
p1
(dp2
S'roomset'
p3
(imeasure_core
RoomSet
p4
(dp5
S'rooms'
p6
(dp7
(iproblems
RoomID
p8
(dp9
S'width'
p10
I7
sS'dusts'
p11
I8
sS'seed'
p12
I7283207964119141687
sS'obstacles'
p13
(I2
I4
tp14
sS'robots'
p15
I4
sS'height'
p16
I9
sb(imulti_robot_problem
MultiRobotState
p17
(dp18
S'obstacle_locations'
p19
c__builtin__
frozenset
p20
((lp21
(I4
I6
tp22
a(I3
I0
tp23
a(I4
I3
tp24
a(I4
I2
tp25
a(I3
I4
tp26
ag14
a(I3
I3
tp27
atp28
Rp29
sg10
I7
sS'dirt_locations'
p30
g20
((lp31
(I4
I5
tp32
a(I5
I7
tp33
a(I0
I6
tp34
a(I1
I6
tp35
a(I5
I0
tp36
a(I5
I1
tp37
a(I5
I2
tp38
a(I1
I1
tp39
atp40
Rp41
sg15
((I1
I5
tp42
(I5
I5
tp43
(I3
I1
tp44
(I3
I5
tp45
tp46
sg16
I9
sbs(iproblems
RoomID
p47
(dp48
g10
I8
sg11
I8
sg12
I890727360438182992
sg13
(I4
I6
tp49
sg15
I2
sg16
I10
sb(imulti_robot_problem
MultiRobotState
p50
(dp51
g19
g20
((lp52
(I0
I0
tp53
ag49
a(I6
I6
tp54
a(I5
I6
tp55
a(I7
I6
tp56
a(I7
I4
tp57
a(I4
I2
tp58
a(I2
I4
tp59
atp60
Rp61
sg10
I8
sg30
g20
((lp62
(I7
I0
tp63
a(I7
I1
tp64
a(I6
I3
tp65
a(I1
I8
tp66
a(I0
I5
tp67
a(I5
I1
tp68
a(I1
I0
tp69
a(I0
I3
tp70
atp71
Rp72
sg15
((I2
I8
tp73
(I2
I5
tp74
tp75
sg16
I10
sbs(iproblems
RoomID
p76
(dp77
g10
I8
sg11
I5
sg12
I1736392818365009963
sg13
(I7
I3
tp78
sg15
I1
sg16
I7
sb(imulti_robot_problem
MultiRobotState
p79
(dp80
g19
g20
((lp81
g78
a(I2
I6
tp82
a(I7
I0
tp83
a(I7
I1
tp84
a(I2
I1
tp85
a(I6
I3
tp86
a(I0
I4
tp87
a(I7
I2
tp88
atp89
Rp90
sg10
I8
sg30
g20
((lp91
(I0
I1
tp92
a(I6
I2
tp93
a(I1
I6
tp94
a(I4
I4
tp95
a(I0
I0
tp96
atp97
Rp98
sg15
((I3
I1
tp99
tp100
sg16
I7
sbs(iproblems
RoomID
p101
(dp102
g10
I10
sg11
I7
sg12
I1585446675937841368
sg13
(I4
I1
tp103
sg15
I3
sg16
I10
sb(imulti_robot_problem
MultiRobotState
p104
(dp105
g19
g20
((lp106
(I3
I2
tp107
a(I2
I6
tp108
a(I6
I7
tp109
a(I6
I1
tp110
a(I5
I8
tp111
a(I5
I0
tp112
ag103
a(I2
I4
tp113
a(I7
I2
tp114
atp115
Rp116
sg10
I10
sg30
g20
((lp117
(I7
I3
tp118
a(I2
I9
tp119
a(I1
I7
tp120
a(I9
I4
tp121
a(I2
I2
tp122
a(I5
I2
tp123
a(I9
I7
tp124
atp125
Rp126
sg15
((I8
I9
tp127
(I4
I4
tp128
(I9
I8
tp129
tp130
sg16
I10
sbs(iproblems
RoomID
p131
(dp132
g10
I9
sg11
I10
sg12
I3960482443532127989
sg13
(I6
I5
tp133
sg15
I5
sg16
I8
sb(imulti_robot_problem
MultiRobotState
p134
(dp135
g19
g20
((lp136
(I4
I5
tp137
a(I5
I5
tp138
ag133
a(I6
I6
tp139
atp140
Rp141
sg10
I9
sg30
g20
((lp142
(I2
I7
tp143
a(I2
I6
tp144
a(I3
I6
tp145
a(I5
I7
tp146
a(I1
I4
tp147
a(I1
I5
tp148
a(I5
I0
tp149
a(I8
I0
tp150
a(I8
I5
tp151
a(I5
I3
tp152
atp153
Rp154
sg15
((I4
I3
tp155
(I8
I7
tp156
(I1
I6
tp157
(I7
I3
tp158
(I6
I4
tp159
tp160
sg16
I8
sbssS'name'
p161
S'easy_roomset'
p162
sbsS'name'
p163
S"AnytimeBeam-w20-gf(1.3, 'exp')_with_PowerHeuristic2"
p164
sS'solutions'
p165
(dp166
g8
((lp167
(F1.7999999999956344
I28
tp168
aF40.180000000000291
tp169
sg47
((lp170
(F0.099999999998544808
I19
tp171
aF40.010000000002037
tp172
sg76
((lp173
(F0.059999999997671694
I30
tp174
a(F0.14999999999417923
I28
tp175
a(F0.9699999999938882
I27
tp176
a(F1.3799999999973807
I25
tp177
a(F1.7399999999979627
I23
tp178
a(F2.0399999999935972
I22
tp179
a(F3.2599999999947613
I21
tp180
a(F4.3599999999933061
I20
tp181
aF40.0
tp182
sg101
((lp183
(F0.20999999999912689
I14
tp184
aF40.039999999993597
tp185
sg131
((lp186
(F1.8000000000029104
I10
tp187
aF40.160000000003492
tp188
ssba(imeasure_core
ProblemSetSolution
p189
(dp190
g3
(imeasure_core
RoomSet
p191
(dp192
S'rooms'
p193
(dp194
(iproblems
RoomID
p195
(dp196
S'width'
p197
I9
sS'dusts'
p198
I8
sS'seed'
p199
I7283207964119141687
sS'obstacles'
p200
(I2
I6
tp201
sS'robots'
p202
I4
sS'height'
p203
I11
sb(imulti_robot_problem
MultiRobotState
p204
(dp205
S'obstacle_locations'
p206
g20
((lp207
(I4
I7
tp208
a(I1
I3
tp209
a(I8
I9
tp210
a(I6
I2
tp211
a(I0
I10
tp212
a(I3
I7
tp213
a(I0
I3
tp214
a(I8
I5
tp215
a(I4
I0
tp216
a(I5
I5
tp217
a(I6
I10
tp218
a(I6
I3
tp219
a(I3
I6
tp220
a(I5
I3
tp221
a(I5
I4
tp222
ag201
a(I4
I5
tp223
a(I1
I4
tp224
a(I3
I5
tp225
a(I3
I4
tp226
a(I6
I1
tp227
a(I4
I3
tp228
a(I5
I2
tp229
a(I2
I4
tp230
atp231
Rp232
sg197
I9
sS'dirt_locations'
p233
g20
((lp234
(I7
I0
tp235
a(I6
I8
tp236
a(I7
I1
tp237
a(I5
I6
tp238
a(I1
I8
tp239
a(I0
I8
tp240
a(I4
I1
tp241
a(I5
I8
tp242
atp243
Rp244
sg202
((I1
I7
tp245
(I6
I6
tp246
(I4
I6
tp247
(I2
I1
tp248
tp249
sg203
I11
sbs(iproblems
RoomID
p250
(dp251
g197
I10
sg198
I8
sg199
I890727360438182992
sg200
(I3
I5
tp252
sg202
I3
sg203
I12
sb(imulti_robot_problem
MultiRobotState
p253
(dp254
g206
g20
((lp255
(I7
I8
tp256
a(I4
I7
tp257
a(I5
I7
tp258
a(I3
I0
tp259
a(I8
I9
tp260
a(I5
I8
tp261
a(I6
I7
tp262
a(I7
I10
tp263
a(I2
I2
tp264
a(I3
I2
tp265
a(I0
I0
tp266
a(I1
I4
tp267
a(I7
I5
tp268
a(I2
I3
tp269
a(I4
I11
tp270
ag252
a(I6
I8
tp271
a(I3
I4
tp272
a(I3
I1
tp273
a(I8
I8
tp274
a(I0
I9
tp275
a(I3
I9
tp276
a(I5
I2
tp277
atp278
Rp279
sg197
I10
sg233
g20
((lp280
(I9
I2
tp281
a(I6
I1
tp282
a(I8
I0
tp283
a(I2
I10
tp284
a(I0
I6
tp285
a(I0
I4
tp286
a(I9
I5
tp287
a(I1
I1
tp288
atp289
Rp290
sg202
((I2
I9
tp291
(I2
I6
tp292
(I8
I4
tp293
tp294
sg203
I12
sbs(iproblems
RoomID
p295
(dp296
g197
I10
sg198
I9
sg199
I7713914763314685786
sg200
(I1
I3
tp297
sg202
I4
sg203
I9
sb(imulti_robot_problem
MultiRobotState
p298
(dp299
g206
g20
((lp300
g297
a(I2
I1
tp301
a(I5
I1
tp302
a(I7
I2
tp303
a(I4
I0
tp304
a(I1
I2
tp305
a(I1
I5
tp306
a(I2
I2
tp307
a(I4
I1
tp308
a(I1
I1
tp309
a(I3
I2
tp310
a(I7
I1
tp311
a(I9
I3
tp312
a(I6
I0
tp313
a(I4
I2
tp314
a(I9
I6
tp315
a(I3
I5
tp316
a(I7
I0
tp317
a(I6
I1
tp318
a(I3
I1
tp319
a(I1
I8
tp320
a(I5
I2
tp321
atp322
Rp323
sg197
I10
sg233
g20
((lp324
(I7
I3
tp325
a(I5
I4
tp326
a(I7
I6
tp327
a(I7
I5
tp328
a(I0
I5
tp329
a(I8
I7
tp330
a(I8
I6
tp331
a(I8
I5
tp332
a(I9
I7
tp333
atp334
Rp335
sg202
((I3
I0
tp336
(I7
I7
tp337
(I2
I0
tp338
(I4
I6
tp339
tp340
sg203
I9
sbs(iproblems
RoomID
p341
(dp342
g197
I10
sg198
I5
sg199
I1736392818365009963
sg200
(I7
I6
tp343
sg202
I3
sg203
I9
sb(imulti_robot_problem
MultiRobotState
p344
(dp345
g206
g20
((lp346
(I7
I3
tp347
a(I9
I1
tp348
a(I4
I8
tp349
a(I7
I7
tp350
a(I6
I2
tp351
a(I8
I5
tp352
a(I7
I2
tp353
a(I1
I2
tp354
a(I3
I8
tp355
a(I9
I0
tp356
ag343
a(I2
I2
tp357
a(I9
I3
tp358
a(I7
I5
tp359
a(I0
I5
tp360
a(I0
I4
tp361
a(I6
I5
tp362
a(I0
I1
tp363
a(I9
I2
tp364
a(I7
I4
tp365
a(I4
I3
tp366
a(I5
I2
tp367
a(I8
I4
tp368
atp369
Rp370
sg197
I10
sg233
g20
((lp371
(I1
I8
tp372
a(I3
I1
tp373
a(I4
I1
tp374
a(I0
I2
tp375
a(I5
I5
tp376
atp377
Rp378
sg202
((I4
I2
tp379
(I1
I0
tp380
(I8
I2
tp381
tp382
sg203
I9
sbs(iproblems
RoomID
p383
(dp384
g197
I12
sg198
I7
sg199
I1585446675937841368
sg200
(I6
I3
tp385
sg202
I3
sg203
I12
sb(imulti_robot_problem
MultiRobotState
p386
(dp387
g206
g20
((lp388
(I5
I9
tp389
a(I7
I3
tp390
a(I2
I8
tp391
a(I3
I11
tp392
a(I6
I2
tp393
a(I5
I1
tp394
a(I1
I11
tp395
a(I8
I5
tp396
a(I7
I2
tp397
a(I7
I8
tp398
a(I6
I7
tp399
a(I2
I9
tp400
a(I7
I6
tp401
a(I6
I6
tp402
ag385
a(I7
I10
tp403
a(I8
I6
tp404
a(I4
I10
tp405
a(I8
I2
tp406
a(I7
I1
tp407
a(I9
I3
tp408
a(I7
I7
tp409
a(I4
I11
tp410
a(I2
I7
tp411
a(I6
I8
tp412
a(I3
I4
tp413
a(I5
I7
tp414
a(I2
I11
tp415
a(I4
I3
tp416
a(I5
I2
tp417
a(I8
I4
tp418
atp419
Rp420
sg197
I12
sg233
g20
((lp421
(I3
I2
tp422
a(I11
I5
tp423
a(I11
I8
tp424
a(I6
I10
tp425
a(I1
I9
tp426
a(I9
I4
tp427
a(I2
I5
tp428
atp429
Rp430
sg202
((I10
I10
tp431
(I5
I5
tp432
(I11
I10
tp433
tp434
sg203
I12
sbssS'name'
p435
S'mild_roomset'
p436
sbsg163
g164
sg165
(dp437
g195
((lp438
(F0.15000000000145519
I7
tp439
aF40.110000000000582
tp440
sg250
((lp441
F40.040000000000873
tp442
sg295
((lp443
(F0.52999999999883585
I15
tp444
aF40.209999999999127
tp445
sg341
((lp446
(F1.2999999999956344
I66
tp447
aF40.080000000001746
tp448
sg383
((lp449
(F0.26999999999679858
I20
tp450
aF40.029999999998836
tp451
ssba(imeasure_core
ProblemSetSolution
p452
(dp453
g3
(imeasure_core
RoomSet
p454
(dp455
S'rooms'
p456
(dp457
(iproblems
RoomID
p458
(dp459
S'width'
p460
I10
sS'dusts'
p461
I13
sS'seed'
p462
I7283207964119141687
sS'obstacles'
p463
(I8
I4
tp464
sS'robots'
p465
I7
sS'height'
p466
I12
sb(imulti_robot_problem
MultiRobotState
p467
(dp468
S'obstacle_locations'
p469
g20
((lp470
(I7
I4
tp471
a(I3
I4
tp472
a(I6
I10
tp473
a(I6
I0
tp474
a(I6
I3
tp475
a(I0
I11
tp476
a(I6
I2
tp477
a(I3
I6
tp478
a(I2
I2
tp479
a(I0
I4
tp480
a(I5
I2
tp481
a(I5
I8
tp482
ag464
atp483
Rp484
sg460
I10
sS'dirt_locations'
p485
g20
((lp486
(I7
I3
tp487
a(I6
I7
tp488
a(I6
I8
tp489
a(I7
I1
tp490
a(I8
I1
tp491
a(I4
I4
tp492
a(I6
I6
tp493
a(I5
I6
tp494
a(I1
I9
tp495
a(I5
I0
tp496
a(I9
I10
tp497
a(I9
I6
tp498
a(I7
I9
tp499
atp500
Rp501
sg465
((I1
I7
tp502
(I7
I6
tp503
(I4
I6
tp504
(I2
I1
tp505
(I6
I4
tp506
(I0
I9
tp507
(I8
I0
tp508
tp509
sg466
I12
sbs(iproblems
RoomID
p510
(dp511
g460
I11
sg461
I13
sg462
I890727360438182992
sg463
(I8
I3
tp512
sg465
I5
sg466
I13
sb(imulti_robot_problem
MultiRobotState
p513
(dp514
g469
g20
((lp515
(I4
I10
tp516
a(I6
I9
tp517
a(I9
I0
tp518
a(I8
I2
tp519
a(I5
I9
tp520
a(I9
I8
tp521
a(I6
I10
tp522
ag512
a(I8
I8
tp523
a(I4
I12
tp524
a(I0
I10
tp525
a(I8
I7
tp526
a(I6
I8
tp527
a(I8
I6
tp528
a(I7
I8
tp529
a(I0
I2
tp530
a(I9
I1
tp531
atp532
Rp533
sg460
I11
sg485
g20
((lp534
(I10
I5
tp535
a(I0
I0
tp536
a(I4
I6
tp537
a(I1
I5
tp538
a(I9
I2
tp539
a(I8
I11
tp540
a(I2
I1
tp541
a(I9
I10
tp542
a(I0
I6
tp543
a(I0
I4
tp544
a(I0
I9
tp545
a(I5
I2
tp546
a(I4
I11
tp547
atp548
Rp549
sg465
((I3
I10
tp550
(I2
I7
tp551
(I9
I4
tp552
(I2
I11
tp553
(I7
I1
tp554
tp555
sg466
I13
sbs(iproblems
RoomID
p556
(dp557
g460
I13
sg461
I12
sg462
I1585446675937841368
sg463
(I6
I9
tp558
sg465
I6
sg466
I13
sb(imulti_robot_problem
MultiRobotState
p559
(dp560
g469
g20
((lp561
(I7
I3
tp562
ag558
a(I7
I7
tp563
a(I4
I12
tp564
a(I10
I3
tp565
a(I7
I2
tp566
a(I2
I9
tp567
a(I8
I1
tp568
a(I7
I6
tp569
a(I6
I3
tp570
a(I5
I8
tp571
a(I7
I10
tp572
a(I9
I7
tp573
a(I8
I11
tp574
a(I7
I5
tp575
a(I1
I12
tp576
a(I9
I2
tp577
a(I7
I4
tp578
a(I3
I4
tp579
a(I2
I4
tp580
a(I9
I12
tp581
a(I8
I4
tp582
atp583
Rp584
sg460
I13
sg485
g20
((lp585
(I3
I3
tp586
a(I2
I8
tp587
a(I6
I10
tp588
a(I5
I2
tp589
a(I8
I10
tp590
a(I2
I10
tp591
a(I12
I5
tp592
a(I4
I3
tp593
a(I5
I1
tp594
a(I3
I5
tp595
a(I12
I9
tp596
a(I7
I9
tp597
atp598
Rp599
sg465
((I10
I11
tp600
(I5
I5
tp601
(I12
I11
tp602
(I1
I10
tp603
(I3
I12
tp604
(I10
I4
tp605
tp606
sg466
I13
sbs(iproblems
RoomID
p607
(dp608
g460
I12
sg461
I15
sg462
I3960482443532127989
sg463
(I6
I9
tp609
sg465
I7
sg466
I11
sb(imulti_robot_problem
MultiRobotState
p610
(dp611
g469
g20
((lp612
(I5
I9
tp613
ag609
a(I9
I1
tp614
a(I6
I4
tp615
a(I5
I6
tp616
a(I7
I7
tp617
a(I9
I4
tp618
a(I1
I2
tp619
a(I6
I7
tp620
a(I2
I9
tp621
a(I8
I1
tp622
a(I6
I3
tp623
a(I8
I6
tp624
a(I9
I7
tp625
a(I4
I10
tp626
a(I2
I10
tp627
a(I3
I9
tp628
a(I6
I5
tp629
a(I8
I3
tp630
a(I5
I10
tp631
a(I5
I7
tp632
a(I7
I4
tp633
a(I10
I7
tp634
a(I0
I9
tp635
a(I7
I8
tp636
a(I11
I6
tp637
atp638
Rp639
sg460
I12
sg485
g20
((lp640
(I7
I3
tp641
a(I2
I6
tp642
a(I5
I5
tp643
a(I3
I0
tp644
a(I3
I8
tp645
a(I0
I6
tp646
a(I11
I1
tp647
a(I1
I6
tp648
a(I4
I3
tp649
a(I1
I7
tp650
a(I1
I3
tp651
a(I1
I0
tp652
a(I10
I1
tp653
a(I1
I1
tp654
a(I10
I2
tp655
atp656
Rp657
sg465
((I11
I10
tp658
(I1
I8
tp659
(I10
I5
tp660
(I11
I0
tp661
(I4
I8
tp662
(I7
I9
tp663
(I7
I1
tp664
tp665
sg466
I11
sbs(iproblems
RoomID
p666
(dp667
g460
I11
sg461
I10
sg462
I1736392818365009963
sg463
(I10
I4
tp668
sg465
I5
sg466
I10
sb(imulti_robot_problem
MultiRobotState
p669
(dp670
g469
g20
((lp671
(I0
I1
tp672
a(I1
I2
tp673
a(I3
I2
tp674
ag668
a(I4
I5
tp675
a(I7
I4
tp676
a(I6
I2
tp677
a(I2
I3
tp678
a(I10
I1
tp679
a(I3
I8
tp680
a(I10
I0
tp681
a(I10
I3
tp682
a(I10
I2
tp683
atp684
Rp685
sg460
I11
sg485
g20
((lp686
(I5
I9
tp687
a(I5
I5
tp688
a(I3
I1
tp689
a(I8
I8
tp690
a(I3
I9
tp691
a(I0
I5
tp692
a(I5
I3
tp693
a(I4
I1
tp694
a(I6
I5
tp695
a(I8
I4
tp696
atp697
Rp698
sg465
((I4
I2
tp699
(I1
I0
tp700
(I9
I3
tp701
(I1
I9
tp702
(I0
I2
tp703
tp704
sg466
I10
sbssS'name'
p705
S'heavy_roomset'
p706
sbsg163
g164
sg165
(dp707
g458
((lp708
(F35.909999999996217
I10
tp709
aF44.379999999997381
tp710
sg510
((lp711
F40.180000000000291
tp712
sg556
((lp713
F40.290000000000873
tp714
sg607
((lp715
F40.25
tp716
sg666
((lp717
(F1.2299999999959255
I9
tp718
aF40.540000000000873
tp719
ssba(imeasure_core
ProblemSetSolution
p720
(dp721
g3
g4
sg163
S"AnytimeBeam-w20-gf(1.5, 'exp')_with_PowerHeuristic2"
p722
sg165
(dp723
g8
((lp724
(F1.8000000000029104
I28
tp725
aF40.160000000003492
tp726
sg47
((lp727
(F0.099999999998544808
I19
tp728
aF40.010000000002037
tp729
sg76
((lp730
(F0.059999999997671694
I30
tp731
a(F0.14999999999417923
I28
tp732
a(F0.79999999999563443
I27
tp733
a(F1.2199999999938882
I25
tp734
a(F1.5799999999944703
I23
tp735
a(F1.8799999999973807
I22
tp736
a(F3.1099999999933061
I21
tp737
a(F4.2099999999991269
I20
tp738
aF40.0
tp739
sg101
((lp740
(F0.2199999999938882
I14
tp741
aF40.099999999998545
tp742
sg131
((lp743
(F1.7999999999956344
I10
tp744
aF40.220000000001164
tp745
ssba(imeasure_core
ProblemSetSolution
p746
(dp747
g3
g191
sg163
g722
sg165
(dp748
g195
((lp749
(F0.14999999999417923
I7
tp750
aF40.07999999999447
tp751
sg250
((lp752
F40.180000000000291
tp753
sg295
((lp754
(F0.52999999999883585
I15
tp755
aF40.100000000005821
tp756
sg341
((lp757
(F1.3099999999976717
I66
tp758
aF40.019999999996799
tp759
sg383
((lp760
(F0.27999999999883585
I20
tp761
aF40.059999999997672
tp762
ssba(imeasure_core
ProblemSetSolution
p763
(dp764
g3
g454
sg163
g722
sg165
(dp765
g458
((lp766
(F35.650000000001455
I10
tp767
aF44.080000000001746
tp768
sg510
((lp769
F40.569999999999709
tp770
sg556
((lp771
F40.139999999999418
tp772
sg607
((lp773
F40.349999999998545
tp774
sg666
((lp775
(F1.2200000000011642
I9
tp776
aF40.360000000000582
tp777
ssba(imeasure_core
ProblemSetSolution
p778
(dp779
g3
g4
sg163
S"AnytimeBeam-w20-gf(1.7, 'exp')_with_PowerHeuristic2"
p780
sg165
(dp781
g8
((lp782
(F1.7799999999988358
I28
tp783
aF40.169999999998254
tp784
sg47
((lp785
(F0.08999999999650754
I19
tp786
aF40.010000000002037
tp787
sg76
((lp788
(F0.069999999999708962
I30
tp789
a(F0.1599999999962165
I28
tp790
a(F0.47999999999592546
I27
tp791
a(F0.88999999999941792
I25
tp792
a(F1.2399999999979627
I23
tp793
a(F1.5400000000008731
I22
tp794
a(F2.7599999999947613
I21
tp795
a(F3.8399999999965075
I20
tp796
aF40.0
tp797
sg101
((lp798
(F0.22000000000116415
I14
tp799
aF40.019999999996799
tp800
sg131
((lp801
(F1.8000000000029104
I10
tp802
aF40.120000000002619
tp803
ssba(imeasure_core
ProblemSetSolution
p804
(dp805
g3
g191
sg163
g780
sg165
(dp806
g195
((lp807
(F0.14000000000669388
I7
tp808
aF40.070000000006985
tp809
sg250
((lp810
F40.119999999995343
tp811
sg295
((lp812
(F0.54000000000087311
I15
tp813
aF40.410000000003492
tp814
sg341
((lp815
(F1.2999999999956344
I66
tp816
aF40.099999999998545
tp817
sg383
((lp818
(F0.27999999999883585
I20
tp819
aF40.080000000001746
tp820
ssba(imeasure_core
ProblemSetSolution
p821
(dp822
g3
g454
sg163
g780
sg165
(dp823
g458
((lp824
(F35.569999999999709
I10
tp825
aF44.049999999995634
tp826
sg510
((lp827
F40.5
tp828
sg556
((lp829
F40.220000000001164
tp830
sg607
((lp831
F40.30000000000291
tp832
sg666
((lp833
(F1.2299999999959255
I9
tp834
aF41.159999999996217
tp835
ssba(imeasure_core
ProblemSetSolution
p836
(dp837
g3
g4
sg163
S"AnytimeBeam-w20-gf(1.8999999999999999, 'exp')_with_PowerHeuristic2"
p838
sg165
(dp839
g8
((lp840
(F1.7700000000040745
I28
tp841
aF40.120000000002619
tp842
sg47
((lp843
(F0.099999999998544808
I19
tp844
aF40.0
tp845
sg76
((lp846
(F0.069999999999708962
I30
tp847
a(F0.1599999999962165
I28
tp848
a(F0.47999999999592546
I27
tp849
a(F0.90000000000145519
I25
tp850
a(F1.2600000000020373
I23
tp851
a(F1.5599999999976717
I22
tp852
a(F2.7900000000008731
I21
tp853
a(F3.8799999999973807
I20
tp854
aF40.0
tp855
sg101
((lp856
(F0.22000000000116415
I14
tp857
aF40.069999999999709
tp858
sg131
((lp859
(F1.8099999999976717
I10
tp860
aF40.099999999998545
tp861
ssba(imeasure_core
ProblemSetSolution
p862
(dp863
g3
g191
sg163
g838
sg165
(dp864
g195
((lp865
(F0.15000000000145519
I7
tp866
aF40.080000000001746
tp867
sg250
((lp868
F40.0
tp869
sg295
((lp870
(F0.53999999999359716
I15
tp871
aF40.269999999996799
tp872
sg341
((lp873
(F1.3099999999976717
I66
tp874
aF40.080000000001746
tp875
sg383
((lp876
(F0.27999999999883585
I20
tp877
aF40.019999999996799
tp878
ssba(imeasure_core
ProblemSetSolution
p879
(dp880
g3
g454
sg163
g838
sg165
(dp881
g458
((lp882
(F35.540000000000873
I10
tp883
aF43.940000000002328
tp884
sg510
((lp885
F40.469999999993888
tp886
sg556
((lp887
F40.190000000002328
tp888
sg607
((lp889
F40.340000000003783
tp890
sg666
((lp891
(F1.2199999999938882
I9
tp892
aF40.009999999994761
tp893
ssba(imeasure_core
ProblemSetSolution
p894
(dp895
g3
g4
sg163
S"AnytimeBeam-w20-gf(1.3, 'exp')_with_LinearHeuristic"
p896
sg165
(dp897
g8
((lp898
(F0.37000000000261934
I5
tp899
aF40.120000000002619
tp900
sg47
((lp901
(F0.18000000000029104
I22
tp902
aF40.009999999994761
tp903
sg76
((lp904
(F0.010000000002037268
I20
tp905
aF40.0
tp906
sg101
((lp907
(F2.8500000000058208
I67
tp908
aF40.069999999999709
tp909
sg131
((lp910
(F2.1400000000066939
I10
tp911
aF40.280000000006112
tp912
ssba(imeasure_core
ProblemSetSolution
p913
(dp914
g3
g191
sg163
g896
sg165
(dp915
g195
((lp916
(F13.069999999999709
I177
tp917
aF40.090000000003783
tp918
sg250
((lp919
F40.029999999998836
tp920
sg295
((lp921
F40.059999999997672
tp922
sg341
((lp923
(F0.31000000000494765
I23
tp924
a(F24.910000000003492
I21
tp925
a(F30.330000000001746
I20
tp926
a(F39.990000000005239
I19
tp927
aF40.0
tp928
sg383
((lp929
F40.069999999999709
tp930
ssba(imeasure_core
ProblemSetSolution
p931
(dp932
g3
g454
sg163
g896
sg165
(dp933
g458
((lp934
F42.740000000005239
tp935
sg510
((lp936
F40.180000000000291
tp937
sg556
((lp938
F40.180000000000291
tp939
sg607
((lp940
F44.359999999993306
tp941
sg666
((lp942
(F18.540000000000873
I95
tp943
aF40.870000000002619
tp944
ssba(imeasure_core
ProblemSetSolution
p945
(dp946
g3
g4
sg163
S"AnytimeBeam-w20-gf(1.5, 'exp')_with_LinearHeuristic"
p947
sg165
(dp948
g8
((lp949
(F0.36999999999534339
I5
tp950
aF40.0
tp951
sg47
((lp952
(F0.18000000000029104
I22
tp953
aF40.010000000002037
tp954
sg76
((lp955
(F0.0099999999947613105
I20
tp956
aF40.0
tp957
sg101
((lp958
(F2.819999999999709
I67
tp959
aF40.07999999999447
tp960
sg131
((lp961
(F2.1300000000046566
I10
tp962
aF40.17000000000553
tp963
ssba(imeasure_core
ProblemSetSolution
p964
(dp965
g3
g191
sg163
g947
sg165
(dp966
g195
((lp967
(F13.069999999999709
I177
tp968
aF40.07999999999447
tp969
sg250
((lp970
F40.05000000000291
tp971
sg295
((lp972
F40.339999999996508
tp973
sg341
((lp974
(F0.30000000000291038
I23
tp975
a(F13.180000000000291
I21
tp976
a(F18.580000000001746
I20
tp977
a(F28.540000000000873
I19
tp978
aF40.040000000000873
tp979
sg383
((lp980
F40.040000000000873
tp981
ssba(imeasure_core
ProblemSetSolution
p982
(dp983
g3
g454
sg163
g947
sg165
(dp984
g458
((lp985
F42.55000000000291
tp986
sg510
((lp987
F40.089999999996508
tp988
sg556
((lp989
F40.090000000003783
tp990
sg607
((lp991
F44.309999999997672
tp992
sg666
((lp993
(F18.44999999999709
I95
tp994
aF41.150000000001455
tp995
ssba(imeasure_core
ProblemSetSolution
p996
(dp997
g3
g4
sg163
S"AnytimeBeam-w20-gf(1.7, 'exp')_with_LinearHeuristic"
p998
sg165
(dp999
g8
((lp1000
(F0.38999999999941792
I5
tp1001
aF40.019999999996799
tp1002
sg47
((lp1003
(F0.16999999999825377
I22
tp1004
aF40.010000000002037
tp1005
sg76
((lp1006
(F0.010000000002037268
I20
tp1007
aF40.0
tp1008
sg101
((lp1009
(F2.8499999999985448
I67
tp1010
aF40.0
tp1011
sg131
((lp1012
(F2.1399999999994179
I10
tp1013
aF40.5
tp1014
ssba(imeasure_core
ProblemSetSolution
p1015
(dp1016
g3
g191
sg163
g998
sg165
(dp1017
g195
((lp1018
(F13.139999999999418
I177
tp1019
aF40.05000000000291
tp1020
sg250
((lp1021
F40.039999999993597
tp1022
sg295
((lp1023
F40.120000000002619
tp1024
sg341
((lp1025
(F0.30000000000291038
I23
tp1026
a(F22.80000000000291
I21
tp1027
a(F29.349999999998545
I20
tp1028
aF40.010000000002037
tp1029
sg383
((lp1030
F40.049999999995634
tp1031
ssba(imeasure_core
ProblemSetSolution
p1032
(dp1033
g3
g454
sg163
g998
sg165
(dp1034
g458
((lp1035
F43.090000000003783
tp1036
sg510
((lp1037
F40.169999999998254
tp1038
sg556
((lp1039
F40.239999999997963
tp1040
sg607
((lp1041
F40.120000000002619
tp1042
sg666
((lp1043
(F18.5
I95
tp1044
aF43.549999999995634
tp1045
ssba(imeasure_core
ProblemSetSolution
p1046
(dp1047
g3
g4
sg163
S"AnytimeBeam-w20-gf(1.8999999999999999, 'exp')_with_LinearHeuristic"
p1048
sg165
(dp1049
g8
((lp1050
(F0.38000000000465661
I5
tp1051
aF40.020000000004075
tp1052
sg47
((lp1053
(F0.18000000000029104
I22
tp1054
aF40.010000000002037
tp1055
sg76
((lp1056
(F0.0099999999947613105
I20
tp1057
aF40.0
tp1058
sg101
((lp1059
(F2.819999999999709
I67
tp1060
aF40.0
tp1061
sg131
((lp1062
(F2.1199999999953434
I10
tp1063
aF40.109999999993306
tp1064
ssba(imeasure_core
ProblemSetSolution
p1065
(dp1066
g3
g191
sg163
g1048
sg165
(dp1067
g195
((lp1068
(F13.080000000001746
I177
tp1069
aF40.110000000000582
tp1070
sg250
((lp1071
F40.040000000000873
tp1072
sg295
((lp1073
F40.010000000002037
tp1074
sg341
((lp1075
(F0.29999999999563443
I23
tp1076
a(F12.869999999995343
I21
tp1077
a(F19.139999999999418
I20
tp1078
a(F31.110000000000582
I19
tp1079
aF40.049999999995634
tp1080
sg383
((lp1081
F40.029999999998836
tp1082
ssba(imeasure_core
ProblemSetSolution
p1083
(dp1084
g3
g454
sg163
g1048
sg165
(dp1085
g458
((lp1086
F42.739999999997963
tp1087
sg510
((lp1088
F40.270000000004075
tp1089
sg556
((lp1090
F40.220000000001164
tp1091
sg607
((lp1092
F40.099999999998545
tp1093
sg666
((lp1094
(F18.540000000000873
I95
tp1095
aF43.94999999999709
tp1096
ssba.