(lp0
(imeasure_core
ProblemSetSolution
p1
(dp2
S'roomset'
p3
(imeasure_core
RoomSet
p4
(dp5
S'rooms'
p6
(dp7
(iproblems
RoomID
p8
(dp9
S'width'
p10
I10
sS'dusts'
p11
I6
sS'seed'
p12
I6832892905590973747
sS'obstacles'
p13
(I3
I2
tp14
sS'robots'
p15
I1
sS'height'
p16
I9
sb(imulti_robot_problem
MultiRobotState
p17
(dp18
S'obstacle_locations'
p19
c__builtin__
frozenset
p20
((lp21
(I3
I0
tp22
a(I2
I0
tp23
ag14
a(I3
I1
tp24
atp25
Rp26
sg10
I10
sS'dirt_locations'
p27
g20
((lp28
(I1
I2
tp29
a(I2
I7
tp30
a(I0
I0
tp31
a(I5
I6
tp32
a(I0
I5
tp33
a(I0
I2
tp34
atp35
Rp36
sg15
((I8
I4
tp37
tp38
sg16
I9
sbs(iproblems
RoomID
p39
(dp40
g10
I9
sg11
I7
sg12
I6924344268699531175
sg13
(I3
I5
tp41
sg15
I5
sg16
I7
sb(imulti_robot_problem
MultiRobotState
p42
(dp43
g19
g20
((lp44
(I2
I6
tp45
a(I1
I6
tp46
a(I3
I6
tp47
ag41
atp48
Rp49
sg10
I9
sg27
g20
((lp50
(I1
I2
tp51
a(I0
I0
tp52
a(I7
I1
tp53
a(I5
I0
tp54
a(I8
I6
tp55
a(I3
I4
tp56
a(I6
I5
tp57
atp58
Rp59
sg15
((I4
I0
tp60
(I7
I2
tp61
(I1
I1
tp62
(I6
I1
tp63
(I8
I4
tp64
tp65
sg16
I7
sbs(iproblems
RoomID
p66
(dp67
g10
I7
sg11
I5
sg12
I2524308075868763041
sg13
(I4
I7
tp68
sg15
I3
sg16
I9
sb(imulti_robot_problem
MultiRobotState
p69
(dp70
g19
g20
((lp71
(I1
I2
tp72
ag68
a(I4
I6
tp73
a(I3
I8
tp74
a(I4
I1
tp75
a(I2
I4
tp76
a(I3
I5
tp77
atp78
Rp79
sg10
I7
sg27
g20
((lp80
(I2
I6
tp81
a(I5
I2
tp82
a(I3
I3
tp83
a(I0
I7
tp84
a(I3
I6
tp85
atp86
Rp87
sg15
((I0
I6
tp88
(I3
I1
tp89
(I4
I8
tp90
tp91
sg16
I9
sbs(iproblems
RoomID
p92
(dp93
g10
I10
sg11
I8
sg12
I3562373307524659409
sg13
(I5
I0
tp94
sg15
I4
sg16
I10
sb(imulti_robot_problem
MultiRobotState
p95
(dp96
g19
g20
((lp97
(I7
I0
tp98
ag94
a(I8
I1
tp99
a(I6
I0
tp100
a(I6
I3
tp101
a(I3
I6
tp102
a(I6
I7
tp103
atp104
Rp105
sg10
I10
sg27
g20
((lp106
(I1
I3
tp107
a(I2
I9
tp108
a(I7
I6
tp109
a(I7
I7
tp110
a(I8
I9
tp111
a(I1
I8
tp112
a(I1
I6
tp113
a(I2
I2
tp114
atp115
Rp116
sg15
((I9
I8
tp117
(I6
I5
tp118
(I5
I1
tp119
(I8
I8
tp120
tp121
sg16
I10
sbs(iproblems
RoomID
p122
(dp123
g10
I7
sg11
I6
sg12
I807570059310326234
sg13
(I3
I1
tp124
sg15
I4
sg16
I8
sb(imulti_robot_problem
MultiRobotState
p125
(dp126
g19
g20
((lp127
(I6
I3
tp128
a(I4
I2
tp129
ag124
a(I5
I3
tp130
atp131
Rp132
sg10
I7
sg27
g20
((lp133
(I3
I2
tp134
a(I6
I7
tp135
a(I4
I6
tp136
a(I0
I4
tp137
a(I1
I0
tp138
a(I5
I2
tp139
atp140
Rp141
sg15
((I1
I2
tp142
(I0
I1
tp143
(I3
I7
tp144
(I2
I4
tp145
tp146
sg16
I8
sbssS'name'
p147
S'easy_roomset'
p148
sbsS'name'
p149
S"AnytimeBeam-w20-gf(2, 'lin')_with_PowerHeuristic2"
p150
sS'solutions'
p151
(dp152
g8
((lp153
(F0.1599999999962165
I50
tp154
a(F1.2699999999967986
I44
tp155
a(F15.889999999999418
I43
tp156
a(F16.809999999997672
I42
tp157
a(F17.729999999995925
I38
tp158
a(F38.650000000001455
I37
tp159
aF40.0
tp160
sg39
((lp161
(F2.0400000000008731
I7
tp162
aF40.44999999999709
tp163
sg66
((lp164
(F0.060000000004947651
I7
tp165
aF40.029999999998836
tp166
sg92
((lp167
(F0.49000000000523869
I10
tp168
aF40.120000000002619
tp169
sg122
((lp170
F40.239999999997963
tp171
ssba(imeasure_core
ProblemSetSolution
p172
(dp173
g3
(imeasure_core
RoomSet
p174
(dp175
S'rooms'
p176
(dp177
(iproblems
RoomID
p178
(dp179
S'width'
p180
I12
sS'dusts'
p181
I6
sS'seed'
p182
I6832892905590973747
sS'obstacles'
p183
(I6
I2
tp184
sS'robots'
p185
I3
sS'height'
p186
I11
sb(imulti_robot_problem
MultiRobotState
p187
(dp188
S'obstacle_locations'
p189
g20
((lp190
(I6
I4
tp191
a(I2
I6
tp192
a(I3
I6
tp193
a(I3
I0
tp194
a(I2
I8
tp195
a(I7
I6
tp196
a(I5
I2
tp197
a(I7
I7
tp198
a(I6
I3
tp199
a(I4
I5
tp200
a(I7
I5
tp201
a(I4
I3
tp202
a(I8
I6
tp203
ag184
a(I4
I2
tp204
a(I4
I0
tp205
a(I4
I1
tp206
a(I2
I4
tp207
a(I5
I3
tp208
atp209
Rp210
sg180
I12
sS'dirt_locations'
p211
g20
((lp212
(I6
I8
tp213
a(I2
I9
tp214
a(I1
I6
tp215
a(I0
I3
tp216
a(I0
I2
tp217
a(I7
I9
tp218
atp219
Rp220
sg185
((I10
I6
tp221
(I1
I2
tp222
(I0
I0
tp223
tp224
sg186
I11
sbs(iproblems
RoomID
p225
(dp226
g180
I11
sg181
I7
sg182
I6924344268699531175
sg183
(I3
I1
tp227
sg185
I4
sg186
I9
sb(imulti_robot_problem
MultiRobotState
p228
(dp229
g189
g20
((lp230
(I4
I7
tp231
a(I6
I6
tp232
a(I5
I6
tp233
a(I2
I8
tp234
a(I9
I8
tp235
a(I7
I7
tp236
a(I0
I7
tp237
a(I0
I3
tp238
a(I8
I5
tp239
a(I3
I8
tp240
a(I7
I6
tp241
a(I4
I8
tp242
a(I6
I3
tp243
a(I4
I1
tp244
a(I9
I7
tp245
a(I7
I5
tp246
a(I8
I7
tp247
a(I0
I8
tp248
ag227
a(I7
I4
tp249
a(I0
I6
tp250
a(I8
I8
tp251
a(I5
I2
tp252
atp253
Rp254
sg180
I11
sg211
g20
((lp255
(I10
I5
tp256
a(I1
I3
tp257
a(I4
I6
tp258
a(I8
I3
tp259
a(I0
I0
tp260
a(I4
I3
tp261
a(I0
I4
tp262
atp263
Rp264
sg185
((I6
I0
tp265
(I9
I3
tp266
(I1
I1
tp267
(I8
I1
tp268
tp269
sg186
I9
sbs(iproblems
RoomID
p270
(dp271
g180
I9
sg181
I6
sg182
I807570059310326234
sg183
(I2
I5
tp272
sg185
I4
sg186
I10
sb(imulti_robot_problem
MultiRobotState
p273
(dp274
g189
g20
((lp275
(I1
I2
tp276
a(I6
I4
tp277
a(I3
I2
tp278
a(I1
I3
tp279
a(I0
I2
tp280
a(I8
I2
tp281
a(I6
I3
tp282
a(I3
I4
tp283
a(I5
I2
tp284
a(I7
I4
tp285
a(I1
I1
tp286
a(I3
I8
tp287
a(I2
I0
tp288
a(I1
I8
tp289
a(I2
I3
tp290
a(I2
I2
tp291
ag272
a(I8
I4
tp292
a(I4
I1
tp293
a(I1
I0
tp294
a(I3
I3
tp295
atp296
Rp297
sg180
I9
sg211
g20
((lp298
(I7
I3
tp299
a(I2
I6
tp300
a(I1
I6
tp301
a(I4
I2
tp302
a(I5
I8
tp303
a(I7
I9
tp304
atp305
Rp306
sg185
((I6
I2
tp307
(I0
I1
tp308
(I3
I9
tp309
(I3
I5
tp310
tp311
sg186
I10
sbs(iproblems
RoomID
p312
(dp313
g180
I12
sg181
I8
sg182
I3562373307524659409
sg183
(I11
I7
tp314
sg185
I4
sg186
I12
sb(imulti_robot_problem
MultiRobotState
p315
(dp316
g189
g20
((lp317
(I6
I9
tp318
a(I9
I1
tp319
a(I6
I6
tp320
a(I5
I6
tp321
a(I9
I8
tp322
a(I3
I11
tp323
a(I8
I9
tp324
a(I7
I2
tp325
a(I10
I8
tp326
a(I8
I1
tp327
a(I3
I10
tp328
a(I5
I11
tp329
a(I6
I3
tp330
a(I4
I11
tp331
a(I7
I10
tp332
a(I6
I4
tp333
a(I3
I2
tp334
a(I7
I1
tp335
a(I6
I11
tp336
a(I3
I9
tp337
a(I4
I2
tp338
a(I6
I5
tp339
ag314
a(I8
I3
tp340
a(I11
I8
tp341
a(I4
I8
tp342
a(I11
I6
tp343
a(I10
I2
tp344
atp345
Rp346
sg180
I12
sg211
g20
((lp347
(I7
I3
tp348
a(I1
I3
tp349
a(I10
I11
tp350
a(I1
I7
tp351
a(I8
I8
tp352
a(I2
I2
tp353
a(I3
I7
tp354
a(I7
I9
tp355
atp356
Rp357
sg185
((I11
I10
tp358
(I7
I6
tp359
(I10
I10
tp360
(I2
I10
tp361
tp362
sg186
I12
sbs(iproblems
RoomID
p363
(dp364
g180
I10
sg181
I10
sg182
I7391799147228763464
sg183
(I6
I8
tp365
sg185
I3
sg186
I11
sb(imulti_robot_problem
MultiRobotState
p366
(dp367
g189
g20
((lp368
(I5
I9
tp369
a(I4
I7
tp370
a(I4
I8
tp371
a(I6
I9
tp372
a(I0
I7
tp373
a(I3
I7
tp374
a(I5
I8
tp375
a(I4
I9
tp376
a(I3
I3
tp377
a(I6
I3
tp378
a(I3
I6
tp379
a(I4
I5
tp380
a(I1
I4
tp381
a(I1
I9
tp382
ag365
a(I2
I7
tp383
a(I4
I6
tp384
a(I9
I2
tp385
a(I3
I8
tp386
a(I1
I7
tp387
a(I0
I9
tp388
a(I7
I8
tp389
a(I0
I2
tp390
atp391
Rp392
sg180
I10
sg211
g20
((lp393
(I8
I3
tp394
a(I5
I10
tp395
a(I5
I5
tp396
a(I2
I8
tp397
a(I7
I6
tp398
a(I6
I0
tp399
a(I2
I10
tp400
a(I9
I4
tp401
a(I1
I10
tp402
a(I0
I3
tp403
atp404
Rp405
sg185
((I3
I10
tp406
(I7
I1
tp407
(I1
I5
tp408
tp409
sg186
I11
sbssS'name'
p410
S'mild_roomset'
p411
sbsg149
g150
sg151
(dp412
g178
((lp413
(F0.13000000000465661
I10
tp414
aF40.020000000004075
tp415
sg225
((lp416
(F5.319999999999709
I79
tp417
aF40.0
tp418
sg270
((lp419
(F5.3399999999965075
I108
tp420
aF40.009999999994761
tp421
sg312
((lp422
(F3.0800000000017462
I75
tp423
aF40.040000000000873
tp424
sg363
((lp425
(F0.54000000000087311
I36
tp426
aF40.05000000000291
tp427
ssba(imeasure_core
ProblemSetSolution
p428
(dp429
g3
(imeasure_core
RoomSet
p430
(dp431
S'rooms'
p432
(dp433
(iproblems
RoomID
p434
(dp435
S'width'
p436
I13
sS'dusts'
p437
I11
sS'seed'
p438
I6832892905590973747
sS'obstacles'
p439
(I4
I2
tp440
sS'robots'
p441
I5
sS'height'
p442
I12
sb(imulti_robot_problem
MultiRobotState
p443
(dp444
S'obstacle_locations'
p445
g20
((lp446
(I5
I9
tp447
a(I6
I9
tp448
a(I8
I2
tp449
a(I3
I0
tp450
a(I4
I1
tp451
a(I12
I11
tp452
ag440
a(I3
I4
tp453
a(I4
I0
tp454
atp455
Rp456
sg436
I13
sS'dirt_locations'
p457
g20
((lp458
(I2
I7
tp459
a(I9
I0
tp460
a(I6
I8
tp461
a(I4
I5
tp462
a(I2
I8
tp463
a(I8
I10
tp464
a(I2
I10
tp465
a(I1
I7
tp466
a(I3
I7
tp467
a(I2
I5
tp468
a(I0
I8
tp469
atp470
Rp471
sg441
((I11
I6
tp472
(I1
I2
tp473
(I1
I0
tp474
(I0
I3
tp475
(I0
I2
tp476
tp477
sg442
I12
sbs(iproblems
RoomID
p478
(dp479
g436
I12
sg437
I12
sg438
I6924344268699531175
sg439
(I6
I7
tp480
sg441
I7
sg442
I10
sb(imulti_robot_problem
MultiRobotState
p481
(dp482
g445
g20
((lp483
(I4
I7
tp484
ag480
a(I2
I9
tp485
a(I4
I8
tp486
a(I4
I1
tp487
a(I5
I7
tp488
a(I0
I6
tp489
a(I3
I9
tp490
a(I0
I9
tp491
a(I4
I9
tp492
a(I9
I6
tp493
atp494
Rp495
sg436
I12
sg457
g20
((lp496
(I7
I3
tp497
a(I5
I4
tp498
a(I1
I3
tp499
a(I9
I1
tp500
a(I8
I3
tp501
a(I0
I7
tp502
a(I8
I8
tp503
a(I0
I4
tp504
a(I0
I0
tp505
a(I0
I8
tp506
a(I11
I6
tp507
a(I9
I7
tp508
atp509
Rp510
sg441
((I6
I0
tp511
(I10
I4
tp512
(I1
I1
tp513
(I8
I2
tp514
(I11
I5
tp515
(I5
I6
tp516
(I10
I9
tp517
tp518
sg442
I10
sbs(iproblems
RoomID
p519
(dp520
g436
I11
sg437
I15
sg438
I7391799147228763464
sg439
(I4
I8
tp521
sg441
I6
sg442
I12
sb(imulti_robot_problem
MultiRobotState
p522
(dp523
g445
g20
((lp524
(I6
I4
tp525
a(I4
I7
tp526
ag521
a(I5
I6
tp527
a(I2
I8
tp528
a(I5
I7
tp529
a(I6
I9
tp530
a(I9
I2
tp531
a(I1
I6
tp532
a(I10
I7
tp533
a(I8
I6
tp534
a(I4
I2
tp535
a(I2
I4
tp536
atp537
Rp538
sg436
I11
sg457
g20
((lp539
(I7
I0
tp540
a(I10
I4
tp541
a(I6
I11
tp542
a(I7
I6
tp543
a(I1
I4
tp544
a(I8
I9
tp545
a(I1
I8
tp546
a(I3
I9
tp547
a(I0
I10
tp548
a(I9
I4
tp549
a(I7
I10
tp550
a(I1
I10
tp551
a(I4
I3
tp552
a(I0
I3
tp553
a(I0
I2
tp554
atp555
Rp556
sg441
((I4
I6
tp557
(I3
I11
tp558
(I7
I1
tp559
(I2
I5
tp560
(I5
I9
tp561
(I2
I11
tp562
tp563
sg442
I12
sbs(iproblems
RoomID
p564
(dp565
g436
I13
sg437
I13
sg438
I3562373307524659409
sg439
(I7
I4
tp566
sg441
I6
sg442
I13
sb(imulti_robot_problem
MultiRobotState
p567
(dp568
g445
g20
((lp569
(I7
I3
tp570
a(I5
I4
tp571
a(I4
I9
tp572
a(I9
I1
tp573
a(I5
I9
tp574
a(I8
I1
tp575
a(I11
I2
tp576
a(I9
I3
tp577
a(I3
I11
tp578
a(I11
I7
tp579
ag566
a(I10
I1
tp580
a(I10
I5
tp581
a(I3
I10
tp582
a(I8
I2
tp583
atp584
Rp585
sg436
I13
sg457
g20
((lp586
(I8
I3
tp587
a(I3
I12
tp588
a(I4
I8
tp589
a(I6
I10
tp590
a(I9
I9
tp591
a(I12
I6
tp592
a(I8
I9
tp593
a(I1
I8
tp594
a(I4
I3
tp595
a(I2
I2
tp596
a(I4
I2
tp597
a(I11
I12
tp598
a(I2
I4
tp599
atp600
Rp601
sg441
((I12
I11
tp602
(I7
I6
tp603
(I7
I1
tp604
(I10
I11
tp605
(I2
I11
tp606
(I9
I8
tp607
tp608
sg442
I13
sbs(iproblems
RoomID
p609
(dp610
g436
I10
sg437
I11
sg438
I807570059310326234
sg439
(I5
I1
tp611
sg441
I7
sg442
I11
sb(imulti_robot_problem
MultiRobotState
p612
(dp613
g445
g20
((lp614
(I7
I3
tp615
a(I4
I6
tp616
a(I7
I4
tp617
a(I6
I2
tp618
a(I1
I9
tp619
a(I9
I4
tp620
ag611
a(I0
I3
tp621
a(I5
I2
tp622
a(I8
I4
tp623
atp624
Rp625
sg436
I10
sg457
g20
((lp626
(I5
I9
tp627
a(I6
I9
tp628
a(I2
I9
tp629
a(I4
I8
tp630
a(I9
I2
tp631
a(I2
I0
tp632
a(I1
I6
tp633
a(I4
I2
tp634
a(I9
I5
tp635
a(I1
I0
tp636
a(I3
I5
tp637
atp638
Rp639
sg441
((I1
I3
tp640
(I0
I2
tp641
(I4
I10
tp642
(I4
I5
tp643
(I8
I10
tp644
(I8
I3
tp645
(I2
I6
tp646
tp647
sg442
I11
sbssS'name'
p648
S'heavy_roomset'
p649
sbsg149
g150
sg151
(dp650
g434
((lp651
(F7.2699999999967986
I24
tp652
aF40.110000000000582
tp653
sg478
((lp654
F56.389999999999418
tp655
sg519
((lp656
(F36.180000000000291
I40
tp657
aF41.290000000000873
tp658
sg564
((lp659
(F21.44999999999709
I15
tp660
aF41.019999999996799
tp661
sg609
((lp662
F40.080000000001746
tp663
ssba(imeasure_core
ProblemSetSolution
p664
(dp665
g3
g4
sg149
S"AnytimeBeam-w20-gf(4, 'lin')_with_PowerHeuristic2"
p666
sg151
(dp667
g8
((lp668
(F0.1599999999962165
I50
tp669
a(F0.68000000000029104
I44
tp670
a(F7.9899999999979627
I43
tp671
a(F8.9000000000014552
I42
tp672
a(F9.8300000000017462
I38
tp673
a(F20.159999999996217
I37
tp674
a(F21.720000000001164
I35
tp675
a(F22.989999999997963
I33
tp676
a(F23.970000000001164
I31
tp677
a(F25.729999999995925
I29
tp678
a(F28.349999999998545
I27
tp679
a(F34.559999999997672
I25
tp680
a(F39.069999999999709
I24
tp681
aF40.0
tp682
sg39
((lp683
(F2.0400000000008731
I7
tp684
aF40.349999999998545
tp685
sg66
((lp686
(F0.059999999997671694
I7
tp687
aF40.0
tp688
sg92
((lp689
(F0.48999999999796273
I10
tp690
aF40.069999999999709
tp691
sg122
((lp692
F40.0
tp693
ssba(imeasure_core
ProblemSetSolution
p694
(dp695
g3
g174
sg149
g666
sg151
(dp696
g178
((lp697
(F0.12999999999738066
I10
tp698
aF40.019999999996799
tp699
sg225
((lp700
(F5.2900000000008731
I79
tp701
aF40.0
tp702
sg270
((lp703
(F5.3099999999976717
I108
tp704
aF40.069999999999709
tp705
sg312
((lp706
(F3.1100000000005821
I75
tp707
aF40.0
tp708
sg363
((lp709
(F0.54000000000087311
I36
tp710
aF40.0
tp711
ssba(imeasure_core
ProblemSetSolution
p712
(dp713
g3
g430
sg149
g666
sg151
(dp714
g434
((lp715
(F7.2600000000020373
I24
tp716
aF41.120000000002619
tp717
sg478
((lp718
F56.389999999999418
tp719
sg519
((lp720
(F36.260000000002037
I40
tp721
aF41.370000000002619
tp722
sg564
((lp723
(F21.409999999996217
I15
tp724
aF41.029999999998836
tp725
sg609
((lp726
F40.129999999997381
tp727
ssba(imeasure_core
ProblemSetSolution
p728
(dp729
g3
g4
sg149
S"AnytimeBeam-w20-gf(8, 'lin')_with_PowerHeuristic2"
p730
sg151
(dp731
g8
((lp732
(F0.15000000000145519
I50
tp733
a(F0.40000000000145519
I44
tp734
a(F4.1699999999982538
I43
tp735
a(F5.0999999999985448
I42
tp736
a(F6.0400000000008731
I38
tp737
a(F10.470000000001164
I37
tp738
a(F12.069999999999709
I35
tp739
a(F13.349999999998545
I33
tp740
a(F14.339999999996508
I31
tp741
a(F16.150000000001455
I29
tp742
a(F18.790000000000873
I27
tp743
a(F22.309999999997672
I25
tp744
a(F26.860000000000582
I22
tp745
a(F29.5
I20
tp746
aF40.0
tp747
sg39
((lp748
(F2.0599999999976717
I7
tp749
aF40.430000000000291
tp750
sg66
((lp751
(F0.059999999997671694
I7
tp752
aF40.019999999996799
tp753
sg92
((lp754
(F0.5
I10
tp755
aF40.040000000000873
tp756
sg122
((lp757
F40.0
tp758
ssba(imeasure_core
ProblemSetSolution
p759
(dp760
g3
g174
sg149
g730
sg151
(dp761
g178
((lp762
(F0.11999999999534339
I10
tp763
aF40.019999999996799
tp764
sg225
((lp765
(F5.2700000000040745
I79
tp766
aF40.010000000002037
tp767
sg270
((lp768
(F5.2900000000008731
I108
tp769
aF40.129999999997381
tp770
sg312
((lp771
(F3.0900000000037835
I75
tp772
aF40.040000000000873
tp773
sg363
((lp774
(F0.54000000000087311
I36
tp775
aF40.0
tp776
ssba(imeasure_core
ProblemSetSolution
p777
(dp778
g3
g430
sg149
g730
sg151
(dp779
g434
((lp780
(F7.25
I24
tp781
aF40.129999999997381
tp782
sg478
((lp783
F56.389999999999418
tp784
sg519
((lp785
(F36.200000000004366
I40
tp786
aF41.319999999999709
tp787
sg564
((lp788
(F21.5
I15
tp789
aF41.139999999999418
tp790
sg609
((lp791
F40.060000000004948
tp792
ssba(imeasure_core
ProblemSetSolution
p793
(dp794
g3
g4
sg149
S"AnytimeBeam-w20-gf(16, 'lin')_with_PowerHeuristic2"
p795
sg151
(dp796
g8
((lp797
(F0.14999999999417923
I50
tp798
a(F0.4099999999962165
I44
tp799
a(F2.1299999999973807
I43
tp800
a(F3.069999999999709
I42
tp801
a(F3.9699999999938882
I38
tp802
a(F5.5899999999965075
I37
tp803
a(F7.1699999999982538
I35
tp804
a(F8.4399999999950523
I33
tp805
a(F9.4199999999982538
I31
tp806
a(F11.219999999993888
I29
tp807
a(F13.819999999999709
I27
tp808
a(F17.309999999997672
I25
tp809
a(F21.819999999999709
I22
tp810
a(F24.44999999999709
I20
tp811
aF40.0
tp812
sg39
((lp813
(F2.0399999999935972
I7
tp814
aF40.339999999996508
tp815
sg66
((lp816
(F0.059999999997671694
I7
tp817
aF40.029999999998836
tp818
sg92
((lp819
(F0.48999999999796273
I10
tp820
aF40.090000000003783
tp821
sg122
((lp822
F40.089999999996508
tp823
ssba(imeasure_core
ProblemSetSolution
p824
(dp825
g3
g174
sg149
g795
sg151
(dp826
g178
((lp827
(F0.11999999999534339
I10
tp828
aF40.069999999999709
tp829
sg225
((lp830
(F5.2799999999988358
I79
tp831
aF40.069999999999709
tp832
sg270
((lp833
(F5.3399999999965075
I108
tp834
aF40.139999999999418
tp835
sg312
((lp836
(F3.0899999999965075
I75
tp837
aF40.05000000000291
tp838
sg363
((lp839
(F0.53999999999359716
I36
tp840
aF40.009999999994761
tp841
ssba(imeasure_core
ProblemSetSolution
p842
(dp843
g3
g430
sg149
g795
sg151
(dp844
g434
((lp845
(F7.2799999999988358
I24
tp846
aF40.020000000004075
tp847
sg478
((lp848
F56.44999999999709
tp849
sg519
((lp850
(F36.25
I40
tp851
aF41.389999999999418
tp852
sg564
((lp853
(F21.450000000004366
I15
tp854
aF41.690000000002328
tp855
sg609
((lp856
F40.05000000000291
tp857
ssba(imeasure_core
ProblemSetSolution
p858
(dp859
g3
g4
sg149
S"AnytimeBeam-w20-gf(2, 'lin')_with_LinearHeuristic"
p860
sg151
(dp861
g8
((lp862
(F0.019999999996798579
I20
tp863
aF40.0
tp864
sg39
((lp865
(F1.6399999999994179
I7
tp866
aF40.189999999995052
tp867
sg66
((lp868
(F0.97000000000116415
I47
tp869
aF40.020000000004075
tp870
sg92
((lp871
F40.349999999998545
tp872
sg122
((lp873
F40.220000000001164
tp874
ssba(imeasure_core
ProblemSetSolution
p875
(dp876
g3
g174
sg149
g860
sg151
(dp877
g178
((lp878
(F0.24000000000523869
I12
tp879
aF40.030000000006112
tp880
sg225
((lp881
F40.109999999993306
tp882
sg270
((lp883
F40.090000000003783
tp884
sg312
((lp885
(F0.98999999999796273
I31
tp886
aF40.0
tp887
sg363
((lp888
(F0.68000000000029104
I38
tp889
aF40.029999999998836
tp890
ssba(imeasure_core
ProblemSetSolution
p891
(dp892
g3
g430
sg149
g860
sg151
(dp893
g434
((lp894
F40.059999999997672
tp895
sg478
((lp896
F40.290000000000873
tp897
sg519
((lp898
F40.840000000003783
tp899
sg564
((lp900
F40.169999999998254
tp901
sg609
((lp902
F40.910000000003492
tp903
ssba(imeasure_core
ProblemSetSolution
p904
(dp905
g3
g4
sg149
S"AnytimeBeam-w20-gf(4, 'lin')_with_LinearHeuristic"
p906
sg151
(dp907
g8
((lp908
(F0.010000000002037268
I20
tp909
aF40.0
tp910
sg39
((lp911
(F1.6399999999994179
I7
tp912
aF40.430000000000291
tp913
sg66
((lp914
(F0.97000000000116415
I47
tp915
a(F26.349999999998545
I46
tp916
a(F31.099999999998545
I45
tp917
a(F35.75
I44
tp918
aF40.060000000004948
tp919
sg92
((lp920
F40.219999999993888
tp921
sg122
((lp922
F40.180000000000291
tp923
ssba(imeasure_core
ProblemSetSolution
p924
(dp925
g3
g174
sg149
g906
sg151
(dp926
g178
((lp927
(F0.24000000000523869
I12
tp928
aF40.040000000000873
tp929
sg225
((lp930
F40.25
tp931
sg270
((lp932
F40.25
tp933
sg312
((lp934
(F0.98000000000320142
I31
tp935
aF40.120000000002619
tp936
sg363
((lp937
(F0.66999999999825377
I38
tp938
aF40.069999999999709
tp939
ssba(imeasure_core
ProblemSetSolution
p940
(dp941
g3
g430
sg149
g906
sg151
(dp942
g434
((lp943
F40.139999999999418
tp944
sg478
((lp945
F40.279999999998836
tp946
sg519
((lp947
F40.760000000002037
tp948
sg564
((lp949
F40.209999999999127
tp950
sg609
((lp951
F40.900000000001455
tp952
ssba(imeasure_core
ProblemSetSolution
p953
(dp954
g3
g4
sg149
S"AnytimeBeam-w20-gf(8, 'lin')_with_LinearHeuristic"
p955
sg151
(dp956
g8
((lp957
(F0.019999999996798579
I20
tp958
aF40.0
tp959
sg39
((lp960
(F1.6399999999994179
I7
tp961
aF40.419999999998254
tp962
sg66
((lp963
(F0.98000000000320142
I47
tp964
a(F15.059999999997672
I46
tp965
a(F20.0
I45
tp966
a(F24.80000000000291
I44
tp967
a(F30.889999999999418
I43
tp968
a(F35.459999999999127
I42
tp969
aF40.05000000000291
tp970
sg92
((lp971
F40.290000000000873
tp972
sg122
((lp973
F40.099999999998545
tp974
ssba(imeasure_core
ProblemSetSolution
p975
(dp976
g3
g174
sg149
g955
sg151
(dp977
g178
((lp978
(F0.24000000000523869
I12
tp979
aF40.020000000004075
tp980
sg225
((lp981
F40.139999999999418
tp982
sg270
((lp983
F40.159999999996217
tp984
sg312
((lp985
(F0.98000000000320142
I31
tp986
aF40.0
tp987
sg363
((lp988
(F0.67000000000552973
I38
tp989
aF40.020000000004075
tp990
ssba(imeasure_core
ProblemSetSolution
p991
(dp992
g3
g430
sg149
g955
sg151
(dp993
g434
((lp994
F40.0
tp995
sg478
((lp996
F40.370000000002619
tp997
sg519
((lp998
F40.869999999995343
tp999
sg564
((lp1000
F40.180000000000291
tp1001
sg609
((lp1002
F40.940000000002328
tp1003
ssba(imeasure_core
ProblemSetSolution
p1004
(dp1005
g3
g4
sg149
S"AnytimeBeam-w20-gf(16, 'lin')_with_LinearHeuristic"
p1006
sg151
(dp1007
g8
((lp1008
(F0.010000000002037268
I20
tp1009
aF40.0
tp1010
sg39
((lp1011
(F1.6500000000014552
I7
tp1012
aF40.239999999997963
tp1013
sg66
((lp1014
(F0.97000000000116415
I47
tp1015
a(F9.4000000000014552
I46
tp1016
a(F14.489999999997963
I45
tp1017
a(F19.900000000001455
I44
tp1018
a(F26.720000000001164
I43
tp1019
a(F31.919999999998254
I42
tp1020
a(F37.340000000003783
I41
tp1021
aF40.029999999998836
tp1022
sg92
((lp1023
F40.190000000002328
tp1024
sg122
((lp1025
F40.089999999996508
tp1026
ssba(imeasure_core
ProblemSetSolution
p1027
(dp1028
g3
g174
sg149
g1006
sg151
(dp1029
g178
((lp1030
(F0.24000000000523869
I12
tp1031
aF40.010000000002037
tp1032
sg225
((lp1033
F40.220000000001164
tp1034
sg270
((lp1035
F40.150000000001455
tp1036
sg312
((lp1037
(F0.97999999999592546
I31
tp1038
a(F32.559999999997672
I30
tp1039
a(F38.790000000000873
I29
tp1040
aF40.059999999997672
tp1041
sg363
((lp1042
(F0.68000000000029104
I38
tp1043
aF40.040000000000873
tp1044
ssba(imeasure_core
ProblemSetSolution
p1045
(dp1046
g3
g430
sg149
g1006
sg151
(dp1047
g434
((lp1048
F40.319999999999709
tp1049
sg478
((lp1050
F40.25
tp1051
sg519
((lp1052
F40.809999999997672
tp1053
sg564
((lp1054
F40.239999999997963
tp1055
sg609
((lp1056
F40.959999999999127
tp1057
ssba.