(lp0
(imeasure_core
ProblemSetSolution
p1
(dp2
S'roomset'
p3
(imeasure_core
RoomSet
p4
(dp5
S'rooms'
p6
(dp7
(iproblems
RoomID
p8
(dp9
S'width'
p10
I9
sS'dusts'
p11
I7
sS'seed'
p12
I1486246605650367638
sS'obstacles'
p13
(I1
I3
tp14
sS'robots'
p15
I1
sS'height'
p16
I7
sb(imulti_robot_problem
MultiRobotState
p17
(dp18
S'obstacle_locations'
p19
c__builtin__
frozenset
p20
((lp21
(I0
I1
tp22
a(I8
I3
tp23
ag14
a(I0
I3
tp24
a(I0
I2
tp25
atp26
Rp27
sg10
I9
sS'dirt_locations'
p28
g20
((lp29
(I7
I0
tp30
a(I4
I4
tp31
a(I7
I5
tp32
a(I0
I4
tp33
a(I1
I0
tp34
a(I6
I5
tp35
a(I4
I0
tp36
atp37
Rp38
sg15
((I5
I1
tp39
tp40
sg16
I7
sbs(iproblems
RoomID
p41
(dp42
g10
I10
sg11
I9
sg12
I679259829289197625
sg13
(I7
I5
tp43
sg15
I4
sg16
I10
sb(imulti_robot_problem
MultiRobotState
p44
(dp45
g19
g20
((lp46
(I7
I0
tp47
a(I8
I6
tp48
a(I7
I6
tp49
ag43
a(I9
I6
tp50
atp51
Rp52
sg10
I10
sg28
g20
((lp53
(I5
I4
tp54
a(I2
I6
tp55
a(I7
I1
tp56
a(I6
I1
tp57
a(I0
I5
tp58
a(I8
I7
tp59
a(I9
I5
tp60
a(I0
I9
tp61
a(I1
I6
tp62
atp63
Rp64
sg15
((I7
I8
tp65
(I6
I7
tp66
(I3
I5
tp67
(I3
I9
tp68
tp69
sg16
I10
sbs(iproblems
RoomID
p70
(dp71
g10
I9
sg11
I6
sg12
I5891625650498269233
sg13
(I4
I4
tp72
sg15
I4
sg16
I9
sb(imulti_robot_problem
MultiRobotState
p73
(dp74
g19
g20
((lp75
(I2
I7
tp76
a(I4
I5
tp77
ag72
a(I3
I6
tp78
atp79
Rp80
sg10
I9
sg28
g20
((lp81
(I8
I3
tp82
a(I5
I5
tp83
a(I6
I6
tp84
a(I7
I4
tp85
a(I0
I5
tp86
a(I4
I0
tp87
atp88
Rp89
sg15
((I4
I6
tp90
(I7
I1
tp91
(I0
I4
tp92
(I7
I2
tp93
tp94
sg16
I9
sbs(iproblems
RoomID
p95
(dp96
g10
I9
sg11
I5
sg12
I2685440357799139976
sg13
(I3
I4
tp97
sg15
I1
sg16
I9
sb(imulti_robot_problem
MultiRobotState
p98
(dp99
g19
g20
((lp100
(I8
I3
tp101
a(I1
I3
tp102
a(I5
I6
tp103
a(I7
I8
tp104
a(I1
I1
tp105
a(I3
I8
tp106
a(I2
I3
tp107
ag97
a(I2
I4
tp108
atp109
Rp110
sg10
I9
sg28
g20
((lp111
(I0
I1
tp112
a(I0
I0
tp113
a(I3
I1
tp114
a(I5
I0
tp115
a(I8
I7
tp116
atp117
Rp118
sg15
((I5
I5
tp119
tp120
sg16
I9
sbs(iproblems
RoomID
p121
(dp122
g10
I10
sg11
I6
sg12
I403795515464475257
sg13
(I1
I6
tp123
sg15
I4
sg16
I8
sb(imulti_robot_problem
MultiRobotState
p124
(dp125
g19
g20
((lp126
(I8
I3
tp127
a(I1
I3
tp128
a(I6
I7
tp129
ag123
a(I0
I4
tp130
a(I0
I5
tp131
a(I4
I1
tp132
atp133
Rp134
sg10
I10
sg28
g20
((lp135
(I7
I3
tp136
a(I4
I7
tp137
a(I8
I0
tp138
a(I0
I7
tp139
a(I2
I2
tp140
a(I0
I2
tp141
atp142
Rp143
sg15
((I8
I2
tp144
(I6
I1
tp145
(I5
I0
tp146
(I2
I0
tp147
tp148
sg16
I8
sbssS'name'
p149
S'easy_roomset'
p150
sbsS'name'
p151
S'LimitedTimeAStar_with_PowerHeuristic2'
p152
sS'solutions'
p153
(dp154
g8
((lp155
(F0.07999999999992724
I44
tp156
aF0.07999999999992724
tp157
sg41
((lp158
(F0.75
I13
tp159
aF0.75
tp160
sg70
((lp161
(F0.42000000000007276
I8
tp162
aF0.43000000000029104
tp163
sg95
((lp164
(F0.099999999999454303
I29
tp165
aF0.099999999999454303
tp166
sg121
((lp167
(F47.170000000000073
I14
tp168
aF47.449999999999818
tp169
ssba(imeasure_core
ProblemSetSolution
p170
(dp171
g3
(imeasure_core
RoomSet
p172
(dp173
S'rooms'
p174
(dp175
(iproblems
RoomID
p176
(dp177
S'width'
p178
I12
sS'dusts'
p179
I9
sS'seed'
p180
I679259829289197625
sS'obstacles'
p181
(I7
I7
tp182
sS'robots'
p183
I4
sS'height'
p184
I12
sb(imulti_robot_problem
MultiRobotState
p185
(dp186
S'obstacle_locations'
p187
g20
((lp188
(I6
I9
tp189
a(I6
I6
tp190
a(I5
I6
tp191
a(I9
I8
tp192
ag182
a(I8
I5
tp193
a(I10
I8
tp194
a(I6
I7
tp195
a(I10
I7
tp196
a(I7
I6
tp197
a(I8
I10
tp198
a(I7
I10
tp199
a(I8
I6
tp200
a(I9
I7
tp201
a(I6
I4
tp202
a(I11
I9
tp203
a(I1
I4
tp204
a(I7
I5
tp205
a(I8
I7
tp206
a(I4
I2
tp207
a(I9
I6
tp208
a(I6
I5
tp209
a(I11
I7
tp210
a(I10
I5
tp211
a(I6
I8
tp212
a(I11
I8
tp213
a(I6
I1
tp214
a(I7
I4
tp215
atp216
Rp217
sg178
I12
sS'dirt_locations'
p218
g20
((lp219
(I2
I7
tp220
a(I9
I0
tp221
a(I8
I2
tp222
a(I7
I1
tp223
a(I11
I0
tp224
a(I0
I11
tp225
a(I1
I6
tp226
a(I1
I7
tp227
a(I11
I6
tp228
atp229
Rp230
sg183
((I9
I10
tp231
(I8
I9
tp232
(I3
I7
tp233
(I3
I11
tp234
tp235
sg184
I12
sbs(iproblems
RoomID
p236
(dp237
g178
I11
sg179
I5
sg180
I2685440357799139976
sg181
(I9
I1
tp238
sg183
I3
sg184
I11
sb(imulti_robot_problem
MultiRobotState
p239
(dp240
g187
g20
((lp241
(I7
I3
tp242
ag238
a(I5
I6
tp243
a(I10
I6
tp244
a(I9
I4
tp245
a(I7
I10
tp246
a(I10
I3
tp247
a(I7
I2
tp248
a(I5
I5
tp249
a(I10
I7
tp250
a(I8
I5
tp251
a(I3
I6
tp252
a(I3
I5
tp253
a(I10
I9
tp254
a(I10
I4
tp255
a(I7
I1
tp256
a(I4
I5
tp257
a(I9
I3
tp258
a(I1
I4
tp259
a(I3
I9
tp260
a(I9
I6
tp261
a(I6
I5
tp262
a(I5
I3
tp263
a(I8
I3
tp264
a(I6
I8
tp265
a(I9
I2
tp266
a(I7
I8
tp267
a(I9
I9
tp268
a(I9
I5
tp269
a(I3
I4
tp270
a(I2
I4
tp271
atp272
Rp273
sg178
I11
sg218
g20
((lp274
(I1
I2
tp275
a(I9
I10
tp276
a(I6
I1
tp277
a(I4
I1
tp278
a(I0
I2
tp279
atp280
Rp281
sg183
((I6
I6
tp282
(I0
I0
tp283
(I10
I8
tp284
tp285
sg184
I11
sbs(iproblems
RoomID
p286
(dp287
g178
I10
sg179
I10
sg180
I1737871632067391849
sg181
(I1
I5
tp288
sg183
I4
sg184
I12
sb(imulti_robot_problem
MultiRobotState
p289
(dp290
g187
g20
((lp291
(I6
I6
tp292
a(I5
I6
tp293
a(I2
I8
tp294
a(I8
I9
tp295
a(I6
I2
tp296
a(I5
I1
tp297
a(I8
I5
tp298
a(I5
I8
tp299
a(I5
I5
tp300
a(I7
I6
tp301
a(I8
I10
tp302
ag288
a(I2
I2
tp303
a(I4
I1
tp304
a(I3
I2
tp305
a(I0
I0
tp306
a(I2
I10
tp307
a(I2
I3
tp308
a(I8
I7
tp309
a(I6
I5
tp310
a(I8
I3
tp311
a(I7
I8
tp312
a(I2
I4
tp313
atp314
Rp315
sg178
I10
sg218
g20
((lp316
(I0
I1
tp317
a(I4
I10
tp318
a(I4
I8
tp319
a(I3
I0
tp320
a(I3
I4
tp321
a(I3
I10
tp322
a(I5
I11
tp323
a(I2
I7
tp324
a(I1
I9
tp325
a(I9
I6
tp326
atp327
Rp328
sg183
((I4
I9
tp329
(I8
I11
tp330
(I4
I0
tp331
(I3
I9
tp332
tp333
sg184
I12
sbs(iproblems
RoomID
p334
(dp335
g178
I9
sg179
I7
sg180
I7834319822419845881
sg181
(I8
I8
tp336
sg183
I3
sg184
I9
sb(imulti_robot_problem
MultiRobotState
p337
(dp338
g187
g20
((lp339
(I4
I7
tp340
a(I1
I3
tp341
a(I6
I6
tp342
a(I5
I6
tp343
a(I2
I8
tp344
a(I3
I7
tp345
a(I0
I3
tp346
a(I8
I5
tp347
a(I5
I8
tp348
a(I6
I7
tp349
a(I5
I5
tp350
a(I4
I4
tp351
a(I1
I5
tp352
a(I5
I0
tp353
a(I3
I5
tp354
a(I2
I6
tp355
a(I3
I6
tp356
a(I4
I5
tp357
a(I0
I5
tp358
a(I0
I8
tp359
a(I3
I3
tp360
a(I2
I7
tp361
a(I5
I3
tp362
a(I4
I6
tp363
a(I3
I4
tp364
a(I1
I8
tp365
ag336
a(I1
I7
tp366
a(I7
I8
tp367
atp368
Rp369
sg178
I9
sg218
g20
((lp370
(I7
I0
tp371
a(I7
I1
tp372
a(I1
I4
tp373
a(I7
I4
tp374
a(I2
I0
tp375
a(I6
I2
tp376
a(I8
I7
tp377
atp378
Rp379
sg183
((I2
I1
tp380
(I2
I3
tp381
(I5
I7
tp382
tp383
sg184
I9
sbs(iproblems
RoomID
p384
(dp385
g178
I11
sg179
I6
sg180
I5891625650498269233
sg181
(I3
I9
tp386
sg183
I4
sg184
I11
sb(imulti_robot_problem
MultiRobotState
p387
(dp388
g187
g20
((lp389
(I7
I3
tp390
a(I4
I7
tp391
a(I6
I6
tp392
a(I5
I6
tp393
a(I2
I8
tp394
a(I6
I2
tp395
a(I5
I1
tp396
a(I3
I7
tp397
a(I8
I5
tp398
a(I5
I5
tp399
a(I2
I9
tp400
a(I7
I6
tp401
a(I4
I4
tp402
a(I2
I2
tp403
a(I1
I1
tp404
a(I9
I7
tp405
a(I3
I2
tp406
a(I10
I4
tp407
a(I4
I5
tp408
a(I9
I3
tp409
a(I8
I3
tp410
a(I2
I10
tp411
a(I7
I5
tp412
a(I2
I3
tp413
a(I10
I5
tp414
a(I4
I6
tp415
a(I3
I4
tp416
a(I6
I1
tp417
a(I3
I8
tp418
a(I1
I8
tp419
ag386
a(I4
I3
tp420
a(I9
I5
tp421
a(I5
I2
tp422
a(I8
I4
tp423
atp424
Rp425
sg178
I11
sg218
g20
((lp426
(I5
I10
tp427
a(I9
I1
tp428
a(I10
I7
tp429
a(I8
I8
tp430
a(I1
I6
tp431
a(I7
I9
tp432
atp433
Rp434
sg183
((I5
I7
tp435
(I8
I1
tp436
(I0
I5
tp437
(I4
I0
tp438
tp439
sg184
I11
sbssS'name'
p440
S'mild_roomset'
p441
sbsg151
g152
sg153
(dp442
g176
((lp443
F302.59000000000015
tp444
sg236
((lp445
(F0.23000000000047294
I15
tp446
aF0.23000000000047294
tp447
sg286
((lp448
(F0.35999999999967258
I12
tp449
aF0.35999999999967258
tp450
sg334
((lp451
(F0.07999999999992724
I24
tp452
aF0.07999999999992724
tp453
sg384
((lp454
(F15.260000000000218
I17
tp455
aF15.420000000000073
tp456
ssba(imeasure_core
ProblemSetSolution
p457
(dp458
g3
(imeasure_core
RoomSet
p459
(dp460
S'rooms'
p461
(dp462
(iproblems
RoomID
p463
(dp464
S'width'
p465
I12
sS'dusts'
p466
I12
sS'seed'
p467
I1486246605650367638
sS'obstacles'
p468
(I6
I3
tp469
sS'robots'
p470
I5
sS'height'
p471
I10
sb(imulti_robot_problem
MultiRobotState
p472
(dp473
S'obstacle_locations'
p474
g20
((lp475
(I2
I7
tp476
a(I5
I9
tp477
a(I1
I3
tp478
a(I3
I1
tp479
a(I7
I1
tp480
a(I5
I2
tp481
a(I1
I2
tp482
a(I1
I4
tp483
ag469
a(I1
I5
tp484
a(I6
I2
tp485
a(I1
I6
tp486
a(I2
I1
tp487
a(I10
I0
tp488
a(I2
I0
tp489
a(I0
I3
tp490
a(I4
I1
tp491
a(I1
I1
tp492
a(I6
I5
tp493
a(I8
I4
tp494
atp495
Rp496
sg465
I12
sS'dirt_locations'
p497
g20
((lp498
(I11
I7
tp499
a(I11
I4
tp500
a(I9
I1
tp501
a(I11
I8
tp502
a(I2
I8
tp503
a(I6
I0
tp504
a(I0
I6
tp505
a(I11
I1
tp506
a(I0
I4
tp507
a(I4
I9
tp508
a(I10
I9
tp509
a(I9
I7
tp510
atp511
Rp512
sg470
((I2
I4
tp513
(I10
I1
tp514
(I2
I5
tp515
(I9
I8
tp516
(I6
I6
tp517
tp518
sg471
I10
sbs(iproblems
RoomID
p519
(dp520
g465
I13
sg466
I14
sg467
I679259829289197625
sg468
(I7
I6
tp521
sg470
I7
sg471
I13
sb(imulti_robot_problem
MultiRobotState
p522
(dp523
g474
g20
((lp524
(I1
I2
tp525
a(I6
I4
tp526
a(I4
I3
tp527
a(I4
I8
tp528
a(I10
I7
tp529
a(I3
I4
tp530
a(I12
I7
tp531
a(I10
I6
tp532
a(I11
I7
tp533
a(I6
I3
tp534
a(I7
I5
tp535
a(I12
I11
tp536
a(I6
I2
tp537
a(I9
I6
tp538
ag521
a(I12
I8
tp539
atp540
Rp541
sg465
I13
sg497
g20
((lp542
(I2
I7
tp543
a(I12
I1
tp544
a(I9
I2
tp545
a(I2
I8
tp546
a(I5
I7
tp547
a(I1
I4
tp548
a(I0
I12
tp549
a(I7
I4
tp550
a(I11
I4
tp551
a(I11
I6
tp552
a(I4
I2
tp553
a(I10
I0
tp554
a(I10
I9
tp555
a(I1
I9
tp556
atp557
Rp558
sg470
((I9
I11
tp559
(I9
I10
tp560
(I4
I7
tp561
(I4
I12
tp562
(I7
I1
tp563
(I1
I8
tp564
(I1
I6
tp565
tp566
sg471
I13
sbs(iproblems
RoomID
p567
(dp568
g465
I12
sg466
I11
sg467
I5891625650498269233
sg468
(I11
I9
tp569
sg470
I7
sg471
I12
sb(imulti_robot_problem
MultiRobotState
p570
(dp571
g474
g20
((lp572
g569
a(I6
I7
tp573
a(I4
I8
tp574
a(I5
I6
tp575
a(I6
I11
tp576
a(I8
I11
tp577
a(I4
I4
tp578
a(I2
I11
tp579
a(I7
I7
tp580
a(I7
I1
tp581
a(I9
I10
tp582
a(I10
I7
tp583
a(I3
I9
tp584
a(I1
I9
tp585
a(I7
I10
tp586
a(I5
I7
tp587
a(I9
I11
tp588
a(I7
I6
tp589
a(I10
I9
tp590
atp591
Rp592
sg465
I12
sg497
g20
((lp593
(I11
I7
tp594
a(I11
I4
tp595
a(I4
I6
tp596
a(I5
I11
tp597
a(I8
I10
tp598
a(I0
I5
tp599
a(I8
I7
tp600
a(I1
I7
tp601
a(I10
I1
tp602
a(I1
I1
tp603
a(I5
I5
tp604
atp605
Rp606
sg470
((I6
I8
tp607
(I9
I2
tp608
(I0
I6
tp609
(I10
I3
tp610
(I9
I5
tp611
(I5
I0
tp612
(I9
I8
tp613
tp614
sg471
I12
sbs(iproblems
RoomID
p615
(dp616
g465
I12
sg466
I10
sg467
I2685440357799139976
sg468
(I6
I9
tp617
sg470
I5
sg471
I12
sb(imulti_robot_problem
MultiRobotState
p618
(dp619
g474
g20
((lp620
g617
a(I9
I1
tp621
a(I3
I0
tp622
a(I0
I7
tp623
a(I0
I3
tp624
a(I4
I0
tp625
a(I1
I2
tp626
a(I11
I10
tp627
a(I6
I10
tp628
a(I5
I6
tp629
a(I9
I11
tp630
a(I7
I9
tp631
a(I4
I10
tp632
a(I5
I11
tp633
a(I4
I5
tp634
a(I1
I4
tp635
a(I3
I9
tp636
a(I0
I5
tp637
a(I1
I9
tp638
a(I3
I5
tp639
a(I3
I4
tp640
a(I2
I4
tp641
atp642
Rp643
sg465
I12
sg497
g20
((lp644
(I11
I7
tp645
a(I8
I3
tp646
a(I10
I11
tp647
a(I7
I1
tp648
a(I10
I5
tp649
a(I8
I10
tp650
a(I6
I3
tp651
a(I3
I6
tp652
a(I9
I10
tp653
a(I6
I5
tp654
atp655
Rp656
sg470
((I7
I7
tp657
(I0
I0
tp658
(I11
I9
tp659
(I0
I2
tp660
(I4
I1
tp661
tp662
sg471
I12
sbs(iproblems
RoomID
p663
(dp664
g465
I13
sg466
I11
sg467
I403795515464475257
sg468
(I2
I7
tp665
sg470
I6
sg471
I11
sb(imulti_robot_problem
MultiRobotState
p666
(dp667
g474
g20
((lp668
g665
a(I10
I8
tp669
a(I3
I10
tp670
a(I4
I4
tp671
a(I2
I2
tp672
a(I1
I4
tp673
a(I12
I5
tp674
a(I0
I6
tp675
a(I0
I5
tp676
a(I3
I6
tp677
a(I1
I7
tp678
a(I0
I8
tp679
a(I7
I9
tp680
atp681
Rp682
sg465
I13
sg497
g20
((lp683
(I6
I4
tp684
a(I0
I0
tp685
a(I2
I9
tp686
a(I11
I5
tp687
a(I8
I9
tp688
a(I11
I1
tp689
a(I2
I3
tp690
a(I1
I10
tp691
a(I12
I2
tp692
a(I0
I3
tp693
a(I5
I2
tp694
atp695
Rp696
sg470
((I10
I3
tp697
(I7
I2
tp698
(I7
I0
tp699
(I3
I1
tp700
(I5
I10
tp701
(I9
I4
tp702
tp703
sg471
I11
sbssS'name'
p704
S'heavy_roomset'
p705
sbsg151
g152
sg153
(dp706
g463
((lp707
(F277.51000000000022
I25
tp708
aF278.86999999999989
tp709
sg519
((lp710
F304.64000000000033
tp711
sg567
((lp712
(F61.1899999999996
I6
tp713
aF61.759999999999309
tp714
sg615
((lp715
(F51.770000000000437
I21
tp716
aF52.140000000000327
tp717
sg663
((lp718
(F26.069999999999709
I19
tp719
aF26.319999999999709
tp720
ssba.