(lp0
(imeasure_core
ProblemSetSolution
p1
(dp2
S'roomset'
p3
(imeasure_core
RoomSet
p4
(dp5
S'rooms'
p6
(dp7
(iproblems
RoomID
p8
(dp9
S'width'
p10
I10
sS'dusts'
p11
I6
sS'seed'
p12
I2405875930906139466
sS'obstacles'
p13
(I5
I1
tp14
sS'robots'
p15
I4
sS'height'
p16
I9
sb(imulti_robot_problem
MultiRobotState
p17
(dp18
S'obstacle_locations'
p19
c__builtin__
frozenset
p20
((lp21
(I7
I0
tp22
a(I7
I1
tp23
a(I6
I1
tp24
a(I6
I0
tp25
ag14
a(I7
I2
tp26
atp27
Rp28
sg10
I10
sS'dirt_locations'
p29
g20
((lp30
(I7
I3
tp31
a(I6
I4
tp32
a(I5
I6
tp33
a(I0
I7
tp34
a(I2
I1
tp35
a(I5
I2
tp36
atp37
Rp38
sg15
((I7
I6
tp39
(I3
I3
tp40
(I8
I6
tp41
(I0
I2
tp42
tp43
sg16
I9
sbs(iproblems
RoomID
p44
(dp45
g10
I7
sg11
I6
sg12
I8744744311366254845
sg13
(I6
I7
tp46
sg15
I4
sg16
I10
sb(imulti_robot_problem
MultiRobotState
p47
(dp48
g19
g20
((lp49
g46
a(I4
I6
tp50
a(I5
I7
tp51
a(I0
I6
tp52
a(I1
I9
tp53
a(I3
I7
tp54
atp55
Rp56
sg10
I7
sg29
g20
((lp57
(I2
I7
tp58
a(I0
I1
tp59
a(I5
I4
tp60
a(I6
I0
tp61
a(I5
I8
tp62
a(I5
I3
tp63
atp64
Rp65
sg15
((I0
I8
tp66
(I4
I2
tp67
(I3
I0
tp68
(I1
I4
tp69
tp70
sg16
I10
sbs(iproblems
RoomID
p71
(dp72
g10
I7
sg11
I8
sg12
I7325839828077136048
sg13
(I5
I3
tp73
sg15
I3
sg16
I7
sb(imulti_robot_problem
MultiRobotState
p74
(dp75
g19
g20
((lp76
(I6
I4
tp77
a(I5
I4
tp78
a(I5
I5
tp79
a(I6
I6
tp80
a(I3
I1
tp81
a(I6
I0
tp82
a(I2
I0
tp83
a(I0
I4
tp84
ag73
atp85
Rp86
sg10
I7
sg29
g20
((lp87
(I1
I5
tp88
a(I3
I0
tp89
a(I1
I1
tp90
a(I0
I6
tp91
a(I4
I3
tp92
a(I2
I2
tp93
a(I2
I4
tp94
a(I3
I5
tp95
atp96
Rp97
sg15
((I1
I0
tp98
(I3
I3
tp99
(I6
I2
tp100
tp101
sg16
I7
sbs(iproblems
RoomID
p102
(dp103
g10
I7
sg11
I6
sg12
I3537054308274871603
sg13
(I4
I6
tp104
sg15
I1
sg16
I8
sb(imulti_robot_problem
MultiRobotState
p105
(dp106
g19
g20
((lp107
(I4
I7
tp108
ag104
a(I4
I5
tp109
a(I6
I0
tp110
a(I2
I5
tp111
a(I2
I4
tp112
a(I3
I5
tp113
atp114
Rp115
sg10
I7
sg29
g20
((lp116
(I5
I6
tp117
a(I0
I6
tp118
a(I6
I2
tp119
a(I4
I1
tp120
a(I1
I1
tp121
a(I5
I3
tp122
atp123
Rp124
sg15
((I0
I3
tp125
tp126
sg16
I8
sbs(iproblems
RoomID
p127
(dp128
g10
I8
sg11
I10
sg12
I8655808914197340073
sg13
(I4
I7
tp129
sg15
I5
sg16
I10
sb(imulti_robot_problem
MultiRobotState
p130
(dp131
g19
g20
((lp132
(I2
I7
tp133
ag129
a(I4
I8
tp134
a(I6
I3
tp135
a(I7
I5
tp136
a(I3
I7
tp137
a(I1
I0
tp138
a(I5
I3
tp139
atp140
Rp141
sg10
I8
sg29
g20
((lp142
(I7
I3
tp143
a(I5
I4
tp144
a(I7
I0
tp145
a(I5
I7
tp146
a(I1
I5
tp147
a(I1
I9
tp148
a(I3
I6
tp149
a(I1
I7
tp150
a(I3
I4
tp151
a(I5
I8
tp152
atp153
Rp154
sg15
((I3
I8
tp155
(I7
I9
tp156
(I6
I1
tp157
(I2
I3
tp158
(I5
I5
tp159
tp160
sg16
I10
sbssS'name'
p161
S'easy_roomset'
p162
sbsS'name'
p163
S"AnytimeBeam-w5-gf(1.3, 'exp')_with_PowerHeuristic2"
p164
sS'solutions'
p165
(dp166
g8
((lp167
(F0.34000000000014552
I10
tp168
aF40.069999999999709
tp169
sg44
((lp170
(F0.24000000000160071
I14
tp171
aF40.159999999999854
tp172
sg71
((lp173
(F4.6700000000018917
I144
tp174
aF40.010000000002037
tp175
sg102
((lp176
(F0.059999999997671694
I55
tp177
a(F0.20999999999912689
I49
tp178
a(F1.0
I47
tp179
a(F1.2099999999991269
I45
tp180
a(F1.4799999999995634
I43
tp181
a(F2.569999999999709
I41
tp182
a(F3.0
I40
tp183
a(F4.0
I39
tp184
a(F4.8899999999994179
I38
tp185
a(F6.1599999999998545
I37
tp186
a(F7.319999999999709
I35
tp187
a(F8.9599999999991269
I33
tp188
a(F11.269999999996799
I31
tp189
a(F13.209999999999127
I29
tp190
a(F14.739999999997963
I27
tp191
a(F16.719999999997526
I25
tp192
a(F21.029999999998836
I24
tp193
a(F24.869999999998981
I22
tp194
a(F28.119999999998981
I20
tp195
aF40.0
tp196
sg127
((lp197
(F1.2899999999972351
I9
tp198
aF40.229999999999563
tp199
ssba(imeasure_core
ProblemSetSolution
p200
(dp201
g3
(imeasure_core
RoomSet
p202
(dp203
S'rooms'
p204
(dp205
(iproblems
RoomID
p206
(dp207
S'width'
p208
I12
sS'dusts'
p209
I6
sS'seed'
p210
I2405875930906139466
sS'obstacles'
p211
(I1
I8
tp212
sS'robots'
p213
I4
sS'height'
p214
I11
sb(imulti_robot_problem
MultiRobotState
p215
(dp216
S'obstacle_locations'
p217
g20
((lp218
(I6
I6
tp219
a(I2
I8
tp220
a(I8
I0
tp221
a(I6
I2
tp222
a(I3
I7
tp223
a(I5
I5
tp224
a(I2
I9
tp225
a(I11
I5
tp226
a(I8
I1
tp227
a(I6
I3
tp228
a(I3
I6
tp229
a(I5
I3
tp230
a(I6
I4
tp231
a(I8
I2
tp232
a(I9
I10
tp233
a(I7
I5
tp234
a(I2
I3
tp235
a(I6
I5
tp236
a(I3
I3
tp237
a(I7
I0
tp238
a(I4
I6
tp239
a(I6
I1
tp240
a(I3
I1
tp241
a(I2
I0
tp242
ag212
a(I4
I3
tp243
a(I3
I4
tp244
atp245
Rp246
sg208
I12
sS'dirt_locations'
p247
g20
((lp248
(I7
I1
tp249
a(I9
I3
tp250
a(I7
I7
tp251
a(I2
I1
tp252
a(I9
I4
tp253
a(I0
I9
tp254
atp255
Rp256
sg213
((I9
I7
tp257
(I4
I4
tp258
(I10
I8
tp259
(I0
I2
tp260
tp261
sg214
I11
sbs(iproblems
RoomID
p262
(dp263
g208
I10
sg209
I10
sg210
I8655808914197340073
sg211
(I0
I5
tp264
sg213
I4
sg214
I12
sb(imulti_robot_problem
MultiRobotState
p265
(dp266
g217
g20
((lp267
(I5
I9
tp268
a(I4
I4
tp269
a(I6
I6
tp270
a(I8
I0
tp271
a(I0
I7
tp272
a(I1
I11
tp273
a(I5
I8
tp274
a(I6
I7
tp275
a(I5
I5
tp276
a(I4
I8
tp277
a(I6
I3
tp278
a(I5
I4
tp279
a(I1
I4
tp280
a(I7
I5
tp281
a(I2
I3
tp282
a(I9
I6
tp283
a(I6
I5
tp284
a(I4
I6
tp285
a(I6
I8
tp286
a(I7
I8
tp287
a(I5
I7
tp288
a(I3
I8
tp289
a(I2
I0
tp290
ag264
a(I3
I4
tp291
atp292
Rp293
sg208
I10
sg247
g20
((lp294
(I8
I3
tp295
a(I9
I0
tp296
a(I2
I9
tp297
a(I2
I11
tp298
a(I6
I9
tp299
a(I7
I7
tp300
a(I1
I7
tp301
a(I8
I6
tp302
a(I3
I5
tp303
a(I8
I4
tp304
atp305
Rp306
sg213
((I4
I9
tp307
(I8
I11
tp308
(I7
I1
tp309
(I3
I3
tp310
tp311
sg214
I12
sbs(iproblems
RoomID
p312
(dp313
g208
I11
sg209
I10
sg210
I4278205817407065157
sg211
(I3
I6
tp314
sg213
I4
sg214
I12
sb(imulti_robot_problem
MultiRobotState
p315
(dp316
g217
g20
((lp317
(I0
I1
tp318
a(I2
I7
tp319
a(I4
I7
tp320
a(I4
I6
tp321
a(I6
I7
tp322
a(I3
I3
tp323
a(I5
I6
tp324
a(I2
I8
tp325
a(I1
I10
tp326
a(I4
I4
tp327
a(I3
I8
tp328
a(I10
I7
tp329
a(I1
I9
tp330
a(I0
I10
tp331
ag314
a(I7
I11
tp332
a(I4
I5
tp333
a(I3
I7
tp334
a(I3
I5
tp335
a(I5
I3
tp336
atp337
Rp338
sg208
I11
sg247
g20
((lp339
(I1
I2
tp340
a(I8
I1
tp341
a(I6
I1
tp342
a(I5
I7
tp343
a(I3
I0
tp344
a(I8
I9
tp345
a(I9
I2
tp346
a(I9
I4
tp347
a(I0
I2
tp348
a(I4
I0
tp349
atp350
Rp351
sg213
((I6
I10
tp352
(I5
I11
tp353
(I2
I0
tp354
(I9
I1
tp355
tp356
sg214
I12
sbs(iproblems
RoomID
p357
(dp358
g208
I12
sg209
I10
sg210
I2796939073032698495
sg211
(I11
I0
tp359
sg213
I4
sg214
I9
sb(imulti_robot_problem
MultiRobotState
p360
(dp361
g217
g20
((lp362
(I7
I3
tp363
a(I3
I1
tp364
a(I9
I1
tp365
a(I6
I6
tp366
a(I8
I0
tp367
a(I7
I7
tp368
a(I7
I2
tp369
a(I3
I3
tp370
a(I8
I1
tp371
a(I4
I8
tp372
a(I6
I3
tp373
a(I5
I8
tp374
a(I3
I6
tp375
a(I6
I4
tp376
a(I5
I4
tp377
a(I2
I6
tp378
a(I7
I1
tp379
a(I4
I5
tp380
ag359
a(I2
I3
tp381
a(I10
I1
tp382
a(I1
I0
tp383
a(I6
I5
tp384
a(I5
I3
tp385
a(I8
I3
tp386
a(I7
I0
tp387
a(I6
I8
tp388
a(I9
I2
tp389
a(I6
I1
tp390
a(I5
I7
tp391
a(I8
I8
tp392
a(I4
I3
tp393
a(I5
I2
tp394
a(I10
I2
tp395
atp396
Rp397
sg208
I12
sg247
g20
((lp398
(I1
I2
tp399
a(I11
I7
tp400
a(I3
I2
tp401
a(I2
I8
tp402
a(I9
I3
tp403
a(I1
I6
tp404
a(I5
I0
tp405
a(I0
I3
tp406
a(I0
I8
tp407
a(I4
I1
tp408
atp409
Rp410
sg213
((I10
I8
tp411
(I4
I6
tp412
(I11
I4
tp413
(I7
I8
tp414
tp415
sg214
I9
sbs(iproblems
RoomID
p416
(dp417
g208
I12
sg209
I6
sg210
I7193062864237573168
sg211
(I3
I3
tp418
sg213
I4
sg214
I12
sb(imulti_robot_problem
MultiRobotState
p419
(dp420
g217
g20
((lp421
(I1
I3
tp422
a(I6
I6
tp423
a(I0
I7
tp424
a(I1
I6
tp425
a(I2
I5
tp426
a(I10
I3
tp427
a(I3
I1
tp428
ag418
a(I9
I7
tp429
a(I6
I4
tp430
a(I5
I4
tp431
a(I7
I1
tp432
a(I9
I3
tp433
a(I2
I3
tp434
a(I0
I8
tp435
a(I8
I3
tp436
a(I5
I7
tp437
a(I11
I3
tp438
a(I7
I4
tp439
a(I0
I9
tp440
a(I3
I4
tp441
a(I2
I4
tp442
a(I8
I4
tp443
atp444
Rp445
sg208
I12
sg247
g20
((lp446
(I2
I6
tp447
a(I6
I8
tp448
a(I0
I6
tp449
a(I4
I4
tp450
a(I7
I7
tp451
a(I2
I0
tp452
atp453
Rp454
sg213
((I11
I9
tp455
(I11
I2
tp456
(I4
I11
tp457
(I3
I6
tp458
tp459
sg214
I12
sbssS'name'
p460
S'mild_roomset'
p461
sbsg163
g164
sg165
(dp462
g206
((lp463
(F4.7200000000011642
I55
tp464
a(F22.5
I32
tp465
aF40.029999999998836
tp466
sg262
((lp467
(F12.510000000002037
I171
tp468
aF40.020000000000437
tp469
sg312
((lp470
(F1.180000000000291
I28
tp471
aF40.130000000001019
tp472
sg357
((lp473
F40.040000000000873
tp474
sg416
((lp475
(F0.52000000000043656
I25
tp476
aF40.0
tp477
ssba(imeasure_core
ProblemSetSolution
p478
(dp479
g3
(imeasure_core
RoomSet
p480
(dp481
S'rooms'
p482
(dp483
(iproblems
RoomID
p484
(dp485
S'width'
p486
I13
sS'dusts'
p487
I11
sS'seed'
p488
I2405875930906139466
sS'obstacles'
p489
(I10
I1
tp490
sS'robots'
p491
I7
sS'height'
p492
I12
sb(imulti_robot_problem
MultiRobotState
p493
(dp494
S'obstacle_locations'
p495
g20
((lp496
(I7
I3
tp497
a(I9
I0
tp498
a(I8
I4
tp499
a(I9
I1
tp500
a(I7
I1
tp501
a(I5
I6
tp502
a(I8
I11
tp503
a(I8
I0
tp504
a(I1
I4
tp505
a(I11
I7
tp506
a(I7
I4
tp507
a(I1
I5
tp508
a(I6
I2
tp509
a(I0
I7
tp510
ag490
a(I11
I6
tp511
a(I11
I5
tp512
a(I10
I2
tp513
a(I10
I3
tp514
a(I7
I2
tp515
a(I10
I4
tp516
atp517
Rp518
sg486
I13
sS'dirt_locations'
p519
g20
((lp520
(I6
I3
tp521
a(I10
I11
tp522
a(I8
I1
tp523
a(I3
I4
tp524
a(I10
I0
tp525
a(I12
I5
tp526
a(I2
I0
tp527
a(I2
I3
tp528
a(I5
I1
tp529
a(I8
I6
tp530
a(I7
I8
tp531
atp532
Rp533
sg491
((I10
I8
tp534
(I9
I2
tp535
(I4
I5
tp536
(I11
I8
tp537
(I1
I2
tp538
(I3
I1
tp539
(I0
I10
tp540
tp541
sg492
I12
sbs(iproblems
RoomID
p542
(dp543
g486
I10
sg487
I11
sg488
I8744744311366254845
sg489
(I7
I9
tp544
sg491
I6
sg492
I13
sb(imulti_robot_problem
MultiRobotState
p545
(dp546
g495
g20
((lp547
(I6
I9
tp548
a(I1
I3
tp549
a(I4
I9
tp550
a(I5
I6
tp551
a(I9
I8
tp552
a(I1
I8
tp553
a(I1
I0
tp554
a(I9
I7
tp555
a(I3
I4
tp556
a(I5
I8
tp557
ag544
atp558
Rp559
sg486
I10
sg519
g20
((lp560
(I0
I1
tp561
a(I7
I3
tp562
a(I9
I0
tp563
a(I1
I12
tp564
a(I5
I11
tp565
a(I4
I10
tp566
a(I9
I10
tp567
a(I3
I7
tp568
a(I7
I11
tp569
a(I0
I8
tp570
a(I9
I6
tp571
atp572
Rp573
sg491
((I0
I10
tp574
(I6
I3
tp575
(I4
I0
tp576
(I1
I6
tp577
(I7
I5
tp578
(I9
I9
tp579
tp580
sg492
I13
sbs(iproblems
RoomID
p581
(dp582
g486
I13
sg487
I15
sg488
I2796939073032698495
sg489
(I3
I6
tp583
sg491
I7
sg492
I10
sb(imulti_robot_problem
MultiRobotState
p584
(dp585
g495
g20
((lp586
(I5
I9
tp587
a(I6
I9
tp588
a(I5
I7
tp589
a(I6
I6
tp590
a(I6
I2
tp591
a(I5
I1
tp592
a(I12
I9
tp593
a(I5
I8
tp594
a(I6
I7
tp595
a(I5
I5
tp596
a(I4
I8
tp597
a(I5
I0
tp598
a(I6
I4
tp599
a(I5
I4
tp600
ag583
a(I4
I5
tp601
a(I3
I9
tp602
a(I0
I5
tp603
a(I8
I7
tp604
a(I4
I9
tp605
a(I6
I5
tp606
a(I5
I3
tp607
a(I2
I7
tp608
a(I4
I6
tp609
a(I3
I1
tp610
a(I2
I0
tp611
a(I7
I8
tp612
atp613
Rp614
sg486
I13
sg519
g20
((lp615
(I1
I2
tp616
a(I8
I2
tp617
a(I2
I9
tp618
a(I12
I0
tp619
a(I3
I4
tp620
a(I6
I0
tp621
a(I9
I9
tp622
a(I2
I3
tp623
a(I9
I4
tp624
a(I1
I7
tp625
a(I0
I9
tp626
a(I3
I3
tp627
a(I7
I9
tp628
a(I4
I1
tp629
a(I12
I8
tp630
atp631
Rp632
sg491
((I10
I2
tp633
(I11
I8
tp634
(I12
I5
tp635
(I8
I9
tp636
(I10
I3
tp637
(I0
I3
tp638
(I11
I2
tp639
tp640
sg492
I10
sbs(iproblems
RoomID
p641
(dp642
g486
I11
sg487
I15
sg488
I8655808914197340073
sg489
(I5
I8
tp643
sg491
I7
sg492
I13
sb(imulti_robot_problem
MultiRobotState
p644
(dp645
g495
g20
((lp646
(I5
I9
tp647
a(I6
I7
tp648
a(I6
I11
tp649
a(I1
I4
tp650
a(I0
I12
tp651
a(I0
I11
tp652
a(I7
I5
tp653
a(I1
I6
tp654
a(I0
I4
tp655
a(I5
I10
tp656
a(I3
I9
tp657
a(I4
I9
tp658
a(I10
I3
tp659
ag643
atp660
Rp661
sg486
I11
sg519
g20
((lp662
(I2
I7
tp663
a(I7
I3
tp664
a(I9
I7
tp665
a(I4
I6
tp666
a(I1
I12
tp667
a(I5
I6
tp668
a(I9
I6
tp669
a(I7
I7
tp670
a(I2
I0
tp671
a(I9
I4
tp672
a(I7
I10
tp673
a(I0
I8
tp674
a(I8
I5
tp675
a(I6
I5
tp676
a(I7
I9
tp677
atp678
Rp679
sg491
((I9
I11
tp680
(I8
I1
tp681
(I3
I4
tp682
(I8
I7
tp683
(I9
I1
tp684
(I2
I10
tp685
(I2
I12
tp686
tp687
sg492
I13
sbs(iproblems
RoomID
p688
(dp689
g486
I12
sg487
I15
sg488
I4278205817407065157
sg489
(I4
I8
tp690
sg491
I6
sg492
I13
sb(imulti_robot_problem
MultiRobotState
p691
(dp692
g495
g20
((lp693
(I11
I7
tp694
a(I2
I9
tp695
ag690
a(I5
I6
tp696
a(I2
I8
tp697
a(I6
I10
tp698
a(I3
I8
tp699
a(I11
I8
tp700
a(I3
I9
tp701
a(I1
I10
tp702
a(I1
I11
tp703
a(I7
I8
tp704
a(I2
I4
tp705
atp706
Rp707
sg486
I12
sg519
g20
((lp708
(I1
I2
tp709
a(I0
I1
tp710
a(I5
I4
tp711
a(I3
I1
tp712
a(I10
I4
tp713
a(I7
I1
tp714
a(I5
I7
tp715
a(I10
I5
tp716
a(I4
I7
tp717
a(I9
I9
tp718
a(I0
I10
tp719
a(I4
I3
tp720
a(I8
I12
tp721
a(I4
I1
tp722
a(I0
I2
tp723
atp724
Rp725
sg491
((I7
I10
tp726
(I6
I12
tp727
(I2
I0
tp728
(I9
I1
tp729
(I10
I3
tp730
(I4
I0
tp731
tp732
sg492
I13
sbssS'name'
p733
S'heavy_roomset'
p734
sbsg163
g164
sg165
(dp735
g484
((lp736
F41.059999999997672
tp737
sg542
((lp738
(F10.690000000002328
I13
tp739
aF41.090000000000146
tp740
sg581
((lp741
F40.400000000001455
tp742
sg641
((lp743
F42.099999999998545
tp744
sg688
((lp745
(F18.30000000000291
I15
tp746
aF41.680000000000291
tp747
ssba(imeasure_core
ProblemSetSolution
p748
(dp749
g3
g4
sg163
S"AnytimeBeam-w15-gf(1.3, 'exp')_with_PowerHeuristic2"
p750
sg165
(dp751
g8
((lp752
(F0.44000000000232831
I10
tp753
aF40.010000000002037
tp754
sg44
((lp755
(F0.2999999999992724
I14
tp756
aF40.090000000000146
tp757
sg71
((lp758
(F4.4599999999991269
I144
tp759
aF40.020000000000437
tp760
sg102
((lp761
(F0.079999999998108251
I49
tp762
a(F0.64999999999781721
I47
tp763
a(F0.84999999999854481
I45
tp764
a(F1.1099999999969441
I43
tp765
a(F1.9199999999982538
I41
tp766
a(F2.3400000000001455
I40
tp767
a(F3.3400000000001455
I39
tp768
a(F4.2199999999975262
I38
tp769
a(F5.4599999999991269
I37
tp770
a(F6.6099999999969441
I35
tp771
a(F8.2399999999979627
I33
tp772
a(F10.539999999997235
I31
tp773
a(F12.479999999999563
I29
tp774
a(F14.019999999996799
I27
tp775
a(F15.989999999997963
I25
tp776
a(F20.279999999998836
I24
tp777
a(F24.119999999998981
I22
tp778
a(F27.379999999997381
I20
tp779
aF40.0
tp780
sg127
((lp781
(F1.4699999999975262
I9
tp782
aF40.019999999996799
tp783
ssba(imeasure_core
ProblemSetSolution
p784
(dp785
g3
g202
sg163
g750
sg165
(dp786
g206
((lp787
(F3.6199999999989814
I60
tp788
a(F7.7000000000007276
I55
tp789
a(F19.489999999997963
I32
tp790
aF40.020000000000437
tp791
sg262
((lp792
(F10.610000000000582
I171
tp793
aF40.059999999997672
tp794
sg312
((lp795
(F1.3300000000017462
I28
tp796
aF40.010000000002037
tp797
sg357
((lp798
F40.009999999998399
tp799
sg416
((lp800
(F0.81999999999970896
I25
tp801
aF40.100000000002183
tp802
ssba(imeasure_core
ProblemSetSolution
p803
(dp804
g3
g480
sg163
g750
sg165
(dp805
g484
((lp806
F40.889999999999418
tp807
sg542
((lp808
(F12.259999999998399
I13
tp809
aF40.290000000000873
tp810
sg581
((lp811
F40.340000000000146
tp812
sg641
((lp813
F42.099999999998545
tp814
sg688
((lp815
(F20.68999999999869
I15
tp816
aF40.459999999999127
tp817
ssba(imeasure_core
ProblemSetSolution
p818
(dp819
g3
g4
sg163
S"AnytimeBeam-w25-gf(1.3, 'exp')_with_PowerHeuristic2"
p820
sg165
(dp821
g8
((lp822
(F0.49000000000160071
I10
tp823
aF40.319999999999709
tp824
sg44
((lp825
(F0.35000000000218279
I14
tp826
aF40.260000000002037
tp827
sg71
((lp828
(F5.1699999999982538
I144
tp829
aF40.129999999997381
tp830
sg102
((lp831
(F0.11000000000058208
I49
tp832
a(F0.31000000000130967
I47
tp833
a(F0.51000000000203727
I45
tp834
a(F0.78000000000247383
I43
tp835
a(F1.5600000000013097
I41
tp836
a(F1.9800000000032014
I40
tp837
a(F2.9700000000011642
I39
tp838
a(F3.8500000000021828
I38
tp839
a(F5.0900000000001455
I37
tp840
a(F6.2400000000016007
I35
tp841
a(F7.8600000000005821
I33
tp842
a(F10.160000000003492
I31
tp843
a(F12.100000000002183
I29
tp844
a(F13.640000000003056
I27
tp845
a(F15.600000000002183
I25
tp846
a(F19.880000000001019
I24
tp847
a(F23.710000000002765
I22
tp848
a(F26.960000000002765
I20
tp849
aF40.0
tp850
sg127
((lp851
(F1.5200000000004366
I9
tp852
aF40.040000000000873
tp853
ssba(imeasure_core
ProblemSetSolution
p854
(dp855
g3
g202
sg163
g820
sg165
(dp856
g206
((lp857
(F3.9699999999975262
I55
tp858
a(F15.43999999999869
I32
tp859
aF40.009999999998399
tp860
sg262
((lp861
(F12.270000000000437
I171
tp862
aF40.06000000000131
tp863
sg312
((lp864
(F1.4399999999986903
I28
tp865
aF40.149999999997817
tp866
sg357
((lp867
F40.010000000002037
tp868
sg416
((lp869
(F0.97999999999956344
I25
tp870
aF40.009999999998399
tp871
ssba(imeasure_core
ProblemSetSolution
p872
(dp873
g3
g480
sg163
g820
sg165
(dp874
g484
((lp875
F40.830000000001746
tp876
sg542
((lp877
(F12.379999999997381
I13
tp878
aF40.469999999997526
tp879
sg581
((lp880
F40.510000000002037
tp881
sg641
((lp882
F42.130000000001019
tp883
sg688
((lp884
(F20.829999999998108
I15
tp885
aF40.609999999996944
tp886
ssba(imeasure_core
ProblemSetSolution
p887
(dp888
g3
g4
sg163
S"AnytimeBeam-w35-gf(1.3, 'exp')_with_PowerHeuristic2"
p889
sg165
(dp890
g8
((lp891
(F0.56000000000130967
I10
tp892
aF40.360000000000582
tp893
sg44
((lp894
(F0.42000000000189175
I14
tp895
aF40.159999999999854
tp896
sg71
((lp897
(F5.6700000000018917
I144
tp898
aF40.150000000001455
tp899
sg102
((lp900
(F0.11999999999898137
I49
tp901
a(F0.31999999999970896
I47
tp902
a(F0.52999999999883585
I45
tp903
a(F0.79000000000087311
I43
tp904
a(F1.2200000000011642
I41
tp905
a(F1.6500000000014552
I40
tp906
a(F2.6500000000014552
I39
tp907
a(F3.5499999999992724
I38
tp908
a(F4.7999999999992724
I37
tp909
a(F5.9599999999991269
I35
tp910
a(F7.5999999999985448
I33
tp911
a(F9.9099999999998545
I31
tp912
a(F11.840000000000146
I29
tp913
a(F13.380000000001019
I27
tp914
a(F15.349999999998545
I25
tp915
a(F19.650000000001455
I24
tp916
a(F23.489999999997963
I22
tp917
a(F26.75
I20
tp918
aF40.0
tp919
sg127
((lp920
(F1.6399999999994179
I9
tp921
aF40.110000000000582
tp922
ssba(imeasure_core
ProblemSetSolution
p923
(dp924
g3
g202
sg163
g889
sg165
(dp925
g206
((lp926
(F5.7599999999983993
I55
tp927
a(F11.779999999998836
I32
tp928
aF40.020000000000437
tp929
sg262
((lp930
(F13.5
I171
tp931
aF40.159999999999854
tp932
sg312
((lp933
(F1.5599999999976717
I28
tp934
aF40.020000000000437
tp935
sg357
((lp936
F40.0
tp937
sg416
((lp938
(F1.1499999999978172
I25
tp939
aF40.039999999997235
tp940
ssba(imeasure_core
ProblemSetSolution
p941
(dp942
g3
g480
sg163
g889
sg165
(dp943
g484
((lp944
F40.989999999997963
tp945
sg542
((lp946
(F13.210000000002765
I13
tp947
aF41.020000000000437
tp948
sg581
((lp949
F40.100000000002183
tp950
sg641
((lp951
F42.149999999997817
tp952
sg688
((lp953
(F22.240000000001601
I15
tp954
aF40.790000000000873
tp955
ssba(imeasure_core
ProblemSetSolution
p956
(dp957
g3
g4
sg163
S"AnytimeBeam-w45-gf(1.3, 'exp')_with_PowerHeuristic2"
p958
sg165
(dp959
g8
((lp960
(F0.58000000000174623
I10
tp961
aF40.170000000001892
tp962
sg44
((lp963
(F0.4500000000007276
I14
tp964
aF40.290000000000873
tp965
sg71
((lp966
(F5.9799999999995634
I144
tp967
aF40.149999999997817
tp968
sg102
((lp969
(F0.11000000000058208
I49
tp970
a(F0.31999999999970896
I47
tp971
a(F0.52000000000043656
I45
tp972
a(F0.79000000000087311
I43
tp973
a(F1.2299999999995634
I41
tp974
a(F1.6500000000014552
I40
tp975
a(F2.6500000000014552
I39
tp976
a(F3.5400000000008731
I38
tp977
a(F4.7900000000008731
I37
tp978
a(F5.9500000000007276
I35
tp979
a(F7.5900000000001455
I33
tp980
a(F9.9099999999998545
I31
tp981
a(F11.860000000000582
I29
tp982
a(F13.420000000001892
I27
tp983
a(F15.400000000001455
I25
tp984
a(F19.709999999999127
I24
tp985
a(F23.530000000002474
I22
tp986
a(F26.780000000002474
I20
tp987
aF40.0
tp988
sg127
((lp989
(F1.7099999999991269
I9
tp990
aF41.590000000000146
tp991
ssba(imeasure_core
ProblemSetSolution
p992
(dp993
g3
g202
sg163
g958
sg165
(dp994
g206
((lp995
(F5.9799999999995634
I32
tp996
aF40.0
tp997
sg262
((lp998
(F14.359999999996944
I171
tp999
aF40.020000000000437
tp1000
sg312
((lp1001
(F1.6399999999994179
I28
tp1002
aF40.179999999996653
tp1003
sg357
((lp1004
F40.020000000000437
tp1005
sg416
((lp1006
(F1.3100000000013097
I25
tp1007
aF40.139999999999418
tp1008
ssba(imeasure_core
ProblemSetSolution
p1009
(dp1010
g3
g480
sg163
g958
sg165
(dp1011
g484
((lp1012
F41.159999999999854
tp1013
sg542
((lp1014
(F13.360000000000582
I13
tp1015
aF40.360000000000582
tp1016
sg581
((lp1017
F40.180000000000291
tp1018
sg641
((lp1019
F42.069999999999709
tp1020
sg688
((lp1021
(F22.409999999999854
I15
tp1022
aF40.029999999998836
tp1023
ssba(imeasure_core
ProblemSetSolution
p1024
(dp1025
g3
g4
sg163
S"AnytimeBeam-w5-gf(1.3, 'exp')_with_LinearHeuristic"
p1026
sg165
(dp1027
g8
((lp1028
F40.0
tp1029
sg44
((lp1030
F40.110000000000582
tp1031
sg71
((lp1032
(F1.2400000000016007
I58
tp1033
aF40.0
tp1034
sg102
((lp1035
(F0.029999999998835847
I22
tp1036
a(F0.50999999999839929
I20
tp1037
aF40.0
tp1038
sg127
((lp1039
(F1.2400000000016007
I6
tp1040
aF40.099999999998545
tp1041
ssba(imeasure_core
ProblemSetSolution
p1042
(dp1043
g3
g202
sg163
g1026
sg165
(dp1044
g206
((lp1045
F40.25
tp1046
sg262
((lp1047
F40.0
tp1048
sg312
((lp1049
(F23.479999999999563
I146
tp1050
aF40.05000000000291
tp1051
sg357
((lp1052
F40.029999999998836
tp1053
sg416
((lp1054
F40.029999999998836
tp1055
ssba(imeasure_core
ProblemSetSolution
p1056
(dp1057
g3
g480
sg163
g1026
sg165
(dp1058
g484
((lp1059
F46.619999999998981
tp1060
sg542
((lp1061
(F10.119999999998981
I8
tp1062
aF40.319999999999709
tp1063
sg581
((lp1064
F40.009999999998399
tp1065
sg641
((lp1066
F44.770000000000437
tp1067
sg688
((lp1068
F40.290000000000873
tp1069
ssba(imeasure_core
ProblemSetSolution
p1070
(dp1071
g3
g4
sg163
S"AnytimeBeam-w15-gf(1.3, 'exp')_with_LinearHeuristic"
p1072
sg165
(dp1073
g8
((lp1074
F40.080000000001746
tp1075
sg44
((lp1076
F40.079999999998108
tp1077
sg71
((lp1078
(F1.0600000000013097
I58
tp1079
aF40.029999999998836
tp1080
sg102
((lp1081
(F0.020000000000436557
I22
tp1082
a(F0.56000000000130967
I20
tp1083
aF40.0
tp1084
sg127
((lp1085
(F1.7600000000020373
I6
tp1086
aF40.220000000001164
tp1087
ssba(imeasure_core
ProblemSetSolution
p1088
(dp1089
g3
g202
sg163
g1072
sg165
(dp1090
g206
((lp1091
F40.069999999999709
tp1092
sg262
((lp1093
F40.539999999997235
tp1094
sg312
((lp1095
(F13.970000000001164
I146
tp1096
aF40.080000000001746
tp1097
sg357
((lp1098
F40.049999999999272
tp1099
sg416
((lp1100
F40.069999999999709
tp1101
ssba(imeasure_core
ProblemSetSolution
p1102
(dp1103
g3
g480
sg163
g1072
sg165
(dp1104
g484
((lp1105
F47.399999999997817
tp1106
sg542
((lp1107
(F11.260000000002037
I8
tp1108
aF41.530000000002474
tp1109
sg581
((lp1110
F40.469999999997526
tp1111
sg641
((lp1112
F45.100000000002183
tp1113
sg688
((lp1114
F40.229999999999563
tp1115
ssba(imeasure_core
ProblemSetSolution
p1116
(dp1117
g3
g4
sg163
S"AnytimeBeam-w25-gf(1.3, 'exp')_with_LinearHeuristic"
p1118
sg165
(dp1119
g8
((lp1120
(F37.459999999999127
I198
tp1121
aF40.0
tp1122
sg44
((lp1123
F40.06000000000131
tp1124
sg71
((lp1125
(F1.1300000000010186
I58
tp1126
a(F33.349999999998545
I56
tp1127
aF40.079999999998108
tp1128
sg102
((lp1129
(F0.020000000000436557
I22
tp1130
a(F0.38000000000101863
I20
tp1131
aF40.0
tp1132
sg127
((lp1133
(F2.0100000000020373
I6
tp1134
aF40.190000000002328
tp1135
ssba(imeasure_core
ProblemSetSolution
p1136
(dp1137
g3
g202
sg163
g1118
sg165
(dp1138
g206
((lp1139
F40.039999999997235
tp1140
sg262
((lp1141
F40.470000000001164
tp1142
sg312
((lp1143
(F15.670000000001892
I146
tp1144
aF40.040000000000873
tp1145
sg357
((lp1146
F40.110000000000582
tp1147
sg416
((lp1148
F40.049999999999272
tp1149
ssba(imeasure_core
ProblemSetSolution
p1150
(dp1151
g3
g480
sg163
g1118
sg165
(dp1152
g484
((lp1153
F48.06000000000131
tp1154
sg542
((lp1155
(F11.579999999998108
I8
tp1156
aF40.680000000000291
tp1157
sg581
((lp1158
F40.549999999999272
tp1159
sg641
((lp1160
F45.180000000000291
tp1161
sg688
((lp1162
F40.059999999997672
tp1163
ssba(imeasure_core
ProblemSetSolution
p1164
(dp1165
g3
g4
sg163
S"AnytimeBeam-w35-gf(1.3, 'exp')_with_LinearHeuristic"
p1166
sg165
(dp1167
g8
((lp1168
F40.139999999999418
tp1169
sg44
((lp1170
F40.450000000000728
tp1171
sg71
((lp1172
(F1.25
I58
tp1173
a(F37.350000000002183
I56
tp1174
aF40.049999999999272
tp1175
sg102
((lp1176
(F0.020000000000436557
I22
tp1177
a(F0.15000000000145519
I20
tp1178
aF40.0
tp1179
sg127
((lp1180
(F2.3100000000013097
I6
tp1181
aF40.520000000000437
tp1182
ssba(imeasure_core
ProblemSetSolution
p1183
(dp1184
g3
g202
sg163
g1166
sg165
(dp1185
g206
((lp1186
F40.229999999999563
tp1187
sg262
((lp1188
F40.18999999999869
tp1189
sg312
((lp1190
(F17.549999999999272
I146
tp1191
aF40.020000000000437
tp1192
sg357
((lp1193
F40.069999999999709
tp1194
sg416
((lp1195
F40.200000000000728
tp1196
ssba(imeasure_core
ProblemSetSolution
p1197
(dp1198
g3
g480
sg163
g1166
sg165
(dp1199
g484
((lp1200
F49.049999999999272
tp1201
sg542
((lp1202
(F12.299999999999272
I8
tp1203
aF40.319999999999709
tp1204
sg581
((lp1205
F40.600000000002183
tp1206
sg641
((lp1207
F45.279999999998836
tp1208
sg688
((lp1209
F40.020000000000437
tp1210
ssba(imeasure_core
ProblemSetSolution
p1211
(dp1212
g3
g4
sg163
S"AnytimeBeam-w45-gf(1.3, 'exp')_with_LinearHeuristic"
p1213
sg165
(dp1214
g8
((lp1215
F40.280000000002474
tp1216
sg44
((lp1217
F40.049999999999272
tp1218
sg71
((lp1219
(F1.2900000000008731
I58
tp1220
a(F35.590000000000146
I56
tp1221
aF40.0
tp1222
sg102
((lp1223
(F0.020000000000436557
I22
tp1224
a(F0.14999999999781721
I20
tp1225
aF40.0
tp1226
sg127
((lp1227
(F2.3800000000010186
I6
tp1228
aF40.040000000000873
tp1229
ssba(imeasure_core
ProblemSetSolution
p1230
(dp1231
g3
g202
sg163
g1213
sg165
(dp1232
g206
((lp1233
F40.059999999997672
tp1234
sg262
((lp1235
F40.06000000000131
tp1236
sg312
((lp1237
(F18.540000000000873
I146
tp1238
aF40.029999999998836
tp1239
sg357
((lp1240
F40.170000000001892
tp1241
sg416
((lp1242
F40.5
tp1243
ssba(imeasure_core
ProblemSetSolution
p1244
(dp1245
g3
g480
sg163
g1213
sg165
(dp1246
g484
((lp1247
F49.630000000001019
tp1248
sg542
((lp1249
(F12.659999999999854
I8
tp1250
aF40.829999999998108
tp1251
sg581
((lp1252
F40.5
tp1253
sg641
((lp1254
F45.620000000002619
tp1255
sg688
((lp1256
F40.159999999999854
tp1257
ssba.