(lp0
(imeasure_core
ProblemSetSolution
p1
(dp2
S'roomset'
p3
(imeasure_core
RoomSet
p4
(dp5
S'rooms'
p6
(dp7
(iproblems
RoomID
p8
(dp9
S'width'
p10
I7
sS'dusts'
p11
I8
sS'seed'
p12
I7106521602475165645
sS'obstacles'
p13
(I2
I8
tp14
sS'robots'
p15
I4
sS'height'
p16
I10
sb(imulti_robot_problem
MultiRobotState
p17
(dp18
S'obstacle_locations'
p19
c__builtin__
frozenset
p20
((lp21
(I5
I9
tp22
a(I4
I9
tp23
ag14
a(I3
I8
tp24
a(I5
I2
tp25
a(I5
I8
tp26
atp27
Rp28
sg10
I7
sS'dirt_locations'
p29
g20
((lp30
(I1
I2
tp31
a(I2
I7
tp32
a(I0
I0
tp33
a(I3
I1
tp34
a(I6
I0
tp35
a(I2
I1
tp36
a(I2
I3
tp37
a(I2
I5
tp38
atp39
Rp40
sg15
((I0
I8
tp41
(I4
I5
tp42
(I3
I9
tp43
(I1
I8
tp44
tp45
sg16
I10
sbs(iproblems
RoomID
p46
(dp47
g10
I8
sg11
I10
sg12
I746805015404516437
sg13
(I3
I3
tp48
sg15
I4
sg16
I10
sb(imulti_robot_problem
MultiRobotState
p49
(dp50
g19
g20
((lp51
g48
a(I6
I1
tp52
a(I3
I1
tp53
a(I1
I4
tp54
a(I7
I4
tp55
a(I4
I2
tp56
a(I4
I1
tp57
atp58
Rp59
sg10
I8
sg29
g20
((lp60
(I4
I6
tp61
a(I6
I3
tp62
a(I2
I0
tp63
a(I3
I9
tp64
a(I2
I3
tp65
a(I3
I6
tp66
a(I5
I1
tp67
a(I1
I0
tp68
a(I0
I8
tp69
a(I5
I8
tp70
atp71
Rp72
sg15
((I3
I8
tp73
(I4
I8
tp74
(I4
I9
tp75
(I0
I3
tp76
tp77
sg16
I10
sbs(iproblems
RoomID
p78
(dp79
g10
I9
sg11
I9
sg12
I8963783824838420066
sg13
(I7
I6
tp80
sg15
I5
sg16
I9
sb(imulti_robot_problem
MultiRobotState
p81
(dp82
g19
g20
((lp83
(I2
I7
tp84
a(I6
I6
tp85
a(I5
I5
tp86
a(I7
I1
tp87
ag80
a(I4
I4
tp88
a(I7
I5
tp89
a(I2
I2
tp90
a(I6
I5
tp91
atp92
Rp93
sg10
I9
sg29
g20
((lp94
(I3
I0
tp95
a(I0
I7
tp96
a(I6
I3
tp97
a(I2
I1
tp98
a(I3
I7
tp99
a(I8
I6
tp100
a(I0
I8
tp101
a(I8
I5
tp102
a(I7
I2
tp103
atp104
Rp105
sg15
((I7
I7
tp106
(I2
I4
tp107
(I3
I2
tp108
(I4
I7
tp109
(I5
I0
tp110
tp111
sg16
I9
sbs(iproblems
RoomID
p112
(dp113
g10
I9
sg11
I6
sg12
I4029557120079369747
sg13
(I7
I4
tp114
sg15
I2
sg16
I7
sb(imulti_robot_problem
MultiRobotState
p115
(dp116
g19
g20
((lp117
(I4
I1
tp118
a(I6
I1
tp119
ag114
a(I7
I5
tp120
a(I8
I5
tp121
a(I8
I4
tp122
atp123
Rp124
sg10
I9
sg29
g20
((lp125
(I2
I6
tp126
a(I6
I6
tp127
a(I3
I0
tp128
a(I2
I5
tp129
a(I1
I1
tp130
a(I5
I3
tp131
atp132
Rp133
sg15
((I6
I0
tp134
(I3
I1
tp135
tp136
sg16
I7
sbs(iproblems
RoomID
p137
(dp138
g10
I8
sg11
I5
sg12
I6604845167042249220
sg13
(I4
I5
tp139
sg15
I1
sg16
I9
sb(imulti_robot_problem
MultiRobotState
p140
(dp141
g19
g20
((lp142
(I7
I4
tp143
ag139
a(I5
I4
tp144
a(I6
I1
tp145
a(I6
I5
tp146
atp147
Rp148
sg10
I8
sg29
g20
((lp149
(I2
I8
tp150
a(I1
I0
tp151
a(I1
I1
tp152
a(I4
I3
tp153
a(I4
I8
tp154
atp155
Rp156
sg15
((I3
I6
tp157
tp158
sg16
I9
sbssS'name'
p159
S'easy_roomset'
p160
sbsS'name'
p161
S'LimitedTimeAStar_with_PowerHeuristic2'
p162
sS'solutions'
p163
(dp164
g8
((lp165
(F2.1500000000000004
I15
tp166
aF2.1800000000000002
tp167
sg46
((lp168
(F1.4100000000000001
I17
tp169
aF1.4300000000000002
tp170
sg78
((lp171
(F1.3499999999999996
I7
tp172
aF1.3599999999999994
tp173
sg112
((lp174
(F0.040000000000000036
I14
tp175
aF0.040000000000000036
tp176
sg137
((lp177
(F0.060000000000000497
I31
tp178
aF0.060000000000000497
tp179
ssba(imeasure_core
ProblemSetSolution
p180
(dp181
g3
(imeasure_core
RoomSet
p182
(dp183
S'rooms'
p184
(dp185
(iproblems
RoomID
p186
(dp187
S'width'
p188
I11
sS'dusts'
p189
I6
sS'seed'
p190
I4029557120079369747
sS'obstacles'
p191
(I5
I8
tp192
sS'robots'
p193
I3
sS'height'
p194
I9
sb(imulti_robot_problem
MultiRobotState
p195
(dp196
S'obstacle_locations'
p197
g20
((lp198
(I7
I3
tp199
a(I1
I3
tp200
a(I4
I8
tp201
a(I10
I6
tp202
a(I3
I7
tp203
a(I5
I1
tp204
a(I2
I5
tp205
a(I8
I5
tp206
ag192
a(I10
I7
tp207
a(I4
I4
tp208
a(I6
I3
tp209
a(I3
I6
tp210
a(I7
I1
tp211
a(I1
I4
tp212
a(I9
I6
tp213
a(I10
I5
tp214
a(I4
I6
tp215
a(I6
I1
tp216
a(I1
I7
tp217
a(I9
I5
tp218
a(I2
I4
tp219
a(I8
I4
tp220
atp221
Rp222
sg188
I11
sS'dirt_locations'
p223
g20
((lp224
(I2
I1
tp225
a(I3
I8
tp226
a(I8
I8
tp227
a(I5
I2
tp228
a(I1
I1
tp229
a(I7
I2
tp230
atp231
Rp232
sg193
((I8
I0
tp233
(I3
I1
tp234
(I4
I0
tp235
tp236
sg194
I9
sbs(iproblems
RoomID
p237
(dp238
g188
I12
sg189
I10
sg190
I2569146471088859254
sg191
(I4
I4
tp239
sg193
I4
sg194
I12
sb(imulti_robot_problem
MultiRobotState
p240
(dp241
g197
g20
((lp242
(I5
I4
tp243
a(I5
I5
tp244
a(I4
I8
tp245
a(I4
I5
tp246
a(I11
I2
tp247
ag239
a(I2
I11
tp248
a(I4
I7
tp249
a(I7
I2
tp250
a(I5
I6
tp251
a(I1
I9
tp252
a(I4
I3
tp253
a(I2
I2
tp254
a(I10
I0
tp255
a(I5
I11
tp256
a(I10
I3
tp257
a(I1
I1
tp258
a(I5
I8
tp259
a(I3
I3
tp260
atp261
Rp262
sg188
I12
sg223
g20
((lp263
(I2
I7
tp264
a(I10
I10
tp265
a(I3
I0
tp266
a(I3
I11
tp267
a(I2
I4
tp268
a(I1
I5
tp269
a(I9
I4
tp270
a(I0
I8
tp271
a(I0
I2
tp272
a(I11
I6
tp273
atp274
Rp275
sg193
((I9
I11
tp276
(I7
I10
tp277
(I6
I0
tp278
(I10
I1
tp279
tp280
sg194
I12
sbs(iproblems
RoomID
p281
(dp282
g188
I12
sg189
I6
sg190
I1360307757430227195
sg191
(I4
I5
tp283
sg193
I3
sg194
I12
sb(imulti_robot_problem
MultiRobotState
p284
(dp285
g197
g20
((lp286
(I6
I4
tp287
a(I3
I2
tp288
a(I6
I3
tp289
a(I6
I7
tp290
a(I10
I4
tp291
a(I3
I0
tp292
a(I5
I5
tp293
a(I5
I4
tp294
a(I8
I10
tp295
a(I7
I4
tp296
a(I5
I6
tp297
a(I9
I5
tp298
a(I7
I5
tp299
a(I8
I3
tp300
ag283
a(I6
I2
tp301
a(I5
I1
tp302
a(I5
I3
tp303
a(I8
I5
tp304
a(I6
I5
tp305
a(I4
I0
tp306
atp307
Rp308
sg188
I12
sg223
g20
((lp309
(I3
I3
tp310
a(I9
I2
tp311
a(I5
I7
tp312
a(I4
I3
tp313
a(I0
I2
tp314
a(I11
I6
tp315
atp316
Rp317
sg193
((I11
I11
tp318
(I1
I3
tp319
(I0
I1
tp320
tp321
sg194
I12
sbs(iproblems
RoomID
p322
(dp323
g188
I10
sg189
I6
sg190
I1821862095355237593
sg191
(I2
I4
tp324
sg193
I3
sg194
I10
sb(imulti_robot_problem
MultiRobotState
p325
(dp326
g197
g20
((lp327
(I4
I7
tp328
a(I5
I6
tp329
a(I8
I5
tp330
a(I7
I2
tp331
a(I6
I7
tp332
a(I3
I3
tp333
a(I4
I4
tp334
a(I6
I3
tp335
a(I0
I4
tp336
a(I8
I6
tp337
a(I3
I5
tp338
a(I6
I4
tp339
a(I2
I6
tp340
a(I4
I5
tp341
a(I7
I9
tp342
a(I6
I0
tp343
a(I1
I9
tp344
a(I6
I5
tp345
a(I5
I5
tp346
a(I5
I3
tp347
a(I4
I3
tp348
a(I3
I4
tp349
ag324
atp350
Rp351
sg188
I10
sg223
g20
((lp352
(I7
I0
tp353
a(I2
I8
tp354
a(I0
I6
tp355
a(I2
I3
tp356
a(I5
I1
tp357
a(I9
I6
tp358
atp359
Rp360
sg193
((I2
I2
tp361
(I4
I2
tp362
(I0
I7
tp363
tp364
sg194
I10
sbs(iproblems
RoomID
p365
(dp366
g188
I12
sg189
I7
sg190
I2577854692418029171
sg191
(I5
I4
tp367
sg193
I3
sg194
I11
sb(imulti_robot_problem
MultiRobotState
p368
(dp369
g197
g20
((lp370
(I4
I7
tp371
a(I3
I0
tp372
a(I8
I0
tp373
a(I2
I1
tp374
a(I6
I2
tp375
a(I1
I6
tp376
a(I5
I1
tp377
a(I4
I0
tp378
a(I1
I2
tp379
a(I4
I9
tp380
a(I3
I3
tp381
a(I8
I1
tp382
a(I3
I10
tp383
a(I6
I3
tp384
a(I3
I6
tp385
a(I1
I10
tp386
a(I8
I6
tp387
a(I5
I3
tp388
ag367
a(I2
I6
tp389
a(I7
I1
tp390
a(I6
I0
tp391
a(I1
I9
tp392
a(I4
I2
tp393
a(I0
I8
tp394
a(I3
I5
tp395
a(I0
I1
tp396
a(I7
I0
tp397
a(I3
I4
tp398
a(I6
I1
tp399
a(I3
I1
tp400
a(I3
I8
tp401
a(I5
I2
tp402
a(I2
I4
tp403
atp404
Rp405
sg188
I12
sg223
g20
((lp406
(I4
I10
tp407
a(I10
I5
tp408
a(I2
I8
tp409
a(I7
I6
tp410
a(I4
I4
tp411
a(I10
I1
tp412
a(I9
I7
tp413
atp414
Rp415
sg193
((I10
I6
tp416
(I1
I4
tp417
(I11
I8
tp418
tp419
sg194
I11
sbssS'name'
p420
S'mild_roomset'
p421
sbsg161
g162
sg163
(dp422
g186
((lp423
(F0.20999999999999996
I15
tp424
aF0.20999999999999996
tp425
sg237
((lp426
(F7.1899999999999995
I37
tp427
aF7.2599999999999998
tp428
sg281
((lp429
F300.44
tp430
sg322
((lp431
(F0.1099999999999568
I13
tp432
aF0.1099999999999568
tp433
sg365
((lp434
(F0.40000000000003411
I29
tp435
aF0.41000000000002501
tp436
ssba(imeasure_core
ProblemSetSolution
p437
(dp438
g3
(imeasure_core
RoomSet
p439
(dp440
S'rooms'
p441
(dp442
(iproblems
RoomID
p443
(dp444
S'width'
p445
I10
sS'dusts'
p446
I13
sS'seed'
p447
I7106521602475165645
sS'obstacles'
p448
(I5
I3
tp449
sS'robots'
p450
I6
sS'height'
p451
I13
sb(imulti_robot_problem
MultiRobotState
p452
(dp453
S'obstacle_locations'
p454
g20
((lp455
(I1
I2
tp456
a(I0
I9
tp457
a(I6
I11
tp458
a(I0
I5
tp459
a(I5
I11
tp460
a(I5
I6
tp461
a(I8
I12
tp462
a(I2
I11
tp463
a(I7
I1
tp464
a(I0
I12
tp465
a(I6
I3
tp466
a(I7
I12
tp467
a(I2
I3
tp468
a(I0
I4
tp469
a(I4
I5
tp470
a(I6
I12
tp471
a(I3
I4
tp472
a(I7
I2
tp473
ag449
atp474
Rp475
sg445
I10
sS'dirt_locations'
p476
g20
((lp477
(I0
I1
tp478
a(I8
I3
tp479
a(I3
I7
tp480
a(I4
I6
tp481
a(I6
I9
tp482
a(I0
I11
tp483
a(I3
I9
tp484
a(I2
I12
tp485
a(I8
I6
tp486
a(I5
I1
tp487
a(I7
I11
tp488
a(I0
I3
tp489
a(I3
I5
tp490
atp491
Rp492
sg450
((I0
I10
tp493
(I6
I7
tp494
(I4
I11
tp495
(I1
I11
tp496
(I9
I0
tp497
(I3
I1
tp498
tp499
sg451
I13
sbs(iproblems
RoomID
p500
(dp501
g445
I11
sg446
I15
sg447
I746805015404516437
sg448
(I9
I4
tp502
sg450
I6
sg451
I13
sb(imulti_robot_problem
MultiRobotState
p503
(dp504
g454
g20
((lp505
(I10
I5
tp506
a(I10
I6
tp507
a(I5
I5
tp508
a(I4
I8
tp509
a(I4
I5
tp510
a(I8
I0
tp511
a(I6
I0
tp512
a(I4
I4
tp513
a(I1
I8
tp514
a(I3
I9
tp515
a(I5
I3
tp516
a(I9
I7
tp517
ag502
a(I8
I6
tp518
a(I4
I2
tp519
a(I7
I9
tp520
a(I5
I2
tp521
a(I2
I4
tp522
a(I7
I2
tp523
a(I3
I5
tp524
atp525
Rp526
sg445
I11
sg476
g20
((lp527
(I3
I12
tp528
a(I9
I1
tp529
a(I7
I1
tp530
a(I8
I1
tp531
a(I6
I10
tp532
a(I8
I9
tp533
a(I2
I0
tp534
a(I2
I3
tp535
a(I0
I10
tp536
a(I2
I2
tp537
a(I7
I11
tp538
a(I2
I5
tp539
a(I8
I5
tp540
a(I5
I8
tp541
a(I4
I11
tp542
atp543
Rp544
sg450
((I4
I10
tp545
(I6
I11
tp546
(I5
I12
tp547
(I0
I5
tp548
(I1
I0
tp549
(I7
I10
tp550
tp551
sg451
I13
sbs(iproblems
RoomID
p552
(dp553
g445
I12
sg446
I11
sg447
I4029557120079369747
sg448
(I9
I6
tp554
sg450
I6
sg451
I10
sb(imulti_robot_problem
MultiRobotState
p555
(dp556
g454
g20
((lp557
(I11
I7
tp558
a(I4
I4
tp559
a(I5
I5
tp560
a(I7
I1
tp561
a(I10
I7
tp562
a(I9
I8
tp563
a(I10
I6
tp564
a(I1
I6
tp565
a(I3
I6
tp566
a(I1
I7
tp567
ag554
a(I11
I6
tp568
atp569
Rp570
sg445
I12
sg476
g20
((lp571
(I1
I2
tp572
a(I1
I3
tp573
a(I4
I9
tp574
a(I8
I2
tp575
a(I8
I1
tp576
a(I6
I1
tp577
a(I2
I1
tp578
a(I7
I4
tp579
a(I1
I8
tp580
a(I5
I2
tp581
a(I1
I1
tp582
atp583
Rp584
sg450
((I8
I0
tp585
(I4
I1
tp586
(I4
I0
tp587
(I3
I9
tp588
(I8
I9
tp589
(I3
I8
tp590
tp591
sg451
I10
sbs(iproblems
RoomID
p592
(dp593
g445
I11
sg446
I10
sg447
I6604845167042249220
sg448
(I6
I7
tp594
sg450
I5
sg451
I12
sb(imulti_robot_problem
MultiRobotState
p595
(dp596
g454
g20
((lp597
(I9
I0
tp598
ag594
a(I7
I1
tp599
a(I2
I8
tp600
a(I10
I6
tp601
a(I7
I7
tp602
a(I8
I8
tp603
a(I9
I4
tp604
a(I7
I11
tp605
a(I8
I6
tp606
a(I9
I7
tp607
atp608
Rp609
sg445
I11
sg476
g20
((lp610
(I10
I5
tp611
a(I3
I3
tp612
a(I5
I11
tp613
a(I8
I1
tp614
a(I9
I8
tp615
a(I6
I9
tp616
a(I0
I7
tp617
a(I0
I10
tp618
a(I4
I1
tp619
a(I8
I4
tp620
atp621
Rp622
sg450
((I4
I8
tp623
(I1
I0
tp624
(I2
I2
tp625
(I3
I11
tp626
(I6
I5
tp627
tp628
sg451
I12
sbs(iproblems
RoomID
p629
(dp630
g445
I13
sg446
I15
sg447
I2569146471088859254
sg448
(I5
I5
tp631
sg450
I6
sg451
I13
sb(imulti_robot_problem
MultiRobotState
p632
(dp633
g454
g20
((lp634
(I12
I2
tp635
a(I5
I4
tp636
a(I3
I3
tp637
a(I5
I9
tp638
a(I4
I5
tp639
a(I6
I1
tp640
a(I10
I10
tp641
a(I8
I8
tp642
a(I4
I3
tp643
a(I2
I2
tp644
a(I9
I11
tp645
a(I8
I12
tp646
a(I1
I1
tp647
a(I12
I3
tp648
ag631
atp649
Rp650
sg445
I13
sg476
g20
((lp651
(I10
I5
tp652
a(I3
I12
tp653
a(I8
I2
tp654
a(I5
I6
tp655
a(I12
I7
tp656
a(I11
I3
tp657
a(I2
I4
tp658
a(I11
I0
tp659
a(I1
I10
tp660
a(I2
I12
tp661
a(I0
I9
tp662
a(I3
I7
tp663
a(I10
I11
tp664
a(I0
I2
tp665
a(I5
I12
tp666
atp667
Rp668
sg450
((I9
I12
tp669
(I7
I11
tp670
(I7
I0
tp671
(I10
I1
tp672
(I1
I5
tp673
(I4
I0
tp674
tp675
sg451
I13
sbssS'name'
p676
S'heavy_roomset'
p677
sbsg161
g162
sg163
(dp678
g443
((lp679
F303.18000000000001
tp680
sg500
((lp681
F301.88999999999999
tp682
sg629
((lp683
F302.7299999999999
tp684
sg592
((lp685
(F4.8700000000000045
I21
tp686
aF4.9199999999999591
tp687
sg552
((lp688
(F7.2300000000000182
I6
tp689
aF7.32000000000005
tp690
ssba.