(lp0
(imeasure_core
ProblemSetSolution
p1
(dp2
S'roomset'
p3
(imeasure_core
RoomSet
p4
(dp5
S'rooms'
p6
(dp7
(iproblems
RoomID
p8
(dp9
S'width'
p10
I9
sS'dusts'
p11
I8
sS'seed'
p12
I1689441204489037471
sS'obstacles'
p13
(I0
I4
tp14
sS'robots'
p15
I4
sS'height'
p16
I7
sb(imulti_robot_problem
MultiRobotState
p17
(dp18
S'obstacle_locations'
p19
c__builtin__
frozenset
p20
((lp21
(I0
I1
tp22
a(I1
I2
tp23
a(I3
I2
tp24
a(I8
I1
tp25
a(I4
I3
tp26
ag14
a(I0
I3
tp27
a(I4
I0
tp28
atp29
Rp30
sg10
I9
sS'dirt_locations'
p31
g20
((lp32
(I0
I0
tp33
a(I7
I0
tp34
a(I7
I6
tp35
a(I1
I4
tp36
a(I6
I2
tp37
a(I2
I3
tp38
a(I5
I1
tp39
a(I3
I5
tp40
atp41
Rp42
sg15
((I6
I0
tp43
(I5
I4
tp44
(I6
I6
tp45
(I5
I0
tp46
tp47
sg16
I7
sbs(iproblems
RoomID
p48
(dp49
g10
I10
sg11
I10
sg12
I6660334802794327005
sg13
(I4
I5
tp50
sg15
I3
sg16
I8
sb(imulti_robot_problem
MultiRobotState
p51
(dp52
g19
g20
((lp53
(I9
I0
tp54
a(I2
I6
tp55
ag50
a(I1
I6
tp56
a(I3
I6
tp57
a(I8
I4
tp58
atp59
Rp60
sg10
I10
sg31
g20
((lp61
(I9
I1
tp62
a(I5
I6
tp63
a(I4
I1
tp64
a(I1
I5
tp65
a(I7
I5
tp66
a(I9
I4
tp67
a(I1
I7
tp68
a(I9
I6
tp69
a(I7
I2
tp70
a(I8
I2
tp71
atp72
Rp73
sg15
((I7
I3
tp74
(I4
I7
tp75
(I4
I2
tp76
tp77
sg16
I8
sbs(iproblems
RoomID
p78
(dp79
g10
I9
sg11
I6
sg12
I3119042104763040036
sg13
(I8
I4
tp80
sg15
I4
sg16
I10
sb(imulti_robot_problem
MultiRobotState
p81
(dp82
g19
g20
((lp83
(I1
I2
tp84
a(I6
I7
tp85
a(I4
I8
tp86
a(I7
I6
tp87
a(I8
I5
tp88
ag80
atp89
Rp90
sg10
I9
sg31
g20
((lp91
(I6
I8
tp92
a(I6
I6
tp93
a(I3
I0
tp94
a(I6
I5
tp95
a(I8
I7
tp96
a(I7
I2
tp97
atp98
Rp99
sg15
((I5
I9
tp100
(I6
I1
tp101
(I3
I4
tp102
(I2
I7
tp103
tp104
sg16
I10
sbs(iproblems
RoomID
p105
(dp106
g10
I9
sg11
I7
sg12
I4640892725076559864
sg13
(I2
I5
tp107
sg15
I5
sg16
I9
sb(imulti_robot_problem
MultiRobotState
p108
(dp109
g19
g20
((lp110
(I2
I6
tp111
a(I6
I7
tp112
a(I1
I5
tp113
a(I3
I1
tp114
a(I0
I6
tp115
a(I1
I6
tp116
a(I0
I4
tp117
ag107
a(I3
I4
tp118
atp119
Rp120
sg10
I9
sg31
g20
((lp121
(I7
I3
tp122
a(I7
I1
tp123
a(I8
I1
tp124
a(I3
I8
tp125
a(I4
I2
tp126
a(I8
I6
tp127
a(I5
I3
tp128
atp129
Rp130
sg15
((I6
I5
tp131
(I8
I4
tp132
(I7
I6
tp133
(I6
I0
tp134
(I6
I3
tp135
tp136
sg16
I9
sbs(iproblems
RoomID
p137
(dp138
g10
I7
sg11
I6
sg12
I3914746131789064238
sg13
(I3
I0
tp139
sg15
I4
sg16
I10
sb(imulti_robot_problem
MultiRobotState
p140
(dp141
g19
g20
((lp142
g139
a(I6
I1
tp143
a(I2
I3
tp144
a(I5
I0
tp145
a(I2
I2
tp146
a(I0
I3
tp147
a(I0
I8
tp148
a(I4
I1
tp149
a(I3
I5
tp150
atp151
Rp152
sg10
I7
sg31
g20
((lp153
(I3
I3
tp154
a(I1
I7
tp155
a(I0
I7
tp156
a(I0
I4
tp157
a(I3
I4
tp158
a(I6
I5
tp159
atp160
Rp161
sg15
((I1
I8
tp162
(I5
I1
tp163
(I5
I3
tp164
(I1
I9
tp165
tp166
sg16
I10
sbssS'name'
p167
S'easy_roomset'
p168
sbsS'name'
p169
S'AnytimeBest-d10_with_PowerHeuristic2'
p170
sS'solutions'
p171
(dp172
g8
((lp173
(F0.31999999999970896
I8
tp174
aF40.039999999999054
tp175
sg48
((lp176
F40.06000000000131
tp177
sg78
((lp178
F40.069999999999709
tp179
sg105
((lp180
(F1.2299999999995634
I6
tp181
aF40.049999999999272
tp182
sg137
((lp183
(F0.18000000000029104
I7
tp184
aF40.030000000000655
tp185
ssba(imeasure_core
ProblemSetSolution
p186
(dp187
g3
(imeasure_core
RoomSet
p188
(dp189
S'rooms'
p190
(dp191
(iproblems
RoomID
p192
(dp193
S'width'
p194
I11
sS'dusts'
p195
I6
sS'seed'
p196
I3119042104763040036
sS'obstacles'
p197
(I5
I5
tp198
sS'robots'
p199
I4
sS'height'
p200
I12
sb(imulti_robot_problem
MultiRobotState
p201
(dp202
S'obstacle_locations'
p203
g20
((lp204
(I3
I0
tp205
a(I9
I8
tp206
a(I10
I6
tp207
a(I2
I1
tp208
a(I8
I9
tp209
a(I0
I10
tp210
a(I10
I3
tp211
ag198
a(I10
I7
tp212
a(I4
I4
tp213
a(I2
I2
tp214
a(I7
I9
tp215
a(I1
I1
tp216
a(I10
I4
tp217
a(I4
I5
tp218
a(I2
I3
tp219
a(I3
I3
tp220
a(I4
I6
tp221
a(I9
I2
tp222
a(I3
I4
tp223
a(I9
I5
tp224
a(I7
I8
tp225
a(I2
I4
tp226
atp227
Rp228
sg194
I11
sS'dirt_locations'
p229
g20
((lp230
(I8
I3
tp231
a(I5
I10
tp232
a(I8
I8
tp233
a(I9
I4
tp234
a(I8
I6
tp235
a(I10
I9
tp236
atp237
Rp238
sg199
((I6
I11
tp239
(I7
I2
tp240
(I2
I8
tp241
(I8
I10
tp242
tp243
sg200
I12
sbs(iproblems
RoomID
p244
(dp245
g194
I9
sg195
I6
sg196
I3914746131789064238
sg197
(I4
I8
tp246
sg199
I4
sg200
I12
sb(imulti_robot_problem
MultiRobotState
p247
(dp248
g203
g20
((lp249
(I5
I7
tp250
a(I6
I6
tp251
a(I0
I10
tp252
a(I0
I3
tp253
a(I8
I5
tp254
a(I4
I0
tp255
a(I6
I7
tp256
a(I3
I3
tp257
a(I8
I1
tp258
a(I7
I6
tp259
ag246
a(I5
I0
tp260
a(I2
I2
tp261
a(I8
I6
tp262
a(I4
I5
tp263
a(I0
I5
tp264
a(I8
I7
tp265
a(I5
I3
tp266
a(I7
I0
tp267
a(I4
I6
tp268
a(I6
I1
tp269
a(I3
I1
tp270
a(I0
I9
tp271
a(I2
I3
tp272
atp273
Rp274
sg194
I9
sg229
g20
((lp275
(I4
I4
tp276
a(I2
I11
tp277
a(I2
I10
tp278
a(I1
I8
tp279
a(I1
I9
tp280
a(I4
I3
tp281
atp282
Rp283
sg199
((I1
I10
tp284
(I6
I2
tp285
(I7
I3
tp286
(I1
I11
tp287
tp288
sg200
I12
sbs(iproblems
RoomID
p289
(dp290
g194
I12
sg195
I5
sg196
I659184109953178577
sg197
(I5
I7
tp291
sg199
I4
sg200
I9
sb(imulti_robot_problem
MultiRobotState
p292
(dp293
g203
g20
((lp294
(I7
I3
tp295
a(I4
I7
tp296
a(I6
I6
tp297
a(I7
I7
tp298
a(I9
I4
tp299
a(I2
I5
tp300
a(I10
I3
tp301
a(I7
I2
tp302
a(I3
I3
tp303
a(I3
I6
tp304
a(I8
I6
tp305
a(I6
I4
tp306
a(I8
I2
tp307
a(I4
I5
tp308
a(I11
I0
tp309
a(I7
I5
tp310
a(I0
I8
tp311
a(I6
I5
tp312
a(I4
I6
tp313
a(I6
I1
tp314
ag291
a(I4
I3
tp315
a(I3
I4
tp316
atp317
Rp318
sg194
I12
sg229
g20
((lp319
(I10
I8
tp320
a(I4
I1
tp321
a(I0
I2
tp322
a(I1
I6
tp323
a(I10
I4
tp324
atp325
Rp326
sg199
((I10
I0
tp327
(I7
I0
tp328
(I2
I6
tp329
(I8
I3
tp330
tp331
sg200
I9
sbs(iproblems
RoomID
p332
(dp333
g194
I10
sg195
I9
sg196
I4253868527325451640
sg197
(I9
I10
tp334
sg199
I3
sg200
I11
sb(imulti_robot_problem
MultiRobotState
p335
(dp336
g203
g20
((lp337
(I7
I3
tp338
a(I4
I7
tp339
a(I2
I6
tp340
a(I5
I0
tp341
a(I4
I8
tp342
a(I3
I4
tp343
a(I7
I1
tp344
a(I6
I9
tp345
a(I8
I10
tp346
ag334
a(I3
I9
tp347
a(I1
I6
tp348
a(I7
I10
tp349
a(I2
I3
tp350
a(I3
I7
tp351
a(I2
I5
tp352
a(I3
I5
tp353
a(I8
I5
tp354
a(I2
I4
tp355
a(I5
I8
tp356
a(I7
I9
tp357
atp358
Rp359
sg194
I10
sg229
g20
((lp360
(I3
I8
tp361
a(I5
I10
tp362
a(I6
I8
tp363
a(I7
I6
tp364
a(I8
I9
tp365
a(I0
I10
tp366
a(I9
I4
tp367
a(I0
I9
tp368
a(I5
I3
tp369
atp370
Rp371
sg199
((I3
I6
tp372
(I0
I8
tp373
(I2
I1
tp374
tp375
sg200
I11
sbs(iproblems
RoomID
p376
(dp377
g194
I10
sg195
I9
sg196
I3273124617966689144
sg197
(I9
I9
tp378
sg199
I3
sg200
I10
sb(imulti_robot_problem
MultiRobotState
p379
(dp380
g203
g20
((lp381
(I7
I3
tp382
a(I1
I3
tp383
a(I9
I8
tp384
a(I3
I2
tp385
a(I1
I6
tp386
a(I2
I5
tp387
a(I3
I3
tp388
a(I7
I6
tp389
a(I6
I3
tp390
a(I8
I6
tp391
a(I5
I3
tp392
a(I9
I7
tp393
a(I6
I4
tp394
a(I5
I4
tp395
a(I4
I5
tp396
a(I7
I5
tp397
a(I2
I3
tp398
a(I0
I8
tp399
a(I9
I6
tp400
a(I6
I5
tp401
a(I5
I5
tp402
ag378
a(I4
I3
tp403
a(I2
I4
tp404
atp405
Rp406
sg194
I10
sg229
g20
((lp407
(I7
I0
tp408
a(I3
I0
tp409
a(I6
I1
tp410
a(I3
I1
tp411
a(I5
I0
tp412
a(I2
I2
tp413
a(I3
I4
tp414
a(I1
I1
tp415
a(I8
I4
tp416
atp417
Rp418
sg199
((I0
I7
tp419
(I2
I1
tp420
(I6
I6
tp421
tp422
sg200
I10
sbssS'name'
p423
S'mild_roomset'
p424
sbsg169
g170
sg171
(dp425
g192
((lp426
F40.239999999999782
tp427
sg244
((lp428
(F0.2000000000007276
I6
tp429
aF40.040000000000873
tp430
sg289
((lp431
F40.099999999998545
tp432
sg332
((lp433
F40.020000000000437
tp434
sg376
((lp435
F40.100000000000364
tp436
ssba(imeasure_core
ProblemSetSolution
p437
(dp438
g3
(imeasure_core
RoomSet
p439
(dp440
S'rooms'
p441
(dp442
(iproblems
RoomID
p443
(dp444
S'width'
p445
I12
sS'dusts'
p446
I13
sS'seed'
p447
I1689441204489037471
sS'obstacles'
p448
(I3
I4
tp449
sS'robots'
p450
I6
sS'height'
p451
I10
sb(imulti_robot_problem
MultiRobotState
p452
(dp453
S'obstacle_locations'
p454
g20
((lp455
(I7
I3
tp456
a(I1
I3
tp457
a(I10
I6
tp458
a(I7
I7
tp459
a(I6
I2
tp460
a(I1
I6
tp461
a(I9
I4
tp462
a(I5
I1
tp463
a(I8
I5
tp464
a(I11
I5
tp465
a(I10
I3
tp466
a(I0
I4
tp467
a(I8
I6
tp468
a(I4
I1
tp469
a(I1
I1
tp470
a(I9
I3
tp471
a(I0
I5
tp472
a(I8
I7
tp473
a(I4
I2
tp474
a(I2
I7
tp475
ag449
a(I3
I8
tp476
a(I4
I3
tp477
a(I9
I5
tp478
a(I5
I2
tp479
a(I0
I2
tp480
a(I8
I4
tp481
atp482
Rp483
sg445
I12
sS'dirt_locations'
p484
g20
((lp485
(I7
I4
tp486
a(I9
I0
tp487
a(I0
I0
tp488
a(I10
I4
tp489
a(I4
I8
tp490
a(I8
I1
tp491
a(I11
I2
tp492
a(I5
I4
tp493
a(I8
I9
tp494
a(I11
I8
tp495
a(I2
I6
tp496
a(I2
I3
tp497
a(I1
I5
tp498
atp499
Rp500
sg450
((I8
I0
tp501
(I7
I6
tp502
(I8
I8
tp503
(I7
I0
tp504
(I2
I4
tp505
(I9
I9
tp506
tp507
sg451
I10
sbs(iproblems
RoomID
p508
(dp509
g445
I13
sg446
I15
sg447
I6660334802794327005
sg448
(I10
I7
tp510
sg450
I6
sg451
I11
sb(imulti_robot_problem
MultiRobotState
p511
(dp512
g454
g20
((lp513
(I11
I7
tp514
a(I4
I7
tp515
a(I9
I0
tp516
a(I3
I8
tp517
a(I10
I8
tp518
a(I5
I6
tp519
a(I2
I8
tp520
a(I5
I7
tp521
a(I9
I9
tp522
a(I8
I10
tp523
a(I9
I10
tp524
ag510
a(I1
I8
tp525
a(I10
I0
tp526
a(I1
I10
tp527
a(I1
I5
tp528
a(I2
I4
tp529
atp530
Rp531
sg445
I13
sg484
g20
((lp532
(I2
I7
tp533
a(I12
I2
tp534
a(I6
I9
tp535
a(I10
I6
tp536
a(I12
I1
tp537
a(I2
I9
tp538
a(I12
I0
tp539
a(I10
I3
tp540
a(I11
I2
tp541
a(I6
I10
tp542
a(I12
I5
tp543
a(I6
I3
tp544
a(I1
I7
tp545
a(I12
I9
tp546
a(I12
I8
tp547
atp548
Rp549
sg450
((I9
I5
tp550
(I5
I10
tp551
(I5
I3
tp552
(I5
I1
tp553
(I9
I3
tp554
(I7
I8
tp555
tp556
sg451
I11
sbs(iproblems
RoomID
p557
(dp558
g445
I12
sg446
I11
sg447
I3119042104763040036
sg448
(I7
I6
tp559
sg450
I7
sg451
I13
sb(imulti_robot_problem
MultiRobotState
p560
(dp561
g454
g20
((lp562
(I5
I4
tp563
a(I9
I0
tp564
a(I5
I10
tp565
a(I10
I5
tp566
a(I4
I5
tp567
a(I9
I8
tp568
a(I10
I6
tp569
a(I6
I0
tp570
a(I9
I9
tp571
a(I8
I9
tp572
a(I10
I7
tp573
a(I2
I12
tp574
a(I8
I6
tp575
a(I9
I6
tp576
ag559
a(I11
I6
tp577
a(I9
I7
tp578
atp579
Rp580
sg445
I12
sg484
g20
((lp581
(I1
I2
tp582
a(I8
I0
tp583
a(I5
I11
tp584
a(I5
I6
tp585
a(I7
I8
tp586
a(I4
I4
tp587
a(I8
I10
tp588
a(I0
I11
tp589
a(I2
I3
tp590
a(I3
I4
tp591
a(I4
I0
tp592
atp593
Rp594
sg450
((I7
I12
tp595
(I8
I2
tp596
(I4
I6
tp597
(I3
I9
tp598
(I9
I11
tp599
(I11
I9
tp600
(I9
I3
tp601
tp602
sg451
I13
sbs(iproblems
RoomID
p603
(dp604
g445
I10
sg446
I11
sg447
I3914746131789064238
sg448
(I6
I1
tp605
sg450
I7
sg451
I13
sb(imulti_robot_problem
MultiRobotState
p606
(dp607
g454
g20
((lp608
(I0
I0
tp609
a(I7
I0
tp610
a(I9
I1
tp611
a(I2
I9
tp612
a(I7
I1
tp613
a(I9
I2
tp614
ag605
a(I6
I3
tp615
a(I8
I1
tp616
a(I6
I5
tp617
a(I5
I1
tp618
a(I7
I8
tp619
a(I7
I2
tp620
a(I5
I5
tp621
atp622
Rp623
sg445
I10
sg484
g20
((lp624
(I4
I7
tp625
a(I3
I3
tp626
a(I4
I5
tp627
a(I4
I4
tp628
a(I1
I4
tp629
a(I0
I11
tp630
a(I0
I5
tp631
a(I0
I10
tp632
a(I8
I7
tp633
a(I9
I5
tp634
a(I5
I3
tp635
atp636
Rp637
sg450
((I1
I11
tp638
(I8
I4
tp639
(I2
I12
tp640
(I1
I9
tp641
(I2
I11
tp642
(I5
I4
tp643
(I5
I0
tp644
tp645
sg451
I13
sbs(iproblems
RoomID
p646
(dp647
g445
I12
sg446
I12
sg447
I4640892725076559864
sg448
(I8
I7
tp648
sg450
I7
sg451
I12
sb(imulti_robot_problem
MultiRobotState
p649
(dp650
g454
g20
((lp651
(I5
I9
tp652
a(I6
I9
tp653
a(I4
I8
tp654
a(I5
I6
tp655
a(I2
I8
tp656
a(I6
I2
tp657
a(I3
I7
tp658
a(I5
I1
tp659
a(I8
I5
tp660
a(I2
I9
tp661
a(I2
I0
tp662
a(I7
I6
tp663
a(I8
I10
tp664
a(I6
I3
tp665
a(I1
I1
tp666
a(I9
I7
tp667
a(I4
I5
tp668
a(I6
I0
tp669
a(I2
I10
tp670
ag648
a(I1
I0
tp671
a(I7
I9
tp672
a(I7
I0
tp673
a(I6
I8
tp674
a(I5
I7
tp675
a(I7
I4
tp676
a(I0
I6
tp677
a(I1
I8
tp678
a(I0
I9
tp679
a(I5
I2
tp680
a(I0
I2
tp681
atp682
Rp683
sg445
I12
sg484
g20
((lp684
(I2
I7
tp685
a(I6
I4
tp686
a(I11
I10
tp687
a(I4
I6
tp688
a(I11
I8
tp689
a(I11
I2
tp690
a(I9
I3
tp691
a(I3
I2
tp692
a(I8
I8
tp693
a(I0
I5
tp694
a(I10
I3
tp695
a(I5
I3
tp696
atp697
Rp698
sg450
((I8
I6
tp699
(I11
I5
tp700
(I10
I8
tp701
(I9
I0
tp702
(I9
I4
tp703
(I9
I2
tp704
(I4
I11
tp705
tp706
sg451
I12
sbssS'name'
p707
S'heavy_roomset'
p708
sbsg169
g170
sg171
(dp709
g443
((lp710
F40.199999999998909
tp711
sg508
((lp712
F40.170000000000073
tp713
sg557
((lp714
F49.820000000001528
tp715
sg603
((lp716
F41.329999999999927
tp717
sg646
((lp718
F41.590000000000146
tp719
ssba(imeasure_core
ProblemSetSolution
p720
(dp721
g3
g4
sg169
S'AnytimeBest-d80_with_PowerHeuristic2'
p722
sg171
(dp723
g8
((lp724
(F0.31000000000130967
I8
tp725
aF40.040000000000873
tp726
sg48
((lp727
(F0.22999999999956344
I23
tp728
aF40.010000000000218
tp729
sg78
((lp730
(F0.45999999999912689
I11
tp731
aF40.069999999999709
tp732
sg105
((lp733
(F1.2199999999993452
I6
tp734
aF40.100000000000364
tp735
sg137
((lp736
(F0.18000000000029104
I7
tp737
aF40.029999999998836
tp738
ssba(imeasure_core
ProblemSetSolution
p739
(dp740
g3
g188
sg169
g722
sg171
(dp741
g192
((lp742
F40.090000000000146
tp743
sg244
((lp744
(F0.2000000000007276
I6
tp745
aF40.040000000000873
tp746
sg289
((lp747
(F1.1499999999996362
I18
tp748
aF40.030000000000655
tp749
sg332
((lp750
(F0.36999999999898137
I32
tp751
aF40.009999999998399
tp752
sg376
((lp753
(F15.970000000001164
I47
tp754
aF40.06000000000131
tp755
ssba(imeasure_core
ProblemSetSolution
p756
(dp757
g3
g439
sg169
g722
sg171
(dp758
g443
((lp759
F40.119999999998981
tp760
sg508
((lp761
(F16.970000000001164
I11
tp762
aF40.170000000000073
tp763
sg557
((lp764
F49.579999999999927
tp765
sg603
((lp766
F41.110000000000582
tp767
sg646
((lp768
F40.590000000000146
tp769
ssba(imeasure_core
ProblemSetSolution
p770
(dp771
g3
g4
sg169
S'AnytimeBest-d150_with_PowerHeuristic2'
p772
sg171
(dp773
g8
((lp774
(F0.30999999999949068
I8
tp775
aF40.090000000000146
tp776
sg48
((lp777
(F0.22999999999956344
I23
tp778
aF40.0
tp779
sg78
((lp780
(F0.45999999999912689
I11
tp781
aF40.049999999999272
tp782
sg105
((lp783
(F1.2299999999995634
I6
tp784
aF40.049999999999272
tp785
sg137
((lp786
(F0.18000000000029104
I7
tp787
aF40.050000000001091
tp788
ssba(imeasure_core
ProblemSetSolution
p789
(dp790
g3
g188
sg169
g772
sg171
(dp791
g192
((lp792
F40.079999999999927
tp793
sg244
((lp794
(F0.19999999999890861
I6
tp795
aF40.039999999999054
tp796
sg289
((lp797
(F1.1599999999998545
I18
tp798
aF40.070000000001528
tp799
sg332
((lp800
(F0.36999999999898137
I32
tp801
aF40.009999999998399
tp802
sg376
((lp803
(F16.030000000000655
I47
tp804
aF40.06000000000131
tp805
ssba(imeasure_core
ProblemSetSolution
p806
(dp807
g3
g439
sg169
g772
sg171
(dp808
g443
((lp809
F40.319999999999709
tp810
sg508
((lp811
(F17.079999999999927
I11
tp812
aF40.170000000000073
tp813
sg557
((lp814
F49.869999999998981
tp815
sg603
((lp816
F41.31000000000131
tp817
sg646
((lp818
F40.840000000000146
tp819
ssba(imeasure_core
ProblemSetSolution
p820
(dp821
g3
g4
sg169
S'AnytimeBest-d250_with_PowerHeuristic2'
p822
sg171
(dp823
g8
((lp824
(F0.31000000000130967
I8
tp825
aF40.040000000000873
tp826
sg48
((lp827
(F0.22999999999956344
I23
tp828
aF40.020000000000437
tp829
sg78
((lp830
(F0.46999999999934516
I11
tp831
aF40.049999999999272
tp832
sg105
((lp833
(F1.2000000000007276
I6
tp834
aF40.050000000001091
tp835
sg137
((lp836
(F0.17999999999847205
I7
tp837
aF40.029999999998836
tp838
ssba(imeasure_core
ProblemSetSolution
p839
(dp840
g3
g188
sg169
g822
sg171
(dp841
g192
((lp842
(F15.489999999999782
I164
tp843
aF40.059999999999491
tp844
sg244
((lp845
(F0.2000000000007276
I6
tp846
aF40.040000000000873
tp847
sg289
((lp848
(F1.1399999999994179
I18
tp849
aF40.030000000000655
tp850
sg332
((lp851
(F0.36999999999898137
I32
tp852
aF40.029999999998836
tp853
sg376
((lp854
(F15.770000000000437
I47
tp855
aF40.100000000000364
tp856
ssba(imeasure_core
ProblemSetSolution
p857
(dp858
g3
g439
sg169
g822
sg171
(dp859
g443
((lp860
F40.260000000000218
tp861
sg508
((lp862
(F16.850000000000364
I11
tp863
aF40.170000000000073
tp864
sg557
((lp865
F49.959999999999127
tp866
sg603
((lp867
F40.780000000000655
tp868
sg646
((lp869
F40.909999999999854
tp870
ssba(imeasure_core
ProblemSetSolution
p871
(dp872
g3
g4
sg169
S'AnytimeBest-d400_with_PowerHeuristic2'
p873
sg171
(dp874
g8
((lp875
(F0.31999999999970896
I8
tp876
aF40.040000000000873
tp877
sg48
((lp878
(F0.22999999999956344
I23
tp879
aF40.0
tp880
sg78
((lp881
(F0.45999999999912689
I11
tp882
aF40.059999999997672
tp883
sg105
((lp884
(F1.2100000000027649
I6
tp885
aF40.05000000000291
tp886
sg137
((lp887
(F0.18000000000029104
I7
tp888
aF40.029999999998836
tp889
ssba(imeasure_core
ProblemSetSolution
p890
(dp891
g3
g188
sg169
g873
sg171
(dp892
g192
((lp893
(F15.490000000001601
I164
tp894
aF40.210000000002765
tp895
sg244
((lp896
(F0.19999999999708962
I6
tp897
aF40.039999999997235
tp898
sg289
((lp899
(F1.1599999999998545
I18
tp900
aF40.030000000002474
tp901
sg332
((lp902
(F0.37999999999738066
I32
tp903
aF40.020000000000437
tp904
sg376
((lp905
(F15.929999999996653
I47
tp906
aF40.059999999997672
tp907
ssba(imeasure_core
ProblemSetSolution
p908
(dp909
g3
g439
sg169
g873
sg171
(dp910
g443
((lp911
F40.25
tp912
sg508
((lp913
(F16.909999999999854
I11
tp914
aF40.170000000001892
tp915
sg557
((lp916
F49.539999999997235
tp917
sg603
((lp918
F40.980000000003201
tp919
sg646
((lp920
F40.519999999996799
tp921
ssba(imeasure_core
ProblemSetSolution
p922
(dp923
g3
g4
sg169
S'AnytimeBest-d1000_with_PowerHeuristic2'
p924
sg171
(dp925
g8
((lp926
(F0.32000000000334694
I8
tp927
aF40.030000000002474
tp928
sg48
((lp929
(F0.23999999999796273
I23
tp930
aF40.009999999998399
tp931
sg78
((lp932
(F0.45999999999912689
I11
tp933
aF40.06000000000131
tp934
sg105
((lp935
(F1.2200000000011642
I6
tp936
aF40.049999999999272
tp937
sg137
((lp938
(F0.18000000000029104
I7
tp939
aF40.029999999998836
tp940
ssba(imeasure_core
ProblemSetSolution
p941
(dp942
g3
g188
sg169
g924
sg171
(dp943
g192
((lp944
(F15.590000000000146
I164
tp945
aF40.330000000001746
tp946
sg244
((lp947
(F0.2000000000007276
I6
tp948
aF40.040000000000873
tp949
sg289
((lp950
(F1.1499999999978172
I18
tp951
aF40.029999999998836
tp952
sg332
((lp953
(F0.36999999999898137
I32
tp954
aF40.009999999998399
tp955
sg376
((lp956
(F16.0
I47
tp957
aF40.06000000000131
tp958
ssba(imeasure_core
ProblemSetSolution
p959
(dp960
g3
g439
sg169
g924
sg171
(dp961
g443
((lp962
F40.400000000001455
tp963
sg508
((lp964
(F16.970000000001164
I11
tp965
aF40.170000000001892
tp966
sg557
((lp967
F49.569999999999709
tp968
sg603
((lp969
F41.119999999998981
tp970
sg646
((lp971
F40.540000000000873
tp972
ssba(imeasure_core
ProblemSetSolution
p973
(dp974
g3
g4
sg169
S'AnytimeBest-d10_with_LinearHeuristic'
p975
sg171
(dp976
g8
((lp977
F40.18999999999869
tp978
sg48
((lp979
F40.05000000000291
tp980
sg78
((lp981
F40.159999999999854
tp982
sg105
((lp983
(F1.9099999999998545
I6
tp984
aF40.219999999997526
tp985
sg137
((lp986
F40.080000000001746
tp987
ssba(imeasure_core
ProblemSetSolution
p988
(dp989
g3
g188
sg169
g975
sg171
(dp990
g192
((lp991
F40.079999999998108
tp992
sg244
((lp993
(F1.4099999999998545
I10
tp994
a(F11.280000000002474
I9
tp995
a(F20.960000000002765
I8
tp996
aF40.220000000001164
tp997
sg289
((lp998
F40.029999999998836
tp999
sg332
((lp1000
F40.030000000002474
tp1001
sg376
((lp1002
F40.069999999999709
tp1003
ssba(imeasure_core
ProblemSetSolution
p1004
(dp1005
g3
g439
sg169
g975
sg171
(dp1006
g443
((lp1007
F40.670000000001892
tp1008
sg508
((lp1009
F42.0
tp1010
sg557
((lp1011
F40.43999999999869
tp1012
sg603
((lp1013
F46.43999999999869
tp1014
sg646
((lp1015
F40.31000000000131
tp1016
ssba(imeasure_core
ProblemSetSolution
p1017
(dp1018
g3
g4
sg169
S'AnytimeBest-d80_with_LinearHeuristic'
p1019
sg171
(dp1020
g8
((lp1021
F40.329999999998108
tp1022
sg48
((lp1023
(F39.770000000000437
I12
tp1024
aF40.069999999999709
tp1025
sg78
((lp1026
F40.049999999999272
tp1027
sg105
((lp1028
(F1.9099999999998545
I6
tp1029
aF40.270000000000437
tp1030
sg137
((lp1031
F40.049999999999272
tp1032
ssba(imeasure_core
ProblemSetSolution
p1033
(dp1034
g3
g188
sg169
g1019
sg171
(dp1035
g192
((lp1036
F40.070000000003347
tp1037
sg244
((lp1038
(F0.46999999999752617
I12
tp1039
a(F4.5599999999976717
I11
tp1040
a(F7.9399999999986903
I10
tp1041
a(F18.25
I9
tp1042
a(F28.159999999999854
I8
tp1043
aF40.219999999997526
tp1044
sg289
((lp1045
F40.080000000001746
tp1046
sg332
((lp1047
(F34.919999999998254
I80
tp1048
aF40.059999999997672
tp1049
sg376
((lp1050
F40.040000000000873
tp1051
ssba(imeasure_core
ProblemSetSolution
p1052
(dp1053
g3
g439
sg169
g1019
sg171
(dp1054
g443
((lp1055
F40.600000000002183
tp1056
sg508
((lp1057
F40.369999999998981
tp1058
sg557
((lp1059
F57.139999999999418
tp1060
sg603
((lp1061
F46.389999999999418
tp1062
sg646
((lp1063
F40.490000000001601
tp1064
ssba(imeasure_core
ProblemSetSolution
p1065
(dp1066
g3
g4
sg169
S'AnytimeBest-d150_with_LinearHeuristic'
p1067
sg171
(dp1068
g8
((lp1069
F40.44999999999709
tp1070
sg48
((lp1071
F40.080000000001746
tp1072
sg78
((lp1073
F40.279999999998836
tp1074
sg105
((lp1075
(F1.9500000000007276
I6
tp1076
aF40.229999999999563
tp1077
sg137
((lp1078
F40.090000000000146
tp1079
ssba(imeasure_core
ProblemSetSolution
p1080
(dp1081
g3
g188
sg169
g1067
sg171
(dp1082
g192
((lp1083
F40.709999999999127
tp1084
sg244
((lp1085
(F0.47000000000116415
I12
tp1086
a(F4.5299999999988358
I11
tp1087
a(F7.8499999999985448
I10
tp1088
a(F18.159999999999854
I9
tp1089
a(F28.31000000000131
I8
tp1090
aF40.260000000002037
tp1091
sg289
((lp1092
F40.049999999999272
tp1093
sg332
((lp1094
F40.069999999999709
tp1095
sg376
((lp1096
F40.059999999997672
tp1097
ssba(imeasure_core
ProblemSetSolution
p1098
(dp1099
g3
g439
sg169
g1067
sg171
(dp1100
g443
((lp1101
F40.600000000002183
tp1102
sg508
((lp1103
F41.709999999999127
tp1104
sg557
((lp1105
F56.619999999998981
tp1106
sg603
((lp1107
F46.590000000000146
tp1108
sg646
((lp1109
F40.700000000000728
tp1110
ssba(imeasure_core
ProblemSetSolution
p1111
(dp1112
g3
g4
sg169
S'AnytimeBest-d250_with_LinearHeuristic'
p1113
sg171
(dp1114
g8
((lp1115
F40.360000000000582
tp1116
sg48
((lp1117
(F39.860000000000582
I12
tp1118
aF40.069999999999709
tp1119
sg78
((lp1120
(F34.170000000001892
I165
tp1121
aF40.119999999998981
tp1122
sg105
((lp1123
(F1.9099999999998545
I6
tp1124
aF40.430000000000291
tp1125
sg137
((lp1126
F40.110000000000582
tp1127
ssba(imeasure_core
ProblemSetSolution
p1128
(dp1129
g3
g188
sg169
g1113
sg171
(dp1130
g192
((lp1131
F40.670000000001892
tp1132
sg244
((lp1133
(F0.45999999999912689
I12
tp1134
a(F4.5299999999988358
I11
tp1135
a(F7.8599999999969441
I10
tp1136
a(F18.119999999998981
I9
tp1137
a(F28.209999999999127
I8
tp1138
aF40.219999999997526
tp1139
sg289
((lp1140
F40.209999999999127
tp1141
sg332
((lp1142
F40.130000000001019
tp1143
sg376
((lp1144
F40.040000000000873
tp1145
ssba(imeasure_core
ProblemSetSolution
p1146
(dp1147
g3
g439
sg169
g1113
sg171
(dp1148
g443
((lp1149
F40.529999999998836
tp1150
sg508
((lp1151
F42.110000000000582
tp1152
sg557
((lp1153
F56.529999999998836
tp1154
sg603
((lp1155
F46.470000000001164
tp1156
sg646
((lp1157
F40.549999999999272
tp1158
ssba(imeasure_core
ProblemSetSolution
p1159
(dp1160
g3
g4
sg169
S'AnytimeBest-d400_with_LinearHeuristic'
p1161
sg171
(dp1162
g8
((lp1163
F40.129999999997381
tp1164
sg48
((lp1165
F40.100000000002183
tp1166
sg78
((lp1167
(F34.040000000000873
I165
tp1168
aF40.069999999999709
tp1169
sg105
((lp1170
(F1.9099999999998545
I6
tp1171
aF40.229999999999563
tp1172
sg137
((lp1173
F40.240000000001601
tp1174
ssba(imeasure_core
ProblemSetSolution
p1175
(dp1176
g3
g188
sg169
g1161
sg171
(dp1177
g192
((lp1178
F40.770000000000437
tp1179
sg244
((lp1180
(F0.45999999999912689
I12
tp1181
a(F4.5400000000008731
I11
tp1182
a(F7.8499999999985448
I10
tp1183
a(F18.090000000000146
I9
tp1184
a(F28.220000000001164
I8
tp1185
aF40.229999999999563
tp1186
sg289
((lp1187
F40.209999999999127
tp1188
sg332
((lp1189
F40.100000000002183
tp1190
sg376
((lp1191
F40.039999999997235
tp1192
ssba(imeasure_core
ProblemSetSolution
p1193
(dp1194
g3
g439
sg169
g1161
sg171
(dp1195
g443
((lp1196
F40.869999999998981
tp1197
sg508
((lp1198
F41.950000000000728
tp1199
sg557
((lp1200
F57.180000000000291
tp1201
sg603
((lp1202
F46.450000000000728
tp1203
sg646
((lp1204
F40.529999999998836
tp1205
ssba(imeasure_core
ProblemSetSolution
p1206
(dp1207
g3
g4
sg169
S'AnytimeBest-d1000_with_LinearHeuristic'
p1208
sg171
(dp1209
g8
((lp1210
F40.31000000000131
tp1211
sg48
((lp1212
F40.080000000001746
tp1213
sg78
((lp1214
(F34.090000000000146
I165
tp1215
aF40.069999999999709
tp1216
sg105
((lp1217
(F1.930000000000291
I6
tp1218
aF40.219999999997526
tp1219
sg137
((lp1220
F40.240000000001601
tp1221
ssba(imeasure_core
ProblemSetSolution
p1222
(dp1223
g3
g188
sg169
g1208
sg171
(dp1224
g192
((lp1225
F40.659999999999854
tp1226
sg244
((lp1227
(F0.47000000000116415
I12
tp1228
a(F4.5400000000008731
I11
tp1229
a(F7.8900000000030559
I10
tp1230
a(F18.190000000002328
I9
tp1231
a(F28.260000000002037
I8
tp1232
aF40.260000000002037
tp1233
sg289
((lp1234
F40.229999999999563
tp1235
sg332
((lp1236
F40.110000000000582
tp1237
sg376
((lp1238
F40.059999999997672
tp1239
ssba(imeasure_core
ProblemSetSolution
p1240
(dp1241
g3
g439
sg169
g1208
sg171
(dp1242
g443
((lp1243
F40.370000000002619
tp1244
sg508
((lp1245
F41.919999999998254
tp1246
sg557
((lp1247
F57.100000000002183
tp1248
sg603
((lp1249
F46.969999999997526
tp1250
sg646
((lp1251
F41.040000000000873
tp1252
ssba.