(lp0
(imeasure_core
ProblemSetSolution
p1
(dp2
S'roomset'
p3
(imeasure_core
RoomSet
p4
(dp5
S'rooms'
p6
(dp7
(iproblems
RoomID
p8
(dp9
S'dusts'
p10
I7
sS'obstacles'
p11
(I1
I3
tp12
sS'robots'
p13
I1
sS'height'
p14
I7
sS'width'
p15
I9
sS'seed'
p16
I1486246605650367638
sb(imulti_robot_problem
MultiRobotState
p17
(dp18
S'obstacle_locations'
p19
c__builtin__
frozenset
p20
((lp21
(I0
I1
tp22
a(I8
I3
tp23
ag12
a(I0
I3
tp24
a(I0
I2
tp25
atp26
Rp27
sg15
I9
sS'dirt_locations'
p28
g20
((lp29
(I7
I5
tp30
a(I7
I0
tp31
a(I0
I4
tp32
a(I1
I0
tp33
a(I4
I4
tp34
a(I6
I5
tp35
a(I4
I0
tp36
atp37
Rp38
sg13
((I5
I1
tp39
tp40
sg14
I7
sbs(iproblems
RoomID
p41
(dp42
g10
I9
sg11
(I7
I5
tp43
sg13
I4
sg14
I10
sg15
I10
sg16
I679259829289197625
sb(imulti_robot_problem
MultiRobotState
p44
(dp45
g19
g20
((lp46
(I9
I6
tp47
a(I8
I6
tp48
a(I7
I6
tp49
ag43
a(I7
I0
tp50
atp51
Rp52
sg15
I10
sg28
g20
((lp53
(I5
I4
tp54
a(I2
I6
tp55
a(I7
I1
tp56
a(I6
I1
tp57
a(I1
I6
tp58
a(I0
I5
tp59
a(I8
I7
tp60
a(I0
I9
tp61
a(I9
I5
tp62
atp63
Rp64
sg13
((I7
I8
tp65
(I6
I7
tp66
(I3
I5
tp67
(I3
I9
tp68
tp69
sg14
I10
sbs(iproblems
RoomID
p70
(dp71
g10
I6
sg11
(I1
I6
tp72
sg13
I4
sg14
I8
sg15
I10
sg16
I403795515464475257
sb(imulti_robot_problem
MultiRobotState
p73
(dp74
g19
g20
((lp75
(I8
I3
tp76
a(I1
I3
tp77
a(I6
I7
tp78
a(I0
I4
tp79
ag72
a(I4
I1
tp80
a(I0
I5
tp81
atp82
Rp83
sg15
I10
sg28
g20
((lp84
(I7
I3
tp85
a(I4
I7
tp86
a(I2
I2
tp87
a(I8
I0
tp88
a(I0
I2
tp89
a(I0
I7
tp90
atp91
Rp92
sg13
((I8
I2
tp93
(I6
I1
tp94
(I5
I0
tp95
(I2
I0
tp96
tp97
sg14
I8
sbs(iproblems
RoomID
p98
(dp99
g10
I5
sg11
(I3
I4
tp100
sg13
I1
sg14
I9
sg15
I9
sg16
I2685440357799139976
sb(imulti_robot_problem
MultiRobotState
p101
(dp102
g19
g20
((lp103
(I8
I3
tp104
a(I1
I3
tp105
a(I5
I6
tp106
ag100
a(I2
I4
tp107
a(I3
I8
tp108
a(I2
I3
tp109
a(I7
I8
tp110
a(I1
I1
tp111
atp112
Rp113
sg15
I9
sg28
g20
((lp114
(I0
I1
tp115
a(I0
I0
tp116
a(I3
I1
tp117
a(I8
I7
tp118
a(I5
I0
tp119
atp120
Rp121
sg13
((I5
I5
tp122
tp123
sg14
I9
sbs(iproblems
RoomID
p124
(dp125
g10
I6
sg11
(I4
I4
tp126
sg13
I4
sg14
I9
sg15
I9
sg16
I5891625650498269233
sb(imulti_robot_problem
MultiRobotState
p127
(dp128
g19
g20
((lp129
(I2
I7
tp130
a(I4
I5
tp131
ag126
a(I3
I6
tp132
atp133
Rp134
sg15
I9
sg28
g20
((lp135
(I7
I4
tp136
a(I8
I3
tp137
a(I0
I5
tp138
a(I5
I5
tp139
a(I6
I6
tp140
a(I4
I0
tp141
atp142
Rp143
sg13
((I4
I6
tp144
(I7
I1
tp145
(I0
I4
tp146
(I7
I2
tp147
tp148
sg14
I9
sbssS'name'
p149
S'easy_roomset'
p150
sbsg149
S"AnytimeBeam-w5-gf(1.3, 'exp')_with_PowerHeuristic2"
p151
sS'solutions'
p152
(dp153
g8
((lp154
(F0.23999999999796273
I45
tp155
a(F2.0599999999976717
I44
tp156
a(F2.6699999999982538
I41
tp157
a(F3.0999999999985448
I37
tp158
a(F3.6999999999970896
I36
tp159
a(F4.3300000000017462
I34
tp160
a(F6.3899999999994179
I33
tp161
a(F8.6299999999973807
I31
tp162
a(F11.589999999996508
I30
tp163
a(F14.779999999998836
I28
tp164
a(F17.209999999999127
I26
tp165
a(F22.230000000003201
I25
tp166
a(F28.650000000001455
I24
tp167
aF40.0
tp168
sg41
((lp169
(F0.55000000000291038
I20
tp170
aF40.110000000000582
tp171
sg70
((lp172
(F3.7799999999988358
I134
tp173
aF40.110000000000582
tp174
sg98
((lp175
(F0.049999999995634425
I43
tp176
a(F0.08999999999650754
I41
tp177
a(F2.5599999999976717
I35
tp178
a(F3.680000000000291
I33
tp179
a(F4.9400000000023283
I31
tp180
a(F6.25
I29
tp181
a(F8.569999999999709
I27
tp182
a(F11.790000000000873
I25
tp183
a(F14.540000000000873
I23
tp184
aF40.0
tp185
sg124
((lp186
(F0.29999999999563443
I8
tp187
aF40.19999999999709
tp188
ssba(imeasure_core
ProblemSetSolution
p189
(dp190
g3
(imeasure_core
RoomSet
p191
(dp192
g6
(dp193
(iproblems
RoomID
p194
(dp195
g10
I9
sg11
(I7
I7
tp196
sg13
I4
sg14
I12
sg15
I12
sg16
I679259829289197625
sb(imulti_robot_problem
MultiRobotState
p197
(dp198
g19
g20
((lp199
(I6
I4
tp200
a(I6
I9
tp201
a(I6
I6
tp202
a(I5
I6
tp203
a(I9
I8
tp204
a(I11
I9
tp205
ag196
a(I1
I4
tp206
a(I11
I7
tp207
a(I7
I5
tp208
a(I8
I7
tp209
a(I4
I2
tp210
a(I8
I5
tp211
a(I6
I5
tp212
a(I10
I8
tp213
a(I10
I5
tp214
a(I6
I7
tp215
a(I6
I8
tp216
a(I10
I7
tp217
a(I9
I6
tp218
a(I7
I6
tp219
a(I8
I10
tp220
a(I7
I4
tp221
a(I11
I8
tp222
a(I7
I10
tp223
a(I8
I6
tp224
a(I6
I1
tp225
a(I9
I7
tp226
atp227
Rp228
sg15
I12
sg28
g20
((lp229
(I2
I7
tp230
a(I9
I0
tp231
a(I8
I2
tp232
a(I7
I1
tp233
a(I11
I0
tp234
a(I0
I11
tp235
a(I1
I6
tp236
a(I1
I7
tp237
a(I11
I6
tp238
atp239
Rp240
sg13
((I9
I10
tp241
(I8
I9
tp242
(I3
I7
tp243
(I3
I11
tp244
tp245
sg14
I12
sbs(iproblems
RoomID
p246
(dp247
g10
I5
sg11
(I9
I1
tp248
sg13
I3
sg14
I11
sg15
I11
sg16
I2685440357799139976
sb(imulti_robot_problem
MultiRobotState
p249
(dp250
g19
g20
((lp251
(I7
I3
tp252
a(I10
I4
tp253
a(I9
I3
tp254
ag248
a(I7
I1
tp255
a(I5
I6
tp256
a(I10
I6
tp257
a(I1
I4
tp258
a(I9
I9
tp259
a(I3
I9
tp260
a(I9
I4
tp261
a(I6
I8
tp262
a(I9
I6
tp263
a(I3
I4
tp264
a(I10
I3
tp265
a(I7
I2
tp266
a(I5
I3
tp267
a(I8
I3
tp268
a(I5
I5
tp269
a(I10
I7
tp270
a(I8
I5
tp271
a(I9
I2
tp272
a(I3
I6
tp273
a(I4
I5
tp274
a(I6
I5
tp275
a(I7
I10
tp276
a(I9
I5
tp277
a(I3
I5
tp278
a(I7
I8
tp279
a(I2
I4
tp280
a(I10
I9
tp281
atp282
Rp283
sg15
I11
sg28
g20
((lp284
(I1
I2
tp285
a(I9
I10
tp286
a(I6
I1
tp287
a(I4
I1
tp288
a(I0
I2
tp289
atp290
Rp291
sg13
((I6
I6
tp292
(I0
I0
tp293
(I10
I8
tp294
tp295
sg14
I11
sbs(iproblems
RoomID
p296
(dp297
g10
I7
sg11
(I8
I8
tp298
sg13
I3
sg14
I9
sg15
I9
sg16
I7834319822419845881
sb(imulti_robot_problem
MultiRobotState
p299
(dp300
g19
g20
((lp301
(I4
I7
tp302
a(I1
I3
tp303
a(I5
I0
tp304
a(I6
I6
tp305
a(I5
I6
tp306
a(I2
I8
tp307
a(I3
I5
tp308
a(I4
I6
tp309
a(I2
I6
tp310
a(I0
I5
tp311
a(I3
I7
tp312
a(I0
I3
tp313
a(I0
I8
tp314
a(I8
I5
tp315
a(I5
I8
tp316
a(I3
I3
tp317
a(I2
I7
tp318
a(I6
I7
tp319
a(I5
I5
tp320
a(I7
I8
tp321
a(I4
I4
tp322
a(I1
I5
tp323
a(I1
I8
tp324
ag298
a(I3
I6
tp325
a(I1
I7
tp326
a(I4
I5
tp327
a(I5
I3
tp328
a(I3
I4
tp329
atp330
Rp331
sg15
I9
sg28
g20
((lp332
(I7
I4
tp333
a(I2
I0
tp334
a(I6
I2
tp335
a(I7
I0
tp336
a(I8
I7
tp337
a(I7
I1
tp338
a(I1
I4
tp339
atp340
Rp341
sg13
((I2
I1
tp342
(I2
I3
tp343
(I5
I7
tp344
tp345
sg14
I9
sbs(iproblems
RoomID
p346
(dp347
g10
I10
sg11
(I1
I5
tp348
sg13
I4
sg14
I12
sg15
I10
sg16
I1737871632067391849
sb(imulti_robot_problem
MultiRobotState
p349
(dp350
g19
g20
((lp351
(I3
I2
tp352
a(I0
I0
tp353
a(I6
I6
tp354
a(I5
I6
tp355
a(I2
I8
tp356
a(I2
I10
tp357
a(I8
I9
tp358
a(I6
I2
tp359
a(I2
I3
tp360
a(I8
I7
tp361
a(I5
I1
tp362
a(I8
I5
tp363
a(I5
I8
tp364
a(I8
I3
tp365
a(I5
I5
tp366
a(I7
I8
tp367
a(I7
I6
tp368
a(I8
I10
tp369
ag348
a(I6
I5
tp370
a(I2
I2
tp371
a(I4
I1
tp372
a(I2
I4
tp373
atp374
Rp375
sg15
I10
sg28
g20
((lp376
(I0
I1
tp377
a(I4
I10
tp378
a(I4
I8
tp379
a(I3
I0
tp380
a(I9
I6
tp381
a(I3
I10
tp382
a(I5
I11
tp383
a(I2
I7
tp384
a(I1
I9
tp385
a(I3
I4
tp386
atp387
Rp388
sg13
((I4
I9
tp389
(I8
I11
tp390
(I4
I0
tp391
(I3
I9
tp392
tp393
sg14
I12
sbs(iproblems
RoomID
p394
(dp395
g10
I6
sg11
(I3
I9
tp396
sg13
I4
sg14
I11
sg15
I11
sg16
I5891625650498269233
sb(imulti_robot_problem
MultiRobotState
p397
(dp398
g19
g20
((lp399
(I7
I3
tp400
a(I4
I7
tp401
a(I6
I6
tp402
a(I5
I6
tp403
a(I2
I8
tp404
a(I6
I2
tp405
a(I5
I1
tp406
a(I3
I7
tp407
a(I8
I5
tp408
a(I5
I5
tp409
a(I2
I9
tp410
a(I7
I6
tp411
a(I4
I4
tp412
a(I2
I2
tp413
a(I1
I1
tp414
a(I9
I7
tp415
a(I3
I2
tp416
a(I10
I4
tp417
a(I4
I5
tp418
a(I9
I3
tp419
a(I10
I5
tp420
a(I2
I10
tp421
a(I7
I5
tp422
a(I2
I3
tp423
a(I8
I3
tp424
a(I4
I6
tp425
a(I5
I2
tp426
a(I6
I1
tp427
a(I3
I8
tp428
a(I1
I8
tp429
ag396
a(I4
I3
tp430
a(I9
I5
tp431
a(I3
I4
tp432
a(I8
I4
tp433
atp434
Rp435
sg15
I11
sg28
g20
((lp436
(I8
I8
tp437
a(I5
I10
tp438
a(I9
I1
tp439
a(I10
I7
tp440
a(I1
I6
tp441
a(I7
I9
tp442
atp443
Rp444
sg13
((I5
I7
tp445
(I8
I1
tp446
(I0
I5
tp447
(I4
I0
tp448
tp449
sg14
I11
sbssg149
S'mild_roomset'
p450
sbsg149
g151
sg152
(dp451
g194
((lp452
F40.080000000001746
tp453
sg246
((lp454
(F4.9400000000023283
I127
tp455
aF40.040000000000873
tp456
sg296
((lp457
(F0.08999999999650754
I26
tp458
a(F0.18000000000029104
I25
tp459
aF40.010000000002037
tp460
sg346
((lp461
(F0.27999999999883585
I12
tp462
aF40.19999999999709
tp463
sg394
((lp464
(F3.3000000000029104
I64
tp465
aF40.059999999997672
tp466
ssba(imeasure_core
ProblemSetSolution
p467
(dp468
g3
(imeasure_core
RoomSet
p469
(dp470
g6
(dp471
(iproblems
RoomID
p472
(dp473
g10
I12
sg11
(I6
I3
tp474
sg13
I5
sg14
I10
sg15
I12
sg16
I1486246605650367638
sb(imulti_robot_problem
MultiRobotState
p475
(dp476
g19
g20
((lp477
(I5
I9
tp478
a(I1
I3
tp479
a(I7
I1
tp480
a(I2
I7
tp481
a(I1
I4
tp482
a(I6
I2
tp483
a(I1
I6
tp484
a(I2
I1
tp485
a(I0
I3
tp486
a(I6
I5
tp487
a(I1
I2
tp488
a(I1
I5
tp489
a(I4
I1
tp490
a(I3
I1
tp491
ag474
a(I2
I0
tp492
a(I10
I0
tp493
a(I5
I2
tp494
a(I1
I1
tp495
a(I8
I4
tp496
atp497
Rp498
sg15
I12
sg28
g20
((lp499
(I11
I7
tp500
a(I11
I4
tp501
a(I9
I1
tp502
a(I11
I8
tp503
a(I2
I8
tp504
a(I6
I0
tp505
a(I0
I6
tp506
a(I11
I1
tp507
a(I0
I4
tp508
a(I4
I9
tp509
a(I10
I9
tp510
a(I9
I7
tp511
atp512
Rp513
sg13
((I2
I4
tp514
(I10
I1
tp515
(I2
I5
tp516
(I9
I8
tp517
(I6
I6
tp518
tp519
sg14
I10
sbs(iproblems
RoomID
p520
(dp521
g10
I14
sg11
(I7
I6
tp522
sg13
I7
sg14
I13
sg15
I13
sg16
I679259829289197625
sb(imulti_robot_problem
MultiRobotState
p523
(dp524
g19
g20
((lp525
(I6
I4
tp526
a(I4
I8
tp527
a(I12
I7
tp528
a(I10
I6
tp529
a(I7
I5
tp530
a(I12
I11
tp531
a(I9
I6
tp532
a(I1
I2
tp533
a(I11
I7
tp534
a(I10
I7
tp535
ag522
a(I6
I3
tp536
a(I6
I2
tp537
a(I4
I3
tp538
a(I3
I4
tp539
a(I12
I8
tp540
atp541
Rp542
sg15
I13
sg28
g20
((lp543
(I2
I7
tp544
a(I12
I1
tp545
a(I9
I2
tp546
a(I2
I8
tp547
a(I5
I7
tp548
a(I10
I0
tp549
a(I1
I4
tp550
a(I0
I12
tp551
a(I7
I4
tp552
a(I10
I9
tp553
a(I4
I2
tp554
a(I11
I4
tp555
a(I11
I6
tp556
a(I1
I9
tp557
atp558
Rp559
sg13
((I9
I11
tp560
(I9
I10
tp561
(I4
I7
tp562
(I4
I12
tp563
(I7
I1
tp564
(I1
I8
tp565
(I1
I6
tp566
tp567
sg14
I13
sbs(iproblems
RoomID
p568
(dp569
g10
I10
sg11
(I6
I9
tp570
sg13
I5
sg14
I12
sg15
I12
sg16
I2685440357799139976
sb(imulti_robot_problem
MultiRobotState
p571
(dp572
g19
g20
((lp573
(I4
I10
tp574
ag570
a(I9
I1
tp575
a(I5
I11
tp576
a(I3
I0
tp577
a(I0
I7
tp578
a(I3
I9
tp579
a(I0
I5
tp580
a(I1
I4
tp581
a(I0
I3
tp582
a(I4
I0
tp583
a(I1
I2
tp584
a(I11
I10
tp585
a(I6
I10
tp586
a(I5
I6
tp587
a(I9
I11
tp588
a(I7
I9
tp589
a(I4
I5
tp590
a(I3
I5
tp591
a(I3
I4
tp592
a(I2
I4
tp593
a(I1
I9
tp594
atp595
Rp596
sg15
I12
sg28
g20
((lp597
(I11
I7
tp598
a(I8
I3
tp599
a(I10
I11
tp600
a(I7
I1
tp601
a(I10
I5
tp602
a(I8
I10
tp603
a(I6
I3
tp604
a(I3
I6
tp605
a(I9
I10
tp606
a(I6
I5
tp607
atp608
Rp609
sg13
((I7
I7
tp610
(I0
I0
tp611
(I11
I9
tp612
(I0
I2
tp613
(I4
I1
tp614
tp615
sg14
I12
sbs(iproblems
RoomID
p616
(dp617
g10
I11
sg11
(I2
I7
tp618
sg13
I6
sg14
I11
sg15
I13
sg16
I403795515464475257
sb(imulti_robot_problem
MultiRobotState
p619
(dp620
g19
g20
((lp621
g618
a(I10
I8
tp622
a(I1
I7
tp623
a(I3
I10
tp624
a(I4
I4
tp625
a(I1
I4
tp626
a(I12
I5
tp627
a(I0
I6
tp628
a(I0
I5
tp629
a(I3
I6
tp630
a(I2
I2
tp631
a(I0
I8
tp632
a(I7
I9
tp633
atp634
Rp635
sg15
I13
sg28
g20
((lp636
(I6
I4
tp637
a(I0
I0
tp638
a(I2
I9
tp639
a(I11
I5
tp640
a(I8
I9
tp641
a(I11
I1
tp642
a(I2
I3
tp643
a(I1
I10
tp644
a(I12
I2
tp645
a(I0
I3
tp646
a(I5
I2
tp647
atp648
Rp649
sg13
((I10
I3
tp650
(I7
I2
tp651
(I7
I0
tp652
(I3
I1
tp653
(I5
I10
tp654
(I9
I4
tp655
tp656
sg14
I11
sbs(iproblems
RoomID
p657
(dp658
g10
I11
sg11
(I11
I9
tp659
sg13
I7
sg14
I12
sg15
I12
sg16
I5891625650498269233
sb(imulti_robot_problem
MultiRobotState
p660
(dp661
g19
g20
((lp662
(I4
I4
tp663
a(I4
I8
tp664
a(I5
I6
tp665
a(I8
I11
tp666
ag659
a(I7
I7
tp667
a(I7
I1
tp668
a(I9
I10
tp669
a(I3
I9
tp670
a(I1
I9
tp671
a(I6
I7
tp672
a(I10
I7
tp673
a(I7
I6
tp674
a(I5
I7
tp675
a(I2
I11
tp676
a(I6
I11
tp677
a(I9
I11
tp678
a(I7
I10
tp679
a(I10
I9
tp680
atp681
Rp682
sg15
I12
sg28
g20
((lp683
(I11
I7
tp684
a(I11
I4
tp685
a(I4
I6
tp686
a(I5
I11
tp687
a(I8
I10
tp688
a(I0
I5
tp689
a(I8
I7
tp690
a(I1
I7
tp691
a(I10
I1
tp692
a(I1
I1
tp693
a(I5
I5
tp694
atp695
Rp696
sg13
((I6
I8
tp697
(I9
I2
tp698
(I0
I6
tp699
(I10
I3
tp700
(I9
I5
tp701
(I5
I0
tp702
(I9
I8
tp703
tp704
sg14
I12
sbssg149
S'heavy_roomset'
p705
sbsg149
g151
sg152
(dp706
g472
((lp707
(F32.520000000004075
I113
tp708
aF40.010000000002037
tp709
sg520
((lp710
F42.349999999998545
tp711
sg568
((lp712
(F3.2300000000032014
I58
tp713
aF40.120000000002619
tp714
sg616
((lp715
(F22.389999999999418
I19
tp716
aF40.610000000000582
tp717
sg657
((lp718
F42.110000000000582
tp719
ssba(imeasure_core
ProblemSetSolution
p720
(dp721
g3
g4
sg149
S"AnytimeBeam-w15-gf(1.3, 'exp')_with_PowerHeuristic2"
p722
sg152
(dp723
g8
((lp724
(F0.08999999999650754
I45
tp725
a(F2.2900000000008731
I44
tp726
a(F2.9000000000014552
I37
tp727
a(F3.5
I36
tp728
a(F4.1199999999953434
I34
tp729
a(F6.180000000000291
I33
tp730
a(F8.4000000000014552
I31
tp731
a(F11.32999999999447
I30
tp732
a(F14.479999999995925
I28
tp733
a(F16.889999999999418
I26
tp734
a(F21.879999999997381
I25
tp735
a(F28.309999999997672
I24
tp736
aF40.0
tp737
sg41
((lp738
(F0.73999999999796273
I20
tp739
aF40.19999999999709
tp740
sg70
((lp741
(F6.1299999999973807
I134
tp742
aF40.010000000002037
tp743
sg98
((lp744
(F0.049999999995634425
I41
tp745
a(F2.1299999999973807
I35
tp746
a(F3.2699999999967986
I33
tp747
a(F4.5199999999967986
I31
tp748
a(F5.8300000000017462
I29
tp749
a(F8.1500000000014552
I27
tp750
a(F11.369999999995343
I25
tp751
a(F14.099999999998545
I23
tp752
aF40.0
tp753
sg124
((lp754
(F0.38999999999941792
I8
tp755
aF40.319999999999709
tp756
ssba(imeasure_core
ProblemSetSolution
p757
(dp758
g3
g191
sg149
g722
sg152
(dp759
g194
((lp760
F40.069999999999709
tp761
sg246
((lp762
(F3.3000000000029104
I127
tp763
aF40.010000000002037
tp764
sg296
((lp765
(F0.099999999998544808
I25
tp766
aF40.009999999994761
tp767
sg346
((lp768
(F0.37000000000261934
I12
tp769
aF40.209999999999127
tp770
sg394
((lp771
(F2.2300000000032014
I64
tp772
aF40.100000000005821
tp773
ssba(imeasure_core
ProblemSetSolution
p774
(dp775
g3
g469
sg149
g722
sg152
(dp776
g472
((lp777
(F15.190000000002328
I113
tp778
aF40.040000000000873
tp779
sg520
((lp780
F42.319999999999709
tp781
sg568
((lp782
(F4.3100000000049477
I58
tp783
aF40.020000000004075
tp784
sg616
((lp785
(F23.239999999997963
I19
tp786
aF40.430000000000291
tp787
sg657
((lp788
F42.169999999998254
tp789
ssba(imeasure_core
ProblemSetSolution
p790
(dp791
g3
g4
sg149
S"AnytimeBeam-w25-gf(1.3, 'exp')_with_PowerHeuristic2"
p792
sg152
(dp793
g8
((lp794
(F0.12000000000261934
I45
tp795
a(F1.8000000000029104
I44
tp796
a(F2.4199999999982538
I39
tp797
a(F2.7200000000011642
I37
tp798
a(F3.3300000000017462
I36
tp799
a(F3.9599999999991269
I34
tp800
a(F6.0199999999967986
I33
tp801
a(F8.2399999999979627
I31
tp802
a(F11.169999999998254
I30
tp803
a(F14.339999999996508
I28
tp804
a(F16.75
I26
tp805
a(F21.739999999997963
I25
tp806
a(F28.150000000001455
I24
tp807
aF40.0
tp808
sg41
((lp809
(F0.81999999999970896
I20
tp810
aF40.169999999998254
tp811
sg70
((lp812
(F7.25
I134
tp813
aF40.060000000004948
tp814
sg98
((lp815
(F0.11999999999534339
I47
tp816
a(F3.3699999999953434
I45
tp817
a(F4.3999999999941792
I43
tp818
a(F5.3799999999973807
I35
tp819
a(F6.5199999999967986
I33
tp820
a(F7.7899999999935972
I31
tp821
a(F9.0899999999965075
I29
tp822
a(F11.409999999996217
I27
tp823
a(F14.629999999997381
I25
tp824
a(F17.339999999996508
I23
tp825
aF40.0
tp826
sg124
((lp827
(F0.42999999999301508
I8
tp828
aF40.159999999996217
tp829
ssba(imeasure_core
ProblemSetSolution
p830
(dp831
g3
g191
sg149
g792
sg152
(dp832
g194
((lp833
F40.080000000001746
tp834
sg246
((lp835
(F3.7699999999967986
I127
tp836
aF40.069999999999709
tp837
sg296
((lp838
(F0.11999999999534339
I25
tp839
aF40.0
tp840
sg346
((lp841
(F0.43000000000029104
I12
tp842
aF40.190000000002328
tp843
sg394
((lp844
(F2.5099999999947613
I64
tp845
aF40.029999999998836
tp846
ssba(imeasure_core
ProblemSetSolution
p847
(dp848
g3
g469
sg149
g792
sg152
(dp849
g472
((lp850
(F16.360000000000582
I113
tp851
aF40.139999999999418
tp852
sg520
((lp853
F42.259999999994761
tp854
sg568
((lp855
(F4.7100000000064028
I58
tp856
aF40.0
tp857
sg616
((lp858
(F23.450000000004366
I19
tp859
aF40.600000000005821
tp860
sg657
((lp861
F42.089999999996508
tp862
ssba(imeasure_core
ProblemSetSolution
p863
(dp864
g3
g4
sg149
S"AnytimeBeam-w35-gf(1.3, 'exp')_with_PowerHeuristic2"
p865
sg152
(dp866
g8
((lp867
(F0.1599999999962165
I45
tp868
a(F1.5899999999965075
I44
tp869
a(F2.2099999999991269
I37
tp870
a(F2.8099999999976717
I36
tp871
a(F3.430000000000291
I34
tp872
a(F5.5
I33
tp873
a(F7.7200000000011642
I31
tp874
a(F10.659999999996217
I30
tp875
a(F13.839999999996508
I28
tp876
a(F16.269999999996799
I26
tp877
a(F21.299999999995634
I25
tp878
a(F27.739999999997963
I24
tp879
aF40.0
tp880
sg41
((lp881
(F0.91999999999825377
I20
tp882
aF40.029999999998836
tp883
sg70
((lp884
(F7.8400000000037835
I134
tp885
aF40.0
tp886
sg98
((lp887
(F0.13999999999941792
I47
tp888
a(F2.4899999999979627
I45
tp889
a(F3.5199999999967986
I43
tp890
a(F4.5
I35
tp891
a(F5.6500000000014552
I33
tp892
a(F6.9199999999982538
I31
tp893
a(F8.2300000000032014
I29
tp894
a(F10.559999999997672
I27
tp895
a(F13.790000000000873
I25
tp896
a(F16.529999999998836
I23
tp897
aF40.0
tp898
sg124
((lp899
(F0.47000000000116415
I8
tp900
aF40.279999999998836
tp901
ssba(imeasure_core
ProblemSetSolution
p902
(dp903
g3
g191
sg149
g865
sg152
(dp904
g194
((lp905
F40.200000000004366
tp906
sg246
((lp907
(F4.1599999999962165
I127
tp908
aF40.059999999997672
tp909
sg296
((lp910
(F0.12000000000261934
I25
tp911
aF40.010000000002037
tp912
sg346
((lp913
(F0.50999999999476131
I12
tp914
aF40.069999999999709
tp915
sg394
((lp916
(F2.75
I64
tp917
aF40.209999999999127
tp918
ssba(imeasure_core
ProblemSetSolution
p919
(dp920
g3
g469
sg149
g865
sg152
(dp921
g472
((lp922
(F17.239999999997963
I113
tp923
aF40.239999999997963
tp924
sg520
((lp925
F42.479999999995925
tp926
sg568
((lp927
(F5.1600000000034925
I58
tp928
aF40.110000000000582
tp929
sg616
((lp930
(F23.970000000001164
I19
tp931
aF41.200000000004366
tp932
sg657
((lp933
F42.259999999994761
tp934
ssba(imeasure_core
ProblemSetSolution
p935
(dp936
g3
g4
sg149
S"AnytimeBeam-w45-gf(1.3, 'exp')_with_PowerHeuristic2"
p937
sg152
(dp938
g8
((lp939
(F0.15000000000145519
I45
tp940
a(F1.2399999999979627
I44
tp941
a(F1.8499999999985448
I37
tp942
a(F2.4500000000043656
I36
tp943
a(F3.0800000000017462
I34
tp944
a(F5.1399999999994179
I33
tp945
a(F7.3600000000005821
I31
tp946
a(F10.290000000000873
I30
tp947
a(F13.459999999999127
I28
tp948
a(F15.860000000000582
I26
tp949
a(F20.860000000000582
I25
tp950
a(F27.290000000000873
I24
tp951
aF40.0
tp952
sg41
((lp953
(F1.0100000000020373
I20
tp954
aF40.020000000004075
tp955
sg70
((lp956
(F8.4199999999982538
I134
tp957
aF40.039999999993597
tp958
sg98
((lp959
(F0.15000000000145519
I47
tp960
a(F2.1300000000046566
I45
tp961
a(F3.1500000000014552
I43
tp962
a(F4.1400000000066939
I35
tp963
a(F5.2800000000061118
I33
tp964
a(F6.5400000000008731
I31
tp965
a(F7.8500000000058208
I29
tp966
a(F10.17000000000553
I27
tp967
a(F13.390000000006694
I25
tp968
a(F16.120000000002619
I23
tp969
aF40.0
tp970
sg124
((lp971
(F0.52000000000407454
I8
tp972
aF40.290000000000873
tp973
ssba(imeasure_core
ProblemSetSolution
p974
(dp975
g3
g191
sg149
g937
sg152
(dp976
g194
((lp977
F40.25
tp978
sg246
((lp979
(F4.4599999999991269
I127
tp980
aF40.029999999998836
tp981
sg296
((lp982
(F0.12000000000261934
I25
tp983
aF40.0
tp984
sg346
((lp985
(F0.58000000000174623
I12
tp986
aF40.0
tp987
sg394
((lp988
(F2.9700000000011642
I64
tp989
aF40.310000000004948
tp990
ssba(imeasure_core
ProblemSetSolution
p991
(dp992
g3
g469
sg149
g937
sg152
(dp993
g472
((lp994
(F17.899999999994179
I113
tp995
aF40.039999999993597
tp996
sg520
((lp997
F42.360000000000582
tp998
sg568
((lp999
(F5.5
I58
tp1000
aF40.069999999999709
tp1001
sg616
((lp1002
(F24.139999999999418
I19
tp1003
aF41.450000000004366
tp1004
sg657
((lp1005
F42.529999999998836
tp1006
ssba(imeasure_core
ProblemSetSolution
p1007
(dp1008
g3
g4
sg149
S"AnytimeBeam-w5-gf(1.3, 'exp')_with_LinearHeuristic"
p1009
sg152
(dp1010
g8
((lp1011
(F0.010000000002037268
I24
tp1012
aF40.0
tp1013
sg41
((lp1014
F40.159999999996217
tp1015
sg70
((lp1016
F40.180000000000291
tp1017
sg98
((lp1018
(F0.020000000004074536
I23
tp1019
aF40.0
tp1020
sg124
((lp1021
(F0.18000000000029104
I4
tp1022
aF40.260000000002037
tp1023
ssba(imeasure_core
ProblemSetSolution
p1024
(dp1025
g3
g191
sg149
g1009
sg152
(dp1026
g194
((lp1027
F40.080000000001746
tp1028
sg246
((lp1029
(F20.430000000000291
I326
tp1030
aF40.110000000000582
tp1031
sg296
((lp1032
(F1.3099999999976717
I60
tp1033
aF40.0
tp1034
sg346
((lp1035
F40.129999999997381
tp1036
sg394
((lp1037
F40.069999999999709
tp1038
ssba(imeasure_core
ProblemSetSolution
p1039
(dp1040
g3
g469
sg149
g1009
sg152
(dp1041
g472
((lp1042
F40.019999999996799
tp1043
sg520
((lp1044
F43.480000000003201
tp1045
sg568
((lp1046
F40.239999999997963
tp1047
sg616
((lp1048
(F15.400000000001455
I10
tp1049
aF41.650000000001455
tp1050
sg657
((lp1051
F46.309999999997672
tp1052
ssba(imeasure_core
ProblemSetSolution
p1053
(dp1054
g3
g4
sg149
S"AnytimeBeam-w15-gf(1.3, 'exp')_with_LinearHeuristic"
p1055
sg152
(dp1056
g8
((lp1057
(F0.010000000002037268
I24
tp1058
aF40.0
tp1059
sg41
((lp1060
F40.30000000000291
tp1061
sg70
((lp1062
F40.019999999996799
tp1063
sg98
((lp1064
(F0.010000000002037268
I23
tp1065
aF40.0
tp1066
sg124
((lp1067
(F0.33000000000174623
I4
tp1068
aF40.120000000002619
tp1069
ssba(imeasure_core
ProblemSetSolution
p1070
(dp1071
g3
g191
sg149
g1055
sg152
(dp1072
g194
((lp1073
F40.049999999995634
tp1074
sg246
((lp1075
(F19.840000000003783
I326
tp1076
aF40.069999999999709
tp1077
sg296
((lp1078
(F0.56000000000494765
I60
tp1079
aF40.0
tp1080
sg346
((lp1081
F40.010000000002037
tp1082
sg394
((lp1083
F40.020000000004075
tp1084
ssba(imeasure_core
ProblemSetSolution
p1085
(dp1086
g3
g469
sg149
g1055
sg152
(dp1087
g472
((lp1088
F40.150000000001455
tp1089
sg520
((lp1090
F44.169999999998254
tp1091
sg568
((lp1092
F40.25
tp1093
sg616
((lp1094
(F16.400000000001455
I10
tp1095
aF41.010000000002037
tp1096
sg657
((lp1097
F46.569999999999709
tp1098
ssba(imeasure_core
ProblemSetSolution
p1099
(dp1100
g3
g4
sg149
S"AnytimeBeam-w25-gf(1.3, 'exp')_with_LinearHeuristic"
p1101
sg152
(dp1102
g8
((lp1103
(F0.0099999999947613105
I24
tp1104
aF40.0
tp1105
sg41
((lp1106
F40.419999999998254
tp1107
sg70
((lp1108
F40.230000000003201
tp1109
sg98
((lp1110
(F0.019999999996798579
I23
tp1111
aF40.0
tp1112
sg124
((lp1113
(F0.37999999999738066
I4
tp1114
aF40.189999999995052
tp1115
ssba(imeasure_core
ProblemSetSolution
p1116
(dp1117
g3
g191
sg149
g1101
sg152
(dp1118
g194
((lp1119
F40.029999999998836
tp1120
sg246
((lp1121
(F33.040000000000873
I391
tp1122
aF40.040000000000873
tp1123
sg296
((lp1124
(F7.0800000000017462
I177
tp1125
a(F31.349999999998545
I175
tp1126
aF40.0
tp1127
sg346
((lp1128
F40.269999999996799
tp1129
sg394
((lp1130
F40.210000000006403
tp1131
ssba(imeasure_core
ProblemSetSolution
p1132
(dp1133
g3
g469
sg149
g1101
sg152
(dp1134
g472
((lp1135
F40.55000000000291
tp1136
sg520
((lp1137
F44.529999999998836
tp1138
sg568
((lp1139
F40.080000000001746
tp1140
sg616
((lp1141
(F16.619999999995343
I10
tp1142
aF40.809999999997672
tp1143
sg657
((lp1144
F46.309999999997672
tp1145
ssba(imeasure_core
ProblemSetSolution
p1146
(dp1147
g3
g4
sg149
S"AnytimeBeam-w35-gf(1.3, 'exp')_with_LinearHeuristic"
p1148
sg152
(dp1149
g8
((lp1150
(F0.020000000004074536
I24
tp1151
aF40.0
tp1152
sg41
((lp1153
F40.030000000006112
tp1154
sg70
((lp1155
F40.479999999995925
tp1156
sg98
((lp1157
(F0.020000000004074536
I23
tp1158
aF40.0
tp1159
sg124
((lp1160
(F0.44000000000232831
I4
tp1161
aF40.169999999998254
tp1162
ssba(imeasure_core
ProblemSetSolution
p1163
(dp1164
g3
g191
sg149
g1148
sg152
(dp1165
g194
((lp1166
F40.169999999998254
tp1167
sg246
((lp1168
(F36.069999999999709
I391
tp1169
aF40.0
tp1170
sg296
((lp1171
(F9.3800000000046566
I177
tp1172
a(F23.090000000003783
I175
tp1173
aF40.030000000006112
tp1174
sg346
((lp1175
F40.159999999996217
tp1176
sg394
((lp1177
F40.069999999999709
tp1178
ssba(imeasure_core
ProblemSetSolution
p1179
(dp1180
g3
g469
sg149
g1148
sg152
(dp1181
g472
((lp1182
F40.260000000002037
tp1183
sg520
((lp1184
F45.169999999998254
tp1185
sg568
((lp1186
F40.309999999997672
tp1187
sg616
((lp1188
(F17.150000000001455
I10
tp1189
aF40.160000000003492
tp1190
sg657
((lp1191
F46.690000000002328
tp1192
ssba(imeasure_core
ProblemSetSolution
p1193
(dp1194
g3
g4
sg149
S"AnytimeBeam-w45-gf(1.3, 'exp')_with_LinearHeuristic"
p1195
sg152
(dp1196
g8
((lp1197
(F0.0099999999947613105
I24
tp1198
aF40.0
tp1199
sg41
((lp1200
F40.109999999993306
tp1201
sg70
((lp1202
F40.130000000004657
tp1203
sg98
((lp1204
(F0.019999999996798579
I23
tp1205
aF40.0
tp1206
sg124
((lp1207
(F0.45999999999912689
I4
tp1208
aF40.040000000000873
tp1209
ssba(imeasure_core
ProblemSetSolution
p1210
(dp1211
g3
g191
sg149
g1195
sg152
(dp1212
g194
((lp1213
F40.180000000000291
tp1214
sg246
((lp1215
(F37.519999999996799
I391
tp1216
aF40.019999999996799
tp1217
sg296
((lp1218
(F10.730000000003201
I177
tp1219
a(F25.459999999999127
I175
tp1220
aF40.040000000000873
tp1221
sg346
((lp1222
F40.110000000000582
tp1223
sg394
((lp1224
F40.099999999998545
tp1225
ssba(imeasure_core
ProblemSetSolution
p1226
(dp1227
g3
g469
sg149
g1195
sg152
(dp1228
g472
((lp1229
F40.290000000000873
tp1230
sg520
((lp1231
F45.169999999998254
tp1232
sg568
((lp1233
F40.020000000004075
tp1234
sg616
((lp1235
(F17.319999999999709
I10
tp1236
aF40.569999999999709
tp1237
sg657
((lp1238
F46.639999999999418
tp1239
ssba.