(lp0
(imeasure_core
ProblemSetSolution
p1
(dp2
S'roomset'
p3
(imeasure_core
RoomSet
p4
(dp5
S'rooms'
p6
(dp7
(iproblems
RoomID
p8
(dp9
S'width'
p10
I9
sS'dusts'
p11
I8
sS'seed'
p12
I1689441204489037471
sS'obstacles'
p13
(I0
I4
tp14
sS'robots'
p15
I4
sS'height'
p16
I7
sb(imulti_robot_problem
MultiRobotState
p17
(dp18
S'obstacle_locations'
p19
c__builtin__
frozenset
p20
((lp21
(I0
I1
tp22
a(I1
I2
tp23
a(I3
I2
tp24
a(I8
I1
tp25
a(I4
I3
tp26
ag14
a(I0
I3
tp27
a(I4
I0
tp28
atp29
Rp30
sg10
I9
sS'dirt_locations'
p31
g20
((lp32
(I0
I0
tp33
a(I7
I0
tp34
a(I7
I6
tp35
a(I1
I4
tp36
a(I6
I2
tp37
a(I2
I3
tp38
a(I5
I1
tp39
a(I3
I5
tp40
atp41
Rp42
sg15
((I6
I0
tp43
(I5
I4
tp44
(I6
I6
tp45
(I5
I0
tp46
tp47
sg16
I7
sbs(iproblems
RoomID
p48
(dp49
g10
I10
sg11
I10
sg12
I6660334802794327005
sg13
(I4
I5
tp50
sg15
I3
sg16
I8
sb(imulti_robot_problem
MultiRobotState
p51
(dp52
g19
g20
((lp53
(I9
I0
tp54
a(I2
I6
tp55
ag50
a(I1
I6
tp56
a(I3
I6
tp57
a(I8
I4
tp58
atp59
Rp60
sg10
I10
sg31
g20
((lp61
(I9
I1
tp62
a(I5
I6
tp63
a(I4
I1
tp64
a(I1
I5
tp65
a(I7
I5
tp66
a(I9
I4
tp67
a(I1
I7
tp68
a(I9
I6
tp69
a(I7
I2
tp70
a(I8
I2
tp71
atp72
Rp73
sg15
((I7
I3
tp74
(I4
I7
tp75
(I4
I2
tp76
tp77
sg16
I8
sbs(iproblems
RoomID
p78
(dp79
g10
I7
sg11
I6
sg12
I3914746131789064238
sg13
(I3
I0
tp80
sg15
I4
sg16
I10
sb(imulti_robot_problem
MultiRobotState
p81
(dp82
g19
g20
((lp83
g80
a(I6
I1
tp84
a(I2
I3
tp85
a(I5
I0
tp86
a(I2
I2
tp87
a(I0
I3
tp88
a(I0
I8
tp89
a(I4
I1
tp90
a(I3
I5
tp91
atp92
Rp93
sg10
I7
sg31
g20
((lp94
(I3
I3
tp95
a(I1
I7
tp96
a(I0
I7
tp97
a(I0
I4
tp98
a(I3
I4
tp99
a(I6
I5
tp100
atp101
Rp102
sg15
((I1
I8
tp103
(I5
I1
tp104
(I5
I3
tp105
(I1
I9
tp106
tp107
sg16
I10
sbs(iproblems
RoomID
p108
(dp109
g10
I9
sg11
I6
sg12
I3119042104763040036
sg13
(I8
I4
tp110
sg15
I4
sg16
I10
sb(imulti_robot_problem
MultiRobotState
p111
(dp112
g19
g20
((lp113
(I1
I2
tp114
a(I6
I7
tp115
a(I4
I8
tp116
a(I7
I6
tp117
a(I8
I5
tp118
ag110
atp119
Rp120
sg10
I9
sg31
g20
((lp121
(I6
I8
tp122
a(I6
I6
tp123
a(I3
I0
tp124
a(I6
I5
tp125
a(I8
I7
tp126
a(I7
I2
tp127
atp128
Rp129
sg15
((I5
I9
tp130
(I6
I1
tp131
(I3
I4
tp132
(I2
I7
tp133
tp134
sg16
I10
sbs(iproblems
RoomID
p135
(dp136
g10
I9
sg11
I7
sg12
I4640892725076559864
sg13
(I2
I5
tp137
sg15
I5
sg16
I9
sb(imulti_robot_problem
MultiRobotState
p138
(dp139
g19
g20
((lp140
(I2
I6
tp141
a(I6
I7
tp142
a(I1
I5
tp143
a(I3
I1
tp144
a(I0
I6
tp145
a(I1
I6
tp146
a(I0
I4
tp147
ag137
a(I3
I4
tp148
atp149
Rp150
sg10
I9
sg31
g20
((lp151
(I7
I3
tp152
a(I7
I1
tp153
a(I8
I1
tp154
a(I3
I8
tp155
a(I4
I2
tp156
a(I8
I6
tp157
a(I5
I3
tp158
atp159
Rp160
sg15
((I6
I5
tp161
(I8
I4
tp162
(I7
I6
tp163
(I6
I0
tp164
(I6
I3
tp165
tp166
sg16
I9
sbssS'name'
p167
S'easy_roomset'
p168
sbsS'name'
p169
S"AnytimeBeam-w20-gf(2, 'lin')_with_PowerHeuristic2"
p170
sS'solutions'
p171
(dp172
g8
((lp173
(F0.3500000000003638
I8
tp174
aF40.090000000000146
tp175
sg48
((lp176
(F0.25
I23
tp177
aF40.039999999999054
tp178
sg108
((lp179
(F0.46999999999934516
I11
tp180
aF40.030000000000655
tp181
sg135
((lp182
(F1.3699999999989814
I6
tp183
aF40.119999999998981
tp184
sg78
((lp185
(F0.21000000000094587
I7
tp186
aF40.010000000000218
tp187
ssba(imeasure_core
ProblemSetSolution
p188
(dp189
g3
(imeasure_core
RoomSet
p190
(dp191
S'rooms'
p192
(dp193
(iproblems
RoomID
p194
(dp195
S'width'
p196
I11
sS'dusts'
p197
I6
sS'seed'
p198
I3119042104763040036
sS'obstacles'
p199
(I5
I5
tp200
sS'robots'
p201
I4
sS'height'
p202
I12
sb(imulti_robot_problem
MultiRobotState
p203
(dp204
S'obstacle_locations'
p205
g20
((lp206
(I3
I0
tp207
a(I9
I8
tp208
a(I10
I6
tp209
a(I2
I1
tp210
a(I8
I9
tp211
a(I0
I10
tp212
a(I10
I3
tp213
ag200
a(I10
I7
tp214
a(I4
I4
tp215
a(I2
I2
tp216
a(I7
I9
tp217
a(I1
I1
tp218
a(I10
I4
tp219
a(I4
I5
tp220
a(I2
I3
tp221
a(I3
I3
tp222
a(I4
I6
tp223
a(I9
I2
tp224
a(I3
I4
tp225
a(I9
I5
tp226
a(I7
I8
tp227
a(I2
I4
tp228
atp229
Rp230
sg196
I11
sS'dirt_locations'
p231
g20
((lp232
(I8
I3
tp233
a(I5
I10
tp234
a(I8
I8
tp235
a(I9
I4
tp236
a(I8
I6
tp237
a(I10
I9
tp238
atp239
Rp240
sg201
((I6
I11
tp241
(I7
I2
tp242
(I2
I8
tp243
(I8
I10
tp244
tp245
sg202
I12
sbs(iproblems
RoomID
p246
(dp247
g196
I9
sg197
I6
sg198
I3914746131789064238
sg199
(I4
I8
tp248
sg201
I4
sg202
I12
sb(imulti_robot_problem
MultiRobotState
p249
(dp250
g205
g20
((lp251
(I5
I7
tp252
a(I6
I6
tp253
a(I0
I10
tp254
a(I0
I3
tp255
a(I8
I5
tp256
a(I4
I0
tp257
a(I6
I7
tp258
a(I3
I3
tp259
a(I8
I1
tp260
a(I7
I6
tp261
ag248
a(I5
I0
tp262
a(I2
I2
tp263
a(I8
I6
tp264
a(I4
I5
tp265
a(I0
I5
tp266
a(I8
I7
tp267
a(I5
I3
tp268
a(I7
I0
tp269
a(I4
I6
tp270
a(I6
I1
tp271
a(I3
I1
tp272
a(I0
I9
tp273
a(I2
I3
tp274
atp275
Rp276
sg196
I9
sg231
g20
((lp277
(I4
I4
tp278
a(I2
I11
tp279
a(I2
I10
tp280
a(I1
I8
tp281
a(I1
I9
tp282
a(I4
I3
tp283
atp284
Rp285
sg201
((I1
I10
tp286
(I6
I2
tp287
(I7
I3
tp288
(I1
I11
tp289
tp290
sg202
I12
sbs(iproblems
RoomID
p291
(dp292
g196
I10
sg197
I9
sg198
I3273124617966689144
sg199
(I9
I9
tp293
sg201
I3
sg202
I10
sb(imulti_robot_problem
MultiRobotState
p294
(dp295
g205
g20
((lp296
(I7
I3
tp297
a(I1
I3
tp298
a(I9
I8
tp299
a(I3
I2
tp300
a(I1
I6
tp301
a(I2
I5
tp302
a(I3
I3
tp303
a(I7
I6
tp304
a(I6
I3
tp305
a(I8
I6
tp306
a(I5
I3
tp307
a(I9
I7
tp308
a(I6
I4
tp309
a(I5
I4
tp310
a(I4
I5
tp311
a(I7
I5
tp312
a(I2
I3
tp313
a(I0
I8
tp314
a(I9
I6
tp315
a(I6
I5
tp316
a(I5
I5
tp317
ag293
a(I4
I3
tp318
a(I2
I4
tp319
atp320
Rp321
sg196
I10
sg231
g20
((lp322
(I7
I0
tp323
a(I3
I0
tp324
a(I6
I1
tp325
a(I3
I1
tp326
a(I5
I0
tp327
a(I2
I2
tp328
a(I3
I4
tp329
a(I1
I1
tp330
a(I8
I4
tp331
atp332
Rp333
sg201
((I0
I7
tp334
(I2
I1
tp335
(I6
I6
tp336
tp337
sg202
I10
sbs(iproblems
RoomID
p338
(dp339
g196
I10
sg197
I9
sg198
I4253868527325451640
sg199
(I9
I10
tp340
sg201
I3
sg202
I11
sb(imulti_robot_problem
MultiRobotState
p341
(dp342
g205
g20
((lp343
(I7
I3
tp344
a(I4
I7
tp345
a(I2
I6
tp346
a(I5
I0
tp347
a(I4
I8
tp348
a(I3
I4
tp349
a(I7
I1
tp350
a(I6
I9
tp351
a(I8
I10
tp352
ag340
a(I3
I9
tp353
a(I1
I6
tp354
a(I7
I10
tp355
a(I2
I3
tp356
a(I3
I7
tp357
a(I2
I5
tp358
a(I3
I5
tp359
a(I8
I5
tp360
a(I2
I4
tp361
a(I5
I8
tp362
a(I7
I9
tp363
atp364
Rp365
sg196
I10
sg231
g20
((lp366
(I3
I8
tp367
a(I5
I10
tp368
a(I6
I8
tp369
a(I7
I6
tp370
a(I8
I9
tp371
a(I0
I10
tp372
a(I9
I4
tp373
a(I0
I9
tp374
a(I5
I3
tp375
atp376
Rp377
sg201
((I3
I6
tp378
(I0
I8
tp379
(I2
I1
tp380
tp381
sg202
I11
sbs(iproblems
RoomID
p382
(dp383
g196
I12
sg197
I5
sg198
I659184109953178577
sg199
(I5
I7
tp384
sg201
I4
sg202
I9
sb(imulti_robot_problem
MultiRobotState
p385
(dp386
g205
g20
((lp387
(I7
I3
tp388
a(I4
I7
tp389
a(I6
I6
tp390
a(I7
I7
tp391
a(I9
I4
tp392
a(I2
I5
tp393
a(I10
I3
tp394
a(I7
I2
tp395
a(I3
I3
tp396
a(I3
I6
tp397
a(I8
I6
tp398
a(I6
I4
tp399
a(I8
I2
tp400
a(I4
I5
tp401
a(I11
I0
tp402
a(I7
I5
tp403
a(I0
I8
tp404
a(I6
I5
tp405
a(I4
I6
tp406
a(I6
I1
tp407
ag384
a(I4
I3
tp408
a(I3
I4
tp409
atp410
Rp411
sg196
I12
sg231
g20
((lp412
(I10
I8
tp413
a(I4
I1
tp414
a(I0
I2
tp415
a(I1
I6
tp416
a(I10
I4
tp417
atp418
Rp419
sg201
((I10
I0
tp420
(I7
I0
tp421
(I2
I6
tp422
(I8
I3
tp423
tp424
sg202
I9
sbssS'name'
p425
S'mild_roomset'
p426
sbsg169
g170
sg171
(dp427
g194
((lp428
(F6.7800000000006548
I164
tp429
aF40.030000000000655
tp430
sg246
((lp431
(F0.22999999999956344
I6
tp432
aF40.119999999998981
tp433
sg291
((lp434
(F2.0800000000017462
I89
tp435
a(F3.9000000000014552
I67
tp436
a(F8.4900000000016007
I52
tp437
aF40.010000000000218
tp438
sg338
((lp439
(F0.38000000000101863
I32
tp440
aF40.06000000000131
tp441
sg382
((lp442
(F1.25
I18
tp443
aF40.010000000000218
tp444
ssba(imeasure_core
ProblemSetSolution
p445
(dp446
g3
(imeasure_core
RoomSet
p447
(dp448
S'rooms'
p449
(dp450
(iproblems
RoomID
p451
(dp452
S'width'
p453
I12
sS'dusts'
p454
I13
sS'seed'
p455
I1689441204489037471
sS'obstacles'
p456
(I3
I4
tp457
sS'robots'
p458
I6
sS'height'
p459
I10
sb(imulti_robot_problem
MultiRobotState
p460
(dp461
S'obstacle_locations'
p462
g20
((lp463
(I7
I3
tp464
a(I1
I3
tp465
a(I10
I6
tp466
a(I7
I7
tp467
a(I6
I2
tp468
a(I1
I6
tp469
a(I9
I4
tp470
a(I5
I1
tp471
a(I8
I5
tp472
a(I11
I5
tp473
a(I10
I3
tp474
a(I0
I4
tp475
a(I8
I6
tp476
a(I4
I1
tp477
a(I1
I1
tp478
a(I9
I3
tp479
a(I0
I5
tp480
a(I8
I7
tp481
a(I4
I2
tp482
a(I2
I7
tp483
ag457
a(I3
I8
tp484
a(I4
I3
tp485
a(I9
I5
tp486
a(I5
I2
tp487
a(I0
I2
tp488
a(I8
I4
tp489
atp490
Rp491
sg453
I12
sS'dirt_locations'
p492
g20
((lp493
(I7
I4
tp494
a(I9
I0
tp495
a(I0
I0
tp496
a(I10
I4
tp497
a(I4
I8
tp498
a(I8
I1
tp499
a(I11
I2
tp500
a(I5
I4
tp501
a(I8
I9
tp502
a(I11
I8
tp503
a(I2
I6
tp504
a(I2
I3
tp505
a(I1
I5
tp506
atp507
Rp508
sg458
((I8
I0
tp509
(I7
I6
tp510
(I8
I8
tp511
(I7
I0
tp512
(I2
I4
tp513
(I9
I9
tp514
tp515
sg459
I10
sbs(iproblems
RoomID
p516
(dp517
g453
I13
sg454
I15
sg455
I6660334802794327005
sg456
(I10
I7
tp518
sg458
I6
sg459
I11
sb(imulti_robot_problem
MultiRobotState
p519
(dp520
g462
g20
((lp521
(I11
I7
tp522
a(I4
I7
tp523
a(I9
I0
tp524
a(I3
I8
tp525
a(I10
I8
tp526
a(I5
I6
tp527
a(I2
I8
tp528
a(I5
I7
tp529
a(I9
I9
tp530
a(I8
I10
tp531
a(I9
I10
tp532
ag518
a(I1
I8
tp533
a(I10
I0
tp534
a(I1
I10
tp535
a(I1
I5
tp536
a(I2
I4
tp537
atp538
Rp539
sg453
I13
sg492
g20
((lp540
(I2
I7
tp541
a(I12
I2
tp542
a(I6
I9
tp543
a(I10
I6
tp544
a(I12
I1
tp545
a(I2
I9
tp546
a(I12
I0
tp547
a(I10
I3
tp548
a(I11
I2
tp549
a(I6
I10
tp550
a(I12
I5
tp551
a(I6
I3
tp552
a(I1
I7
tp553
a(I12
I9
tp554
a(I12
I8
tp555
atp556
Rp557
sg458
((I9
I5
tp558
(I5
I10
tp559
(I5
I3
tp560
(I5
I1
tp561
(I9
I3
tp562
(I7
I8
tp563
tp564
sg459
I11
sbs(iproblems
RoomID
p565
(dp566
g453
I12
sg454
I11
sg455
I3119042104763040036
sg456
(I7
I6
tp567
sg458
I7
sg459
I13
sb(imulti_robot_problem
MultiRobotState
p568
(dp569
g462
g20
((lp570
(I5
I4
tp571
a(I9
I0
tp572
a(I5
I10
tp573
a(I10
I5
tp574
a(I4
I5
tp575
a(I9
I8
tp576
a(I10
I6
tp577
a(I6
I0
tp578
a(I9
I9
tp579
a(I8
I9
tp580
a(I10
I7
tp581
a(I2
I12
tp582
a(I8
I6
tp583
a(I9
I6
tp584
ag567
a(I11
I6
tp585
a(I9
I7
tp586
atp587
Rp588
sg453
I12
sg492
g20
((lp589
(I1
I2
tp590
a(I8
I0
tp591
a(I5
I11
tp592
a(I5
I6
tp593
a(I7
I8
tp594
a(I4
I4
tp595
a(I8
I10
tp596
a(I0
I11
tp597
a(I2
I3
tp598
a(I3
I4
tp599
a(I4
I0
tp600
atp601
Rp602
sg458
((I7
I12
tp603
(I8
I2
tp604
(I4
I6
tp605
(I3
I9
tp606
(I9
I11
tp607
(I11
I9
tp608
(I9
I3
tp609
tp610
sg459
I13
sbs(iproblems
RoomID
p611
(dp612
g453
I10
sg454
I11
sg455
I3914746131789064238
sg456
(I6
I1
tp613
sg458
I7
sg459
I13
sb(imulti_robot_problem
MultiRobotState
p614
(dp615
g462
g20
((lp616
(I0
I0
tp617
a(I7
I0
tp618
a(I9
I1
tp619
a(I2
I9
tp620
a(I7
I1
tp621
a(I9
I2
tp622
ag613
a(I6
I3
tp623
a(I8
I1
tp624
a(I6
I5
tp625
a(I5
I1
tp626
a(I7
I8
tp627
a(I7
I2
tp628
a(I5
I5
tp629
atp630
Rp631
sg453
I10
sg492
g20
((lp632
(I4
I7
tp633
a(I3
I3
tp634
a(I4
I5
tp635
a(I4
I4
tp636
a(I1
I4
tp637
a(I0
I11
tp638
a(I0
I5
tp639
a(I0
I10
tp640
a(I8
I7
tp641
a(I9
I5
tp642
a(I5
I3
tp643
atp644
Rp645
sg458
((I1
I11
tp646
(I8
I4
tp647
(I2
I12
tp648
(I1
I9
tp649
(I2
I11
tp650
(I5
I4
tp651
(I5
I0
tp652
tp653
sg459
I13
sbs(iproblems
RoomID
p654
(dp655
g453
I12
sg454
I12
sg455
I4640892725076559864
sg456
(I8
I7
tp656
sg458
I7
sg459
I12
sb(imulti_robot_problem
MultiRobotState
p657
(dp658
g462
g20
((lp659
(I5
I9
tp660
a(I6
I9
tp661
a(I4
I8
tp662
a(I5
I6
tp663
a(I2
I8
tp664
a(I6
I2
tp665
a(I3
I7
tp666
a(I5
I1
tp667
a(I8
I5
tp668
a(I2
I9
tp669
a(I2
I0
tp670
a(I7
I6
tp671
a(I8
I10
tp672
a(I6
I3
tp673
a(I1
I1
tp674
a(I9
I7
tp675
a(I4
I5
tp676
a(I6
I0
tp677
a(I2
I10
tp678
ag656
a(I1
I0
tp679
a(I7
I9
tp680
a(I7
I0
tp681
a(I6
I8
tp682
a(I5
I7
tp683
a(I7
I4
tp684
a(I0
I6
tp685
a(I1
I8
tp686
a(I0
I9
tp687
a(I5
I2
tp688
a(I0
I2
tp689
atp690
Rp691
sg453
I12
sg492
g20
((lp692
(I2
I7
tp693
a(I6
I4
tp694
a(I11
I10
tp695
a(I4
I6
tp696
a(I11
I8
tp697
a(I11
I2
tp698
a(I9
I3
tp699
a(I3
I2
tp700
a(I8
I8
tp701
a(I0
I5
tp702
a(I10
I3
tp703
a(I5
I3
tp704
atp705
Rp706
sg458
((I8
I6
tp707
(I11
I5
tp708
(I10
I8
tp709
(I9
I0
tp710
(I9
I4
tp711
(I9
I2
tp712
(I4
I11
tp713
tp714
sg459
I12
sbssS'name'
p715
S'heavy_roomset'
p716
sbsg169
g170
sg171
(dp717
g451
((lp718
F40.270000000000437
tp719
sg516
((lp720
(F16.159999999999854
I11
tp721
aF42.239999999999782
tp722
sg565
((lp723
F45.480000000001382
tp724
sg611
((lp725
F41.229999999999563
tp726
sg654
((lp727
F41.719999999999345
tp728
ssba(imeasure_core
ProblemSetSolution
p729
(dp730
g3
g4
sg169
S"AnytimeBeam-w20-gf(4, 'lin')_with_PowerHeuristic2"
p731
sg171
(dp732
g8
((lp733
(F0.34000000000014552
I8
tp734
aF40.110000000000582
tp735
sg48
((lp736
(F0.26000000000021828
I23
tp737
aF40.019999999998618
tp738
sg108
((lp739
(F0.47999999999956344
I11
tp740
aF40.050000000001091
tp741
sg135
((lp742
(F1.3799999999991996
I6
tp743
aF40.609999999998763
tp744
sg78
((lp745
(F0.21000000000094587
I7
tp746
aF40.020000000000437
tp747
ssba(imeasure_core
ProblemSetSolution
p748
(dp749
g3
g190
sg169
g731
sg171
(dp750
g194
((lp751
(F6.7700000000004366
I164
tp752
aF40.050000000001091
tp753
sg246
((lp754
(F0.22999999999956344
I6
tp755
aF40.090000000000146
tp756
sg291
((lp757
(F2.0900000000001455
I89
tp758
a(F3.9899999999997817
I67
tp759
a(F6.6899999999986903
I52
tp760
aF40.0
tp761
sg338
((lp762
(F0.37999999999919964
I32
tp763
aF40.019999999998618
tp764
sg382
((lp765
(F1.25
I18
tp766
aF40.159999999999854
tp767
ssba(imeasure_core
ProblemSetSolution
p768
(dp769
g3
g447
sg169
g731
sg171
(dp770
g451
((lp771
F40.180000000000291
tp772
sg516
((lp773
(F16.25
I11
tp774
aF42.360000000000582
tp775
sg565
((lp776
F45.6299999999992
tp777
sg611
((lp778
F41.380000000001019
tp779
sg654
((lp780
F40.109999999998763
tp781
ssba(imeasure_core
ProblemSetSolution
p782
(dp783
g3
g4
sg169
S"AnytimeBeam-w20-gf(8, 'lin')_with_PowerHeuristic2"
p784
sg171
(dp785
g8
((lp786
(F0.36000000000058208
I8
tp787
aF40.140000000001237
tp788
sg48
((lp789
(F0.26000000000021828
I23
tp790
aF40.059999999999491
tp791
sg108
((lp792
(F0.47999999999956344
I11
tp793
aF40.010000000000218
tp794
sg135
((lp795
(F1.3799999999991996
I6
tp796
aF40.229999999999563
tp797
sg78
((lp798
(F0.20999999999912689
I7
tp799
aF40.170000000000073
tp800
ssba(imeasure_core
ProblemSetSolution
p801
(dp802
g3
g190
sg169
g784
sg171
(dp803
g194
((lp804
(F6.7900000000008731
I164
tp805
aF40.010000000000218
tp806
sg246
((lp807
(F0.22999999999956344
I6
tp808
aF40.079999999999927
tp809
sg291
((lp810
(F2.0799999999999272
I89
tp811
a(F4.7700000000004366
I52
tp812
aF40.040000000000873
tp813
sg338
((lp814
(F0.38999999999941792
I32
tp815
aF40.069999999999709
tp816
sg382
((lp817
(F1.2600000000002183
I18
tp818
aF40.010000000000218
tp819
ssba(imeasure_core
ProblemSetSolution
p820
(dp821
g3
g447
sg169
g784
sg171
(dp822
g451
((lp823
F40.340000000000146
tp824
sg516
((lp825
(F16.200000000000728
I11
tp826
aF42.460000000000946
tp827
sg565
((lp828
F45.829999999999927
tp829
sg611
((lp830
F41.409999999999854
tp831
sg654
((lp832
F40.090000000000146
tp833
ssba(imeasure_core
ProblemSetSolution
p834
(dp835
g3
g4
sg169
S"AnytimeBeam-w20-gf(16, 'lin')_with_PowerHeuristic2"
p836
sg171
(dp837
g8
((lp838
(F0.3500000000003638
I8
tp839
aF40.030000000000655
tp840
sg48
((lp841
(F0.25999999999839929
I23
tp842
aF40.059999999999491
tp843
sg108
((lp844
(F0.47999999999956344
I11
tp845
aF40.030000000000655
tp846
sg135
((lp847
(F1.3699999999989814
I6
tp848
aF40.159999999999854
tp849
sg78
((lp850
(F0.20999999999912689
I7
tp851
aF40.299999999999272
tp852
ssba(imeasure_core
ProblemSetSolution
p853
(dp854
g3
g190
sg169
g836
sg171
(dp855
g194
((lp856
(F6.7799999999988358
I164
tp857
aF40.020000000000437
tp858
sg246
((lp859
(F0.23999999999978172
I6
tp860
aF40.049999999999272
tp861
sg291
((lp862
(F2.0799999999999272
I89
tp863
a(F5.0799999999999272
I52
tp864
aF40.090000000000146
tp865
sg338
((lp866
(F0.38999999999941792
I32
tp867
aF40.020000000000437
tp868
sg382
((lp869
(F1.25
I18
tp870
aF40.019999999998618
tp871
ssba(imeasure_core
ProblemSetSolution
p872
(dp873
g3
g447
sg169
g836
sg171
(dp874
g451
((lp875
F40.240000000001601
tp876
sg516
((lp877
(F16.199999999998909
I11
tp878
aF42.68999999999869
tp879
sg565
((lp880
F45.630000000001019
tp881
sg611
((lp882
F41.420000000000073
tp883
sg654
((lp884
F40.090000000000146
tp885
ssba(imeasure_core
ProblemSetSolution
p886
(dp887
g3
g4
sg169
S"AnytimeBeam-w20-gf(2, 'lin')_with_LinearHeuristic"
p888
sg171
(dp889
g8
((lp890
(F33.039999999999054
I223
tp891
aF40.179999999998472
tp892
sg48
((lp893
(F2.1599999999998545
I49
tp894
aF40.030000000000655
tp895
sg108
((lp896
(F17.559999999999491
I165
tp897
aF40.0
tp898
sg135
((lp899
(F1.6499999999996362
I6
tp900
aF40.25
tp901
sg78
((lp902
F40.0
tp903
ssba(imeasure_core
ProblemSetSolution
p904
(dp905
g3
g190
sg169
g888
sg171
(dp906
g194
((lp907
F40.219999999999345
tp908
sg246
((lp909
(F0.3500000000003638
I12
tp910
aF40.010000000000218
tp911
sg291
((lp912
F40.030000000000655
tp913
sg338
((lp914
(F6.5399999999990541
I92
tp915
aF40.0
tp916
sg382
((lp917
F40.100000000000364
tp918
ssba(imeasure_core
ProblemSetSolution
p919
(dp920
g3
g447
sg169
g888
sg171
(dp921
g451
((lp922
F40.059999999999491
tp923
sg516
((lp924
F41.430000000000291
tp925
sg565
((lp926
F43.029999999998836
tp927
sg611
((lp928
F41.780000000000655
tp929
sg654
((lp930
F40.130000000001019
tp931
ssba(imeasure_core
ProblemSetSolution
p932
(dp933
g3
g4
sg169
S"AnytimeBeam-w20-gf(4, 'lin')_with_LinearHeuristic"
p934
sg171
(dp935
g8
((lp936
(F33.089999999998327
I223
tp937
aF40.069999999999709
tp938
sg48
((lp939
(F2.1599999999998545
I49
tp940
aF40.0
tp941
sg108
((lp942
(F17.6200000000008
I165
tp943
aF40.100000000000364
tp944
sg135
((lp945
(F1.6299999999991996
I6
tp946
aF40.469999999999345
tp947
sg78
((lp948
F40.039999999999054
tp949
ssba(imeasure_core
ProblemSetSolution
p950
(dp951
g3
g190
sg169
g934
sg171
(dp952
g194
((lp953
F40.090000000000146
tp954
sg246
((lp955
(F0.3500000000003638
I12
tp956
aF40.010000000000218
tp957
sg291
((lp958
F40.059999999999491
tp959
sg338
((lp960
(F6.5
I92
tp961
aF40.050000000001091
tp962
sg382
((lp963
F40.039999999999054
tp964
ssba(imeasure_core
ProblemSetSolution
p965
(dp966
g3
g447
sg169
g934
sg171
(dp967
g451
((lp968
F40.260000000000218
tp969
sg516
((lp970
F41.479999999999563
tp971
sg565
((lp972
F43.430000000000291
tp973
sg611
((lp974
F41.850000000000364
tp975
sg654
((lp976
F40.079999999999927
tp977
ssba(imeasure_core
ProblemSetSolution
p978
(dp979
g3
g4
sg169
S"AnytimeBeam-w20-gf(8, 'lin')_with_LinearHeuristic"
p980
sg171
(dp981
g8
((lp982
(F33.329999999999927
I223
tp983
aF40.059999999999491
tp984
sg48
((lp985
(F2.1399999999994179
I49
tp986
aF40.079999999999927
tp987
sg108
((lp988
(F17.760000000000218
I165
tp989
aF40.0
tp990
sg135
((lp991
(F1.6300000000010186
I6
tp992
aF40.730000000001382
tp993
sg78
((lp994
F40.069999999999709
tp995
ssba(imeasure_core
ProblemSetSolution
p996
(dp997
g3
g190
sg169
g980
sg171
(dp998
g194
((lp999
F40.039999999999054
tp1000
sg246
((lp1001
(F0.3500000000003638
I12
tp1002
aF40.1200000000008
tp1003
sg291
((lp1004
F40.039999999999054
tp1005
sg338
((lp1006
(F6.5300000000006548
I92
tp1007
aF40.050000000001091
tp1008
sg382
((lp1009
F40.1299999999992
tp1010
ssba(imeasure_core
ProblemSetSolution
p1011
(dp1012
g3
g447
sg169
g980
sg171
(dp1013
g451
((lp1014
F40.059999999999491
tp1015
sg516
((lp1016
F41.399999999999636
tp1017
sg565
((lp1018
F43.220000000001164
tp1019
sg611
((lp1020
F41.829999999999927
tp1021
sg654
((lp1022
F40.079999999999927
tp1023
ssba(imeasure_core
ProblemSetSolution
p1024
(dp1025
g3
g4
sg169
S"AnytimeBeam-w20-gf(16, 'lin')_with_LinearHeuristic"
p1026
sg171
(dp1027
g8
((lp1028
(F33.3799999999992
I223
tp1029
aF40.090000000000146
tp1030
sg48
((lp1031
(F2.1499999999996362
I49
tp1032
aF40.019999999998618
tp1033
sg108
((lp1034
(F17.639999999999418
I165
tp1035
aF40.059999999999491
tp1036
sg135
((lp1037
(F1.6299999999991996
I6
tp1038
aF40.020000000000437
tp1039
sg78
((lp1040
F40.06000000000131
tp1041
ssba(imeasure_core
ProblemSetSolution
p1042
(dp1043
g3
g190
sg169
g1026
sg171
(dp1044
g194
((lp1045
F40.239999999999782
tp1046
sg246
((lp1047
(F0.36000000000058208
I12
tp1048
aF40.0
tp1049
sg291
((lp1050
F40.020000000000437
tp1051
sg338
((lp1052
(F6.5
I92
tp1053
aF40.0
tp1054
sg382
((lp1055
F40.209999999999127
tp1056
ssba(imeasure_core
ProblemSetSolution
p1057
(dp1058
g3
g447
sg169
g1026
sg171
(dp1059
g451
((lp1060
F40.049999999999272
tp1061
sg516
((lp1062
F41.360000000000582
tp1063
sg565
((lp1064
F43.149999999999636
tp1065
sg611
((lp1066
F41.829999999999927
tp1067
sg654
((lp1068
F40.070000000001528
tp1069
ssba.