(lp0
(imeasure_core
ProblemSetSolution
p1
(dp2
S'roomset'
p3
(imeasure_core
RoomSet
p4
(dp5
S'rooms'
p6
(dp7
(iproblems
RoomID
p8
(dp9
S'width'
p10
I10
sS'dusts'
p11
I6
sS'seed'
p12
I6832892905590973747
sS'obstacles'
p13
(I3
I2
tp14
sS'robots'
p15
I1
sS'height'
p16
I9
sb(imulti_robot_problem
MultiRobotState
p17
(dp18
S'obstacle_locations'
p19
c__builtin__
frozenset
p20
((lp21
(I3
I0
tp22
a(I2
I0
tp23
ag14
a(I3
I1
tp24
atp25
Rp26
sg10
I10
sS'dirt_locations'
p27
g20
((lp28
(I1
I2
tp29
a(I2
I7
tp30
a(I0
I0
tp31
a(I5
I6
tp32
a(I0
I5
tp33
a(I0
I2
tp34
atp35
Rp36
sg15
((I8
I4
tp37
tp38
sg16
I9
sbs(iproblems
RoomID
p39
(dp40
g10
I9
sg11
I7
sg12
I6924344268699531175
sg13
(I3
I5
tp41
sg15
I5
sg16
I7
sb(imulti_robot_problem
MultiRobotState
p42
(dp43
g19
g20
((lp44
(I2
I6
tp45
a(I1
I6
tp46
a(I3
I6
tp47
ag41
atp48
Rp49
sg10
I9
sg27
g20
((lp50
(I1
I2
tp51
a(I0
I0
tp52
a(I7
I1
tp53
a(I5
I0
tp54
a(I8
I6
tp55
a(I3
I4
tp56
a(I6
I5
tp57
atp58
Rp59
sg15
((I4
I0
tp60
(I7
I2
tp61
(I1
I1
tp62
(I6
I1
tp63
(I8
I4
tp64
tp65
sg16
I7
sbs(iproblems
RoomID
p66
(dp67
g10
I7
sg11
I5
sg12
I2524308075868763041
sg13
(I4
I7
tp68
sg15
I3
sg16
I9
sb(imulti_robot_problem
MultiRobotState
p69
(dp70
g19
g20
((lp71
(I1
I2
tp72
ag68
a(I4
I6
tp73
a(I3
I8
tp74
a(I4
I1
tp75
a(I2
I4
tp76
a(I3
I5
tp77
atp78
Rp79
sg10
I7
sg27
g20
((lp80
(I2
I6
tp81
a(I5
I2
tp82
a(I3
I3
tp83
a(I0
I7
tp84
a(I3
I6
tp85
atp86
Rp87
sg15
((I0
I6
tp88
(I3
I1
tp89
(I4
I8
tp90
tp91
sg16
I9
sbs(iproblems
RoomID
p92
(dp93
g10
I10
sg11
I8
sg12
I3562373307524659409
sg13
(I5
I0
tp94
sg15
I4
sg16
I10
sb(imulti_robot_problem
MultiRobotState
p95
(dp96
g19
g20
((lp97
(I7
I0
tp98
ag94
a(I8
I1
tp99
a(I6
I0
tp100
a(I6
I3
tp101
a(I3
I6
tp102
a(I6
I7
tp103
atp104
Rp105
sg10
I10
sg27
g20
((lp106
(I1
I3
tp107
a(I2
I9
tp108
a(I7
I6
tp109
a(I7
I7
tp110
a(I8
I9
tp111
a(I1
I8
tp112
a(I1
I6
tp113
a(I2
I2
tp114
atp115
Rp116
sg15
((I9
I8
tp117
(I6
I5
tp118
(I5
I1
tp119
(I8
I8
tp120
tp121
sg16
I10
sbs(iproblems
RoomID
p122
(dp123
g10
I7
sg11
I6
sg12
I807570059310326234
sg13
(I3
I1
tp124
sg15
I4
sg16
I8
sb(imulti_robot_problem
MultiRobotState
p125
(dp126
g19
g20
((lp127
(I6
I3
tp128
a(I4
I2
tp129
ag124
a(I5
I3
tp130
atp131
Rp132
sg10
I7
sg27
g20
((lp133
(I3
I2
tp134
a(I6
I7
tp135
a(I4
I6
tp136
a(I0
I4
tp137
a(I1
I0
tp138
a(I5
I2
tp139
atp140
Rp141
sg15
((I1
I2
tp142
(I0
I1
tp143
(I3
I7
tp144
(I2
I4
tp145
tp146
sg16
I8
sbssS'name'
p147
S'easy_roomset'
p148
sbsS'name'
p149
S'LimitedTimeAStar_with_PowerHeuristic2'
p150
sS'solutions'
p151
(dp152
g8
((lp153
(F0.11000000000058208
I36
tp154
aF0.11000000000058208
tp155
sg39
((lp156
(F1.8999999999996362
I7
tp157
aF1.9200000000000728
tp158
sg66
((lp159
(F0.040000000000873115
I7
tp160
aF0.040000000000873115
tp161
sg92
((lp162
(F0.43999999999869033
I10
tp163
aF0.43999999999869033
tp164
sg122
((lp165
F301.26000000000022
tp166
ssba(imeasure_core
ProblemSetSolution
p167
(dp168
g3
(imeasure_core
RoomSet
p169
(dp170
S'rooms'
p171
(dp172
(iproblems
RoomID
p173
(dp174
S'width'
p175
I12
sS'dusts'
p176
I6
sS'seed'
p177
I6832892905590973747
sS'obstacles'
p178
(I6
I2
tp179
sS'robots'
p180
I3
sS'height'
p181
I11
sb(imulti_robot_problem
MultiRobotState
p182
(dp183
S'obstacle_locations'
p184
g20
((lp185
(I6
I4
tp186
a(I2
I6
tp187
a(I3
I6
tp188
a(I3
I0
tp189
a(I2
I8
tp190
a(I7
I6
tp191
a(I5
I2
tp192
a(I7
I7
tp193
a(I6
I3
tp194
a(I4
I5
tp195
a(I7
I5
tp196
a(I4
I3
tp197
a(I8
I6
tp198
ag179
a(I4
I2
tp199
a(I4
I0
tp200
a(I4
I1
tp201
a(I2
I4
tp202
a(I5
I3
tp203
atp204
Rp205
sg175
I12
sS'dirt_locations'
p206
g20
((lp207
(I6
I8
tp208
a(I2
I9
tp209
a(I1
I6
tp210
a(I0
I3
tp211
a(I0
I2
tp212
a(I7
I9
tp213
atp214
Rp215
sg180
((I10
I6
tp216
(I1
I2
tp217
(I0
I0
tp218
tp219
sg181
I11
sbs(iproblems
RoomID
p220
(dp221
g175
I11
sg176
I7
sg177
I6924344268699531175
sg178
(I3
I1
tp222
sg180
I4
sg181
I9
sb(imulti_robot_problem
MultiRobotState
p223
(dp224
g184
g20
((lp225
(I4
I7
tp226
a(I6
I6
tp227
a(I5
I6
tp228
a(I2
I8
tp229
a(I9
I8
tp230
a(I7
I7
tp231
a(I0
I7
tp232
a(I0
I3
tp233
a(I8
I5
tp234
a(I3
I8
tp235
a(I7
I6
tp236
a(I4
I8
tp237
a(I6
I3
tp238
a(I4
I1
tp239
a(I9
I7
tp240
a(I7
I5
tp241
a(I8
I7
tp242
a(I0
I8
tp243
ag222
a(I7
I4
tp244
a(I0
I6
tp245
a(I8
I8
tp246
a(I5
I2
tp247
atp248
Rp249
sg175
I11
sg206
g20
((lp250
(I10
I5
tp251
a(I1
I3
tp252
a(I4
I6
tp253
a(I8
I3
tp254
a(I0
I0
tp255
a(I4
I3
tp256
a(I0
I4
tp257
atp258
Rp259
sg180
((I6
I0
tp260
(I9
I3
tp261
(I1
I1
tp262
(I8
I1
tp263
tp264
sg181
I9
sbs(iproblems
RoomID
p265
(dp266
g175
I9
sg176
I6
sg177
I807570059310326234
sg178
(I2
I5
tp267
sg180
I4
sg181
I10
sb(imulti_robot_problem
MultiRobotState
p268
(dp269
g184
g20
((lp270
(I1
I2
tp271
a(I6
I4
tp272
a(I3
I2
tp273
a(I1
I3
tp274
a(I0
I2
tp275
a(I8
I2
tp276
a(I6
I3
tp277
a(I3
I4
tp278
a(I5
I2
tp279
a(I7
I4
tp280
a(I1
I1
tp281
a(I3
I8
tp282
a(I2
I0
tp283
a(I1
I8
tp284
a(I2
I3
tp285
a(I2
I2
tp286
ag267
a(I8
I4
tp287
a(I4
I1
tp288
a(I1
I0
tp289
a(I3
I3
tp290
atp291
Rp292
sg175
I9
sg206
g20
((lp293
(I7
I3
tp294
a(I2
I6
tp295
a(I1
I6
tp296
a(I4
I2
tp297
a(I5
I8
tp298
a(I7
I9
tp299
atp300
Rp301
sg180
((I6
I2
tp302
(I0
I1
tp303
(I3
I9
tp304
(I3
I5
tp305
tp306
sg181
I10
sbs(iproblems
RoomID
p307
(dp308
g175
I12
sg176
I8
sg177
I3562373307524659409
sg178
(I11
I7
tp309
sg180
I4
sg181
I12
sb(imulti_robot_problem
MultiRobotState
p310
(dp311
g184
g20
((lp312
(I6
I9
tp313
a(I9
I1
tp314
a(I6
I6
tp315
a(I5
I6
tp316
a(I9
I8
tp317
a(I3
I11
tp318
a(I8
I9
tp319
a(I7
I2
tp320
a(I10
I8
tp321
a(I8
I1
tp322
a(I3
I10
tp323
a(I5
I11
tp324
a(I6
I3
tp325
a(I4
I11
tp326
a(I7
I10
tp327
a(I6
I4
tp328
a(I3
I2
tp329
a(I7
I1
tp330
a(I6
I11
tp331
a(I3
I9
tp332
a(I4
I2
tp333
a(I6
I5
tp334
ag309
a(I8
I3
tp335
a(I11
I8
tp336
a(I4
I8
tp337
a(I11
I6
tp338
a(I10
I2
tp339
atp340
Rp341
sg175
I12
sg206
g20
((lp342
(I7
I3
tp343
a(I1
I3
tp344
a(I10
I11
tp345
a(I1
I7
tp346
a(I8
I8
tp347
a(I2
I2
tp348
a(I3
I7
tp349
a(I7
I9
tp350
atp351
Rp352
sg180
((I11
I10
tp353
(I7
I6
tp354
(I10
I10
tp355
(I2
I10
tp356
tp357
sg181
I12
sbs(iproblems
RoomID
p358
(dp359
g175
I10
sg176
I10
sg177
I7391799147228763464
sg178
(I6
I8
tp360
sg180
I3
sg181
I11
sb(imulti_robot_problem
MultiRobotState
p361
(dp362
g184
g20
((lp363
(I5
I9
tp364
a(I4
I7
tp365
a(I4
I8
tp366
a(I6
I9
tp367
a(I0
I7
tp368
a(I3
I7
tp369
a(I5
I8
tp370
a(I4
I9
tp371
a(I3
I3
tp372
a(I6
I3
tp373
a(I3
I6
tp374
a(I4
I5
tp375
a(I1
I4
tp376
a(I1
I9
tp377
ag360
a(I2
I7
tp378
a(I4
I6
tp379
a(I9
I2
tp380
a(I3
I8
tp381
a(I1
I7
tp382
a(I0
I9
tp383
a(I7
I8
tp384
a(I0
I2
tp385
atp386
Rp387
sg175
I10
sg206
g20
((lp388
(I8
I3
tp389
a(I5
I10
tp390
a(I5
I5
tp391
a(I2
I8
tp392
a(I7
I6
tp393
a(I6
I0
tp394
a(I2
I10
tp395
a(I9
I4
tp396
a(I1
I10
tp397
a(I0
I3
tp398
atp399
Rp400
sg180
((I3
I10
tp401
(I7
I1
tp402
(I1
I5
tp403
tp404
sg181
I11
sbssS'name'
p405
S'mild_roomset'
p406
sbsg149
g150
sg151
(dp407
g173
((lp408
(F0.15999999999985448
I10
tp409
aF0.15999999999985448
tp410
sg220
((lp411
(F9.4600000000009459
I23
tp412
aF9.5400000000008731
tp413
sg265
((lp414
F300.52999999999884
tp415
sg307
((lp416
F301.70000000000073
tp417
sg358
((lp418
(F18.840000000000146
I30
tp419
aF18.930000000000291
tp420
ssba(imeasure_core
ProblemSetSolution
p421
(dp422
g3
(imeasure_core
RoomSet
p423
(dp424
S'rooms'
p425
(dp426
(iproblems
RoomID
p427
(dp428
S'width'
p429
I13
sS'dusts'
p430
I11
sS'seed'
p431
I6832892905590973747
sS'obstacles'
p432
(I4
I2
tp433
sS'robots'
p434
I5
sS'height'
p435
I12
sb(imulti_robot_problem
MultiRobotState
p436
(dp437
S'obstacle_locations'
p438
g20
((lp439
(I5
I9
tp440
a(I6
I9
tp441
a(I8
I2
tp442
a(I3
I0
tp443
a(I4
I1
tp444
a(I12
I11
tp445
ag433
a(I3
I4
tp446
a(I4
I0
tp447
atp448
Rp449
sg429
I13
sS'dirt_locations'
p450
g20
((lp451
(I2
I7
tp452
a(I9
I0
tp453
a(I6
I8
tp454
a(I4
I5
tp455
a(I2
I8
tp456
a(I8
I10
tp457
a(I2
I10
tp458
a(I1
I7
tp459
a(I3
I7
tp460
a(I2
I5
tp461
a(I0
I8
tp462
atp463
Rp464
sg434
((I11
I6
tp465
(I1
I2
tp466
(I1
I0
tp467
(I0
I3
tp468
(I0
I2
tp469
tp470
sg435
I12
sbs(iproblems
RoomID
p471
(dp472
g429
I12
sg430
I12
sg431
I6924344268699531175
sg432
(I6
I7
tp473
sg434
I7
sg435
I10
sb(imulti_robot_problem
MultiRobotState
p474
(dp475
g438
g20
((lp476
(I4
I7
tp477
ag473
a(I2
I9
tp478
a(I4
I8
tp479
a(I4
I1
tp480
a(I5
I7
tp481
a(I0
I6
tp482
a(I3
I9
tp483
a(I0
I9
tp484
a(I4
I9
tp485
a(I9
I6
tp486
atp487
Rp488
sg429
I12
sg450
g20
((lp489
(I7
I3
tp490
a(I5
I4
tp491
a(I1
I3
tp492
a(I9
I1
tp493
a(I8
I3
tp494
a(I0
I7
tp495
a(I8
I8
tp496
a(I0
I4
tp497
a(I0
I0
tp498
a(I0
I8
tp499
a(I11
I6
tp500
a(I9
I7
tp501
atp502
Rp503
sg434
((I6
I0
tp504
(I10
I4
tp505
(I1
I1
tp506
(I8
I2
tp507
(I11
I5
tp508
(I5
I6
tp509
(I10
I9
tp510
tp511
sg435
I10
sbs(iproblems
RoomID
p512
(dp513
g429
I13
sg430
I13
sg431
I3562373307524659409
sg432
(I7
I4
tp514
sg434
I6
sg435
I13
sb(imulti_robot_problem
MultiRobotState
p515
(dp516
g438
g20
((lp517
(I7
I3
tp518
a(I5
I4
tp519
a(I4
I9
tp520
a(I9
I1
tp521
a(I5
I9
tp522
a(I8
I1
tp523
a(I11
I2
tp524
a(I9
I3
tp525
a(I3
I11
tp526
a(I11
I7
tp527
ag514
a(I10
I1
tp528
a(I10
I5
tp529
a(I3
I10
tp530
a(I8
I2
tp531
atp532
Rp533
sg429
I13
sg450
g20
((lp534
(I8
I3
tp535
a(I3
I12
tp536
a(I4
I8
tp537
a(I6
I10
tp538
a(I9
I9
tp539
a(I12
I6
tp540
a(I8
I9
tp541
a(I1
I8
tp542
a(I4
I3
tp543
a(I2
I2
tp544
a(I4
I2
tp545
a(I11
I12
tp546
a(I2
I4
tp547
atp548
Rp549
sg434
((I12
I11
tp550
(I7
I6
tp551
(I7
I1
tp552
(I10
I11
tp553
(I2
I11
tp554
(I9
I8
tp555
tp556
sg435
I13
sbs(iproblems
RoomID
p557
(dp558
g429
I10
sg430
I11
sg431
I807570059310326234
sg432
(I5
I1
tp559
sg434
I7
sg435
I11
sb(imulti_robot_problem
MultiRobotState
p560
(dp561
g438
g20
((lp562
(I7
I3
tp563
a(I4
I6
tp564
a(I7
I4
tp565
a(I6
I2
tp566
a(I1
I9
tp567
a(I9
I4
tp568
ag559
a(I0
I3
tp569
a(I5
I2
tp570
a(I8
I4
tp571
atp572
Rp573
sg429
I10
sg450
g20
((lp574
(I5
I9
tp575
a(I6
I9
tp576
a(I2
I9
tp577
a(I4
I8
tp578
a(I9
I2
tp579
a(I2
I0
tp580
a(I1
I6
tp581
a(I4
I2
tp582
a(I9
I5
tp583
a(I1
I0
tp584
a(I3
I5
tp585
atp586
Rp587
sg434
((I1
I3
tp588
(I0
I2
tp589
(I4
I10
tp590
(I4
I5
tp591
(I8
I10
tp592
(I8
I3
tp593
(I2
I6
tp594
tp595
sg435
I11
sbs(iproblems
RoomID
p596
(dp597
g429
I11
sg430
I15
sg431
I7391799147228763464
sg432
(I4
I8
tp598
sg434
I6
sg435
I12
sb(imulti_robot_problem
MultiRobotState
p599
(dp600
g438
g20
((lp601
(I6
I4
tp602
a(I4
I7
tp603
ag598
a(I5
I6
tp604
a(I2
I8
tp605
a(I5
I7
tp606
a(I6
I9
tp607
a(I9
I2
tp608
a(I1
I6
tp609
a(I10
I7
tp610
a(I8
I6
tp611
a(I4
I2
tp612
a(I2
I4
tp613
atp614
Rp615
sg429
I11
sg450
g20
((lp616
(I7
I0
tp617
a(I10
I4
tp618
a(I6
I11
tp619
a(I7
I6
tp620
a(I1
I4
tp621
a(I8
I9
tp622
a(I1
I8
tp623
a(I3
I9
tp624
a(I0
I10
tp625
a(I9
I4
tp626
a(I7
I10
tp627
a(I1
I10
tp628
a(I4
I3
tp629
a(I0
I3
tp630
a(I0
I2
tp631
atp632
Rp633
sg434
((I4
I6
tp634
(I3
I11
tp635
(I7
I1
tp636
(I2
I5
tp637
(I5
I9
tp638
(I2
I11
tp639
tp640
sg435
I12
sbssS'name'
p641
S'heavy_roomset'
p642
sbsg149
g150
sg151
(dp643
g427
((lp644
F302.39999999999964
tp645
sg471
((lp646
F313.94000000000051
tp647
sg512
((lp648
(F23.739999999999782
I15
tp649
aF23.959999999999127
tp650
sg557
((lp651
F302.69000000000051
tp652
sg596
((lp653
(F29.219999999999345
I24
tp654
aF29.469999999999345
tp655
ssba.