(lp0
(imeasure_core
ProblemSetSolution
p1
(dp2
S'roomset'
p3
(imeasure_core
RoomSet
p4
(dp5
S'rooms'
p6
(dp7
(iproblems
RoomID
p8
(dp9
S'width'
p10
I10
sS'dusts'
p11
I8
sS'seed'
p12
I5594871498841892311
sS'obstacles'
p13
(I5
I7
tp14
sS'robots'
p15
I5
sS'height'
p16
I9
sb(imulti_robot_problem
MultiRobotState
p17
(dp18
S'obstacle_locations'
p19
c__builtin__
frozenset
p20
((lp21
(I4
I7
tp22
ag14
a(I8
I3
tp23
a(I3
I6
tp24
a(I5
I1
tp25
a(I1
I0
tp26
a(I5
I8
tp27
atp28
Rp29
sg10
I10
sS'dirt_locations'
p30
g20
((lp31
(I0
I1
tp32
a(I9
I0
tp33
a(I8
I2
tp34
a(I6
I0
tp35
a(I2
I4
tp36
a(I1
I5
tp37
a(I9
I4
tp38
a(I1
I1
tp39
atp40
Rp41
sg15
((I7
I6
tp42
(I8
I4
tp43
(I5
I4
tp44
(I7
I2
tp45
(I7
I8
tp46
tp47
sg16
I9
sbs(iproblems
RoomID
p48
(dp49
g10
I8
sg11
I6
sg12
I8833747186876682921
sg13
(I4
I4
tp50
sg15
I5
sg16
I7
sb(imulti_robot_problem
MultiRobotState
p51
(dp52
g19
g20
((lp53
g50
a(I3
I4
tp54
a(I3
I3
tp55
a(I3
I5
tp56
a(I2
I2
tp57
atp58
Rp59
sg10
I8
sg30
g20
((lp60
(I6
I4
tp61
a(I5
I4
tp62
a(I1
I3
tp63
a(I5
I1
tp64
a(I0
I3
tp65
a(I5
I3
tp66
atp67
Rp68
sg15
((I2
I1
tp69
(I6
I1
tp70
(I3
I1
tp71
(I5
I0
tp72
(I7
I3
tp73
tp74
sg16
I7
sbs(iproblems
RoomID
p75
(dp76
g10
I8
sg11
I6
sg12
I1085536589165212248
sg13
(I2
I3
tp77
sg15
I1
sg16
I8
sb(imulti_robot_problem
MultiRobotState
p78
(dp79
g19
g20
((lp80
(I0
I7
tp81
a(I1
I5
tp82
ag77
a(I1
I4
tp83
a(I1
I6
tp84
a(I4
I0
tp85
atp86
Rp87
sg10
I8
sg30
g20
((lp88
(I0
I1
tp89
a(I1
I2
tp90
a(I7
I3
tp91
a(I6
I0
tp92
a(I2
I1
tp93
a(I5
I1
tp94
atp95
Rp96
sg15
((I3
I2
tp97
tp98
sg16
I8
sbs(iproblems
RoomID
p99
(dp100
g10
I10
sg11
I5
sg12
I1662056218554549082
sg13
(I6
I4
tp101
sg15
I2
sg16
I8
sb(imulti_robot_problem
MultiRobotState
p102
(dp103
g19
g20
((lp104
g101
a(I4
I6
tp105
a(I4
I4
tp106
a(I3
I6
tp107
a(I9
I6
tp108
a(I5
I5
tp109
atp110
Rp111
sg10
I10
sg30
g20
((lp112
(I4
I5
tp113
a(I3
I3
tp114
a(I8
I3
tp115
a(I7
I7
tp116
a(I8
I4
tp117
atp118
Rp119
sg15
((I9
I3
tp120
(I2
I0
tp121
tp122
sg16
I8
sbs(iproblems
RoomID
p123
(dp124
g10
I9
sg11
I7
sg12
I365562409358139953
sg13
(I5
I2
tp125
sg15
I5
sg16
I8
sb(imulti_robot_problem
MultiRobotState
p126
(dp127
g19
g20
((lp128
(I6
I4
tp129
a(I5
I5
tp130
a(I2
I1
tp131
a(I3
I7
tp132
a(I2
I5
tp133
ag125
a(I0
I2
tp134
a(I5
I3
tp135
atp136
Rp137
sg10
I9
sg30
g20
((lp138
(I8
I2
tp139
a(I4
I5
tp140
a(I5
I7
tp141
a(I2
I0
tp142
a(I1
I6
tp143
a(I8
I6
tp144
a(I3
I4
tp145
atp146
Rp147
sg15
((I4
I2
tp148
(I8
I3
tp149
(I6
I3
tp150
(I2
I4
tp151
(I6
I7
tp152
tp153
sg16
I8
sbssS'name'
p154
S'easy_roomset'
p155
sbsS'name'
p156
S'LimitedTimeAStar_with_PowerHeuristic2'
p157
sS'solutions'
p158
(dp159
g8
((lp160
(F13.920000000000073
I13
tp161
aF14.050000000000182
tp162
sg48
((lp163
(F0.61999999999989086
I4
tp164
aF0.63000000000010914
tp165
sg75
((lp166
(F0.03999999999996362
I28
tp167
aF0.03999999999996362
tp168
sg99
((lp169
(F0.009999999999308784
I7
tp170
aF0.009999999999308784
tp171
sg123
((lp172
F301.72000000000025
tp173
ssba(imeasure_core
ProblemSetSolution
p174
(dp175
g3
(imeasure_core
RoomSet
p176
(dp177
S'rooms'
p178
(dp179
(iproblems
RoomID
p180
(dp181
S'width'
p182
I12
sS'dusts'
p183
I8
sS'seed'
p184
I5594871498841892311
sS'obstacles'
p185
(I9
I3
tp186
sS'robots'
p187
I4
sS'height'
p188
I11
sb(imulti_robot_problem
MultiRobotState
p189
(dp190
S'obstacle_locations'
p191
g20
((lp192
(I5
I9
tp193
a(I6
I9
tp194
a(I9
I1
tp195
a(I4
I8
tp196
a(I8
I0
tp197
a(I9
I4
tp198
a(I3
I7
tp199
a(I5
I8
tp200
a(I10
I8
tp201
a(I9
I0
tp202
a(I8
I10
tp203
a(I5
I0
tp204
a(I10
I0
tp205
ag186
a(I11
I9
tp206
a(I6
I0
tp207
a(I4
I2
tp208
a(I7
I9
tp209
a(I7
I0
tp210
a(I6
I8
tp211
a(I9
I2
tp212
a(I5
I7
tp213
a(I9
I9
tp214
a(I2
I0
tp215
a(I0
I9
tp216
a(I10
I2
tp217
atp218
Rp219
sg182
I12
sS'dirt_locations'
p220
g20
((lp221
(I2
I6
tp222
a(I11
I5
tp223
a(I6
I1
tp224
a(I11
I1
tp225
a(I2
I1
tp226
a(I8
I8
tp227
a(I0
I2
tp228
a(I3
I5
tp229
atp230
Rp231
sg187
((I9
I7
tp232
(I10
I5
tp233
(I6
I5
tp234
(I8
I3
tp235
tp236
sg188
I11
sbs(iproblems
RoomID
p237
(dp238
g182
I10
sg183
I6
sg184
I8833747186876682921
sg185
(I9
I4
tp239
sg187
I4
sg188
I9
sb(imulti_robot_problem
MultiRobotState
p240
(dp241
g191
g20
((lp242
(I2
I7
tp243
a(I4
I7
tp244
a(I5
I5
tp245
a(I4
I8
tp246
a(I4
I5
tp247
a(I4
I1
tp248
a(I3
I6
tp249
a(I8
I3
tp250
a(I2
I1
tp251
a(I8
I8
tp252
a(I7
I4
tp253
a(I5
I6
tp254
a(I7
I5
tp255
a(I2
I3
tp256
ag239
a(I2
I5
tp257
a(I3
I4
tp258
a(I1
I1
tp259
a(I6
I5
tp260
a(I3
I5
tp261
atp262
Rp263
sg182
I10
sg220
g20
((lp264
(I3
I2
tp265
a(I7
I0
tp266
a(I0
I7
tp267
a(I6
I2
tp268
a(I1
I4
tp269
a(I0
I4
tp270
atp271
Rp272
sg187
((I3
I1
tp273
(I8
I1
tp274
(I3
I3
tp275
(I4
I2
tp276
tp277
sg188
I9
sbs(iproblems
RoomID
p278
(dp279
g182
I11
sg183
I7
sg184
I365562409358139953
sg185
(I8
I4
tp280
sg187
I4
sg188
I10
sb(imulti_robot_problem
MultiRobotState
p281
(dp282
g191
g20
((lp283
(I5
I9
tp284
a(I7
I3
tp285
a(I2
I8
tp286
a(I6
I2
tp287
a(I1
I6
tp288
a(I9
I4
tp289
a(I10
I8
tp290
a(I6
I7
tp291
a(I10
I7
tp292
a(I7
I6
tp293
a(I4
I8
tp294
a(I8
I6
tp295
a(I9
I7
tp296
a(I6
I4
tp297
a(I7
I5
tp298
a(I0
I5
tp299
a(I8
I7
tp300
a(I9
I6
tp301
a(I6
I5
tp302
a(I10
I5
tp303
a(I6
I1
tp304
a(I3
I1
tp305
a(I3
I8
tp306
a(I5
I2
tp307
ag280
atp308
Rp309
sg182
I11
sg220
g20
((lp310
(I6
I9
tp311
a(I5
I6
tp312
a(I2
I1
tp313
a(I4
I5
tp314
a(I1
I7
tp315
a(I10
I3
tp316
a(I0
I2
tp317
atp318
Rp319
sg187
((I10
I4
tp320
(I7
I4
tp321
(I3
I6
tp322
(I8
I9
tp323
tp324
sg188
I10
sbs(iproblems
RoomID
p325
(dp326
g182
I9
sg183
I10
sg184
I6645345695289302126
sg185
(I4
I8
tp327
sg187
I3
sg188
I11
sb(imulti_robot_problem
MultiRobotState
p328
(dp329
g191
g20
((lp330
(I5
I9
tp331
a(I3
I2
tp332
a(I4
I4
tp333
a(I4
I6
tp334
ag327
a(I4
I5
tp335
a(I3
I4
tp336
a(I6
I1
tp337
a(I3
I1
tp338
a(I1
I4
tp339
a(I1
I1
tp340
a(I3
I8
tp341
a(I1
I5
tp342
a(I8
I4
tp343
a(I4
I3
tp344
a(I3
I7
tp345
a(I4
I2
tp346
a(I3
I5
tp347
a(I4
I1
tp348
a(I2
I4
tp349
a(I3
I3
tp350
atp351
Rp352
sg182
I9
sg220
g20
((lp353
(I0
I1
tp354
a(I5
I4
tp355
a(I6
I7
tp356
a(I8
I2
tp357
a(I3
I6
tp358
a(I8
I8
tp359
a(I2
I3
tp360
a(I8
I7
tp361
a(I1
I0
tp362
a(I5
I5
tp363
atp364
Rp365
sg187
((I1
I6
tp366
(I0
I9
tp367
(I0
I5
tp368
tp369
sg188
I11
sbs(iproblems
RoomID
p370
(dp371
g182
I12
sg183
I8
sg184
I4800841617172907184
sg185
(I4
I6
tp372
sg187
I3
sg188
I9
sb(imulti_robot_problem
MultiRobotState
p373
(dp374
g191
g20
((lp375
(I10
I1
tp376
a(I6
I6
tp377
a(I9
I8
tp378
a(I2
I1
tp379
a(I8
I5
tp380
a(I7
I2
tp381
a(I3
I3
tp382
a(I6
I3
tp383
a(I8
I6
tp384
a(I9
I7
tp385
a(I5
I4
tp386
a(I7
I1
tp387
a(I4
I5
tp388
a(I9
I3
tp389
a(I6
I0
tp390
a(I8
I7
tp391
a(I4
I2
tp392
a(I5
I3
tp393
a(I8
I3
tp394
ag372
a(I11
I8
tp395
a(I3
I1
tp396
a(I11
I3
tp397
a(I0
I6
tp398
a(I4
I3
tp399
a(I8
I4
tp400
atp401
Rp402
sg182
I12
sg220
g20
((lp403
(I11
I4
tp404
a(I8
I2
tp405
a(I10
I7
tp406
a(I7
I6
tp407
a(I1
I4
tp408
a(I11
I0
tp409
a(I9
I2
tp410
a(I0
I2
tp411
atp412
Rp413
sg187
((I9
I1
tp414
(I0
I4
tp415
(I7
I4
tp416
tp417
sg188
I9
sbssS'name'
p418
S'mild_roomset'
p419
sbsg156
g157
sg158
(dp420
g180
((lp421
(F0.64000000000032742
I12
tp422
aF0.6499999999996362
tp423
sg237
((lp424
F301.5
tp425
sg278
((lp426
(F0.19000000000050932
I17
tp427
aF0.19000000000050932
tp428
sg325
((lp429
(F13.220000000000255
I51
tp430
aF13.279999999999745
tp431
sg370
((lp432
(F0.10999999999967258
I17
tp433
aF0.10999999999967258
tp434
ssba(imeasure_core
ProblemSetSolution
p435
(dp436
g3
(imeasure_core
RoomSet
p437
(dp438
S'rooms'
p439
(dp440
(iproblems
RoomID
p441
(dp442
S'width'
p443
I13
sS'dusts'
p444
I13
sS'seed'
p445
I5594871498841892311
sS'obstacles'
p446
(I9
I8
tp447
sS'robots'
p448
I7
sS'height'
p449
I12
sb(imulti_robot_problem
MultiRobotState
p450
(dp451
S'obstacle_locations'
p452
g20
((lp453
(I5
I9
tp454
a(I6
I9
tp455
a(I1
I3
tp456
a(I6
I7
tp457
a(I10
I4
tp458
a(I4
I8
tp459
ag447
a(I6
I10
tp460
a(I11
I3
tp461
a(I1
I4
tp462
a(I8
I10
tp463
a(I9
I7
tp464
a(I5
I0
tp465
a(I9
I5
tp466
a(I8
I6
tp467
a(I7
I9
tp468
a(I9
I6
tp469
a(I10
I0
tp470
a(I6
I8
tp471
a(I5
I5
tp472
atp473
Rp474
sg443
I13
sS'dirt_locations'
p475
g20
((lp476
(I2
I7
tp477
a(I10
I5
tp478
a(I11
I5
tp479
a(I6
I1
tp480
a(I8
I0
tp481
a(I2
I1
tp482
a(I2
I0
tp483
a(I0
I10
tp484
a(I7
I10
tp485
a(I12
I10
tp486
a(I5
I2
tp487
a(I0
I2
tp488
a(I3
I5
tp489
atp490
Rp491
sg448
((I10
I8
tp492
(I11
I6
tp493
(I7
I5
tp494
(I9
I3
tp495
(I9
I11
tp496
(I12
I1
tp497
(I9
I9
tp498
tp499
sg449
I12
sbs(iproblems
RoomID
p500
(dp501
g443
I11
sg444
I11
sg445
I8833747186876682921
sg446
(I8
I7
tp502
sg448
I7
sg449
I10
sb(imulti_robot_problem
MultiRobotState
p503
(dp504
g452
g20
((lp505
(I4
I4
tp506
a(I6
I7
tp507
a(I5
I5
tp508
a(I4
I8
tp509
a(I4
I5
tp510
a(I5
I7
tp511
a(I2
I1
tp512
a(I6
I3
tp513
a(I8
I1
tp514
a(I8
I8
tp515
a(I3
I3
tp516
ag502
a(I5
I1
tp517
a(I10
I2
tp518
a(I7
I8
tp519
a(I4
I6
tp520
atp521
Rp522
sg443
I11
sg475
g20
((lp523
(I10
I5
tp524
a(I7
I6
tp525
a(I4
I7
tp526
a(I1
I4
tp527
a(I9
I9
tp528
a(I3
I8
tp529
a(I0
I5
tp530
a(I8
I6
tp531
a(I2
I5
tp532
a(I0
I8
tp533
a(I7
I2
tp534
atp535
Rp536
sg448
((I3
I1
tp537
(I9
I1
tp538
(I5
I2
tp539
(I4
I3
tp540
(I8
I0
tp541
(I10
I4
tp542
(I8
I5
tp543
tp544
sg449
I10
sbs(iproblems
RoomID
p545
(dp546
g443
I12
sg444
I12
sg445
I365562409358139953
sg446
(I0
I5
tp547
sg448
I7
sg449
I11
sb(imulti_robot_problem
MultiRobotState
p548
(dp549
g452
g20
((lp550
(I8
I6
tp551
a(I1
I3
tp552
a(I2
I9
tp553
a(I6
I6
tp554
a(I10
I7
tp555
a(I5
I2
tp556
a(I7
I6
tp557
a(I3
I1
tp558
a(I2
I2
tp559
a(I4
I8
tp560
a(I7
I5
tp561
ag547
a(I8
I7
tp562
a(I0
I4
tp563
a(I4
I2
tp564
a(I3
I9
tp565
a(I7
I8
tp566
a(I11
I6
tp567
a(I8
I4
tp568
atp569
Rp570
sg443
I12
sg475
g20
((lp571
(I3
I2
tp572
a(I5
I7
tp573
a(I4
I9
tp574
a(I10
I4
tp575
a(I11
I9
tp576
a(I2
I1
tp577
a(I0
I6
tp578
a(I1
I6
tp579
a(I5
I10
tp580
a(I7
I10
tp581
a(I3
I7
tp582
a(I0
I2
tp583
atp584
Rp585
sg448
((I6
I3
tp586
(I10
I5
tp587
(I3
I6
tp588
(I8
I10
tp589
(I4
I6
tp590
(I11
I3
tp591
(I1
I8
tp592
tp593
sg449
I11
sbs(iproblems
RoomID
p594
(dp595
g443
I10
sg444
I13
sg445
I5338040351619750409
sg446
(I3
I8
tp596
sg448
I5
sg449
I10
sb(imulti_robot_problem
MultiRobotState
p597
(dp598
g452
g20
((lp599
(I4
I7
tp600
a(I2
I6
tp601
a(I9
I1
tp602
a(I2
I8
tp603
a(I6
I1
tp604
a(I1
I4
tp605
ag596
a(I1
I6
tp606
a(I4
I3
tp607
a(I1
I7
tp608
a(I2
I5
tp609
a(I6
I8
tp610
a(I2
I4
tp611
a(I9
I7
tp612
atp613
Rp614
sg443
I10
sg475
g20
((lp615
(I8
I3
tp616
a(I1
I3
tp617
a(I4
I9
tp618
a(I4
I6
tp619
a(I6
I6
tp620
a(I6
I9
tp621
a(I2
I1
tp622
a(I8
I9
tp623
a(I1
I8
tp624
a(I7
I5
tp625
a(I3
I6
tp626
a(I9
I6
tp627
a(I4
I0
tp628
atp629
Rp630
sg448
((I2
I0
tp631
(I3
I5
tp632
(I5
I0
tp633
(I5
I2
tp634
(I4
I5
tp635
tp636
sg449
I10
sbs(iproblems
RoomID
p637
(dp638
g443
I11
sg444
I11
sg445
I1085536589165212248
sg446
(I4
I6
tp639
sg448
I5
sg449
I11
sb(imulti_robot_problem
MultiRobotState
p640
(dp641
g452
g20
((lp642
(I10
I5
tp643
a(I2
I6
tp644
a(I3
I2
tp645
ag639
a(I9
I3
tp646
a(I9
I9
tp647
a(I1
I8
tp648
a(I1
I9
tp649
a(I1
I7
tp650
a(I3
I7
tp651
a(I6
I9
tp652
a(I5
I8
tp653
a(I3
I3
tp654
atp655
Rp656
sg443
I11
sg475
g20
((lp657
(I0
I1
tp658
a(I4
I9
tp659
a(I10
I4
tp660
a(I10
I7
tp661
a(I6
I0
tp662
a(I0
I7
tp663
a(I2
I3
tp664
a(I1
I4
tp665
a(I2
I2
tp666
a(I10
I0
tp667
a(I0
I10
tp668
atp669
Rp670
sg448
((I5
I3
tp671
(I0
I2
tp672
(I3
I1
tp673
(I7
I1
tp674
(I9
I0
tp675
tp676
sg449
I11
sbssS'name'
p677
S'heavy_roomset'
p678
sbsg156
g157
sg158
(dp679
g441
((lp680
(F277.94999999999982
I30
tp681
aF279.48999999999978
tp682
sg500
((lp683
(F25.530000000000655
I19
tp684
aF25.789999999999964
tp685
sg545
((lp686
F306.35000000000036
tp687
sg594
((lp688
F301.77999999999975
tp689
sg637
((lp690
(F2.4800000000004729
I15
tp691
aF2.5100000000002183
tp692
ssba.