(lp0
(imeasure_core
ProblemSetSolution
p1
(dp2
S'roomset'
p3
(imeasure_core
RoomSet
p4
(dp5
S'rooms'
p6
(dp7
(iproblems
RoomID
p8
(dp9
S'width'
p10
I9
sS'dusts'
p11
I10
sS'seed'
p12
I4712128852136459333
sS'obstacles'
p13
(I0
I8
tp14
sS'robots'
p15
I4
sS'height'
p16
I10
sb(imulti_robot_problem
MultiRobotState
p17
(dp18
S'obstacle_locations'
p19
c__builtin__
frozenset
p20
((lp21
(I1
I5
tp22
a(I8
I0
tp23
a(I0
I7
tp24
a(I0
I6
tp25
a(I2
I3
tp26
ag14
a(I1
I1
tp27
atp28
Rp29
sg10
I9
sS'dirt_locations'
p30
g20
((lp31
(I4
I7
tp32
a(I1
I3
tp33
a(I4
I9
tp34
a(I8
I1
tp35
a(I7
I6
tp36
a(I2
I6
tp37
a(I8
I7
tp38
a(I2
I2
tp39
a(I4
I1
tp40
a(I2
I4
tp41
atp42
Rp43
sg15
((I5
I8
tp44
(I6
I9
tp45
(I5
I0
tp46
(I3
I1
tp47
tp48
sg16
I10
sbs(iproblems
RoomID
p49
(dp50
g10
I8
sg11
I9
sg12
I6613812840851947673
sg13
(I3
I4
tp51
sg15
I1
sg16
I7
sb(imulti_robot_problem
MultiRobotState
p52
(dp53
g19
g20
((lp54
(I1
I4
tp55
ag51
a(I2
I4
tp56
a(I2
I1
tp57
a(I3
I5
tp58
atp59
Rp60
sg10
I8
sg30
g20
((lp61
(I6
I4
tp62
a(I5
I4
tp63
a(I6
I0
tp64
a(I7
I5
tp65
a(I1
I6
tp66
a(I2
I2
tp67
a(I0
I5
tp68
a(I4
I1
tp69
a(I4
I0
tp70
atp71
Rp72
sg15
((I3
I1
tp73
tp74
sg16
I7
sbs(iproblems
RoomID
p75
(dp76
g10
I7
sg11
I10
sg12
I956523682424107605
sg13
(I4
I8
tp77
sg15
I4
sg16
I10
sb(imulti_robot_problem
MultiRobotState
p78
(dp79
g19
g20
((lp80
(I2
I8
tp81
a(I4
I2
tp82
a(I3
I7
tp83
a(I2
I9
tp84
ag77
atp85
Rp86
sg10
I7
sg30
g20
((lp87
(I5
I9
tp88
a(I4
I7
tp89
a(I1
I3
tp90
a(I3
I3
tp91
a(I6
I1
tp92
a(I5
I4
tp93
a(I0
I4
tp94
a(I5
I3
tp95
a(I5
I2
tp96
a(I5
I5
tp97
atp98
Rp99
sg15
((I1
I9
tp100
(I4
I9
tp101
(I1
I8
tp102
(I0
I3
tp103
tp104
sg16
I10
sbs(iproblems
RoomID
p105
(dp106
g10
I8
sg11
I9
sg12
I4594210616595436404
sg13
(I5
I3
tp107
sg15
I3
sg16
I7
sb(imulti_robot_problem
MultiRobotState
p108
(dp109
g19
g20
((lp110
(I0
I1
tp111
a(I3
I3
tp112
a(I6
I1
tp113
a(I4
I3
tp114
a(I4
I2
tp115
ag107
atp116
Rp117
sg10
I8
sg30
g20
((lp118
(I6
I6
tp119
a(I5
I6
tp120
a(I4
I4
tp121
a(I1
I4
tp122
a(I1
I1
tp123
a(I0
I6
tp124
a(I5
I1
tp125
a(I1
I0
tp126
a(I0
I3
tp127
atp128
Rp129
sg15
((I2
I1
tp130
(I3
I4
tp131
(I3
I6
tp132
tp133
sg16
I7
sbs(iproblems
RoomID
p134
(dp135
g10
I8
sg11
I10
sg12
I2893396244277848635
sg13
(I4
I5
tp136
sg15
I1
sg16
I8
sb(imulti_robot_problem
MultiRobotState
p137
(dp138
g19
g20
((lp139
g136
a(I3
I7
tp140
a(I2
I6
tp141
a(I4
I6
tp142
atp143
Rp144
sg10
I8
sg30
g20
((lp145
(I6
I4
tp146
a(I0
I0
tp147
a(I6
I7
tp148
a(I3
I0
tp149
a(I2
I1
tp150
a(I0
I6
tp151
a(I6
I5
tp152
a(I2
I4
tp153
a(I7
I2
tp154
a(I5
I3
tp155
atp156
Rp157
sg15
((I2
I3
tp158
tp159
sg16
I8
sbssS'name'
p160
S'easy_roomset'
p161
sbsS'name'
p162
S'LimitedTimeAStar_with_PowerHeuristic2'
p163
sS'solutions'
p164
(dp165
g8
((lp166
(F0.75
I16
tp167
aF0.75999999999930878
tp168
sg49
((lp169
(F0.050000000000181899
I36
tp170
aF0.050000000000181899
tp171
sg75
((lp172
(F0.34000000000014552
I10
tp173
aF0.34000000000014552
tp174
sg105
((lp175
(F0.36999999999989086
I16
tp176
aF0.36999999999989086
tp177
sg134
((lp178
(F0.18000000000029104
I57
tp179
aF0.18000000000029104
tp180
ssba(imeasure_core
ProblemSetSolution
p181
(dp182
g3
(imeasure_core
RoomSet
p183
(dp184
S'rooms'
p185
(dp186
(iproblems
RoomID
p187
(dp188
S'width'
p189
I11
sS'dusts'
p190
I10
sS'seed'
p191
I4712128852136459333
sS'obstacles'
p192
(I8
I7
tp193
sS'robots'
p194
I4
sS'height'
p195
I12
sb(imulti_robot_problem
MultiRobotState
p196
(dp197
S'obstacle_locations'
p198
g20
((lp199
(I4
I7
tp200
a(I3
I11
tp201
a(I0
I7
tp202
a(I1
I6
tp203
a(I2
I10
tp204
a(I1
I11
tp205
a(I9
I0
tp206
a(I5
I5
tp207
a(I7
I6
tp208
a(I4
I1
tp209
a(I1
I1
tp210
a(I6
I4
tp211
a(I4
I5
tp212
a(I7
I7
tp213
a(I2
I3
tp214
a(I1
I9
tp215
ag193
a(I4
I2
tp216
a(I0
I8
tp217
a(I6
I5
tp218
a(I5
I3
tp219
a(I3
I1
tp220
a(I2
I11
tp221
a(I0
I9
tp222
atp223
Rp224
sg189
I11
sS'dirt_locations'
p225
g20
((lp226
(I2
I7
tp227
a(I9
I1
tp228
a(I9
I8
tp229
a(I3
I3
tp230
a(I5
I1
tp231
a(I2
I5
tp232
a(I3
I4
tp233
a(I2
I4
tp234
a(I5
I8
tp235
a(I9
I7
tp236
atp237
Rp238
sg194
((I6
I10
tp239
(I8
I10
tp240
(I7
I0
tp241
(I5
I11
tp242
tp243
sg195
I12
sbs(iproblems
RoomID
p244
(dp245
g189
I10
sg190
I9
sg191
I4594210616595436404
sg192
(I4
I4
tp246
sg194
I3
sg195
I9
sb(imulti_robot_problem
MultiRobotState
p247
(dp248
g198
g20
((lp249
(I1
I3
tp250
a(I5
I6
tp251
a(I2
I1
tp252
a(I1
I6
tp253
a(I9
I4
tp254
a(I3
I7
tp255
a(I0
I3
tp256
a(I1
I2
tp257
a(I5
I5
tp258
a(I1
I5
tp259
a(I7
I6
tp260
ag246
a(I6
I3
tp261
a(I3
I0
tp262
a(I3
I6
tp263
a(I0
I4
tp264
a(I8
I6
tp265
a(I5
I3
tp266
a(I1
I1
tp267
a(I5
I4
tp268
a(I4
I5
tp269
a(I0
I5
tp270
a(I9
I5
tp271
a(I3
I5
tp272
a(I0
I1
tp273
a(I3
I4
tp274
a(I0
I6
tp275
a(I1
I8
tp276
a(I2
I3
tp277
a(I2
I0
tp278
a(I5
I2
tp279
a(I0
I2
tp280
atp281
Rp282
sg189
I10
sg225
g20
((lp283
(I7
I0
tp284
a(I6
I8
tp285
a(I2
I8
tp286
a(I8
I5
tp287
a(I8
I8
tp288
a(I0
I8
tp289
a(I7
I8
tp290
a(I5
I8
tp291
a(I8
I2
tp292
atp293
Rp294
sg194
((I4
I6
tp295
(I2
I5
tp296
(I6
I1
tp297
tp298
sg195
I9
sbs(iproblems
RoomID
p299
(dp300
g189
I11
sg190
I5
sg191
I1881095652490078568
sg192
(I4
I9
tp301
sg194
I4
sg195
I11
sb(imulti_robot_problem
MultiRobotState
p302
(dp303
g198
g20
((lp304
(I6
I9
tp305
a(I6
I6
tp306
a(I2
I8
tp307
a(I4
I7
tp308
ag301
a(I7
I6
tp309
a(I4
I4
tp310
a(I8
I10
tp311
a(I6
I3
tp312
a(I7
I10
tp313
a(I2
I2
tp314
a(I1
I1
tp315
a(I5
I4
tp316
a(I4
I5
tp317
a(I9
I3
tp318
a(I7
I5
tp319
a(I6
I7
tp320
a(I6
I5
tp321
a(I3
I5
tp322
a(I4
I6
tp323
a(I7
I4
tp324
a(I1
I7
tp325
a(I4
I8
tp326
a(I7
I8
tp327
a(I8
I4
tp328
atp329
Rp330
sg189
I11
sg225
g20
((lp331
(I1
I10
tp332
a(I5
I9
tp333
a(I0
I0
tp334
a(I9
I7
tp335
a(I10
I2
tp336
atp337
Rp338
sg194
((I5
I7
tp339
(I8
I1
tp340
(I3
I1
tp341
(I8
I8
tp342
tp343
sg195
I11
sbs(iproblems
RoomID
p344
(dp345
g189
I12
sg190
I6
sg191
I7529058068588108450
sg192
(I8
I8
tp346
sg194
I4
sg195
I11
sb(imulti_robot_problem
MultiRobotState
p347
(dp348
g198
g20
((lp349
(I5
I9
tp350
a(I6
I9
tp351
a(I9
I1
tp352
a(I6
I6
tp353
a(I7
I7
tp354
a(I3
I7
tp355
a(I5
I8
tp356
a(I8
I2
tp357
a(I5
I5
tp358
a(I7
I6
tp359
a(I4
I4
tp360
a(I1
I5
tp361
a(I7
I2
tp362
a(I3
I6
tp363
a(I2
I2
tp364
a(I1
I10
tp365
a(I4
I10
tp366
a(I3
I2
tp367
a(I2
I6
tp368
a(I10
I4
tp369
a(I7
I1
tp370
a(I7
I5
tp371
a(I4
I6
tp372
a(I6
I8
tp373
a(I7
I4
tp374
ag346
a(I7
I8
tp375
a(I3
I10
tp376
atp377
Rp378
sg189
I12
sg225
g20
((lp379
(I7
I3
tp380
a(I6
I0
tp381
a(I11
I3
tp382
a(I0
I5
tp383
a(I11
I6
tp384
a(I4
I0
tp385
atp386
Rp387
sg194
((I11
I7
tp388
(I6
I2
tp389
(I11
I5
tp390
(I6
I7
tp391
tp392
sg195
I11
sbs(iproblems
RoomID
p393
(dp394
g189
I9
sg190
I8
sg191
I6858376947525423350
sg192
(I5
I0
tp395
sg194
I4
sg195
I9
sb(imulti_robot_problem
MultiRobotState
p396
(dp397
g198
g20
((lp398
(I4
I7
tp399
a(I1
I3
tp400
a(I3
I0
tp401
a(I2
I8
tp402
a(I2
I1
tp403
a(I1
I6
tp404
a(I5
I1
tp405
a(I2
I5
tp406
a(I7
I2
tp407
a(I5
I5
tp408
a(I6
I3
tp409
ag395
a(I2
I2
tp410
a(I6
I4
tp411
a(I7
I1
tp412
a(I6
I0
tp413
a(I2
I3
tp414
a(I0
I8
tp415
a(I2
I7
tp416
a(I6
I1
tp417
a(I5
I7
tp418
a(I3
I8
tp419
a(I1
I8
tp420
a(I4
I3
tp421
a(I3
I4
tp422
a(I2
I4
tp423
atp424
Rp425
sg189
I9
sg225
g20
((lp426
(I8
I3
tp427
a(I7
I0
tp428
a(I4
I6
tp429
a(I6
I6
tp430
a(I8
I0
tp431
a(I8
I8
tp432
a(I7
I5
tp433
a(I8
I4
tp434
atp435
Rp436
sg194
((I1
I1
tp437
(I6
I5
tp438
(I8
I2
tp439
(I1
I5
tp440
tp441
sg195
I9
sbssS'name'
p442
S'mild_roomset'
p443
sbsg162
g163
sg164
(dp444
g187
((lp445
(F4.4899999999997817
I22
tp446
aF4.5199999999995271
tp447
sg244
((lp448
(F0.52000000000043656
I14
tp449
aF0.52000000000043656
tp450
sg299
((lp451
(F0.1499999999996362
I7
tp452
aF0.1499999999996362
tp453
sg344
((lp454
(F10.649999999999636
I13
tp455
aF10.730000000000473
tp456
sg393
((lp457
(F0.31999999999970896
I14
tp458
aF0.31999999999970896
tp459
ssba(imeasure_core
ProblemSetSolution
p460
(dp461
g3
(imeasure_core
RoomSet
p462
(dp463
S'rooms'
p464
(dp465
(iproblems
RoomID
p466
(dp467
S'width'
p468
I12
sS'dusts'
p469
I15
sS'seed'
p470
I4712128852136459333
sS'obstacles'
p471
(I5
I9
tp472
sS'robots'
p473
I7
sS'height'
p474
I13
sb(imulti_robot_problem
MultiRobotState
p475
(dp476
S'obstacle_locations'
p477
g20
((lp478
g472
a(I4
I9
tp479
a(I5
I5
tp480
a(I2
I8
tp481
a(I3
I1
tp482
a(I4
I12
tp483
a(I9
I4
tp484
a(I1
I7
tp485
a(I1
I10
tp486
a(I3
I12
tp487
a(I3
I9
tp488
a(I0
I8
tp489
a(I5
I2
tp490
atp491
Rp492
sg468
I12
sS'dirt_locations'
p493
g20
((lp494
(I6
I9
tp495
a(I9
I7
tp496
a(I3
I3
tp497
a(I1
I12
tp498
a(I5
I6
tp499
a(I7
I7
tp500
a(I3
I8
tp501
a(I8
I8
tp502
a(I10
I0
tp503
a(I2
I5
tp504
a(I10
I2
tp505
a(I3
I4
tp506
a(I1
I1
tp507
a(I5
I8
tp508
a(I3
I5
tp509
atp510
Rp511
sg473
((I6
I11
tp512
(I8
I11
tp513
(I7
I0
tp514
(I4
I1
tp515
(I6
I12
tp516
(I10
I9
tp517
(I6
I1
tp518
tp519
sg474
I13
sbs(iproblems
RoomID
p520
(dp521
g468
I11
sg469
I14
sg470
I6613812840851947673
sg471
(I5
I5
tp522
sg473
I5
sg474
I10
sb(imulti_robot_problem
MultiRobotState
p523
(dp524
g477
g20
((lp525
(I10
I8
tp526
a(I4
I7
tp527
a(I2
I6
tp528
ag522
a(I6
I6
tp529
a(I4
I5
tp530
a(I8
I5
tp531
a(I7
I4
tp532
a(I3
I6
tp533
a(I6
I3
tp534
a(I0
I6
tp535
a(I7
I5
tp536
a(I1
I6
tp537
a(I1
I3
tp538
a(I8
I7
tp539
a(I8
I6
tp540
a(I3
I8
tp541
a(I3
I7
tp542
a(I10
I3
tp543
a(I2
I4
tp544
a(I3
I5
tp545
atp546
Rp547
sg468
I11
sg493
g20
((lp548
(I6
I4
tp549
a(I3
I2
tp550
a(I4
I9
tp551
a(I4
I6
tp552
a(I9
I8
tp553
a(I8
I0
tp554
a(I9
I7
tp555
a(I8
I8
tp556
a(I5
I0
tp557
a(I1
I0
tp558
a(I8
I4
tp559
a(I5
I2
tp560
a(I6
I1
tp561
a(I3
I3
tp562
atp563
Rp564
sg473
((I5
I1
tp565
(I0
I8
tp566
(I2
I9
tp567
(I4
I1
tp568
(I7
I6
tp569
tp570
sg474
I10
sbs(iproblems
RoomID
p571
(dp572
g468
I11
sg469
I15
sg470
I2893396244277848635
sg471
(I6
I6
tp573
sg473
I5
sg474
I11
sb(imulti_robot_problem
MultiRobotState
p574
(dp575
g477
g20
((lp576
(I7
I3
tp577
a(I4
I7
tp578
a(I5
I5
tp579
a(I4
I8
tp580
a(I5
I6
tp581
a(I2
I8
tp582
ag573
a(I3
I2
tp583
a(I3
I9
tp584
a(I4
I3
tp585
a(I1
I7
tp586
a(I6
I9
tp587
atp588
Rp589
sg468
I11
sg493
g20
((lp590
(I5
I3
tp591
a(I2
I6
tp592
a(I3
I6
tp593
a(I3
I10
tp594
a(I3
I1
tp595
a(I2
I10
tp596
a(I0
I5
tp597
a(I5
I8
tp598
a(I8
I7
tp599
a(I3
I7
tp600
a(I8
I6
tp601
a(I7
I9
tp602
a(I4
I1
tp603
a(I6
I5
tp604
a(I4
I0
tp605
atp606
Rp607
sg473
((I4
I5
tp608
(I0
I9
tp609
(I0
I1
tp610
(I9
I2
tp611
(I8
I10
tp612
tp613
sg474
I11
sbs(iproblems
RoomID
p614
(dp615
g468
I10
sg469
I13
sg470
I6858376947525423350
sg471
(I1
I6
tp616
sg473
I7
sg474
I10
sb(imulti_robot_problem
MultiRobotState
p617
(dp618
g477
g20
((lp619
(I2
I7
tp620
a(I8
I6
tp621
a(I4
I7
tp622
a(I1
I3
tp623
a(I2
I9
tp624
ag616
a(I8
I1
tp625
a(I2
I8
tp626
a(I1
I7
tp627
a(I2
I1
tp628
a(I2
I3
tp629
a(I2
I2
tp630
a(I0
I9
tp631
a(I9
I5
tp632
a(I2
I5
tp633
a(I2
I4
tp634
atp635
Rp636
sg468
I10
sg493
g20
((lp637
(I5
I7
tp638
a(I4
I9
tp639
a(I3
I3
tp640
a(I3
I0
tp641
a(I7
I6
tp642
a(I8
I0
tp643
a(I9
I9
tp644
a(I6
I2
tp645
a(I5
I8
tp646
a(I9
I4
tp647
a(I8
I5
tp648
a(I4
I4
tp649
a(I5
I3
tp650
atp651
Rp652
sg473
((I1
I2
tp653
(I7
I5
tp654
(I7
I2
tp655
(I9
I2
tp656
(I1
I5
tp657
(I9
I0
tp658
(I6
I6
tp659
tp660
sg474
I10
sbs(iproblems
RoomID
p661
(dp662
g468
I10
sg469
I15
sg470
I956523682424107605
sg471
(I4
I8
tp663
sg473
I6
sg474
I13
sb(imulti_robot_problem
MultiRobotState
p664
(dp665
g477
g20
((lp666
(I2
I7
tp667
a(I5
I9
tp668
a(I6
I9
tp669
a(I5
I0
tp670
a(I4
I9
tp671
a(I9
I4
tp672
ag663
a(I5
I6
tp673
a(I3
I10
tp674
a(I5
I7
tp675
a(I3
I11
tp676
a(I9
I9
tp677
a(I7
I10
tp678
a(I5
I10
tp679
a(I7
I8
tp680
a(I1
I1
tp681
a(I5
I8
tp682
a(I5
I5
tp683
atp684
Rp685
sg468
I10
sg493
g20
((lp686
(I8
I3
tp687
a(I1
I3
tp688
a(I6
I6
tp689
a(I8
I12
tp690
a(I7
I6
tp691
a(I6
I10
tp692
a(I5
I4
tp693
a(I1
I4
tp694
a(I2
I10
tp695
a(I7
I4
tp696
a(I1
I5
tp697
a(I7
I5
tp698
a(I0
I9
tp699
a(I7
I11
tp700
a(I6
I2
tp701
atp702
Rp703
sg473
((I1
I12
tp704
(I6
I12
tp705
(I2
I11
tp706
(I0
I4
tp707
(I9
I1
tp708
(I7
I7
tp709
tp710
sg474
I13
sbssS'name'
p711
S'heavy_roomset'
p712
sbsg162
g163
sg164
(dp713
g466
((lp714
F311.72999999999956
tp715
sg520
((lp716
(F17.069999999999709
I20
tp717
aF17.230000000000473
tp718
sg571
((lp719
(F8.0799999999999272
I22
tp720
aF8.1599999999998545
tp721
sg614
((lp722
(F36.109999999999673
I14
tp723
aF36.460000000000036
tp724
sg661
((lp725
(F12.789999999999964
I10
tp726
aF12.920000000000073
tp727
ssba.