(lp0
(imeasure_core
ProblemSetSolution
p1
(dp2
S'roomset'
p3
(imeasure_core
RoomSet
p4
(dp5
S'rooms'
p6
(dp7
(iproblems
RoomID
p8
(dp9
S'width'
p10
I10
sS'dusts'
p11
I8
sS'seed'
p12
I5594871498841892311
sS'obstacles'
p13
(I5
I7
tp14
sS'robots'
p15
I5
sS'height'
p16
I9
sb(imulti_robot_problem
MultiRobotState
p17
(dp18
S'obstacle_locations'
p19
c__builtin__
frozenset
p20
((lp21
(I4
I7
tp22
ag14
a(I8
I3
tp23
a(I3
I6
tp24
a(I5
I1
tp25
a(I1
I0
tp26
a(I5
I8
tp27
atp28
Rp29
sg10
I10
sS'dirt_locations'
p30
g20
((lp31
(I0
I1
tp32
a(I9
I0
tp33
a(I8
I2
tp34
a(I6
I0
tp35
a(I2
I4
tp36
a(I1
I5
tp37
a(I9
I4
tp38
a(I1
I1
tp39
atp40
Rp41
sg15
((I7
I6
tp42
(I8
I4
tp43
(I5
I4
tp44
(I7
I2
tp45
(I7
I8
tp46
tp47
sg16
I9
sbs(iproblems
RoomID
p48
(dp49
g10
I8
sg11
I6
sg12
I8833747186876682921
sg13
(I4
I4
tp50
sg15
I5
sg16
I7
sb(imulti_robot_problem
MultiRobotState
p51
(dp52
g19
g20
((lp53
g50
a(I3
I4
tp54
a(I3
I3
tp55
a(I3
I5
tp56
a(I2
I2
tp57
atp58
Rp59
sg10
I8
sg30
g20
((lp60
(I6
I4
tp61
a(I5
I4
tp62
a(I1
I3
tp63
a(I5
I1
tp64
a(I0
I3
tp65
a(I5
I3
tp66
atp67
Rp68
sg15
((I2
I1
tp69
(I6
I1
tp70
(I3
I1
tp71
(I5
I0
tp72
(I7
I3
tp73
tp74
sg16
I7
sbs(iproblems
RoomID
p75
(dp76
g10
I10
sg11
I5
sg12
I1662056218554549082
sg13
(I6
I4
tp77
sg15
I2
sg16
I8
sb(imulti_robot_problem
MultiRobotState
p78
(dp79
g19
g20
((lp80
g77
a(I4
I6
tp81
a(I4
I4
tp82
a(I3
I6
tp83
a(I9
I6
tp84
a(I5
I5
tp85
atp86
Rp87
sg10
I10
sg30
g20
((lp88
(I4
I5
tp89
a(I3
I3
tp90
a(I8
I3
tp91
a(I7
I7
tp92
a(I8
I4
tp93
atp94
Rp95
sg15
((I9
I3
tp96
(I2
I0
tp97
tp98
sg16
I8
sbs(iproblems
RoomID
p99
(dp100
g10
I9
sg11
I7
sg12
I365562409358139953
sg13
(I5
I2
tp101
sg15
I5
sg16
I8
sb(imulti_robot_problem
MultiRobotState
p102
(dp103
g19
g20
((lp104
(I6
I4
tp105
a(I5
I5
tp106
a(I2
I1
tp107
a(I3
I7
tp108
a(I2
I5
tp109
ag101
a(I0
I2
tp110
a(I5
I3
tp111
atp112
Rp113
sg10
I9
sg30
g20
((lp114
(I8
I2
tp115
a(I4
I5
tp116
a(I5
I7
tp117
a(I2
I0
tp118
a(I1
I6
tp119
a(I8
I6
tp120
a(I3
I4
tp121
atp122
Rp123
sg15
((I4
I2
tp124
(I8
I3
tp125
(I6
I3
tp126
(I2
I4
tp127
(I6
I7
tp128
tp129
sg16
I8
sbs(iproblems
RoomID
p130
(dp131
g10
I8
sg11
I6
sg12
I1085536589165212248
sg13
(I2
I3
tp132
sg15
I1
sg16
I8
sb(imulti_robot_problem
MultiRobotState
p133
(dp134
g19
g20
((lp135
(I0
I7
tp136
a(I1
I5
tp137
ag132
a(I1
I4
tp138
a(I1
I6
tp139
a(I4
I0
tp140
atp141
Rp142
sg10
I8
sg30
g20
((lp143
(I0
I1
tp144
a(I1
I2
tp145
a(I7
I3
tp146
a(I6
I0
tp147
a(I2
I1
tp148
a(I5
I1
tp149
atp150
Rp151
sg15
((I3
I2
tp152
tp153
sg16
I8
sbssS'name'
p154
S'easy_roomset'
p155
sbsS'name'
p156
S"AnytimeBeam-w20-gf(2, 'lin')_with_PowerHeuristic2"
p157
sS'solutions'
p158
(dp159
g8
((lp160
(F2.8000000000029104
I13
tp161
aF40.190000000002328
tp162
sg48
((lp163
(F0.53999999999723514
I4
tp164
aF40.119999999998981
tp165
sg75
((lp166
(F0.029999999998835847
I7
tp167
aF40.009999999998399
tp168
sg99
((lp169
F40.520000000000437
tp170
sg130
((lp171
(F0.049999999999272404
I32
tp172
a(F0.11000000000058208
I30
tp173
a(F5.1300000000010186
I28
tp174
a(F5.4799999999995634
I27
tp175
a(F5.8600000000005821
I25
tp176
a(F6.1900000000023283
I23
tp177
a(F8.930000000000291
I21
tp178
a(F10.010000000002037
I20
tp179
a(F27.909999999999854
I19
tp180
a(F29.580000000001746
I17
tp181
a(F31.190000000002328
I15
tp182
aF40.0
tp183
ssba(imeasure_core
ProblemSetSolution
p184
(dp185
g3
(imeasure_core
RoomSet
p186
(dp187
S'rooms'
p188
(dp189
(iproblems
RoomID
p190
(dp191
S'width'
p192
I12
sS'dusts'
p193
I8
sS'seed'
p194
I5594871498841892311
sS'obstacles'
p195
(I9
I3
tp196
sS'robots'
p197
I4
sS'height'
p198
I11
sb(imulti_robot_problem
MultiRobotState
p199
(dp200
S'obstacle_locations'
p201
g20
((lp202
(I5
I9
tp203
a(I6
I9
tp204
a(I9
I1
tp205
a(I4
I8
tp206
a(I8
I0
tp207
a(I9
I4
tp208
a(I3
I7
tp209
a(I5
I8
tp210
a(I10
I8
tp211
a(I9
I0
tp212
a(I8
I10
tp213
a(I5
I0
tp214
a(I10
I0
tp215
ag196
a(I11
I9
tp216
a(I6
I0
tp217
a(I4
I2
tp218
a(I7
I9
tp219
a(I7
I0
tp220
a(I6
I8
tp221
a(I9
I2
tp222
a(I5
I7
tp223
a(I9
I9
tp224
a(I2
I0
tp225
a(I0
I9
tp226
a(I10
I2
tp227
atp228
Rp229
sg192
I12
sS'dirt_locations'
p230
g20
((lp231
(I2
I6
tp232
a(I11
I5
tp233
a(I6
I1
tp234
a(I11
I1
tp235
a(I2
I1
tp236
a(I8
I8
tp237
a(I0
I2
tp238
a(I3
I5
tp239
atp240
Rp241
sg197
((I9
I7
tp242
(I10
I5
tp243
(I6
I5
tp244
(I8
I3
tp245
tp246
sg198
I11
sbs(iproblems
RoomID
p247
(dp248
g192
I10
sg193
I6
sg194
I8833747186876682921
sg195
(I9
I4
tp249
sg197
I4
sg198
I9
sb(imulti_robot_problem
MultiRobotState
p250
(dp251
g201
g20
((lp252
(I2
I7
tp253
a(I4
I7
tp254
a(I5
I5
tp255
a(I4
I8
tp256
a(I4
I5
tp257
a(I4
I1
tp258
a(I3
I6
tp259
a(I8
I3
tp260
a(I2
I1
tp261
a(I8
I8
tp262
a(I7
I4
tp263
a(I5
I6
tp264
a(I7
I5
tp265
a(I2
I3
tp266
ag249
a(I2
I5
tp267
a(I3
I4
tp268
a(I1
I1
tp269
a(I6
I5
tp270
a(I3
I5
tp271
atp272
Rp273
sg192
I10
sg230
g20
((lp274
(I3
I2
tp275
a(I7
I0
tp276
a(I0
I7
tp277
a(I6
I2
tp278
a(I1
I4
tp279
a(I0
I4
tp280
atp281
Rp282
sg197
((I3
I1
tp283
(I8
I1
tp284
(I3
I3
tp285
(I4
I2
tp286
tp287
sg198
I9
sbs(iproblems
RoomID
p288
(dp289
g192
I12
sg193
I8
sg194
I4800841617172907184
sg195
(I4
I6
tp290
sg197
I3
sg198
I9
sb(imulti_robot_problem
MultiRobotState
p291
(dp292
g201
g20
((lp293
(I10
I1
tp294
a(I6
I6
tp295
a(I9
I8
tp296
a(I2
I1
tp297
a(I8
I5
tp298
a(I7
I2
tp299
a(I3
I3
tp300
a(I6
I3
tp301
a(I8
I6
tp302
a(I9
I7
tp303
a(I5
I4
tp304
a(I7
I1
tp305
a(I4
I5
tp306
a(I9
I3
tp307
a(I6
I0
tp308
a(I8
I7
tp309
a(I4
I2
tp310
a(I5
I3
tp311
a(I8
I3
tp312
ag290
a(I11
I8
tp313
a(I3
I1
tp314
a(I11
I3
tp315
a(I0
I6
tp316
a(I4
I3
tp317
a(I8
I4
tp318
atp319
Rp320
sg192
I12
sg230
g20
((lp321
(I11
I4
tp322
a(I8
I2
tp323
a(I10
I7
tp324
a(I7
I6
tp325
a(I1
I4
tp326
a(I11
I0
tp327
a(I9
I2
tp328
a(I0
I2
tp329
atp330
Rp331
sg197
((I9
I1
tp332
(I0
I4
tp333
(I7
I4
tp334
tp335
sg198
I9
sbs(iproblems
RoomID
p336
(dp337
g192
I11
sg193
I7
sg194
I365562409358139953
sg195
(I8
I4
tp338
sg197
I4
sg198
I10
sb(imulti_robot_problem
MultiRobotState
p339
(dp340
g201
g20
((lp341
(I5
I9
tp342
a(I7
I3
tp343
a(I2
I8
tp344
a(I6
I2
tp345
a(I1
I6
tp346
a(I9
I4
tp347
a(I10
I8
tp348
a(I6
I7
tp349
a(I10
I7
tp350
a(I7
I6
tp351
a(I4
I8
tp352
a(I8
I6
tp353
a(I9
I7
tp354
a(I6
I4
tp355
a(I7
I5
tp356
a(I0
I5
tp357
a(I8
I7
tp358
a(I9
I6
tp359
a(I6
I5
tp360
a(I10
I5
tp361
a(I6
I1
tp362
a(I3
I1
tp363
a(I3
I8
tp364
a(I5
I2
tp365
ag338
atp366
Rp367
sg192
I11
sg230
g20
((lp368
(I6
I9
tp369
a(I5
I6
tp370
a(I2
I1
tp371
a(I4
I5
tp372
a(I1
I7
tp373
a(I10
I3
tp374
a(I0
I2
tp375
atp376
Rp377
sg197
((I10
I4
tp378
(I7
I4
tp379
(I3
I6
tp380
(I8
I9
tp381
tp382
sg198
I10
sbs(iproblems
RoomID
p383
(dp384
g192
I9
sg193
I10
sg194
I6645345695289302126
sg195
(I4
I8
tp385
sg197
I3
sg198
I11
sb(imulti_robot_problem
MultiRobotState
p386
(dp387
g201
g20
((lp388
(I5
I9
tp389
a(I3
I2
tp390
a(I4
I4
tp391
a(I4
I6
tp392
ag385
a(I4
I5
tp393
a(I3
I4
tp394
a(I6
I1
tp395
a(I3
I1
tp396
a(I1
I4
tp397
a(I1
I1
tp398
a(I3
I8
tp399
a(I1
I5
tp400
a(I8
I4
tp401
a(I4
I3
tp402
a(I3
I7
tp403
a(I4
I2
tp404
a(I3
I5
tp405
a(I4
I1
tp406
a(I2
I4
tp407
a(I3
I3
tp408
atp409
Rp410
sg192
I9
sg230
g20
((lp411
(I0
I1
tp412
a(I5
I4
tp413
a(I6
I7
tp414
a(I8
I2
tp415
a(I3
I6
tp416
a(I8
I8
tp417
a(I2
I3
tp418
a(I8
I7
tp419
a(I1
I0
tp420
a(I5
I5
tp421
atp422
Rp423
sg197
((I1
I6
tp424
(I0
I9
tp425
(I0
I5
tp426
tp427
sg198
I11
sbssS'name'
p428
S'mild_roomset'
p429
sbsg156
g157
sg158
(dp430
g190
((lp431
(F1.1199999999989814
I32
tp432
aF40.110000000000582
tp433
sg247
((lp434
(F1.4299999999966531
I32
tp435
aF40.009999999998399
tp436
sg288
((lp437
(F0.15999999999985448
I17
tp438
aF40.029999999998836
tp439
sg336
((lp440
(F0.29000000000087311
I25
tp441
aF40.010000000002037
tp442
sg383
((lp443
(F17.829999999998108
I127
tp444
aF40.0
tp445
ssba(imeasure_core
ProblemSetSolution
p446
(dp447
g3
(imeasure_core
RoomSet
p448
(dp449
S'rooms'
p450
(dp451
(iproblems
RoomID
p452
(dp453
S'width'
p454
I13
sS'dusts'
p455
I13
sS'seed'
p456
I5594871498841892311
sS'obstacles'
p457
(I9
I8
tp458
sS'robots'
p459
I7
sS'height'
p460
I12
sb(imulti_robot_problem
MultiRobotState
p461
(dp462
S'obstacle_locations'
p463
g20
((lp464
(I5
I9
tp465
a(I6
I9
tp466
a(I1
I3
tp467
a(I6
I7
tp468
a(I10
I4
tp469
a(I4
I8
tp470
ag458
a(I6
I10
tp471
a(I11
I3
tp472
a(I1
I4
tp473
a(I8
I10
tp474
a(I9
I7
tp475
a(I5
I0
tp476
a(I9
I5
tp477
a(I8
I6
tp478
a(I7
I9
tp479
a(I9
I6
tp480
a(I10
I0
tp481
a(I6
I8
tp482
a(I5
I5
tp483
atp484
Rp485
sg454
I13
sS'dirt_locations'
p486
g20
((lp487
(I2
I7
tp488
a(I10
I5
tp489
a(I11
I5
tp490
a(I6
I1
tp491
a(I8
I0
tp492
a(I2
I1
tp493
a(I2
I0
tp494
a(I0
I10
tp495
a(I7
I10
tp496
a(I12
I10
tp497
a(I5
I2
tp498
a(I0
I2
tp499
a(I3
I5
tp500
atp501
Rp502
sg459
((I10
I8
tp503
(I11
I6
tp504
(I7
I5
tp505
(I9
I3
tp506
(I9
I11
tp507
(I12
I1
tp508
(I9
I9
tp509
tp510
sg460
I12
sbs(iproblems
RoomID
p511
(dp512
g454
I11
sg455
I11
sg456
I8833747186876682921
sg457
(I8
I7
tp513
sg459
I7
sg460
I10
sb(imulti_robot_problem
MultiRobotState
p514
(dp515
g463
g20
((lp516
(I4
I4
tp517
a(I6
I7
tp518
a(I5
I5
tp519
a(I4
I8
tp520
a(I4
I5
tp521
a(I5
I7
tp522
a(I2
I1
tp523
a(I6
I3
tp524
a(I8
I1
tp525
a(I8
I8
tp526
a(I3
I3
tp527
ag513
a(I5
I1
tp528
a(I10
I2
tp529
a(I7
I8
tp530
a(I4
I6
tp531
atp532
Rp533
sg454
I11
sg486
g20
((lp534
(I10
I5
tp535
a(I7
I6
tp536
a(I4
I7
tp537
a(I1
I4
tp538
a(I9
I9
tp539
a(I3
I8
tp540
a(I0
I5
tp541
a(I8
I6
tp542
a(I2
I5
tp543
a(I0
I8
tp544
a(I7
I2
tp545
atp546
Rp547
sg459
((I3
I1
tp548
(I9
I1
tp549
(I5
I2
tp550
(I4
I3
tp551
(I8
I0
tp552
(I10
I4
tp553
(I8
I5
tp554
tp555
sg460
I10
sbs(iproblems
RoomID
p556
(dp557
g454
I10
sg455
I13
sg456
I5338040351619750409
sg457
(I3
I8
tp558
sg459
I5
sg460
I10
sb(imulti_robot_problem
MultiRobotState
p559
(dp560
g463
g20
((lp561
(I4
I7
tp562
a(I2
I6
tp563
a(I9
I1
tp564
a(I2
I8
tp565
a(I6
I1
tp566
a(I1
I4
tp567
ag558
a(I1
I6
tp568
a(I4
I3
tp569
a(I1
I7
tp570
a(I2
I5
tp571
a(I6
I8
tp572
a(I2
I4
tp573
a(I9
I7
tp574
atp575
Rp576
sg454
I10
sg486
g20
((lp577
(I8
I3
tp578
a(I1
I3
tp579
a(I4
I9
tp580
a(I4
I6
tp581
a(I6
I6
tp582
a(I6
I9
tp583
a(I2
I1
tp584
a(I8
I9
tp585
a(I1
I8
tp586
a(I7
I5
tp587
a(I3
I6
tp588
a(I9
I6
tp589
a(I4
I0
tp590
atp591
Rp592
sg459
((I2
I0
tp593
(I3
I5
tp594
(I5
I0
tp595
(I5
I2
tp596
(I4
I5
tp597
tp598
sg460
I10
sbs(iproblems
RoomID
p599
(dp600
g454
I11
sg455
I11
sg456
I1085536589165212248
sg457
(I4
I6
tp601
sg459
I5
sg460
I11
sb(imulti_robot_problem
MultiRobotState
p602
(dp603
g463
g20
((lp604
(I10
I5
tp605
a(I2
I6
tp606
a(I3
I2
tp607
ag601
a(I9
I3
tp608
a(I9
I9
tp609
a(I1
I8
tp610
a(I1
I9
tp611
a(I1
I7
tp612
a(I3
I7
tp613
a(I6
I9
tp614
a(I5
I8
tp615
a(I3
I3
tp616
atp617
Rp618
sg454
I11
sg486
g20
((lp619
(I0
I1
tp620
a(I4
I9
tp621
a(I10
I4
tp622
a(I10
I7
tp623
a(I6
I0
tp624
a(I0
I7
tp625
a(I2
I3
tp626
a(I1
I4
tp627
a(I2
I2
tp628
a(I10
I0
tp629
a(I0
I10
tp630
atp631
Rp632
sg459
((I5
I3
tp633
(I0
I2
tp634
(I3
I1
tp635
(I7
I1
tp636
(I9
I0
tp637
tp638
sg460
I11
sbs(iproblems
RoomID
p639
(dp640
g454
I12
sg455
I12
sg456
I365562409358139953
sg457
(I0
I5
tp641
sg459
I7
sg460
I11
sb(imulti_robot_problem
MultiRobotState
p642
(dp643
g463
g20
((lp644
(I8
I6
tp645
a(I1
I3
tp646
a(I2
I9
tp647
a(I6
I6
tp648
a(I10
I7
tp649
a(I5
I2
tp650
a(I7
I6
tp651
a(I3
I1
tp652
a(I2
I2
tp653
a(I4
I8
tp654
a(I7
I5
tp655
ag641
a(I8
I7
tp656
a(I0
I4
tp657
a(I4
I2
tp658
a(I3
I9
tp659
a(I7
I8
tp660
a(I11
I6
tp661
a(I8
I4
tp662
atp663
Rp664
sg454
I12
sg486
g20
((lp665
(I3
I2
tp666
a(I5
I7
tp667
a(I4
I9
tp668
a(I10
I4
tp669
a(I11
I9
tp670
a(I2
I1
tp671
a(I0
I6
tp672
a(I1
I6
tp673
a(I5
I10
tp674
a(I7
I10
tp675
a(I3
I7
tp676
a(I0
I2
tp677
atp678
Rp679
sg459
((I6
I3
tp680
(I10
I5
tp681
(I3
I6
tp682
(I8
I10
tp683
(I4
I6
tp684
(I11
I3
tp685
(I1
I8
tp686
tp687
sg460
I11
sbssS'name'
p688
S'heavy_roomset'
p689
sbsg156
g157
sg158
(dp690
g452
((lp691
F40.099999999998545
tp692
sg511
((lp693
(F22.529999999998836
I19
tp694
aF40.850000000002183
tp695
sg556
((lp696
(F2.4599999999991269
I16
tp697
aF40.049999999999272
tp698
sg599
((lp699
(F2.0400000000008731
I15
tp700
aF40.009999999998399
tp701
sg639
((lp702
F40.069999999999709
tp703
ssba(imeasure_core
ProblemSetSolution
p704
(dp705
g3
g4
sg156
S"AnytimeBeam-w20-gf(4, 'lin')_with_PowerHeuristic2"
p706
sg158
(dp707
g8
((lp708
(F2.7900000000008731
I13
tp709
aF40.170000000001892
tp710
sg48
((lp711
(F0.52999999999883585
I4
tp712
aF40.599999999998545
tp713
sg75
((lp714
(F0.029999999998835847
I7
tp715
aF40.0
tp716
sg99
((lp717
F40.220000000001164
tp718
sg130
((lp719
(F0.059999999997671694
I32
tp720
a(F0.11999999999898137
I30
tp721
a(F2.5799999999981083
I28
tp722
a(F2.930000000000291
I27
tp723
a(F3.3099999999976717
I25
tp724
a(F3.6300000000010186
I23
tp725
a(F4.3600000000005821
I21
tp726
a(F5.4399999999986903
I20
tp727
a(F14.599999999998545
I19
tp728
a(F16.270000000000437
I17
tp729
a(F17.889999999999418
I15
tp730
aF40.0
tp731
ssba(imeasure_core
ProblemSetSolution
p732
(dp733
g3
g186
sg156
g706
sg158
(dp734
g190
((lp735
(F1.1300000000010186
I32
tp736
aF40.029999999998836
tp737
sg247
((lp738
(F1.4200000000018917
I32
tp739
aF40.100000000002183
tp740
sg288
((lp741
(F0.16999999999825377
I17
tp742
aF40.0
tp743
sg336
((lp744
(F0.2999999999992724
I25
tp745
aF40.079999999998108
tp746
sg383
((lp747
(F12.75
I127
tp748
aF40.010000000002037
tp749
ssba(imeasure_core
ProblemSetSolution
p750
(dp751
g3
g448
sg156
g706
sg158
(dp752
g452
((lp753
F40.169999999998254
tp754
sg511
((lp755
(F22.479999999999563
I19
tp756
aF40.869999999998981
tp757
sg556
((lp758
(F2.4700000000011642
I16
tp759
aF40.0
tp760
sg599
((lp761
(F2.0499999999992724
I15
tp762
aF40.729999999999563
tp763
sg639
((lp764
F40.020000000000437
tp765
ssba(imeasure_core
ProblemSetSolution
p766
(dp767
g3
g4
sg156
S"AnytimeBeam-w20-gf(8, 'lin')_with_PowerHeuristic2"
p768
sg158
(dp769
g8
((lp770
(F2.7899999999972351
I13
tp771
aF40.399999999997817
tp772
sg48
((lp773
(F0.53000000000247383
I4
tp774
aF40.659999999999854
tp775
sg75
((lp776
(F0.030000000002473826
I7
tp777
aF40.0
tp778
sg99
((lp779
F40.31000000000131
tp780
sg130
((lp781
(F0.060000000001309672
I32
tp782
a(F0.11999999999898137
I30
tp783
a(F1.2799999999988358
I28
tp784
a(F1.6399999999994179
I27
tp785
a(F2.0200000000004366
I25
tp786
a(F2.3499999999985448
I23
tp787
a(F3.0600000000013097
I21
tp788
a(F4.1399999999994179
I20
tp789
a(F6.75
I19
tp790
a(F8.4199999999982538
I17
tp791
a(F10.040000000000873
I15
tp792
aF40.0
tp793
ssba(imeasure_core
ProblemSetSolution
p794
(dp795
g3
g186
sg156
g768
sg158
(dp796
g190
((lp797
(F1.1300000000010186
I32
tp798
aF40.009999999998399
tp799
sg247
((lp800
(F1.430000000000291
I32
tp801
aF40.090000000000146
tp802
sg288
((lp803
(F0.17000000000189175
I17
tp804
aF40.05000000000291
tp805
sg336
((lp806
(F0.2999999999992724
I25
tp807
aF40.079999999998108
tp808
sg383
((lp809
(F10.720000000001164
I127
tp810
aF40.0
tp811
ssba(imeasure_core
ProblemSetSolution
p812
(dp813
g3
g448
sg156
g768
sg158
(dp814
g452
((lp815
F40.229999999999563
tp816
sg511
((lp817
(F22.549999999999272
I19
tp818
aF40.099999999998545
tp819
sg556
((lp820
(F2.4700000000011642
I16
tp821
aF40.080000000001746
tp822
sg599
((lp823
(F2.0399999999972351
I15
tp824
aF40.359999999996944
tp825
sg639
((lp826
F40.100000000002183
tp827
ssba(imeasure_core
ProblemSetSolution
p828
(dp829
g3
g4
sg156
S"AnytimeBeam-w20-gf(16, 'lin')_with_PowerHeuristic2"
p830
sg158
(dp831
g8
((lp832
(F2.7999999999992724
I13
tp833
aF40.290000000000873
tp834
sg48
((lp835
(F0.53999999999723514
I4
tp836
aF40.359999999996944
tp837
sg75
((lp838
(F0.030000000002473826
I7
tp839
aF40.0
tp840
sg99
((lp841
F40.31000000000131
tp842
sg130
((lp843
(F0.060000000001309672
I32
tp844
a(F0.11999999999898137
I30
tp845
a(F0.63999999999941792
I28
tp846
a(F0.99000000000160071
I27
tp847
a(F1.3699999999989814
I25
tp848
a(F1.7000000000007276
I23
tp849
a(F2.4200000000018917
I21
tp850
a(F3.4900000000016007
I20
tp851
a(F4.9099999999998545
I19
tp852
a(F6.5900000000001455
I17
tp853
a(F8.2000000000007276
I15
tp854
aF40.0
tp855
ssba(imeasure_core
ProblemSetSolution
p856
(dp857
g3
g186
sg156
g830
sg158
(dp858
g190
((lp859
(F1.1300000000010186
I32
tp860
aF40.020000000000437
tp861
sg247
((lp862
(F1.430000000000291
I32
tp863
aF40.06000000000131
tp864
sg288
((lp865
(F0.16999999999825377
I17
tp866
aF40.029999999998836
tp867
sg336
((lp868
(F0.2999999999992724
I25
tp869
aF40.029999999998836
tp870
sg383
((lp871
(F9.5200000000004366
I127
tp872
aF40.0
tp873
ssba(imeasure_core
ProblemSetSolution
p874
(dp875
g3
g448
sg156
g830
sg158
(dp876
g452
((lp877
F40.159999999999854
tp878
sg511
((lp879
(F22.490000000001601
I19
tp880
aF40.130000000001019
tp881
sg556
((lp882
(F2.4700000000011642
I16
tp883
aF40.110000000000582
tp884
sg599
((lp885
(F2.0499999999992724
I15
tp886
aF40.090000000000146
tp887
sg639
((lp888
F40.009999999998399
tp889
ssba(imeasure_core
ProblemSetSolution
p890
(dp891
g3
g4
sg156
S"AnytimeBeam-w20-gf(2, 'lin')_with_LinearHeuristic"
p892
sg158
(dp893
g8
((lp894
F40.0
tp895
sg48
((lp896
(F0.93000000000029104
I4
tp897
aF40.389999999999418
tp898
sg75
((lp899
(F0.030000000002473826
I7
tp900
aF40.0
tp901
sg99
((lp902
(F2.7300000000032014
I17
tp903
aF40.010000000002037
tp904
sg130
((lp905
(F0.0099999999983992893
I15
tp906
aF40.0
tp907
ssba(imeasure_core
ProblemSetSolution
p908
(dp909
g3
g186
sg156
g892
sg158
(dp910
g190
((lp911
F40.119999999998981
tp912
sg247
((lp913
(F34.869999999998981
I229
tp914
aF40.069999999999709
tp915
sg288
((lp916
F40.319999999999709
tp917
sg336
((lp918
F40.080000000001746
tp919
sg383
((lp920
F40.049999999999272
tp921
ssba(imeasure_core
ProblemSetSolution
p922
(dp923
g3
g448
sg156
g892
sg158
(dp924
g452
((lp925
F43.540000000000873
tp926
sg511
((lp927
F40.100000000002183
tp928
sg556
((lp929
F40.319999999999709
tp930
sg599
((lp931
F40.25
tp932
sg639
((lp933
F40.029999999998836
tp934
ssba(imeasure_core
ProblemSetSolution
p935
(dp936
g3
g4
sg156
S"AnytimeBeam-w20-gf(4, 'lin')_with_LinearHeuristic"
p937
sg158
(dp938
g8
((lp939
F40.029999999998836
tp940
sg48
((lp941
(F0.92000000000189175
I4
tp942
aF40.280000000002474
tp943
sg75
((lp944
(F0.039999999997235136
I7
tp945
aF40.0
tp946
sg99
((lp947
(F2.7199999999975262
I17
tp948
aF40.209999999999127
tp949
sg130
((lp950
(F0.020000000000436557
I15
tp951
aF40.0
tp952
ssba(imeasure_core
ProblemSetSolution
p953
(dp954
g3
g186
sg156
g937
sg158
(dp955
g190
((lp956
F40.099999999998545
tp957
sg247
((lp958
(F35.030000000002474
I229
tp959
aF40.06000000000131
tp960
sg288
((lp961
F40.270000000000437
tp962
sg336
((lp963
F40.029999999998836
tp964
sg383
((lp965
F40.010000000002037
tp966
ssba(imeasure_core
ProblemSetSolution
p967
(dp968
g3
g448
sg156
g937
sg158
(dp969
g452
((lp970
F43.490000000001601
tp971
sg511
((lp972
F40.079999999998108
tp973
sg556
((lp974
F40.270000000000437
tp975
sg599
((lp976
F40.020000000000437
tp977
sg639
((lp978
F40.079999999998108
tp979
ssba(imeasure_core
ProblemSetSolution
p980
(dp981
g3
g4
sg156
S"AnytimeBeam-w20-gf(8, 'lin')_with_LinearHeuristic"
p982
sg158
(dp983
g8
((lp984
F41.059999999997672
tp985
sg48
((lp986
(F0.93000000000029104
I4
tp987
aF40.210000000002765
tp988
sg75
((lp989
(F0.039999999997235136
I7
tp990
aF40.0
tp991
sg99
((lp992
(F2.7199999999975262
I17
tp993
aF40.319999999999709
tp994
sg130
((lp995
(F0.0099999999983992893
I15
tp996
aF40.0
tp997
ssba(imeasure_core
ProblemSetSolution
p998
(dp999
g3
g186
sg156
g982
sg158
(dp1000
g190
((lp1001
F40.029999999998836
tp1002
sg247
((lp1003
(F34.909999999999854
I229
tp1004
aF40.049999999999272
tp1005
sg288
((lp1006
F40.229999999999563
tp1007
sg336
((lp1008
F40.020000000000437
tp1009
sg383
((lp1010
F40.010000000002037
tp1011
ssba(imeasure_core
ProblemSetSolution
p1012
(dp1013
g3
g448
sg156
g982
sg158
(dp1014
g452
((lp1015
F43.600000000002183
tp1016
sg511
((lp1017
F40.079999999998108
tp1018
sg556
((lp1019
F40.240000000001601
tp1020
sg599
((lp1021
F40.049999999999272
tp1022
sg639
((lp1023
F40.110000000000582
tp1024
ssba(imeasure_core
ProblemSetSolution
p1025
(dp1026
g3
g4
sg156
S"AnytimeBeam-w20-gf(16, 'lin')_with_LinearHeuristic"
p1027
sg158
(dp1028
g8
((lp1029
F40.020000000000437
tp1030
sg48
((lp1031
(F0.91999999999825377
I4
tp1032
aF40.25
tp1033
sg75
((lp1034
(F0.040000000000873115
I7
tp1035
aF40.0
tp1036
sg99
((lp1037
(F2.7400000000016007
I17
tp1038
aF40.080000000001746
tp1039
sg130
((lp1040
(F0.0099999999983992893
I15
tp1041
aF40.0
tp1042
ssba(imeasure_core
ProblemSetSolution
p1043
(dp1044
g3
g186
sg156
g1027
sg158
(dp1045
g190
((lp1046
F40.099999999998545
tp1047
sg247
((lp1048
(F34.860000000000582
I229
tp1049
aF40.069999999999709
tp1050
sg288
((lp1051
F40.0
tp1052
sg336
((lp1053
F40.090000000000146
tp1054
sg383
((lp1055
F40.049999999999272
tp1056
ssba(imeasure_core
ProblemSetSolution
p1057
(dp1058
g3
g448
sg156
g1027
sg158
(dp1059
g452
((lp1060
F43.469999999997526
tp1061
sg511
((lp1062
F40.159999999999854
tp1063
sg556
((lp1064
F40.280000000002474
tp1065
sg599
((lp1066
F40.149999999997817
tp1067
sg639
((lp1068
F40.010000000002037
tp1069
ssba.