(lp0
(imeasure_core
ProblemSetSolution
p1
(dp2
S'roomset'
p3
(imeasure_core
RoomSet
p4
(dp5
S'rooms'
p6
(dp7
(iproblems
RoomID
p8
(dp9
S'width'
p10
I9
sS'dusts'
p11
I7
sS'seed'
p12
I1486246605650367638
sS'obstacles'
p13
(I1
I3
tp14
sS'robots'
p15
I1
sS'height'
p16
I7
sb(imulti_robot_problem
MultiRobotState
p17
(dp18
S'obstacle_locations'
p19
c__builtin__
frozenset
p20
((lp21
(I0
I1
tp22
a(I8
I3
tp23
ag14
a(I0
I3
tp24
a(I0
I2
tp25
atp26
Rp27
sg10
I9
sS'dirt_locations'
p28
g20
((lp29
(I7
I0
tp30
a(I4
I4
tp31
a(I7
I5
tp32
a(I0
I4
tp33
a(I1
I0
tp34
a(I6
I5
tp35
a(I4
I0
tp36
atp37
Rp38
sg15
((I5
I1
tp39
tp40
sg16
I7
sbs(iproblems
RoomID
p41
(dp42
g10
I10
sg11
I9
sg12
I679259829289197625
sg13
(I7
I5
tp43
sg15
I4
sg16
I10
sb(imulti_robot_problem
MultiRobotState
p44
(dp45
g19
g20
((lp46
(I7
I0
tp47
a(I8
I6
tp48
a(I7
I6
tp49
ag43
a(I9
I6
tp50
atp51
Rp52
sg10
I10
sg28
g20
((lp53
(I5
I4
tp54
a(I2
I6
tp55
a(I7
I1
tp56
a(I6
I1
tp57
a(I0
I5
tp58
a(I8
I7
tp59
a(I9
I5
tp60
a(I0
I9
tp61
a(I1
I6
tp62
atp63
Rp64
sg15
((I7
I8
tp65
(I6
I7
tp66
(I3
I5
tp67
(I3
I9
tp68
tp69
sg16
I10
sbs(iproblems
RoomID
p70
(dp71
g10
I10
sg11
I6
sg12
I403795515464475257
sg13
(I1
I6
tp72
sg15
I4
sg16
I8
sb(imulti_robot_problem
MultiRobotState
p73
(dp74
g19
g20
((lp75
(I8
I3
tp76
a(I1
I3
tp77
a(I6
I7
tp78
ag72
a(I0
I4
tp79
a(I0
I5
tp80
a(I4
I1
tp81
atp82
Rp83
sg10
I10
sg28
g20
((lp84
(I7
I3
tp85
a(I4
I7
tp86
a(I8
I0
tp87
a(I0
I7
tp88
a(I2
I2
tp89
a(I0
I2
tp90
atp91
Rp92
sg15
((I8
I2
tp93
(I6
I1
tp94
(I5
I0
tp95
(I2
I0
tp96
tp97
sg16
I8
sbs(iproblems
RoomID
p98
(dp99
g10
I9
sg11
I6
sg12
I5891625650498269233
sg13
(I4
I4
tp100
sg15
I4
sg16
I9
sb(imulti_robot_problem
MultiRobotState
p101
(dp102
g19
g20
((lp103
(I2
I7
tp104
a(I4
I5
tp105
ag100
a(I3
I6
tp106
atp107
Rp108
sg10
I9
sg28
g20
((lp109
(I8
I3
tp110
a(I5
I5
tp111
a(I6
I6
tp112
a(I7
I4
tp113
a(I0
I5
tp114
a(I4
I0
tp115
atp116
Rp117
sg15
((I4
I6
tp118
(I7
I1
tp119
(I0
I4
tp120
(I7
I2
tp121
tp122
sg16
I9
sbs(iproblems
RoomID
p123
(dp124
g10
I9
sg11
I5
sg12
I2685440357799139976
sg13
(I3
I4
tp125
sg15
I1
sg16
I9
sb(imulti_robot_problem
MultiRobotState
p126
(dp127
g19
g20
((lp128
(I8
I3
tp129
a(I1
I3
tp130
a(I5
I6
tp131
a(I7
I8
tp132
a(I1
I1
tp133
a(I3
I8
tp134
a(I2
I3
tp135
ag125
a(I2
I4
tp136
atp137
Rp138
sg10
I9
sg28
g20
((lp139
(I0
I1
tp140
a(I0
I0
tp141
a(I3
I1
tp142
a(I5
I0
tp143
a(I8
I7
tp144
atp145
Rp146
sg15
((I5
I5
tp147
tp148
sg16
I9
sbssS'name'
p149
S'easy_roomset'
p150
sbsS'name'
p151
S'AnytimeBest-d10_with_PowerHeuristic2'
p152
sS'solutions'
p153
(dp154
g8
((lp155
F0.37999999999738066
tp156
sg41
((lp157
F40.120000000002619
tp158
sg70
((lp159
F40.080000000001746
tp160
sg98
((lp161
(F0.4099999999962165
I8
tp162
aF40.069999999999709
tp163
sg123
((lp164
F0.16999999999825377
tp165
ssba(imeasure_core
ProblemSetSolution
p166
(dp167
g3
(imeasure_core
RoomSet
p168
(dp169
S'rooms'
p170
(dp171
(iproblems
RoomID
p172
(dp173
S'width'
p174
I12
sS'dusts'
p175
I9
sS'seed'
p176
I679259829289197625
sS'obstacles'
p177
(I7
I7
tp178
sS'robots'
p179
I4
sS'height'
p180
I12
sb(imulti_robot_problem
MultiRobotState
p181
(dp182
S'obstacle_locations'
p183
g20
((lp184
(I6
I9
tp185
a(I6
I6
tp186
a(I5
I6
tp187
a(I9
I8
tp188
ag178
a(I8
I5
tp189
a(I10
I8
tp190
a(I6
I7
tp191
a(I10
I7
tp192
a(I7
I6
tp193
a(I8
I10
tp194
a(I7
I10
tp195
a(I8
I6
tp196
a(I9
I7
tp197
a(I6
I4
tp198
a(I11
I9
tp199
a(I1
I4
tp200
a(I7
I5
tp201
a(I8
I7
tp202
a(I4
I2
tp203
a(I9
I6
tp204
a(I6
I5
tp205
a(I11
I7
tp206
a(I10
I5
tp207
a(I6
I8
tp208
a(I11
I8
tp209
a(I6
I1
tp210
a(I7
I4
tp211
atp212
Rp213
sg174
I12
sS'dirt_locations'
p214
g20
((lp215
(I2
I7
tp216
a(I9
I0
tp217
a(I8
I2
tp218
a(I7
I1
tp219
a(I11
I0
tp220
a(I0
I11
tp221
a(I1
I6
tp222
a(I1
I7
tp223
a(I11
I6
tp224
atp225
Rp226
sg179
((I9
I10
tp227
(I8
I9
tp228
(I3
I7
tp229
(I3
I11
tp230
tp231
sg180
I12
sbs(iproblems
RoomID
p232
(dp233
g174
I11
sg175
I5
sg176
I2685440357799139976
sg177
(I9
I1
tp234
sg179
I3
sg180
I11
sb(imulti_robot_problem
MultiRobotState
p235
(dp236
g183
g20
((lp237
(I7
I3
tp238
ag234
a(I5
I6
tp239
a(I10
I6
tp240
a(I9
I4
tp241
a(I7
I10
tp242
a(I10
I3
tp243
a(I7
I2
tp244
a(I5
I5
tp245
a(I10
I7
tp246
a(I8
I5
tp247
a(I3
I6
tp248
a(I3
I5
tp249
a(I10
I9
tp250
a(I10
I4
tp251
a(I7
I1
tp252
a(I4
I5
tp253
a(I9
I3
tp254
a(I1
I4
tp255
a(I3
I9
tp256
a(I9
I6
tp257
a(I6
I5
tp258
a(I5
I3
tp259
a(I8
I3
tp260
a(I6
I8
tp261
a(I9
I2
tp262
a(I7
I8
tp263
a(I9
I9
tp264
a(I9
I5
tp265
a(I3
I4
tp266
a(I2
I4
tp267
atp268
Rp269
sg174
I11
sg214
g20
((lp270
(I1
I2
tp271
a(I9
I10
tp272
a(I6
I1
tp273
a(I4
I1
tp274
a(I0
I2
tp275
atp276
Rp277
sg179
((I6
I6
tp278
(I0
I0
tp279
(I10
I8
tp280
tp281
sg180
I11
sbs(iproblems
RoomID
p282
(dp283
g174
I10
sg175
I10
sg176
I1737871632067391849
sg177
(I1
I5
tp284
sg179
I4
sg180
I12
sb(imulti_robot_problem
MultiRobotState
p285
(dp286
g183
g20
((lp287
(I6
I6
tp288
a(I5
I6
tp289
a(I2
I8
tp290
a(I8
I9
tp291
a(I6
I2
tp292
a(I5
I1
tp293
a(I8
I5
tp294
a(I5
I8
tp295
a(I5
I5
tp296
a(I7
I6
tp297
a(I8
I10
tp298
ag284
a(I2
I2
tp299
a(I4
I1
tp300
a(I3
I2
tp301
a(I0
I0
tp302
a(I2
I10
tp303
a(I2
I3
tp304
a(I8
I7
tp305
a(I6
I5
tp306
a(I8
I3
tp307
a(I7
I8
tp308
a(I2
I4
tp309
atp310
Rp311
sg174
I10
sg214
g20
((lp312
(I0
I1
tp313
a(I4
I10
tp314
a(I4
I8
tp315
a(I3
I0
tp316
a(I3
I4
tp317
a(I3
I10
tp318
a(I5
I11
tp319
a(I2
I7
tp320
a(I1
I9
tp321
a(I9
I6
tp322
atp323
Rp324
sg179
((I4
I9
tp325
(I8
I11
tp326
(I4
I0
tp327
(I3
I9
tp328
tp329
sg180
I12
sbs(iproblems
RoomID
p330
(dp331
g174
I11
sg175
I6
sg176
I5891625650498269233
sg177
(I3
I9
tp332
sg179
I4
sg180
I11
sb(imulti_robot_problem
MultiRobotState
p333
(dp334
g183
g20
((lp335
(I7
I3
tp336
a(I4
I7
tp337
a(I6
I6
tp338
a(I5
I6
tp339
a(I2
I8
tp340
a(I6
I2
tp341
a(I5
I1
tp342
a(I3
I7
tp343
a(I8
I5
tp344
a(I5
I5
tp345
a(I2
I9
tp346
a(I7
I6
tp347
a(I4
I4
tp348
a(I2
I2
tp349
a(I1
I1
tp350
a(I9
I7
tp351
a(I3
I2
tp352
a(I10
I4
tp353
a(I4
I5
tp354
a(I9
I3
tp355
a(I8
I3
tp356
a(I2
I10
tp357
a(I7
I5
tp358
a(I2
I3
tp359
a(I10
I5
tp360
a(I4
I6
tp361
a(I3
I4
tp362
a(I6
I1
tp363
a(I3
I8
tp364
a(I1
I8
tp365
ag332
a(I4
I3
tp366
a(I9
I5
tp367
a(I5
I2
tp368
a(I8
I4
tp369
atp370
Rp371
sg174
I11
sg214
g20
((lp372
(I5
I10
tp373
a(I9
I1
tp374
a(I10
I7
tp375
a(I8
I8
tp376
a(I1
I6
tp377
a(I7
I9
tp378
atp379
Rp380
sg179
((I5
I7
tp381
(I8
I1
tp382
(I0
I5
tp383
(I4
I0
tp384
tp385
sg180
I11
sbs(iproblems
RoomID
p386
(dp387
g174
I9
sg175
I7
sg176
I7834319822419845881
sg177
(I8
I8
tp388
sg179
I3
sg180
I9
sb(imulti_robot_problem
MultiRobotState
p389
(dp390
g183
g20
((lp391
(I4
I7
tp392
a(I1
I3
tp393
a(I6
I6
tp394
a(I5
I6
tp395
a(I2
I8
tp396
a(I3
I7
tp397
a(I0
I3
tp398
a(I8
I5
tp399
a(I5
I8
tp400
a(I6
I7
tp401
a(I5
I5
tp402
a(I4
I4
tp403
a(I1
I5
tp404
a(I5
I0
tp405
a(I3
I5
tp406
a(I2
I6
tp407
a(I3
I6
tp408
a(I4
I5
tp409
a(I0
I5
tp410
a(I0
I8
tp411
a(I3
I3
tp412
a(I2
I7
tp413
a(I5
I3
tp414
a(I4
I6
tp415
a(I3
I4
tp416
a(I1
I8
tp417
ag388
a(I1
I7
tp418
a(I7
I8
tp419
atp420
Rp421
sg174
I9
sg214
g20
((lp422
(I7
I0
tp423
a(I7
I1
tp424
a(I1
I4
tp425
a(I7
I4
tp426
a(I2
I0
tp427
a(I6
I2
tp428
a(I8
I7
tp429
atp430
Rp431
sg179
((I2
I1
tp432
(I2
I3
tp433
(I5
I7
tp434
tp435
sg180
I9
sbssS'name'
p436
S'mild_roomset'
p437
sbsg151
g152
sg153
(dp438
g172
((lp439
F40.099999999998545
tp440
sg232
((lp441
F40.099999999998545
tp442
sg282
((lp443
F40.020000000004075
tp444
sg330
((lp445
F40.159999999996217
tp446
sg386
((lp447
F40.010000000002037
tp448
ssba(imeasure_core
ProblemSetSolution
p449
(dp450
g3
(imeasure_core
RoomSet
p451
(dp452
S'rooms'
p453
(dp454
(iproblems
RoomID
p455
(dp456
S'width'
p457
I12
sS'dusts'
p458
I12
sS'seed'
p459
I1486246605650367638
sS'obstacles'
p460
(I6
I3
tp461
sS'robots'
p462
I5
sS'height'
p463
I10
sb(imulti_robot_problem
MultiRobotState
p464
(dp465
S'obstacle_locations'
p466
g20
((lp467
(I2
I7
tp468
a(I5
I9
tp469
a(I1
I3
tp470
a(I3
I1
tp471
a(I7
I1
tp472
a(I5
I2
tp473
a(I1
I2
tp474
a(I1
I4
tp475
ag461
a(I1
I5
tp476
a(I6
I2
tp477
a(I1
I6
tp478
a(I2
I1
tp479
a(I10
I0
tp480
a(I2
I0
tp481
a(I0
I3
tp482
a(I4
I1
tp483
a(I1
I1
tp484
a(I6
I5
tp485
a(I8
I4
tp486
atp487
Rp488
sg457
I12
sS'dirt_locations'
p489
g20
((lp490
(I11
I7
tp491
a(I11
I4
tp492
a(I9
I1
tp493
a(I11
I8
tp494
a(I2
I8
tp495
a(I6
I0
tp496
a(I0
I6
tp497
a(I11
I1
tp498
a(I0
I4
tp499
a(I4
I9
tp500
a(I10
I9
tp501
a(I9
I7
tp502
atp503
Rp504
sg462
((I2
I4
tp505
(I10
I1
tp506
(I2
I5
tp507
(I9
I8
tp508
(I6
I6
tp509
tp510
sg463
I10
sbs(iproblems
RoomID
p511
(dp512
g457
I13
sg458
I14
sg459
I679259829289197625
sg460
(I7
I6
tp513
sg462
I7
sg463
I13
sb(imulti_robot_problem
MultiRobotState
p514
(dp515
g466
g20
((lp516
(I1
I2
tp517
a(I6
I4
tp518
a(I4
I3
tp519
a(I4
I8
tp520
a(I10
I7
tp521
a(I3
I4
tp522
a(I12
I7
tp523
a(I10
I6
tp524
a(I11
I7
tp525
a(I6
I3
tp526
a(I7
I5
tp527
a(I12
I11
tp528
a(I6
I2
tp529
a(I9
I6
tp530
ag513
a(I12
I8
tp531
atp532
Rp533
sg457
I13
sg489
g20
((lp534
(I2
I7
tp535
a(I12
I1
tp536
a(I9
I2
tp537
a(I2
I8
tp538
a(I5
I7
tp539
a(I1
I4
tp540
a(I0
I12
tp541
a(I7
I4
tp542
a(I11
I4
tp543
a(I11
I6
tp544
a(I4
I2
tp545
a(I10
I0
tp546
a(I10
I9
tp547
a(I1
I9
tp548
atp549
Rp550
sg462
((I9
I11
tp551
(I9
I10
tp552
(I4
I7
tp553
(I4
I12
tp554
(I7
I1
tp555
(I1
I8
tp556
(I1
I6
tp557
tp558
sg463
I13
sbs(iproblems
RoomID
p559
(dp560
g457
I12
sg458
I11
sg459
I5891625650498269233
sg460
(I11
I9
tp561
sg462
I7
sg463
I12
sb(imulti_robot_problem
MultiRobotState
p562
(dp563
g466
g20
((lp564
g561
a(I6
I7
tp565
a(I4
I8
tp566
a(I5
I6
tp567
a(I6
I11
tp568
a(I8
I11
tp569
a(I4
I4
tp570
a(I2
I11
tp571
a(I7
I7
tp572
a(I7
I1
tp573
a(I9
I10
tp574
a(I10
I7
tp575
a(I3
I9
tp576
a(I1
I9
tp577
a(I7
I10
tp578
a(I5
I7
tp579
a(I9
I11
tp580
a(I7
I6
tp581
a(I10
I9
tp582
atp583
Rp584
sg457
I12
sg489
g20
((lp585
(I11
I7
tp586
a(I11
I4
tp587
a(I4
I6
tp588
a(I5
I11
tp589
a(I8
I10
tp590
a(I0
I5
tp591
a(I8
I7
tp592
a(I1
I7
tp593
a(I10
I1
tp594
a(I1
I1
tp595
a(I5
I5
tp596
atp597
Rp598
sg462
((I6
I8
tp599
(I9
I2
tp600
(I0
I6
tp601
(I10
I3
tp602
(I9
I5
tp603
(I5
I0
tp604
(I9
I8
tp605
tp606
sg463
I12
sbs(iproblems
RoomID
p607
(dp608
g457
I13
sg458
I11
sg459
I403795515464475257
sg460
(I2
I7
tp609
sg462
I6
sg463
I11
sb(imulti_robot_problem
MultiRobotState
p610
(dp611
g466
g20
((lp612
g609
a(I10
I8
tp613
a(I3
I10
tp614
a(I4
I4
tp615
a(I2
I2
tp616
a(I1
I4
tp617
a(I12
I5
tp618
a(I0
I6
tp619
a(I0
I5
tp620
a(I3
I6
tp621
a(I1
I7
tp622
a(I0
I8
tp623
a(I7
I9
tp624
atp625
Rp626
sg457
I13
sg489
g20
((lp627
(I6
I4
tp628
a(I0
I0
tp629
a(I2
I9
tp630
a(I11
I5
tp631
a(I8
I9
tp632
a(I11
I1
tp633
a(I2
I3
tp634
a(I1
I10
tp635
a(I12
I2
tp636
a(I0
I3
tp637
a(I5
I2
tp638
atp639
Rp640
sg462
((I10
I3
tp641
(I7
I2
tp642
(I7
I0
tp643
(I3
I1
tp644
(I5
I10
tp645
(I9
I4
tp646
tp647
sg463
I11
sbs(iproblems
RoomID
p648
(dp649
g457
I12
sg458
I10
sg459
I2685440357799139976
sg460
(I6
I9
tp650
sg462
I5
sg463
I12
sb(imulti_robot_problem
MultiRobotState
p651
(dp652
g466
g20
((lp653
g650
a(I9
I1
tp654
a(I3
I0
tp655
a(I0
I7
tp656
a(I0
I3
tp657
a(I4
I0
tp658
a(I1
I2
tp659
a(I11
I10
tp660
a(I6
I10
tp661
a(I5
I6
tp662
a(I9
I11
tp663
a(I7
I9
tp664
a(I4
I10
tp665
a(I5
I11
tp666
a(I4
I5
tp667
a(I1
I4
tp668
a(I3
I9
tp669
a(I0
I5
tp670
a(I1
I9
tp671
a(I3
I5
tp672
a(I3
I4
tp673
a(I2
I4
tp674
atp675
Rp676
sg457
I12
sg489
g20
((lp677
(I11
I7
tp678
a(I8
I3
tp679
a(I10
I11
tp680
a(I7
I1
tp681
a(I10
I5
tp682
a(I8
I10
tp683
a(I6
I3
tp684
a(I3
I6
tp685
a(I9
I10
tp686
a(I6
I5
tp687
atp688
Rp689
sg462
((I7
I7
tp690
(I0
I0
tp691
(I11
I9
tp692
(I0
I2
tp693
(I4
I1
tp694
tp695
sg463
I12
sbssS'name'
p696
S'heavy_roomset'
p697
sbsg151
g152
sg153
(dp698
g455
((lp699
F40.510000000002037
tp700
sg511
((lp701
F43.269999999996799
tp702
sg559
((lp703
F46.790000000000873
tp704
sg607
((lp705
F41.169999999998254
tp706
sg648
((lp707
F40.310000000004948
tp708
ssba(imeasure_core
ProblemSetSolution
p709
(dp710
g3
g4
sg151
S'AnytimeBest-d80_with_PowerHeuristic2'
p711
sg153
(dp712
g8
((lp713
(F0.30000000000291038
I45
tp714
a(F1.1600000000034925
I44
tp715
a(F1.3700000000026193
I37
tp716
a(F1.9900000000052387
I36
tp717
a(F2.1900000000023283
I34
tp718
a(F4.9200000000055297
I33
tp719
a(F5.7100000000064028
I31
tp720
a(F7.9000000000014552
I30
tp721
a(F9.0300000000061118
I28
tp722
a(F9.3300000000017462
I26
tp723
a(F14.600000000005821
I25
tp724
a(F18.040000000000873
I24
tp725
aF23.780000000006112
tp726
sg41
((lp727
(F0.78999999999359716
I20
tp728
aF40.019999999996799
tp729
sg70
((lp730
F40.090000000003783
tp731
sg98
((lp732
(F0.4099999999962165
I8
tp733
aF40.109999999993306
tp734
sg123
((lp735
(F0.27000000000407454
I47
tp736
a(F2.0900000000037835
I45
tp737
a(F2.4100000000034925
I43
tp738
a(F2.7200000000011642
I35
tp739
a(F4.2400000000052387
I33
tp740
a(F4.8900000000066939
I31
tp741
a(F5.4700000000011642
I29
tp742
a(F7.7400000000052387
I27
tp743
a(F10.140000000006694
I25
tp744
a(F10.450000000004366
I23
tp745
aF10.540000000000873
tp746
ssba(imeasure_core
ProblemSetSolution
p747
(dp748
g3
g168
sg151
g711
sg153
(dp749
g172
((lp750
F40.080000000001746
tp751
sg232
((lp752
F40.049999999995634
tp753
sg282
((lp754
(F0.36000000000058208
I12
tp755
aF40.030000000006112
tp756
sg330
((lp757
(F3.4199999999982538
I64
tp758
aF40.07999999999447
tp759
sg386
((lp760
(F0.08000000000174623
I25
tp761
aF40.020000000004075
tp762
ssba(imeasure_core
ProblemSetSolution
p763
(dp764
g3
g451
sg151
g711
sg153
(dp765
g455
((lp766
F40.400000000001455
tp767
sg511
((lp768
F43.620000000002619
tp769
sg559
((lp770
F47.669999999998254
tp771
sg607
((lp772
(F25.5
I19
tp773
aF40.260000000002037
tp774
sg648
((lp775
(F5.9000000000014552
I58
tp776
aF40.049999999995634
tp777
ssba(imeasure_core
ProblemSetSolution
p778
(dp779
g3
g4
sg151
S'AnytimeBest-d150_with_PowerHeuristic2'
p780
sg153
(dp781
g8
((lp782
(F0.31000000000494765
I45
tp783
a(F1.1700000000055297
I44
tp784
a(F1.3800000000046566
I37
tp785
a(F2.0
I36
tp786
a(F2.2000000000043656
I34
tp787
a(F4.930000000000291
I33
tp788
a(F5.7200000000011642
I31
tp789
a(F7.9100000000034925
I30
tp790
a(F9.0300000000061118
I28
tp791
a(F9.3300000000017462
I26
tp792
a(F14.600000000005821
I25
tp793
a(F18.030000000006112
I24
tp794
aF23.75
tp795
sg41
((lp796
(F0.80000000000291038
I20
tp797
aF40.020000000004075
tp798
sg70
((lp799
(F11.419999999998254
I134
tp800
aF40.019999999996799
tp801
sg98
((lp802
(F0.41000000000349246
I8
tp803
aF40.060000000004948
tp804
sg123
((lp805
(F0.26999999999679858
I47
tp806
a(F2.0899999999965075
I45
tp807
a(F2.3999999999941792
I43
tp808
a(F2.7099999999991269
I35
tp809
a(F4.2200000000011642
I33
tp810
a(F4.8799999999973807
I31
tp811
a(F5.4599999999991269
I29
tp812
a(F7.7200000000011642
I27
tp813
a(F10.099999999998545
I25
tp814
a(F10.419999999998254
I23
tp815
aF10.509999999994761
tp816
ssba(imeasure_core
ProblemSetSolution
p817
(dp818
g3
g168
sg151
g780
sg153
(dp819
g172
((lp820
F40.05000000000291
tp821
sg232
((lp822
(F8.3099999999976717
I127
tp823
aF40.009999999994761
tp824
sg282
((lp825
(F0.36000000000058208
I12
tp826
aF40.030000000006112
tp827
sg330
((lp828
(F3.4099999999962165
I64
tp829
aF40.059999999997672
tp830
sg386
((lp831
(F0.08000000000174623
I25
tp832
aF40.0
tp833
ssba(imeasure_core
ProblemSetSolution
p834
(dp835
g3
g451
sg151
g780
sg153
(dp836
g455
((lp837
(F30.649999999994179
I113
tp838
aF40.19999999999709
tp839
sg511
((lp840
F43.330000000001746
tp841
sg559
((lp842
F46.869999999995343
tp843
sg607
((lp844
(F25.680000000000291
I19
tp845
aF40.260000000002037
tp846
sg648
((lp847
(F5.8300000000017462
I58
tp848
aF40.05000000000291
tp849
ssba(imeasure_core
ProblemSetSolution
p850
(dp851
g3
g4
sg151
S'AnytimeBest-d250_with_PowerHeuristic2'
p852
sg153
(dp853
g8
((lp854
(F0.30999999999767169
I45
tp855
a(F1.1599999999962165
I44
tp856
a(F1.3799999999973807
I37
tp857
a(F2.0
I36
tp858
a(F2.1999999999970896
I34
tp859
a(F4.9099999999962165
I33
tp860
a(F5.6999999999970896
I31
tp861
a(F7.8899999999994179
I30
tp862
a(F9.0099999999947613
I28
tp863
a(F9.3099999999976717
I26
tp864
a(F14.559999999997672
I25
tp865
a(F18.0
I24
tp866
aF23.720000000001164
tp867
sg41
((lp868
(F0.78999999999359716
I20
tp869
aF40.019999999996799
tp870
sg70
((lp871
(F11.430000000000291
I134
tp872
aF40.019999999996799
tp873
sg98
((lp874
(F0.41000000000349246
I8
tp875
aF40.05000000000291
tp876
sg123
((lp877
(F0.27000000000407454
I47
tp878
a(F2.0800000000017462
I45
tp879
a(F2.4000000000014552
I43
tp880
a(F2.6999999999970896
I35
tp881
a(F4.2099999999991269
I33
tp882
a(F4.8700000000026193
I31
tp883
a(F5.4400000000023283
I29
tp884
a(F7.7099999999991269
I27
tp885
a(F10.099999999998545
I25
tp886
a(F10.410000000003492
I23
tp887
aF10.510000000002037
tp888
ssba(imeasure_core
ProblemSetSolution
p889
(dp890
g3
g168
sg151
g852
sg153
(dp891
g172
((lp892
F40.069999999999709
tp893
sg232
((lp894
(F8.3099999999976717
I127
tp895
aF40.009999999994761
tp896
sg282
((lp897
(F0.36000000000058208
I12
tp898
aF40.029999999998836
tp899
sg330
((lp900
(F3.4200000000055297
I64
tp901
aF40.130000000004657
tp902
sg386
((lp903
(F0.08000000000174623
I25
tp904
aF40.010000000002037
tp905
ssba(imeasure_core
ProblemSetSolution
p906
(dp907
g3
g451
sg151
g852
sg153
(dp908
g455
((lp909
(F30.569999999999709
I113
tp910
aF40.540000000000873
tp911
sg511
((lp912
F43.639999999999418
tp913
sg559
((lp914
F47.290000000000873
tp915
sg607
((lp916
(F25.690000000002328
I19
tp917
aF40.260000000002037
tp918
sg648
((lp919
(F5.8399999999965075
I58
tp920
aF40.049999999995634
tp921
ssba(imeasure_core
ProblemSetSolution
p922
(dp923
g3
g4
sg151
S'AnytimeBest-d400_with_PowerHeuristic2'
p924
sg153
(dp925
g8
((lp926
(F0.30000000000291038
I45
tp927
a(F1.1600000000034925
I44
tp928
a(F1.3799999999973807
I37
tp929
a(F1.9899999999979627
I36
tp930
a(F2.2000000000043656
I34
tp931
a(F4.9199999999982538
I33
tp932
a(F5.7099999999991269
I31
tp933
a(F7.9000000000014552
I30
tp934
a(F9.0299999999988358
I28
tp935
a(F9.3400000000037835
I26
tp936
a(F14.650000000001455
I25
tp937
a(F18.090000000003783
I24
tp938
aF23.830000000001746
tp939
sg41
((lp940
(F0.79000000000087311
I20
tp941
aF40.019999999996799
tp942
sg70
((lp943
(F11.440000000002328
I134
tp944
aF40.029999999998836
tp945
sg98
((lp946
(F0.40000000000145519
I8
tp947
aF40.05000000000291
tp948
sg123
((lp949
(F0.27000000000407454
I47
tp950
a(F2.0800000000017462
I45
tp951
a(F2.3899999999994179
I43
tp952
a(F2.6999999999970896
I35
tp953
a(F4.2099999999991269
I33
tp954
a(F4.8499999999985448
I31
tp955
a(F5.430000000000291
I29
tp956
a(F7.680000000000291
I27
tp957
a(F10.069999999999709
I25
tp958
a(F10.379999999997381
I23
tp959
aF10.470000000001164
tp960
ssba(imeasure_core
ProblemSetSolution
p961
(dp962
g3
g168
sg151
g924
sg153
(dp963
g172
((lp964
F40.110000000000582
tp965
sg232
((lp966
(F8.3499999999985448
I127
tp967
aF40.019999999996799
tp968
sg282
((lp969
(F0.34999999999854481
I12
tp970
aF40.029999999998836
tp971
sg330
((lp972
(F3.430000000000291
I64
tp973
aF40.029999999998836
tp974
sg386
((lp975
(F0.08000000000174623
I25
tp976
aF40.010000000002037
tp977
ssba(imeasure_core
ProblemSetSolution
p978
(dp979
g3
g451
sg151
g924
sg153
(dp980
g455
((lp981
(F30.629999999997381
I113
tp982
aF40.590000000003783
tp983
sg511
((lp984
F43.44999999999709
tp985
sg559
((lp986
F47.089999999996508
tp987
sg607
((lp988
(F25.790000000000873
I19
tp989
aF40.260000000002037
tp990
sg648
((lp991
(F5.819999999999709
I58
tp992
aF40.05000000000291
tp993
ssba(imeasure_core
ProblemSetSolution
p994
(dp995
g3
g4
sg151
S'AnytimeBest-d1000_with_PowerHeuristic2'
p996
sg153
(dp997
g8
((lp998
(F0.30999999999767169
I45
tp999
a(F1.1599999999962165
I44
tp1000
a(F1.3799999999973807
I37
tp1001
a(F2.0
I36
tp1002
a(F2.1999999999970896
I34
tp1003
a(F4.9000000000014552
I33
tp1004
a(F5.6899999999950523
I31
tp1005
a(F7.8799999999973807
I30
tp1006
a(F9.0
I28
tp1007
a(F9.3099999999976717
I26
tp1008
a(F14.569999999999709
I25
tp1009
a(F18.0
I24
tp1010
aF23.720000000001164
tp1011
sg41
((lp1012
(F0.78999999999359716
I20
tp1013
aF40.019999999996799
tp1014
sg70
((lp1015
(F11.430000000000291
I134
tp1016
aF40.019999999996799
tp1017
sg98
((lp1018
(F0.41000000000349246
I8
tp1019
aF40.05000000000291
tp1020
sg123
((lp1021
(F0.26999999999679858
I47
tp1022
a(F2.0800000000017462
I45
tp1023
a(F2.4000000000014552
I43
tp1024
a(F2.6999999999970896
I35
tp1025
a(F4.2200000000011642
I33
tp1026
a(F4.8799999999973807
I31
tp1027
a(F5.4599999999991269
I29
tp1028
a(F7.7200000000011642
I27
tp1029
a(F10.110000000000582
I25
tp1030
a(F10.419999999998254
I23
tp1031
aF10.519999999996799
tp1032
ssba(imeasure_core
ProblemSetSolution
p1033
(dp1034
g3
g168
sg151
g996
sg153
(dp1035
g172
((lp1036
F40.060000000004948
tp1037
sg232
((lp1038
(F8.3300000000017462
I127
tp1039
aF40.019999999996799
tp1040
sg282
((lp1041
(F0.34999999999854481
I12
tp1042
aF40.029999999998836
tp1043
sg330
((lp1044
(F3.430000000000291
I64
tp1045
aF40.120000000002619
tp1046
sg386
((lp1047
(F0.08000000000174623
I25
tp1048
aF40.010000000002037
tp1049
ssba(imeasure_core
ProblemSetSolution
p1050
(dp1051
g3
g451
sg151
g996
sg153
(dp1052
g455
((lp1053
(F30.669999999998254
I113
tp1054
aF40.580000000001746
tp1055
sg511
((lp1056
F43.5
tp1057
sg559
((lp1058
F47.039999999993597
tp1059
sg607
((lp1060
(F25.760000000002037
I19
tp1061
aF40.260000000002037
tp1062
sg648
((lp1063
(F5.8300000000017462
I58
tp1064
aF40.05000000000291
tp1065
ssba(imeasure_core
ProblemSetSolution
p1066
(dp1067
g3
g4
sg151
S'AnytimeBest-d10_with_LinearHeuristic'
p1068
sg153
(dp1069
g8
((lp1070
F1.430000000000291
tp1071
sg41
((lp1072
F40.110000000000582
tp1073
sg70
((lp1074
F40.17000000000553
tp1075
sg98
((lp1076
(F0.31999999999970896
I4
tp1077
aF40.169999999998254
tp1078
sg123
((lp1079
F0.44999999999708962
tp1080
ssba(imeasure_core
ProblemSetSolution
p1081
(dp1082
g3
g168
sg151
g1068
sg153
(dp1083
g172
((lp1084
F40.060000000004948
tp1085
sg232
((lp1086
(F36.989999999997963
I10
tp1087
aF40.059999999997672
tp1088
sg282
((lp1089
F40.099999999998545
tp1090
sg330
((lp1091
F40.150000000001455
tp1092
sg386
((lp1093
F40.010000000002037
tp1094
ssba(imeasure_core
ProblemSetSolution
p1095
(dp1096
g3
g451
sg151
g1068
sg153
(dp1097
g455
((lp1098
F40.200000000004366
tp1099
sg511
((lp1100
F52.689999999995052
tp1101
sg559
((lp1102
F41.260000000002037
tp1103
sg607
((lp1104
(F21.919999999998254
I10
tp1105
aF42.889999999999418
tp1106
sg648
((lp1107
F40.200000000004366
tp1108
ssba(imeasure_core
ProblemSetSolution
p1109
(dp1110
g3
g4
sg151
S'AnytimeBest-d80_with_LinearHeuristic'
p1111
sg153
(dp1112
g8
((lp1113
(F0.010000000002037268
I24
tp1114
aF40.0
tp1115
sg41
((lp1116
F40.349999999998545
tp1117
sg70
((lp1118
F40.070000000006985
tp1119
sg98
((lp1120
(F0.31999999999970896
I4
tp1121
aF40.139999999999418
tp1122
sg123
((lp1123
(F0.0099999999947613105
I23
tp1124
aF8.3099999999976717
tp1125
ssba(imeasure_core
ProblemSetSolution
p1126
(dp1127
g3
g168
sg151
g1111
sg153
(dp1128
g172
((lp1129
F40.049999999995634
tp1130
sg232
((lp1131
F40.05000000000291
tp1132
sg282
((lp1133
F40.059999999997672
tp1134
sg330
((lp1135
F40.040000000000873
tp1136
sg386
((lp1137
F40.019999999996799
tp1138
ssba(imeasure_core
ProblemSetSolution
p1139
(dp1140
g3
g451
sg151
g1111
sg153
(dp1141
g455
((lp1142
F40.200000000004366
tp1143
sg511
((lp1144
F52.25
tp1145
sg559
((lp1146
F41.489999999997963
tp1147
sg607
((lp1148
(F22.110000000000582
I10
tp1149
aF42.610000000000582
tp1150
sg648
((lp1151
F40.069999999999709
tp1152
ssba(imeasure_core
ProblemSetSolution
p1153
(dp1154
g3
g4
sg151
S'AnytimeBest-d150_with_LinearHeuristic'
p1155
sg153
(dp1156
g8
((lp1157
(F0.020000000004074536
I24
tp1158
aF40.0
tp1159
sg41
((lp1160
F40.080000000001746
tp1161
sg70
((lp1162
F40.110000000000582
tp1163
sg98
((lp1164
(F0.31999999999970896
I4
tp1165
aF40.220000000001164
tp1166
sg123
((lp1167
(F0.019999999996798579
I23
tp1168
aF8.2999999999956344
tp1169
ssba(imeasure_core
ProblemSetSolution
p1170
(dp1171
g3
g168
sg151
g1155
sg153
(dp1172
g172
((lp1173
F40.169999999998254
tp1174
sg232
((lp1175
F40.05000000000291
tp1176
sg282
((lp1177
F40.309999999997672
tp1178
sg330
((lp1179
F40.220000000001164
tp1180
sg386
((lp1181
F40.0
tp1182
ssba(imeasure_core
ProblemSetSolution
p1183
(dp1184
g3
g451
sg151
g1155
sg153
(dp1185
g455
((lp1186
F40.279999999998836
tp1187
sg511
((lp1188
F52.770000000004075
tp1189
sg559
((lp1190
F41.269999999996799
tp1191
sg607
((lp1192
(F21.980000000003201
I10
tp1193
aF43.069999999999709
tp1194
sg648
((lp1195
F40.400000000001455
tp1196
ssba(imeasure_core
ProblemSetSolution
p1197
(dp1198
g3
g4
sg151
S'AnytimeBest-d250_with_LinearHeuristic'
p1199
sg153
(dp1200
g8
((lp1201
(F0.010000000002037268
I24
tp1202
aF40.0
tp1203
sg41
((lp1204
F40.389999999999418
tp1205
sg70
((lp1206
F40.139999999999418
tp1207
sg98
((lp1208
(F0.31999999999970896
I4
tp1209
aF40.180000000000291
tp1210
sg123
((lp1211
(F0.019999999996798579
I23
tp1212
aF8.3700000000026193
tp1213
ssba(imeasure_core
ProblemSetSolution
p1214
(dp1215
g3
g168
sg151
g1199
sg153
(dp1216
g172
((lp1217
F40.090000000003783
tp1218
sg232
((lp1219
F40.029999999998836
tp1220
sg282
((lp1221
F40.059999999997672
tp1222
sg330
((lp1223
F40.069999999999709
tp1224
sg386
((lp1225
F40.010000000002037
tp1226
ssba(imeasure_core
ProblemSetSolution
p1227
(dp1228
g3
g451
sg151
g1199
sg153
(dp1229
g455
((lp1230
F41.069999999999709
tp1231
sg511
((lp1232
F52.330000000001746
tp1233
sg559
((lp1234
F41.619999999995343
tp1235
sg607
((lp1236
(F22.100000000005821
I10
tp1237
aF42.720000000001164
tp1238
sg648
((lp1239
F40.340000000003783
tp1240
ssba(imeasure_core
ProblemSetSolution
p1241
(dp1242
g3
g4
sg151
S'AnytimeBest-d400_with_LinearHeuristic'
p1243
sg153
(dp1244
g8
((lp1245
(F0.019999999996798579
I24
tp1246
aF40.0
tp1247
sg41
((lp1248
F40.089999999996508
tp1249
sg70
((lp1250
F40.139999999999418
tp1251
sg98
((lp1252
(F0.33000000000174623
I4
tp1253
aF40.139999999999418
tp1254
sg123
((lp1255
(F0.020000000004074536
I23
tp1256
aF8.3700000000026193
tp1257
ssba(imeasure_core
ProblemSetSolution
p1258
(dp1259
g3
g168
sg151
g1243
sg153
(dp1260
g172
((lp1261
F40.290000000000873
tp1262
sg232
((lp1263
F40.080000000001746
tp1264
sg282
((lp1265
F40.089999999996508
tp1266
sg330
((lp1267
F40.260000000002037
tp1268
sg386
((lp1269
F40.05000000000291
tp1270
ssba(imeasure_core
ProblemSetSolution
p1271
(dp1272
g3
g451
sg151
g1243
sg153
(dp1273
g455
((lp1274
F41.279999999998836
tp1275
sg511
((lp1276
F52.599999999998545
tp1277
sg559
((lp1278
F41.849999999998545
tp1279
sg607
((lp1280
(F21.959999999999127
I10
tp1281
aF42.94999999999709
tp1282
sg648
((lp1283
F40.42000000000553
tp1284
ssba(imeasure_core
ProblemSetSolution
p1285
(dp1286
g3
g4
sg151
S'AnytimeBest-d1000_with_LinearHeuristic'
p1287
sg153
(dp1288
g8
((lp1289
(F0.010000000002037268
I24
tp1290
aF40.0
tp1291
sg41
((lp1292
F40.380000000004657
tp1293
sg70
((lp1294
F40.069999999999709
tp1295
sg98
((lp1296
(F0.31999999999970896
I4
tp1297
aF40.180000000000291
tp1298
sg123
((lp1299
(F0.019999999996798579
I23
tp1300
aF8.3699999999953434
tp1301
ssba(imeasure_core
ProblemSetSolution
p1302
(dp1303
g3
g168
sg151
g1287
sg153
(dp1304
g172
((lp1305
F40.069999999999709
tp1306
sg232
((lp1307
F40.090000000003783
tp1308
sg282
((lp1309
F40.139999999999418
tp1310
sg330
((lp1311
F40.269999999996799
tp1312
sg386
((lp1313
F40.0
tp1314
ssba(imeasure_core
ProblemSetSolution
p1315
(dp1316
g3
g451
sg151
g1287
sg153
(dp1317
g455
((lp1318
F40.190000000002328
tp1319
sg511
((lp1320
F52.409999999996217
tp1321
sg559
((lp1322
F41.75
tp1323
sg607
((lp1324
(F22.099999999998545
I10
tp1325
aF42.760000000002037
tp1326
sg648
((lp1327
F40.180000000000291
tp1328
ssba.