(lp0
(imeasure_core
ProblemSetSolution
p1
(dp2
S'roomset'
p3
(imeasure_core
RoomSet
p4
(dp5
S'rooms'
p6
(dp7
(iproblems
RoomID
p8
(dp9
S'width'
p10
I9
sS'dusts'
p11
I8
sS'seed'
p12
I3433768247134474666
sS'obstacles'
p13
(I1
I6
tp14
sS'robots'
p15
I4
sS'height'
p16
I10
sb(imulti_robot_problem
MultiRobotState
p17
(dp18
S'obstacle_locations'
p19
c__builtin__
frozenset
p20
((lp21
(I4
I9
tp22
a(I4
I6
tp23
a(I0
I7
tp24
ag14
a(I0
I9
tp25
a(I8
I6
tp26
a(I0
I8
tp27
a(I3
I3
tp28
atp29
Rp30
sg10
I9
sS'dirt_locations'
p31
g20
((lp32
(I5
I4
tp33
a(I3
I2
tp34
a(I7
I7
tp35
a(I1
I9
tp36
a(I8
I7
tp37
a(I1
I1
tp38
a(I5
I8
tp39
a(I7
I9
tp40
atp41
Rp42
sg15
((I5
I9
tp43
(I5
I5
tp44
(I6
I9
tp45
(I2
I0
tp46
tp47
sg16
I10
sbs(iproblems
RoomID
p48
(dp49
g10
I9
sg11
I7
sg12
I6241004153072892496
sg13
(I2
I2
tp50
sg15
I3
sg16
I9
sb(imulti_robot_problem
MultiRobotState
p51
(dp52
g19
g20
((lp53
(I7
I3
tp54
a(I3
I2
tp55
a(I7
I1
tp56
a(I7
I7
tp57
ag50
a(I5
I1
tp58
a(I4
I1
tp59
atp60
Rp61
sg10
I9
sg31
g20
((lp62
(I4
I8
tp63
a(I5
I7
tp64
a(I6
I0
tp65
a(I3
I8
tp66
a(I1
I5
tp67
a(I3
I7
tp68
a(I3
I4
tp69
atp70
Rp71
sg15
((I6
I5
tp72
(I4
I3
tp73
(I3
I5
tp74
tp75
sg16
I9
sbs(iproblems
RoomID
p76
(dp77
g10
I8
sg11
I9
sg12
I6161655336973386967
sg13
(I4
I3
tp78
sg15
I3
sg16
I9
sb(imulti_robot_problem
MultiRobotState
p79
(dp80
g19
g20
((lp81
(I7
I3
tp82
a(I5
I4
tp83
a(I6
I6
tp84
a(I2
I1
tp85
a(I6
I3
tp86
ag78
a(I5
I2
tp87
atp88
Rp89
sg10
I8
sg31
g20
((lp90
(I6
I4
tp91
a(I6
I8
tp92
a(I2
I0
tp93
a(I5
I7
tp94
a(I1
I4
tp95
a(I1
I5
tp96
a(I0
I5
tp97
a(I2
I5
tp98
a(I4
I1
tp99
atp100
Rp101
sg15
((I3
I5
tp102
(I4
I6
tp103
(I4
I5
tp104
tp105
sg16
I9
sbs(iproblems
RoomID
p106
(dp107
g10
I9
sg11
I6
sg12
I8554152435637441414
sg13
(I7
I4
tp108
sg15
I4
sg16
I8
sb(imulti_robot_problem
MultiRobotState
p109
(dp110
g19
g20
((lp111
(I6
I6
tp112
a(I5
I7
tp113
ag108
a(I2
I0
tp114
a(I7
I5
tp115
a(I3
I7
tp116
a(I0
I3
tp117
a(I4
I1
tp118
atp119
Rp120
sg10
I9
sg31
g20
((lp121
(I7
I3
tp122
a(I1
I6
tp123
a(I5
I1
tp124
a(I8
I6
tp125
a(I0
I2
tp126
a(I4
I0
tp127
atp128
Rp129
sg15
((I5
I3
tp130
(I6
I2
tp131
(I6
I3
tp132
(I6
I4
tp133
tp134
sg16
I8
sbs(iproblems
RoomID
p135
(dp136
g10
I10
sg11
I10
sg12
I3125140389427113411
sg13
(I6
I4
tp137
sg15
I4
sg16
I7
sb(imulti_robot_problem
MultiRobotState
p138
(dp139
g19
g20
((lp140
(I6
I3
tp141
a(I5
I1
tp142
a(I5
I2
tp143
ag137
atp144
Rp145
sg10
I10
sg31
g20
((lp146
(I1
I2
tp147
a(I7
I3
tp148
a(I0
I0
tp149
a(I3
I3
tp150
a(I6
I2
tp151
a(I1
I6
tp152
a(I9
I4
tp153
a(I2
I5
tp154
a(I0
I2
tp155
a(I7
I2
tp156
atp157
Rp158
sg15
((I9
I0
tp159
(I6
I5
tp160
(I1
I4
tp161
(I1
I3
tp162
tp163
sg16
I7
sbssS'name'
p164
S'easy_roomset'
p165
sbsS'name'
p166
S'AnytimeBest-d10_with_PowerHeuristic2'
p167
sS'solutions'
p168
(dp169
g8
((lp170
(F0.36000000000058208
I10
tp171
aF40.040000000000873
tp172
sg48
((lp173
(F0.08000000000174623
I8
tp174
aF40.020000000004075
tp175
sg76
((lp176
F40.029999999998836
tp177
sg106
((lp178
(F0.26999999999679858
I8
tp179
aF40.05000000000291
tp180
sg135
((lp181
F40.089999999996508
tp182
ssba(imeasure_core
ProblemSetSolution
p183
(dp184
g3
(imeasure_core
RoomSet
p185
(dp186
S'rooms'
p187
(dp188
(iproblems
RoomID
p189
(dp190
S'width'
p191
I9
sS'dusts'
p192
I10
sS'seed'
p193
I4927760411464392432
sS'obstacles'
p194
(I1
I6
tp195
sS'robots'
p196
I3
sS'height'
p197
I12
sb(imulti_robot_problem
MultiRobotState
p198
(dp199
S'obstacle_locations'
p200
g20
((lp201
(I5
I9
tp202
a(I1
I3
tp203
a(I7
I7
tp204
ag195
a(I3
I7
tp205
a(I2
I5
tp206
a(I2
I9
tp207
a(I3
I10
tp208
a(I6
I10
tp209
a(I3
I6
tp210
a(I2
I2
tp211
a(I4
I5
tp212
a(I6
I0
tp213
a(I3
I9
tp214
a(I2
I3
tp215
a(I8
I7
tp216
a(I7
I9
tp217
a(I4
I6
tp218
a(I3
I1
tp219
a(I2
I11
tp220
a(I3
I8
tp221
a(I0
I6
tp222
a(I3
I4
tp223
a(I7
I6
tp224
atp225
Rp226
sg191
I9
sS'dirt_locations'
p227
g20
((lp228
(I1
I2
tp229
a(I6
I4
tp230
a(I6
I9
tp231
a(I8
I2
tp232
a(I8
I0
tp233
a(I0
I9
tp234
a(I1
I10
tp235
a(I1
I0
tp236
a(I0
I2
tp237
a(I4
I11
tp238
atp239
Rp240
sg196
((I1
I11
tp241
(I0
I11
tp242
(I7
I5
tp243
tp244
sg197
I12
sbs(iproblems
RoomID
p245
(dp246
g191
I11
sg192
I8
sg193
I3433768247134474666
sg194
(I1
I11
tp247
sg196
I4
sg197
I12
sb(imulti_robot_problem
MultiRobotState
p248
(dp249
g200
g20
((lp250
(I5
I0
tp251
a(I4
I8
tp252
a(I2
I8
tp253
a(I10
I6
tp254
a(I0
I10
tp255
a(I9
I4
tp256
a(I3
I7
tp257
ag247
a(I10
I3
tp258
a(I5
I8
tp259
a(I6
I7
tp260
a(I2
I9
tp261
a(I0
I11
tp262
a(I3
I6
tp263
a(I10
I4
tp264
a(I4
I5
tp265
a(I9
I3
tp266
a(I2
I10
tp267
a(I2
I3
tp268
a(I8
I7
tp269
a(I4
I9
tp270
a(I9
I6
tp271
a(I4
I11
tp272
a(I2
I7
tp273
a(I10
I5
tp274
a(I3
I8
tp275
a(I1
I8
tp276
a(I8
I8
tp277
a(I0
I9
tp278
a(I7
I8
tp279
atp280
Rp281
sg191
I11
sg227
g20
((lp282
(I4
I3
tp283
a(I5
I11
tp284
a(I9
I8
tp285
a(I2
I11
tp286
a(I9
I11
tp287
a(I7
I10
tp288
a(I1
I1
tp289
a(I6
I5
tp290
atp291
Rp292
sg196
((I7
I11
tp293
(I7
I7
tp294
(I2
I0
tp295
(I10
I9
tp296
tp297
sg197
I12
sbs(iproblems
RoomID
p298
(dp299
g191
I11
sg192
I7
sg193
I6241004153072892496
sg194
(I10
I3
tp300
sg196
I3
sg197
I11
sb(imulti_robot_problem
MultiRobotState
p301
(dp302
g200
g20
((lp303
(I9
I8
tp304
a(I7
I7
tp305
a(I8
I9
tp306
a(I6
I2
tp307
a(I9
I4
tp308
a(I5
I1
tp309
a(I0
I3
tp310
a(I8
I5
tp311
a(I1
I2
tp312
a(I5
I5
tp313
a(I10
I7
tp314
ag300
a(I8
I6
tp315
a(I3
I2
tp316
a(I0
I0
tp317
a(I2
I3
tp318
a(I4
I2
tp319
a(I6
I1
tp320
a(I1
I8
tp321
a(I8
I8
tp322
a(I9
I5
tp323
a(I7
I8
tp324
a(I2
I4
tp325
atp326
Rp327
sg191
I11
sg227
g20
((lp328
(I4
I10
tp329
a(I6
I9
tp330
a(I4
I9
tp331
a(I9
I1
tp332
a(I3
I10
tp333
a(I8
I0
tp334
a(I5
I10
tp335
atp336
Rp337
sg196
((I5
I4
tp338
(I4
I6
tp339
(I1
I6
tp340
tp341
sg197
I11
sbs(iproblems
RoomID
p342
(dp343
g191
I12
sg192
I10
sg193
I3125140389427113411
sg194
(I5
I4
tp344
sg196
I4
sg197
I9
sb(imulti_robot_problem
MultiRobotState
p345
(dp346
g200
g20
((lp347
(I7
I3
tp348
a(I4
I7
tp349
a(I6
I6
tp350
a(I5
I6
tp351
a(I6
I2
tp352
a(I3
I7
tp353
a(I5
I1
tp354
a(I2
I5
tp355
a(I6
I7
tp356
a(I3
I3
tp357
a(I10
I7
tp358
a(I8
I6
tp359
a(I5
I3
tp360
a(I6
I4
tp361
ag344
a(I2
I6
tp362
a(I1
I4
tp363
a(I10
I1
tp364
a(I6
I5
tp365
a(I5
I5
tp366
a(I2
I7
tp367
a(I6
I1
tp368
a(I7
I4
tp369
a(I9
I5
tp370
a(I5
I2
tp371
a(I8
I4
tp372
atp373
Rp374
sg191
I12
sg227
g20
((lp375
(I0
I0
tp376
a(I11
I4
tp377
a(I8
I2
tp378
a(I3
I0
tp379
a(I6
I0
tp380
a(I1
I8
tp381
a(I2
I3
tp382
a(I0
I3
tp383
a(I11
I6
tp384
a(I3
I5
tp385
atp386
Rp387
sg196
((I11
I0
tp388
(I7
I7
tp389
(I1
I5
tp390
(I2
I4
tp391
tp392
sg197
I9
sbs(iproblems
RoomID
p393
(dp394
g191
I11
sg192
I6
sg193
I8554152435637441414
sg194
(I5
I4
tp395
sg196
I4
sg197
I10
sb(imulti_robot_problem
MultiRobotState
p396
(dp397
g200
g20
((lp398
(I2
I8
tp399
a(I7
I7
tp400
a(I0
I7
tp401
a(I6
I2
tp402
a(I3
I7
tp403
a(I5
I1
tp404
a(I0
I3
tp405
a(I8
I5
tp406
a(I4
I9
tp407
a(I6
I3
tp408
a(I3
I6
tp409
a(I8
I6
tp410
a(I10
I9
tp411
a(I6
I4
tp412
ag395
a(I4
I5
tp413
a(I9
I3
tp414
a(I7
I5
tp415
a(I2
I1
tp416
a(I5
I3
tp417
a(I8
I3
tp418
a(I7
I0
tp419
a(I6
I8
tp420
a(I3
I8
tp421
a(I7
I8
tp422
atp423
Rp424
sg191
I11
sg227
g20
((lp425
(I1
I3
tp426
a(I9
I4
tp427
a(I3
I0
tp428
a(I5
I0
tp429
a(I4
I2
tp430
a(I7
I2
tp431
atp432
Rp433
sg196
((I8
I2
tp434
(I8
I4
tp435
(I9
I7
tp436
(I0
I2
tp437
tp438
sg197
I10
sbssS'name'
p439
S'mild_roomset'
p440
sbsg166
g167
sg168
(dp441
g189
((lp442
F40.220000000001164
tp443
sg245
((lp444
F40.040000000000873
tp445
sg298
((lp446
(F8.75
I10
tp447
aF40.029999999998836
tp448
sg342
((lp449
F40.090000000003783
tp450
sg393
((lp451
F40.089999999996508
tp452
ssba(imeasure_core
ProblemSetSolution
p453
(dp454
g3
(imeasure_core
RoomSet
p455
(dp456
S'rooms'
p457
(dp458
(iproblems
RoomID
p459
(dp460
S'width'
p461
I10
sS'dusts'
p462
I15
sS'seed'
p463
I4927760411464392432
sS'obstacles'
p464
(I3
I3
tp465
sS'robots'
p466
I5
sS'height'
p467
I13
sb(imulti_robot_problem
MultiRobotState
p468
(dp469
S'obstacle_locations'
p470
g20
((lp471
(I1
I2
tp472
a(I3
I1
tp473
ag465
a(I6
I11
tp474
a(I7
I6
tp475
a(I6
I10
tp476
a(I3
I11
tp477
a(I2
I1
tp478
a(I2
I10
tp479
a(I3
I9
tp480
a(I2
I3
tp481
a(I1
I7
tp482
a(I1
I3
tp483
a(I1
I0
tp484
a(I3
I10
tp485
a(I1
I1
tp486
a(I9
I12
tp487
a(I4
I0
tp488
atp489
Rp490
sg461
I10
sS'dirt_locations'
p491
g20
((lp492
(I9
I0
tp493
a(I7
I0
tp494
a(I5
I5
tp495
a(I4
I12
tp496
a(I0
I10
tp497
a(I8
I10
tp498
a(I1
I4
tp499
a(I8
I8
tp500
a(I2
I12
tp501
a(I8
I7
tp502
a(I1
I10
tp503
a(I7
I11
tp504
a(I9
I7
tp505
a(I0
I2
tp506
a(I8
I2
tp507
atp508
Rp509
sg466
((I1
I12
tp510
(I0
I12
tp511
(I8
I5
tp512
(I7
I9
tp513
(I7
I4
tp514
tp515
sg467
I13
sbs(iproblems
RoomID
p516
(dp517
g461
I12
sg462
I13
sg463
I3433768247134474666
sg464
(I4
I11
tp518
sg466
I6
sg467
I13
sb(imulti_robot_problem
MultiRobotState
p519
(dp520
g470
g20
((lp521
(I4
I10
tp522
a(I11
I3
tp523
a(I3
I12
tp524
a(I5
I11
tp525
a(I6
I11
tp526
a(I11
I7
tp527
a(I9
I8
tp528
a(I8
I8
tp529
a(I6
I0
tp530
a(I0
I12
tp531
a(I1
I1
tp532
a(I0
I11
tp533
a(I4
I12
tp534
a(I2
I3
tp535
a(I2
I12
tp536
a(I1
I6
tp537
a(I0
I10
tp538
a(I10
I3
tp539
a(I3
I10
tp540
ag518
a(I1
I9
tp541
atp542
Rp543
sg461
I12
sg491
g20
((lp544
(I10
I8
tp545
a(I10
I5
tp546
a(I6
I7
tp547
a(I6
I8
tp548
a(I4
I4
tp549
a(I10
I12
tp550
a(I5
I10
tp551
a(I9
I9
tp552
a(I7
I5
tp553
a(I7
I10
tp554
a(I6
I12
tp555
a(I8
I10
tp556
a(I5
I3
tp557
atp558
Rp559
sg466
((I7
I12
tp560
(I7
I7
tp561
(I8
I12
tp562
(I2
I0
tp563
(I11
I9
tp564
(I1
I2
tp565
tp566
sg467
I13
sbs(iproblems
RoomID
p567
(dp568
g461
I12
sg462
I12
sg463
I6241004153072892496
sg464
(I3
I3
tp569
sg466
I6
sg467
I12
sb(imulti_robot_problem
MultiRobotState
p570
(dp571
g470
g20
((lp572
(I3
I1
tp573
ag569
a(I2
I9
tp574
a(I7
I1
tp575
a(I11
I8
tp576
a(I5
I2
tp577
a(I6
I1
tp578
a(I9
I3
tp579
a(I8
I5
tp580
a(I4
I3
tp581
a(I4
I2
tp582
a(I3
I4
tp583
a(I11
I6
tp584
atp585
Rp586
sg461
I12
sg491
g20
((lp587
(I4
I10
tp588
a(I0
I0
tp589
a(I8
I7
tp590
a(I5
I11
tp591
a(I8
I0
tp592
a(I9
I10
tp593
a(I7
I10
tp594
a(I10
I1
tp595
a(I2
I5
tp596
a(I8
I9
tp597
a(I4
I11
tp598
a(I10
I4
tp599
atp600
Rp601
sg466
((I8
I6
tp602
(I5
I4
tp603
(I7
I2
tp604
(I4
I7
tp605
(I1
I7
tp606
(I5
I6
tp607
tp608
sg467
I12
sbs(iproblems
RoomID
p609
(dp610
g461
I12
sg462
I11
sg463
I8554152435637441414
sg464
(I3
I6
tp611
sg466
I7
sg467
I11
sb(imulti_robot_problem
MultiRobotState
p612
(dp613
g470
g20
((lp614
(I2
I8
tp615
a(I11
I2
tp616
a(I9
I4
tp617
a(I3
I7
tp618
a(I5
I1
tp619
a(I3
I8
tp620
a(I7
I6
tp621
a(I4
I4
tp622
a(I6
I3
tp623
ag611
a(I0
I4
tp624
a(I8
I6
tp625
a(I9
I7
tp626
a(I4
I5
tp627
a(I7
I5
tp628
a(I9
I6
tp629
a(I7
I9
tp630
a(I3
I1
tp631
a(I7
I4
tp632
a(I1
I8
tp633
a(I8
I8
tp634
a(I1
I7
tp635
a(I0
I9
tp636
atp637
Rp638
sg461
I12
sg491
g20
((lp639
(I11
I10
tp640
a(I4
I9
tp641
a(I2
I9
tp642
a(I3
I0
tp643
a(I8
I0
tp644
a(I4
I7
tp645
a(I1
I4
tp646
a(I0
I3
tp647
a(I0
I8
tp648
a(I5
I2
tp649
a(I7
I2
tp650
atp651
Rp652
sg466
((I6
I4
tp653
(I8
I2
tp654
(I8
I5
tp655
(I10
I8
tp656
(I1
I2
tp657
(I6
I0
tp658
(I10
I4
tp659
tp660
sg467
I11
sbs(iproblems
RoomID
p661
(dp662
g461
I13
sg462
I15
sg463
I3125140389427113411
sg464
(I1
I6
tp663
sg466
I6
sg467
I10
sb(imulti_robot_problem
MultiRobotState
p664
(dp665
g470
g20
((lp666
(I7
I3
tp667
a(I3
I3
tp668
a(I2
I0
tp669
a(I6
I1
tp670
a(I1
I4
tp671
a(I7
I4
tp672
a(I1
I5
tp673
a(I11
I1
tp674
a(I2
I3
tp675
a(I0
I7
tp676
a(I8
I7
tp677
a(I6
I2
tp678
ag663
atp679
Rp680
sg461
I13
sg491
g20
((lp681
(I0
I1
tp682
a(I2
I6
tp683
a(I2
I9
tp684
a(I11
I8
tp685
a(I2
I8
tp686
a(I9
I3
tp687
a(I6
I0
tp688
a(I7
I7
tp689
a(I6
I3
tp690
a(I3
I0
tp691
a(I12
I4
tp692
a(I0
I4
tp693
a(I9
I7
tp694
a(I2
I4
tp695
a(I9
I2
tp696
atp697
Rp698
sg466
((I12
I0
tp699
(I7
I8
tp700
(I2
I5
tp701
(I4
I5
tp702
(I12
I7
tp703
(I9
I4
tp704
tp705
sg467
I10
sbssS'name'
p706
S'heavy_roomset'
p707
sbsg166
g167
sg168
(dp708
g459
((lp709
F40.470000000001164
tp710
sg516
((lp711
F41.950000000004366
tp712
sg567
((lp713
F40.479999999995925
tp714
sg609
((lp715
F41.419999999998254
tp716
sg661
((lp717
F41.190000000002328
tp718
ssba(imeasure_core
ProblemSetSolution
p719
(dp720
g3
g4
sg166
S'AnytimeBest-d80_with_PowerHeuristic2'
p721
sg168
(dp722
g8
((lp723
(F0.37000000000261934
I10
tp724
aF40.089999999996508
tp725
sg48
((lp726
(F0.090000000003783498
I8
tp727
aF40.030000000006112
tp728
sg76
((lp729
(F0.9699999999938882
I48
tp730
aF40.009999999994761
tp731
sg106
((lp732
(F0.26000000000203727
I8
tp733
aF40.05000000000291
tp734
sg135
((lp735
(F0.55999999999767169
I13
tp736
aF40.040000000000873
tp737
ssba(imeasure_core
ProblemSetSolution
p738
(dp739
g3
g185
sg166
g721
sg168
(dp740
g189
((lp741
F40.25
tp742
sg245
((lp743
(F1.0899999999965075
I30
tp744
aF40.019999999996799
tp745
sg298
((lp746
(F0.22000000000116415
I13
tp747
aF40.029999999998836
tp748
sg342
((lp749
F40.310000000004948
tp750
sg393
((lp751
(F3.1899999999950523
I55
tp752
aF40.040000000000873
tp753
ssba(imeasure_core
ProblemSetSolution
p754
(dp755
g3
g455
sg166
g721
sg168
(dp756
g459
((lp757
F40.419999999998254
tp758
sg516
((lp759
(F21.209999999999127
I17
tp760
aF40.470000000001164
tp761
sg567
((lp762
F41.610000000000582
tp763
sg609
((lp764
F41.189999999995052
tp765
sg661
((lp766
(F22.529999999998836
I29
tp767
aF40.240000000005239
tp768
ssba(imeasure_core
ProblemSetSolution
p769
(dp770
g3
g4
sg166
S'AnytimeBest-d150_with_PowerHeuristic2'
p771
sg168
(dp772
g8
((lp773
(F0.36000000000058208
I10
tp774
aF40.040000000000873
tp775
sg48
((lp776
(F0.08000000000174623
I8
tp777
aF40.020000000004075
tp778
sg76
((lp779
(F0.9699999999938882
I48
tp780
aF40.009999999994761
tp781
sg106
((lp782
(F0.26000000000203727
I8
tp783
aF40.05000000000291
tp784
sg135
((lp785
(F0.54000000000087311
I13
tp786
aF40.040000000000873
tp787
ssba(imeasure_core
ProblemSetSolution
p788
(dp789
g3
g185
sg166
g771
sg168
(dp790
g189
((lp791
F40.260000000002037
tp792
sg245
((lp793
(F1.1099999999933061
I30
tp794
aF40.019999999996799
tp795
sg298
((lp796
(F0.23000000000320142
I13
tp797
aF40.029999999998836
tp798
sg342
((lp799
F40.349999999998545
tp800
sg393
((lp801
(F3.2200000000011642
I55
tp802
aF40.17000000000553
tp803
ssba(imeasure_core
ProblemSetSolution
p804
(dp805
g3
g455
sg166
g771
sg168
(dp806
g459
((lp807
F40.209999999999127
tp808
sg516
((lp809
(F21.230000000003201
I17
tp810
aF40.599999999998545
tp811
sg567
((lp812
F41.55000000000291
tp813
sg609
((lp814
F41.209999999999127
tp815
sg661
((lp816
(F22.440000000002328
I29
tp817
aF40.239999999997963
tp818
ssba(imeasure_core
ProblemSetSolution
p819
(dp820
g3
g4
sg166
S'AnytimeBest-d250_with_PowerHeuristic2'
p821
sg168
(dp822
g8
((lp823
(F0.36000000000058208
I10
tp824
aF40.040000000000873
tp825
sg48
((lp826
(F0.08000000000174623
I8
tp827
aF40.020000000004075
tp828
sg76
((lp829
(F0.97000000000116415
I48
tp830
aF40.019999999996799
tp831
sg106
((lp832
(F0.26000000000203727
I8
tp833
aF40.05000000000291
tp834
sg135
((lp835
(F0.54999999999563443
I13
tp836
aF40.049999999995634
tp837
ssba(imeasure_core
ProblemSetSolution
p838
(dp839
g3
g185
sg166
g821
sg168
(dp840
g189
((lp841
F40.490000000005239
tp842
sg245
((lp843
(F1.0999999999985448
I30
tp844
aF40.019999999996799
tp845
sg298
((lp846
(F0.23000000000320142
I13
tp847
aF40.029999999998836
tp848
sg342
((lp849
F40.330000000001746
tp850
sg393
((lp851
(F3.2200000000011642
I55
tp852
aF40.029999999998836
tp853
ssba(imeasure_core
ProblemSetSolution
p854
(dp855
g3
g455
sg166
g821
sg168
(dp856
g459
((lp857
F40.479999999995925
tp858
sg516
((lp859
(F21.290000000000873
I17
tp860
aF40.639999999999418
tp861
sg567
((lp862
F40.42000000000553
tp863
sg609
((lp864
F41.180000000000291
tp865
sg661
((lp866
(F22.289999999993597
I29
tp867
aF40.239999999990687
tp868
ssba(imeasure_core
ProblemSetSolution
p869
(dp870
g3
g4
sg166
S'AnytimeBest-d400_with_PowerHeuristic2'
p871
sg168
(dp872
g8
((lp873
(F0.36000000000058208
I10
tp874
aF40.080000000001746
tp875
sg48
((lp876
(F0.08000000000174623
I8
tp877
aF40.019999999989523
tp878
sg76
((lp879
(F0.97000000000116415
I48
tp880
aF40.010000000009313
tp881
sg106
((lp882
(F0.25999999999476131
I8
tp883
aF40.05000000000291
tp884
sg135
((lp885
(F0.54999999998835847
I13
tp886
aF40.039999999993597
tp887
ssba(imeasure_core
ProblemSetSolution
p888
(dp889
g3
g185
sg166
g871
sg168
(dp890
g189
((lp891
F40.259999999994761
tp892
sg245
((lp893
(F1.0900000000110595
I30
tp894
aF40.020000000004075
tp895
sg298
((lp896
(F0.22000000000116415
I13
tp897
aF40.029999999998836
tp898
sg342
((lp899
F40.309999999997672
tp900
sg393
((lp901
(F3.1699999999982538
I55
tp902
aF40.029999999998836
tp903
ssba(imeasure_core
ProblemSetSolution
p904
(dp905
g3
g455
sg166
g871
sg168
(dp906
g459
((lp907
F40.389999999999418
tp908
sg516
((lp909
(F20.869999999995343
I17
tp910
aF40.419999999998254
tp911
sg567
((lp912
F40.440000000002328
tp913
sg609
((lp914
F40.869999999995343
tp915
sg661
((lp916
(F22.360000000000582
I29
tp917
aF40.240000000005239
tp918
ssba(imeasure_core
ProblemSetSolution
p919
(dp920
g3
g4
sg166
S'AnytimeBest-d1000_with_PowerHeuristic2'
p921
sg168
(dp922
g8
((lp923
(F0.36000000000058208
I10
tp924
aF40.05000000000291
tp925
sg48
((lp926
(F0.08999999999650754
I8
tp927
aF40.020000000004075
tp928
sg76
((lp929
(F0.97000000000116415
I48
tp930
aF40.009999999994761
tp931
sg106
((lp932
(F0.25999999999476131
I8
tp933
aF40.05000000000291
tp934
sg135
((lp935
(F0.55000000000291038
I13
tp936
aF40.039999999993597
tp937
ssba(imeasure_core
ProblemSetSolution
p938
(dp939
g3
g185
sg166
g921
sg168
(dp940
g189
((lp941
F40.25
tp942
sg245
((lp943
(F1.1000000000058208
I30
tp944
aF40.020000000004075
tp945
sg298
((lp946
(F0.22000000000116415
I13
tp947
aF40.029999999998836
tp948
sg342
((lp949
F40.339999999996508
tp950
sg393
((lp951
(F3.1699999999982538
I55
tp952
aF40.029999999998836
tp953
ssba(imeasure_core
ProblemSetSolution
p954
(dp955
g3
g455
sg166
g921
sg168
(dp956
g459
((lp957
F40.429999999993015
tp958
sg516
((lp959
(F20.940000000002328
I17
tp960
aF40.240000000005239
tp961
sg567
((lp962
F40.5
tp963
sg609
((lp964
F40.910000000003492
tp965
sg661
((lp966
(F22.379999999990105
I29
tp967
aF40.239999999990687
tp968
ssba(imeasure_core
ProblemSetSolution
p969
(dp970
g3
g4
sg166
S'AnytimeBest-d10_with_LinearHeuristic'
p971
sg168
(dp972
g8
((lp973
F40.159999999988941
tp974
sg48
((lp975
(F0.090000000011059456
I7
tp976
aF40.100000000005821
tp977
sg76
((lp978
F40.089999999996508
tp979
sg106
((lp980
F40.100000000005821
tp981
sg135
((lp982
F40.160000000003492
tp983
ssba(imeasure_core
ProblemSetSolution
p984
(dp985
g3
g185
sg166
g971
sg168
(dp986
g189
((lp987
F40.039999999993597
tp988
sg245
((lp989
F40.160000000003492
tp990
sg298
((lp991
F40.039999999993597
tp992
sg342
((lp993
F40.05000000000291
tp994
sg393
((lp995
(F0.28999999999359716
I8
tp996
aF40.070000000006985
tp997
ssba(imeasure_core
ProblemSetSolution
p998
(dp999
g3
g455
sg166
g971
sg168
(dp1000
g459
((lp1001
F40.379999999990105
tp1002
sg516
((lp1003
F40.900000000008731
tp1004
sg567
((lp1005
(F23.220000000001164
I10
tp1006
aF40.329999999987194
tp1007
sg609
((lp1008
F40.740000000005239
tp1009
sg661
((lp1010
F41.169999999998254
tp1011
ssba(imeasure_core
ProblemSetSolution
p1012
(dp1013
g3
g4
sg166
S'AnytimeBest-d80_with_LinearHeuristic'
p1014
sg168
(dp1015
g8
((lp1016
(F1.8600000000005821
I29
tp1017
aF40.149999999994179
tp1018
sg48
((lp1019
(F0.08999999999650754
I7
tp1020
aF40.080000000001746
tp1021
sg76
((lp1022
F40.029999999998836
tp1023
sg106
((lp1024
F40.05000000000291
tp1025
sg135
((lp1026
F40.259999999994761
tp1027
ssba(imeasure_core
ProblemSetSolution
p1028
(dp1029
g3
g185
sg166
g1014
sg168
(dp1030
g189
((lp1031
F40.059999999997672
tp1032
sg245
((lp1033
F40.230000000010477
tp1034
sg298
((lp1035
(F0.54999999998835847
I27
tp1036
aF40.069999999992433
tp1037
sg342
((lp1038
F40.089999999996508
tp1039
sg393
((lp1040
(F0.27999999999883585
I8
tp1041
aF40.070000000006985
tp1042
ssba(imeasure_core
ProblemSetSolution
p1043
(dp1044
g3
g455
sg166
g1014
sg168
(dp1045
g459
((lp1046
F40.179999999993015
tp1047
sg516
((lp1048
F40.710000000006403
tp1049
sg567
((lp1050
(F23.069999999992433
I10
tp1051
aF42.869999999995343
tp1052
sg609
((lp1053
F40.330000000001746
tp1054
sg661
((lp1055
F42.029999999998836
tp1056
ssba(imeasure_core
ProblemSetSolution
p1057
(dp1058
g3
g4
sg166
S'AnytimeBest-d150_with_LinearHeuristic'
p1059
sg168
(dp1060
g8
((lp1061
(F1.8499999999912689
I29
tp1062
aF40.219999999986612
tp1063
sg48
((lp1064
(F0.090000000011059456
I7
tp1065
aF40.080000000001746
tp1066
sg76
((lp1067
F40.029999999998836
tp1068
sg106
((lp1069
F40.150000000008731
tp1070
sg135
((lp1071
F40.099999999991269
tp1072
ssba(imeasure_core
ProblemSetSolution
p1073
(dp1074
g3
g185
sg166
g1059
sg168
(dp1075
g189
((lp1076
F40.060000000012224
tp1077
sg245
((lp1078
F40.059999999997672
tp1079
sg298
((lp1080
(F0.55999999999767169
I27
tp1081
aF40.039999999993597
tp1082
sg342
((lp1083
F40.270000000004075
tp1084
sg393
((lp1085
(F0.28999999999359716
I8
tp1086
aF40.059999999997672
tp1087
ssba(imeasure_core
ProblemSetSolution
p1088
(dp1089
g3
g455
sg166
g1059
sg168
(dp1090
g459
((lp1091
F40.779999999998836
tp1092
sg516
((lp1093
F40.350000000005821
tp1094
sg567
((lp1095
(F23.139999999999418
I10
tp1096
aF40.330000000001746
tp1097
sg609
((lp1098
F40.30000000000291
tp1099
sg661
((lp1100
F42.019999999989523
tp1101
ssba(imeasure_core
ProblemSetSolution
p1102
(dp1103
g3
g4
sg166
S'AnytimeBest-d250_with_LinearHeuristic'
p1104
sg168
(dp1105
g8
((lp1106
(F1.8399999999965075
I29
tp1107
aF40.179999999993015
tp1108
sg48
((lp1109
(F0.090000000011059456
I7
tp1110
aF40.080000000001746
tp1111
sg76
((lp1112
F40.100000000005821
tp1113
sg106
((lp1114
F40.239999999990687
tp1115
sg135
((lp1116
F40.25
tp1117
ssba(imeasure_core
ProblemSetSolution
p1118
(dp1119
g3
g185
sg166
g1104
sg168
(dp1120
g189
((lp1121
F40.05000000000291
tp1122
sg245
((lp1123
F40.120000000009895
tp1124
sg298
((lp1125
(F0.54999999998835847
I27
tp1126
aF40.059999999997672
tp1127
sg342
((lp1128
F40.099999999991269
tp1129
sg393
((lp1130
(F0.29000000000814907
I8
tp1131
aF40.070000000006985
tp1132
ssba(imeasure_core
ProblemSetSolution
p1133
(dp1134
g3
g455
sg166
g1104
sg168
(dp1135
g459
((lp1136
F40.679999999993015
tp1137
sg516
((lp1138
F40.440000000002328
tp1139
sg567
((lp1140
(F23.180000000007567
I10
tp1141
aF40.330000000001746
tp1142
sg609
((lp1143
F40.410000000003492
tp1144
sg661
((lp1145
F42.089999999996508
tp1146
ssba(imeasure_core
ProblemSetSolution
p1147
(dp1148
g3
g4
sg166
S'AnytimeBest-d400_with_LinearHeuristic'
p1149
sg168
(dp1150
g8
((lp1151
(F1.8600000000005821
I29
tp1152
aF40.110000000000582
tp1153
sg48
((lp1154
(F0.08999999999650754
I7
tp1155
aF40.080000000001746
tp1156
sg76
((lp1157
F40.130000000004657
tp1158
sg106
((lp1159
F40.219999999986612
tp1160
sg135
((lp1161
F40.330000000001746
tp1162
ssba(imeasure_core
ProblemSetSolution
p1163
(dp1164
g3
g185
sg166
g1149
sg168
(dp1165
g189
((lp1166
F40.080000000001746
tp1167
sg245
((lp1168
F40.049999999988358
tp1169
sg298
((lp1170
(F0.56000000001222361
I27
tp1171
aF40.05000000000291
tp1172
sg342
((lp1173
F40.220000000001164
tp1174
sg393
((lp1175
(F0.29000000000814907
I8
tp1176
aF40.070000000006985
tp1177
ssba(imeasure_core
ProblemSetSolution
p1178
(dp1179
g3
g455
sg166
g1149
sg168
(dp1180
g459
((lp1181
F40.819999999992433
tp1182
sg516
((lp1183
F40.369999999995343
tp1184
sg567
((lp1185
(F22.930000000007567
I10
tp1186
aF40.330000000001746
tp1187
sg609
((lp1188
F40.610000000000582
tp1189
sg661
((lp1190
F42.190000000002328
tp1191
ssba(imeasure_core
ProblemSetSolution
p1192
(dp1193
g3
g4
sg166
S'AnytimeBest-d1000_with_LinearHeuristic'
p1194
sg168
(dp1195
g8
((lp1196
(F1.8600000000005821
I29
tp1197
aF40.100000000005821
tp1198
sg48
((lp1199
(F0.08999999999650754
I7
tp1200
aF40.080000000001746
tp1201
sg76
((lp1202
F40.029999999998836
tp1203
sg106
((lp1204
F40.239999999990687
tp1205
sg135
((lp1206
F40.400000000008731
tp1207
ssba(imeasure_core
ProblemSetSolution
p1208
(dp1209
g3
g185
sg166
g1194
sg168
(dp1210
g189
((lp1211
F40.059999999997672
tp1212
sg245
((lp1213
F40.100000000005821
tp1214
sg298
((lp1215
(F0.55999999999767169
I27
tp1216
aF40.079999999987194
tp1217
sg342
((lp1218
F40.190000000002328
tp1219
sg393
((lp1220
(F0.29000000000814907
I8
tp1221
aF40.070000000006985
tp1222
ssba(imeasure_core
ProblemSetSolution
p1223
(dp1224
g3
g455
sg166
g1194
sg168
(dp1225
g459
((lp1226
F40.759999999994761
tp1227
sg516
((lp1228
F40.509999999994761
tp1229
sg567
((lp1230
(F22.950000000011642
I10
tp1231
aF40.330000000001746
tp1232
sg609
((lp1233
F40.700000000011642
tp1234
sg661
((lp1235
F42.189999999987776
tp1236
ssba.