(lp0
(imeasure_core
ProblemSetSolution
p1
(dp2
S'roomset'
p3
(imeasure_core
RoomSet
p4
(dp5
S'rooms'
p6
(dp7
(iproblems
RoomID
p8
(dp9
S'width'
p10
I9
sS'dusts'
p11
I7
sS'seed'
p12
I1486246605650367638
sS'obstacles'
p13
(I1
I3
tp14
sS'robots'
p15
I1
sS'height'
p16
I7
sb(imulti_robot_problem
MultiRobotState
p17
(dp18
S'obstacle_locations'
p19
c__builtin__
frozenset
p20
((lp21
(I0
I1
tp22
a(I8
I3
tp23
ag14
a(I0
I3
tp24
a(I0
I2
tp25
atp26
Rp27
sg10
I9
sS'dirt_locations'
p28
g20
((lp29
(I7
I0
tp30
a(I4
I4
tp31
a(I7
I5
tp32
a(I0
I4
tp33
a(I1
I0
tp34
a(I6
I5
tp35
a(I4
I0
tp36
atp37
Rp38
sg15
((I5
I1
tp39
tp40
sg16
I7
sbs(iproblems
RoomID
p41
(dp42
g10
I10
sg11
I9
sg12
I679259829289197625
sg13
(I7
I5
tp43
sg15
I4
sg16
I10
sb(imulti_robot_problem
MultiRobotState
p44
(dp45
g19
g20
((lp46
(I7
I0
tp47
a(I8
I6
tp48
a(I7
I6
tp49
ag43
a(I9
I6
tp50
atp51
Rp52
sg10
I10
sg28
g20
((lp53
(I5
I4
tp54
a(I2
I6
tp55
a(I7
I1
tp56
a(I6
I1
tp57
a(I0
I5
tp58
a(I8
I7
tp59
a(I9
I5
tp60
a(I0
I9
tp61
a(I1
I6
tp62
atp63
Rp64
sg15
((I7
I8
tp65
(I6
I7
tp66
(I3
I5
tp67
(I3
I9
tp68
tp69
sg16
I10
sbs(iproblems
RoomID
p70
(dp71
g10
I10
sg11
I6
sg12
I403795515464475257
sg13
(I1
I6
tp72
sg15
I4
sg16
I8
sb(imulti_robot_problem
MultiRobotState
p73
(dp74
g19
g20
((lp75
(I8
I3
tp76
a(I1
I3
tp77
a(I6
I7
tp78
ag72
a(I0
I4
tp79
a(I0
I5
tp80
a(I4
I1
tp81
atp82
Rp83
sg10
I10
sg28
g20
((lp84
(I7
I3
tp85
a(I4
I7
tp86
a(I8
I0
tp87
a(I0
I7
tp88
a(I2
I2
tp89
a(I0
I2
tp90
atp91
Rp92
sg15
((I8
I2
tp93
(I6
I1
tp94
(I5
I0
tp95
(I2
I0
tp96
tp97
sg16
I8
sbs(iproblems
RoomID
p98
(dp99
g10
I9
sg11
I6
sg12
I5891625650498269233
sg13
(I4
I4
tp100
sg15
I4
sg16
I9
sb(imulti_robot_problem
MultiRobotState
p101
(dp102
g19
g20
((lp103
(I2
I7
tp104
a(I4
I5
tp105
ag100
a(I3
I6
tp106
atp107
Rp108
sg10
I9
sg28
g20
((lp109
(I8
I3
tp110
a(I5
I5
tp111
a(I6
I6
tp112
a(I7
I4
tp113
a(I0
I5
tp114
a(I4
I0
tp115
atp116
Rp117
sg15
((I4
I6
tp118
(I7
I1
tp119
(I0
I4
tp120
(I7
I2
tp121
tp122
sg16
I9
sbs(iproblems
RoomID
p123
(dp124
g10
I9
sg11
I5
sg12
I2685440357799139976
sg13
(I3
I4
tp125
sg15
I1
sg16
I9
sb(imulti_robot_problem
MultiRobotState
p126
(dp127
g19
g20
((lp128
(I8
I3
tp129
a(I1
I3
tp130
a(I5
I6
tp131
a(I7
I8
tp132
a(I1
I1
tp133
a(I3
I8
tp134
a(I2
I3
tp135
ag125
a(I2
I4
tp136
atp137
Rp138
sg10
I9
sg28
g20
((lp139
(I0
I1
tp140
a(I0
I0
tp141
a(I3
I1
tp142
a(I5
I0
tp143
a(I8
I7
tp144
atp145
Rp146
sg15
((I5
I5
tp147
tp148
sg16
I9
sbssS'name'
p149
S'easy_roomset'
p150
sbsS'name'
p151
S"AnytimeBeam-w5-gf(1.3, 'exp')_with_PowerHeuristic2"
p152
sS'solutions'
p153
(dp154
g8
((lp155
(F0.23999999999796273
I45
tp156
a(F2.069999999999709
I44
tp157
a(F2.6900000000023283
I41
tp158
a(F3.1299999999973807
I37
tp159
a(F3.7300000000032014
I36
tp160
a(F4.3600000000005821
I34
tp161
a(F6.4400000000023283
I33
tp162
a(F8.680000000000291
I31
tp163
a(F11.620000000002619
I30
tp164
a(F14.790000000000873
I28
tp165
a(F17.209999999999127
I26
tp166
a(F22.220000000001164
I25
tp167
a(F28.639999999999418
I24
tp168
aF40.0
tp169
sg41
((lp170
(F0.55000000000291038
I20
tp171
aF40.150000000001455
tp172
sg70
((lp173
(F3.7799999999988358
I134
tp174
aF40.010000000002037
tp175
sg98
((lp176
(F0.30999999999767169
I8
tp177
aF40.180000000000291
tp178
sg123
((lp179
(F0.049999999995634425
I43
tp180
a(F0.099999999998544808
I41
tp181
a(F2.5499999999956344
I35
tp182
a(F3.6799999999930151
I33
tp183
a(F4.9399999999950523
I31
tp184
a(F6.2599999999947613
I29
tp185
a(F8.569999999999709
I27
tp186
a(F11.779999999998836
I25
tp187
a(F14.509999999994761
I23
tp188
aF40.0
tp189
ssba(imeasure_core
ProblemSetSolution
p190
(dp191
g3
(imeasure_core
RoomSet
p192
(dp193
S'rooms'
p194
(dp195
(iproblems
RoomID
p196
(dp197
S'width'
p198
I12
sS'dusts'
p199
I9
sS'seed'
p200
I679259829289197625
sS'obstacles'
p201
(I7
I7
tp202
sS'robots'
p203
I4
sS'height'
p204
I12
sb(imulti_robot_problem
MultiRobotState
p205
(dp206
S'obstacle_locations'
p207
g20
((lp208
(I6
I9
tp209
a(I6
I6
tp210
a(I5
I6
tp211
a(I9
I8
tp212
ag202
a(I8
I5
tp213
a(I10
I8
tp214
a(I6
I7
tp215
a(I10
I7
tp216
a(I7
I6
tp217
a(I8
I10
tp218
a(I7
I10
tp219
a(I8
I6
tp220
a(I9
I7
tp221
a(I6
I4
tp222
a(I11
I9
tp223
a(I1
I4
tp224
a(I7
I5
tp225
a(I8
I7
tp226
a(I4
I2
tp227
a(I9
I6
tp228
a(I6
I5
tp229
a(I11
I7
tp230
a(I10
I5
tp231
a(I6
I8
tp232
a(I11
I8
tp233
a(I6
I1
tp234
a(I7
I4
tp235
atp236
Rp237
sg198
I12
sS'dirt_locations'
p238
g20
((lp239
(I2
I7
tp240
a(I9
I0
tp241
a(I8
I2
tp242
a(I7
I1
tp243
a(I11
I0
tp244
a(I0
I11
tp245
a(I1
I6
tp246
a(I1
I7
tp247
a(I11
I6
tp248
atp249
Rp250
sg203
((I9
I10
tp251
(I8
I9
tp252
(I3
I7
tp253
(I3
I11
tp254
tp255
sg204
I12
sbs(iproblems
RoomID
p256
(dp257
g198
I11
sg199
I5
sg200
I2685440357799139976
sg201
(I9
I1
tp258
sg203
I3
sg204
I11
sb(imulti_robot_problem
MultiRobotState
p259
(dp260
g207
g20
((lp261
(I7
I3
tp262
ag258
a(I5
I6
tp263
a(I10
I6
tp264
a(I9
I4
tp265
a(I7
I10
tp266
a(I10
I3
tp267
a(I7
I2
tp268
a(I5
I5
tp269
a(I10
I7
tp270
a(I8
I5
tp271
a(I3
I6
tp272
a(I3
I5
tp273
a(I10
I9
tp274
a(I10
I4
tp275
a(I7
I1
tp276
a(I4
I5
tp277
a(I9
I3
tp278
a(I1
I4
tp279
a(I3
I9
tp280
a(I9
I6
tp281
a(I6
I5
tp282
a(I5
I3
tp283
a(I8
I3
tp284
a(I6
I8
tp285
a(I9
I2
tp286
a(I7
I8
tp287
a(I9
I9
tp288
a(I9
I5
tp289
a(I3
I4
tp290
a(I2
I4
tp291
atp292
Rp293
sg198
I11
sg238
g20
((lp294
(I1
I2
tp295
a(I9
I10
tp296
a(I6
I1
tp297
a(I4
I1
tp298
a(I0
I2
tp299
atp300
Rp301
sg203
((I6
I6
tp302
(I0
I0
tp303
(I10
I8
tp304
tp305
sg204
I11
sbs(iproblems
RoomID
p306
(dp307
g198
I10
sg199
I10
sg200
I1737871632067391849
sg201
(I1
I5
tp308
sg203
I4
sg204
I12
sb(imulti_robot_problem
MultiRobotState
p309
(dp310
g207
g20
((lp311
(I6
I6
tp312
a(I5
I6
tp313
a(I2
I8
tp314
a(I8
I9
tp315
a(I6
I2
tp316
a(I5
I1
tp317
a(I8
I5
tp318
a(I5
I8
tp319
a(I5
I5
tp320
a(I7
I6
tp321
a(I8
I10
tp322
ag308
a(I2
I2
tp323
a(I4
I1
tp324
a(I3
I2
tp325
a(I0
I0
tp326
a(I2
I10
tp327
a(I2
I3
tp328
a(I8
I7
tp329
a(I6
I5
tp330
a(I8
I3
tp331
a(I7
I8
tp332
a(I2
I4
tp333
atp334
Rp335
sg198
I10
sg238
g20
((lp336
(I0
I1
tp337
a(I4
I10
tp338
a(I4
I8
tp339
a(I3
I0
tp340
a(I3
I4
tp341
a(I3
I10
tp342
a(I5
I11
tp343
a(I2
I7
tp344
a(I1
I9
tp345
a(I9
I6
tp346
atp347
Rp348
sg203
((I4
I9
tp349
(I8
I11
tp350
(I4
I0
tp351
(I3
I9
tp352
tp353
sg204
I12
sbs(iproblems
RoomID
p354
(dp355
g198
I11
sg199
I6
sg200
I5891625650498269233
sg201
(I3
I9
tp356
sg203
I4
sg204
I11
sb(imulti_robot_problem
MultiRobotState
p357
(dp358
g207
g20
((lp359
(I7
I3
tp360
a(I4
I7
tp361
a(I6
I6
tp362
a(I5
I6
tp363
a(I2
I8
tp364
a(I6
I2
tp365
a(I5
I1
tp366
a(I3
I7
tp367
a(I8
I5
tp368
a(I5
I5
tp369
a(I2
I9
tp370
a(I7
I6
tp371
a(I4
I4
tp372
a(I2
I2
tp373
a(I1
I1
tp374
a(I9
I7
tp375
a(I3
I2
tp376
a(I10
I4
tp377
a(I4
I5
tp378
a(I9
I3
tp379
a(I8
I3
tp380
a(I2
I10
tp381
a(I7
I5
tp382
a(I2
I3
tp383
a(I10
I5
tp384
a(I4
I6
tp385
a(I3
I4
tp386
a(I6
I1
tp387
a(I3
I8
tp388
a(I1
I8
tp389
ag356
a(I4
I3
tp390
a(I9
I5
tp391
a(I5
I2
tp392
a(I8
I4
tp393
atp394
Rp395
sg198
I11
sg238
g20
((lp396
(I5
I10
tp397
a(I9
I1
tp398
a(I10
I7
tp399
a(I8
I8
tp400
a(I1
I6
tp401
a(I7
I9
tp402
atp403
Rp404
sg203
((I5
I7
tp405
(I8
I1
tp406
(I0
I5
tp407
(I4
I0
tp408
tp409
sg204
I11
sbs(iproblems
RoomID
p410
(dp411
g198
I9
sg199
I7
sg200
I7834319822419845881
sg201
(I8
I8
tp412
sg203
I3
sg204
I9
sb(imulti_robot_problem
MultiRobotState
p413
(dp414
g207
g20
((lp415
(I4
I7
tp416
a(I1
I3
tp417
a(I6
I6
tp418
a(I5
I6
tp419
a(I2
I8
tp420
a(I3
I7
tp421
a(I0
I3
tp422
a(I8
I5
tp423
a(I5
I8
tp424
a(I6
I7
tp425
a(I5
I5
tp426
a(I4
I4
tp427
a(I1
I5
tp428
a(I5
I0
tp429
a(I3
I5
tp430
a(I2
I6
tp431
a(I3
I6
tp432
a(I4
I5
tp433
a(I0
I5
tp434
a(I0
I8
tp435
a(I3
I3
tp436
a(I2
I7
tp437
a(I5
I3
tp438
a(I4
I6
tp439
a(I3
I4
tp440
a(I1
I8
tp441
ag412
a(I1
I7
tp442
a(I7
I8
tp443
atp444
Rp445
sg198
I9
sg238
g20
((lp446
(I7
I0
tp447
a(I7
I1
tp448
a(I1
I4
tp449
a(I7
I4
tp450
a(I2
I0
tp451
a(I6
I2
tp452
a(I8
I7
tp453
atp454
Rp455
sg203
((I2
I1
tp456
(I2
I3
tp457
(I5
I7
tp458
tp459
sg204
I9
sbssS'name'
p460
S'mild_roomset'
p461
sbsg151
g152
sg153
(dp462
g196
((lp463
F40.069999999999709
tp464
sg256
((lp465
(F4.930000000000291
I127
tp466
aF40.009999999994761
tp467
sg306
((lp468
(F0.27999999999883585
I12
tp469
aF40.010000000002037
tp470
sg354
((lp471
(F3.3099999999976717
I64
tp472
aF40.059999999997672
tp473
sg410
((lp474
(F0.10000000000582077
I26
tp475
a(F0.18000000000029104
I25
tp476
aF40.0
tp477
ssba(imeasure_core
ProblemSetSolution
p478
(dp479
g3
(imeasure_core
RoomSet
p480
(dp481
S'rooms'
p482
(dp483
(iproblems
RoomID
p484
(dp485
S'width'
p486
I12
sS'dusts'
p487
I12
sS'seed'
p488
I1486246605650367638
sS'obstacles'
p489
(I6
I3
tp490
sS'robots'
p491
I5
sS'height'
p492
I10
sb(imulti_robot_problem
MultiRobotState
p493
(dp494
S'obstacle_locations'
p495
g20
((lp496
(I2
I7
tp497
a(I5
I9
tp498
a(I1
I3
tp499
a(I3
I1
tp500
a(I7
I1
tp501
a(I5
I2
tp502
a(I1
I2
tp503
a(I1
I4
tp504
ag490
a(I1
I5
tp505
a(I6
I2
tp506
a(I1
I6
tp507
a(I2
I1
tp508
a(I10
I0
tp509
a(I2
I0
tp510
a(I0
I3
tp511
a(I4
I1
tp512
a(I1
I1
tp513
a(I6
I5
tp514
a(I8
I4
tp515
atp516
Rp517
sg486
I12
sS'dirt_locations'
p518
g20
((lp519
(I11
I7
tp520
a(I11
I4
tp521
a(I9
I1
tp522
a(I11
I8
tp523
a(I2
I8
tp524
a(I6
I0
tp525
a(I0
I6
tp526
a(I11
I1
tp527
a(I0
I4
tp528
a(I4
I9
tp529
a(I10
I9
tp530
a(I9
I7
tp531
atp532
Rp533
sg491
((I2
I4
tp534
(I10
I1
tp535
(I2
I5
tp536
(I9
I8
tp537
(I6
I6
tp538
tp539
sg492
I10
sbs(iproblems
RoomID
p540
(dp541
g486
I13
sg487
I14
sg488
I679259829289197625
sg489
(I7
I6
tp542
sg491
I7
sg492
I13
sb(imulti_robot_problem
MultiRobotState
p543
(dp544
g495
g20
((lp545
(I1
I2
tp546
a(I6
I4
tp547
a(I4
I3
tp548
a(I4
I8
tp549
a(I10
I7
tp550
a(I3
I4
tp551
a(I12
I7
tp552
a(I10
I6
tp553
a(I11
I7
tp554
a(I6
I3
tp555
a(I7
I5
tp556
a(I12
I11
tp557
a(I6
I2
tp558
a(I9
I6
tp559
ag542
a(I12
I8
tp560
atp561
Rp562
sg486
I13
sg518
g20
((lp563
(I2
I7
tp564
a(I12
I1
tp565
a(I9
I2
tp566
a(I2
I8
tp567
a(I5
I7
tp568
a(I1
I4
tp569
a(I0
I12
tp570
a(I7
I4
tp571
a(I11
I4
tp572
a(I11
I6
tp573
a(I4
I2
tp574
a(I10
I0
tp575
a(I10
I9
tp576
a(I1
I9
tp577
atp578
Rp579
sg491
((I9
I11
tp580
(I9
I10
tp581
(I4
I7
tp582
(I4
I12
tp583
(I7
I1
tp584
(I1
I8
tp585
(I1
I6
tp586
tp587
sg492
I13
sbs(iproblems
RoomID
p588
(dp589
g486
I12
sg487
I10
sg488
I2685440357799139976
sg489
(I6
I9
tp590
sg491
I5
sg492
I12
sb(imulti_robot_problem
MultiRobotState
p591
(dp592
g495
g20
((lp593
g590
a(I9
I1
tp594
a(I3
I0
tp595
a(I0
I7
tp596
a(I0
I3
tp597
a(I4
I0
tp598
a(I1
I2
tp599
a(I11
I10
tp600
a(I6
I10
tp601
a(I5
I6
tp602
a(I9
I11
tp603
a(I7
I9
tp604
a(I4
I10
tp605
a(I5
I11
tp606
a(I4
I5
tp607
a(I1
I4
tp608
a(I3
I9
tp609
a(I0
I5
tp610
a(I1
I9
tp611
a(I3
I5
tp612
a(I3
I4
tp613
a(I2
I4
tp614
atp615
Rp616
sg486
I12
sg518
g20
((lp617
(I11
I7
tp618
a(I8
I3
tp619
a(I10
I11
tp620
a(I7
I1
tp621
a(I10
I5
tp622
a(I8
I10
tp623
a(I6
I3
tp624
a(I3
I6
tp625
a(I9
I10
tp626
a(I6
I5
tp627
atp628
Rp629
sg491
((I7
I7
tp630
(I0
I0
tp631
(I11
I9
tp632
(I0
I2
tp633
(I4
I1
tp634
tp635
sg492
I12
sbs(iproblems
RoomID
p636
(dp637
g486
I12
sg487
I11
sg488
I5891625650498269233
sg489
(I11
I9
tp638
sg491
I7
sg492
I12
sb(imulti_robot_problem
MultiRobotState
p639
(dp640
g495
g20
((lp641
g638
a(I6
I7
tp642
a(I4
I8
tp643
a(I5
I6
tp644
a(I6
I11
tp645
a(I8
I11
tp646
a(I4
I4
tp647
a(I2
I11
tp648
a(I7
I7
tp649
a(I7
I1
tp650
a(I9
I10
tp651
a(I10
I7
tp652
a(I3
I9
tp653
a(I1
I9
tp654
a(I7
I10
tp655
a(I5
I7
tp656
a(I9
I11
tp657
a(I7
I6
tp658
a(I10
I9
tp659
atp660
Rp661
sg486
I12
sg518
g20
((lp662
(I11
I7
tp663
a(I11
I4
tp664
a(I4
I6
tp665
a(I5
I11
tp666
a(I8
I10
tp667
a(I0
I5
tp668
a(I8
I7
tp669
a(I1
I7
tp670
a(I10
I1
tp671
a(I1
I1
tp672
a(I5
I5
tp673
atp674
Rp675
sg491
((I6
I8
tp676
(I9
I2
tp677
(I0
I6
tp678
(I10
I3
tp679
(I9
I5
tp680
(I5
I0
tp681
(I9
I8
tp682
tp683
sg492
I12
sbs(iproblems
RoomID
p684
(dp685
g486
I13
sg487
I11
sg488
I403795515464475257
sg489
(I2
I7
tp686
sg491
I6
sg492
I11
sb(imulti_robot_problem
MultiRobotState
p687
(dp688
g495
g20
((lp689
g686
a(I10
I8
tp690
a(I3
I10
tp691
a(I4
I4
tp692
a(I2
I2
tp693
a(I1
I4
tp694
a(I12
I5
tp695
a(I0
I6
tp696
a(I0
I5
tp697
a(I3
I6
tp698
a(I1
I7
tp699
a(I0
I8
tp700
a(I7
I9
tp701
atp702
Rp703
sg486
I13
sg518
g20
((lp704
(I6
I4
tp705
a(I0
I0
tp706
a(I2
I9
tp707
a(I11
I5
tp708
a(I8
I9
tp709
a(I11
I1
tp710
a(I2
I3
tp711
a(I1
I10
tp712
a(I12
I2
tp713
a(I0
I3
tp714
a(I5
I2
tp715
atp716
Rp717
sg491
((I10
I3
tp718
(I7
I2
tp719
(I7
I0
tp720
(I3
I1
tp721
(I5
I10
tp722
(I9
I4
tp723
tp724
sg492
I11
sbssS'name'
p725
S'heavy_roomset'
p726
sbsg151
g152
sg153
(dp727
g484
((lp728
(F32.269999999996799
I113
tp729
aF40.010000000002037
tp730
sg540
((lp731
F42.029999999998836
tp732
sg588
((lp733
(F3.180000000000291
I58
tp734
aF40.05000000000291
tp735
sg636
((lp736
F41.729999999995925
tp737
sg684
((lp738
(F22.19999999999709
I19
tp739
aF40.25
tp740
ssba(imeasure_core
ProblemSetSolution
p741
(dp742
g3
g4
sg151
S"AnytimeBeam-w15-gf(1.3, 'exp')_with_PowerHeuristic2"
p743
sg153
(dp744
g8
((lp745
(F0.090000000003783498
I45
tp746
a(F2.2900000000008731
I44
tp747
a(F2.9000000000014552
I37
tp748
a(F3.4899999999979627
I36
tp749
a(F4.1100000000005821
I34
tp750
a(F6.1699999999982538
I33
tp751
a(F8.3799999999973807
I31
tp752
a(F11.319999999999709
I30
tp753
a(F14.5
I28
tp754
a(F16.879999999997381
I26
tp755
a(F21.889999999999418
I25
tp756
a(F28.30000000000291
I24
tp757
aF40.0
tp758
sg41
((lp759
(F0.73999999999796273
I20
tp760
aF40.040000000000873
tp761
sg70
((lp762
(F6.0899999999965075
I134
tp763
aF40.010000000002037
tp764
sg98
((lp765
(F0.39999999999417923
I8
tp766
aF40.049999999995634
tp767
sg123
((lp768
(F0.060000000004947651
I41
tp769
a(F2.1399999999994179
I35
tp770
a(F3.2700000000040745
I33
tp771
a(F4.5200000000040745
I31
tp772
a(F5.8300000000017462
I29
tp773
a(F8.1500000000014552
I27
tp774
a(F11.380000000004657
I25
tp775
a(F14.130000000004657
I23
tp776
aF40.0
tp777
ssba(imeasure_core
ProblemSetSolution
p778
(dp779
g3
g192
sg151
g743
sg153
(dp780
g196
((lp781
F40.040000000000873
tp782
sg256
((lp783
(F3.2600000000020373
I127
tp784
aF40.020000000004075
tp785
sg306
((lp786
(F0.36999999999534339
I12
tp787
aF40.0
tp788
sg354
((lp789
(F2.2299999999959255
I64
tp790
aF40.129999999997381
tp791
sg410
((lp792
(F0.099999999998544808
I25
tp793
aF40.010000000002037
tp794
ssba(imeasure_core
ProblemSetSolution
p795
(dp796
g3
g480
sg151
g743
sg153
(dp797
g484
((lp798
(F15.160000000003492
I113
tp799
aF40.040000000000873
tp800
sg540
((lp801
F41.760000000002037
tp802
sg588
((lp803
(F4.3099999999976717
I58
tp804
aF40.0
tp805
sg636
((lp806
F41.629999999997381
tp807
sg684
((lp808
(F23.120000000002619
I19
tp809
aF40.100000000005821
tp810
ssba(imeasure_core
ProblemSetSolution
p811
(dp812
g3
g4
sg151
S"AnytimeBeam-w25-gf(1.3, 'exp')_with_PowerHeuristic2"
p813
sg153
(dp814
g8
((lp815
(F0.11999999999534339
I45
tp816
a(F1.7999999999956344
I44
tp817
a(F2.4099999999962165
I39
tp818
a(F2.7299999999959255
I37
tp819
a(F3.3299999999944703
I36
tp820
a(F3.9599999999991269
I34
tp821
a(F6.0099999999947613
I33
tp822
a(F8.2199999999938882
I31
tp823
a(F11.139999999999418
I30
tp824
a(F14.299999999995634
I28
tp825
a(F16.69999999999709
I26
tp826
a(F21.669999999998254
I25
tp827
a(F28.109999999993306
I24
tp828
aF40.0
tp829
sg41
((lp830
(F0.81999999999970896
I20
tp831
aF40.169999999998254
tp832
sg70
((lp833
(F7.1399999999994179
I134
tp834
aF40.010000000002037
tp835
sg98
((lp836
(F0.42999999999301508
I8
tp837
aF40.119999999995343
tp838
sg123
((lp839
(F0.12000000000261934
I47
tp840
a(F3.3600000000005821
I45
tp841
a(F4.3899999999994179
I43
tp842
a(F5.3700000000026193
I35
tp843
a(F6.5
I33
tp844
a(F7.7700000000040745
I31
tp845
a(F9.069999999999709
I29
tp846
a(F11.380000000004657
I27
tp847
a(F14.580000000001746
I25
tp848
a(F17.30000000000291
I23
tp849
aF40.0
tp850
ssba(imeasure_core
ProblemSetSolution
p851
(dp852
g3
g192
sg151
g813
sg153
(dp853
g196
((lp854
F40.069999999999709
tp855
sg256
((lp856
(F3.7799999999988358
I127
tp857
aF40.040000000000873
tp858
sg306
((lp859
(F0.43000000000029104
I12
tp860
aF40.05000000000291
tp861
sg354
((lp862
(F2.5
I64
tp863
aF40.110000000000582
tp864
sg410
((lp865
(F0.11999999999534339
I25
tp866
aF40.0
tp867
ssba(imeasure_core
ProblemSetSolution
p868
(dp869
g3
g480
sg151
g813
sg153
(dp870
g484
((lp871
(F16.279999999998836
I113
tp872
aF40.040000000000873
tp873
sg540
((lp874
F41.860000000000582
tp875
sg588
((lp876
(F4.6500000000014552
I58
tp877
aF40.010000000002037
tp878
sg636
((lp879
F41.669999999998254
tp880
sg684
((lp881
(F23.30000000000291
I19
tp882
aF40.330000000001746
tp883
ssba(imeasure_core
ProblemSetSolution
p884
(dp885
g3
g4
sg151
S"AnytimeBeam-w35-gf(1.3, 'exp')_with_PowerHeuristic2"
p886
sg153
(dp887
g8
((lp888
(F0.1599999999962165
I45
tp889
a(F1.5899999999965075
I44
tp890
a(F2.2099999999991269
I37
tp891
a(F2.8099999999976717
I36
tp892
a(F3.430000000000291
I34
tp893
a(F5.5
I33
tp894
a(F7.7199999999938882
I31
tp895
a(F10.659999999996217
I30
tp896
a(F13.819999999999709
I28
tp897
a(F16.229999999995925
I26
tp898
a(F21.19999999999709
I25
tp899
a(F27.609999999993306
I24
tp900
aF40.0
tp901
sg41
((lp902
(F0.91999999999825377
I20
tp903
aF40.059999999997672
tp904
sg70
((lp905
(F7.8700000000026193
I134
tp906
aF40.019999999996799
tp907
sg98
((lp908
(F0.45999999999912689
I8
tp909
aF40.319999999999709
tp910
sg123
((lp911
(F0.13000000000465661
I47
tp912
a(F2.4700000000011642
I45
tp913
a(F3.4900000000052387
I43
tp914
a(F4.4700000000011642
I35
tp915
a(F5.6000000000058208
I33
tp916
a(F6.8600000000005821
I31
tp917
a(F8.1600000000034925
I29
tp918
a(F10.480000000003201
I27
tp919
a(F13.680000000000291
I25
tp920
a(F16.400000000001455
I23
tp921
aF40.0
tp922
ssba(imeasure_core
ProblemSetSolution
p923
(dp924
g3
g192
sg151
g886
sg153
(dp925
g196
((lp926
F40.150000000001455
tp927
sg256
((lp928
(F4.1600000000034925
I127
tp929
aF40.040000000000873
tp930
sg306
((lp931
(F0.51000000000203727
I12
tp932
aF40.190000000002328
tp933
sg354
((lp934
(F2.75
I64
tp935
aF40.220000000001164
tp936
sg410
((lp937
(F0.11999999999534339
I25
tp938
aF40.019999999996799
tp939
ssba(imeasure_core
ProblemSetSolution
p940
(dp941
g3
g480
sg151
g886
sg153
(dp942
g484
((lp943
(F17.119999999995343
I113
tp944
aF40.269999999996799
tp945
sg540
((lp946
F41.809999999997672
tp947
sg588
((lp948
(F5.1500000000014552
I58
tp949
aF40.05000000000291
tp950
sg636
((lp951
F41.809999999997672
tp952
sg684
((lp953
(F23.75
I19
tp954
aF40.770000000004075
tp955
ssba(imeasure_core
ProblemSetSolution
p956
(dp957
g3
g4
sg151
S"AnytimeBeam-w45-gf(1.3, 'exp')_with_PowerHeuristic2"
p958
sg153
(dp959
g8
((lp960
(F0.14999999999417923
I45
tp961
a(F1.2299999999959255
I44
tp962
a(F1.8399999999965075
I37
tp963
a(F2.4399999999950523
I36
tp964
a(F3.0599999999976717
I34
tp965
a(F5.1199999999953434
I33
tp966
a(F7.3299999999944703
I31
tp967
a(F10.259999999994761
I30
tp968
a(F13.409999999996217
I28
tp969
a(F15.819999999999709
I26
tp970
a(F20.799999999995634
I25
tp971
a(F27.19999999999709
I24
tp972
aF40.0
tp973
sg41
((lp974
(F1.0099999999947613
I20
tp975
aF40.0
tp976
sg70
((lp977
(F8.430000000000291
I134
tp978
aF40.0
tp979
sg98
((lp980
(F0.50999999999476131
I8
tp981
aF40.289999999993597
tp982
sg123
((lp983
(F0.14000000000669388
I47
tp984
a(F2.1100000000005821
I45
tp985
a(F3.1100000000005821
I43
tp986
a(F4.0900000000037835
I35
tp987
a(F5.2100000000064028
I33
tp988
a(F6.4700000000011642
I31
tp989
a(F7.7700000000040745
I29
tp990
a(F10.090000000003783
I27
tp991
a(F13.290000000000873
I25
tp992
a(F16.010000000002037
I23
tp993
aF40.0
tp994
ssba(imeasure_core
ProblemSetSolution
p995
(dp996
g3
g192
sg151
g958
sg153
(dp997
g196
((lp998
F40.100000000005821
tp999
sg256
((lp1000
(F4.4799999999959255
I127
tp1001
aF40.110000000000582
tp1002
sg306
((lp1003
(F0.56999999999970896
I12
tp1004
aF40.049999999995634
tp1005
sg354
((lp1006
(F2.9500000000043656
I64
tp1007
aF40.05000000000291
tp1008
sg410
((lp1009
(F0.11999999999534339
I25
tp1010
aF40.019999999996799
tp1011
ssba(imeasure_core
ProblemSetSolution
p1012
(dp1013
g3
g480
sg151
g958
sg153
(dp1014
g484
((lp1015
(F17.669999999998254
I113
tp1016
aF40.220000000001164
tp1017
sg540
((lp1018
F42.19999999999709
tp1019
sg588
((lp1020
(F5.4400000000023283
I58
tp1021
aF40.020000000004075
tp1022
sg636
((lp1023
F41.82999999999447
tp1024
sg684
((lp1025
(F23.950000000004366
I19
tp1026
aF41.090000000003783
tp1027
ssba(imeasure_core
ProblemSetSolution
p1028
(dp1029
g3
g4
sg151
S"AnytimeBeam-w5-gf(1.3, 'exp')_with_LinearHeuristic"
p1030
sg153
(dp1031
g8
((lp1032
(F0.010000000002037268
I24
tp1033
aF40.0
tp1034
sg41
((lp1035
F40.0
tp1036
sg70
((lp1037
F40.089999999996508
tp1038
sg98
((lp1039
(F0.18000000000029104
I4
tp1040
aF40.040000000000873
tp1041
sg123
((lp1042
(F0.020000000004074536
I23
tp1043
aF40.0
tp1044
ssba(imeasure_core
ProblemSetSolution
p1045
(dp1046
g3
g192
sg151
g1030
sg153
(dp1047
g196
((lp1048
F40.029999999998836
tp1049
sg256
((lp1050
(F20.530000000006112
I326
tp1051
aF40.110000000000582
tp1052
sg306
((lp1053
F40.080000000001746
tp1054
sg354
((lp1055
F40.010000000002037
tp1056
sg410
((lp1057
(F1.3099999999976717
I60
tp1058
aF40.0
tp1059
ssba(imeasure_core
ProblemSetSolution
p1060
(dp1061
g3
g480
sg151
g1030
sg153
(dp1062
g484
((lp1063
F40.17000000000553
tp1064
sg540
((lp1065
F42.989999999997963
tp1066
sg588
((lp1067
F40.120000000002619
tp1068
sg636
((lp1069
F45.790000000000873
tp1070
sg684
((lp1071
(F15.349999999998545
I10
tp1072
aF41.439999999995052
tp1073
ssba(imeasure_core
ProblemSetSolution
p1074
(dp1075
g3
g4
sg151
S"AnytimeBeam-w15-gf(1.3, 'exp')_with_LinearHeuristic"
p1076
sg153
(dp1077
g8
((lp1078
(F0.010000000002037268
I24
tp1079
aF40.0
tp1080
sg41
((lp1081
F40.069999999999709
tp1082
sg70
((lp1083
F40.019999999996799
tp1084
sg98
((lp1085
(F0.33000000000174623
I4
tp1086
aF40.220000000001164
tp1087
sg123
((lp1088
(F0.020000000004074536
I23
tp1089
aF40.0
tp1090
ssba(imeasure_core
ProblemSetSolution
p1091
(dp1092
g3
g192
sg151
g1076
sg153
(dp1093
g196
((lp1094
F40.029999999998836
tp1095
sg256
((lp1096
(F19.790000000000873
I326
tp1097
aF40.069999999999709
tp1098
sg306
((lp1099
F40.060000000004948
tp1100
sg354
((lp1101
F40.180000000000291
tp1102
sg410
((lp1103
(F0.55999999999767169
I60
tp1104
aF40.029999999998836
tp1105
ssba(imeasure_core
ProblemSetSolution
p1106
(dp1107
g3
g480
sg151
g1076
sg153
(dp1108
g484
((lp1109
F40.209999999999127
tp1110
sg540
((lp1111
F43.709999999999127
tp1112
sg588
((lp1113
F40.029999999998836
tp1114
sg636
((lp1115
F46.160000000003492
tp1116
sg684
((lp1117
(F16.319999999999709
I10
tp1118
aF40.860000000000582
tp1119
ssba(imeasure_core
ProblemSetSolution
p1120
(dp1121
g3
g4
sg151
S"AnytimeBeam-w25-gf(1.3, 'exp')_with_LinearHeuristic"
p1122
sg153
(dp1123
g8
((lp1124
(F0.0
I24
tp1125
aF40.0
tp1126
sg41
((lp1127
F40.040000000000873
tp1128
sg70
((lp1129
F40.270000000004075
tp1130
sg98
((lp1131
(F0.37999999999738066
I4
tp1132
aF40.069999999999709
tp1133
sg123
((lp1134
(F0.019999999996798579
I23
tp1135
aF40.0
tp1136
ssba(imeasure_core
ProblemSetSolution
p1137
(dp1138
g3
g192
sg151
g1122
sg153
(dp1139
g196
((lp1140
F40.059999999997672
tp1141
sg256
((lp1142
(F32.739999999997963
I391
tp1143
aF40.090000000003783
tp1144
sg306
((lp1145
F40.32999999999447
tp1146
sg354
((lp1147
F40.020000000004075
tp1148
sg410
((lp1149
(F7.0100000000020373
I177
tp1150
a(F31.099999999998545
I175
tp1151
aF40.0
tp1152
ssba(imeasure_core
ProblemSetSolution
p1153
(dp1154
g3
g480
sg151
g1122
sg153
(dp1155
g484
((lp1156
F40.359999999993306
tp1157
sg540
((lp1158
F43.960000000006403
tp1159
sg588
((lp1160
F40.359999999993306
tp1161
sg636
((lp1162
F46.05000000000291
tp1163
sg684
((lp1164
(F16.590000000003783
I10
tp1165
aF40.650000000001455
tp1166
ssba(imeasure_core
ProblemSetSolution
p1167
(dp1168
g3
g4
sg151
S"AnytimeBeam-w35-gf(1.3, 'exp')_with_LinearHeuristic"
p1169
sg153
(dp1170
g8
((lp1171
(F0.0099999999947613105
I24
tp1172
aF40.0
tp1173
sg41
((lp1174
F40.339999999996508
tp1175
sg70
((lp1176
F40.309999999997672
tp1177
sg98
((lp1178
(F0.44000000000232831
I4
tp1179
aF40.200000000004366
tp1180
sg123
((lp1181
(F0.019999999996798579
I23
tp1182
aF40.0
tp1183
ssba(imeasure_core
ProblemSetSolution
p1184
(dp1185
g3
g192
sg151
g1169
sg153
(dp1186
g196
((lp1187
F40.129999999997381
tp1188
sg256
((lp1189
(F36.080000000001746
I391
tp1190
aF40.010000000002037
tp1191
sg306
((lp1192
F40.019999999996799
tp1193
sg354
((lp1194
F40.100000000005821
tp1195
sg410
((lp1196
(F9.4099999999962165
I177
tp1197
a(F23.099999999998545
I175
tp1198
aF40.029999999998836
tp1199
ssba(imeasure_core
ProblemSetSolution
p1200
(dp1201
g3
g480
sg151
g1169
sg153
(dp1202
g484
((lp1203
F40.110000000000582
tp1204
sg540
((lp1205
F44.589999999996508
tp1206
sg588
((lp1207
F40.139999999999418
tp1208
sg636
((lp1209
F46.5
tp1210
sg684
((lp1211
(F17.120000000002619
I10
tp1212
aF40.099999999998545
tp1213
ssba(imeasure_core
ProblemSetSolution
p1214
(dp1215
g3
g4
sg151
S"AnytimeBeam-w45-gf(1.3, 'exp')_with_LinearHeuristic"
p1216
sg153
(dp1217
g8
((lp1218
(F0.010000000002037268
I24
tp1219
aF40.0
tp1220
sg41
((lp1221
F40.370000000002619
tp1222
sg70
((lp1223
F40.239999999997963
tp1224
sg98
((lp1225
(F0.45999999999912689
I4
tp1226
aF40.120000000002619
tp1227
sg123
((lp1228
(F0.019999999996798579
I23
tp1229
aF40.0
tp1230
ssba(imeasure_core
ProblemSetSolution
p1231
(dp1232
g3
g192
sg151
g1216
sg153
(dp1233
g196
((lp1234
F40.049999999995634
tp1235
sg256
((lp1236
(F37.470000000001164
I391
tp1237
aF40.0
tp1238
sg306
((lp1239
F40.190000000002328
tp1240
sg354
((lp1241
F40.239999999997963
tp1242
sg410
((lp1243
(F10.669999999998254
I177
tp1244
a(F25.400000000001455
I175
tp1245
aF40.090000000003783
tp1246
ssba(imeasure_core
ProblemSetSolution
p1247
(dp1248
g3
g480
sg151
g1216
sg153
(dp1249
g484
((lp1250
F40.180000000000291
tp1251
sg540
((lp1252
F44.799999999995634
tp1253
sg588
((lp1254
F40.0
tp1255
sg636
((lp1256
F46.529999999998836
tp1257
sg684
((lp1258
(F17.280000000006112
I10
tp1259
aF40.55000000000291
tp1260
ssba.