(lp0
(imeasure_core
ProblemSetSolution
p1
(dp2
S'roomset'
p3
(imeasure_core
RoomSet
p4
(dp5
S'rooms'
p6
(dp7
(iproblems
RoomID
p8
(dp9
S'width'
p10
I10
sS'dusts'
p11
I8
sS'seed'
p12
I5594871498841892311
sS'obstacles'
p13
(I5
I7
tp14
sS'robots'
p15
I5
sS'height'
p16
I9
sb(imulti_robot_problem
MultiRobotState
p17
(dp18
S'obstacle_locations'
p19
c__builtin__
frozenset
p20
((lp21
(I4
I7
tp22
ag14
a(I8
I3
tp23
a(I3
I6
tp24
a(I5
I1
tp25
a(I1
I0
tp26
a(I5
I8
tp27
atp28
Rp29
sg10
I10
sS'dirt_locations'
p30
g20
((lp31
(I0
I1
tp32
a(I9
I0
tp33
a(I8
I2
tp34
a(I6
I0
tp35
a(I2
I4
tp36
a(I1
I5
tp37
a(I9
I4
tp38
a(I1
I1
tp39
atp40
Rp41
sg15
((I7
I6
tp42
(I8
I4
tp43
(I5
I4
tp44
(I7
I2
tp45
(I7
I8
tp46
tp47
sg16
I9
sbs(iproblems
RoomID
p48
(dp49
g10
I8
sg11
I6
sg12
I8833747186876682921
sg13
(I4
I4
tp50
sg15
I5
sg16
I7
sb(imulti_robot_problem
MultiRobotState
p51
(dp52
g19
g20
((lp53
g50
a(I3
I4
tp54
a(I3
I3
tp55
a(I3
I5
tp56
a(I2
I2
tp57
atp58
Rp59
sg10
I8
sg30
g20
((lp60
(I6
I4
tp61
a(I5
I4
tp62
a(I1
I3
tp63
a(I5
I1
tp64
a(I0
I3
tp65
a(I5
I3
tp66
atp67
Rp68
sg15
((I2
I1
tp69
(I6
I1
tp70
(I3
I1
tp71
(I5
I0
tp72
(I7
I3
tp73
tp74
sg16
I7
sbs(iproblems
RoomID
p75
(dp76
g10
I9
sg11
I7
sg12
I365562409358139953
sg13
(I5
I2
tp77
sg15
I5
sg16
I8
sb(imulti_robot_problem
MultiRobotState
p78
(dp79
g19
g20
((lp80
(I6
I4
tp81
a(I5
I5
tp82
a(I2
I1
tp83
a(I3
I7
tp84
a(I2
I5
tp85
ag77
a(I0
I2
tp86
a(I5
I3
tp87
atp88
Rp89
sg10
I9
sg30
g20
((lp90
(I8
I2
tp91
a(I4
I5
tp92
a(I5
I7
tp93
a(I2
I0
tp94
a(I1
I6
tp95
a(I8
I6
tp96
a(I3
I4
tp97
atp98
Rp99
sg15
((I4
I2
tp100
(I8
I3
tp101
(I6
I3
tp102
(I2
I4
tp103
(I6
I7
tp104
tp105
sg16
I8
sbs(iproblems
RoomID
p106
(dp107
g10
I10
sg11
I5
sg12
I1662056218554549082
sg13
(I6
I4
tp108
sg15
I2
sg16
I8
sb(imulti_robot_problem
MultiRobotState
p109
(dp110
g19
g20
((lp111
g108
a(I4
I6
tp112
a(I4
I4
tp113
a(I3
I6
tp114
a(I9
I6
tp115
a(I5
I5
tp116
atp117
Rp118
sg10
I10
sg30
g20
((lp119
(I4
I5
tp120
a(I3
I3
tp121
a(I8
I3
tp122
a(I7
I7
tp123
a(I8
I4
tp124
atp125
Rp126
sg15
((I9
I3
tp127
(I2
I0
tp128
tp129
sg16
I8
sbs(iproblems
RoomID
p130
(dp131
g10
I8
sg11
I6
sg12
I1085536589165212248
sg13
(I2
I3
tp132
sg15
I1
sg16
I8
sb(imulti_robot_problem
MultiRobotState
p133
(dp134
g19
g20
((lp135
(I0
I7
tp136
a(I1
I5
tp137
ag132
a(I1
I4
tp138
a(I1
I6
tp139
a(I4
I0
tp140
atp141
Rp142
sg10
I8
sg30
g20
((lp143
(I0
I1
tp144
a(I1
I2
tp145
a(I7
I3
tp146
a(I6
I0
tp147
a(I2
I1
tp148
a(I5
I1
tp149
atp150
Rp151
sg15
((I3
I2
tp152
tp153
sg16
I8
sbssS'name'
p154
S'easy_roomset'
p155
sbsS'name'
p156
S'AnytimeBest-d10_with_PowerHeuristic2'
p157
sS'solutions'
p158
(dp159
g8
((lp160
F40.059999999997672
tp161
sg48
((lp162
(F0.59000000000014552
I4
tp163
aF40.030000000002474
tp164
sg75
((lp165
F40.090000000000146
tp166
sg106
((lp167
(F0.0099999999983992893
I7
tp168
aF40.0
tp169
sg130
((lp170
F0.41999999999825377
tp171
ssba(imeasure_core
ProblemSetSolution
p172
(dp173
g3
(imeasure_core
RoomSet
p174
(dp175
S'rooms'
p176
(dp177
(iproblems
RoomID
p178
(dp179
S'width'
p180
I12
sS'dusts'
p181
I8
sS'seed'
p182
I5594871498841892311
sS'obstacles'
p183
(I9
I3
tp184
sS'robots'
p185
I4
sS'height'
p186
I11
sb(imulti_robot_problem
MultiRobotState
p187
(dp188
S'obstacle_locations'
p189
g20
((lp190
(I5
I9
tp191
a(I6
I9
tp192
a(I9
I1
tp193
a(I4
I8
tp194
a(I8
I0
tp195
a(I9
I4
tp196
a(I3
I7
tp197
a(I5
I8
tp198
a(I10
I8
tp199
a(I9
I0
tp200
a(I8
I10
tp201
a(I5
I0
tp202
a(I10
I0
tp203
ag184
a(I11
I9
tp204
a(I6
I0
tp205
a(I4
I2
tp206
a(I7
I9
tp207
a(I7
I0
tp208
a(I6
I8
tp209
a(I9
I2
tp210
a(I5
I7
tp211
a(I9
I9
tp212
a(I2
I0
tp213
a(I0
I9
tp214
a(I10
I2
tp215
atp216
Rp217
sg180
I12
sS'dirt_locations'
p218
g20
((lp219
(I2
I6
tp220
a(I11
I5
tp221
a(I6
I1
tp222
a(I11
I1
tp223
a(I2
I1
tp224
a(I8
I8
tp225
a(I0
I2
tp226
a(I3
I5
tp227
atp228
Rp229
sg185
((I9
I7
tp230
(I10
I5
tp231
(I6
I5
tp232
(I8
I3
tp233
tp234
sg186
I11
sbs(iproblems
RoomID
p235
(dp236
g180
I10
sg181
I6
sg182
I8833747186876682921
sg183
(I9
I4
tp237
sg185
I4
sg186
I9
sb(imulti_robot_problem
MultiRobotState
p238
(dp239
g189
g20
((lp240
(I2
I7
tp241
a(I4
I7
tp242
a(I5
I5
tp243
a(I4
I8
tp244
a(I4
I5
tp245
a(I4
I1
tp246
a(I3
I6
tp247
a(I8
I3
tp248
a(I2
I1
tp249
a(I8
I8
tp250
a(I7
I4
tp251
a(I5
I6
tp252
a(I7
I5
tp253
a(I2
I3
tp254
ag237
a(I2
I5
tp255
a(I3
I4
tp256
a(I1
I1
tp257
a(I6
I5
tp258
a(I3
I5
tp259
atp260
Rp261
sg180
I10
sg218
g20
((lp262
(I3
I2
tp263
a(I7
I0
tp264
a(I0
I7
tp265
a(I6
I2
tp266
a(I1
I4
tp267
a(I0
I4
tp268
atp269
Rp270
sg185
((I3
I1
tp271
(I8
I1
tp272
(I3
I3
tp273
(I4
I2
tp274
tp275
sg186
I9
sbs(iproblems
RoomID
p276
(dp277
g180
I12
sg181
I8
sg182
I4800841617172907184
sg183
(I4
I6
tp278
sg185
I3
sg186
I9
sb(imulti_robot_problem
MultiRobotState
p279
(dp280
g189
g20
((lp281
(I10
I1
tp282
a(I6
I6
tp283
a(I9
I8
tp284
a(I2
I1
tp285
a(I8
I5
tp286
a(I7
I2
tp287
a(I3
I3
tp288
a(I6
I3
tp289
a(I8
I6
tp290
a(I9
I7
tp291
a(I5
I4
tp292
a(I7
I1
tp293
a(I4
I5
tp294
a(I9
I3
tp295
a(I6
I0
tp296
a(I8
I7
tp297
a(I4
I2
tp298
a(I5
I3
tp299
a(I8
I3
tp300
ag278
a(I11
I8
tp301
a(I3
I1
tp302
a(I11
I3
tp303
a(I0
I6
tp304
a(I4
I3
tp305
a(I8
I4
tp306
atp307
Rp308
sg180
I12
sg218
g20
((lp309
(I11
I4
tp310
a(I8
I2
tp311
a(I10
I7
tp312
a(I7
I6
tp313
a(I1
I4
tp314
a(I11
I0
tp315
a(I9
I2
tp316
a(I0
I2
tp317
atp318
Rp319
sg185
((I9
I1
tp320
(I0
I4
tp321
(I7
I4
tp322
tp323
sg186
I9
sbs(iproblems
RoomID
p324
(dp325
g180
I11
sg181
I7
sg182
I365562409358139953
sg183
(I8
I4
tp326
sg185
I4
sg186
I10
sb(imulti_robot_problem
MultiRobotState
p327
(dp328
g189
g20
((lp329
(I5
I9
tp330
a(I7
I3
tp331
a(I2
I8
tp332
a(I6
I2
tp333
a(I1
I6
tp334
a(I9
I4
tp335
a(I10
I8
tp336
a(I6
I7
tp337
a(I10
I7
tp338
a(I7
I6
tp339
a(I4
I8
tp340
a(I8
I6
tp341
a(I9
I7
tp342
a(I6
I4
tp343
a(I7
I5
tp344
a(I0
I5
tp345
a(I8
I7
tp346
a(I9
I6
tp347
a(I6
I5
tp348
a(I10
I5
tp349
a(I6
I1
tp350
a(I3
I1
tp351
a(I3
I8
tp352
a(I5
I2
tp353
ag326
atp354
Rp355
sg180
I11
sg218
g20
((lp356
(I6
I9
tp357
a(I5
I6
tp358
a(I2
I1
tp359
a(I4
I5
tp360
a(I1
I7
tp361
a(I10
I3
tp362
a(I0
I2
tp363
atp364
Rp365
sg185
((I10
I4
tp366
(I7
I4
tp367
(I3
I6
tp368
(I8
I9
tp369
tp370
sg186
I10
sbs(iproblems
RoomID
p371
(dp372
g180
I9
sg181
I10
sg182
I6645345695289302126
sg183
(I4
I8
tp373
sg185
I3
sg186
I11
sb(imulti_robot_problem
MultiRobotState
p374
(dp375
g189
g20
((lp376
(I5
I9
tp377
a(I3
I2
tp378
a(I4
I4
tp379
a(I4
I6
tp380
ag373
a(I4
I5
tp381
a(I3
I4
tp382
a(I6
I1
tp383
a(I3
I1
tp384
a(I1
I4
tp385
a(I1
I1
tp386
a(I3
I8
tp387
a(I1
I5
tp388
a(I8
I4
tp389
a(I4
I3
tp390
a(I3
I7
tp391
a(I4
I2
tp392
a(I3
I5
tp393
a(I4
I1
tp394
a(I2
I4
tp395
a(I3
I3
tp396
atp397
Rp398
sg180
I9
sg218
g20
((lp399
(I0
I1
tp400
a(I5
I4
tp401
a(I6
I7
tp402
a(I8
I2
tp403
a(I3
I6
tp404
a(I8
I8
tp405
a(I2
I3
tp406
a(I8
I7
tp407
a(I1
I0
tp408
a(I5
I5
tp409
atp410
Rp411
sg185
((I1
I6
tp412
(I0
I9
tp413
(I0
I5
tp414
tp415
sg186
I11
sbssS'name'
p416
S'mild_roomset'
p417
sbsg156
g157
sg158
(dp418
g178
((lp419
F40.180000000000291
tp420
sg235
((lp421
F40.020000000000437
tp422
sg276
((lp423
F40.159999999999854
tp424
sg324
((lp425
F40.029999999998836
tp426
sg371
((lp427
F40.090000000000146
tp428
ssba(imeasure_core
ProblemSetSolution
p429
(dp430
g3
(imeasure_core
RoomSet
p431
(dp432
S'rooms'
p433
(dp434
(iproblems
RoomID
p435
(dp436
S'width'
p437
I13
sS'dusts'
p438
I13
sS'seed'
p439
I5594871498841892311
sS'obstacles'
p440
(I9
I8
tp441
sS'robots'
p442
I7
sS'height'
p443
I12
sb(imulti_robot_problem
MultiRobotState
p444
(dp445
S'obstacle_locations'
p446
g20
((lp447
(I5
I9
tp448
a(I6
I9
tp449
a(I1
I3
tp450
a(I6
I7
tp451
a(I10
I4
tp452
a(I4
I8
tp453
ag441
a(I6
I10
tp454
a(I11
I3
tp455
a(I1
I4
tp456
a(I8
I10
tp457
a(I9
I7
tp458
a(I5
I0
tp459
a(I9
I5
tp460
a(I8
I6
tp461
a(I7
I9
tp462
a(I9
I6
tp463
a(I10
I0
tp464
a(I6
I8
tp465
a(I5
I5
tp466
atp467
Rp468
sg437
I13
sS'dirt_locations'
p469
g20
((lp470
(I2
I7
tp471
a(I10
I5
tp472
a(I11
I5
tp473
a(I6
I1
tp474
a(I8
I0
tp475
a(I2
I1
tp476
a(I2
I0
tp477
a(I0
I10
tp478
a(I7
I10
tp479
a(I12
I10
tp480
a(I5
I2
tp481
a(I0
I2
tp482
a(I3
I5
tp483
atp484
Rp485
sg442
((I10
I8
tp486
(I11
I6
tp487
(I7
I5
tp488
(I9
I3
tp489
(I9
I11
tp490
(I12
I1
tp491
(I9
I9
tp492
tp493
sg443
I12
sbs(iproblems
RoomID
p494
(dp495
g437
I11
sg438
I11
sg439
I8833747186876682921
sg440
(I8
I7
tp496
sg442
I7
sg443
I10
sb(imulti_robot_problem
MultiRobotState
p497
(dp498
g446
g20
((lp499
(I4
I4
tp500
a(I6
I7
tp501
a(I5
I5
tp502
a(I4
I8
tp503
a(I4
I5
tp504
a(I5
I7
tp505
a(I2
I1
tp506
a(I6
I3
tp507
a(I8
I1
tp508
a(I8
I8
tp509
a(I3
I3
tp510
ag496
a(I5
I1
tp511
a(I10
I2
tp512
a(I7
I8
tp513
a(I4
I6
tp514
atp515
Rp516
sg437
I11
sg469
g20
((lp517
(I10
I5
tp518
a(I7
I6
tp519
a(I4
I7
tp520
a(I1
I4
tp521
a(I9
I9
tp522
a(I3
I8
tp523
a(I0
I5
tp524
a(I8
I6
tp525
a(I2
I5
tp526
a(I0
I8
tp527
a(I7
I2
tp528
atp529
Rp530
sg442
((I3
I1
tp531
(I9
I1
tp532
(I5
I2
tp533
(I4
I3
tp534
(I8
I0
tp535
(I10
I4
tp536
(I8
I5
tp537
tp538
sg443
I10
sbs(iproblems
RoomID
p539
(dp540
g437
I12
sg438
I12
sg439
I365562409358139953
sg440
(I0
I5
tp541
sg442
I7
sg443
I11
sb(imulti_robot_problem
MultiRobotState
p542
(dp543
g446
g20
((lp544
(I8
I6
tp545
a(I1
I3
tp546
a(I2
I9
tp547
a(I6
I6
tp548
a(I10
I7
tp549
a(I5
I2
tp550
a(I7
I6
tp551
a(I3
I1
tp552
a(I2
I2
tp553
a(I4
I8
tp554
a(I7
I5
tp555
ag541
a(I8
I7
tp556
a(I0
I4
tp557
a(I4
I2
tp558
a(I3
I9
tp559
a(I7
I8
tp560
a(I11
I6
tp561
a(I8
I4
tp562
atp563
Rp564
sg437
I12
sg469
g20
((lp565
(I3
I2
tp566
a(I5
I7
tp567
a(I4
I9
tp568
a(I10
I4
tp569
a(I11
I9
tp570
a(I2
I1
tp571
a(I0
I6
tp572
a(I1
I6
tp573
a(I5
I10
tp574
a(I7
I10
tp575
a(I3
I7
tp576
a(I0
I2
tp577
atp578
Rp579
sg442
((I6
I3
tp580
(I10
I5
tp581
(I3
I6
tp582
(I8
I10
tp583
(I4
I6
tp584
(I11
I3
tp585
(I1
I8
tp586
tp587
sg443
I11
sbs(iproblems
RoomID
p588
(dp589
g437
I10
sg438
I13
sg439
I5338040351619750409
sg440
(I3
I8
tp590
sg442
I5
sg443
I10
sb(imulti_robot_problem
MultiRobotState
p591
(dp592
g446
g20
((lp593
(I4
I7
tp594
a(I2
I6
tp595
a(I9
I1
tp596
a(I2
I8
tp597
a(I6
I1
tp598
a(I1
I4
tp599
ag590
a(I1
I6
tp600
a(I4
I3
tp601
a(I1
I7
tp602
a(I2
I5
tp603
a(I6
I8
tp604
a(I2
I4
tp605
a(I9
I7
tp606
atp607
Rp608
sg437
I10
sg469
g20
((lp609
(I8
I3
tp610
a(I1
I3
tp611
a(I4
I9
tp612
a(I4
I6
tp613
a(I6
I6
tp614
a(I6
I9
tp615
a(I2
I1
tp616
a(I8
I9
tp617
a(I1
I8
tp618
a(I7
I5
tp619
a(I3
I6
tp620
a(I9
I6
tp621
a(I4
I0
tp622
atp623
Rp624
sg442
((I2
I0
tp625
(I3
I5
tp626
(I5
I0
tp627
(I5
I2
tp628
(I4
I5
tp629
tp630
sg443
I10
sbs(iproblems
RoomID
p631
(dp632
g437
I11
sg438
I11
sg439
I1085536589165212248
sg440
(I4
I6
tp633
sg442
I5
sg443
I11
sb(imulti_robot_problem
MultiRobotState
p634
(dp635
g446
g20
((lp636
(I10
I5
tp637
a(I2
I6
tp638
a(I3
I2
tp639
ag633
a(I9
I3
tp640
a(I9
I9
tp641
a(I1
I8
tp642
a(I1
I9
tp643
a(I1
I7
tp644
a(I3
I7
tp645
a(I6
I9
tp646
a(I5
I8
tp647
a(I3
I3
tp648
atp649
Rp650
sg437
I11
sg469
g20
((lp651
(I0
I1
tp652
a(I4
I9
tp653
a(I10
I4
tp654
a(I10
I7
tp655
a(I6
I0
tp656
a(I0
I7
tp657
a(I2
I3
tp658
a(I1
I4
tp659
a(I2
I2
tp660
a(I10
I0
tp661
a(I0
I10
tp662
atp663
Rp664
sg442
((I5
I3
tp665
(I0
I2
tp666
(I3
I1
tp667
(I7
I1
tp668
(I9
I0
tp669
tp670
sg443
I11
sbssS'name'
p671
S'heavy_roomset'
p672
sbsg156
g157
sg158
(dp673
g435
((lp674
F40.970000000001164
tp675
sg494
((lp676
F40.419999999998254
tp677
sg539
((lp678
F41.100000000002183
tp679
sg588
((lp680
F40.110000000000582
tp681
sg631
((lp682
F40.289999999997235
tp683
ssba(imeasure_core
ProblemSetSolution
p684
(dp685
g3
g4
sg156
S'AnytimeBest-d80_with_PowerHeuristic2'
p686
sg158
(dp687
g8
((lp688
(F2.3800000000010186
I13
tp689
aF40.069999999999709
tp690
sg48
((lp691
(F0.60000000000218279
I4
tp692
aF40.030000000002474
tp693
sg75
((lp694
F40.090000000000146
tp695
sg106
((lp696
(F0.020000000000436557
I7
tp697
aF40.009999999998399
tp698
sg130
((lp699
(F0.08000000000174623
I30
tp700
a(F0.49000000000160071
I28
tp701
a(F0.75
I27
tp702
a(F0.88999999999941792
I25
tp703
a(F1.0299999999988358
I23
tp704
a(F1.9000000000014552
I21
tp705
a(F2.8899999999994179
I20
tp706
a(F3.8100000000013097
I19
tp707
a(F4.6199999999989814
I17
tp708
a(F5.4399999999986903
I15
tp709
aF5.9500000000007276
tp710
ssba(imeasure_core
ProblemSetSolution
p711
(dp712
g3
g174
sg156
g686
sg158
(dp713
g178
((lp714
(F1.3400000000001455
I32
tp715
aF40.040000000000873
tp716
sg235
((lp717
(F1.4099999999998545
I32
tp718
aF40.029999999998836
tp719
sg276
((lp720
(F0.13000000000101863
I17
tp721
aF40.009999999998399
tp722
sg324
((lp723
(F0.25
I25
tp724
aF40.020000000000437
tp725
sg371
((lp726
F40.110000000000582
tp727
ssba(imeasure_core
ProblemSetSolution
p728
(dp729
g3
g431
sg156
g686
sg158
(dp730
g435
((lp731
F41.099999999998545
tp732
sg494
((lp733
(F25.400000000001455
I19
tp734
aF40.259999999998399
tp735
sg539
((lp736
F41.080000000001746
tp737
sg588
((lp738
(F2.2999999999992724
I16
tp739
aF40.029999999998836
tp740
sg631
((lp741
(F2.2000000000007276
I15
tp742
aF40.130000000001019
tp743
ssba(imeasure_core
ProblemSetSolution
p744
(dp745
g3
g4
sg156
S'AnytimeBest-d150_with_PowerHeuristic2'
p746
sg158
(dp747
g8
((lp748
(F2.3800000000010186
I13
tp749
aF40.06000000000131
tp750
sg48
((lp751
(F0.59999999999854481
I4
tp752
aF40.029999999998836
tp753
sg75
((lp754
F40.099999999998545
tp755
sg106
((lp756
(F0.010000000002037268
I7
tp757
aF40.0
tp758
sg130
((lp759
(F0.090000000000145519
I30
tp760
a(F0.5
I28
tp761
a(F0.75
I27
tp762
a(F0.90000000000145519
I25
tp763
a(F1.0400000000008731
I23
tp764
a(F1.9000000000014552
I21
tp765
a(F2.9000000000014552
I20
tp766
a(F3.8100000000013097
I19
tp767
a(F4.6300000000010186
I17
tp768
a(F5.4500000000007276
I15
tp769
aF5.9600000000027649
tp770
ssba(imeasure_core
ProblemSetSolution
p771
(dp772
g3
g174
sg156
g746
sg158
(dp773
g178
((lp774
(F1.3400000000001455
I32
tp775
aF40.039999999997235
tp776
sg235
((lp777
(F1.3900000000030559
I32
tp778
aF40.130000000001019
tp779
sg276
((lp780
(F0.13999999999941792
I17
tp781
aF40.010000000002037
tp782
sg324
((lp783
(F0.25
I25
tp784
aF40.059999999997672
tp785
sg371
((lp786
F40.110000000000582
tp787
ssba(imeasure_core
ProblemSetSolution
p788
(dp789
g3
g431
sg156
g746
sg158
(dp790
g435
((lp791
F41.270000000000437
tp792
sg494
((lp793
(F25.090000000000146
I19
tp794
aF40.260000000002037
tp795
sg539
((lp796
F40.68999999999869
tp797
sg588
((lp798
(F2.2999999999992724
I16
tp799
aF40.029999999998836
tp800
sg631
((lp801
(F2.1500000000014552
I15
tp802
aF40.080000000001746
tp803
ssba(imeasure_core
ProblemSetSolution
p804
(dp805
g3
g4
sg156
S'AnytimeBest-d250_with_PowerHeuristic2'
p806
sg158
(dp807
g8
((lp808
(F2.3899999999994179
I13
tp809
aF40.06000000000131
tp810
sg48
((lp811
(F0.59999999999854481
I4
tp812
aF40.029999999998836
tp813
sg75
((lp814
F40.639999999999418
tp815
sg106
((lp816
(F0.010000000002037268
I7
tp817
aF40.010000000002037
tp818
sg130
((lp819
(F0.079999999998108251
I30
tp820
a(F0.48999999999796273
I28
tp821
a(F0.75
I27
tp822
a(F0.89999999999781721
I25
tp823
a(F1.0399999999972351
I23
tp824
a(F1.8999999999978172
I21
tp825
a(F2.9099999999998545
I20
tp826
a(F3.8299999999981083
I19
tp827
a(F4.6499999999978172
I17
tp828
a(F5.4699999999975262
I15
tp829
aF5.9799999999995634
tp830
ssba(imeasure_core
ProblemSetSolution
p831
(dp832
g3
g174
sg156
g806
sg158
(dp833
g178
((lp834
(F1.3400000000001455
I32
tp835
aF40.040000000000873
tp836
sg235
((lp837
(F1.3800000000010186
I32
tp838
aF40.069999999999709
tp839
sg276
((lp840
(F0.13000000000101863
I17
tp841
aF40.009999999998399
tp842
sg324
((lp843
(F0.25
I25
tp844
aF40.020000000000437
tp845
sg371
((lp846
F40.110000000000582
tp847
ssba(imeasure_core
ProblemSetSolution
p848
(dp849
g3
g431
sg156
g806
sg158
(dp850
g435
((lp851
F41.0
tp852
sg494
((lp853
(F25.209999999999127
I19
tp854
aF40.259999999998399
tp855
sg539
((lp856
F40.930000000000291
tp857
sg588
((lp858
(F2.2700000000004366
I16
tp859
aF40.090000000000146
tp860
sg631
((lp861
(F2.1599999999998545
I15
tp862
aF40.079999999998108
tp863
ssba(imeasure_core
ProblemSetSolution
p864
(dp865
g3
g4
sg156
S'AnytimeBest-d400_with_PowerHeuristic2'
p866
sg158
(dp867
g8
((lp868
(F2.3899999999994179
I13
tp869
aF40.059999999997672
tp870
sg48
((lp871
(F0.61000000000058208
I4
tp872
aF40.030000000002474
tp873
sg75
((lp874
F40.590000000000146
tp875
sg106
((lp876
(F0.0099999999983992893
I7
tp877
aF40.0
tp878
sg130
((lp879
(F0.090000000000145519
I30
tp880
a(F0.5
I28
tp881
a(F0.75
I27
tp882
a(F0.89999999999781721
I25
tp883
a(F1.0399999999972351
I23
tp884
a(F1.9099999999998545
I21
tp885
a(F2.8999999999978172
I20
tp886
a(F3.819999999999709
I19
tp887
a(F4.6299999999973807
I17
tp888
a(F5.4399999999986903
I15
tp889
aF5.9500000000007276
tp890
ssba(imeasure_core
ProblemSetSolution
p891
(dp892
g3
g174
sg156
g866
sg158
(dp893
g178
((lp894
(F1.319999999999709
I32
tp895
aF40.040000000000873
tp896
sg235
((lp897
(F1.3999999999978172
I32
tp898
aF40.029999999998836
tp899
sg276
((lp900
(F0.13000000000101863
I17
tp901
aF40.009999999998399
tp902
sg324
((lp903
(F0.25
I25
tp904
aF40.020000000000437
tp905
sg371
((lp906
F40.110000000000582
tp907
ssba(imeasure_core
ProblemSetSolution
p908
(dp909
g3
g431
sg156
g866
sg158
(dp910
g435
((lp911
F41.090000000000146
tp912
sg494
((lp913
(F25.360000000000582
I19
tp914
aF40.260000000002037
tp915
sg539
((lp916
F41.009999999998399
tp917
sg588
((lp918
(F2.2799999999988358
I16
tp919
aF40.029999999998836
tp920
sg631
((lp921
(F2.180000000000291
I15
tp922
aF40.05000000000291
tp923
ssba(imeasure_core
ProblemSetSolution
p924
(dp925
g3
g4
sg156
S'AnytimeBest-d1000_with_PowerHeuristic2'
p926
sg158
(dp927
g8
((lp928
(F2.3699999999989814
I13
tp929
aF40.069999999999709
tp930
sg48
((lp931
(F0.6099999999969441
I4
tp932
aF40.029999999998836
tp933
sg75
((lp934
F40.110000000000582
tp935
sg106
((lp936
(F0.0099999999983992893
I7
tp937
aF40.0
tp938
sg130
((lp939
(F0.090000000000145519
I30
tp940
a(F0.5
I28
tp941
a(F0.75999999999839929
I27
tp942
a(F0.89999999999781721
I25
tp943
a(F1.0400000000008731
I23
tp944
a(F1.9099999999998545
I21
tp945
a(F2.8999999999978172
I20
tp946
a(F3.819999999999709
I19
tp947
a(F4.6300000000010186
I17
tp948
a(F5.4500000000007276
I15
tp949
aF5.9599999999991269
tp950
ssba(imeasure_core
ProblemSetSolution
p951
(dp952
g3
g174
sg156
g926
sg158
(dp953
g178
((lp954
(F1.3400000000001455
I32
tp955
aF40.040000000000873
tp956
sg235
((lp957
(F1.3899999999994179
I32
tp958
aF40.029999999998836
tp959
sg276
((lp960
(F0.13000000000101863
I17
tp961
aF40.010000000002037
tp962
sg324
((lp963
(F0.25
I25
tp964
aF40.019999999996799
tp965
sg371
((lp966
F40.110000000000582
tp967
ssba(imeasure_core
ProblemSetSolution
p968
(dp969
g3
g431
sg156
g926
sg158
(dp970
g435
((lp971
F41.119999999998981
tp972
sg494
((lp973
(F25.419999999998254
I19
tp974
aF40.259999999998399
tp975
sg539
((lp976
F41.159999999999854
tp977
sg588
((lp978
(F2.2900000000008731
I16
tp979
aF40.030000000002474
tp980
sg631
((lp981
(F2.1499999999978172
I15
tp982
aF40.110000000000582
tp983
ssba(imeasure_core
ProblemSetSolution
p984
(dp985
g3
g4
sg156
S'AnytimeBest-d10_with_LinearHeuristic'
p986
sg158
(dp987
g8
((lp988
F41.19999999999709
tp989
sg48
((lp990
(F1.0
I4
tp991
aF40.370000000002619
tp992
sg75
((lp993
F40.119999999998981
tp994
sg106
((lp995
(F0.020000000000436557
I7
tp996
aF40.020000000000437
tp997
sg130
((lp998
F1.1499999999978172
tp999
ssba(imeasure_core
ProblemSetSolution
p1000
(dp1001
g3
g174
sg156
g986
sg158
(dp1002
g178
((lp1003
F40.139999999999418
tp1004
sg235
((lp1005
F40.069999999999709
tp1006
sg276
((lp1007
F40.029999999998836
tp1008
sg324
((lp1009
F40.06000000000131
tp1010
sg371
((lp1011
F40.110000000000582
tp1012
ssba(imeasure_core
ProblemSetSolution
p1013
(dp1014
g3
g431
sg156
g986
sg158
(dp1015
g435
((lp1016
F40.360000000000582
tp1017
sg494
((lp1018
F41.200000000000728
tp1019
sg539
((lp1020
F40.430000000000291
tp1021
sg588
((lp1022
F40.490000000001601
tp1023
sg631
((lp1024
F40.409999999999854
tp1025
ssba(imeasure_core
ProblemSetSolution
p1026
(dp1027
g3
g4
sg156
S'AnytimeBest-d80_with_LinearHeuristic'
p1028
sg158
(dp1029
g8
((lp1030
F40.709999999999127
tp1031
sg48
((lp1032
(F1.0
I4
tp1033
aF40.350000000002183
tp1034
sg75
((lp1035
(F3.25
I17
tp1036
aF40.219999999997526
tp1037
sg106
((lp1038
(F0.020000000000436557
I7
tp1039
aF40.020000000000437
tp1040
sg130
((lp1041
(F0.010000000002037268
I15
tp1042
aF5.6500000000014552
tp1043
ssba(imeasure_core
ProblemSetSolution
p1044
(dp1045
g3
g174
sg156
g1028
sg158
(dp1046
g178
((lp1047
F40.240000000001601
tp1048
sg235
((lp1049
F40.029999999998836
tp1050
sg276
((lp1051
F40.029999999998836
tp1052
sg324
((lp1053
F40.030000000002474
tp1054
sg371
((lp1055
F40.080000000001746
tp1056
ssba(imeasure_core
ProblemSetSolution
p1057
(dp1058
g3
g431
sg156
g1028
sg158
(dp1059
g435
((lp1060
F49.44999999999709
tp1061
sg494
((lp1062
F40.489999999997963
tp1063
sg539
((lp1064
F40.580000000001746
tp1065
sg588
((lp1066
F40.319999999999709
tp1067
sg631
((lp1068
F40.129999999997381
tp1069
ssba(imeasure_core
ProblemSetSolution
p1070
(dp1071
g3
g4
sg156
S'AnytimeBest-d150_with_LinearHeuristic'
p1072
sg158
(dp1073
g8
((lp1074
F40.55000000000291
tp1075
sg48
((lp1076
(F1.0100000000020373
I4
tp1077
aF40.489999999997963
tp1078
sg75
((lp1079
(F3.2300000000032014
I17
tp1080
aF40.25
tp1081
sg106
((lp1082
(F0.020000000004074536
I7
tp1083
aF40.020000000004075
tp1084
sg130
((lp1085
(F0.010000000002037268
I15
tp1086
aF5.6599999999962165
tp1087
ssba(imeasure_core
ProblemSetSolution
p1088
(dp1089
g3
g174
sg156
g1072
sg158
(dp1090
g178
((lp1091
F40.069999999999709
tp1092
sg235
((lp1093
F40.05000000000291
tp1094
sg276
((lp1095
F40.029999999998836
tp1096
sg324
((lp1097
F40.120000000002619
tp1098
sg371
((lp1099
F40.129999999997381
tp1100
ssba(imeasure_core
ProblemSetSolution
p1101
(dp1102
g3
g431
sg156
g1072
sg158
(dp1103
g435
((lp1104
F49.540000000000873
tp1105
sg494
((lp1106
F40.599999999998545
tp1107
sg539
((lp1108
F40.620000000002619
tp1109
sg588
((lp1110
F40.469999999993888
tp1111
sg631
((lp1112
F40.569999999999709
tp1113
ssba(imeasure_core
ProblemSetSolution
p1114
(dp1115
g3
g4
sg156
S'AnytimeBest-d250_with_LinearHeuristic'
p1116
sg158
(dp1117
g8
((lp1118
F40.810000000004948
tp1119
sg48
((lp1120
(F1.0
I4
tp1121
aF40.389999999999418
tp1122
sg75
((lp1123
(F3.2200000000011642
I17
tp1124
aF40.119999999995343
tp1125
sg106
((lp1126
(F0.020000000004074536
I7
tp1127
aF40.020000000004075
tp1128
sg130
((lp1129
(F0.010000000002037268
I15
tp1130
aF5.6699999999982538
tp1131
ssba(imeasure_core
ProblemSetSolution
p1132
(dp1133
g3
g174
sg156
g1116
sg158
(dp1134
g178
((lp1135
F40.30000000000291
tp1136
sg235
((lp1137
F40.25
tp1138
sg276
((lp1139
F40.040000000000873
tp1140
sg324
((lp1141
F40.110000000000582
tp1142
sg371
((lp1143
F40.159999999996217
tp1144
ssba(imeasure_core
ProblemSetSolution
p1145
(dp1146
g3
g431
sg156
g1116
sg158
(dp1147
g435
((lp1148
F40.419999999998254
tp1149
sg494
((lp1150
F40.440000000002328
tp1151
sg539
((lp1152
F42.409999999996217
tp1153
sg588
((lp1154
F40.380000000004657
tp1155
sg631
((lp1156
F40.519999999996799
tp1157
ssba(imeasure_core
ProblemSetSolution
p1158
(dp1159
g3
g4
sg156
S'AnytimeBest-d400_with_LinearHeuristic'
p1160
sg158
(dp1161
g8
((lp1162
F40.720000000001164
tp1163
sg48
((lp1164
(F1.0199999999967986
I4
tp1165
aF40.309999999997672
tp1166
sg75
((lp1167
(F3.2399999999979627
I17
tp1168
aF40.330000000001746
tp1169
sg106
((lp1170
(F0.019999999996798579
I7
tp1171
aF40.019999999996799
tp1172
sg130
((lp1173
(F0.010000000002037268
I15
tp1174
aF5.6699999999982538
tp1175
ssba(imeasure_core
ProblemSetSolution
p1176
(dp1177
g3
g174
sg156
g1160
sg158
(dp1178
g178
((lp1179
F40.279999999998836
tp1180
sg235
((lp1181
F40.05000000000291
tp1182
sg276
((lp1183
F40.229999999995925
tp1184
sg324
((lp1185
F40.180000000000291
tp1186
sg371
((lp1187
F40.200000000004366
tp1188
ssba(imeasure_core
ProblemSetSolution
p1189
(dp1190
g3
g431
sg156
g1160
sg158
(dp1191
g435
((lp1192
F49.139999999999418
tp1193
sg494
((lp1194
F40.260000000002037
tp1195
sg539
((lp1196
F40.689999999995052
tp1197
sg588
((lp1198
F40.44999999999709
tp1199
sg631
((lp1200
F40.620000000002619
tp1201
ssba(imeasure_core
ProblemSetSolution
p1202
(dp1203
g3
g4
sg156
S'AnytimeBest-d1000_with_LinearHeuristic'
p1204
sg158
(dp1205
g8
((lp1206
F40.529999999998836
tp1207
sg48
((lp1208
(F1.0100000000020373
I4
tp1209
aF40.190000000002328
tp1210
sg75
((lp1211
(F3.2200000000011642
I17
tp1212
aF40.229999999995925
tp1213
sg106
((lp1214
(F0.030000000006111804
I7
tp1215
aF40.020000000004075
tp1216
sg130
((lp1217
(F0.010000000002037268
I15
tp1218
aF5.6599999999962165
tp1219
ssba(imeasure_core
ProblemSetSolution
p1220
(dp1221
g3
g174
sg156
g1204
sg158
(dp1222
g178
((lp1223
F40.240000000005239
tp1224
sg235
((lp1225
F40.069999999999709
tp1226
sg276
((lp1227
F40.259999999994761
tp1228
sg324
((lp1229
F40.200000000004366
tp1230
sg371
((lp1231
F40.129999999997381
tp1232
ssba(imeasure_core
ProblemSetSolution
p1233
(dp1234
g3
g431
sg156
g1204
sg158
(dp1235
g435
((lp1236
F49.620000000002619
tp1237
sg494
((lp1238
F40.599999999998545
tp1239
sg539
((lp1240
F40.589999999996508
tp1241
sg588
((lp1242
F40.480000000003201
tp1243
sg631
((lp1244
F40.540000000000873
tp1245
ssba.