(lp0
(imeasure_core
ProblemSetSolution
p1
(dp2
S'roomset'
p3
(imeasure_core
RoomSet
p4
(dp5
S'rooms'
p6
(dp7
(iproblems
RoomID
p8
(dp9
S'width'
p10
I9
sS'dusts'
p11
I10
sS'seed'
p12
I4712128852136459333
sS'obstacles'
p13
(I0
I8
tp14
sS'robots'
p15
I4
sS'height'
p16
I10
sb(imulti_robot_problem
MultiRobotState
p17
(dp18
S'obstacle_locations'
p19
c__builtin__
frozenset
p20
((lp21
(I1
I5
tp22
a(I8
I0
tp23
a(I0
I7
tp24
a(I0
I6
tp25
a(I2
I3
tp26
ag14
a(I1
I1
tp27
atp28
Rp29
sg10
I9
sS'dirt_locations'
p30
g20
((lp31
(I4
I7
tp32
a(I1
I3
tp33
a(I4
I9
tp34
a(I8
I1
tp35
a(I7
I6
tp36
a(I2
I6
tp37
a(I8
I7
tp38
a(I2
I2
tp39
a(I4
I1
tp40
a(I2
I4
tp41
atp42
Rp43
sg15
((I5
I8
tp44
(I6
I9
tp45
(I5
I0
tp46
(I3
I1
tp47
tp48
sg16
I10
sbs(iproblems
RoomID
p49
(dp50
g10
I8
sg11
I9
sg12
I6613812840851947673
sg13
(I3
I4
tp51
sg15
I1
sg16
I7
sb(imulti_robot_problem
MultiRobotState
p52
(dp53
g19
g20
((lp54
(I1
I4
tp55
ag51
a(I2
I4
tp56
a(I2
I1
tp57
a(I3
I5
tp58
atp59
Rp60
sg10
I8
sg30
g20
((lp61
(I6
I4
tp62
a(I5
I4
tp63
a(I6
I0
tp64
a(I7
I5
tp65
a(I1
I6
tp66
a(I2
I2
tp67
a(I0
I5
tp68
a(I4
I1
tp69
a(I4
I0
tp70
atp71
Rp72
sg15
((I3
I1
tp73
tp74
sg16
I7
sbs(iproblems
RoomID
p75
(dp76
g10
I7
sg11
I10
sg12
I956523682424107605
sg13
(I4
I8
tp77
sg15
I4
sg16
I10
sb(imulti_robot_problem
MultiRobotState
p78
(dp79
g19
g20
((lp80
(I2
I8
tp81
a(I4
I2
tp82
a(I3
I7
tp83
a(I2
I9
tp84
ag77
atp85
Rp86
sg10
I7
sg30
g20
((lp87
(I5
I9
tp88
a(I4
I7
tp89
a(I1
I3
tp90
a(I3
I3
tp91
a(I6
I1
tp92
a(I5
I4
tp93
a(I0
I4
tp94
a(I5
I3
tp95
a(I5
I2
tp96
a(I5
I5
tp97
atp98
Rp99
sg15
((I1
I9
tp100
(I4
I9
tp101
(I1
I8
tp102
(I0
I3
tp103
tp104
sg16
I10
sbs(iproblems
RoomID
p105
(dp106
g10
I8
sg11
I9
sg12
I4594210616595436404
sg13
(I5
I3
tp107
sg15
I3
sg16
I7
sb(imulti_robot_problem
MultiRobotState
p108
(dp109
g19
g20
((lp110
(I0
I1
tp111
a(I3
I3
tp112
a(I6
I1
tp113
a(I4
I3
tp114
a(I4
I2
tp115
ag107
atp116
Rp117
sg10
I8
sg30
g20
((lp118
(I6
I6
tp119
a(I5
I6
tp120
a(I4
I4
tp121
a(I1
I4
tp122
a(I1
I1
tp123
a(I0
I6
tp124
a(I5
I1
tp125
a(I1
I0
tp126
a(I0
I3
tp127
atp128
Rp129
sg15
((I2
I1
tp130
(I3
I4
tp131
(I3
I6
tp132
tp133
sg16
I7
sbs(iproblems
RoomID
p134
(dp135
g10
I8
sg11
I10
sg12
I2893396244277848635
sg13
(I4
I5
tp136
sg15
I1
sg16
I8
sb(imulti_robot_problem
MultiRobotState
p137
(dp138
g19
g20
((lp139
g136
a(I3
I7
tp140
a(I2
I6
tp141
a(I4
I6
tp142
atp143
Rp144
sg10
I8
sg30
g20
((lp145
(I6
I4
tp146
a(I0
I0
tp147
a(I6
I7
tp148
a(I3
I0
tp149
a(I2
I1
tp150
a(I0
I6
tp151
a(I6
I5
tp152
a(I2
I4
tp153
a(I7
I2
tp154
a(I5
I3
tp155
atp156
Rp157
sg15
((I2
I3
tp158
tp159
sg16
I8
sbssS'name'
p160
S'easy_roomset'
p161
sbsS'name'
p162
S"AnytimeBeam-w5-gf(1.3, 'exp')_with_PowerHeuristic2"
p163
sS'solutions'
p164
(dp165
g8
((lp166
(F1.819999999999709
I51
tp167
aF40.090000000000146
tp168
sg49
((lp169
(F0.049999999999272404
I44
tp170
a(F0.19999999999708962
I36
tp171
a(F2.7299999999995634
I30
tp172
a(F3.4399999999986903
I29
tp173
a(F8.2999999999992724
I28
tp174
a(F15.18999999999869
I27
tp175
a(F27.319999999999709
I26
tp176
a(F37.669999999998254
I25
tp177
aF40.0
tp178
sg75
((lp179
(F0.25999999999839929
I10
tp180
aF40.319999999999709
tp181
sg105
((lp182
(F1.0799999999981083
I31
tp183
a(F9.8299999999981083
I26
tp184
aF40.0
tp185
sg134
((lp186
(F0.6099999999969441
I76
tp187
a(F0.93999999999869033
I63
tp188
a(F1.9899999999979627
I61
tp189
a(F3.7199999999975262
I59
tp190
a(F4.4799999999995634
I57
tp191
a(F5.3899999999994179
I56
tp192
a(F6.5599999999976717
I54
tp193
a(F7.6899999999986903
I52
tp194
a(F9.6199999999989814
I51
tp195
a(F12.469999999997526
I50
tp196
a(F15.299999999999272
I48
tp197
a(F18.289999999997235
I46
tp198
a(F21.369999999998981
I44
tp199
a(F30.079999999998108
I43
tp200
a(F38.219999999997526
I42
tp201
aF40.0
tp202
ssba(imeasure_core
ProblemSetSolution
p203
(dp204
g3
(imeasure_core
RoomSet
p205
(dp206
S'rooms'
p207
(dp208
(iproblems
RoomID
p209
(dp210
S'width'
p211
I11
sS'dusts'
p212
I10
sS'seed'
p213
I4712128852136459333
sS'obstacles'
p214
(I8
I7
tp215
sS'robots'
p216
I4
sS'height'
p217
I12
sb(imulti_robot_problem
MultiRobotState
p218
(dp219
S'obstacle_locations'
p220
g20
((lp221
(I4
I7
tp222
a(I3
I11
tp223
a(I0
I7
tp224
a(I1
I6
tp225
a(I2
I10
tp226
a(I1
I11
tp227
a(I9
I0
tp228
a(I5
I5
tp229
a(I7
I6
tp230
a(I4
I1
tp231
a(I1
I1
tp232
a(I6
I4
tp233
a(I4
I5
tp234
a(I7
I7
tp235
a(I2
I3
tp236
a(I1
I9
tp237
ag215
a(I4
I2
tp238
a(I0
I8
tp239
a(I6
I5
tp240
a(I5
I3
tp241
a(I3
I1
tp242
a(I2
I11
tp243
a(I0
I9
tp244
atp245
Rp246
sg211
I11
sS'dirt_locations'
p247
g20
((lp248
(I2
I7
tp249
a(I9
I1
tp250
a(I9
I8
tp251
a(I3
I3
tp252
a(I5
I1
tp253
a(I2
I5
tp254
a(I3
I4
tp255
a(I2
I4
tp256
a(I5
I8
tp257
a(I9
I7
tp258
atp259
Rp260
sg216
((I6
I10
tp261
(I8
I10
tp262
(I7
I0
tp263
(I5
I11
tp264
tp265
sg217
I12
sbs(iproblems
RoomID
p266
(dp267
g211
I10
sg212
I9
sg213
I4594210616595436404
sg214
(I4
I4
tp268
sg216
I3
sg217
I9
sb(imulti_robot_problem
MultiRobotState
p269
(dp270
g220
g20
((lp271
(I1
I3
tp272
a(I5
I6
tp273
a(I2
I1
tp274
a(I1
I6
tp275
a(I9
I4
tp276
a(I3
I7
tp277
a(I0
I3
tp278
a(I1
I2
tp279
a(I5
I5
tp280
a(I1
I5
tp281
a(I7
I6
tp282
ag268
a(I6
I3
tp283
a(I3
I0
tp284
a(I3
I6
tp285
a(I0
I4
tp286
a(I8
I6
tp287
a(I5
I3
tp288
a(I1
I1
tp289
a(I5
I4
tp290
a(I4
I5
tp291
a(I0
I5
tp292
a(I9
I5
tp293
a(I3
I5
tp294
a(I0
I1
tp295
a(I3
I4
tp296
a(I0
I6
tp297
a(I1
I8
tp298
a(I2
I3
tp299
a(I2
I0
tp300
a(I5
I2
tp301
a(I0
I2
tp302
atp303
Rp304
sg211
I10
sg247
g20
((lp305
(I7
I0
tp306
a(I6
I8
tp307
a(I2
I8
tp308
a(I8
I5
tp309
a(I8
I8
tp310
a(I0
I8
tp311
a(I7
I8
tp312
a(I5
I8
tp313
a(I8
I2
tp314
atp315
Rp316
sg216
((I4
I6
tp317
(I2
I5
tp318
(I6
I1
tp319
tp320
sg217
I9
sbs(iproblems
RoomID
p321
(dp322
g211
I9
sg212
I8
sg213
I6858376947525423350
sg214
(I5
I0
tp323
sg216
I4
sg217
I9
sb(imulti_robot_problem
MultiRobotState
p324
(dp325
g220
g20
((lp326
(I4
I7
tp327
a(I1
I3
tp328
a(I3
I0
tp329
a(I2
I8
tp330
a(I2
I1
tp331
a(I1
I6
tp332
a(I5
I1
tp333
a(I2
I5
tp334
a(I7
I2
tp335
a(I5
I5
tp336
a(I6
I3
tp337
ag323
a(I2
I2
tp338
a(I6
I4
tp339
a(I7
I1
tp340
a(I6
I0
tp341
a(I2
I3
tp342
a(I0
I8
tp343
a(I2
I7
tp344
a(I6
I1
tp345
a(I5
I7
tp346
a(I3
I8
tp347
a(I1
I8
tp348
a(I4
I3
tp349
a(I3
I4
tp350
a(I2
I4
tp351
atp352
Rp353
sg211
I9
sg247
g20
((lp354
(I8
I3
tp355
a(I7
I0
tp356
a(I4
I6
tp357
a(I6
I6
tp358
a(I8
I0
tp359
a(I8
I8
tp360
a(I7
I5
tp361
a(I8
I4
tp362
atp363
Rp364
sg216
((I1
I1
tp365
(I6
I5
tp366
(I8
I2
tp367
(I1
I5
tp368
tp369
sg217
I9
sbs(iproblems
RoomID
p370
(dp371
g211
I12
sg212
I6
sg213
I7529058068588108450
sg214
(I8
I8
tp372
sg216
I4
sg217
I11
sb(imulti_robot_problem
MultiRobotState
p373
(dp374
g220
g20
((lp375
(I5
I9
tp376
a(I6
I9
tp377
a(I9
I1
tp378
a(I6
I6
tp379
a(I7
I7
tp380
a(I3
I7
tp381
a(I5
I8
tp382
a(I8
I2
tp383
a(I5
I5
tp384
a(I7
I6
tp385
a(I4
I4
tp386
a(I1
I5
tp387
a(I7
I2
tp388
a(I3
I6
tp389
a(I2
I2
tp390
a(I1
I10
tp391
a(I4
I10
tp392
a(I3
I2
tp393
a(I2
I6
tp394
a(I10
I4
tp395
a(I7
I1
tp396
a(I7
I5
tp397
a(I4
I6
tp398
a(I6
I8
tp399
a(I7
I4
tp400
ag372
a(I7
I8
tp401
a(I3
I10
tp402
atp403
Rp404
sg211
I12
sg247
g20
((lp405
(I7
I3
tp406
a(I6
I0
tp407
a(I11
I3
tp408
a(I0
I5
tp409
a(I11
I6
tp410
a(I4
I0
tp411
atp412
Rp413
sg216
((I11
I7
tp414
(I6
I2
tp415
(I11
I5
tp416
(I6
I7
tp417
tp418
sg217
I11
sbs(iproblems
RoomID
p419
(dp420
g211
I11
sg212
I5
sg213
I1881095652490078568
sg214
(I4
I9
tp421
sg216
I4
sg217
I11
sb(imulti_robot_problem
MultiRobotState
p422
(dp423
g220
g20
((lp424
(I6
I9
tp425
a(I6
I6
tp426
a(I2
I8
tp427
a(I4
I7
tp428
ag421
a(I7
I6
tp429
a(I4
I4
tp430
a(I8
I10
tp431
a(I6
I3
tp432
a(I7
I10
tp433
a(I2
I2
tp434
a(I1
I1
tp435
a(I5
I4
tp436
a(I4
I5
tp437
a(I9
I3
tp438
a(I7
I5
tp439
a(I6
I7
tp440
a(I6
I5
tp441
a(I3
I5
tp442
a(I4
I6
tp443
a(I7
I4
tp444
a(I1
I7
tp445
a(I4
I8
tp446
a(I7
I8
tp447
a(I8
I4
tp448
atp449
Rp450
sg211
I11
sg247
g20
((lp451
(I1
I10
tp452
a(I5
I9
tp453
a(I0
I0
tp454
a(I9
I7
tp455
a(I10
I2
tp456
atp457
Rp458
sg216
((I5
I7
tp459
(I8
I1
tp460
(I3
I1
tp461
(I8
I8
tp462
tp463
sg217
I11
sbssS'name'
p464
S'mild_roomset'
p465
sbsg162
g163
sg164
(dp466
g209
((lp467
(F0.93999999999869033
I23
tp468
aF40.270000000000437
tp469
sg266
((lp470
F40.009999999998399
tp471
sg321
((lp472
(F0.18999999999869033
I16
tp473
aF40.009999999998399
tp474
sg370
((lp475
(F0.94000000000232831
I33
tp476
aF40.120000000002619
tp477
sg419
((lp478
(F0.11000000000058208
I7
tp479
aF40.039999999997235
tp480
ssba(imeasure_core
ProblemSetSolution
p481
(dp482
g3
(imeasure_core
RoomSet
p483
(dp484
S'rooms'
p485
(dp486
(iproblems
RoomID
p487
(dp488
S'width'
p489
I12
sS'dusts'
p490
I15
sS'seed'
p491
I4712128852136459333
sS'obstacles'
p492
(I5
I9
tp493
sS'robots'
p494
I7
sS'height'
p495
I13
sb(imulti_robot_problem
MultiRobotState
p496
(dp497
S'obstacle_locations'
p498
g20
((lp499
g493
a(I4
I9
tp500
a(I5
I5
tp501
a(I2
I8
tp502
a(I3
I1
tp503
a(I4
I12
tp504
a(I9
I4
tp505
a(I1
I7
tp506
a(I1
I10
tp507
a(I3
I12
tp508
a(I3
I9
tp509
a(I0
I8
tp510
a(I5
I2
tp511
atp512
Rp513
sg489
I12
sS'dirt_locations'
p514
g20
((lp515
(I6
I9
tp516
a(I9
I7
tp517
a(I3
I3
tp518
a(I1
I12
tp519
a(I5
I6
tp520
a(I7
I7
tp521
a(I3
I8
tp522
a(I8
I8
tp523
a(I10
I0
tp524
a(I2
I5
tp525
a(I10
I2
tp526
a(I3
I4
tp527
a(I1
I1
tp528
a(I5
I8
tp529
a(I3
I5
tp530
atp531
Rp532
sg494
((I6
I11
tp533
(I8
I11
tp534
(I7
I0
tp535
(I4
I1
tp536
(I6
I12
tp537
(I10
I9
tp538
(I6
I1
tp539
tp540
sg495
I13
sbs(iproblems
RoomID
p541
(dp542
g489
I11
sg490
I14
sg491
I6613812840851947673
sg492
(I5
I5
tp543
sg494
I5
sg495
I10
sb(imulti_robot_problem
MultiRobotState
p544
(dp545
g498
g20
((lp546
(I10
I8
tp547
a(I4
I7
tp548
a(I2
I6
tp549
ag543
a(I6
I6
tp550
a(I4
I5
tp551
a(I8
I5
tp552
a(I7
I4
tp553
a(I3
I6
tp554
a(I6
I3
tp555
a(I0
I6
tp556
a(I7
I5
tp557
a(I1
I6
tp558
a(I1
I3
tp559
a(I8
I7
tp560
a(I8
I6
tp561
a(I3
I8
tp562
a(I3
I7
tp563
a(I10
I3
tp564
a(I2
I4
tp565
a(I3
I5
tp566
atp567
Rp568
sg489
I11
sg514
g20
((lp569
(I6
I4
tp570
a(I3
I2
tp571
a(I4
I9
tp572
a(I4
I6
tp573
a(I9
I8
tp574
a(I8
I0
tp575
a(I9
I7
tp576
a(I8
I8
tp577
a(I5
I0
tp578
a(I1
I0
tp579
a(I8
I4
tp580
a(I5
I2
tp581
a(I6
I1
tp582
a(I3
I3
tp583
atp584
Rp585
sg494
((I5
I1
tp586
(I0
I8
tp587
(I2
I9
tp588
(I4
I1
tp589
(I7
I6
tp590
tp591
sg495
I10
sbs(iproblems
RoomID
p592
(dp593
g489
I11
sg490
I15
sg491
I2893396244277848635
sg492
(I6
I6
tp594
sg494
I5
sg495
I11
sb(imulti_robot_problem
MultiRobotState
p595
(dp596
g498
g20
((lp597
(I7
I3
tp598
a(I4
I7
tp599
a(I5
I5
tp600
a(I4
I8
tp601
a(I5
I6
tp602
a(I2
I8
tp603
ag594
a(I3
I2
tp604
a(I3
I9
tp605
a(I4
I3
tp606
a(I1
I7
tp607
a(I6
I9
tp608
atp609
Rp610
sg489
I11
sg514
g20
((lp611
(I5
I3
tp612
a(I2
I6
tp613
a(I3
I6
tp614
a(I3
I10
tp615
a(I3
I1
tp616
a(I2
I10
tp617
a(I0
I5
tp618
a(I5
I8
tp619
a(I8
I7
tp620
a(I3
I7
tp621
a(I8
I6
tp622
a(I7
I9
tp623
a(I4
I1
tp624
a(I6
I5
tp625
a(I4
I0
tp626
atp627
Rp628
sg494
((I4
I5
tp629
(I0
I9
tp630
(I0
I1
tp631
(I9
I2
tp632
(I8
I10
tp633
tp634
sg495
I11
sbs(iproblems
RoomID
p635
(dp636
g489
I10
sg490
I15
sg491
I956523682424107605
sg492
(I4
I8
tp637
sg494
I6
sg495
I13
sb(imulti_robot_problem
MultiRobotState
p638
(dp639
g498
g20
((lp640
(I2
I7
tp641
a(I5
I9
tp642
a(I6
I9
tp643
a(I5
I0
tp644
a(I4
I9
tp645
a(I9
I4
tp646
ag637
a(I5
I6
tp647
a(I3
I10
tp648
a(I5
I7
tp649
a(I3
I11
tp650
a(I9
I9
tp651
a(I7
I10
tp652
a(I5
I10
tp653
a(I7
I8
tp654
a(I1
I1
tp655
a(I5
I8
tp656
a(I5
I5
tp657
atp658
Rp659
sg489
I10
sg514
g20
((lp660
(I8
I3
tp661
a(I1
I3
tp662
a(I6
I6
tp663
a(I8
I12
tp664
a(I7
I6
tp665
a(I6
I10
tp666
a(I5
I4
tp667
a(I1
I4
tp668
a(I2
I10
tp669
a(I7
I4
tp670
a(I1
I5
tp671
a(I7
I5
tp672
a(I0
I9
tp673
a(I7
I11
tp674
a(I6
I2
tp675
atp676
Rp677
sg494
((I1
I12
tp678
(I6
I12
tp679
(I2
I11
tp680
(I0
I4
tp681
(I9
I1
tp682
(I7
I7
tp683
tp684
sg495
I13
sbs(iproblems
RoomID
p685
(dp686
g489
I10
sg490
I13
sg491
I6858376947525423350
sg492
(I1
I6
tp687
sg494
I7
sg495
I10
sb(imulti_robot_problem
MultiRobotState
p688
(dp689
g498
g20
((lp690
(I2
I7
tp691
a(I8
I6
tp692
a(I4
I7
tp693
a(I1
I3
tp694
a(I2
I9
tp695
ag687
a(I8
I1
tp696
a(I2
I8
tp697
a(I1
I7
tp698
a(I2
I1
tp699
a(I2
I3
tp700
a(I2
I2
tp701
a(I0
I9
tp702
a(I9
I5
tp703
a(I2
I5
tp704
a(I2
I4
tp705
atp706
Rp707
sg489
I10
sg514
g20
((lp708
(I5
I7
tp709
a(I4
I9
tp710
a(I3
I3
tp711
a(I3
I0
tp712
a(I7
I6
tp713
a(I8
I0
tp714
a(I9
I9
tp715
a(I6
I2
tp716
a(I5
I8
tp717
a(I9
I4
tp718
a(I8
I5
tp719
a(I4
I4
tp720
a(I5
I3
tp721
atp722
Rp723
sg494
((I1
I2
tp724
(I7
I5
tp725
(I7
I2
tp726
(I9
I2
tp727
(I1
I5
tp728
(I9
I0
tp729
(I6
I6
tp730
tp731
sg495
I10
sbssS'name'
p732
S'heavy_roomset'
p733
sbsg162
g163
sg164
(dp734
g487
((lp735
F44.659999999999854
tp736
sg541
((lp737
F40.069999999999709
tp738
sg592
((lp739
(F14.119999999998981
I27
tp740
aF40.200000000000728
tp741
sg635
((lp742
(F10.520000000000437
I10
tp743
aF40.790000000000873
tp744
sg685
((lp745
(F28.639999999999418
I14
tp746
aF41.549999999999272
tp747
ssba(imeasure_core
ProblemSetSolution
p748
(dp749
g3
g4
sg162
S"AnytimeBeam-w15-gf(1.3, 'exp')_with_PowerHeuristic2"
p750
sg164
(dp751
g8
((lp752
(F2.680000000000291
I51
tp753
aF40.030000000002474
tp754
sg49
((lp755
(F0.049999999999272404
I36
tp756
a(F2.9099999999998545
I30
tp757
a(F3.6299999999973807
I29
tp758
a(F8.5299999999988358
I28
tp759
a(F14.839999999996508
I27
tp760
a(F27.0
I26
tp761
a(F37.369999999998981
I25
tp762
aF40.0
tp763
sg75
((lp764
(F0.30999999999767169
I10
tp765
aF40.409999999999854
tp766
sg105
((lp767
(F0.76999999999679858
I31
tp768
a(F8.1499999999978172
I29
tp769
a(F9.9299999999966531
I26
tp770
aF40.079999999998108
tp771
sg134
((lp772
(F0.5
I63
tp773
a(F1.4700000000011642
I61
tp774
a(F3.9799999999995634
I57
tp775
a(F4.9000000000014552
I56
tp776
a(F6.0900000000001455
I54
tp777
a(F7.2099999999991269
I52
tp778
a(F9.1500000000014552
I51
tp779
a(F11.990000000001601
I50
tp780
a(F14.849999999998545
I48
tp781
a(F17.840000000000146
I46
tp782
a(F20.889999999999418
I44
tp783
a(F29.56000000000131
I43
tp784
a(F37.680000000000291
I42
tp785
aF40.0
tp786
ssba(imeasure_core
ProblemSetSolution
p787
(dp788
g3
g205
sg162
g750
sg164
(dp789
g209
((lp790
(F1.1300000000010186
I23
tp791
aF40.06000000000131
tp792
sg266
((lp793
F40.069999999999709
tp794
sg321
((lp795
(F0.27000000000043656
I16
tp796
aF40.049999999999272
tp797
sg370
((lp798
(F0.72999999999956344
I33
tp799
aF40.279999999998836
tp800
sg419
((lp801
(F0.15999999999985448
I7
tp802
aF40.240000000001601
tp803
ssba(imeasure_core
ProblemSetSolution
p804
(dp805
g3
g483
sg162
g750
sg164
(dp806
g487
((lp807
F44.680000000000291
tp808
sg541
((lp809
F40.139999999999418
tp810
sg592
((lp811
(F7.7599999999983993
I27
tp812
aF40.06000000000131
tp813
sg635
((lp814
(F11.319999999999709
I10
tp815
aF40.609999999996944
tp816
sg685
((lp817
(F31.56000000000131
I14
tp818
aF44.420000000001892
tp819
ssba(imeasure_core
ProblemSetSolution
p820
(dp821
g3
g4
sg162
S"AnytimeBeam-w25-gf(1.3, 'exp')_with_PowerHeuristic2"
p822
sg164
(dp823
g8
((lp824
(F2.9599999999991269
I51
tp825
aF40.040000000000873
tp826
sg49
((lp827
(F0.090000000000145519
I36
tp828
a(F2.6499999999978172
I30
tp829
a(F3.3699999999989814
I29
tp830
a(F8.2099999999991269
I28
tp831
a(F14.44999999999709
I27
tp832
a(F26.539999999997235
I26
tp833
a(F36.860000000000582
I25
tp834
aF40.0
tp835
sg75
((lp836
(F0.36000000000058208
I10
tp837
aF40.039999999997235
tp838
sg105
((lp839
(F1.2100000000027649
I31
tp840
a(F6.0100000000020373
I29
tp841
a(F7.7700000000004366
I26
tp842
aF40.040000000000873
tp843
sg134
((lp844
(F0.25
I63
tp845
a(F1.930000000000291
I61
tp846
a(F3.75
I57
tp847
a(F4.6599999999998545
I56
tp848
a(F5.8600000000005821
I54
tp849
a(F6.9799999999995634
I52
tp850
a(F8.930000000000291
I51
tp851
a(F11.790000000000873
I50
tp852
a(F14.639999999999418
I48
tp853
a(F17.630000000001019
I46
tp854
a(F20.709999999999127
I44
tp855
a(F29.360000000000582
I43
tp856
a(F37.470000000001164
I42
tp857
aF40.0
tp858
ssba(imeasure_core
ProblemSetSolution
p859
(dp860
g3
g205
sg162
g822
sg164
(dp861
g209
((lp862
(F1.25
I23
tp863
aF40.020000000000437
tp864
sg266
((lp865
F40.020000000000437
tp866
sg321
((lp867
(F0.32999999999810825
I16
tp868
aF40.029999999998836
tp869
sg370
((lp870
(F0.85000000000218279
I33
tp871
aF40.020000000000437
tp872
sg419
((lp873
(F0.19000000000232831
I7
tp874
aF40.299999999999272
tp875
ssba(imeasure_core
ProblemSetSolution
p876
(dp877
g3
g483
sg162
g822
sg164
(dp878
g487
((lp879
F44.709999999999127
tp880
sg541
((lp881
F40.240000000001601
tp882
sg592
((lp883
(F7.9599999999991269
I27
tp884
aF40.180000000000291
tp885
sg635
((lp886
(F11.419999999998254
I10
tp887
aF40.639999999999418
tp888
sg685
((lp889
(F31.75
I14
tp890
aF44.669999999998254
tp891
ssba(imeasure_core
ProblemSetSolution
p892
(dp893
g3
g4
sg162
S"AnytimeBeam-w35-gf(1.3, 'exp')_with_PowerHeuristic2"
p894
sg164
(dp895
g8
((lp896
(F3.2799999999988358
I51
tp897
aF40.309999999997672
tp898
sg49
((lp899
(F0.090000000000145519
I36
tp900
a(F2.5600000000013097
I30
tp901
a(F3.2700000000004366
I29
tp902
a(F8.1399999999994179
I28
tp903
a(F14.409999999999854
I27
tp904
a(F26.540000000000873
I26
tp905
a(F36.870000000002619
I25
tp906
aF40.0
tp907
sg75
((lp908
(F0.42000000000189175
I10
tp909
aF40.069999999999709
tp910
sg105
((lp911
(F1.430000000000291
I31
tp912
a(F2.9799999999995634
I29
tp913
a(F6.7900000000008731
I26
tp914
aF40.040000000000873
tp915
sg134
((lp916
(F0.34000000000014552
I63
tp917
a(F0.70999999999912689
I61
tp918
a(F3.2400000000016007
I57
tp919
a(F4.1599999999998545
I56
tp920
a(F5.3499999999985448
I54
tp921
a(F6.4700000000011642
I52
tp922
a(F8.4000000000014552
I51
tp923
a(F11.25
I50
tp924
a(F14.090000000000146
I48
tp925
a(F17.069999999999709
I46
tp926
a(F20.139999999999418
I44
tp927
a(F28.790000000000873
I43
tp928
a(F36.93999999999869
I42
tp929
aF40.0
tp930
ssba(imeasure_core
ProblemSetSolution
p931
(dp932
g3
g205
sg162
g894
sg164
(dp933
g209
((lp934
(F1.3800000000010186
I23
tp935
aF40.200000000000728
tp936
sg266
((lp937
F40.0
tp938
sg321
((lp939
(F0.38000000000101863
I16
tp940
aF40.040000000000873
tp941
sg370
((lp942
(F0.97999999999956344
I33
tp943
aF40.099999999998545
tp944
sg419
((lp945
(F0.22000000000116415
I7
tp946
aF40.240000000001601
tp947
ssba(imeasure_core
ProblemSetSolution
p948
(dp949
g3
g483
sg162
g894
sg164
(dp950
g487
((lp951
F44.619999999998981
tp952
sg541
((lp953
F40.229999999999563
tp954
sg592
((lp955
(F8.2100000000027649
I27
tp956
aF40.140000000003056
tp957
sg635
((lp958
(F11.869999999995343
I10
tp959
aF41.339999999996508
tp960
sg685
((lp961
(F33.319999999999709
I14
tp962
aF46.200000000004366
tp963
ssba(imeasure_core
ProblemSetSolution
p964
(dp965
g3
g4
sg162
S"AnytimeBeam-w45-gf(1.3, 'exp')_with_PowerHeuristic2"
p966
sg164
(dp967
g8
((lp968
(F3.5
I51
tp969
aF40.010000000002037
tp970
sg49
((lp971
(F0.08000000000174623
I36
tp972
a(F2.1699999999982538
I30
tp973
a(F2.8899999999994179
I29
tp974
a(F7.7399999999979627
I28
tp975
a(F13.989999999997963
I27
tp976
a(F26.090000000003783
I26
tp977
a(F36.410000000003492
I25
tp978
aF40.0
tp979
sg75
((lp980
(F0.48000000000320142
I10
tp981
aF40.270000000004075
tp982
sg105
((lp983
(F1.5899999999965075
I31
tp984
a(F3.3299999999944703
I29
tp985
a(F5.0999999999985448
I26
tp986
aF40.069999999999709
tp987
sg134
((lp988
(F0.36000000000058208
I61
tp989
a(F2.8600000000005821
I57
tp990
a(F3.7899999999935972
I56
tp991
a(F4.9799999999959255
I54
tp992
a(F6.0999999999985448
I52
tp993
a(F8.0399999999935972
I51
tp994
a(F10.879999999997381
I50
tp995
a(F13.709999999999127
I48
tp996
a(F16.680000000000291
I46
tp997
a(F19.75
I44
tp998
a(F28.399999999994179
I43
tp999
a(F36.549999999995634
I42
tp1000
aF40.0
tp1001
ssba(imeasure_core
ProblemSetSolution
p1002
(dp1003
g3
g205
sg162
g966
sg164
(dp1004
g209
((lp1005
(F1.5
I23
tp1006
aF40.430000000000291
tp1007
sg266
((lp1008
F40.009999999994761
tp1009
sg321
((lp1010
(F0.43000000000029104
I16
tp1011
aF40.060000000004948
tp1012
sg370
((lp1013
(F1.0599999999976717
I33
tp1014
aF40.119999999995343
tp1015
sg419
((lp1016
(F0.25
I7
tp1017
aF40.099999999998545
tp1018
ssba(imeasure_core
ProblemSetSolution
p1019
(dp1020
g3
g483
sg162
g966
sg164
(dp1021
g487
((lp1022
F44.520000000004075
tp1023
sg541
((lp1024
F40.44999999999709
tp1025
sg592
((lp1026
(F8.3099999999976717
I27
tp1027
aF40.290000000000873
tp1028
sg635
((lp1029
(F11.979999999995925
I10
tp1030
aF40.669999999998254
tp1031
sg685
((lp1032
(F33.599999999998545
I14
tp1033
aF46.55000000000291
tp1034
ssba(imeasure_core
ProblemSetSolution
p1035
(dp1036
g3
g4
sg162
S"AnytimeBeam-w5-gf(1.3, 'exp')_with_LinearHeuristic"
p1037
sg164
(dp1038
g8
((lp1039
F40.089999999996508
tp1040
sg49
((lp1041
(F0.020000000004074536
I25
tp1042
aF40.0
tp1043
sg75
((lp1044
F40.010000000002037
tp1045
sg105
((lp1046
(F0.08000000000174623
I8
tp1047
aF40.010000000002037
tp1048
sg134
((lp1049
(F0.029999999998835847
I32
tp1050
a(F1.180000000000291
I30
tp1051
aF40.0
tp1052
ssba(imeasure_core
ProblemSetSolution
p1053
(dp1054
g3
g205
sg162
g1037
sg164
(dp1055
g209
((lp1056
F40.25
tp1057
sg266
((lp1058
(F2.0100000000020373
I50
tp1059
a(F17.92000000000553
I49
tp1060
a(F27.80000000000291
I48
tp1061
aF40.0
tp1062
sg321
((lp1063
F40.020000000004075
tp1064
sg370
((lp1065
F40.010000000002037
tp1066
sg419
((lp1067
(F0.20999999999912689
I7
tp1068
aF40.19999999999709
tp1069
ssba(imeasure_core
ProblemSetSolution
p1070
(dp1071
g3
g483
sg162
g1037
sg164
(dp1072
g487
((lp1073
F41.019999999996799
tp1074
sg541
((lp1075
F40.139999999999418
tp1076
sg592
((lp1077
F40.010000000002037
tp1078
sg635
((lp1079
F40.239999999997963
tp1080
sg685
((lp1081
F40.370000000002619
tp1082
ssba(imeasure_core
ProblemSetSolution
p1083
(dp1084
g3
g4
sg162
S"AnytimeBeam-w15-gf(1.3, 'exp')_with_LinearHeuristic"
p1085
sg164
(dp1086
g8
((lp1087
F40.049999999995634
tp1088
sg49
((lp1089
(F0.020000000004074536
I25
tp1090
aF40.0
tp1091
sg75
((lp1092
F40.030000000006112
tp1093
sg105
((lp1094
(F0.16999999999825377
I8
tp1095
aF40.039999999993597
tp1096
sg134
((lp1097
(F0.030000000006111804
I32
tp1098
a(F1.3500000000058208
I30
tp1099
aF40.0
tp1100
ssba(imeasure_core
ProblemSetSolution
p1101
(dp1102
g3
g205
sg162
g1085
sg164
(dp1103
g209
((lp1104
F40.060000000004948
tp1105
sg266
((lp1106
(F1.3099999999976717
I50
tp1107
a(F20.19999999999709
I49
tp1108
a(F32.0
I48
tp1109
aF40.040000000000873
tp1110
sg321
((lp1111
F40.009999999994761
tp1112
sg370
((lp1113
F40.190000000002328
tp1114
sg419
((lp1115
(F0.41999999999825377
I7
tp1116
aF40.129999999997381
tp1117
ssba(imeasure_core
ProblemSetSolution
p1118
(dp1119
g3
g483
sg162
g1085
sg164
(dp1120
g487
((lp1121
F41.410000000003492
tp1122
sg541
((lp1123
F40.110000000000582
tp1124
sg592
((lp1125
F40.089999999996508
tp1126
sg635
((lp1127
F40.309999999997672
tp1128
sg685
((lp1129
F40.440000000002328
tp1130
ssba(imeasure_core
ProblemSetSolution
p1131
(dp1132
g3
g4
sg162
S"AnytimeBeam-w25-gf(1.3, 'exp')_with_LinearHeuristic"
p1133
sg164
(dp1134
g8
((lp1135
F40.0
tp1136
sg49
((lp1137
(F0.019999999996798579
I25
tp1138
aF40.0
tp1139
sg75
((lp1140
(F38.619999999995343
I286
tp1141
aF40.0
tp1142
sg105
((lp1143
(F0.18000000000029104
I8
tp1144
aF40.0
tp1145
sg134
((lp1146
(F0.029999999998835847
I32
tp1147
a(F1.1500000000014552
I30
tp1148
aF40.0
tp1149
ssba(imeasure_core
ProblemSetSolution
p1150
(dp1151
g3
g205
sg162
g1133
sg164
(dp1152
g209
((lp1153
F40.519999999996799
tp1154
sg266
((lp1155
(F1.8100000000049477
I50
tp1156
a(F16.150000000001455
I49
tp1157
a(F26.970000000001164
I48
tp1158
aF40.010000000002037
tp1159
sg321
((lp1160
F40.279999999998836
tp1161
sg370
((lp1162
F40.099999999998545
tp1163
sg419
((lp1164
(F0.51000000000203727
I7
tp1165
aF40.209999999999127
tp1166
ssba(imeasure_core
ProblemSetSolution
p1167
(dp1168
g3
g483
sg162
g1133
sg164
(dp1169
g487
((lp1170
F41.440000000002328
tp1171
sg541
((lp1172
F40.110000000000582
tp1173
sg592
((lp1174
F40.25
tp1175
sg635
((lp1176
F40.189999999995052
tp1177
sg685
((lp1178
F40.270000000004075
tp1179
ssba(imeasure_core
ProblemSetSolution
p1180
(dp1181
g3
g4
sg162
S"AnytimeBeam-w35-gf(1.3, 'exp')_with_LinearHeuristic"
p1182
sg164
(dp1183
g8
((lp1184
F40.059999999997672
tp1185
sg49
((lp1186
(F0.019999999996798579
I25
tp1187
aF40.0
tp1188
sg75
((lp1189
F40.010000000002037
tp1190
sg105
((lp1191
(F0.20999999999912689
I8
tp1192
aF40.049999999995634
tp1193
sg134
((lp1194
(F0.029999999998835847
I32
tp1195
a(F1.0600000000049477
I30
tp1196
aF40.0
tp1197
ssba(imeasure_core
ProblemSetSolution
p1198
(dp1199
g3
g205
sg162
g1182
sg164
(dp1200
g209
((lp1201
F40.450000000004366
tp1202
sg266
((lp1203
(F3.0199999999967986
I50
tp1204
a(F15.610000000000582
I49
tp1205
a(F27.930000000000291
I48
tp1206
aF40.0
tp1207
sg321
((lp1208
F40.479999999995925
tp1209
sg370
((lp1210
F40.069999999999709
tp1211
sg419
((lp1212
(F0.63000000000465661
I7
tp1213
aF40.160000000003492
tp1214
ssba(imeasure_core
ProblemSetSolution
p1215
(dp1216
g3
g483
sg162
g1182
sg164
(dp1217
g487
((lp1218
F41.819999999999709
tp1219
sg541
((lp1220
F40.020000000004075
tp1221
sg592
((lp1222
F40.279999999998836
tp1223
sg635
((lp1224
F40.290000000000873
tp1225
sg685
((lp1226
F40.230000000003201
tp1227
ssba(imeasure_core
ProblemSetSolution
p1228
(dp1229
g3
g4
sg162
S"AnytimeBeam-w45-gf(1.3, 'exp')_with_LinearHeuristic"
p1230
sg164
(dp1231
g8
((lp1232
F40.05000000000291
tp1233
sg49
((lp1234
(F0.019999999996798579
I25
tp1235
aF40.0
tp1236
sg75
((lp1237
F40.290000000000873
tp1238
sg105
((lp1239
(F0.22000000000116415
I8
tp1240
aF40.049999999995634
tp1241
sg134
((lp1242
(F0.029999999998835847
I32
tp1243
a(F0.63000000000465661
I30
tp1244
aF40.0
tp1245
ssba(imeasure_core
ProblemSetSolution
p1246
(dp1247
g3
g205
sg162
g1230
sg164
(dp1248
g209
((lp1249
F40.0
tp1250
sg266
((lp1251
(F4.0800000000017462
I50
tp1252
a(F11.880000000004657
I49
tp1253
a(F23.610000000000582
I48
tp1254
aF40.05000000000291
tp1255
sg321
((lp1256
F40.019999999996799
tp1257
sg370
((lp1258
F40.110000000000582
tp1259
sg419
((lp1260
(F0.68000000000029104
I7
tp1261
aF40.0
tp1262
ssba(imeasure_core
ProblemSetSolution
p1263
(dp1264
g3
g483
sg162
g1230
sg164
(dp1265
g487
((lp1266
F41.940000000002328
tp1267
sg541
((lp1268
F40.209999999999127
tp1269
sg592
((lp1270
F40.239999999997963
tp1271
sg635
((lp1272
F40.090000000003783
tp1273
sg685
((lp1274
F40.080000000001746
tp1275
ssba.