(lp0
(imeasure_core
ProblemSetSolution
p1
(dp2
S'roomset'
p3
(imeasure_core
RoomSet
p4
(dp5
S'rooms'
p6
(dp7
(iproblems
RoomID
p8
(dp9
S'width'
p10
I7
sS'dusts'
p11
I8
sS'seed'
p12
I7106521602475165645
sS'obstacles'
p13
(I2
I8
tp14
sS'robots'
p15
I4
sS'height'
p16
I10
sb(imulti_robot_problem
MultiRobotState
p17
(dp18
S'obstacle_locations'
p19
c__builtin__
frozenset
p20
((lp21
(I5
I9
tp22
a(I4
I9
tp23
ag14
a(I3
I8
tp24
a(I5
I2
tp25
a(I5
I8
tp26
atp27
Rp28
sg10
I7
sS'dirt_locations'
p29
g20
((lp30
(I1
I2
tp31
a(I2
I7
tp32
a(I0
I0
tp33
a(I3
I1
tp34
a(I6
I0
tp35
a(I2
I1
tp36
a(I2
I3
tp37
a(I2
I5
tp38
atp39
Rp40
sg15
((I0
I8
tp41
(I4
I5
tp42
(I3
I9
tp43
(I1
I8
tp44
tp45
sg16
I10
sbs(iproblems
RoomID
p46
(dp47
g10
I8
sg11
I10
sg12
I746805015404516437
sg13
(I3
I3
tp48
sg15
I4
sg16
I10
sb(imulti_robot_problem
MultiRobotState
p49
(dp50
g19
g20
((lp51
g48
a(I6
I1
tp52
a(I3
I1
tp53
a(I1
I4
tp54
a(I7
I4
tp55
a(I4
I2
tp56
a(I4
I1
tp57
atp58
Rp59
sg10
I8
sg29
g20
((lp60
(I4
I6
tp61
a(I6
I3
tp62
a(I2
I0
tp63
a(I3
I9
tp64
a(I2
I3
tp65
a(I3
I6
tp66
a(I5
I1
tp67
a(I1
I0
tp68
a(I0
I8
tp69
a(I5
I8
tp70
atp71
Rp72
sg15
((I3
I8
tp73
(I4
I8
tp74
(I4
I9
tp75
(I0
I3
tp76
tp77
sg16
I10
sbs(iproblems
RoomID
p78
(dp79
g10
I8
sg11
I5
sg12
I6604845167042249220
sg13
(I4
I5
tp80
sg15
I1
sg16
I9
sb(imulti_robot_problem
MultiRobotState
p81
(dp82
g19
g20
((lp83
(I7
I4
tp84
ag80
a(I5
I4
tp85
a(I6
I1
tp86
a(I6
I5
tp87
atp88
Rp89
sg10
I8
sg29
g20
((lp90
(I2
I8
tp91
a(I1
I0
tp92
a(I1
I1
tp93
a(I4
I3
tp94
a(I4
I8
tp95
atp96
Rp97
sg15
((I3
I6
tp98
tp99
sg16
I9
sbs(iproblems
RoomID
p100
(dp101
g10
I9
sg11
I9
sg12
I8963783824838420066
sg13
(I7
I6
tp102
sg15
I5
sg16
I9
sb(imulti_robot_problem
MultiRobotState
p103
(dp104
g19
g20
((lp105
(I2
I7
tp106
a(I6
I6
tp107
a(I5
I5
tp108
a(I7
I1
tp109
ag102
a(I4
I4
tp110
a(I7
I5
tp111
a(I2
I2
tp112
a(I6
I5
tp113
atp114
Rp115
sg10
I9
sg29
g20
((lp116
(I3
I0
tp117
a(I0
I7
tp118
a(I6
I3
tp119
a(I2
I1
tp120
a(I3
I7
tp121
a(I8
I6
tp122
a(I0
I8
tp123
a(I8
I5
tp124
a(I7
I2
tp125
atp126
Rp127
sg15
((I7
I7
tp128
(I2
I4
tp129
(I3
I2
tp130
(I4
I7
tp131
(I5
I0
tp132
tp133
sg16
I9
sbs(iproblems
RoomID
p134
(dp135
g10
I9
sg11
I6
sg12
I4029557120079369747
sg13
(I7
I4
tp136
sg15
I2
sg16
I7
sb(imulti_robot_problem
MultiRobotState
p137
(dp138
g19
g20
((lp139
(I4
I1
tp140
a(I6
I1
tp141
ag136
a(I7
I5
tp142
a(I8
I5
tp143
a(I8
I4
tp144
atp145
Rp146
sg10
I9
sg29
g20
((lp147
(I2
I6
tp148
a(I6
I6
tp149
a(I3
I0
tp150
a(I2
I5
tp151
a(I1
I1
tp152
a(I5
I3
tp153
atp154
Rp155
sg15
((I6
I0
tp156
(I3
I1
tp157
tp158
sg16
I7
sbssS'name'
p159
S'easy_roomset'
p160
sbsS'name'
p161
S'AnytimeBest-d10_with_PowerHeuristic2'
p162
sS'solutions'
p163
(dp164
g8
((lp165
F40.210000000000001
tp166
sg46
((lp167
F40.340000000000003
tp168
sg78
((lp169
F0.22999999999998977
tp170
sg100
((lp171
(F1.3200000000000074
I7
tp172
aF40.490000000000009
tp173
sg134
((lp174
F40.02000000000001
tp175
ssba(imeasure_core
ProblemSetSolution
p176
(dp177
g3
(imeasure_core
RoomSet
p178
(dp179
S'rooms'
p180
(dp181
(iproblems
RoomID
p182
(dp183
S'width'
p184
I11
sS'dusts'
p185
I6
sS'seed'
p186
I4029557120079369747
sS'obstacles'
p187
(I5
I8
tp188
sS'robots'
p189
I3
sS'height'
p190
I9
sb(imulti_robot_problem
MultiRobotState
p191
(dp192
S'obstacle_locations'
p193
g20
((lp194
(I7
I3
tp195
a(I1
I3
tp196
a(I4
I8
tp197
a(I10
I6
tp198
a(I3
I7
tp199
a(I5
I1
tp200
a(I2
I5
tp201
a(I8
I5
tp202
ag188
a(I10
I7
tp203
a(I4
I4
tp204
a(I6
I3
tp205
a(I3
I6
tp206
a(I7
I1
tp207
a(I1
I4
tp208
a(I9
I6
tp209
a(I10
I5
tp210
a(I4
I6
tp211
a(I6
I1
tp212
a(I1
I7
tp213
a(I9
I5
tp214
a(I2
I4
tp215
a(I8
I4
tp216
atp217
Rp218
sg184
I11
sS'dirt_locations'
p219
g20
((lp220
(I2
I1
tp221
a(I3
I8
tp222
a(I8
I8
tp223
a(I5
I2
tp224
a(I1
I1
tp225
a(I7
I2
tp226
atp227
Rp228
sg189
((I8
I0
tp229
(I3
I1
tp230
(I4
I0
tp231
tp232
sg190
I9
sbs(iproblems
RoomID
p233
(dp234
g184
I12
sg185
I10
sg186
I2569146471088859254
sg187
(I4
I4
tp235
sg189
I4
sg190
I12
sb(imulti_robot_problem
MultiRobotState
p236
(dp237
g193
g20
((lp238
(I5
I4
tp239
a(I5
I5
tp240
a(I4
I8
tp241
a(I4
I5
tp242
a(I11
I2
tp243
ag235
a(I2
I11
tp244
a(I4
I7
tp245
a(I7
I2
tp246
a(I5
I6
tp247
a(I1
I9
tp248
a(I4
I3
tp249
a(I2
I2
tp250
a(I10
I0
tp251
a(I5
I11
tp252
a(I10
I3
tp253
a(I1
I1
tp254
a(I5
I8
tp255
a(I3
I3
tp256
atp257
Rp258
sg184
I12
sg219
g20
((lp259
(I2
I7
tp260
a(I10
I10
tp261
a(I3
I0
tp262
a(I3
I11
tp263
a(I2
I4
tp264
a(I1
I5
tp265
a(I9
I4
tp266
a(I0
I8
tp267
a(I0
I2
tp268
a(I11
I6
tp269
atp270
Rp271
sg189
((I9
I11
tp272
(I7
I10
tp273
(I6
I0
tp274
(I10
I1
tp275
tp276
sg190
I12
sbs(iproblems
RoomID
p277
(dp278
g184
I10
sg185
I6
sg186
I1821862095355237593
sg187
(I2
I4
tp279
sg189
I3
sg190
I10
sb(imulti_robot_problem
MultiRobotState
p280
(dp281
g193
g20
((lp282
(I4
I7
tp283
a(I5
I6
tp284
a(I8
I5
tp285
a(I7
I2
tp286
a(I6
I7
tp287
a(I3
I3
tp288
a(I4
I4
tp289
a(I6
I3
tp290
a(I0
I4
tp291
a(I8
I6
tp292
a(I3
I5
tp293
a(I6
I4
tp294
a(I2
I6
tp295
a(I4
I5
tp296
a(I7
I9
tp297
a(I6
I0
tp298
a(I1
I9
tp299
a(I6
I5
tp300
a(I5
I5
tp301
a(I5
I3
tp302
a(I4
I3
tp303
a(I3
I4
tp304
ag279
atp305
Rp306
sg184
I10
sg219
g20
((lp307
(I7
I0
tp308
a(I2
I8
tp309
a(I0
I6
tp310
a(I2
I3
tp311
a(I5
I1
tp312
a(I9
I6
tp313
atp314
Rp315
sg189
((I2
I2
tp316
(I4
I2
tp317
(I0
I7
tp318
tp319
sg190
I10
sbs(iproblems
RoomID
p320
(dp321
g184
I12
sg185
I6
sg186
I1360307757430227195
sg187
(I4
I5
tp322
sg189
I3
sg190
I12
sb(imulti_robot_problem
MultiRobotState
p323
(dp324
g193
g20
((lp325
(I6
I4
tp326
a(I3
I2
tp327
a(I6
I3
tp328
a(I6
I7
tp329
a(I10
I4
tp330
a(I3
I0
tp331
a(I5
I5
tp332
a(I5
I4
tp333
a(I8
I10
tp334
a(I7
I4
tp335
a(I5
I6
tp336
a(I9
I5
tp337
a(I7
I5
tp338
a(I8
I3
tp339
ag322
a(I6
I2
tp340
a(I5
I1
tp341
a(I5
I3
tp342
a(I8
I5
tp343
a(I6
I5
tp344
a(I4
I0
tp345
atp346
Rp347
sg184
I12
sg219
g20
((lp348
(I3
I3
tp349
a(I9
I2
tp350
a(I5
I7
tp351
a(I4
I3
tp352
a(I0
I2
tp353
a(I11
I6
tp354
atp355
Rp356
sg189
((I11
I11
tp357
(I1
I3
tp358
(I0
I1
tp359
tp360
sg190
I12
sbs(iproblems
RoomID
p361
(dp362
g184
I12
sg185
I7
sg186
I2577854692418029171
sg187
(I5
I4
tp363
sg189
I3
sg190
I11
sb(imulti_robot_problem
MultiRobotState
p364
(dp365
g193
g20
((lp366
(I4
I7
tp367
a(I3
I0
tp368
a(I8
I0
tp369
a(I2
I1
tp370
a(I6
I2
tp371
a(I1
I6
tp372
a(I5
I1
tp373
a(I4
I0
tp374
a(I1
I2
tp375
a(I4
I9
tp376
a(I3
I3
tp377
a(I8
I1
tp378
a(I3
I10
tp379
a(I6
I3
tp380
a(I3
I6
tp381
a(I1
I10
tp382
a(I8
I6
tp383
a(I5
I3
tp384
ag363
a(I2
I6
tp385
a(I7
I1
tp386
a(I6
I0
tp387
a(I1
I9
tp388
a(I4
I2
tp389
a(I0
I8
tp390
a(I3
I5
tp391
a(I0
I1
tp392
a(I7
I0
tp393
a(I3
I4
tp394
a(I6
I1
tp395
a(I3
I1
tp396
a(I3
I8
tp397
a(I5
I2
tp398
a(I2
I4
tp399
atp400
Rp401
sg184
I12
sg219
g20
((lp402
(I4
I10
tp403
a(I10
I5
tp404
a(I2
I8
tp405
a(I7
I6
tp406
a(I4
I4
tp407
a(I10
I1
tp408
a(I9
I7
tp409
atp410
Rp411
sg189
((I10
I6
tp412
(I1
I4
tp413
(I11
I8
tp414
tp415
sg190
I11
sbssS'name'
p416
S'mild_roomset'
p417
sbsg161
g162
sg163
(dp418
g182
((lp419
F40.02000000000001
tp420
sg233
((lp421
F40.489999999999981
tp422
sg277
((lp423
F40.02000000000001
tp424
sg361
((lp425
F40.129999999999995
tp426
sg320
((lp427
F40.050000000000011
tp428
ssba(imeasure_core
ProblemSetSolution
p429
(dp430
g3
(imeasure_core
RoomSet
p431
(dp432
S'rooms'
p433
(dp434
(iproblems
RoomID
p435
(dp436
S'width'
p437
I10
sS'dusts'
p438
I13
sS'seed'
p439
I7106521602475165645
sS'obstacles'
p440
(I5
I3
tp441
sS'robots'
p442
I6
sS'height'
p443
I13
sb(imulti_robot_problem
MultiRobotState
p444
(dp445
S'obstacle_locations'
p446
g20
((lp447
(I1
I2
tp448
a(I0
I9
tp449
a(I6
I11
tp450
a(I0
I5
tp451
a(I5
I11
tp452
a(I5
I6
tp453
a(I8
I12
tp454
a(I2
I11
tp455
a(I7
I1
tp456
a(I0
I12
tp457
a(I6
I3
tp458
a(I7
I12
tp459
a(I2
I3
tp460
a(I0
I4
tp461
a(I4
I5
tp462
a(I6
I12
tp463
a(I3
I4
tp464
a(I7
I2
tp465
ag441
atp466
Rp467
sg437
I10
sS'dirt_locations'
p468
g20
((lp469
(I0
I1
tp470
a(I8
I3
tp471
a(I3
I7
tp472
a(I4
I6
tp473
a(I6
I9
tp474
a(I0
I11
tp475
a(I3
I9
tp476
a(I2
I12
tp477
a(I8
I6
tp478
a(I5
I1
tp479
a(I7
I11
tp480
a(I0
I3
tp481
a(I3
I5
tp482
atp483
Rp484
sg442
((I0
I10
tp485
(I6
I7
tp486
(I4
I11
tp487
(I1
I11
tp488
(I9
I0
tp489
(I3
I1
tp490
tp491
sg443
I13
sbs(iproblems
RoomID
p492
(dp493
g437
I11
sg438
I15
sg439
I746805015404516437
sg440
(I9
I4
tp494
sg442
I6
sg443
I13
sb(imulti_robot_problem
MultiRobotState
p495
(dp496
g446
g20
((lp497
(I10
I5
tp498
a(I10
I6
tp499
a(I5
I5
tp500
a(I4
I8
tp501
a(I4
I5
tp502
a(I8
I0
tp503
a(I6
I0
tp504
a(I4
I4
tp505
a(I1
I8
tp506
a(I3
I9
tp507
a(I5
I3
tp508
a(I9
I7
tp509
ag494
a(I8
I6
tp510
a(I4
I2
tp511
a(I7
I9
tp512
a(I5
I2
tp513
a(I2
I4
tp514
a(I7
I2
tp515
a(I3
I5
tp516
atp517
Rp518
sg437
I11
sg468
g20
((lp519
(I3
I12
tp520
a(I9
I1
tp521
a(I7
I1
tp522
a(I8
I1
tp523
a(I6
I10
tp524
a(I8
I9
tp525
a(I2
I0
tp526
a(I2
I3
tp527
a(I0
I10
tp528
a(I2
I2
tp529
a(I7
I11
tp530
a(I2
I5
tp531
a(I8
I5
tp532
a(I5
I8
tp533
a(I4
I11
tp534
atp535
Rp536
sg442
((I4
I10
tp537
(I6
I11
tp538
(I5
I12
tp539
(I0
I5
tp540
(I1
I0
tp541
(I7
I10
tp542
tp543
sg443
I13
sbs(iproblems
RoomID
p544
(dp545
g437
I12
sg438
I11
sg439
I4029557120079369747
sg440
(I9
I6
tp546
sg442
I6
sg443
I10
sb(imulti_robot_problem
MultiRobotState
p547
(dp548
g446
g20
((lp549
(I11
I7
tp550
a(I4
I4
tp551
a(I5
I5
tp552
a(I7
I1
tp553
a(I10
I7
tp554
a(I9
I8
tp555
a(I10
I6
tp556
a(I1
I6
tp557
a(I3
I6
tp558
a(I1
I7
tp559
ag546
a(I11
I6
tp560
atp561
Rp562
sg437
I12
sg468
g20
((lp563
(I1
I2
tp564
a(I1
I3
tp565
a(I4
I9
tp566
a(I8
I2
tp567
a(I8
I1
tp568
a(I6
I1
tp569
a(I2
I1
tp570
a(I7
I4
tp571
a(I1
I8
tp572
a(I5
I2
tp573
a(I1
I1
tp574
atp575
Rp576
sg442
((I8
I0
tp577
(I4
I1
tp578
(I4
I0
tp579
(I3
I9
tp580
(I8
I9
tp581
(I3
I8
tp582
tp583
sg443
I10
sbs(iproblems
RoomID
p584
(dp585
g437
I11
sg438
I10
sg439
I6604845167042249220
sg440
(I6
I7
tp586
sg442
I5
sg443
I12
sb(imulti_robot_problem
MultiRobotState
p587
(dp588
g446
g20
((lp589
(I9
I0
tp590
ag586
a(I7
I1
tp591
a(I2
I8
tp592
a(I10
I6
tp593
a(I7
I7
tp594
a(I8
I8
tp595
a(I9
I4
tp596
a(I7
I11
tp597
a(I8
I6
tp598
a(I9
I7
tp599
atp600
Rp601
sg437
I11
sg468
g20
((lp602
(I10
I5
tp603
a(I3
I3
tp604
a(I5
I11
tp605
a(I8
I1
tp606
a(I9
I8
tp607
a(I6
I9
tp608
a(I0
I7
tp609
a(I0
I10
tp610
a(I4
I1
tp611
a(I8
I4
tp612
atp613
Rp614
sg442
((I4
I8
tp615
(I1
I0
tp616
(I2
I2
tp617
(I3
I11
tp618
(I6
I5
tp619
tp620
sg443
I12
sbs(iproblems
RoomID
p621
(dp622
g437
I13
sg438
I15
sg439
I2569146471088859254
sg440
(I5
I5
tp623
sg442
I6
sg443
I13
sb(imulti_robot_problem
MultiRobotState
p624
(dp625
g446
g20
((lp626
(I12
I2
tp627
a(I5
I4
tp628
a(I3
I3
tp629
a(I5
I9
tp630
a(I4
I5
tp631
a(I6
I1
tp632
a(I10
I10
tp633
a(I8
I8
tp634
a(I4
I3
tp635
a(I2
I2
tp636
a(I9
I11
tp637
a(I8
I12
tp638
a(I1
I1
tp639
a(I12
I3
tp640
ag623
atp641
Rp642
sg437
I13
sg468
g20
((lp643
(I10
I5
tp644
a(I3
I12
tp645
a(I8
I2
tp646
a(I5
I6
tp647
a(I12
I7
tp648
a(I11
I3
tp649
a(I2
I4
tp650
a(I11
I0
tp651
a(I1
I10
tp652
a(I2
I12
tp653
a(I0
I9
tp654
a(I3
I7
tp655
a(I10
I11
tp656
a(I0
I2
tp657
a(I5
I12
tp658
atp659
Rp660
sg442
((I9
I12
tp661
(I7
I11
tp662
(I7
I0
tp663
(I10
I1
tp664
(I1
I5
tp665
(I4
I0
tp666
tp667
sg443
I13
sbssS'name'
p668
S'heavy_roomset'
p669
sbsg161
g162
sg163
(dp670
g435
((lp671
F41.319999999999993
tp672
sg492
((lp673
F40.629999999999995
tp674
sg584
((lp675
F40.420000000000016
tp676
sg544
((lp677
(F7.0300000000000296
I6
tp678
aF40.160000000000025
tp679
sg621
((lp680
F40.730000000000018
tp681
ssba(imeasure_core
ProblemSetSolution
p682
(dp683
g3
g4
sg161
S'AnytimeBest-d80_with_PowerHeuristic2'
p684
sg163
(dp685
g8
((lp686
(F0.52999999999997272
I15
tp687
aF40.039999999999964
tp688
sg46
((lp689
(F1.8400000000000318
I20
tp690
aF40.059999999999945
tp691
sg78
((lp692
(F0.15000000000009095
I35
tp693
a(F1.32000000000005
I33
tp694
a(F1.9400000000000546
I30
tp695
a(F2.3000000000000682
I26
tp696
a(F3.2800000000000864
I25
tp697
a(F3.4900000000000091
I23
tp698
a(F3.9100000000000819
I21
tp699
a(F5.2800000000000864
I20
tp700
a(F5.5200000000000955
I18
tp701
aF6.5900000000000318
tp702
sg100
((lp703
(F1.32000000000005
I7
tp704
aF40.07000000000005
tp705
sg134
((lp706
(F0.069999999999936335
I18
tp707
aF40.0
tp708
ssba(imeasure_core
ProblemSetSolution
p709
(dp710
g3
g178
sg161
g684
sg163
(dp711
g182
((lp712
(F0.10000000000002274
I15
tp713
aF40.009999999999991
tp714
sg233
((lp715
F40.069999999999936
tp716
sg277
((lp717
(F0.11000000000001364
I13
tp718
aF40.020000000000095
tp719
sg361
((lp720
(F0.53999999999996362
I29
tp721
aF40.009999999999991
tp722
sg320
((lp723
F40.019999999999982
tp724
ssba(imeasure_core
ProblemSetSolution
p725
(dp726
g3
g431
sg161
g684
sg163
(dp727
g435
((lp728
F40.829999999999927
tp729
sg492
((lp730
F40.379999999999995
tp731
sg584
((lp732
(F5.6700000000000728
I21
tp733
aF40.290000000000191
tp734
sg544
((lp735
(F7.0400000000000773
I6
tp736
aF40.159999999999968
tp737
sg621
((lp738
(F39.619999999999891
I27
tp739
aF40.319999999999936
tp740
ssba(imeasure_core
ProblemSetSolution
p741
(dp742
g3
g4
sg161
S'AnytimeBest-d150_with_PowerHeuristic2'
p743
sg163
(dp744
g8
((lp745
(F0.52999999999997272
I15
tp746
aF40.069999999999936
tp747
sg46
((lp748
(F1.8299999999999272
I20
tp749
aF40.130000000000109
tp750
sg78
((lp751
(F0.14999999999986358
I35
tp752
a(F1.3399999999999181
I33
tp753
a(F1.9700000000000273
I30
tp754
a(F2.3299999999999272
I26
tp755
a(F3.3199999999999363
I25
tp756
a(F3.5299999999999727
I23
tp757
a(F3.9499999999998181
I21
tp758
a(F5.3199999999999363
I20
tp759
a(F5.5599999999999454
I18
tp760
aF6.6399999999998727
tp761
sg100
((lp762
(F1.3400000000001455
I7
tp763
aF40.25
tp764
sg134
((lp765
(F0.069999999999936335
I18
tp766
aF40.009999999999991
tp767
ssba(imeasure_core
ProblemSetSolution
p768
(dp769
g3
g178
sg161
g743
sg163
(dp770
g182
((lp771
(F0.11000000000012733
I15
tp772
aF40.009999999999991
tp773
sg233
((lp774
(F8.4300000000000637
I122
tp775
aF40.049999999999955
tp776
sg277
((lp777
(F0.11000000000012733
I13
tp778
aF40.010000000000218
tp779
sg361
((lp780
(F0.53999999999996362
I29
tp781
aF40.009999999999991
tp782
sg320
((lp783
F40.009999999999991
tp784
ssba(imeasure_core
ProblemSetSolution
p785
(dp786
g3
g431
sg161
g743
sg163
(dp787
g435
((lp788
F40.879999999999882
tp789
sg492
((lp790
F40.5
tp791
sg584
((lp792
(F5.5799999999999272
I21
tp793
aF40.220000000000027
tp794
sg544
((lp795
(F7.0799999999999272
I6
tp796
aF40.160000000000082
tp797
sg621
((lp798
(F39.6099999999999
I27
tp799
aF40.319999999999936
tp800
ssba(imeasure_core
ProblemSetSolution
p801
(dp802
g3
g4
sg161
S'AnytimeBest-d250_with_PowerHeuristic2'
p803
sg163
(dp804
g8
((lp805
(F0.52999999999997272
I15
tp806
aF40.039999999999964
tp807
sg46
((lp808
(F1.8399999999999181
I20
tp809
aF40.089999999999918
tp810
sg78
((lp811
(F0.14000000000010004
I35
tp812
a(F1.3200000000001637
I33
tp813
a(F1.9300000000000637
I30
tp814
a(F2.290000000000191
I26
tp815
a(F3.2800000000002001
I25
tp816
a(F3.4900000000000091
I23
tp817
a(F3.9000000000000909
I21
tp818
a(F5.2700000000002092
I20
tp819
a(F5.5100000000002183
I18
tp820
aF6.5900000000001455
tp821
sg100
((lp822
(F1.3099999999999454
I7
tp823
aF40.339999999999918
tp824
sg134
((lp825
(F0.069999999999936335
I18
tp826
aF40.0
tp827
ssba(imeasure_core
ProblemSetSolution
p828
(dp829
g3
g178
sg161
g803
sg163
(dp830
g182
((lp831
(F0.11000000000012733
I15
tp832
aF40.009999999999991
tp833
sg233
((lp834
(F8.3200000000001637
I122
tp835
aF40.049999999999955
tp836
sg277
((lp837
(F0.11000000000012733
I13
tp838
aF40.009999999999991
tp839
sg361
((lp840
(F0.53999999999996362
I29
tp841
aF40.009999999999991
tp842
sg320
((lp843
F40.040000000000191
tp844
ssba(imeasure_core
ProblemSetSolution
p845
(dp846
g3
g431
sg161
g803
sg163
(dp847
g435
((lp848
F40.860000000000127
tp849
sg492
((lp850
F40.489999999999782
tp851
sg584
((lp852
(F5.5700000000001637
I21
tp853
aF40.290000000000418
tp854
sg544
((lp855
(F7.1100000000001273
I6
tp856
aF40.199999999999818
tp857
sg621
((lp858
(F39.709999999999582
I27
tp859
aF40.319999999999709
tp860
ssba(imeasure_core
ProblemSetSolution
p861
(dp862
g3
g4
sg161
S'AnytimeBest-d400_with_PowerHeuristic2'
p863
sg163
(dp864
g8
((lp865
(F0.52999999999974534
I15
tp866
aF40.099999999999909
tp867
sg46
((lp868
(F1.8400000000001455
I20
tp869
aF40.170000000000073
tp870
sg78
((lp871
(F0.15000000000009095
I35
tp872
a(F1.319999999999709
I33
tp873
a(F1.9400000000000546
I30
tp874
a(F2.2999999999997272
I26
tp875
a(F3.2799999999997453
I25
tp876
a(F3.4899999999997817
I23
tp877
a(F3.9000000000000909
I21
tp878
a(F5.2699999999999818
I20
tp879
a(F5.5099999999997635
I18
tp880
aF6.5999999999999091
tp881
sg100
((lp882
(F1.3200000000001637
I7
tp883
aF40.309999999999945
tp884
sg134
((lp885
(F0.070000000000163709
I18
tp886
aF40.0
tp887
ssba(imeasure_core
ProblemSetSolution
p888
(dp889
g3
g178
sg161
g863
sg163
(dp890
g182
((lp891
(F0.099999999999909051
I15
tp892
aF40.009999999999764
tp893
sg233
((lp894
(F8.3299999999999272
I122
tp895
aF40.050000000000182
tp896
sg277
((lp897
(F0.099999999999909051
I13
tp898
aF40.019999999999982
tp899
sg361
((lp900
(F0.53999999999996362
I29
tp901
aF40.010000000000218
tp902
sg320
((lp903
F40.049999999999727
tp904
ssba(imeasure_core
ProblemSetSolution
p905
(dp906
g3
g431
sg161
g863
sg163
(dp907
g435
((lp908
F40.869999999999891
tp909
sg492
((lp910
F40.470000000000255
tp911
sg584
((lp912
(F5.5600000000004002
I21
tp913
aF40.410000000000309
tp914
sg544
((lp915
(F7.0999999999999091
I6
tp916
aF40.229999999999563
tp917
sg621
((lp918
(F39.739999999999782
I27
tp919
aF40.319999999999709
tp920
ssba(imeasure_core
ProblemSetSolution
p921
(dp922
g3
g4
sg161
S'AnytimeBest-d1000_with_PowerHeuristic2'
p923
sg163
(dp924
g8
((lp925
(F0.53000000000020009
I15
tp926
aF40.050000000000182
tp927
sg46
((lp928
(F1.8399999999996908
I20
tp929
aF40.059999999999945
tp930
sg78
((lp931
(F0.1499999999996362
I35
tp932
a(F1.3299999999999272
I33
tp933
a(F1.9499999999998181
I30
tp934
a(F2.3099999999999454
I26
tp935
a(F3.3099999999999454
I25
tp936
a(F3.5199999999999818
I23
tp937
a(F3.9400000000000546
I21
tp938
a(F5.319999999999709
I20
tp939
a(F5.5599999999999454
I18
tp940
aF6.6499999999996362
tp941
sg100
((lp942
(F1.3200000000001637
I7
tp943
aF40.300000000000182
tp944
sg134
((lp945
(F0.070000000000163709
I18
tp946
aF40.0
tp947
ssba(imeasure_core
ProblemSetSolution
p948
(dp949
g3
g178
sg161
g923
sg163
(dp950
g182
((lp951
(F0.11000000000012733
I15
tp952
aF40.010000000000218
tp953
sg233
((lp954
(F8.3699999999998909
I122
tp955
aF40.049999999999727
tp956
sg277
((lp957
(F0.11000000000012733
I13
tp958
aF40.010000000000218
tp959
sg361
((lp960
(F0.53999999999996362
I29
tp961
aF40.010000000000218
tp962
sg320
((lp963
F40.279999999999745
tp964
ssba(imeasure_core
ProblemSetSolution
p965
(dp966
g3
g431
sg161
g923
sg163
(dp967
g435
((lp968
F40.900000000000091
tp969
sg492
((lp970
F40.480000000000018
tp971
sg584
((lp972
(F5.5499999999997272
I21
tp973
aF40.099999999999909
tp974
sg544
((lp975
(F7.0900000000001455
I6
tp976
aF40.220000000000255
tp977
sg621
((lp978
(F39.769999999999982
I27
tp979
aF40.319999999999709
tp980
ssba(imeasure_core
ProblemSetSolution
p981
(dp982
g3
g4
sg161
S'AnytimeBest-d10_with_LinearHeuristic'
p983
sg163
(dp984
g8
((lp985
F40.220000000000255
tp986
sg46
((lp987
F40.190000000000055
tp988
sg78
((lp989
F0.75999999999976353
tp990
sg100
((lp991
F40.170000000000073
tp992
sg134
((lp993
(F0.030000000000200089
I10
tp994
aF40.0300000000002
tp995
ssba(imeasure_core
ProblemSetSolution
p996
(dp997
g3
g178
sg161
g983
sg163
(dp998
g182
((lp999
F40.0300000000002
tp1000
sg233
((lp1001
F40.109999999999673
tp1002
sg277
((lp1003
F40.019999999999982
tp1004
sg361
((lp1005
F40.089999999999691
tp1006
sg320
((lp1007
F40.0600000000004
tp1008
ssba(imeasure_core
ProblemSetSolution
p1009
(dp1010
g3
g431
sg161
g983
sg163
(dp1011
g435
((lp1012
F40.230000000000018
tp1013
sg492
((lp1014
F40.300000000000182
tp1015
sg584
((lp1016
F40.130000000000109
tp1017
sg544
((lp1018
(F11.349999999999909
I7
tp1019
aF40.9699999999998
tp1020
sg621
((lp1021
F41.179999999999836
tp1022
ssba(imeasure_core
ProblemSetSolution
p1023
(dp1024
g3
g4
sg161
S'AnytimeBest-d80_with_LinearHeuristic'
p1025
sg163
(dp1026
g8
((lp1027
F40.059999999999945
tp1028
sg46
((lp1029
(F1.8699999999998909
I24
tp1030
aF40.159999999999854
tp1031
sg78
((lp1032
(F0.010000000000218279
I18
tp1033
aF6.3900000000003274
tp1034
sg100
((lp1035
F40.329999999999927
tp1036
sg134
((lp1037
(F0.029999999999745341
I10
tp1038
aF40.029999999999745
tp1039
ssba(imeasure_core
ProblemSetSolution
p1040
(dp1041
g3
g178
sg161
g1025
sg163
(dp1042
g182
((lp1043
F40.039999999999964
tp1044
sg233
((lp1045
F40.140000000000327
tp1046
sg277
((lp1047
F40.019999999999527
tp1048
sg361
((lp1049
F40.029999999999745
tp1050
sg320
((lp1051
F40.039999999999964
tp1052
ssba(imeasure_core
ProblemSetSolution
p1053
(dp1054
g3
g431
sg161
g1025
sg163
(dp1055
g435
((lp1056
F40.25
tp1057
sg492
((lp1058
F40.600000000000364
tp1059
sg584
((lp1060
F40.239999999999782
tp1061
sg544
((lp1062
(F11.359999999999673
I7
tp1063
aF40.970000000000255
tp1064
sg621
((lp1065
F40.889999999999418
tp1066
ssba(imeasure_core
ProblemSetSolution
p1067
(dp1068
g3
g4
sg161
S'AnytimeBest-d150_with_LinearHeuristic'
p1069
sg163
(dp1070
g8
((lp1071
F40.360000000000582
tp1072
sg46
((lp1073
(F1.8799999999991996
I24
tp1074
aF40.119999999999891
tp1075
sg78
((lp1076
(F0.009999999999308784
I18
tp1077
aF6.4099999999998545
tp1078
sg100
((lp1079
(F31.059999999999491
I91
tp1080
aF40.300000000000182
tp1081
sg134
((lp1082
(F0.029999999999745341
I10
tp1083
aF40.019999999999527
tp1084
ssba(imeasure_core
ProblemSetSolution
p1085
(dp1086
g3
g178
sg161
g1069
sg163
(dp1087
g182
((lp1088
F40.029999999999745
tp1089
sg233
((lp1090
F40.039999999999964
tp1091
sg277
((lp1092
(F10.150000000000546
I134
tp1093
a(F11.110000000000582
I133
tp1094
a(F12.210000000000036
I132
tp1095
a(F12.830000000000837
I131
tp1096
aF40.140000000000327
tp1097
sg361
((lp1098
F40.029999999999745
tp1099
sg320
((lp1100
F40.190000000000509
tp1101
ssba(imeasure_core
ProblemSetSolution
p1102
(dp1103
g3
g431
sg161
g1069
sg163
(dp1104
g435
((lp1105
F40.949999999999818
tp1106
sg492
((lp1107
F40.449999999999818
tp1108
sg584
((lp1109
F40.319999999999709
tp1110
sg544
((lp1111
(F11.430000000000291
I7
tp1112
aF40.800000000000182
tp1113
sg621
((lp1114
F40.720000000000255
tp1115
ssba(imeasure_core
ProblemSetSolution
p1116
(dp1117
g3
g4
sg161
S'AnytimeBest-d250_with_LinearHeuristic'
p1118
sg163
(dp1119
g8
((lp1120
(F30.319999999999709
I155
tp1121
aF40.069999999999709
tp1122
sg46
((lp1123
(F1.8800000000001091
I24
tp1124
aF40.119999999999891
tp1125
sg78
((lp1126
(F0.010000000000218279
I18
tp1127
aF6.4099999999998545
tp1128
sg100
((lp1129
(F31.090000000000146
I91
tp1130
aF40.340000000000146
tp1131
sg134
((lp1132
(F0.030000000000654836
I10
tp1133
aF40.020000000000437
tp1134
ssba(imeasure_core
ProblemSetSolution
p1135
(dp1136
g3
g178
sg161
g1118
sg163
(dp1137
g182
((lp1138
F40.170000000000073
tp1139
sg233
((lp1140
F40.179999999999382
tp1141
sg277
((lp1142
(F10.090000000000146
I134
tp1143
a(F11.050000000000182
I133
tp1144
a(F12.160000000000764
I132
tp1145
a(F12.780000000000655
I131
tp1146
aF40.020000000000437
tp1147
sg361
((lp1148
F40.029999999999745
tp1149
sg320
((lp1150
F40.039999999999964
tp1151
ssba(imeasure_core
ProblemSetSolution
p1152
(dp1153
g3
g431
sg161
g1118
sg163
(dp1154
g435
((lp1155
F41.329999999999927
tp1156
sg492
((lp1157
F42.900000000000546
tp1158
sg584
((lp1159
F40.239999999999782
tp1160
sg544
((lp1161
(F11.389999999999418
I7
tp1162
aF41.279999999999745
tp1163
sg621
((lp1164
F41.270000000000437
tp1165
ssba(imeasure_core
ProblemSetSolution
p1166
(dp1167
g3
g4
sg161
S'AnytimeBest-d400_with_LinearHeuristic'
p1168
sg163
(dp1169
g8
((lp1170
(F30.200000000000728
I155
tp1171
aF40.070000000000618
tp1172
sg46
((lp1173
(F1.8800000000001091
I24
tp1174
aF40.179999999999382
tp1175
sg78
((lp1176
(F0.020000000000436557
I18
tp1177
aF6.3600000000005821
tp1178
sg100
((lp1179
(F31.239999999999782
I91
tp1180
aF40.170000000000073
tp1181
sg134
((lp1182
(F0.029999999999745341
I10
tp1183
aF40.019999999999527
tp1184
ssba(imeasure_core
ProblemSetSolution
p1185
(dp1186
g3
g178
sg161
g1168
sg163
(dp1187
g182
((lp1188
F40.030000000000655
tp1189
sg233
((lp1190
F40.199999999999818
tp1191
sg277
((lp1192
(F10.1899999999996
I134
tp1193
a(F11.149999999999636
I133
tp1194
a(F12.25
I132
tp1195
a(F12.869999999999891
I131
tp1196
aF40.019999999999527
tp1197
sg361
((lp1198
F40.039999999999964
tp1199
sg320
((lp1200
F40.039999999999964
tp1201
ssba(imeasure_core
ProblemSetSolution
p1202
(dp1203
g3
g431
sg161
g1168
sg163
(dp1204
g435
((lp1205
F40.289999999999964
tp1206
sg492
((lp1207
F40.340000000000146
tp1208
sg584
((lp1209
F40.159999999999854
tp1210
sg544
((lp1211
(F11.369999999999891
I7
tp1212
aF41.0600000000004
tp1213
sg621
((lp1214
F41.139999999999418
tp1215
ssba(imeasure_core
ProblemSetSolution
p1216
(dp1217
g3
g4
sg161
S'AnytimeBest-d1000_with_LinearHeuristic'
p1218
sg163
(dp1219
g8
((lp1220
(F30.170000000000073
I155
tp1221
aF40.069999999999709
tp1222
sg46
((lp1223
(F1.9000000000005457
I24
tp1224
aF40.110000000000582
tp1225
sg78
((lp1226
(F0.010000000000218279
I18
tp1227
aF6.4299999999993815
tp1228
sg100
((lp1229
(F31.130000000000109
I91
tp1230
aF40.170000000000073
tp1231
sg134
((lp1232
(F0.030000000000654836
I10
tp1233
aF40.020000000000437
tp1234
ssba(imeasure_core
ProblemSetSolution
p1235
(dp1236
g3
g178
sg161
g1218
sg163
(dp1237
g182
((lp1238
F40.090000000000146
tp1239
sg233
((lp1240
F40.289999999999964
tp1241
sg277
((lp1242
(F10.319999999999709
I134
tp1243
a(F11.289999999999964
I133
tp1244
a(F12.409999999999854
I132
tp1245
a(F13.039999999999964
I131
tp1246
aF40.019999999999527
tp1247
sg361
((lp1248
F40.030000000000655
tp1249
sg320
((lp1250
F40.25
tp1251
ssba(imeasure_core
ProblemSetSolution
p1252
(dp1253
g3
g431
sg161
g1218
sg163
(dp1254
g435
((lp1255
F40.349999999999454
tp1256
sg492
((lp1257
F42.760000000000218
tp1258
sg584
((lp1259
F40.350000000000364
tp1260
sg544
((lp1261
(F11.340000000000146
I7
tp1262
aF41.029999999999745
tp1263
sg621
((lp1264
F41.019999999999527
tp1265
ssba.