(lp0
(imeasure_core
ProblemSetSolution
p1
(dp2
S'roomset'
p3
(imeasure_core
RoomSet
p4
(dp5
S'rooms'
p6
(dp7
(iproblems
RoomID
p8
(dp9
S'dusts'
p10
I9
sS'obstacles'
p11
(I4
I3
tp12
sS'robots'
p13
I3
sS'height'
p14
I7
sS'width'
p15
I10
sS'seed'
p16
I5303071557793489910
sb(imulti_robot_problem
MultiRobotState
p17
(dp18
S'obstacle_locations'
p19
c__builtin__
frozenset
p20
((lp21
(I1
I2
tp22
a(I5
I4
tp23
a(I6
I3
tp24
a(I0
I6
tp25
a(I6
I2
tp26
ag12
a(I0
I4
tp27
a(I8
I6
tp28
a(I5
I2
tp29
atp30
Rp31
sg15
I10
sS'dirt_locations'
p32
g20
((lp33
(I2
I6
tp34
a(I5
I5
tp35
a(I9
I2
tp36
a(I3
I1
tp37
a(I1
I4
tp38
a(I7
I4
tp39
a(I3
I0
tp40
a(I1
I0
tp41
a(I3
I5
tp42
atp43
Rp44
sg13
((I7
I0
tp45
(I4
I5
tp46
(I8
I3
tp47
tp48
sg14
I7
sbs(iproblems
RoomID
p49
(dp50
g10
I8
sg11
(I2
I7
tp51
sg13
I2
sg14
I8
sg15
I8
sg16
I424667538139336375
sb(imulti_robot_problem
MultiRobotState
p52
(dp53
g19
g20
((lp54
g51
a(I0
I6
tp55
a(I1
I7
tp56
a(I0
I7
tp57
a(I4
I5
tp58
atp59
Rp60
sg15
I8
sg32
g20
((lp61
(I2
I6
tp62
a(I7
I1
tp63
a(I2
I0
tp64
a(I3
I7
tp65
a(I1
I0
tp66
a(I1
I1
tp67
a(I6
I5
tp68
a(I4
I0
tp69
atp70
Rp71
sg13
((I3
I2
tp72
(I1
I5
tp73
tp74
sg14
I8
sbs(iproblems
RoomID
p75
(dp76
g10
I10
sg11
(I1
I4
tp77
sg13
I5
sg14
I10
sg15
I10
sg16
I4197933423137232550
sb(imulti_robot_problem
MultiRobotState
p78
(dp79
g19
g20
((lp80
(I1
I3
tp81
a(I3
I3
tp82
ag77
a(I8
I8
tp83
a(I2
I1
tp84
a(I4
I3
tp85
a(I2
I2
tp86
a(I5
I5
tp87
atp88
Rp89
sg15
I10
sg32
g20
((lp90
(I4
I5
tp91
a(I7
I6
tp92
a(I3
I8
tp93
a(I3
I0
tp94
a(I1
I9
tp95
a(I3
I6
tp96
a(I8
I6
tp97
a(I4
I2
tp98
a(I8
I5
tp99
a(I7
I9
tp100
atp101
Rp102
sg13
((I9
I8
tp103
(I8
I9
tp104
(I7
I5
tp105
(I9
I2
tp106
(I1
I7
tp107
tp108
sg14
I10
sbs(iproblems
RoomID
p109
(dp110
g10
I9
sg11
(I2
I5
tp111
sg13
I1
sg14
I10
sg15
I9
sg16
I7727785761036708322
sb(imulti_robot_problem
MultiRobotState
p112
(dp113
g19
g20
((lp114
(I1
I2
tp115
a(I1
I3
tp116
a(I4
I5
tp117
a(I7
I6
tp118
ag111
a(I1
I4
tp119
a(I0
I2
tp120
atp121
Rp122
sg15
I9
sg32
g20
((lp123
(I4
I6
tp124
a(I0
I6
tp125
a(I2
I8
tp126
a(I4
I4
tp127
a(I5
I5
tp128
a(I2
I0
tp129
a(I3
I5
tp130
a(I4
I1
tp131
a(I8
I2
tp132
atp133
Rp134
sg13
((I5
I8
tp135
tp136
sg14
I10
sbs(iproblems
RoomID
p137
(dp138
g10
I10
sg11
(I1
I4
tp139
sg13
I4
sg14
I8
sg15
I7
sg16
I2473443681329398402
sb(imulti_robot_problem
MultiRobotState
p140
(dp141
g19
g20
((lp142
(I1
I2
tp143
a(I1
I3
tp144
a(I5
I6
tp145
a(I2
I2
tp146
ag139
a(I2
I0
tp147
a(I3
I6
tp148
a(I0
I4
tp149
atp150
Rp151
sg15
I7
sg32
g20
((lp152
(I4
I6
tp153
a(I6
I6
tp154
a(I3
I1
tp155
a(I1
I5
tp156
a(I5
I0
tp157
a(I1
I7
tp158
a(I5
I1
tp159
a(I2
I5
tp160
a(I5
I2
tp161
a(I4
I0
tp162
atp163
Rp164
sg13
((I0
I2
tp165
(I4
I7
tp166
(I5
I5
tp167
(I4
I1
tp168
tp169
sg14
I8
sbssS'name'
p170
S'easy_roomset'
p171
sbsg170
S'LimitedTimeAStar_with_PowerHeuristic2'
p172
sS'solutions'
p173
(dp174
g8
((lp175
(F0.17000000000000001
I16
tp176
aF0.17000000000000001
tp177
sg49
((lp178
F300.10999999999996
tp179
sg75
((lp180
F302.00000000000006
tp181
sg109
((lp182
F2.6200000000000045
tp183
sg137
((lp184
(F0.24000000000000909
I11
tp185
aF0.24000000000000909
tp186
ssba(imeasure_core
ProblemSetSolution
p187
(dp188
g3
(imeasure_core
RoomSet
p189
(dp190
g6
(dp191
(iproblems
RoomID
p192
(dp193
g10
I9
sg11
(I4
I3
tp194
sg13
I3
sg14
I9
sg15
I12
sg16
I5303071557793489910
sb(imulti_robot_problem
MultiRobotState
p195
(dp196
g19
g20
((lp197
(I6
I4
tp198
a(I1
I3
tp199
a(I10
I4
tp200
a(I6
I6
tp201
a(I9
I8
tp202
a(I0
I7
tp203
a(I4
I6
tp204
a(I2
I1
tp205
a(I7
I5
tp206
a(I0
I5
tp207
a(I1
I4
tp208
a(I3
I7
tp209
a(I9
I6
tp210
a(I5
I8
tp211
a(I3
I3
tp212
a(I8
I3
tp213
a(I5
I5
tp214
a(I0
I6
tp215
a(I9
I2
tp216
a(I2
I4
tp217
a(I6
I3
tp218
a(I1
I5
tp219
a(I6
I5
tp220
ag194
a(I2
I3
tp221
a(I5
I2
tp222
a(I1
I1
tp223
a(I8
I4
tp224
atp225
Rp226
sg15
I12
sg32
g20
((lp227
(I2
I7
tp228
a(I6
I7
tp229
a(I9
I1
tp230
a(I11
I3
tp231
a(I2
I0
tp232
a(I8
I6
tp233
a(I0
I8
tp234
a(I4
I1
tp235
a(I4
I0
tp236
atp237
Rp238
sg13
((I9
I0
tp239
(I5
I7
tp240
(I10
I3
tp241
tp242
sg14
I9
sbs(iproblems
RoomID
p243
(dp244
g10
I9
sg11
(I5
I7
tp245
sg13
I3
sg14
I12
sg15
I11
sg16
I7727785761036708322
sb(imulti_robot_problem
MultiRobotState
p246
(dp247
g19
g20
((lp248
(I5
I9
tp249
a(I6
I9
tp250
a(I6
I10
tp251
a(I3
I8
tp252
a(I4
I8
tp253
a(I5
I6
tp254
a(I8
I11
tp255
a(I4
I7
tp256
a(I1
I4
tp257
a(I4
I6
tp258
a(I2
I6
tp259
a(I3
I7
tp260
a(I5
I4
tp261
a(I7
I11
tp262
a(I0
I3
tp263
a(I6
I8
tp264
a(I1
I0
tp265
a(I5
I8
tp266
a(I3
I5
tp267
a(I6
I4
tp268
a(I6
I3
tp269
a(I5
I10
tp270
a(I5
I5
tp271
a(I2
I9
tp272
a(I4
I4
tp273
a(I7
I4
tp274
a(I1
I5
tp275
ag245
a(I4
I5
tp276
atp277
Rp278
sg15
I11
sg32
g20
((lp279
(I1
I3
tp280
a(I9
I2
tp281
a(I9
I3
tp282
a(I1
I8
tp283
a(I3
I9
tp284
a(I1
I7
tp285
a(I5
I1
tp286
a(I1
I1
tp287
a(I9
I7
tp288
atp289
Rp290
sg13
((I0
I8
tp291
(I7
I6
tp292
(I3
I0
tp293
tp294
sg14
I12
sbs(iproblems
RoomID
p295
(dp296
g10
I10
sg11
(I8
I7
tp297
sg13
I4
sg14
I10
sg15
I9
sg16
I2473443681329398402
sb(imulti_robot_problem
MultiRobotState
p298
(dp299
g19
g20
((lp300
(I4
I7
tp301
a(I1
I3
tp302
a(I4
I8
tp303
a(I5
I6
tp304
a(I6
I9
tp305
a(I2
I1
tp306
a(I3
I7
tp307
a(I0
I3
tp308
a(I2
I5
tp309
a(I1
I2
tp310
a(I6
I7
tp311
a(I3
I3
tp312
a(I2
I9
tp313
a(I8
I1
tp314
a(I6
I6
tp315
a(I1
I5
tp316
a(I3
I6
tp317
a(I2
I2
tp318
a(I2
I7
tp319
a(I2
I6
tp320
a(I0
I4
tp321
a(I1
I4
tp322
a(I3
I9
tp323
a(I0
I5
tp324
ag297
a(I5
I3
tp325
a(I0
I1
tp326
a(I8
I3
tp327
a(I5
I7
tp328
a(I3
I8
tp329
a(I1
I8
tp330
a(I8
I8
tp331
a(I4
I3
tp332
a(I7
I8
tp333
a(I0
I2
tp334
atp335
Rp336
sg15
I9
sg32
g20
((lp337
(I7
I3
tp338
a(I6
I8
tp339
a(I3
I1
tp340
a(I6
I0
tp341
a(I2
I0
tp342
a(I2
I3
tp343
a(I5
I0
tp344
a(I4
I1
tp345
a(I2
I4
tp346
a(I5
I8
tp347
atp348
Rp349
sg13
((I5
I9
tp350
(I7
I7
tp351
(I6
I2
tp352
(I7
I1
tp353
tp354
sg14
I10
sbs(iproblems
RoomID
p355
(dp356
g10
I10
sg11
(I5
I6
tp357
sg13
I4
sg14
I12
sg15
I12
sg16
I4197933423137232550
sb(imulti_robot_problem
MultiRobotState
p358
(dp359
g19
g20
((lp360
(I4
I7
tp361
a(I1
I3
tp362
a(I10
I11
tp363
a(I6
I6
tp364
ag357
a(I9
I8
tp365
a(I2
I1
tp366
a(I5
I1
tp367
a(I2
I5
tp368
a(I8
I5
tp369
a(I1
I2
tp370
a(I6
I7
tp371
a(I5
I5
tp372
a(I7
I6
tp373
a(I4
I8
tp374
a(I8
I10
tp375
a(I2
I2
tp376
a(I8
I6
tp377
a(I4
I6
tp378
a(I10
I4
tp379
a(I4
I5
tp380
a(I9
I3
tp381
a(I1
I4
tp382
a(I7
I5
tp383
a(I2
I3
tp384
a(I10
I1
tp385
a(I9
I6
tp386
a(I4
I4
tp387
a(I3
I5
tp388
a(I6
I8
tp389
a(I3
I4
tp390
a(I5
I7
tp391
a(I9
I5
tp392
a(I5
I2
tp393
a(I2
I4
tp394
atp395
Rp396
sg15
I12
sg32
g20
((lp397
(I3
I2
tp398
a(I3
I0
tp399
a(I5
I4
tp400
a(I9
I11
tp401
a(I5
I3
tp402
a(I1
I9
tp403
a(I4
I3
tp404
a(I3
I9
tp405
a(I1
I11
tp406
a(I9
I7
tp407
atp408
Rp409
sg13
((I10
I10
tp410
(I11
I2
tp411
(I1
I8
tp412
(I10
I7
tp413
tp414
sg14
I12
sbs(iproblems
RoomID
p415
(dp416
g10
I10
sg11
(I8
I7
tp417
sg13
I4
sg14
I9
sg15
I11
sg16
I5777958489688151380
sb(imulti_robot_problem
MultiRobotState
p418
(dp419
g19
g20
((lp420
(I7
I3
tp421
a(I3
I2
tp422
ag417
a(I6
I6
tp423
a(I4
I5
tp424
a(I9
I8
tp425
a(I8
I0
tp426
a(I5
I4
tp427
a(I6
I2
tp428
a(I9
I4
tp429
a(I5
I1
tp430
a(I3
I7
tp431
a(I6
I4
tp432
a(I5
I8
tp433
a(I10
I8
tp434
a(I9
I0
tp435
a(I6
I5
tp436
a(I5
I5
tp437
a(I8
I1
tp438
a(I7
I6
tp439
a(I3
I1
tp440
a(I6
I3
tp441
a(I2
I0
tp442
a(I7
I2
tp443
a(I3
I6
tp444
a(I8
I3
tp445
a(I4
I1
tp446
a(I0
I2
tp447
atp448
Rp449
sg15
I11
sg32
g20
((lp450
(I1
I2
tp451
a(I8
I4
tp452
a(I6
I8
tp453
a(I1
I4
tp454
a(I0
I6
tp455
a(I4
I2
tp456
a(I0
I8
tp457
a(I3
I4
tp458
a(I1
I1
tp459
a(I3
I5
tp460
atp461
Rp462
sg13
((I7
I1
tp463
(I7
I7
tp464
(I10
I3
tp465
(I2
I6
tp466
tp467
sg14
I9
sbssg170
S'mild_roomset'
p468
sbsg170
g172
sg173
(dp469
g192
((lp470
F300.18999999999994
tp471
sg243
((lp472
F300.67999999999995
tp473
sg295
((lp474
F300.24000000000001
tp475
sg355
((lp476
F301.33000000000015
tp477
sg415
((lp478
F301.26999999999975
tp479
ssba(imeasure_core
ProblemSetSolution
p480
(dp481
g3
(imeasure_core
RoomSet
p482
(dp483
g6
(dp484
(iproblems
RoomID
p485
(dp486
g10
I14
sg11
(I9
I6
tp487
sg13
I6
sg14
I10
sg15
I13
sg16
I5303071557793489910
sb(imulti_robot_problem
MultiRobotState
p488
(dp489
g19
g20
((lp490
(I5
I9
tp491
a(I3
I1
tp492
a(I11
I4
tp493
a(I10
I4
tp494
a(I9
I8
tp495
a(I9
I3
tp496
a(I10
I5
tp497
a(I0
I7
tp498
a(I7
I5
tp499
a(I9
I4
tp500
a(I2
I5
tp501
a(I8
I5
tp502
a(I8
I3
tp503
a(I5
I5
tp504
a(I11
I5
tp505
ag487
a(I7
I6
tp506
a(I4
I4
tp507
a(I7
I4
tp508
a(I5
I0
tp509
a(I2
I2
tp510
a(I12
I3
tp511
atp512
Rp513
sg15
I13
sg32
g20
((lp514
(I7
I3
tp515
a(I1
I3
tp516
a(I1
I5
tp517
a(I2
I8
tp518
a(I10
I6
tp519
a(I5
I2
tp520
a(I0
I6
tp521
a(I10
I9
tp522
a(I10
I1
tp523
a(I0
I9
tp524
a(I4
I2
tp525
a(I10
I3
tp526
a(I1
I1
tp527
a(I7
I8
tp528
atp529
Rp530
sg13
((I10
I0
tp531
(I5
I7
tp532
(I4
I1
tp533
(I3
I8
tp534
(I2
I0
tp535
(I4
I0
tp536
tp537
sg14
I10
sbs(iproblems
RoomID
p538
(dp539
g10
I13
sg11
(I9
I6
tp540
sg13
I5
sg14
I11
sg15
I11
sg16
I424667538139336375
sb(imulti_robot_problem
MultiRobotState
p541
(dp542
g19
g20
((lp543
(I4
I5
tp544
a(I9
I3
tp545
a(I6
I0
tp546
a(I2
I10
tp547
a(I0
I9
tp548
a(I0
I10
tp549
a(I9
I4
tp550
a(I5
I1
tp551
a(I10
I3
tp552
a(I3
I5
tp553
a(I1
I2
tp554
a(I2
I9
tp555
ag540
a(I4
I4
tp556
a(I1
I10
tp557
a(I9
I5
tp558
a(I4
I0
tp559
a(I4
I1
tp560
atp561
Rp562
sg15
I11
sg32
g20
((lp563
(I5
I9
tp564
a(I4
I7
tp565
a(I6
I7
tp566
a(I4
I10
tp567
a(I3
I0
tp568
a(I6
I1
tp569
a(I8
I3
tp570
a(I9
I10
tp571
a(I1
I9
tp572
a(I8
I7
tp573
a(I2
I2
tp574
a(I7
I6
tp575
a(I5
I3
tp576
atp577
Rp578
sg13
((I4
I3
tp579
(I2
I7
tp580
(I3
I9
tp581
(I1
I0
tp582
(I10
I2
tp583
tp584
sg14
I11
sbs(iproblems
RoomID
p585
(dp586
g10
I15
sg11
(I6
I3
tp587
sg13
I6
sg14
I11
sg15
I10
sg16
I2473443681329398402
sb(imulti_robot_problem
MultiRobotState
p588
(dp589
g19
g20
((lp590
(I4
I10
tp591
a(I4
I3
tp592
a(I4
I6
tp593
a(I7
I10
tp594
a(I5
I6
tp595
a(I9
I3
tp596
a(I2
I1
tp597
a(I6
I2
tp598
a(I2
I3
tp599
a(I2
I5
tp600
a(I9
I6
tp601
a(I7
I2
tp602
a(I5
I3
tp603
a(I7
I4
tp604
a(I6
I7
tp605
a(I3
I3
tp606
a(I8
I1
tp607
a(I7
I6
tp608
a(I2
I4
tp609
ag587
a(I1
I5
tp610
a(I7
I5
tp611
a(I6
I5
tp612
a(I3
I6
tp613
a(I0
I4
tp614
a(I8
I6
tp615
a(I0
I2
tp616
atp617
Rp618
sg15
I10
sg32
g20
((lp619
(I6
I9
tp620
a(I2
I6
tp621
a(I7
I0
tp622
a(I9
I1
tp623
a(I3
I0
tp624
a(I6
I1
tp625
a(I8
I3
tp626
a(I6
I0
tp627
a(I9
I9
tp628
a(I1
I9
tp629
a(I3
I7
tp630
a(I5
I1
tp631
a(I2
I10
tp632
a(I5
I8
tp633
a(I7
I9
tp634
atp635
Rp636
sg13
((I0
I3
tp637
(I6
I10
tp638
(I8
I7
tp639
(I3
I8
tp640
(I4
I1
tp641
(I2
I7
tp642
tp643
sg14
I11
sbs(iproblems
RoomID
p644
(dp645
g10
I14
sg11
(I7
I4
tp646
sg13
I5
sg14
I13
sg15
I12
sg16
I7727785761036708322
sb(imulti_robot_problem
MultiRobotState
p647
(dp648
g19
g20
((lp649
(I7
I3
tp650
a(I2
I6
tp651
a(I6
I4
tp652
a(I7
I12
tp653
a(I1
I4
tp654
a(I2
I10
tp655
a(I8
I6
tp656
a(I3
I7
tp657
a(I0
I3
tp658
a(I1
I0
tp659
a(I7
I2
tp660
a(I8
I12
tp661
a(I6
I1
tp662
a(I4
I4
tp663
ag646
a(I6
I11
tp664
a(I2
I2
tp665
a(I1
I5
tp666
atp667
Rp668
sg15
I12
sg32
g20
((lp669
(I10
I8
tp670
a(I1
I3
tp671
a(I6
I7
tp672
a(I5
I5
tp673
a(I4
I5
tp674
a(I10
I3
tp675
a(I5
I7
tp676
a(I2
I1
tp677
a(I1
I8
tp678
a(I1
I9
tp679
a(I7
I10
tp680
a(I5
I8
tp681
a(I8
I5
tp682
a(I6
I5
tp683
atp684
Rp685
sg13
((I7
I11
tp686
(I0
I8
tp687
(I7
I7
tp688
(I3
I0
tp689
(I3
I10
tp690
tp691
sg14
I13
sbs(iproblems
RoomID
p692
(dp693
g10
I15
sg11
(I4
I7
tp694
sg13
I7
sg14
I13
sg15
I13
sg16
I4197933423137232550
sb(imulti_robot_problem
MultiRobotState
p695
(dp696
g19
g20
((lp697
(I6
I4
tp698
ag694
a(I1
I3
tp699
a(I4
I6
tp700
a(I5
I6
tp701
a(I9
I3
tp702
a(I2
I1
tp703
a(I2
I10
tp704
a(I8
I9
tp705
a(I1
I4
tp706
a(I2
I5
tp707
a(I11
I12
tp708
a(I4
I0
tp709
a(I5
I5
tp710
a(I6
I1
tp711
a(I6
I3
tp712
a(I0
I11
tp713
a(I11
I1
tp714
a(I2
I2
tp715
a(I3
I5
tp716
a(I5
I2
tp717
a(I2
I4
tp718
a(I10
I9
tp719
atp720
Rp721
sg15
I13
sg32
g20
((lp722
(I4
I10
tp723
a(I5
I4
tp724
a(I1
I12
tp725
a(I4
I8
tp726
a(I3
I0
tp727
a(I10
I3
tp728
a(I9
I8
tp729
a(I10
I6
tp730
a(I7
I7
tp731
a(I8
I5
tp732
a(I9
I11
tp733
a(I5
I1
tp734
a(I7
I8
tp735
a(I9
I12
tp736
a(I5
I3
tp737
atp738
Rp739
sg13
((I11
I11
tp740
(I10
I11
tp741
(I10
I7
tp742
(I11
I2
tp743
(I1
I9
tp744
(I11
I8
tp745
(I3
I2
tp746
tp747
sg14
I13
sbssg170
S'heavy_roomset'
p748
sbsg170
g172
sg173
(dp749
g485
((lp750
(F8.8200000000001637
I10
tp751
aF8.9100000000003092
tp752
sg538
((lp753
F301.01999999999998
tp754
sg692
((lp755
F310.75
tp756
sg644
((lp757
F300.23000000000002
tp758
sg585
((lp759
F303.44999999999982
tp760
ssba.