(lp0
(imeasure_core
ProblemSetSolution
p1
(dp2
S'roomset'
p3
(imeasure_core
RoomSet
p4
(dp5
S'rooms'
p6
(dp7
(iproblems
RoomID
p8
(dp9
S'dusts'
p10
I6
sS'obstacles'
p11
(I3
I2
tp12
sS'robots'
p13
I1
sS'height'
p14
I9
sS'width'
p15
I10
sS'seed'
p16
I6832892905590973747
sb(imulti_robot_problem
MultiRobotState
p17
(dp18
S'obstacle_locations'
p19
c__builtin__
frozenset
p20
((lp21
(I3
I0
tp22
a(I2
I0
tp23
ag12
a(I3
I1
tp24
atp25
Rp26
sg15
I10
sS'dirt_locations'
p27
g20
((lp28
(I1
I2
tp29
a(I2
I7
tp30
a(I0
I0
tp31
a(I0
I5
tp32
a(I5
I6
tp33
a(I0
I2
tp34
atp35
Rp36
sg13
((I8
I4
tp37
tp38
sg14
I9
sbs(iproblems
RoomID
p39
(dp40
g10
I7
sg11
(I3
I5
tp41
sg13
I5
sg14
I7
sg15
I9
sg16
I6924344268699531175
sb(imulti_robot_problem
MultiRobotState
p42
(dp43
g19
g20
((lp44
(I2
I6
tp45
a(I1
I6
tp46
a(I3
I6
tp47
ag41
atp48
Rp49
sg15
I9
sg27
g20
((lp50
(I1
I2
tp51
a(I0
I0
tp52
a(I5
I0
tp53
a(I7
I1
tp54
a(I8
I6
tp55
a(I3
I4
tp56
a(I6
I5
tp57
atp58
Rp59
sg13
((I4
I0
tp60
(I7
I2
tp61
(I1
I1
tp62
(I6
I1
tp63
(I8
I4
tp64
tp65
sg14
I7
sbs(iproblems
RoomID
p66
(dp67
g10
I6
sg11
(I3
I1
tp68
sg13
I4
sg14
I8
sg15
I7
sg16
I807570059310326234
sb(imulti_robot_problem
MultiRobotState
p69
(dp70
g19
g20
((lp71
(I6
I3
tp72
a(I4
I2
tp73
ag68
a(I5
I3
tp74
atp75
Rp76
sg15
I7
sg27
g20
((lp77
(I3
I2
tp78
a(I6
I7
tp79
a(I4
I6
tp80
a(I0
I4
tp81
a(I1
I0
tp82
a(I5
I2
tp83
atp84
Rp85
sg13
((I1
I2
tp86
(I0
I1
tp87
(I3
I7
tp88
(I2
I4
tp89
tp90
sg14
I8
sbs(iproblems
RoomID
p91
(dp92
g10
I5
sg11
(I4
I7
tp93
sg13
I3
sg14
I9
sg15
I7
sg16
I2524308075868763041
sb(imulti_robot_problem
MultiRobotState
p94
(dp95
g19
g20
((lp96
(I1
I2
tp97
a(I3
I8
tp98
ag93
a(I4
I6
tp99
a(I4
I1
tp100
a(I2
I4
tp101
a(I3
I5
tp102
atp103
Rp104
sg15
I7
sg27
g20
((lp105
(I2
I6
tp106
a(I5
I2
tp107
a(I3
I3
tp108
a(I0
I7
tp109
a(I3
I6
tp110
atp111
Rp112
sg13
((I0
I6
tp113
(I3
I1
tp114
(I4
I8
tp115
tp116
sg14
I9
sbs(iproblems
RoomID
p117
(dp118
g10
I8
sg11
(I5
I0
tp119
sg13
I4
sg14
I10
sg15
I10
sg16
I3562373307524659409
sb(imulti_robot_problem
MultiRobotState
p120
(dp121
g19
g20
((lp122
(I6
I3
tp123
a(I6
I7
tp124
ag119
a(I3
I6
tp125
a(I8
I1
tp126
a(I7
I0
tp127
a(I6
I0
tp128
atp129
Rp130
sg15
I10
sg27
g20
((lp131
(I1
I3
tp132
a(I2
I9
tp133
a(I7
I6
tp134
a(I7
I7
tp135
a(I8
I9
tp136
a(I1
I8
tp137
a(I1
I6
tp138
a(I2
I2
tp139
atp140
Rp141
sg13
((I9
I8
tp142
(I6
I5
tp143
(I5
I1
tp144
(I8
I8
tp145
tp146
sg14
I10
sbssS'name'
p147
S'easy_roomset'
p148
sbsg147
S'AnytimeBest-dinf_with_PowerHeuristic2'
p149
sS'solutions'
p150
(dp151
g8
((lp152
(F0.51000000000021828
I44
tp153
a(F1.9899999999997817
I43
tp154
a(F2.1399999999994179
I42
tp155
a(F2.3899999999994179
I38
tp156
a(F4.5499999999992724
I37
tp157
a(F4.8299999999999272
I35
tp158
a(F5.1199999999989814
I33
tp159
a(F5.3899999999994179
I31
tp160
a(F7.4699999999993452
I29
tp161
a(F10.010000000000218
I27
tp162
a(F13.319999999999709
I25
tp163
a(F17.270000000000437
I22
tp164
a(F18.229999999999563
I20
tp165
aF18.959999999999127
tp166
sg39
((lp167
(F1.8600000000005821
I7
tp168
aF40.050000000001091
tp169
sg66
((lp170
F40.349999999998545
tp171
sg91
((lp172
(F0.040000000000873115
I7
tp173
aF40.0
tp174
sg117
((lp175
(F0.44000000000050932
I10
tp176
aF40.020000000000437
tp177
ssba(imeasure_core
ProblemSetSolution
p178
(dp179
g3
(imeasure_core
RoomSet
p180
(dp181
g6
(dp182
(iproblems
RoomID
p183
(dp184
g10
I6
sg11
(I6
I2
tp185
sg13
I3
sg14
I11
sg15
I12
sg16
I6832892905590973747
sb(imulti_robot_problem
MultiRobotState
p186
(dp187
g19
g20
((lp188
(I6
I4
tp189
a(I2
I6
tp190
a(I4
I3
tp191
a(I3
I0
tp192
a(I2
I8
tp193
a(I7
I7
tp194
a(I7
I5
tp195
a(I4
I2
tp196
a(I5
I3
tp197
a(I4
I1
tp198
a(I7
I6
tp199
a(I6
I3
tp200
a(I4
I5
tp201
ag185
a(I3
I6
tp202
a(I8
I6
tp203
a(I4
I0
tp204
a(I5
I2
tp205
a(I2
I4
tp206
atp207
Rp208
sg15
I12
sg27
g20
((lp209
(I1
I6
tp210
a(I6
I8
tp211
a(I2
I9
tp212
a(I0
I3
tp213
a(I0
I2
tp214
a(I7
I9
tp215
atp216
Rp217
sg13
((I10
I6
tp218
(I1
I2
tp219
(I0
I0
tp220
tp221
sg14
I11
sbs(iproblems
RoomID
p222
(dp223
g10
I7
sg11
(I3
I1
tp224
sg13
I4
sg14
I9
sg15
I11
sg16
I6924344268699531175
sb(imulti_robot_problem
MultiRobotState
p225
(dp226
g19
g20
((lp227
(I4
I7
tp228
ag224
a(I6
I6
tp229
a(I5
I6
tp230
a(I2
I8
tp231
a(I9
I8
tp232
a(I7
I7
tp233
a(I0
I7
tp234
a(I7
I5
tp235
a(I8
I7
tp236
a(I0
I3
tp237
a(I0
I8
tp238
a(I8
I5
tp239
a(I6
I3
tp240
a(I5
I2
tp241
a(I7
I6
tp242
a(I4
I8
tp243
a(I7
I4
tp244
a(I3
I8
tp245
a(I0
I6
tp246
a(I8
I8
tp247
a(I4
I1
tp248
a(I9
I7
tp249
atp250
Rp251
sg15
I11
sg27
g20
((lp252
(I8
I3
tp253
a(I1
I3
tp254
a(I4
I6
tp255
a(I4
I3
tp256
a(I0
I4
tp257
a(I10
I5
tp258
a(I0
I0
tp259
atp260
Rp261
sg13
((I6
I0
tp262
(I9
I3
tp263
(I1
I1
tp264
(I8
I1
tp265
tp266
sg14
I9
sbs(iproblems
RoomID
p267
(dp268
g10
I10
sg11
(I6
I8
tp269
sg13
I3
sg14
I11
sg15
I10
sg16
I7391799147228763464
sb(imulti_robot_problem
MultiRobotState
p270
(dp271
g19
g20
((lp272
(I5
I9
tp273
a(I4
I7
tp274
a(I4
I6
tp275
a(I4
I8
tp276
a(I4
I5
tp277
a(I6
I9
tp278
a(I0
I7
tp279
a(I1
I4
tp280
a(I3
I7
tp281
a(I5
I8
tp282
ag269
a(I2
I7
tp283
a(I3
I8
tp284
a(I4
I9
tp285
a(I3
I3
tp286
a(I9
I2
tp287
a(I6
I3
tp288
a(I3
I6
tp289
a(I1
I7
tp290
a(I0
I9
tp291
a(I7
I8
tp292
a(I0
I2
tp293
a(I1
I9
tp294
atp295
Rp296
sg15
I10
sg27
g20
((lp297
(I8
I3
tp298
a(I5
I10
tp299
a(I5
I5
tp300
a(I2
I8
tp301
a(I7
I6
tp302
a(I6
I0
tp303
a(I2
I10
tp304
a(I9
I4
tp305
a(I1
I10
tp306
a(I0
I3
tp307
atp308
Rp309
sg13
((I3
I10
tp310
(I7
I1
tp311
(I1
I5
tp312
tp313
sg14
I11
sbs(iproblems
RoomID
p314
(dp315
g10
I6
sg11
(I2
I5
tp316
sg13
I4
sg14
I10
sg15
I9
sg16
I807570059310326234
sb(imulti_robot_problem
MultiRobotState
p317
(dp318
g19
g20
((lp319
(I6
I4
tp320
a(I3
I2
tp321
a(I1
I3
tp322
a(I8
I2
tp323
a(I2
I3
tp324
a(I3
I8
tp325
ag316
a(I1
I0
tp326
a(I1
I2
tp327
a(I7
I4
tp328
a(I4
I1
tp329
a(I3
I3
tp330
a(I3
I4
tp331
a(I1
I1
tp332
a(I6
I3
tp333
a(I2
I0
tp334
a(I1
I8
tp335
a(I2
I2
tp336
a(I5
I2
tp337
a(I0
I2
tp338
a(I8
I4
tp339
atp340
Rp341
sg15
I9
sg27
g20
((lp342
(I7
I3
tp343
a(I2
I6
tp344
a(I1
I6
tp345
a(I4
I2
tp346
a(I5
I8
tp347
a(I7
I9
tp348
atp349
Rp350
sg13
((I6
I2
tp351
(I0
I1
tp352
(I3
I9
tp353
(I3
I5
tp354
tp355
sg14
I10
sbs(iproblems
RoomID
p356
(dp357
g10
I8
sg11
(I11
I7
tp358
sg13
I4
sg14
I12
sg15
I12
sg16
I3562373307524659409
sb(imulti_robot_problem
MultiRobotState
p359
(dp360
g19
g20
((lp361
(I6
I4
tp362
a(I6
I9
tp363
a(I3
I2
tp364
a(I9
I1
tp365
a(I6
I6
tp366
a(I5
I6
tp367
a(I9
I8
tp368
a(I3
I11
tp369
a(I7
I1
tp370
ag358
a(I8
I9
tp371
a(I3
I9
tp372
a(I11
I8
tp373
a(I10
I2
tp374
a(I4
I2
tp375
a(I7
I2
tp376
a(I10
I8
tp377
a(I8
I3
tp378
a(I8
I1
tp379
a(I3
I10
tp380
a(I5
I11
tp381
a(I6
I3
tp382
a(I6
I11
tp383
a(I6
I5
tp384
a(I7
I10
tp385
a(I4
I8
tp386
a(I11
I6
tp387
a(I4
I11
tp388
atp389
Rp390
sg15
I12
sg27
g20
((lp391
(I7
I3
tp392
a(I1
I3
tp393
a(I10
I11
tp394
a(I1
I7
tp395
a(I8
I8
tp396
a(I2
I2
tp397
a(I3
I7
tp398
a(I7
I9
tp399
atp400
Rp401
sg13
((I11
I10
tp402
(I7
I6
tp403
(I10
I10
tp404
(I2
I10
tp405
tp406
sg14
I12
sbssg147
S'mild_roomset'
p407
sbsg147
g149
sg150
(dp408
g183
((lp409
(F0.090000000000145519
I10
tp410
aF40.010000000000218
tp411
sg222
((lp412
F40.200000000000728
tp413
sg267
((lp414
(F0.59999999999854481
I36
tp415
aF40.029999999998836
tp416
sg314
((lp417
(F9.4899999999997817
I108
tp418
aF40.020000000000437
tp419
sg356
((lp420
(F4.3099999999994907
I75
tp421
aF40.090000000000146
tp422
ssba(imeasure_core
ProblemSetSolution
p423
(dp424
g3
(imeasure_core
RoomSet
p425
(dp426
g6
(dp427
(iproblems
RoomID
p428
(dp429
g10
I11
sg11
(I4
I2
tp430
sg13
I5
sg14
I12
sg15
I13
sg16
I6832892905590973747
sb(imulti_robot_problem
MultiRobotState
p431
(dp432
g19
g20
((lp433
(I5
I9
tp434
a(I6
I9
tp435
a(I8
I2
tp436
a(I3
I0
tp437
a(I3
I4
tp438
a(I12
I11
tp439
ag430
a(I4
I1
tp440
a(I4
I0
tp441
atp442
Rp443
sg15
I13
sg27
g20
((lp444
(I2
I7
tp445
a(I9
I0
tp446
a(I6
I8
tp447
a(I4
I5
tp448
a(I2
I8
tp449
a(I8
I10
tp450
a(I2
I10
tp451
a(I1
I7
tp452
a(I3
I7
tp453
a(I2
I5
tp454
a(I0
I8
tp455
atp456
Rp457
sg13
((I11
I6
tp458
(I1
I2
tp459
(I1
I0
tp460
(I0
I3
tp461
(I0
I2
tp462
tp463
sg14
I12
sbs(iproblems
RoomID
p464
(dp465
g10
I12
sg11
(I6
I7
tp466
sg13
I7
sg14
I10
sg15
I12
sg16
I6924344268699531175
sb(imulti_robot_problem
MultiRobotState
p467
(dp468
g19
g20
((lp469
(I4
I7
tp470
ag466
a(I2
I9
tp471
a(I4
I8
tp472
a(I9
I6
tp473
a(I5
I7
tp474
a(I0
I6
tp475
a(I3
I9
tp476
a(I0
I9
tp477
a(I4
I9
tp478
a(I4
I1
tp479
atp480
Rp481
sg15
I12
sg27
g20
((lp482
(I7
I3
tp483
a(I5
I4
tp484
a(I1
I3
tp485
a(I9
I1
tp486
a(I8
I3
tp487
a(I0
I7
tp488
a(I8
I8
tp489
a(I0
I0
tp490
a(I0
I4
tp491
a(I0
I8
tp492
a(I11
I6
tp493
a(I9
I7
tp494
atp495
Rp496
sg13
((I6
I0
tp497
(I10
I4
tp498
(I1
I1
tp499
(I8
I2
tp500
(I11
I5
tp501
(I5
I6
tp502
(I10
I9
tp503
tp504
sg14
I10
sbs(iproblems
RoomID
p505
(dp506
g10
I11
sg11
(I5
I1
tp507
sg13
I7
sg14
I11
sg15
I10
sg16
I807570059310326234
sb(imulti_robot_problem
MultiRobotState
p508
(dp509
g19
g20
((lp510
(I7
I3
tp511
a(I4
I6
tp512
a(I7
I4
tp513
a(I6
I2
tp514
a(I1
I9
tp515
a(I9
I4
tp516
ag507
a(I0
I3
tp517
a(I5
I2
tp518
a(I8
I4
tp519
atp520
Rp521
sg15
I10
sg27
g20
((lp522
(I5
I9
tp523
a(I6
I9
tp524
a(I2
I9
tp525
a(I4
I8
tp526
a(I9
I2
tp527
a(I2
I0
tp528
a(I1
I6
tp529
a(I9
I5
tp530
a(I4
I2
tp531
a(I1
I0
tp532
a(I3
I5
tp533
atp534
Rp535
sg13
((I1
I3
tp536
(I0
I2
tp537
(I4
I10
tp538
(I4
I5
tp539
(I8
I10
tp540
(I8
I3
tp541
(I2
I6
tp542
tp543
sg14
I11
sbs(iproblems
RoomID
p544
(dp545
g10
I13
sg11
(I7
I4
tp546
sg13
I6
sg14
I13
sg15
I13
sg16
I3562373307524659409
sb(imulti_robot_problem
MultiRobotState
p547
(dp548
g19
g20
((lp549
(I7
I3
tp550
a(I5
I4
tp551
a(I4
I9
tp552
a(I9
I1
tp553
a(I5
I9
tp554
a(I8
I1
tp555
a(I11
I2
tp556
a(I9
I3
tp557
a(I3
I11
tp558
a(I11
I7
tp559
ag546
a(I10
I1
tp560
a(I3
I10
tp561
a(I10
I5
tp562
a(I8
I2
tp563
atp564
Rp565
sg15
I13
sg27
g20
((lp566
(I8
I3
tp567
a(I3
I12
tp568
a(I4
I8
tp569
a(I6
I10
tp570
a(I9
I9
tp571
a(I12
I6
tp572
a(I8
I9
tp573
a(I1
I8
tp574
a(I4
I3
tp575
a(I2
I2
tp576
a(I4
I2
tp577
a(I11
I12
tp578
a(I2
I4
tp579
atp580
Rp581
sg13
((I12
I11
tp582
(I7
I6
tp583
(I7
I1
tp584
(I10
I11
tp585
(I2
I11
tp586
(I9
I8
tp587
tp588
sg14
I13
sbs(iproblems
RoomID
p589
(dp590
g10
I15
sg11
(I4
I8
tp591
sg13
I6
sg14
I12
sg15
I11
sg16
I7391799147228763464
sb(imulti_robot_problem
MultiRobotState
p592
(dp593
g19
g20
((lp594
(I6
I4
tp595
a(I4
I7
tp596
ag591
a(I5
I6
tp597
a(I2
I8
tp598
a(I5
I7
tp599
a(I6
I9
tp600
a(I4
I2
tp601
a(I9
I2
tp602
a(I1
I6
tp603
a(I10
I7
tp604
a(I8
I6
tp605
a(I2
I4
tp606
atp607
Rp608
sg15
I11
sg27
g20
((lp609
(I7
I0
tp610
a(I10
I4
tp611
a(I6
I11
tp612
a(I7
I6
tp613
a(I1
I4
tp614
a(I8
I9
tp615
a(I1
I8
tp616
a(I3
I9
tp617
a(I0
I10
tp618
a(I9
I4
tp619
a(I7
I10
tp620
a(I1
I10
tp621
a(I4
I3
tp622
a(I0
I3
tp623
a(I0
I2
tp624
atp625
Rp626
sg13
((I4
I6
tp627
(I3
I11
tp628
(I7
I1
tp629
(I2
I5
tp630
(I5
I9
tp631
(I2
I11
tp632
tp633
sg14
I12
sbssg147
S'heavy_roomset'
p634
sbsg147
g149
sg150
(dp635
g428
((lp636
(F7.569999999999709
I24
tp637
aF40.690000000000509
tp638
sg464
((lp639
F42.010000000000218
tp640
sg505
((lp641
F41.18999999999869
tp642
sg544
((lp643
(F23.390000000001237
I15
tp644
aF40.230000000001382
tp645
sg589
((lp646
F41.239999999999782
tp647
ssba(imeasure_core
ProblemSetSolution
p648
(dp649
g3
g4
sg147
S'AnytimeBest-dinf_with_LinearHeuristic'
p650
sg150
(dp651
g8
((lp652
(F0.0099999999983992893
I20
tp653
aF10.299999999999272
tp654
sg39
((lp655
(F2.069999999999709
I7
tp656
aF40.700000000000728
tp657
sg66
((lp658
F40.079999999999927
tp659
sg91
((lp660
(F1.3899999999994179
I47
tp661
a(F1.5799999999999272
I46
tp662
a(F3.6499999999996362
I45
tp663
a(F5.1099999999987631
I44
tp664
a(F7.1499999999996362
I43
tp665
a(F7.8799999999991996
I42
tp666
a(F9.2299999999995634
I41
tp667
a(F12.8799999999992
I39
tp668
a(F13.649999999999636
I37
tp669
a(F16.389999999999418
I36
tp670
a(F17.319999999999709
I35
tp671
a(F22.519999999998618
I34
tp672
a(F27.229999999999563
I33
tp673
a(F29.699999999998909
I32
tp674
a(F32.93999999999869
I31
tp675
a(F34.0
I30
tp676
a(F36.539999999999054
I29
tp677
aF40.069999999999709
tp678
sg117
((lp679
F40.340000000000146
tp680
ssba(imeasure_core
ProblemSetSolution
p681
(dp682
g3
g180
sg147
g650
sg150
(dp683
g183
((lp684
(F0.18000000000029104
I12
tp685
aF40.039999999999054
tp686
sg222
((lp687
F40.229999999999563
tp688
sg267
((lp689
(F0.57999999999992724
I38
tp690
aF40.020000000000437
tp691
sg314
((lp692
F40.200000000000728
tp693
sg356
((lp694
(F1.25
I31
tp695
a(F2.1199999999989814
I30
tp696
a(F2.9599999999991269
I29
tp697
a(F4.4099999999998545
I28
tp698
a(F5.8699999999989814
I27
tp699
a(F6.9400000000005093
I26
tp700
aF40.049999999999272
tp701
ssba(imeasure_core
ProblemSetSolution
p702
(dp703
g3
g425
sg147
g650
sg150
(dp704
g428
((lp705
F40.659999999999854
tp706
sg464
((lp707
F40.739999999999782
tp708
sg505
((lp709
F43.25
tp710
sg544
((lp711
F40.860000000000582
tp712
sg589
((lp713
F41.329999999999927
tp714
ssba.