(lp0
(imeasure_core
ProblemSetSolution
p1
(dp2
S'roomset'
p3
(imeasure_core
RoomSet
p4
(dp5
S'rooms'
p6
(dp7
(iproblems
RoomID
p8
(dp9
S'width'
p10
I9
sS'dusts'
p11
I10
sS'seed'
p12
I4712128852136459333
sS'obstacles'
p13
(I0
I8
tp14
sS'robots'
p15
I4
sS'height'
p16
I10
sb(imulti_robot_problem
MultiRobotState
p17
(dp18
S'obstacle_locations'
p19
c__builtin__
frozenset
p20
((lp21
(I1
I5
tp22
a(I8
I0
tp23
a(I0
I7
tp24
a(I0
I6
tp25
a(I2
I3
tp26
ag14
a(I1
I1
tp27
atp28
Rp29
sg10
I9
sS'dirt_locations'
p30
g20
((lp31
(I4
I7
tp32
a(I1
I3
tp33
a(I4
I9
tp34
a(I8
I1
tp35
a(I7
I6
tp36
a(I2
I6
tp37
a(I8
I7
tp38
a(I2
I2
tp39
a(I4
I1
tp40
a(I2
I4
tp41
atp42
Rp43
sg15
((I5
I8
tp44
(I6
I9
tp45
(I5
I0
tp46
(I3
I1
tp47
tp48
sg16
I10
sbs(iproblems
RoomID
p49
(dp50
g10
I8
sg11
I9
sg12
I6613812840851947673
sg13
(I3
I4
tp51
sg15
I1
sg16
I7
sb(imulti_robot_problem
MultiRobotState
p52
(dp53
g19
g20
((lp54
(I1
I4
tp55
ag51
a(I2
I4
tp56
a(I2
I1
tp57
a(I3
I5
tp58
atp59
Rp60
sg10
I8
sg30
g20
((lp61
(I6
I4
tp62
a(I5
I4
tp63
a(I6
I0
tp64
a(I7
I5
tp65
a(I1
I6
tp66
a(I2
I2
tp67
a(I0
I5
tp68
a(I4
I1
tp69
a(I4
I0
tp70
atp71
Rp72
sg15
((I3
I1
tp73
tp74
sg16
I7
sbs(iproblems
RoomID
p75
(dp76
g10
I8
sg11
I10
sg12
I2893396244277848635
sg13
(I4
I5
tp77
sg15
I1
sg16
I8
sb(imulti_robot_problem
MultiRobotState
p78
(dp79
g19
g20
((lp80
g77
a(I3
I7
tp81
a(I2
I6
tp82
a(I4
I6
tp83
atp84
Rp85
sg10
I8
sg30
g20
((lp86
(I6
I4
tp87
a(I0
I0
tp88
a(I6
I7
tp89
a(I3
I0
tp90
a(I2
I1
tp91
a(I0
I6
tp92
a(I6
I5
tp93
a(I2
I4
tp94
a(I7
I2
tp95
a(I5
I3
tp96
atp97
Rp98
sg15
((I2
I3
tp99
tp100
sg16
I8
sbs(iproblems
RoomID
p101
(dp102
g10
I7
sg11
I10
sg12
I956523682424107605
sg13
(I4
I8
tp103
sg15
I4
sg16
I10
sb(imulti_robot_problem
MultiRobotState
p104
(dp105
g19
g20
((lp106
(I2
I8
tp107
a(I4
I2
tp108
a(I3
I7
tp109
a(I2
I9
tp110
ag103
atp111
Rp112
sg10
I7
sg30
g20
((lp113
(I5
I9
tp114
a(I4
I7
tp115
a(I1
I3
tp116
a(I3
I3
tp117
a(I6
I1
tp118
a(I5
I4
tp119
a(I0
I4
tp120
a(I5
I3
tp121
a(I5
I2
tp122
a(I5
I5
tp123
atp124
Rp125
sg15
((I1
I9
tp126
(I4
I9
tp127
(I1
I8
tp128
(I0
I3
tp129
tp130
sg16
I10
sbs(iproblems
RoomID
p131
(dp132
g10
I8
sg11
I9
sg12
I4594210616595436404
sg13
(I5
I3
tp133
sg15
I3
sg16
I7
sb(imulti_robot_problem
MultiRobotState
p134
(dp135
g19
g20
((lp136
(I0
I1
tp137
a(I3
I3
tp138
a(I6
I1
tp139
a(I4
I3
tp140
a(I4
I2
tp141
ag133
atp142
Rp143
sg10
I8
sg30
g20
((lp144
(I6
I6
tp145
a(I5
I6
tp146
a(I4
I4
tp147
a(I1
I4
tp148
a(I1
I1
tp149
a(I0
I6
tp150
a(I5
I1
tp151
a(I1
I0
tp152
a(I0
I3
tp153
atp154
Rp155
sg15
((I2
I1
tp156
(I3
I4
tp157
(I3
I6
tp158
tp159
sg16
I7
sbssS'name'
p160
S'easy_roomset'
p161
sbsS'name'
p162
S"AnytimeBeam-w20-gf(2, 'lin')_with_PowerHeuristic2"
p163
sS'solutions'
p164
(dp165
g8
((lp166
(F2.9099999999998545
I51
tp167
aF40.0
tp168
sg49
((lp169
(F0.069999999999708962
I36
tp170
a(F14.540000000000873
I30
tp171
a(F15.259999999998399
I29
tp172
aF40.0
tp173
sg75
((lp174
(F0.36999999999898137
I76
tp175
a(F0.61999999999898137
I63
tp176
a(F6.2599999999983993
I61
tp177
a(F20.740000000001601
I59
tp178
a(F21.549999999999272
I57
tp179
a(F22.450000000000728
I56
tp180
a(F23.650000000001455
I54
tp181
a(F24.759999999998399
I52
tp182
a(F32.619999999998981
I51
tp183
aF40.0
tp184
sg101
((lp185
(F0.34000000000014552
I10
tp186
aF40.069999999999709
tp187
sg131
((lp188
(F1.2299999999995634
I31
tp189
a(F20.090000000000146
I29
tp190
aF40.0
tp191
ssba(imeasure_core
ProblemSetSolution
p192
(dp193
g3
(imeasure_core
RoomSet
p194
(dp195
S'rooms'
p196
(dp197
(iproblems
RoomID
p198
(dp199
S'width'
p200
I11
sS'dusts'
p201
I10
sS'seed'
p202
I4712128852136459333
sS'obstacles'
p203
(I8
I7
tp204
sS'robots'
p205
I4
sS'height'
p206
I12
sb(imulti_robot_problem
MultiRobotState
p207
(dp208
S'obstacle_locations'
p209
g20
((lp210
(I4
I7
tp211
a(I3
I11
tp212
a(I0
I7
tp213
a(I1
I6
tp214
a(I2
I10
tp215
a(I1
I11
tp216
a(I9
I0
tp217
a(I5
I5
tp218
a(I7
I6
tp219
a(I4
I1
tp220
a(I1
I1
tp221
a(I6
I4
tp222
a(I4
I5
tp223
a(I7
I7
tp224
a(I2
I3
tp225
a(I1
I9
tp226
ag204
a(I4
I2
tp227
a(I0
I8
tp228
a(I6
I5
tp229
a(I5
I3
tp230
a(I3
I1
tp231
a(I2
I11
tp232
a(I0
I9
tp233
atp234
Rp235
sg200
I11
sS'dirt_locations'
p236
g20
((lp237
(I2
I7
tp238
a(I9
I1
tp239
a(I9
I8
tp240
a(I3
I3
tp241
a(I5
I1
tp242
a(I2
I5
tp243
a(I3
I4
tp244
a(I2
I4
tp245
a(I5
I8
tp246
a(I9
I7
tp247
atp248
Rp249
sg205
((I6
I10
tp250
(I8
I10
tp251
(I7
I0
tp252
(I5
I11
tp253
tp254
sg206
I12
sbs(iproblems
RoomID
p255
(dp256
g200
I10
sg201
I9
sg202
I4594210616595436404
sg203
(I4
I4
tp257
sg205
I3
sg206
I9
sb(imulti_robot_problem
MultiRobotState
p258
(dp259
g209
g20
((lp260
(I1
I3
tp261
a(I5
I6
tp262
a(I2
I1
tp263
a(I1
I6
tp264
a(I9
I4
tp265
a(I3
I7
tp266
a(I0
I3
tp267
a(I1
I2
tp268
a(I5
I5
tp269
a(I1
I5
tp270
a(I7
I6
tp271
ag257
a(I6
I3
tp272
a(I3
I0
tp273
a(I3
I6
tp274
a(I0
I4
tp275
a(I8
I6
tp276
a(I5
I3
tp277
a(I1
I1
tp278
a(I5
I4
tp279
a(I4
I5
tp280
a(I0
I5
tp281
a(I9
I5
tp282
a(I3
I5
tp283
a(I0
I1
tp284
a(I3
I4
tp285
a(I0
I6
tp286
a(I1
I8
tp287
a(I2
I3
tp288
a(I2
I0
tp289
a(I5
I2
tp290
a(I0
I2
tp291
atp292
Rp293
sg200
I10
sg236
g20
((lp294
(I7
I0
tp295
a(I6
I8
tp296
a(I2
I8
tp297
a(I8
I5
tp298
a(I8
I8
tp299
a(I0
I8
tp300
a(I7
I8
tp301
a(I5
I8
tp302
a(I8
I2
tp303
atp304
Rp305
sg205
((I4
I6
tp306
(I2
I5
tp307
(I6
I1
tp308
tp309
sg206
I9
sbs(iproblems
RoomID
p310
(dp311
g200
I11
sg201
I5
sg202
I1881095652490078568
sg203
(I4
I9
tp312
sg205
I4
sg206
I11
sb(imulti_robot_problem
MultiRobotState
p313
(dp314
g209
g20
((lp315
(I6
I9
tp316
a(I6
I6
tp317
a(I2
I8
tp318
a(I4
I7
tp319
ag312
a(I7
I6
tp320
a(I4
I4
tp321
a(I8
I10
tp322
a(I6
I3
tp323
a(I7
I10
tp324
a(I2
I2
tp325
a(I1
I1
tp326
a(I5
I4
tp327
a(I4
I5
tp328
a(I9
I3
tp329
a(I7
I5
tp330
a(I6
I7
tp331
a(I6
I5
tp332
a(I3
I5
tp333
a(I4
I6
tp334
a(I7
I4
tp335
a(I1
I7
tp336
a(I4
I8
tp337
a(I7
I8
tp338
a(I8
I4
tp339
atp340
Rp341
sg200
I11
sg236
g20
((lp342
(I1
I10
tp343
a(I5
I9
tp344
a(I0
I0
tp345
a(I9
I7
tp346
a(I10
I2
tp347
atp348
Rp349
sg205
((I5
I7
tp350
(I8
I1
tp351
(I3
I1
tp352
(I8
I8
tp353
tp354
sg206
I11
sbs(iproblems
RoomID
p355
(dp356
g200
I12
sg201
I6
sg202
I7529058068588108450
sg203
(I8
I8
tp357
sg205
I4
sg206
I11
sb(imulti_robot_problem
MultiRobotState
p358
(dp359
g209
g20
((lp360
(I5
I9
tp361
a(I6
I9
tp362
a(I9
I1
tp363
a(I6
I6
tp364
a(I7
I7
tp365
a(I3
I7
tp366
a(I5
I8
tp367
a(I8
I2
tp368
a(I5
I5
tp369
a(I7
I6
tp370
a(I4
I4
tp371
a(I1
I5
tp372
a(I7
I2
tp373
a(I3
I6
tp374
a(I2
I2
tp375
a(I1
I10
tp376
a(I4
I10
tp377
a(I3
I2
tp378
a(I2
I6
tp379
a(I10
I4
tp380
a(I7
I1
tp381
a(I7
I5
tp382
a(I4
I6
tp383
a(I6
I8
tp384
a(I7
I4
tp385
ag357
a(I7
I8
tp386
a(I3
I10
tp387
atp388
Rp389
sg200
I12
sg236
g20
((lp390
(I7
I3
tp391
a(I6
I0
tp392
a(I11
I3
tp393
a(I0
I5
tp394
a(I11
I6
tp395
a(I4
I0
tp396
atp397
Rp398
sg205
((I11
I7
tp399
(I6
I2
tp400
(I11
I5
tp401
(I6
I7
tp402
tp403
sg206
I11
sbs(iproblems
RoomID
p404
(dp405
g200
I9
sg201
I8
sg202
I6858376947525423350
sg203
(I5
I0
tp406
sg205
I4
sg206
I9
sb(imulti_robot_problem
MultiRobotState
p407
(dp408
g209
g20
((lp409
(I4
I7
tp410
a(I1
I3
tp411
a(I3
I0
tp412
a(I2
I8
tp413
a(I2
I1
tp414
a(I1
I6
tp415
a(I5
I1
tp416
a(I2
I5
tp417
a(I7
I2
tp418
a(I5
I5
tp419
a(I6
I3
tp420
ag406
a(I2
I2
tp421
a(I6
I4
tp422
a(I7
I1
tp423
a(I6
I0
tp424
a(I2
I3
tp425
a(I0
I8
tp426
a(I2
I7
tp427
a(I6
I1
tp428
a(I5
I7
tp429
a(I3
I8
tp430
a(I1
I8
tp431
a(I4
I3
tp432
a(I3
I4
tp433
a(I2
I4
tp434
atp435
Rp436
sg200
I9
sg236
g20
((lp437
(I8
I3
tp438
a(I7
I0
tp439
a(I4
I6
tp440
a(I6
I6
tp441
a(I8
I0
tp442
a(I8
I8
tp443
a(I7
I5
tp444
a(I8
I4
tp445
atp446
Rp447
sg205
((I1
I1
tp448
(I6
I5
tp449
(I8
I2
tp450
(I1
I5
tp451
tp452
sg206
I9
sbssS'name'
p453
S'mild_roomset'
p454
sbsg162
g163
sg164
(dp455
g198
((lp456
(F1.1999999999970896
I23
tp457
aF40.0
tp458
sg255
((lp459
F40.049999999999272
tp460
sg310
((lp461
(F0.16999999999825377
I7
tp462
aF40.009999999998399
tp463
sg355
((lp464
(F0.7999999999992724
I33
tp465
aF40.040000000000873
tp466
sg404
((lp467
(F0.2999999999992724
I16
tp468
aF40.079999999998108
tp469
ssba(imeasure_core
ProblemSetSolution
p470
(dp471
g3
(imeasure_core
RoomSet
p472
(dp473
S'rooms'
p474
(dp475
(iproblems
RoomID
p476
(dp477
S'width'
p478
I12
sS'dusts'
p479
I15
sS'seed'
p480
I4712128852136459333
sS'obstacles'
p481
(I5
I9
tp482
sS'robots'
p483
I7
sS'height'
p484
I13
sb(imulti_robot_problem
MultiRobotState
p485
(dp486
S'obstacle_locations'
p487
g20
((lp488
g482
a(I4
I9
tp489
a(I5
I5
tp490
a(I2
I8
tp491
a(I3
I1
tp492
a(I4
I12
tp493
a(I9
I4
tp494
a(I1
I7
tp495
a(I1
I10
tp496
a(I3
I12
tp497
a(I3
I9
tp498
a(I0
I8
tp499
a(I5
I2
tp500
atp501
Rp502
sg478
I12
sS'dirt_locations'
p503
g20
((lp504
(I6
I9
tp505
a(I9
I7
tp506
a(I3
I3
tp507
a(I1
I12
tp508
a(I5
I6
tp509
a(I7
I7
tp510
a(I3
I8
tp511
a(I8
I8
tp512
a(I10
I0
tp513
a(I2
I5
tp514
a(I10
I2
tp515
a(I3
I4
tp516
a(I1
I1
tp517
a(I5
I8
tp518
a(I3
I5
tp519
atp520
Rp521
sg483
((I6
I11
tp522
(I8
I11
tp523
(I7
I0
tp524
(I4
I1
tp525
(I6
I12
tp526
(I10
I9
tp527
(I6
I1
tp528
tp529
sg484
I13
sbs(iproblems
RoomID
p530
(dp531
g478
I11
sg479
I14
sg480
I6613812840851947673
sg481
(I5
I5
tp532
sg483
I5
sg484
I10
sb(imulti_robot_problem
MultiRobotState
p533
(dp534
g487
g20
((lp535
(I10
I8
tp536
a(I4
I7
tp537
a(I2
I6
tp538
ag532
a(I6
I6
tp539
a(I4
I5
tp540
a(I8
I5
tp541
a(I7
I4
tp542
a(I3
I6
tp543
a(I6
I3
tp544
a(I0
I6
tp545
a(I7
I5
tp546
a(I1
I6
tp547
a(I1
I3
tp548
a(I8
I7
tp549
a(I8
I6
tp550
a(I3
I8
tp551
a(I3
I7
tp552
a(I10
I3
tp553
a(I2
I4
tp554
a(I3
I5
tp555
atp556
Rp557
sg478
I11
sg503
g20
((lp558
(I6
I4
tp559
a(I3
I2
tp560
a(I4
I9
tp561
a(I4
I6
tp562
a(I9
I8
tp563
a(I8
I0
tp564
a(I9
I7
tp565
a(I8
I8
tp566
a(I5
I0
tp567
a(I1
I0
tp568
a(I8
I4
tp569
a(I5
I2
tp570
a(I6
I1
tp571
a(I3
I3
tp572
atp573
Rp574
sg483
((I5
I1
tp575
(I0
I8
tp576
(I2
I9
tp577
(I4
I1
tp578
(I7
I6
tp579
tp580
sg484
I10
sbs(iproblems
RoomID
p581
(dp582
g478
I11
sg479
I15
sg480
I2893396244277848635
sg481
(I6
I6
tp583
sg483
I5
sg484
I11
sb(imulti_robot_problem
MultiRobotState
p584
(dp585
g487
g20
((lp586
(I7
I3
tp587
a(I4
I7
tp588
a(I5
I5
tp589
a(I4
I8
tp590
a(I5
I6
tp591
a(I2
I8
tp592
ag583
a(I3
I2
tp593
a(I3
I9
tp594
a(I4
I3
tp595
a(I1
I7
tp596
a(I6
I9
tp597
atp598
Rp599
sg478
I11
sg503
g20
((lp600
(I5
I3
tp601
a(I2
I6
tp602
a(I3
I6
tp603
a(I3
I10
tp604
a(I3
I1
tp605
a(I2
I10
tp606
a(I0
I5
tp607
a(I5
I8
tp608
a(I8
I7
tp609
a(I3
I7
tp610
a(I8
I6
tp611
a(I7
I9
tp612
a(I4
I1
tp613
a(I6
I5
tp614
a(I4
I0
tp615
atp616
Rp617
sg483
((I4
I5
tp618
(I0
I9
tp619
(I0
I1
tp620
(I9
I2
tp621
(I8
I10
tp622
tp623
sg484
I11
sbs(iproblems
RoomID
p624
(dp625
g478
I10
sg479
I15
sg480
I956523682424107605
sg481
(I4
I8
tp626
sg483
I6
sg484
I13
sb(imulti_robot_problem
MultiRobotState
p627
(dp628
g487
g20
((lp629
(I2
I7
tp630
a(I5
I9
tp631
a(I6
I9
tp632
a(I5
I0
tp633
a(I4
I9
tp634
a(I9
I4
tp635
ag626
a(I5
I6
tp636
a(I3
I10
tp637
a(I5
I7
tp638
a(I3
I11
tp639
a(I9
I9
tp640
a(I7
I10
tp641
a(I5
I10
tp642
a(I7
I8
tp643
a(I1
I1
tp644
a(I5
I8
tp645
a(I5
I5
tp646
atp647
Rp648
sg478
I10
sg503
g20
((lp649
(I8
I3
tp650
a(I1
I3
tp651
a(I6
I6
tp652
a(I8
I12
tp653
a(I7
I6
tp654
a(I6
I10
tp655
a(I5
I4
tp656
a(I1
I4
tp657
a(I2
I10
tp658
a(I7
I4
tp659
a(I1
I5
tp660
a(I7
I5
tp661
a(I0
I9
tp662
a(I7
I11
tp663
a(I6
I2
tp664
atp665
Rp666
sg483
((I1
I12
tp667
(I6
I12
tp668
(I2
I11
tp669
(I0
I4
tp670
(I9
I1
tp671
(I7
I7
tp672
tp673
sg484
I13
sbs(iproblems
RoomID
p674
(dp675
g478
I10
sg479
I13
sg480
I6858376947525423350
sg481
(I1
I6
tp676
sg483
I7
sg484
I10
sb(imulti_robot_problem
MultiRobotState
p677
(dp678
g487
g20
((lp679
(I2
I7
tp680
a(I8
I6
tp681
a(I4
I7
tp682
a(I1
I3
tp683
a(I2
I9
tp684
ag676
a(I8
I1
tp685
a(I2
I8
tp686
a(I1
I7
tp687
a(I2
I1
tp688
a(I2
I3
tp689
a(I2
I2
tp690
a(I0
I9
tp691
a(I9
I5
tp692
a(I2
I5
tp693
a(I2
I4
tp694
atp695
Rp696
sg478
I10
sg503
g20
((lp697
(I5
I7
tp698
a(I4
I9
tp699
a(I3
I3
tp700
a(I3
I0
tp701
a(I7
I6
tp702
a(I8
I0
tp703
a(I9
I9
tp704
a(I6
I2
tp705
a(I5
I8
tp706
a(I9
I4
tp707
a(I8
I5
tp708
a(I4
I4
tp709
a(I5
I3
tp710
atp711
Rp712
sg483
((I1
I2
tp713
(I7
I5
tp714
(I7
I2
tp715
(I9
I2
tp716
(I1
I5
tp717
(I9
I0
tp718
(I6
I6
tp719
tp720
sg484
I10
sbssS'name'
p721
S'heavy_roomset'
p722
sbsg162
g163
sg164
(dp723
g476
((lp724
F44.579999999998108
tp725
sg530
((lp726
F40.030000000002474
tp727
sg581
((lp728
(F7.930000000000291
I27
tp729
aF40.129999999997381
tp730
sg624
((lp731
(F11.400000000001455
I10
tp732
aF40.740000000001601
tp733
sg674
((lp734
(F31.870000000002619
I14
tp735
aF44.840000000000146
tp736
ssba(imeasure_core
ProblemSetSolution
p737
(dp738
g3
g4
sg162
S"AnytimeBeam-w20-gf(4, 'lin')_with_PowerHeuristic2"
p739
sg164
(dp740
g8
((lp741
(F2.8700000000026193
I51
tp742
aF40.0
tp743
sg49
((lp744
(F0.08000000000174623
I36
tp745
a(F8.069999999999709
I30
tp746
a(F8.7700000000004366
I29
tp747
a(F26.610000000000582
I28
tp748
aF40.0
tp749
sg75
((lp750
(F0.38000000000101863
I63
tp751
a(F3.1200000000026193
I61
tp752
a(F10.980000000003201
I59
tp753
a(F11.770000000000437
I57
tp754
a(F12.680000000000291
I56
tp755
a(F13.860000000000582
I54
tp756
a(F14.990000000001601
I52
tp757
a(F16.940000000002328
I51
tp758
a(F27.710000000002765
I50
tp759
a(F33.270000000000437
I48
tp760
a(F36.319999999999709
I46
tp761
a(F39.430000000000291
I44
tp762
aF40.0
tp763
sg101
((lp764
(F0.34000000000014552
I10
tp765
aF40.080000000001746
tp766
sg131
((lp767
(F1.2299999999995634
I31
tp768
a(F13.419999999998254
I29
tp769
a(F21.270000000000437
I26
tp770
aF40.0
tp771
ssba(imeasure_core
ProblemSetSolution
p772
(dp773
g3
g194
sg162
g739
sg164
(dp774
g198
((lp775
(F1.2200000000011642
I23
tp776
aF40.110000000000582
tp777
sg255
((lp778
F40.059999999997672
tp779
sg310
((lp780
(F0.17000000000189175
I7
tp781
aF40.080000000001746
tp782
sg355
((lp783
(F0.81000000000130967
I33
tp784
aF40.040000000000873
tp785
sg404
((lp786
(F0.2999999999992724
I16
tp787
aF40.020000000000437
tp788
ssba(imeasure_core
ProblemSetSolution
p789
(dp790
g3
g472
sg162
g739
sg164
(dp791
g476
((lp792
F44.709999999999127
tp793
sg530
((lp794
F40.139999999999418
tp795
sg581
((lp796
(F7.9500000000007276
I27
tp797
aF40.130000000001019
tp798
sg624
((lp799
(F11.409999999999854
I10
tp800
aF40.840000000000146
tp801
sg674
((lp802
(F31.859999999996944
I14
tp803
aF44.809999999997672
tp804
ssba(imeasure_core
ProblemSetSolution
p805
(dp806
g3
g4
sg162
S"AnytimeBeam-w20-gf(8, 'lin')_with_PowerHeuristic2"
p807
sg164
(dp808
g8
((lp809
(F2.8600000000005821
I51
tp810
aF40.0
tp811
sg49
((lp812
(F0.069999999999708962
I36
tp813
a(F4.1500000000014552
I30
tp814
a(F4.8500000000021828
I29
tp815
a(F12.470000000001164
I28
tp816
aF40.0
tp817
sg75
((lp818
(F0.40000000000145519
I63
tp819
a(F1.4099999999998545
I61
tp820
a(F5.4000000000014552
I59
tp821
a(F6.1900000000023283
I57
tp822
a(F7.0900000000001455
I56
tp823
a(F8.2900000000008731
I54
tp824
a(F9.430000000000291
I52
tp825
a(F11.389999999999418
I51
tp826
a(F14.260000000002037
I50
tp827
a(F17.159999999999854
I48
tp828
a(F20.210000000002765
I46
tp829
a(F23.340000000000146
I44
tp830
a(F32.139999999999418
I43
tp831
aF40.0
tp832
sg101
((lp833
(F0.34000000000014552
I10
tp834
aF40.0
tp835
sg131
((lp836
(F1.2299999999995634
I31
tp837
a(F7.3300000000017462
I29
tp838
a(F11.110000000000582
I26
tp839
aF40.069999999999709
tp840
ssba(imeasure_core
ProblemSetSolution
p841
(dp842
g3
g194
sg162
g807
sg164
(dp843
g198
((lp844
(F1.2000000000007276
I23
tp845
aF40.110000000000582
tp846
sg255
((lp847
F40.039999999997235
tp848
sg310
((lp849
(F0.17000000000189175
I7
tp850
aF40.06000000000131
tp851
sg355
((lp852
(F0.7999999999992724
I33
tp853
aF40.159999999999854
tp854
sg404
((lp855
(F0.2999999999992724
I16
tp856
aF40.010000000002037
tp857
ssba(imeasure_core
ProblemSetSolution
p858
(dp859
g3
g472
sg162
g807
sg164
(dp860
g476
((lp861
F44.679999999996653
tp862
sg530
((lp863
F40.650000000001455
tp864
sg581
((lp865
(F7.9099999999998545
I27
tp866
aF40.040000000000873
tp867
sg624
((lp868
(F11.399999999997817
I10
tp869
aF41.599999999998545
tp870
sg674
((lp871
(F31.860000000000582
I14
tp872
aF44.850000000002183
tp873
ssba(imeasure_core
ProblemSetSolution
p874
(dp875
g3
g4
sg162
S"AnytimeBeam-w20-gf(16, 'lin')_with_PowerHeuristic2"
p876
sg164
(dp877
g8
((lp878
(F2.8699999999989814
I51
tp879
aF40.06000000000131
tp880
sg49
((lp881
(F0.079999999998108251
I36
tp882
a(F2.3799999999973807
I30
tp883
a(F3.1100000000005821
I29
tp884
a(F8.0499999999992724
I28
tp885
a(F39.430000000000291
I27
tp886
aF40.0
tp887
sg75
((lp888
(F0.48999999999796273
I63
tp889
a(F0.82999999999810825
I61
tp890
a(F2.5799999999981083
I59
tp891
a(F3.3600000000005821
I57
tp892
a(F4.2599999999983993
I56
tp893
a(F5.4799999999995634
I54
tp894
a(F6.6299999999973807
I52
tp895
a(F8.6100000000005821
I51
tp896
a(F11.509999999998399
I50
tp897
a(F14.389999999999418
I48
tp898
a(F17.389999999999418
I46
tp899
a(F20.489999999997963
I44
tp900
a(F29.219999999997526
I43
tp901
a(F37.419999999998254
I42
tp902
aF40.0
tp903
sg101
((lp904
(F0.34000000000014552
I10
tp905
aF40.020000000000437
tp906
sg131
((lp907
(F1.2299999999995634
I31
tp908
a(F4.3799999999973807
I29
tp909
a(F6.1099999999969441
I26
tp910
aF40.0
tp911
ssba(imeasure_core
ProblemSetSolution
p912
(dp913
g3
g194
sg162
g876
sg164
(dp914
g198
((lp915
(F1.2099999999991269
I23
tp916
aF40.069999999999709
tp917
sg255
((lp918
F40.06000000000131
tp919
sg310
((lp920
(F0.16999999999825377
I7
tp921
aF40.200000000000728
tp922
sg355
((lp923
(F0.7999999999992724
I33
tp924
aF40.019999999996799
tp925
sg404
((lp926
(F0.30000000000291038
I16
tp927
aF40.010000000002037
tp928
ssba(imeasure_core
ProblemSetSolution
p929
(dp930
g3
g472
sg162
g876
sg164
(dp931
g476
((lp932
F44.840000000000146
tp933
sg530
((lp934
F40.080000000001746
tp935
sg581
((lp936
(F7.9500000000007276
I27
tp937
aF40.209999999999127
tp938
sg624
((lp939
(F11.400000000001455
I10
tp940
aF40.819999999999709
tp941
sg674
((lp942
(F31.81000000000131
I14
tp943
aF44.779999999998836
tp944
ssba(imeasure_core
ProblemSetSolution
p945
(dp946
g3
g4
sg162
S"AnytimeBeam-w20-gf(2, 'lin')_with_LinearHeuristic"
p947
sg164
(dp948
g8
((lp949
F40.319999999999709
tp950
sg49
((lp951
(F0.010000000002037268
I25
tp952
aF40.0
tp953
sg75
((lp954
(F0.030000000002473826
I32
tp955
a(F4.2700000000004366
I30
tp956
aF40.0
tp957
sg101
((lp958
(F37.780000000002474
I286
tp959
aF40.06000000000131
tp960
sg131
((lp961
(F0.17000000000189175
I8
tp962
aF40.040000000000873
tp963
ssba(imeasure_core
ProblemSetSolution
p964
(dp965
g3
g194
sg162
g947
sg164
(dp966
g198
((lp967
F40.090000000000146
tp968
sg255
((lp969
(F1.6599999999998545
I50
tp970
aF40.020000000000437
tp971
sg310
((lp972
(F0.46999999999752617
I7
tp973
aF40.009999999998399
tp974
sg355
((lp975
F40.25
tp976
sg404
((lp977
F40.06000000000131
tp978
ssba(imeasure_core
ProblemSetSolution
p979
(dp980
g3
g472
sg162
g947
sg164
(dp981
g476
((lp982
F41.569999999999709
tp983
sg530
((lp984
F40.18999999999869
tp985
sg581
((lp986
F40.020000000000437
tp987
sg624
((lp988
F40.260000000002037
tp989
sg674
((lp990
F40.539999999997235
tp991
ssba(imeasure_core
ProblemSetSolution
p992
(dp993
g3
g4
sg162
S"AnytimeBeam-w20-gf(4, 'lin')_with_LinearHeuristic"
p994
sg164
(dp995
g8
((lp996
F40.280000000002474
tp997
sg49
((lp998
(F0.020000000000436557
I25
tp999
aF40.0
tp1000
sg75
((lp1001
(F0.029999999998835847
I32
tp1002
a(F2.3400000000001455
I30
tp1003
aF40.0
tp1004
sg101
((lp1005
(F37.619999999998981
I286
tp1006
aF40.049999999999272
tp1007
sg131
((lp1008
(F0.18000000000029104
I8
tp1009
aF40.040000000000873
tp1010
ssba(imeasure_core
ProblemSetSolution
p1011
(dp1012
g3
g194
sg162
g994
sg164
(dp1013
g198
((lp1014
F40.229999999999563
tp1015
sg255
((lp1016
(F1.680000000000291
I50
tp1017
a(F31.799999999999272
I49
tp1018
a(F38.75
I48
tp1019
aF40.0
tp1020
sg310
((lp1021
(F0.47999999999956344
I7
tp1022
aF40.079999999998108
tp1023
sg355
((lp1024
F40.020000000000437
tp1025
sg404
((lp1026
F40.029999999998836
tp1027
ssba(imeasure_core
ProblemSetSolution
p1028
(dp1029
g3
g472
sg162
g994
sg164
(dp1030
g476
((lp1031
F41.869999999998981
tp1032
sg530
((lp1033
F40.25
tp1034
sg581
((lp1035
F40.069999999999709
tp1036
sg624
((lp1037
F40.350000000002183
tp1038
sg674
((lp1039
F40.44999999999709
tp1040
ssba(imeasure_core
ProblemSetSolution
p1041
(dp1042
g3
g4
sg162
S"AnytimeBeam-w20-gf(8, 'lin')_with_LinearHeuristic"
p1043
sg164
(dp1044
g8
((lp1045
F40.0
tp1046
sg49
((lp1047
(F0.020000000000436557
I25
tp1048
aF40.0
tp1049
sg75
((lp1050
(F0.030000000002473826
I32
tp1051
a(F1.2900000000008731
I30
tp1052
aF40.0
tp1053
sg101
((lp1054
(F37.590000000000146
I286
tp1055
aF40.0
tp1056
sg131
((lp1057
(F0.18000000000029104
I8
tp1058
aF40.020000000000437
tp1059
ssba(imeasure_core
ProblemSetSolution
p1060
(dp1061
g3
g194
sg162
g1043
sg164
(dp1062
g198
((lp1063
F40.119999999998981
tp1064
sg255
((lp1065
(F1.6599999999998545
I50
tp1066
a(F18.389999999999418
I49
tp1067
a(F25.93999999999869
I48
tp1068
a(F36.459999999999127
I47
tp1069
aF40.029999999998836
tp1070
sg310
((lp1071
(F0.47999999999956344
I7
tp1072
aF40.05000000000291
tp1073
sg355
((lp1074
F40.18999999999869
tp1075
sg404
((lp1076
F40.0
tp1077
ssba(imeasure_core
ProblemSetSolution
p1078
(dp1079
g3
g472
sg162
g1043
sg164
(dp1080
g476
((lp1081
F41.690000000002328
tp1082
sg530
((lp1083
F40.25
tp1084
sg581
((lp1085
F40.930000000000291
tp1086
sg624
((lp1087
F40.319999999999709
tp1088
sg674
((lp1089
F40.219999999997526
tp1090
ssba(imeasure_core
ProblemSetSolution
p1091
(dp1092
g3
g4
sg162
S"AnytimeBeam-w20-gf(16, 'lin')_with_LinearHeuristic"
p1093
sg164
(dp1094
g8
((lp1095
F40.200000000000728
tp1096
sg49
((lp1097
(F0.020000000000436557
I25
tp1098
aF40.0
tp1099
sg75
((lp1100
(F0.029999999998835847
I32
tp1101
a(F0.75
I30
tp1102
aF40.0
tp1103
sg101
((lp1104
(F37.649999999997817
I286
tp1105
aF40.020000000000437
tp1106
sg131
((lp1107
(F0.17999999999665306
I8
tp1108
aF40.039999999997235
tp1109
ssba(imeasure_core
ProblemSetSolution
p1110
(dp1111
g3
g194
sg162
g1093
sg164
(dp1112
g198
((lp1113
F40.100000000002183
tp1114
sg255
((lp1115
(F1.6699999999982538
I50
tp1116
a(F11.869999999998981
I49
tp1117
a(F22.049999999999272
I48
tp1118
a(F36.0
I47
tp1119
aF40.009999999998399
tp1120
sg310
((lp1121
(F0.47999999999956344
I7
tp1122
aF40.06000000000131
tp1123
sg355
((lp1124
F40.119999999998981
tp1125
sg404
((lp1126
F40.06000000000131
tp1127
ssba(imeasure_core
ProblemSetSolution
p1128
(dp1129
g3
g472
sg162
g1093
sg164
(dp1130
g476
((lp1131
F41.700000000000728
tp1132
sg530
((lp1133
F40.029999999998836
tp1134
sg581
((lp1135
F40.040000000000873
tp1136
sg624
((lp1137
F40.419999999998254
tp1138
sg674
((lp1139
F40.020000000000437
tp1140
ssba.