(lp0
(imeasure_core
ProblemSetSolution
p1
(dp2
S'roomset'
p3
(imeasure_core
RoomSet
p4
(dp5
S'rooms'
p6
(dp7
(iproblems
RoomID
p8
(dp9
S'width'
p10
I7
sS'dusts'
p11
I8
sS'seed'
p12
I7106521602475165645
sS'obstacles'
p13
(I2
I8
tp14
sS'robots'
p15
I4
sS'height'
p16
I10
sb(imulti_robot_problem
MultiRobotState
p17
(dp18
S'obstacle_locations'
p19
c__builtin__
frozenset
p20
((lp21
(I5
I9
tp22
a(I4
I9
tp23
ag14
a(I3
I8
tp24
a(I5
I2
tp25
a(I5
I8
tp26
atp27
Rp28
sg10
I7
sS'dirt_locations'
p29
g20
((lp30
(I1
I2
tp31
a(I2
I7
tp32
a(I0
I0
tp33
a(I3
I1
tp34
a(I6
I0
tp35
a(I2
I1
tp36
a(I2
I3
tp37
a(I2
I5
tp38
atp39
Rp40
sg15
((I0
I8
tp41
(I4
I5
tp42
(I3
I9
tp43
(I1
I8
tp44
tp45
sg16
I10
sbs(iproblems
RoomID
p46
(dp47
g10
I8
sg11
I10
sg12
I746805015404516437
sg13
(I3
I3
tp48
sg15
I4
sg16
I10
sb(imulti_robot_problem
MultiRobotState
p49
(dp50
g19
g20
((lp51
g48
a(I6
I1
tp52
a(I3
I1
tp53
a(I1
I4
tp54
a(I7
I4
tp55
a(I4
I2
tp56
a(I4
I1
tp57
atp58
Rp59
sg10
I8
sg29
g20
((lp60
(I4
I6
tp61
a(I6
I3
tp62
a(I2
I0
tp63
a(I3
I9
tp64
a(I2
I3
tp65
a(I3
I6
tp66
a(I5
I1
tp67
a(I1
I0
tp68
a(I0
I8
tp69
a(I5
I8
tp70
atp71
Rp72
sg15
((I3
I8
tp73
(I4
I8
tp74
(I4
I9
tp75
(I0
I3
tp76
tp77
sg16
I10
sbs(iproblems
RoomID
p78
(dp79
g10
I8
sg11
I5
sg12
I6604845167042249220
sg13
(I4
I5
tp80
sg15
I1
sg16
I9
sb(imulti_robot_problem
MultiRobotState
p81
(dp82
g19
g20
((lp83
(I7
I4
tp84
ag80
a(I5
I4
tp85
a(I6
I1
tp86
a(I6
I5
tp87
atp88
Rp89
sg10
I8
sg29
g20
((lp90
(I2
I8
tp91
a(I1
I0
tp92
a(I1
I1
tp93
a(I4
I3
tp94
a(I4
I8
tp95
atp96
Rp97
sg15
((I3
I6
tp98
tp99
sg16
I9
sbs(iproblems
RoomID
p100
(dp101
g10
I9
sg11
I9
sg12
I8963783824838420066
sg13
(I7
I6
tp102
sg15
I5
sg16
I9
sb(imulti_robot_problem
MultiRobotState
p103
(dp104
g19
g20
((lp105
(I2
I7
tp106
a(I6
I6
tp107
a(I5
I5
tp108
a(I7
I1
tp109
ag102
a(I4
I4
tp110
a(I7
I5
tp111
a(I2
I2
tp112
a(I6
I5
tp113
atp114
Rp115
sg10
I9
sg29
g20
((lp116
(I3
I0
tp117
a(I0
I7
tp118
a(I6
I3
tp119
a(I2
I1
tp120
a(I3
I7
tp121
a(I8
I6
tp122
a(I0
I8
tp123
a(I8
I5
tp124
a(I7
I2
tp125
atp126
Rp127
sg15
((I7
I7
tp128
(I2
I4
tp129
(I3
I2
tp130
(I4
I7
tp131
(I5
I0
tp132
tp133
sg16
I9
sbs(iproblems
RoomID
p134
(dp135
g10
I9
sg11
I6
sg12
I4029557120079369747
sg13
(I7
I4
tp136
sg15
I2
sg16
I7
sb(imulti_robot_problem
MultiRobotState
p137
(dp138
g19
g20
((lp139
(I4
I1
tp140
a(I6
I1
tp141
ag136
a(I7
I5
tp142
a(I8
I5
tp143
a(I8
I4
tp144
atp145
Rp146
sg10
I9
sg29
g20
((lp147
(I2
I6
tp148
a(I6
I6
tp149
a(I3
I0
tp150
a(I2
I5
tp151
a(I1
I1
tp152
a(I5
I3
tp153
atp154
Rp155
sg15
((I6
I0
tp156
(I3
I1
tp157
tp158
sg16
I7
sbssS'name'
p159
S'easy_roomset'
p160
sbsS'name'
p161
S"AnytimeBeam-w20-gf(2, 'lin')_with_PowerHeuristic2"
p162
sS'solutions'
p163
(dp164
g8
((lp165
(F0.57999999999999996
I15
tp166
aF40.0
tp167
sg46
((lp168
(F1.75
I20
tp169
aF40.070000000000007
tp170
sg78
((lp171
(F0.069999999999993179
I35
tp172
a(F13.409999999999997
I33
tp173
a(F18.5
I30
tp174
a(F19.189999999999998
I26
tp175
a(F19.97999999999999
I25
tp176
a(F20.739999999999995
I23
tp177
a(F21.5
I21
tp178
a(F29.679999999999993
I20
tp179
a(F30.909999999999997
I18
tp180
aF40.0
tp181
sg100
((lp182
(F1.2999999999999972
I7
tp183
aF40.060000000000002
tp184
sg134
((lp185
(F0.090000000000003411
I18
tp186
aF40.0
tp187
ssba(imeasure_core
ProblemSetSolution
p188
(dp189
g3
(imeasure_core
RoomSet
p190
(dp191
S'rooms'
p192
(dp193
(iproblems
RoomID
p194
(dp195
S'width'
p196
I11
sS'dusts'
p197
I6
sS'seed'
p198
I4029557120079369747
sS'obstacles'
p199
(I5
I8
tp200
sS'robots'
p201
I3
sS'height'
p202
I9
sb(imulti_robot_problem
MultiRobotState
p203
(dp204
S'obstacle_locations'
p205
g20
((lp206
(I7
I3
tp207
a(I1
I3
tp208
a(I4
I8
tp209
a(I10
I6
tp210
a(I3
I7
tp211
a(I5
I1
tp212
a(I2
I5
tp213
a(I8
I5
tp214
ag200
a(I10
I7
tp215
a(I4
I4
tp216
a(I6
I3
tp217
a(I3
I6
tp218
a(I7
I1
tp219
a(I1
I4
tp220
a(I9
I6
tp221
a(I10
I5
tp222
a(I4
I6
tp223
a(I6
I1
tp224
a(I1
I7
tp225
a(I9
I5
tp226
a(I2
I4
tp227
a(I8
I4
tp228
atp229
Rp230
sg196
I11
sS'dirt_locations'
p231
g20
((lp232
(I2
I1
tp233
a(I3
I8
tp234
a(I8
I8
tp235
a(I5
I2
tp236
a(I1
I1
tp237
a(I7
I2
tp238
atp239
Rp240
sg201
((I8
I0
tp241
(I3
I1
tp242
(I4
I0
tp243
tp244
sg202
I9
sbs(iproblems
RoomID
p245
(dp246
g196
I12
sg197
I10
sg198
I2569146471088859254
sg199
(I4
I4
tp247
sg201
I4
sg202
I12
sb(imulti_robot_problem
MultiRobotState
p248
(dp249
g205
g20
((lp250
(I5
I4
tp251
a(I5
I5
tp252
a(I4
I8
tp253
a(I4
I5
tp254
a(I11
I2
tp255
ag247
a(I2
I11
tp256
a(I4
I7
tp257
a(I7
I2
tp258
a(I5
I6
tp259
a(I1
I9
tp260
a(I4
I3
tp261
a(I2
I2
tp262
a(I10
I0
tp263
a(I5
I11
tp264
a(I10
I3
tp265
a(I1
I1
tp266
a(I5
I8
tp267
a(I3
I3
tp268
atp269
Rp270
sg196
I12
sg231
g20
((lp271
(I2
I7
tp272
a(I10
I10
tp273
a(I3
I0
tp274
a(I3
I11
tp275
a(I2
I4
tp276
a(I1
I5
tp277
a(I9
I4
tp278
a(I0
I8
tp279
a(I0
I2
tp280
a(I11
I6
tp281
atp282
Rp283
sg201
((I9
I11
tp284
(I7
I10
tp285
(I6
I0
tp286
(I10
I1
tp287
tp288
sg202
I12
sbs(iproblems
RoomID
p289
(dp290
g196
I12
sg197
I7
sg198
I2577854692418029171
sg199
(I5
I4
tp291
sg201
I3
sg202
I11
sb(imulti_robot_problem
MultiRobotState
p292
(dp293
g205
g20
((lp294
(I4
I7
tp295
a(I3
I0
tp296
a(I8
I0
tp297
a(I2
I1
tp298
a(I6
I2
tp299
a(I1
I6
tp300
a(I5
I1
tp301
a(I4
I0
tp302
a(I1
I2
tp303
a(I4
I9
tp304
a(I3
I3
tp305
a(I8
I1
tp306
a(I3
I10
tp307
a(I6
I3
tp308
a(I3
I6
tp309
a(I1
I10
tp310
a(I8
I6
tp311
a(I5
I3
tp312
ag291
a(I2
I6
tp313
a(I7
I1
tp314
a(I6
I0
tp315
a(I1
I9
tp316
a(I4
I2
tp317
a(I0
I8
tp318
a(I3
I5
tp319
a(I0
I1
tp320
a(I7
I0
tp321
a(I3
I4
tp322
a(I6
I1
tp323
a(I3
I1
tp324
a(I3
I8
tp325
a(I5
I2
tp326
a(I2
I4
tp327
atp328
Rp329
sg196
I12
sg231
g20
((lp330
(I4
I10
tp331
a(I10
I5
tp332
a(I2
I8
tp333
a(I7
I6
tp334
a(I4
I4
tp335
a(I10
I1
tp336
a(I9
I7
tp337
atp338
Rp339
sg201
((I10
I6
tp340
(I1
I4
tp341
(I11
I8
tp342
tp343
sg202
I11
sbs(iproblems
RoomID
p344
(dp345
g196
I12
sg197
I6
sg198
I1360307757430227195
sg199
(I4
I5
tp346
sg201
I3
sg202
I12
sb(imulti_robot_problem
MultiRobotState
p347
(dp348
g205
g20
((lp349
(I6
I4
tp350
a(I3
I2
tp351
a(I6
I3
tp352
a(I6
I7
tp353
a(I10
I4
tp354
a(I3
I0
tp355
a(I5
I5
tp356
a(I5
I4
tp357
a(I8
I10
tp358
a(I7
I4
tp359
a(I5
I6
tp360
a(I9
I5
tp361
a(I7
I5
tp362
a(I8
I3
tp363
ag346
a(I6
I2
tp364
a(I5
I1
tp365
a(I5
I3
tp366
a(I8
I5
tp367
a(I6
I5
tp368
a(I4
I0
tp369
atp370
Rp371
sg196
I12
sg231
g20
((lp372
(I3
I3
tp373
a(I9
I2
tp374
a(I5
I7
tp375
a(I4
I3
tp376
a(I0
I2
tp377
a(I11
I6
tp378
atp379
Rp380
sg201
((I11
I11
tp381
(I1
I3
tp382
(I0
I1
tp383
tp384
sg202
I12
sbs(iproblems
RoomID
p385
(dp386
g196
I10
sg197
I6
sg198
I1821862095355237593
sg199
(I2
I4
tp387
sg201
I3
sg202
I10
sb(imulti_robot_problem
MultiRobotState
p388
(dp389
g205
g20
((lp390
(I4
I7
tp391
a(I5
I6
tp392
a(I8
I5
tp393
a(I7
I2
tp394
a(I6
I7
tp395
a(I3
I3
tp396
a(I4
I4
tp397
a(I6
I3
tp398
a(I0
I4
tp399
a(I8
I6
tp400
a(I3
I5
tp401
a(I6
I4
tp402
a(I2
I6
tp403
a(I4
I5
tp404
a(I7
I9
tp405
a(I6
I0
tp406
a(I1
I9
tp407
a(I6
I5
tp408
a(I5
I5
tp409
a(I5
I3
tp410
a(I4
I3
tp411
a(I3
I4
tp412
ag387
atp413
Rp414
sg196
I10
sg231
g20
((lp415
(I7
I0
tp416
a(I2
I8
tp417
a(I0
I6
tp418
a(I2
I3
tp419
a(I5
I1
tp420
a(I9
I6
tp421
atp422
Rp423
sg201
((I2
I2
tp424
(I4
I2
tp425
(I0
I7
tp426
tp427
sg202
I10
sbssS'name'
p428
S'mild_roomset'
p429
sbsg161
g162
sg163
(dp430
g194
((lp431
(F0.15000000000000568
I15
tp432
aF40.009999999999991
tp433
sg245
((lp434
(F5.1500000000000057
I122
tp435
aF40.220000000000027
tp436
sg289
((lp437
(F0.52999999999997272
I34
tp438
a(F8.0699999999999932
I29
tp439
aF40.019999999999982
tp440
sg344
((lp441
F40.149999999999977
tp442
sg385
((lp443
(F0.16000000000002501
I13
tp444
aF40.0
tp445
ssba(imeasure_core
ProblemSetSolution
p446
(dp447
g3
(imeasure_core
RoomSet
p448
(dp449
S'rooms'
p450
(dp451
(iproblems
RoomID
p452
(dp453
S'width'
p454
I10
sS'dusts'
p455
I13
sS'seed'
p456
I7106521602475165645
sS'obstacles'
p457
(I5
I3
tp458
sS'robots'
p459
I6
sS'height'
p460
I13
sb(imulti_robot_problem
MultiRobotState
p461
(dp462
S'obstacle_locations'
p463
g20
((lp464
(I1
I2
tp465
a(I0
I9
tp466
a(I6
I11
tp467
a(I0
I5
tp468
a(I5
I11
tp469
a(I5
I6
tp470
a(I8
I12
tp471
a(I2
I11
tp472
a(I7
I1
tp473
a(I0
I12
tp474
a(I6
I3
tp475
a(I7
I12
tp476
a(I2
I3
tp477
a(I0
I4
tp478
a(I4
I5
tp479
a(I6
I12
tp480
a(I3
I4
tp481
a(I7
I2
tp482
ag458
atp483
Rp484
sg454
I10
sS'dirt_locations'
p485
g20
((lp486
(I0
I1
tp487
a(I8
I3
tp488
a(I3
I7
tp489
a(I4
I6
tp490
a(I6
I9
tp491
a(I0
I11
tp492
a(I3
I9
tp493
a(I2
I12
tp494
a(I8
I6
tp495
a(I5
I1
tp496
a(I7
I11
tp497
a(I0
I3
tp498
a(I3
I5
tp499
atp500
Rp501
sg459
((I0
I10
tp502
(I6
I7
tp503
(I4
I11
tp504
(I1
I11
tp505
(I9
I0
tp506
(I3
I1
tp507
tp508
sg460
I13
sbs(iproblems
RoomID
p509
(dp510
g454
I11
sg455
I15
sg456
I746805015404516437
sg457
(I9
I4
tp511
sg459
I6
sg460
I13
sb(imulti_robot_problem
MultiRobotState
p512
(dp513
g463
g20
((lp514
(I10
I5
tp515
a(I10
I6
tp516
a(I5
I5
tp517
a(I4
I8
tp518
a(I4
I5
tp519
a(I8
I0
tp520
a(I6
I0
tp521
a(I4
I4
tp522
a(I1
I8
tp523
a(I3
I9
tp524
a(I5
I3
tp525
a(I9
I7
tp526
ag511
a(I8
I6
tp527
a(I4
I2
tp528
a(I7
I9
tp529
a(I5
I2
tp530
a(I2
I4
tp531
a(I7
I2
tp532
a(I3
I5
tp533
atp534
Rp535
sg454
I11
sg485
g20
((lp536
(I3
I12
tp537
a(I9
I1
tp538
a(I7
I1
tp539
a(I8
I1
tp540
a(I6
I10
tp541
a(I8
I9
tp542
a(I2
I0
tp543
a(I2
I3
tp544
a(I0
I10
tp545
a(I2
I2
tp546
a(I7
I11
tp547
a(I2
I5
tp548
a(I8
I5
tp549
a(I5
I8
tp550
a(I4
I11
tp551
atp552
Rp553
sg459
((I4
I10
tp554
(I6
I11
tp555
(I5
I12
tp556
(I0
I5
tp557
(I1
I0
tp558
(I7
I10
tp559
tp560
sg460
I13
sbs(iproblems
RoomID
p561
(dp562
g454
I12
sg455
I11
sg456
I4029557120079369747
sg457
(I9
I6
tp563
sg459
I6
sg460
I10
sb(imulti_robot_problem
MultiRobotState
p564
(dp565
g463
g20
((lp566
(I11
I7
tp567
a(I4
I4
tp568
a(I5
I5
tp569
a(I7
I1
tp570
a(I10
I7
tp571
a(I9
I8
tp572
a(I10
I6
tp573
a(I1
I6
tp574
a(I3
I6
tp575
a(I1
I7
tp576
ag563
a(I11
I6
tp577
atp578
Rp579
sg454
I12
sg485
g20
((lp580
(I1
I2
tp581
a(I1
I3
tp582
a(I4
I9
tp583
a(I8
I2
tp584
a(I8
I1
tp585
a(I6
I1
tp586
a(I2
I1
tp587
a(I7
I4
tp588
a(I1
I8
tp589
a(I5
I2
tp590
a(I1
I1
tp591
atp592
Rp593
sg459
((I8
I0
tp594
(I4
I1
tp595
(I4
I0
tp596
(I3
I9
tp597
(I8
I9
tp598
(I3
I8
tp599
tp600
sg460
I10
sbs(iproblems
RoomID
p601
(dp602
g454
I13
sg455
I15
sg456
I2569146471088859254
sg457
(I5
I5
tp603
sg459
I6
sg460
I13
sb(imulti_robot_problem
MultiRobotState
p604
(dp605
g463
g20
((lp606
(I12
I2
tp607
a(I5
I4
tp608
a(I3
I3
tp609
a(I5
I9
tp610
a(I4
I5
tp611
a(I6
I1
tp612
a(I10
I10
tp613
a(I8
I8
tp614
a(I4
I3
tp615
a(I2
I2
tp616
a(I9
I11
tp617
a(I8
I12
tp618
a(I1
I1
tp619
a(I12
I3
tp620
ag603
atp621
Rp622
sg454
I13
sg485
g20
((lp623
(I10
I5
tp624
a(I3
I12
tp625
a(I8
I2
tp626
a(I5
I6
tp627
a(I12
I7
tp628
a(I11
I3
tp629
a(I2
I4
tp630
a(I11
I0
tp631
a(I1
I10
tp632
a(I2
I12
tp633
a(I0
I9
tp634
a(I3
I7
tp635
a(I10
I11
tp636
a(I0
I2
tp637
a(I5
I12
tp638
atp639
Rp640
sg459
((I9
I12
tp641
(I7
I11
tp642
(I7
I0
tp643
(I10
I1
tp644
(I1
I5
tp645
(I4
I0
tp646
tp647
sg460
I13
sbs(iproblems
RoomID
p648
(dp649
g454
I11
sg455
I10
sg456
I6604845167042249220
sg457
(I6
I7
tp650
sg459
I5
sg460
I12
sb(imulti_robot_problem
MultiRobotState
p651
(dp652
g463
g20
((lp653
(I9
I0
tp654
ag650
a(I7
I1
tp655
a(I2
I8
tp656
a(I10
I6
tp657
a(I7
I7
tp658
a(I8
I8
tp659
a(I9
I4
tp660
a(I7
I11
tp661
a(I8
I6
tp662
a(I9
I7
tp663
atp664
Rp665
sg454
I11
sg485
g20
((lp666
(I10
I5
tp667
a(I3
I3
tp668
a(I5
I11
tp669
a(I8
I1
tp670
a(I9
I8
tp671
a(I6
I9
tp672
a(I0
I7
tp673
a(I0
I10
tp674
a(I4
I1
tp675
a(I8
I4
tp676
atp677
Rp678
sg459
((I4
I8
tp679
(I1
I0
tp680
(I2
I2
tp681
(I3
I11
tp682
(I6
I5
tp683
tp684
sg460
I12
sbssS'name'
p685
S'heavy_roomset'
p686
sbsg161
g162
sg163
(dp687
g452
((lp688
F40.009999999999991
tp689
sg509
((lp690
F40.240000000000009
tp691
sg561
((lp692
(F6.5200000000000387
I6
tp693
aF40.180000000000007
tp694
sg601
((lp695
(F32.139999999999986
I27
tp696
aF40.700000000000045
tp697
sg648
((lp698
(F5.3099999999999454
I21
tp699
aF40.189999999999941
tp700
ssba(imeasure_core
ProblemSetSolution
p701
(dp702
g3
g4
sg161
S"AnytimeBeam-w20-gf(4, 'lin')_with_PowerHeuristic2"
p703
sg163
(dp704
g8
((lp705
(F0.57000000000005002
I15
tp706
aF40.170000000000073
tp707
sg46
((lp708
(F1.75
I20
tp709
aF40.039999999999964
tp710
sg78
((lp711
(F0.070000000000050022
I35
tp712
a(F6.7400000000000091
I33
tp713
a(F9.2899999999999636
I30
tp714
a(F9.9700000000000273
I26
tp715
a(F10.759999999999991
I25
tp716
a(F11.519999999999982
I23
tp717
a(F12.269999999999982
I21
tp718
a(F13.590000000000032
I20
tp719
a(F14.82000000000005
I18
tp720
aF40.0
tp721
sg100
((lp722
(F1.2999999999999545
I7
tp723
aF40.019999999999982
tp724
sg134
((lp725
(F0.080000000000040927
I18
tp726
aF40.0
tp727
ssba(imeasure_core
ProblemSetSolution
p728
(dp729
g3
g190
sg161
g703
sg163
(dp730
g194
((lp731
(F0.14999999999997726
I15
tp732
aF40.0
tp733
sg245
((lp734
(F5.1399999999999864
I122
tp735
aF40.029999999999973
tp736
sg289
((lp737
(F0.5300000000000864
I34
tp738
a(F4.7400000000000091
I29
tp739
aF40.030000000000086
tp740
sg344
((lp741
F40.110000000000014
tp742
sg385
((lp743
(F0.14999999999997726
I13
tp744
aF40.029999999999973
tp745
ssba(imeasure_core
ProblemSetSolution
p746
(dp747
g3
g448
sg161
g703
sg163
(dp748
g452
((lp749
F40.92999999999995
tp750
sg509
((lp751
F40.269999999999982
tp752
sg561
((lp753
(F6.5399999999999636
I6
tp754
aF40.279999999999973
tp755
sg601
((lp756
(F32.100000000000136
I27
tp757
aF40.680000000000064
tp758
sg648
((lp759
(F5.3299999999999272
I21
tp760
aF40.019999999999982
tp761
ssba(imeasure_core
ProblemSetSolution
p762
(dp763
g3
g4
sg161
S"AnytimeBeam-w20-gf(8, 'lin')_with_PowerHeuristic2"
p764
sg163
(dp765
g8
((lp766
(F0.57999999999992724
I15
tp767
aF40.059999999999945
tp768
sg46
((lp769
(F1.7599999999999909
I20
tp770
aF40.090000000000146
tp771
sg78
((lp772
(F0.069999999999936335
I35
tp773
a(F3.4400000000000546
I33
tp774
a(F5.1399999999998727
I30
tp775
a(F5.8199999999999363
I26
tp776
a(F6.5999999999999091
I25
tp777
a(F7.3599999999999
I23
tp778
a(F8.1099999999999
I21
tp779
a(F9.4299999999998363
I20
tp780
a(F10.649999999999864
I18
tp781
aF40.0
tp782
sg100
((lp783
(F1.2999999999999545
I7
tp784
aF40.210000000000036
tp785
sg134
((lp786
(F0.07999999999992724
I18
tp787
aF40.0
tp788
ssba(imeasure_core
ProblemSetSolution
p789
(dp790
g3
g190
sg161
g764
sg163
(dp791
g194
((lp792
(F0.14999999999986358
I15
tp793
aF40.009999999999991
tp794
sg245
((lp795
(F5.1199999999998909
I122
tp796
aF40.009999999999991
tp797
sg289
((lp798
(F0.51999999999998181
I34
tp799
a(F2.6299999999998818
I29
tp800
aF40.029999999999973
tp801
sg344
((lp802
F40.1099999999999
tp803
sg385
((lp804
(F0.16000000000008185
I13
tp805
aF40.009999999999991
tp806
ssba(imeasure_core
ProblemSetSolution
p807
(dp808
g3
g448
sg161
g764
sg163
(dp809
g452
((lp810
F40.0
tp811
sg509
((lp812
F40.240000000000009
tp813
sg561
((lp814
(F6.5399999999999636
I6
tp815
aF40.320000000000164
tp816
sg601
((lp817
(F32.169999999999845
I27
tp818
aF40.759999999999991
tp819
sg648
((lp820
(F5.3299999999999272
I21
tp821
aF40.099999999999909
tp822
ssba(imeasure_core
ProblemSetSolution
p823
(dp824
g3
g4
sg161
S"AnytimeBeam-w20-gf(16, 'lin')_with_PowerHeuristic2"
p825
sg163
(dp826
g8
((lp827
(F0.57999999999992724
I15
tp828
aF40.130000000000109
tp829
sg46
((lp830
(F1.7599999999999909
I20
tp831
aF40.179999999999836
tp832
sg78
((lp833
(F0.070000000000163709
I35
tp834
a(F2.1900000000000546
I33
tp835
a(F3.0700000000001637
I30
tp836
a(F3.7699999999999818
I26
tp837
a(F4.5700000000001637
I25
tp838
a(F5.3400000000001455
I23
tp839
a(F6.1000000000001364
I21
tp840
a(F7.4300000000000637
I20
tp841
a(F8.6700000000000728
I18
tp842
aF40.0
tp843
sg100
((lp844
(F1.3099999999999454
I7
tp845
aF40.190000000000055
tp846
sg134
((lp847
(F0.07999999999992724
I18
tp848
aF40.009999999999991
tp849
ssba(imeasure_core
ProblemSetSolution
p850
(dp851
g3
g190
sg161
g825
sg163
(dp852
g194
((lp853
(F0.14000000000010004
I15
tp854
aF40.0
tp855
sg245
((lp856
(F5.1300000000001091
I122
tp857
aF40.050000000000182
tp858
sg289
((lp859
(F0.52999999999974534
I34
tp860
a(F2.0099999999997635
I29
tp861
aF40.0
tp862
sg344
((lp863
F40.119999999999891
tp864
sg385
((lp865
(F0.15000000000009095
I13
tp866
aF40.009999999999764
tp867
ssba(imeasure_core
ProblemSetSolution
p868
(dp869
g3
g448
sg161
g825
sg163
(dp870
g452
((lp871
F40.980000000000018
tp872
sg509
((lp873
F40.309999999999945
tp874
sg561
((lp875
(F6.5199999999999818
I6
tp876
aF40.599999999999909
tp877
sg601
((lp878
(F32.260000000000218
I27
tp879
aF40.849999999999909
tp880
sg648
((lp881
(F5.3000000000001819
I21
tp882
aF40.400000000000091
tp883
ssba(imeasure_core
ProblemSetSolution
p884
(dp885
g3
g4
sg161
S"AnytimeBeam-w20-gf(2, 'lin')_with_LinearHeuristic"
p886
sg163
(dp887
g8
((lp888
(F11.910000000000309
I155
tp889
aF40.019999999999982
tp890
sg46
((lp891
(F1.5500000000001819
I24
tp892
aF40.050000000000182
tp893
sg78
((lp894
(F0.0099999999997635314
I18
tp895
aF40.0
tp896
sg100
((lp897
(F14.5
I91
tp898
aF40.019999999999982
tp899
sg134
((lp900
(F0.03999999999996362
I10
tp901
aF40.009999999999764
tp902
ssba(imeasure_core
ProblemSetSolution
p903
(dp904
g3
g190
sg161
g886
sg163
(dp905
g194
((lp906
F40.050000000000182
tp907
sg245
((lp908
F40.409999999999854
tp909
sg289
((lp910
F40.070000000000164
tp911
sg344
((lp912
F40.199999999999818
tp913
sg385
((lp914
(F11.390000000000327
I134
tp915
aF40.0
tp916
ssba(imeasure_core
ProblemSetSolution
p917
(dp918
g3
g448
sg161
g886
sg163
(dp919
g452
((lp920
F40.230000000000018
tp921
sg509
((lp922
F40.929999999999836
tp923
sg561
((lp924
(F8.8000000000001819
I7
tp925
aF41.539999999999964
tp926
sg601
((lp927
F40.309999999999945
tp928
sg648
((lp929
F40.140000000000327
tp930
ssba(imeasure_core
ProblemSetSolution
p931
(dp932
g3
g4
sg161
S"AnytimeBeam-w20-gf(4, 'lin')_with_LinearHeuristic"
p933
sg163
(dp934
g8
((lp935
(F11.899999999999636
I155
tp936
aF40.0
tp937
sg46
((lp938
(F1.5499999999997272
I24
tp939
aF40.069999999999709
tp940
sg78
((lp941
(F0.010000000000218279
I18
tp942
aF40.0
tp943
sg100
((lp944
(F14.490000000000236
I91
tp945
aF40.050000000000182
tp946
sg134
((lp947
(F0.03999999999996362
I10
tp948
aF40.0
tp949
ssba(imeasure_core
ProblemSetSolution
p950
(dp951
g3
g190
sg161
g933
sg163
(dp952
g194
((lp953
F40.100000000000364
tp954
sg245
((lp955
F40.440000000000055
tp956
sg289
((lp957
F40.029999999999745
tp958
sg344
((lp959
F40.210000000000036
tp960
sg385
((lp961
(F11.5
I134
tp962
aF40.010000000000218
tp963
ssba(imeasure_core
ProblemSetSolution
p964
(dp965
g3
g448
sg161
g933
sg163
(dp966
g452
((lp967
F40.229999999999563
tp968
sg509
((lp969
F41.0300000000002
tp970
sg561
((lp971
(F8.8200000000001637
I7
tp972
aF42.159999999999854
tp973
sg601
((lp974
F40.380000000000109
tp975
sg648
((lp976
F40.0300000000002
tp977
ssba(imeasure_core
ProblemSetSolution
p978
(dp979
g3
g4
sg161
S"AnytimeBeam-w20-gf(8, 'lin')_with_LinearHeuristic"
p980
sg163
(dp981
g8
((lp982
(F11.899999999999636
I155
tp983
aF40.0
tp984
sg46
((lp985
(F1.5499999999997272
I24
tp986
aF40.049999999999727
tp987
sg78
((lp988
(F0.010000000000218279
I18
tp989
aF40.0
tp990
sg100
((lp991
(F14.519999999999982
I91
tp992
aF40.090000000000146
tp993
sg134
((lp994
(F0.03999999999996362
I10
tp995
aF40.0
tp996
ssba(imeasure_core
ProblemSetSolution
p997
(dp998
g3
g190
sg161
g980
sg163
(dp999
g194
((lp1000
F40.0
tp1001
sg245
((lp1002
F40.420000000000073
tp1003
sg289
((lp1004
F40.009999999999764
tp1005
sg344
((lp1006
F40.160000000000309
tp1007
sg385
((lp1008
(F11.699999999999818
I134
tp1009
aF40.029999999999745
tp1010
ssba(imeasure_core
ProblemSetSolution
p1011
(dp1012
g3
g448
sg161
g980
sg163
(dp1013
g452
((lp1014
F40.25
tp1015
sg509
((lp1016
F40.940000000000055
tp1017
sg561
((lp1018
(F8.8100000000004002
I7
tp1019
aF40.289999999999964
tp1020
sg601
((lp1021
F40.369999999999891
tp1022
sg648
((lp1023
F40.0600000000004
tp1024
ssba(imeasure_core
ProblemSetSolution
p1025
(dp1026
g3
g4
sg161
S"AnytimeBeam-w20-gf(16, 'lin')_with_LinearHeuristic"
p1027
sg163
(dp1028
g8
((lp1029
(F11.889999999999418
I155
tp1030
aF40.109999999999673
tp1031
sg46
((lp1032
(F1.5500000000001819
I24
tp1033
aF40.010000000000218
tp1034
sg78
((lp1035
(F0.010000000000218279
I18
tp1036
aF40.0
tp1037
sg100
((lp1038
(F14.510000000000218
I91
tp1039
aF40.090000000000146
tp1040
sg134
((lp1041
(F0.03999999999996362
I10
tp1042
aF40.009999999999309
tp1043
ssba(imeasure_core
ProblemSetSolution
p1044
(dp1045
g3
g190
sg161
g1027
sg163
(dp1046
g194
((lp1047
F40.090000000000146
tp1048
sg245
((lp1049
F40.449999999999818
tp1050
sg289
((lp1051
F40.030000000000655
tp1052
sg344
((lp1053
F40.159999999999854
tp1054
sg385
((lp1055
(F12.269999999999527
I134
tp1056
a(F30.219999999999345
I133
tp1057
aF40.009999999999309
tp1058
ssba(imeasure_core
ProblemSetSolution
p1059
(dp1060
g3
g448
sg161
g1027
sg163
(dp1061
g452
((lp1062
F40.199999999999818
tp1063
sg509
((lp1064
F41.010000000000218
tp1065
sg561
((lp1066
(F8.8200000000006185
I7
tp1067
aF40.720000000000255
tp1068
sg601
((lp1069
F40.359999999999673
tp1070
sg648
((lp1071
F40.289999999999964
tp1072
ssba.