(lp0
(imeasure_core
ProblemSetSolution
p1
(dp2
S'roomset'
p3
(imeasure_core
RoomSet
p4
(dp5
S'rooms'
p6
(dp7
(iproblems
RoomID
p8
(dp9
S'dusts'
p10
I8
sS'obstacles'
p11
(I5
I7
tp12
sS'robots'
p13
I5
sS'height'
p14
I9
sS'width'
p15
I10
sS'seed'
p16
I5594871498841892311
sb(imulti_robot_problem
MultiRobotState
p17
(dp18
S'obstacle_locations'
p19
c__builtin__
frozenset
p20
((lp21
(I4
I7
tp22
a(I3
I6
tp23
a(I5
I1
tp24
a(I1
I0
tp25
ag12
a(I8
I3
tp26
a(I5
I8
tp27
atp28
Rp29
sg15
I10
sS'dirt_locations'
p30
g20
((lp31
(I0
I1
tp32
a(I9
I0
tp33
a(I8
I2
tp34
a(I6
I0
tp35
a(I1
I1
tp36
a(I1
I5
tp37
a(I9
I4
tp38
a(I2
I4
tp39
atp40
Rp41
sg13
((I7
I6
tp42
(I8
I4
tp43
(I5
I4
tp44
(I7
I2
tp45
(I7
I8
tp46
tp47
sg14
I9
sbs(iproblems
RoomID
p48
(dp49
g10
I6
sg11
(I4
I4
tp50
sg13
I5
sg14
I7
sg15
I8
sg16
I8833747186876682921
sb(imulti_robot_problem
MultiRobotState
p51
(dp52
g19
g20
((lp53
(I2
I2
tp54
ag50
a(I3
I4
tp55
a(I3
I3
tp56
a(I3
I5
tp57
atp58
Rp59
sg15
I8
sg30
g20
((lp60
(I6
I4
tp61
a(I5
I4
tp62
a(I1
I3
tp63
a(I5
I1
tp64
a(I0
I3
tp65
a(I5
I3
tp66
atp67
Rp68
sg13
((I2
I1
tp69
(I6
I1
tp70
(I3
I1
tp71
(I5
I0
tp72
(I7
I3
tp73
tp74
sg14
I7
sbs(iproblems
RoomID
p75
(dp76
g10
I7
sg11
(I5
I2
tp77
sg13
I5
sg14
I8
sg15
I9
sg16
I365562409358139953
sb(imulti_robot_problem
MultiRobotState
p78
(dp79
g19
g20
((lp80
(I6
I4
tp81
a(I5
I5
tp82
a(I2
I1
tp83
a(I3
I7
tp84
a(I2
I5
tp85
ag77
a(I0
I2
tp86
a(I5
I3
tp87
atp88
Rp89
sg15
I9
sg30
g20
((lp90
(I2
I0
tp91
a(I1
I6
tp92
a(I8
I2
tp93
a(I4
I5
tp94
a(I8
I6
tp95
a(I5
I7
tp96
a(I3
I4
tp97
atp98
Rp99
sg13
((I4
I2
tp100
(I8
I3
tp101
(I6
I3
tp102
(I2
I4
tp103
(I6
I7
tp104
tp105
sg14
I8
sbs(iproblems
RoomID
p106
(dp107
g10
I5
sg11
(I6
I4
tp108
sg13
I2
sg14
I8
sg15
I10
sg16
I1662056218554549082
sb(imulti_robot_problem
MultiRobotState
p109
(dp110
g19
g20
((lp111
g108
a(I4
I6
tp112
a(I3
I6
tp113
a(I4
I4
tp114
a(I9
I6
tp115
a(I5
I5
tp116
atp117
Rp118
sg15
I10
sg30
g20
((lp119
(I4
I5
tp120
a(I8
I3
tp121
a(I8
I4
tp122
a(I7
I7
tp123
a(I3
I3
tp124
atp125
Rp126
sg13
((I9
I3
tp127
(I2
I0
tp128
tp129
sg14
I8
sbs(iproblems
RoomID
p130
(dp131
g10
I6
sg11
(I2
I3
tp132
sg13
I1
sg14
I8
sg15
I8
sg16
I1085536589165212248
sb(imulti_robot_problem
MultiRobotState
p133
(dp134
g19
g20
((lp135
(I1
I5
tp136
ag132
a(I1
I4
tp137
a(I1
I6
tp138
a(I0
I7
tp139
a(I4
I0
tp140
atp141
Rp142
sg15
I8
sg30
g20
((lp143
(I0
I1
tp144
a(I1
I2
tp145
a(I7
I3
tp146
a(I5
I1
tp147
a(I6
I0
tp148
a(I2
I1
tp149
atp150
Rp151
sg13
((I3
I2
tp152
tp153
sg14
I8
sbssS'name'
p154
S'easy_roomset'
p155
sbsg154
S"AnytimeBeam-w5-gf(1.5, 'exp')_with_PowerHeuristic2"
p156
sS'solutions'
p157
(dp158
g8
((lp159
(F2.0399999999972351
I13
tp160
aF40.269999999996799
tp161
sg48
((lp162
(F1.9200000000018917
I4
tp163
aF40.770000000000437
tp164
sg75
((lp165
F40.229999999999563
tp166
sg106
((lp167
(F0.030000000002473826
I7
tp168
aF40.010000000002037
tp169
sg130
((lp170
(F0.060000000001309672
I30
tp171
a(F0.34000000000014552
I28
tp172
a(F0.68999999999869033
I27
tp173
a(F1.069999999999709
I25
tp174
a(F1.3999999999978172
I23
tp175
a(F2.1199999999989814
I21
tp176
a(F3.2000000000007276
I20
tp177
a(F4.6199999999989814
I19
tp178
a(F6.2999999999992724
I17
tp179
a(F7.9199999999982538
I15
tp180
aF40.0
tp181
ssba(imeasure_core
ProblemSetSolution
p182
(dp183
g3
(imeasure_core
RoomSet
p184
(dp185
g6
(dp186
(iproblems
RoomID
p187
(dp188
g10
I8
sg11
(I9
I3
tp189
sg13
I4
sg14
I11
sg15
I12
sg16
I5594871498841892311
sb(imulti_robot_problem
MultiRobotState
p190
(dp191
g19
g20
((lp192
(I5
I9
tp193
a(I6
I9
tp194
a(I11
I9
tp195
a(I9
I1
tp196
a(I4
I8
tp197
a(I8
I0
tp198
a(I6
I0
tp199
a(I9
I9
tp200
ag189
a(I9
I4
tp201
a(I4
I2
tp202
a(I3
I7
tp203
a(I5
I8
tp204
a(I7
I9
tp205
a(I10
I8
tp206
a(I9
I0
tp207
a(I7
I0
tp208
a(I6
I8
tp209
a(I9
I2
tp210
a(I5
I7
tp211
a(I8
I10
tp212
a(I2
I0
tp213
a(I5
I0
tp214
a(I0
I9
tp215
a(I10
I0
tp216
a(I10
I2
tp217
atp218
Rp219
sg15
I12
sg30
g20
((lp220
(I2
I6
tp221
a(I11
I5
tp222
a(I6
I1
tp223
a(I11
I1
tp224
a(I2
I1
tp225
a(I8
I8
tp226
a(I0
I2
tp227
a(I3
I5
tp228
atp229
Rp230
sg13
((I9
I7
tp231
(I10
I5
tp232
(I6
I5
tp233
(I8
I3
tp234
tp235
sg14
I11
sbs(iproblems
RoomID
p236
(dp237
g10
I6
sg11
(I9
I4
tp238
sg13
I4
sg14
I9
sg15
I10
sg16
I8833747186876682921
sb(imulti_robot_problem
MultiRobotState
p239
(dp240
g19
g20
((lp241
(I4
I7
tp242
a(I4
I8
tp243
a(I4
I5
tp244
a(I2
I1
tp245
a(I7
I5
tp246
a(I2
I3
tp247
ag238
a(I2
I5
tp248
a(I6
I5
tp249
a(I3
I5
tp250
a(I2
I7
tp251
a(I8
I3
tp252
a(I5
I5
tp253
a(I3
I4
tp254
a(I7
I4
tp255
a(I5
I6
tp256
a(I8
I8
tp257
a(I3
I6
tp258
a(I4
I1
tp259
a(I1
I1
tp260
atp261
Rp262
sg15
I10
sg30
g20
((lp263
(I3
I2
tp264
a(I6
I2
tp265
a(I7
I0
tp266
a(I1
I4
tp267
a(I0
I4
tp268
a(I0
I7
tp269
atp270
Rp271
sg13
((I3
I1
tp272
(I8
I1
tp273
(I3
I3
tp274
(I4
I2
tp275
tp276
sg14
I9
sbs(iproblems
RoomID
p277
(dp278
g10
I7
sg11
(I8
I4
tp279
sg13
I4
sg14
I10
sg15
I11
sg16
I365562409358139953
sb(imulti_robot_problem
MultiRobotState
p280
(dp281
g19
g20
((lp282
(I7
I3
tp283
a(I8
I7
tp284
a(I4
I8
tp285
a(I2
I8
tp286
a(I5
I9
tp287
a(I6
I2
tp288
a(I1
I6
tp289
a(I9
I4
tp290
a(I6
I4
tp291
a(I9
I6
tp292
a(I6
I5
tp293
a(I10
I8
tp294
a(I10
I5
tp295
a(I6
I7
tp296
a(I10
I7
tp297
a(I7
I6
tp298
a(I3
I1
tp299
a(I0
I5
tp300
a(I3
I8
tp301
a(I7
I5
tp302
a(I8
I6
tp303
ag279
a(I5
I2
tp304
a(I6
I1
tp305
a(I9
I7
tp306
atp307
Rp308
sg15
I11
sg30
g20
((lp309
(I5
I6
tp310
a(I6
I9
tp311
a(I1
I7
tp312
a(I4
I5
tp313
a(I10
I3
tp314
a(I0
I2
tp315
a(I2
I1
tp316
atp317
Rp318
sg13
((I10
I4
tp319
(I7
I4
tp320
(I3
I6
tp321
(I8
I9
tp322
tp323
sg14
I10
sbs(iproblems
RoomID
p324
(dp325
g10
I10
sg11
(I4
I8
tp326
sg13
I3
sg14
I11
sg15
I9
sg16
I6645345695289302126
sb(imulti_robot_problem
MultiRobotState
p327
(dp328
g19
g20
((lp329
(I5
I9
tp330
a(I3
I2
tp331
a(I3
I1
tp332
ag326
a(I4
I5
tp333
a(I1
I4
tp334
a(I4
I2
tp335
a(I3
I7
tp336
a(I4
I6
tp337
a(I3
I3
tp338
a(I4
I1
tp339
a(I6
I1
tp340
a(I4
I4
tp341
a(I2
I4
tp342
a(I3
I8
tp343
a(I1
I5
tp344
a(I4
I3
tp345
a(I3
I5
tp346
a(I3
I4
tp347
a(I1
I1
tp348
a(I8
I4
tp349
atp350
Rp351
sg15
I9
sg30
g20
((lp352
(I0
I1
tp353
a(I5
I4
tp354
a(I6
I7
tp355
a(I8
I2
tp356
a(I8
I7
tp357
a(I8
I8
tp358
a(I2
I3
tp359
a(I3
I6
tp360
a(I1
I0
tp361
a(I5
I5
tp362
atp363
Rp364
sg13
((I1
I6
tp365
(I0
I9
tp366
(I0
I5
tp367
tp368
sg14
I11
sbs(iproblems
RoomID
p369
(dp370
g10
I8
sg11
(I4
I6
tp371
sg13
I3
sg14
I9
sg15
I12
sg16
I4800841617172907184
sb(imulti_robot_problem
MultiRobotState
p372
(dp373
g19
g20
((lp374
(I5
I4
tp375
ag371
a(I8
I7
tp376
a(I6
I6
tp377
a(I4
I5
tp378
a(I9
I8
tp379
a(I9
I3
tp380
a(I6
I0
tp381
a(I2
I1
tp382
a(I10
I1
tp383
a(I4
I2
tp384
a(I8
I5
tp385
a(I7
I2
tp386
a(I5
I3
tp387
a(I8
I3
tp388
a(I3
I1
tp389
a(I3
I3
tp390
a(I11
I8
tp391
a(I7
I1
tp392
a(I11
I3
tp393
a(I6
I3
tp394
a(I0
I6
tp395
a(I4
I3
tp396
a(I8
I6
tp397
a(I8
I4
tp398
a(I9
I7
tp399
atp400
Rp401
sg15
I12
sg30
g20
((lp402
(I11
I4
tp403
a(I8
I2
tp404
a(I10
I7
tp405
a(I7
I6
tp406
a(I1
I4
tp407
a(I11
I0
tp408
a(I9
I2
tp409
a(I0
I2
tp410
atp411
Rp412
sg13
((I9
I1
tp413
(I0
I4
tp414
(I7
I4
tp415
tp416
sg14
I9
sbssg154
S'mild_roomset'
p417
sbsg154
g156
sg157
(dp418
g187
((lp419
(F6.3999999999978172
I32
tp420
aF40.380000000001019
tp421
sg236
((lp422
(F4.6999999999970896
I32
tp423
aF40.389999999999418
tp424
sg277
((lp425
(F0.73999999999796273
I25
tp426
aF40.079999999998108
tp427
sg324
((lp428
F40.080000000001746
tp429
sg369
((lp430
(F0.41999999999825377
I17
tp431
aF40.040000000000873
tp432
ssba(imeasure_core
ProblemSetSolution
p433
(dp434
g3
(imeasure_core
RoomSet
p435
(dp436
g6
(dp437
(iproblems
RoomID
p438
(dp439
g10
I13
sg11
(I9
I8
tp440
sg13
I7
sg14
I12
sg15
I13
sg16
I5594871498841892311
sb(imulti_robot_problem
MultiRobotState
p441
(dp442
g19
g20
((lp443
(I5
I9
tp444
a(I6
I9
tp445
a(I1
I3
tp446
a(I10
I4
tp447
a(I4
I8
tp448
ag440
a(I1
I4
tp449
a(I11
I3
tp450
a(I8
I6
tp451
a(I9
I6
tp452
a(I5
I5
tp453
a(I9
I5
tp454
a(I6
I7
tp455
a(I6
I8
tp456
a(I6
I10
tp457
a(I8
I10
tp458
a(I5
I0
tp459
a(I10
I0
tp460
a(I7
I9
tp461
a(I9
I7
tp462
atp463
Rp464
sg15
I13
sg30
g20
((lp465
(I2
I7
tp466
a(I10
I5
tp467
a(I11
I5
tp468
a(I6
I1
tp469
a(I8
I0
tp470
a(I2
I1
tp471
a(I2
I0
tp472
a(I0
I10
tp473
a(I7
I10
tp474
a(I12
I10
tp475
a(I5
I2
tp476
a(I0
I2
tp477
a(I3
I5
tp478
atp479
Rp480
sg13
((I10
I8
tp481
(I11
I6
tp482
(I7
I5
tp483
(I9
I3
tp484
(I9
I11
tp485
(I12
I1
tp486
(I9
I9
tp487
tp488
sg14
I12
sbs(iproblems
RoomID
p489
(dp490
g10
I11
sg11
(I8
I7
tp491
sg13
I7
sg14
I10
sg15
I11
sg16
I8833747186876682921
sb(imulti_robot_problem
MultiRobotState
p492
(dp493
g19
g20
((lp494
(I5
I7
tp495
a(I4
I8
tp496
a(I4
I5
tp497
a(I2
I1
tp498
ag491
a(I5
I1
tp499
a(I5
I5
tp500
a(I6
I7
tp501
a(I4
I6
tp502
a(I8
I1
tp503
a(I4
I4
tp504
a(I6
I3
tp505
a(I8
I8
tp506
a(I3
I3
tp507
a(I7
I8
tp508
a(I10
I2
tp509
atp510
Rp511
sg15
I11
sg30
g20
((lp512
(I10
I5
tp513
a(I7
I6
tp514
a(I4
I7
tp515
a(I1
I4
tp516
a(I9
I9
tp517
a(I3
I8
tp518
a(I0
I5
tp519
a(I8
I6
tp520
a(I2
I5
tp521
a(I0
I8
tp522
a(I7
I2
tp523
atp524
Rp525
sg13
((I3
I1
tp526
(I9
I1
tp527
(I5
I2
tp528
(I4
I3
tp529
(I8
I0
tp530
(I10
I4
tp531
(I8
I5
tp532
tp533
sg14
I10
sbs(iproblems
RoomID
p534
(dp535
g10
I12
sg11
(I0
I5
tp536
sg13
I7
sg14
I11
sg15
I12
sg16
I365562409358139953
sb(imulti_robot_problem
MultiRobotState
p537
(dp538
g19
g20
((lp539
(I1
I3
tp540
a(I6
I6
tp541
a(I0
I4
tp542
a(I7
I5
tp543
ag536
a(I8
I7
tp544
a(I4
I2
tp545
a(I2
I9
tp546
a(I10
I7
tp547
a(I7
I8
tp548
a(I7
I6
tp549
a(I3
I1
tp550
a(I4
I8
tp551
a(I3
I9
tp552
a(I2
I2
tp553
a(I8
I6
tp554
a(I5
I2
tp555
a(I11
I6
tp556
a(I8
I4
tp557
atp558
Rp559
sg15
I12
sg30
g20
((lp560
(I3
I2
tp561
a(I11
I9
tp562
a(I4
I9
tp563
a(I10
I4
tp564
a(I5
I7
tp565
a(I2
I1
tp566
a(I0
I6
tp567
a(I1
I6
tp568
a(I7
I10
tp569
a(I3
I7
tp570
a(I5
I10
tp571
a(I0
I2
tp572
atp573
Rp574
sg13
((I6
I3
tp575
(I10
I5
tp576
(I3
I6
tp577
(I8
I10
tp578
(I4
I6
tp579
(I11
I3
tp580
(I1
I8
tp581
tp582
sg14
I11
sbs(iproblems
RoomID
p583
(dp584
g10
I11
sg11
(I4
I6
tp585
sg13
I5
sg14
I11
sg15
I11
sg16
I1085536589165212248
sb(imulti_robot_problem
MultiRobotState
p586
(dp587
g19
g20
((lp588
(I10
I5
tp589
a(I2
I6
tp590
ag585
a(I9
I3
tp591
a(I3
I2
tp592
a(I9
I9
tp593
a(I1
I8
tp594
a(I1
I9
tp595
a(I1
I7
tp596
a(I3
I7
tp597
a(I6
I9
tp598
a(I5
I8
tp599
a(I3
I3
tp600
atp601
Rp602
sg15
I11
sg30
g20
((lp603
(I0
I1
tp604
a(I4
I9
tp605
a(I10
I4
tp606
a(I10
I7
tp607
a(I6
I0
tp608
a(I0
I7
tp609
a(I2
I3
tp610
a(I1
I4
tp611
a(I2
I2
tp612
a(I10
I0
tp613
a(I0
I10
tp614
atp615
Rp616
sg13
((I5
I3
tp617
(I0
I2
tp618
(I3
I1
tp619
(I7
I1
tp620
(I9
I0
tp621
tp622
sg14
I11
sbs(iproblems
RoomID
p623
(dp624
g10
I13
sg11
(I3
I8
tp625
sg13
I5
sg14
I10
sg15
I10
sg16
I5338040351619750409
sb(imulti_robot_problem
MultiRobotState
p626
(dp627
g19
g20
((lp628
(I4
I7
tp629
a(I2
I6
tp630
a(I9
I1
tp631
a(I2
I8
tp632
a(I6
I1
tp633
a(I1
I4
tp634
ag625
a(I1
I6
tp635
a(I4
I3
tp636
a(I1
I7
tp637
a(I2
I5
tp638
a(I9
I7
tp639
a(I2
I4
tp640
a(I6
I8
tp641
atp642
Rp643
sg15
I10
sg30
g20
((lp644
(I6
I9
tp645
a(I1
I3
tp646
a(I4
I9
tp647
a(I4
I6
tp648
a(I6
I6
tp649
a(I8
I3
tp650
a(I2
I1
tp651
a(I8
I9
tp652
a(I1
I8
tp653
a(I7
I5
tp654
a(I3
I6
tp655
a(I9
I6
tp656
a(I4
I0
tp657
atp658
Rp659
sg13
((I2
I0
tp660
(I3
I5
tp661
(I5
I0
tp662
(I5
I2
tp663
(I4
I5
tp664
tp665
sg14
I10
sbssg154
S'heavy_roomset'
p666
sbsg154
g156
sg157
(dp667
g438
((lp668
F44.470000000001164
tp669
sg489
((lp670
F44.639999999999418
tp671
sg534
((lp672
F48.009999999998399
tp673
sg583
((lp674
(F7.9200000000018917
I15
tp675
aF40.350000000002183
tp676
sg623
((lp677
(F6.9899999999979627
I16
tp678
aF40.319999999999709
tp679
ssba(imeasure_core
ProblemSetSolution
p680
(dp681
g3
g4
sg154
S"AnytimeBeam-w15-gf(1.5, 'exp')_with_PowerHeuristic2"
p682
sg157
(dp683
g8
((lp684
(F2.75
I13
tp685
aF40.090000000000146
tp686
sg48
((lp687
(F2.1500000000014552
I4
tp688
aF40.209999999999127
tp689
sg75
((lp690
F40.350000000002183
tp691
sg106
((lp692
(F0.029999999998835847
I7
tp693
aF40.009999999998399
tp694
sg130
((lp695
(F0.060000000001309672
I30
tp696
a(F0.34000000000014552
I28
tp697
a(F0.69000000000232831
I27
tp698
a(F1.069999999999709
I25
tp699
a(F1.4000000000014552
I23
tp700
a(F2.1100000000005821
I21
tp701
a(F3.1900000000023283
I20
tp702
a(F4.6100000000005821
I19
tp703
a(F6.2800000000024738
I17
tp704
a(F7.9000000000014552
I15
tp705
aF40.0
tp706
ssba(imeasure_core
ProblemSetSolution
p707
(dp708
g3
g184
sg154
g682
sg157
(dp709
g187
((lp710
(F6.4099999999998545
I32
tp711
aF40.440000000002328
tp712
sg236
((lp713
(F4.7299999999995634
I32
tp714
aF40.43999999999869
tp715
sg277
((lp716
(F0.74000000000160071
I25
tp717
aF40.099999999998545
tp718
sg324
((lp719
F40.090000000000146
tp720
sg369
((lp721
(F0.42000000000189175
I17
tp722
aF40.05000000000291
tp723
ssba(imeasure_core
ProblemSetSolution
p724
(dp725
g3
g435
sg154
g682
sg157
(dp726
g438
((lp727
F44.599999999998545
tp728
sg489
((lp729
F44.729999999999563
tp730
sg534
((lp731
F47.770000000000437
tp732
sg583
((lp733
(F7.8800000000010186
I15
tp734
aF40.159999999999854
tp735
sg623
((lp736
(F6.9500000000007276
I16
tp737
aF40.230000000003201
tp738
ssba(imeasure_core
ProblemSetSolution
p739
(dp740
g3
g4
sg154
S"AnytimeBeam-w25-gf(1.5, 'exp')_with_PowerHeuristic2"
p741
sg157
(dp742
g8
((lp743
(F2.8599999999969441
I13
tp744
aF40.69999999999709
tp745
sg48
((lp746
(F2.2000000000007276
I4
tp747
aF42.229999999999563
tp748
sg75
((lp749
F40.020000000000437
tp750
sg106
((lp751
(F0.030000000002473826
I7
tp752
aF40.020000000000437
tp753
sg130
((lp754
(F0.069999999999708962
I30
tp755
a(F0.34000000000014552
I28
tp756
a(F0.7000000000007276
I27
tp757
a(F1.0800000000017462
I25
tp758
a(F1.4099999999998545
I23
tp759
a(F2.1300000000010186
I21
tp760
a(F3.2099999999991269
I20
tp761
a(F4.6399999999994179
I19
tp762
a(F6.319999999999709
I17
tp763
a(F7.9500000000007276
I15
tp764
aF40.0
tp765
ssba(imeasure_core
ProblemSetSolution
p766
(dp767
g3
g184
sg154
g741
sg157
(dp768
g187
((lp769
(F6.4000000000014552
I32
tp770
aF40.409999999999854
tp771
sg236
((lp772
(F4.7099999999991269
I32
tp773
aF40.549999999999272
tp774
sg277
((lp775
(F0.75
I25
tp776
aF40.150000000001455
tp777
sg324
((lp778
F40.069999999999709
tp779
sg369
((lp780
(F0.43000000000029104
I17
tp781
aF40.020000000000437
tp782
ssba(imeasure_core
ProblemSetSolution
p783
(dp784
g3
g435
sg154
g741
sg157
(dp785
g438
((lp786
F44.909999999999854
tp787
sg489
((lp788
F44.490000000001601
tp789
sg534
((lp790
F47.829999999998108
tp791
sg583
((lp792
(F7.8699999999989814
I15
tp793
aF41.319999999999709
tp794
sg623
((lp795
(F7.0
I16
tp796
aF40.299999999999272
tp797
ssba(imeasure_core
ProblemSetSolution
p798
(dp799
g3
g4
sg154
S"AnytimeBeam-w35-gf(1.5, 'exp')_with_PowerHeuristic2"
p800
sg157
(dp801
g8
((lp802
(F3.2000000000007276
I13
tp803
aF40.680000000000291
tp804
sg48
((lp805
(F2.5200000000004366
I4
tp806
aF40.119999999998981
tp807
sg75
((lp808
F40.259999999998399
tp809
sg106
((lp810
(F0.030000000002473826
I7
tp811
aF40.020000000000437
tp812
sg130
((lp813
(F0.060000000001309672
I30
tp814
a(F0.34000000000014552
I28
tp815
a(F0.69000000000232831
I27
tp816
a(F1.069999999999709
I25
tp817
a(F1.4000000000014552
I23
tp818
a(F2.1300000000010186
I21
tp819
a(F3.2100000000027649
I20
tp820
a(F4.6400000000030559
I19
tp821
a(F6.319999999999709
I17
tp822
a(F7.9400000000023283
I15
tp823
aF40.0
tp824
ssba(imeasure_core
ProblemSetSolution
p825
(dp826
g3
g184
sg154
g800
sg157
(dp827
g187
((lp828
(F6.4099999999998545
I32
tp829
aF40.650000000001455
tp830
sg236
((lp831
(F4.6899999999986903
I32
tp832
aF40.43999999999869
tp833
sg277
((lp834
(F0.75
I25
tp835
aF40.080000000001746
tp836
sg324
((lp837
F40.079999999998108
tp838
sg369
((lp839
(F0.42000000000189175
I17
tp840
aF40.010000000002037
tp841
ssba(imeasure_core
ProblemSetSolution
p842
(dp843
g3
g435
sg154
g800
sg157
(dp844
g438
((lp845
F44.690000000002328
tp846
sg489
((lp847
F44.43999999999869
tp848
sg534
((lp849
F47.869999999998981
tp850
sg583
((lp851
(F7.8600000000005821
I15
tp852
aF41.330000000001746
tp853
sg623
((lp854
(F6.9500000000007276
I16
tp855
aF40.139999999999418
tp856
ssba(imeasure_core
ProblemSetSolution
p857
(dp858
g3
g4
sg154
S"AnytimeBeam-w45-gf(1.5, 'exp')_with_PowerHeuristic2"
p859
sg157
(dp860
g8
((lp861
(F3.2999999999992724
I13
tp862
aF40.209999999999127
tp863
sg48
((lp864
(F2.6599999999998545
I4
tp865
aF41.350000000002183
tp866
sg75
((lp867
F40.149999999997817
tp868
sg106
((lp869
(F0.029999999998835847
I7
tp870
aF40.010000000002037
tp871
sg130
((lp872
(F0.059999999997671694
I30
tp873
a(F0.34000000000014552
I28
tp874
a(F0.68999999999869033
I27
tp875
a(F1.069999999999709
I25
tp876
a(F1.3999999999978172
I23
tp877
a(F2.1199999999989814
I21
tp878
a(F3.1899999999986903
I20
tp879
a(F4.6199999999989814
I19
tp880
a(F6.2999999999992724
I17
tp881
a(F7.930000000000291
I15
tp882
aF40.0
tp883
ssba(imeasure_core
ProblemSetSolution
p884
(dp885
g3
g184
sg154
g859
sg157
(dp886
g187
((lp887
(F6.4099999999998545
I32
tp888
aF40.659999999999854
tp889
sg236
((lp890
(F4.7199999999975262
I32
tp891
aF40.539999999997235
tp892
sg277
((lp893
(F0.73000000000320142
I25
tp894
aF40.110000000000582
tp895
sg324
((lp896
F40.080000000001746
tp897
sg369
((lp898
(F0.41999999999825377
I17
tp899
aF40.029999999998836
tp900
ssba(imeasure_core
ProblemSetSolution
p901
(dp902
g3
g435
sg154
g859
sg157
(dp903
g438
((lp904
F44.629999999997381
tp905
sg489
((lp906
F44.5
tp907
sg534
((lp908
F47.840000000000146
tp909
sg583
((lp910
(F7.9000000000014552
I15
tp911
aF41.299999999999272
tp912
sg623
((lp913
(F6.9700000000011642
I16
tp914
aF40.020000000000437
tp915
ssba(imeasure_core
ProblemSetSolution
p916
(dp917
g3
g4
sg154
S"AnytimeBeam-w5-gf(1.5, 'exp')_with_LinearHeuristic"
p918
sg157
(dp919
g8
((lp920
F40.040000000000873
tp921
sg48
((lp922
(F0.95999999999912689
I4
tp923
aF40.979999999999563
tp924
sg75
((lp925
(F11.549999999999272
I17
tp926
aF40.040000000000873
tp927
sg106
((lp928
(F0.040000000000873115
I7
tp929
aF40.009999999998399
tp930
sg130
((lp931
(F0.010000000002037268
I15
tp932
aF40.0
tp933
ssba(imeasure_core
ProblemSetSolution
p934
(dp935
g3
g184
sg154
g918
sg157
(dp936
g187
((lp937
F40.509999999998399
tp938
sg236
((lp939
F40.590000000000146
tp940
sg277
((lp941
F40.369999999998981
tp942
sg324
((lp943
F40.100000000002183
tp944
sg369
((lp945
F40.130000000001019
tp946
ssba(imeasure_core
ProblemSetSolution
p947
(dp948
g3
g435
sg154
g918
sg157
(dp949
g438
((lp950
F54.279999999998836
tp951
sg489
((lp952
F56.400000000001455
tp953
sg534
((lp954
F62.68999999999869
tp955
sg583
((lp956
F41.119999999998981
tp957
sg623
((lp958
F41.340000000000146
tp959
ssba(imeasure_core
ProblemSetSolution
p960
(dp961
g3
g4
sg154
S"AnytimeBeam-w15-gf(1.5, 'exp')_with_LinearHeuristic"
p962
sg157
(dp963
g8
((lp964
F41.049999999999272
tp965
sg48
((lp966
(F0.93000000000029104
I4
tp967
aF40.200000000000728
tp968
sg75
((lp969
(F11.470000000001164
I17
tp970
aF40.520000000000437
tp971
sg106
((lp972
(F0.049999999999272404
I7
tp973
aF40.009999999998399
tp974
sg130
((lp975
(F0.010000000002037268
I15
tp976
aF40.0
tp977
ssba(imeasure_core
ProblemSetSolution
p978
(dp979
g3
g184
sg154
g962
sg157
(dp980
g187
((lp981
F40.350000000002183
tp982
sg236
((lp983
F40.520000000000437
tp984
sg277
((lp985
F40.020000000000437
tp986
sg324
((lp987
F40.079999999998108
tp988
sg369
((lp989
F40.270000000000437
tp990
ssba(imeasure_core
ProblemSetSolution
p991
(dp992
g3
g435
sg154
g962
sg157
(dp993
g438
((lp994
F54.330000000001746
tp995
sg489
((lp996
F56.130000000001019
tp997
sg534
((lp998
F62.579999999998108
tp999
sg583
((lp1000
F40.979999999999563
tp1001
sg623
((lp1002
F41.280000000002474
tp1003
ssba(imeasure_core
ProblemSetSolution
p1004
(dp1005
g3
g4
sg154
S"AnytimeBeam-w25-gf(1.5, 'exp')_with_LinearHeuristic"
p1006
sg157
(dp1007
g8
((lp1008
F40.359999999996944
tp1009
sg48
((lp1010
(F1.0900000000001455
I4
tp1011
aF41.080000000001746
tp1012
sg75
((lp1013
(F11.509999999998399
I17
tp1014
aF40.56000000000131
tp1015
sg106
((lp1016
(F0.039999999997235136
I7
tp1017
aF40.029999999998836
tp1018
sg130
((lp1019
(F0.0099999999983992893
I15
tp1020
aF40.0
tp1021
ssba(imeasure_core
ProblemSetSolution
p1022
(dp1023
g3
g184
sg154
g1006
sg157
(dp1024
g187
((lp1025
F40.240000000001601
tp1026
sg236
((lp1027
F40.569999999999709
tp1028
sg277
((lp1029
F40.259999999998399
tp1030
sg324
((lp1031
F40.080000000001746
tp1032
sg369
((lp1033
F40.129999999997381
tp1034
ssba(imeasure_core
ProblemSetSolution
p1035
(dp1036
g3
g435
sg154
g1006
sg157
(dp1037
g438
((lp1038
F54.079999999998108
tp1039
sg489
((lp1040
F56.080000000001746
tp1041
sg534
((lp1042
F62.549999999999272
tp1043
sg583
((lp1044
F40.93999999999869
tp1045
sg623
((lp1046
F41.240000000001601
tp1047
ssba(imeasure_core
ProblemSetSolution
p1048
(dp1049
g3
g4
sg154
S"AnytimeBeam-w35-gf(1.5, 'exp')_with_LinearHeuristic"
p1050
sg157
(dp1051
g8
((lp1052
F40.520000000000437
tp1053
sg48
((lp1054
(F1.1599999999998545
I4
tp1055
aF40.779999999998836
tp1056
sg75
((lp1057
(F12.040000000000873
I17
tp1058
aF40.170000000001892
tp1059
sg106
((lp1060
(F0.039999999997235136
I7
tp1061
aF40.009999999998399
tp1062
sg130
((lp1063
(F0.0099999999983992893
I15
tp1064
aF40.0
tp1065
ssba(imeasure_core
ProblemSetSolution
p1066
(dp1067
g3
g184
sg154
g1050
sg157
(dp1068
g187
((lp1069
F40.169999999998254
tp1070
sg236
((lp1071
F40.630000000001019
tp1072
sg277
((lp1073
F40.400000000001455
tp1074
sg324
((lp1075
F40.069999999999709
tp1076
sg369
((lp1077
F40.130000000001019
tp1078
ssba(imeasure_core
ProblemSetSolution
p1079
(dp1080
g3
g435
sg154
g1050
sg157
(dp1081
g438
((lp1082
F54.159999999999854
tp1083
sg489
((lp1084
F56.18999999999869
tp1085
sg534
((lp1086
F62.220000000001164
tp1087
sg583
((lp1088
F40.920000000001892
tp1089
sg623
((lp1090
F41.289999999997235
tp1091
ssba(imeasure_core
ProblemSetSolution
p1092
(dp1093
g3
g4
sg154
S"AnytimeBeam-w45-gf(1.5, 'exp')_with_LinearHeuristic"
p1094
sg157
(dp1095
g8
((lp1096
F40.200000000000728
tp1097
sg48
((lp1098
(F1.2799999999988358
I4
tp1099
aF41.290000000000873
tp1100
sg75
((lp1101
(F11.68999999999869
I17
tp1102
aF40.360000000000582
tp1103
sg106
((lp1104
(F0.040000000000873115
I7
tp1105
aF40.029999999998836
tp1106
sg130
((lp1107
(F0.010000000002037268
I15
tp1108
aF40.0
tp1109
ssba(imeasure_core
ProblemSetSolution
p1110
(dp1111
g3
g184
sg154
g1094
sg157
(dp1112
g187
((lp1113
F40.209999999999127
tp1114
sg236
((lp1115
F40.580000000001746
tp1116
sg277
((lp1117
F40.399999999997817
tp1118
sg324
((lp1119
F40.110000000000582
tp1120
sg369
((lp1121
F40.020000000000437
tp1122
ssba(imeasure_core
ProblemSetSolution
p1123
(dp1124
g3
g435
sg154
g1094
sg157
(dp1125
g438
((lp1126
F54.279999999998836
tp1127
sg489
((lp1128
F56.389999999999418
tp1129
sg534
((lp1130
F63.139999999999418
tp1131
sg583
((lp1132
F40.889999999999418
tp1133
sg623
((lp1134
F41.290000000000873
tp1135
ssba.