(lp0
(imeasure_core
ProblemSetSolution
p1
(dp2
S'roomset'
p3
(imeasure_core
RoomSet
p4
(dp5
S'rooms'
p6
(dp7
(iproblems
RoomID
p8
(dp9
S'width'
p10
I9
sS'dusts'
p11
I10
sS'seed'
p12
I4712128852136459333
sS'obstacles'
p13
(I0
I8
tp14
sS'robots'
p15
I4
sS'height'
p16
I10
sb(imulti_robot_problem
MultiRobotState
p17
(dp18
S'obstacle_locations'
p19
c__builtin__
frozenset
p20
((lp21
(I1
I5
tp22
a(I8
I0
tp23
a(I0
I7
tp24
a(I0
I6
tp25
a(I2
I3
tp26
ag14
a(I1
I1
tp27
atp28
Rp29
sg10
I9
sS'dirt_locations'
p30
g20
((lp31
(I4
I7
tp32
a(I1
I3
tp33
a(I4
I9
tp34
a(I8
I1
tp35
a(I7
I6
tp36
a(I2
I6
tp37
a(I8
I7
tp38
a(I2
I2
tp39
a(I4
I1
tp40
a(I2
I4
tp41
atp42
Rp43
sg15
((I5
I8
tp44
(I6
I9
tp45
(I5
I0
tp46
(I3
I1
tp47
tp48
sg16
I10
sbs(iproblems
RoomID
p49
(dp50
g10
I8
sg11
I9
sg12
I6613812840851947673
sg13
(I3
I4
tp51
sg15
I1
sg16
I7
sb(imulti_robot_problem
MultiRobotState
p52
(dp53
g19
g20
((lp54
(I1
I4
tp55
ag51
a(I2
I4
tp56
a(I2
I1
tp57
a(I3
I5
tp58
atp59
Rp60
sg10
I8
sg30
g20
((lp61
(I6
I4
tp62
a(I5
I4
tp63
a(I6
I0
tp64
a(I7
I5
tp65
a(I1
I6
tp66
a(I2
I2
tp67
a(I0
I5
tp68
a(I4
I1
tp69
a(I4
I0
tp70
atp71
Rp72
sg15
((I3
I1
tp73
tp74
sg16
I7
sbs(iproblems
RoomID
p75
(dp76
g10
I7
sg11
I10
sg12
I956523682424107605
sg13
(I4
I8
tp77
sg15
I4
sg16
I10
sb(imulti_robot_problem
MultiRobotState
p78
(dp79
g19
g20
((lp80
(I2
I8
tp81
a(I4
I2
tp82
a(I3
I7
tp83
a(I2
I9
tp84
ag77
atp85
Rp86
sg10
I7
sg30
g20
((lp87
(I5
I9
tp88
a(I4
I7
tp89
a(I1
I3
tp90
a(I3
I3
tp91
a(I6
I1
tp92
a(I5
I4
tp93
a(I0
I4
tp94
a(I5
I3
tp95
a(I5
I2
tp96
a(I5
I5
tp97
atp98
Rp99
sg15
((I1
I9
tp100
(I4
I9
tp101
(I1
I8
tp102
(I0
I3
tp103
tp104
sg16
I10
sbs(iproblems
RoomID
p105
(dp106
g10
I8
sg11
I9
sg12
I4594210616595436404
sg13
(I5
I3
tp107
sg15
I3
sg16
I7
sb(imulti_robot_problem
MultiRobotState
p108
(dp109
g19
g20
((lp110
(I0
I1
tp111
a(I3
I3
tp112
a(I6
I1
tp113
a(I4
I3
tp114
a(I4
I2
tp115
ag107
atp116
Rp117
sg10
I8
sg30
g20
((lp118
(I6
I6
tp119
a(I5
I6
tp120
a(I4
I4
tp121
a(I1
I4
tp122
a(I1
I1
tp123
a(I0
I6
tp124
a(I5
I1
tp125
a(I1
I0
tp126
a(I0
I3
tp127
atp128
Rp129
sg15
((I2
I1
tp130
(I3
I4
tp131
(I3
I6
tp132
tp133
sg16
I7
sbs(iproblems
RoomID
p134
(dp135
g10
I8
sg11
I10
sg12
I2893396244277848635
sg13
(I4
I5
tp136
sg15
I1
sg16
I8
sb(imulti_robot_problem
MultiRobotState
p137
(dp138
g19
g20
((lp139
g136
a(I3
I7
tp140
a(I2
I6
tp141
a(I4
I6
tp142
atp143
Rp144
sg10
I8
sg30
g20
((lp145
(I6
I4
tp146
a(I0
I0
tp147
a(I6
I7
tp148
a(I3
I0
tp149
a(I2
I1
tp150
a(I0
I6
tp151
a(I6
I5
tp152
a(I2
I4
tp153
a(I7
I2
tp154
a(I5
I3
tp155
atp156
Rp157
sg15
((I2
I3
tp158
tp159
sg16
I8
sbssS'name'
p160
S'easy_roomset'
p161
sbsS'name'
p162
S"AnytimeBeam-w20-gf(1.3, 'exp')_with_PowerHeuristic2"
p163
sS'solutions'
p164
(dp165
g8
((lp166
(F2.9399999999986903
I51
tp167
aF40.020000000000437
tp168
sg49
((lp169
(F0.069999999999708962
I36
tp170
a(F2.8799999999973807
I30
tp171
a(F3.6099999999969441
I29
tp172
a(F8.5499999999992724
I28
tp173
a(F14.909999999999854
I27
tp174
a(F27.169999999998254
I26
tp175
a(F37.68999999999869
I25
tp176
aF40.0
tp177
sg75
((lp178
(F0.34000000000014552
I10
tp179
aF40.359999999996944
tp180
sg105
((lp181
(F1.25
I31
tp182
a(F7.5500000000029104
I29
tp183
a(F9.3900000000030559
I26
tp184
aF40.06000000000131
tp185
sg134
((lp186
(F0.40999999999985448
I63
tp187
a(F1.4399999999986903
I61
tp188
a(F4.0600000000013097
I57
tp189
a(F5.0400000000008731
I56
tp190
a(F6.2799999999988358
I54
tp191
a(F7.4599999999991269
I52
tp192
a(F9.5
I51
tp193
a(F12.479999999999563
I50
tp194
a(F15.380000000001019
I48
tp195
a(F18.430000000000291
I46
tp196
a(F21.56000000000131
I44
tp197
a(F30.360000000000582
I43
tp198
a(F38.639999999999418
I42
tp199
aF40.0
tp200
ssba(imeasure_core
ProblemSetSolution
p201
(dp202
g3
(imeasure_core
RoomSet
p203
(dp204
S'rooms'
p205
(dp206
(iproblems
RoomID
p207
(dp208
S'width'
p209
I11
sS'dusts'
p210
I10
sS'seed'
p211
I4712128852136459333
sS'obstacles'
p212
(I8
I7
tp213
sS'robots'
p214
I4
sS'height'
p215
I12
sb(imulti_robot_problem
MultiRobotState
p216
(dp217
S'obstacle_locations'
p218
g20
((lp219
(I4
I7
tp220
a(I3
I11
tp221
a(I0
I7
tp222
a(I1
I6
tp223
a(I2
I10
tp224
a(I1
I11
tp225
a(I9
I0
tp226
a(I5
I5
tp227
a(I7
I6
tp228
a(I4
I1
tp229
a(I1
I1
tp230
a(I6
I4
tp231
a(I4
I5
tp232
a(I7
I7
tp233
a(I2
I3
tp234
a(I1
I9
tp235
ag213
a(I4
I2
tp236
a(I0
I8
tp237
a(I6
I5
tp238
a(I5
I3
tp239
a(I3
I1
tp240
a(I2
I11
tp241
a(I0
I9
tp242
atp243
Rp244
sg209
I11
sS'dirt_locations'
p245
g20
((lp246
(I2
I7
tp247
a(I9
I1
tp248
a(I9
I8
tp249
a(I3
I3
tp250
a(I5
I1
tp251
a(I2
I5
tp252
a(I3
I4
tp253
a(I2
I4
tp254
a(I5
I8
tp255
a(I9
I7
tp256
atp257
Rp258
sg214
((I6
I10
tp259
(I8
I10
tp260
(I7
I0
tp261
(I5
I11
tp262
tp263
sg215
I12
sbs(iproblems
RoomID
p264
(dp265
g209
I10
sg210
I9
sg211
I4594210616595436404
sg212
(I4
I4
tp266
sg214
I3
sg215
I9
sb(imulti_robot_problem
MultiRobotState
p267
(dp268
g218
g20
((lp269
(I1
I3
tp270
a(I5
I6
tp271
a(I2
I1
tp272
a(I1
I6
tp273
a(I9
I4
tp274
a(I3
I7
tp275
a(I0
I3
tp276
a(I1
I2
tp277
a(I5
I5
tp278
a(I1
I5
tp279
a(I7
I6
tp280
ag266
a(I6
I3
tp281
a(I3
I0
tp282
a(I3
I6
tp283
a(I0
I4
tp284
a(I8
I6
tp285
a(I5
I3
tp286
a(I1
I1
tp287
a(I5
I4
tp288
a(I4
I5
tp289
a(I0
I5
tp290
a(I9
I5
tp291
a(I3
I5
tp292
a(I0
I1
tp293
a(I3
I4
tp294
a(I0
I6
tp295
a(I1
I8
tp296
a(I2
I3
tp297
a(I2
I0
tp298
a(I5
I2
tp299
a(I0
I2
tp300
atp301
Rp302
sg209
I10
sg245
g20
((lp303
(I7
I0
tp304
a(I6
I8
tp305
a(I2
I8
tp306
a(I8
I5
tp307
a(I8
I8
tp308
a(I0
I8
tp309
a(I7
I8
tp310
a(I5
I8
tp311
a(I8
I2
tp312
atp313
Rp314
sg214
((I4
I6
tp315
(I2
I5
tp316
(I6
I1
tp317
tp318
sg215
I9
sbs(iproblems
RoomID
p319
(dp320
g209
I12
sg210
I6
sg211
I7529058068588108450
sg212
(I8
I8
tp321
sg214
I4
sg215
I11
sb(imulti_robot_problem
MultiRobotState
p322
(dp323
g218
g20
((lp324
(I5
I9
tp325
a(I6
I9
tp326
a(I9
I1
tp327
a(I6
I6
tp328
a(I7
I7
tp329
a(I3
I7
tp330
a(I5
I8
tp331
a(I8
I2
tp332
a(I5
I5
tp333
a(I7
I6
tp334
a(I4
I4
tp335
a(I1
I5
tp336
a(I7
I2
tp337
a(I3
I6
tp338
a(I2
I2
tp339
a(I1
I10
tp340
a(I4
I10
tp341
a(I3
I2
tp342
a(I2
I6
tp343
a(I10
I4
tp344
a(I7
I1
tp345
a(I7
I5
tp346
a(I4
I6
tp347
a(I6
I8
tp348
a(I7
I4
tp349
ag321
a(I7
I8
tp350
a(I3
I10
tp351
atp352
Rp353
sg209
I12
sg245
g20
((lp354
(I7
I3
tp355
a(I6
I0
tp356
a(I11
I3
tp357
a(I0
I5
tp358
a(I11
I6
tp359
a(I4
I0
tp360
atp361
Rp362
sg214
((I11
I7
tp363
(I6
I2
tp364
(I11
I5
tp365
(I6
I7
tp366
tp367
sg215
I11
sbs(iproblems
RoomID
p368
(dp369
g209
I9
sg210
I8
sg211
I6858376947525423350
sg212
(I5
I0
tp370
sg214
I4
sg215
I9
sb(imulti_robot_problem
MultiRobotState
p371
(dp372
g218
g20
((lp373
(I4
I7
tp374
a(I1
I3
tp375
a(I3
I0
tp376
a(I2
I8
tp377
a(I2
I1
tp378
a(I1
I6
tp379
a(I5
I1
tp380
a(I2
I5
tp381
a(I7
I2
tp382
a(I5
I5
tp383
a(I6
I3
tp384
ag370
a(I2
I2
tp385
a(I6
I4
tp386
a(I7
I1
tp387
a(I6
I0
tp388
a(I2
I3
tp389
a(I0
I8
tp390
a(I2
I7
tp391
a(I6
I1
tp392
a(I5
I7
tp393
a(I3
I8
tp394
a(I1
I8
tp395
a(I4
I3
tp396
a(I3
I4
tp397
a(I2
I4
tp398
atp399
Rp400
sg209
I9
sg245
g20
((lp401
(I8
I3
tp402
a(I7
I0
tp403
a(I4
I6
tp404
a(I6
I6
tp405
a(I8
I0
tp406
a(I8
I8
tp407
a(I7
I5
tp408
a(I8
I4
tp409
atp410
Rp411
sg214
((I1
I1
tp412
(I6
I5
tp413
(I8
I2
tp414
(I1
I5
tp415
tp416
sg215
I9
sbs(iproblems
RoomID
p417
(dp418
g209
I11
sg210
I5
sg211
I1881095652490078568
sg212
(I4
I9
tp419
sg214
I4
sg215
I11
sb(imulti_robot_problem
MultiRobotState
p420
(dp421
g218
g20
((lp422
(I6
I9
tp423
a(I6
I6
tp424
a(I2
I8
tp425
a(I4
I7
tp426
ag419
a(I7
I6
tp427
a(I4
I4
tp428
a(I8
I10
tp429
a(I6
I3
tp430
a(I7
I10
tp431
a(I2
I2
tp432
a(I1
I1
tp433
a(I5
I4
tp434
a(I4
I5
tp435
a(I9
I3
tp436
a(I7
I5
tp437
a(I6
I7
tp438
a(I6
I5
tp439
a(I3
I5
tp440
a(I4
I6
tp441
a(I7
I4
tp442
a(I1
I7
tp443
a(I4
I8
tp444
a(I7
I8
tp445
a(I8
I4
tp446
atp447
Rp448
sg209
I11
sg245
g20
((lp449
(I1
I10
tp450
a(I5
I9
tp451
a(I0
I0
tp452
a(I9
I7
tp453
a(I10
I2
tp454
atp455
Rp456
sg214
((I5
I7
tp457
(I8
I1
tp458
(I3
I1
tp459
(I8
I8
tp460
tp461
sg215
I11
sbssS'name'
p462
S'mild_roomset'
p463
sbsg162
g163
sg164
(dp464
g207
((lp465
(F1.2100000000027649
I23
tp466
aF40.280000000002474
tp467
sg264
((lp468
F40.059999999997672
tp469
sg319
((lp470
(F0.82000000000334694
I33
tp471
aF40.190000000002328
tp472
sg368
((lp473
(F0.30999999999767169
I16
tp474
aF40.029999999998836
tp475
sg417
((lp476
(F0.17000000000189175
I7
tp477
aF40.150000000001455
tp478
ssba(imeasure_core
ProblemSetSolution
p479
(dp480
g3
(imeasure_core
RoomSet
p481
(dp482
S'rooms'
p483
(dp484
(iproblems
RoomID
p485
(dp486
S'width'
p487
I12
sS'dusts'
p488
I15
sS'seed'
p489
I4712128852136459333
sS'obstacles'
p490
(I5
I9
tp491
sS'robots'
p492
I7
sS'height'
p493
I13
sb(imulti_robot_problem
MultiRobotState
p494
(dp495
S'obstacle_locations'
p496
g20
((lp497
g491
a(I4
I9
tp498
a(I5
I5
tp499
a(I2
I8
tp500
a(I3
I1
tp501
a(I4
I12
tp502
a(I9
I4
tp503
a(I1
I7
tp504
a(I1
I10
tp505
a(I3
I12
tp506
a(I3
I9
tp507
a(I0
I8
tp508
a(I5
I2
tp509
atp510
Rp511
sg487
I12
sS'dirt_locations'
p512
g20
((lp513
(I6
I9
tp514
a(I9
I7
tp515
a(I3
I3
tp516
a(I1
I12
tp517
a(I5
I6
tp518
a(I7
I7
tp519
a(I3
I8
tp520
a(I8
I8
tp521
a(I10
I0
tp522
a(I2
I5
tp523
a(I10
I2
tp524
a(I3
I4
tp525
a(I1
I1
tp526
a(I5
I8
tp527
a(I3
I5
tp528
atp529
Rp530
sg492
((I6
I11
tp531
(I8
I11
tp532
(I7
I0
tp533
(I4
I1
tp534
(I6
I12
tp535
(I10
I9
tp536
(I6
I1
tp537
tp538
sg493
I13
sbs(iproblems
RoomID
p539
(dp540
g487
I11
sg488
I14
sg489
I6613812840851947673
sg490
(I5
I5
tp541
sg492
I5
sg493
I10
sb(imulti_robot_problem
MultiRobotState
p542
(dp543
g496
g20
((lp544
(I10
I8
tp545
a(I4
I7
tp546
a(I2
I6
tp547
ag541
a(I6
I6
tp548
a(I4
I5
tp549
a(I8
I5
tp550
a(I7
I4
tp551
a(I3
I6
tp552
a(I6
I3
tp553
a(I0
I6
tp554
a(I7
I5
tp555
a(I1
I6
tp556
a(I1
I3
tp557
a(I8
I7
tp558
a(I8
I6
tp559
a(I3
I8
tp560
a(I3
I7
tp561
a(I10
I3
tp562
a(I2
I4
tp563
a(I3
I5
tp564
atp565
Rp566
sg487
I11
sg512
g20
((lp567
(I6
I4
tp568
a(I3
I2
tp569
a(I4
I9
tp570
a(I4
I6
tp571
a(I9
I8
tp572
a(I8
I0
tp573
a(I9
I7
tp574
a(I8
I8
tp575
a(I5
I0
tp576
a(I1
I0
tp577
a(I8
I4
tp578
a(I5
I2
tp579
a(I6
I1
tp580
a(I3
I3
tp581
atp582
Rp583
sg492
((I5
I1
tp584
(I0
I8
tp585
(I2
I9
tp586
(I4
I1
tp587
(I7
I6
tp588
tp589
sg493
I10
sbs(iproblems
RoomID
p590
(dp591
g487
I10
sg488
I15
sg489
I956523682424107605
sg490
(I4
I8
tp592
sg492
I6
sg493
I13
sb(imulti_robot_problem
MultiRobotState
p593
(dp594
g496
g20
((lp595
(I2
I7
tp596
a(I5
I9
tp597
a(I6
I9
tp598
a(I5
I0
tp599
a(I4
I9
tp600
a(I9
I4
tp601
ag592
a(I5
I6
tp602
a(I3
I10
tp603
a(I5
I7
tp604
a(I3
I11
tp605
a(I9
I9
tp606
a(I7
I10
tp607
a(I5
I10
tp608
a(I7
I8
tp609
a(I1
I1
tp610
a(I5
I8
tp611
a(I5
I5
tp612
atp613
Rp614
sg487
I10
sg512
g20
((lp615
(I8
I3
tp616
a(I1
I3
tp617
a(I6
I6
tp618
a(I8
I12
tp619
a(I7
I6
tp620
a(I6
I10
tp621
a(I5
I4
tp622
a(I1
I4
tp623
a(I2
I10
tp624
a(I7
I4
tp625
a(I1
I5
tp626
a(I7
I5
tp627
a(I0
I9
tp628
a(I7
I11
tp629
a(I6
I2
tp630
atp631
Rp632
sg492
((I1
I12
tp633
(I6
I12
tp634
(I2
I11
tp635
(I0
I4
tp636
(I9
I1
tp637
(I7
I7
tp638
tp639
sg493
I13
sbs(iproblems
RoomID
p640
(dp641
g487
I11
sg488
I15
sg489
I2893396244277848635
sg490
(I6
I6
tp642
sg492
I5
sg493
I11
sb(imulti_robot_problem
MultiRobotState
p643
(dp644
g496
g20
((lp645
(I7
I3
tp646
a(I4
I7
tp647
a(I5
I5
tp648
a(I4
I8
tp649
a(I5
I6
tp650
a(I2
I8
tp651
ag642
a(I3
I2
tp652
a(I3
I9
tp653
a(I4
I3
tp654
a(I1
I7
tp655
a(I6
I9
tp656
atp657
Rp658
sg487
I11
sg512
g20
((lp659
(I5
I3
tp660
a(I2
I6
tp661
a(I3
I6
tp662
a(I3
I10
tp663
a(I3
I1
tp664
a(I2
I10
tp665
a(I0
I5
tp666
a(I5
I8
tp667
a(I8
I7
tp668
a(I3
I7
tp669
a(I8
I6
tp670
a(I7
I9
tp671
a(I4
I1
tp672
a(I6
I5
tp673
a(I4
I0
tp674
atp675
Rp676
sg492
((I4
I5
tp677
(I0
I9
tp678
(I0
I1
tp679
(I9
I2
tp680
(I8
I10
tp681
tp682
sg493
I11
sbs(iproblems
RoomID
p683
(dp684
g487
I10
sg488
I13
sg489
I6858376947525423350
sg490
(I1
I6
tp685
sg492
I7
sg493
I10
sb(imulti_robot_problem
MultiRobotState
p686
(dp687
g496
g20
((lp688
(I2
I7
tp689
a(I8
I6
tp690
a(I4
I7
tp691
a(I1
I3
tp692
a(I2
I9
tp693
ag685
a(I8
I1
tp694
a(I2
I8
tp695
a(I1
I7
tp696
a(I2
I1
tp697
a(I2
I3
tp698
a(I2
I2
tp699
a(I0
I9
tp700
a(I9
I5
tp701
a(I2
I5
tp702
a(I2
I4
tp703
atp704
Rp705
sg487
I10
sg512
g20
((lp706
(I5
I7
tp707
a(I4
I9
tp708
a(I3
I3
tp709
a(I3
I0
tp710
a(I7
I6
tp711
a(I8
I0
tp712
a(I9
I9
tp713
a(I6
I2
tp714
a(I5
I8
tp715
a(I9
I4
tp716
a(I8
I5
tp717
a(I4
I4
tp718
a(I5
I3
tp719
atp720
Rp721
sg492
((I1
I2
tp722
(I7
I5
tp723
(I7
I2
tp724
(I9
I2
tp725
(I1
I5
tp726
(I9
I0
tp727
(I6
I6
tp728
tp729
sg493
I10
sbssS'name'
p730
S'heavy_roomset'
p731
sbsg162
g163
sg164
(dp732
g485
((lp733
F45.090000000000146
tp734
sg539
((lp735
F40.220000000001164
tp736
sg640
((lp737
(F7.9399999999986903
I27
tp738
aF40.149999999997817
tp739
sg590
((lp740
(F11.459999999999127
I10
tp741
aF41.840000000000146
tp742
sg683
((lp743
(F32.06000000000131
I14
tp744
aF45.069999999999709
tp745
ssba(imeasure_core
ProblemSetSolution
p746
(dp747
g3
g4
sg162
S"AnytimeBeam-w20-gf(1.5, 'exp')_with_PowerHeuristic2"
p748
sg164
(dp749
g8
((lp750
(F2.9000000000014552
I51
tp751
aF40.06000000000131
tp752
sg49
((lp753
(F0.069999999999708962
I36
tp754
a(F2.1199999999989814
I30
tp755
a(F2.8499999999985448
I29
tp756
a(F7.75
I28
tp757
a(F14.080000000001746
I27
tp758
a(F26.360000000000582
I26
tp759
a(F36.830000000001746
I25
tp760
aF40.0
tp761
sg75
((lp762
(F0.34000000000014552
I10
tp763
aF40.119999999998981
tp764
sg105
((lp765
(F1.2400000000016007
I31
tp766
a(F6.0500000000029104
I26
tp767
aF40.030000000002474
tp768
sg134
((lp769
(F0.47999999999956344
I63
tp770
a(F0.86999999999898137
I61
tp771
a(F2.680000000000291
I57
tp772
a(F3.6299999999973807
I56
tp773
a(F4.8799999999973807
I54
tp774
a(F6.0399999999972351
I52
tp775
a(F8.0599999999976717
I51
tp776
a(F11.0
I50
tp777
a(F13.930000000000291
I48
tp778
a(F17.009999999998399
I46
tp779
a(F20.180000000000291
I44
tp780
a(F29.059999999997672
I43
tp781
a(F37.379999999997381
I42
tp782
aF40.0
tp783
ssba(imeasure_core
ProblemSetSolution
p784
(dp785
g3
g203
sg162
g748
sg164
(dp786
g207
((lp787
(F1.2199999999975262
I23
tp788
aF40.25
tp789
sg264
((lp790
F40.020000000000437
tp791
sg319
((lp792
(F0.81999999999970896
I33
tp793
aF40.099999999998545
tp794
sg368
((lp795
(F0.31000000000130967
I16
tp796
aF40.069999999999709
tp797
sg417
((lp798
(F0.18000000000029104
I7
tp799
aF40.099999999998545
tp800
ssba(imeasure_core
ProblemSetSolution
p801
(dp802
g3
g481
sg162
g748
sg164
(dp803
g485
((lp804
F45.25
tp805
sg539
((lp806
F40.090000000000146
tp807
sg640
((lp808
(F7.9500000000007276
I27
tp809
aF40.130000000001019
tp810
sg590
((lp811
(F11.450000000000728
I10
tp812
aF40.06000000000131
tp813
sg683
((lp814
(F31.879999999997381
I14
tp815
aF44.950000000000728
tp816
ssba(imeasure_core
ProblemSetSolution
p817
(dp818
g3
g4
sg162
S"AnytimeBeam-w20-gf(1.7, 'exp')_with_PowerHeuristic2"
p819
sg164
(dp820
g8
((lp821
(F2.9099999999998545
I51
tp822
aF40.040000000000873
tp823
sg49
((lp824
(F0.069999999999708962
I36
tp825
a(F1.7000000000007276
I30
tp826
a(F2.4399999999986903
I29
tp827
a(F7.3899999999994179
I28
tp828
a(F13.759999999998399
I27
tp829
a(F26.0
I26
tp830
a(F36.5
I25
tp831
aF40.0
tp832
sg75
((lp833
(F0.34000000000014552
I10
tp834
aF40.200000000000728
tp835
sg105
((lp836
(F1.2399999999979627
I31
tp837
a(F4.4599999999991269
I29
tp838
a(F6.3799999999973807
I26
tp839
aF40.059999999997672
tp840
sg134
((lp841
(F0.47999999999956344
I63
tp842
a(F0.83000000000174623
I61
tp843
a(F1.8100000000013097
I57
tp844
a(F2.7200000000011642
I56
tp845
a(F3.9700000000011642
I54
tp846
a(F5.1300000000010186
I52
tp847
a(F7.1300000000010186
I51
tp848
a(F10.069999999999709
I50
tp849
a(F12.990000000001601
I48
tp850
a(F16.040000000000873
I46
tp851
a(F19.139999999999418
I44
tp852
a(F27.920000000001892
I43
tp853
a(F36.209999999999127
I42
tp854
aF40.0
tp855
ssba(imeasure_core
ProblemSetSolution
p856
(dp857
g3
g203
sg162
g819
sg164
(dp858
g207
((lp859
(F1.2200000000011642
I23
tp860
aF40.200000000000728
tp861
sg264
((lp862
F40.099999999998545
tp863
sg319
((lp864
(F0.81000000000130967
I33
tp865
aF40.030000000002474
tp866
sg368
((lp867
(F0.2999999999992724
I16
tp868
aF40.009999999998399
tp869
sg417
((lp870
(F0.17000000000189175
I7
tp871
aF40.150000000001455
tp872
ssba(imeasure_core
ProblemSetSolution
p873
(dp874
g3
g481
sg162
g819
sg164
(dp875
g485
((lp876
F44.700000000000728
tp877
sg539
((lp878
F40.069999999999709
tp879
sg640
((lp880
(F7.9500000000007276
I27
tp881
aF40.330000000001746
tp882
sg590
((lp883
(F11.409999999999854
I10
tp884
aF40.789999999997235
tp885
sg683
((lp886
(F31.799999999999272
I14
tp887
aF44.790000000000873
tp888
ssba(imeasure_core
ProblemSetSolution
p889
(dp890
g3
g4
sg162
S"AnytimeBeam-w20-gf(1.8999999999999999, 'exp')_with_PowerHeuristic2"
p891
sg164
(dp892
g8
((lp893
(F2.9200000000018917
I51
tp894
aF40.130000000001019
tp895
sg49
((lp896
(F0.069999999999708962
I36
tp897
a(F1.7599999999983993
I30
tp898
a(F2.4899999999979627
I29
tp899
a(F7.3699999999989814
I28
tp900
a(F13.720000000001164
I27
tp901
a(F25.970000000001164
I26
tp902
a(F36.43999999999869
I25
tp903
aF40.0
tp904
sg75
((lp905
(F0.34000000000014552
I10
tp906
aF40.090000000000146
tp907
sg105
((lp908
(F1.2399999999979627
I31
tp909
a(F4.5999999999985448
I26
tp910
aF40.049999999999272
tp911
sg134
((lp912
(F0.47999999999956344
I63
tp913
a(F0.84000000000014552
I61
tp914
a(F1.819999999999709
I57
tp915
a(F2.7400000000016007
I56
tp916
a(F3.9599999999991269
I54
tp917
a(F5.0999999999985448
I52
tp918
a(F7.0600000000013097
I51
tp919
a(F9.9500000000007276
I50
tp920
a(F12.849999999998545
I48
tp921
a(F15.880000000001019
I46
tp922
a(F19.009999999998399
I44
tp923
a(F27.779999999998836
I43
tp924
a(F36.020000000000437
I42
tp925
aF40.0
tp926
ssba(imeasure_core
ProblemSetSolution
p927
(dp928
g3
g203
sg162
g891
sg164
(dp929
g207
((lp930
(F1.2099999999991269
I23
tp931
aF40.119999999998981
tp932
sg264
((lp933
F40.020000000000437
tp934
sg319
((lp935
(F0.81999999999970896
I33
tp936
aF40.229999999999563
tp937
sg368
((lp938
(F0.2999999999992724
I16
tp939
aF40.0
tp940
sg417
((lp941
(F0.17000000000189175
I7
tp942
aF40.150000000001455
tp943
ssba(imeasure_core
ProblemSetSolution
p944
(dp945
g3
g481
sg162
g891
sg164
(dp946
g485
((lp947
F44.990000000001601
tp948
sg539
((lp949
F40.259999999998399
tp950
sg640
((lp951
(F8.0
I27
tp952
aF40.090000000000146
tp953
sg590
((lp954
(F11.490000000001601
I10
tp955
aF40.139999999999418
tp956
sg683
((lp957
(F32.0
I14
tp958
aF45.080000000001746
tp959
ssba(imeasure_core
ProblemSetSolution
p960
(dp961
g3
g4
sg162
S"AnytimeBeam-w20-gf(1.3, 'exp')_with_LinearHeuristic"
p962
sg164
(dp963
g8
((lp964
F40.170000000001892
tp965
sg49
((lp966
(F0.020000000000436557
I25
tp967
aF40.0
tp968
sg75
((lp969
(F37.860000000000582
I286
tp970
aF40.0
tp971
sg105
((lp972
(F0.18000000000029104
I8
tp973
aF40.020000000000437
tp974
sg134
((lp975
(F0.029999999998835847
I32
tp976
a(F1.3099999999976717
I30
tp977
aF40.0
tp978
ssba(imeasure_core
ProblemSetSolution
p979
(dp980
g3
g203
sg162
g962
sg164
(dp981
g207
((lp982
F40.259999999998399
tp983
sg264
((lp984
(F1.680000000000291
I50
tp985
a(F19.130000000001019
I49
tp986
a(F31.049999999999272
I48
tp987
aF40.030000000002474
tp988
sg319
((lp989
F40.039999999997235
tp990
sg368
((lp991
F40.080000000001746
tp992
sg417
((lp993
(F0.48999999999796273
I7
tp994
aF40.130000000001019
tp995
ssba(imeasure_core
ProblemSetSolution
p996
(dp997
g3
g481
sg162
g962
sg164
(dp998
g485
((lp999
F41.18999999999869
tp1000
sg539
((lp1001
F40.329999999998108
tp1002
sg640
((lp1003
F40.889999999999418
tp1004
sg590
((lp1005
F40.360000000000582
tp1006
sg683
((lp1007
F40.400000000001455
tp1008
ssba(imeasure_core
ProblemSetSolution
p1009
(dp1010
g3
g4
sg162
S"AnytimeBeam-w20-gf(1.5, 'exp')_with_LinearHeuristic"
p1011
sg164
(dp1012
g8
((lp1013
F40.25
tp1014
sg49
((lp1015
(F0.0099999999983992893
I25
tp1016
aF40.0
tp1017
sg75
((lp1018
(F37.830000000001746
I286
tp1019
aF40.020000000000437
tp1020
sg105
((lp1021
(F0.16999999999825377
I8
tp1022
aF40.049999999999272
tp1023
sg134
((lp1024
(F0.029999999998835847
I32
tp1025
a(F1.2000000000007276
I30
tp1026
aF40.0
tp1027
ssba(imeasure_core
ProblemSetSolution
p1028
(dp1029
g3
g203
sg162
g1011
sg164
(dp1030
g207
((lp1031
F40.139999999999418
tp1032
sg264
((lp1033
(F1.6700000000018917
I50
tp1034
a(F19.180000000000291
I49
tp1035
a(F37.5
I48
tp1036
aF40.0
tp1037
sg319
((lp1038
F40.0
tp1039
sg368
((lp1040
F40.020000000000437
tp1041
sg417
((lp1042
(F0.47999999999956344
I7
tp1043
aF40.100000000002183
tp1044
ssba(imeasure_core
ProblemSetSolution
p1045
(dp1046
g3
g481
sg162
g1011
sg164
(dp1047
g485
((lp1048
F41.43999999999869
tp1049
sg539
((lp1050
F40.080000000001746
tp1051
sg640
((lp1052
F40.05000000000291
tp1053
sg590
((lp1054
F40.239999999997963
tp1055
sg683
((lp1056
F40.489999999997963
tp1057
ssba(imeasure_core
ProblemSetSolution
p1058
(dp1059
g3
g4
sg162
S"AnytimeBeam-w20-gf(1.7, 'exp')_with_LinearHeuristic"
p1060
sg164
(dp1061
g8
((lp1062
F40.369999999998981
tp1063
sg49
((lp1064
(F0.020000000000436557
I25
tp1065
aF40.0
tp1066
sg75
((lp1067
(F37.849999999998545
I286
tp1068
aF40.040000000000873
tp1069
sg105
((lp1070
(F0.16999999999825377
I8
tp1071
aF40.020000000000437
tp1072
sg134
((lp1073
(F0.029999999998835847
I32
tp1074
a(F0.77999999999883585
I30
tp1075
aF40.0
tp1076
ssba(imeasure_core
ProblemSetSolution
p1077
(dp1078
g3
g203
sg162
g1060
sg164
(dp1079
g207
((lp1080
F40.069999999999709
tp1081
sg264
((lp1082
(F1.680000000000291
I50
tp1083
a(F12.359999999996944
I49
tp1084
a(F30.289999999997235
I48
tp1085
aF40.0
tp1086
sg319
((lp1087
F40.079999999998108
tp1088
sg368
((lp1089
F40.029999999998836
tp1090
sg417
((lp1091
(F0.48000000000320142
I7
tp1092
aF40.110000000000582
tp1093
ssba(imeasure_core
ProblemSetSolution
p1094
(dp1095
g3
g481
sg162
g1060
sg164
(dp1096
g485
((lp1097
F41.319999999999709
tp1098
sg539
((lp1099
F40.069999999999709
tp1100
sg640
((lp1101
F40.020000000000437
tp1102
sg590
((lp1103
F40.139999999999418
tp1104
sg683
((lp1105
F40.430000000000291
tp1106
ssba(imeasure_core
ProblemSetSolution
p1107
(dp1108
g3
g4
sg162
S"AnytimeBeam-w20-gf(1.8999999999999999, 'exp')_with_LinearHeuristic"
p1109
sg164
(dp1110
g8
((lp1111
F40.159999999999854
tp1112
sg49
((lp1113
(F0.020000000000436557
I25
tp1114
aF40.0
tp1115
sg75
((lp1116
(F37.860000000000582
I286
tp1117
aF40.009999999998399
tp1118
sg105
((lp1119
(F0.18000000000029104
I8
tp1120
aF40.010000000002037
tp1121
sg134
((lp1122
(F0.029999999998835847
I32
tp1123
a(F0.80999999999767169
I30
tp1124
aF40.0
tp1125
ssba(imeasure_core
ProblemSetSolution
p1126
(dp1127
g3
g203
sg162
g1109
sg164
(dp1128
g207
((lp1129
F40.159999999999854
tp1130
sg264
((lp1131
(F1.6700000000018917
I50
tp1132
a(F16.700000000000728
I49
tp1133
a(F36.709999999999127
I14
tp1134
aF40.010000000002037
tp1135
sg319
((lp1136
F40.020000000000437
tp1137
sg368
((lp1138
F40.029999999998836
tp1139
sg417
((lp1140
(F0.47999999999956344
I7
tp1141
aF40.149999999997817
tp1142
ssba(imeasure_core
ProblemSetSolution
p1143
(dp1144
g3
g481
sg162
g1109
sg164
(dp1145
g485
((lp1146
F41.420000000001892
tp1147
sg539
((lp1148
F40.169999999998254
tp1149
sg640
((lp1150
F40.129999999997381
tp1151
sg590
((lp1152
F40.140000000003056
tp1153
sg683
((lp1154
F40.130000000001019
tp1155
ssba.