(lp0
(imeasure_core
ProblemSetSolution
p1
(dp2
S'roomset'
p3
(imeasure_core
RoomSet
p4
(dp5
S'rooms'
p6
(dp7
(iproblems
RoomID
p8
(dp9
S'dusts'
p10
I5
sS'obstacles'
p11
(I6
I4
tp12
sS'robots'
p13
I2
sS'height'
p14
I8
sS'width'
p15
I10
sS'seed'
p16
I1662056218554549082
sb(imulti_robot_problem
MultiRobotState
p17
(dp18
S'obstacle_locations'
p19
c__builtin__
frozenset
p20
((lp21
g12
a(I4
I6
tp22
a(I3
I6
tp23
a(I4
I4
tp24
a(I9
I6
tp25
a(I5
I5
tp26
atp27
Rp28
sg15
I10
sS'dirt_locations'
p29
g20
((lp30
(I4
I5
tp31
a(I8
I3
tp32
a(I8
I4
tp33
a(I7
I7
tp34
a(I3
I3
tp35
atp36
Rp37
sg13
((I9
I3
tp38
(I2
I0
tp39
tp40
sg14
I8
sbs(iproblems
RoomID
p41
(dp42
g10
I8
sg11
(I5
I7
tp43
sg13
I5
sg14
I9
sg15
I10
sg16
I5594871498841892311
sb(imulti_robot_problem
MultiRobotState
p44
(dp45
g19
g20
((lp46
(I4
I7
tp47
a(I3
I6
tp48
a(I5
I1
tp49
a(I1
I0
tp50
ag43
a(I8
I3
tp51
a(I5
I8
tp52
atp53
Rp54
sg15
I10
sg29
g20
((lp55
(I0
I1
tp56
a(I9
I0
tp57
a(I8
I2
tp58
a(I6
I0
tp59
a(I1
I1
tp60
a(I1
I5
tp61
a(I9
I4
tp62
a(I2
I4
tp63
atp64
Rp65
sg13
((I7
I6
tp66
(I8
I4
tp67
(I5
I4
tp68
(I7
I2
tp69
(I7
I8
tp70
tp71
sg14
I9
sbs(iproblems
RoomID
p72
(dp73
g10
I6
sg11
(I4
I4
tp74
sg13
I5
sg14
I7
sg15
I8
sg16
I8833747186876682921
sb(imulti_robot_problem
MultiRobotState
p75
(dp76
g19
g20
((lp77
(I2
I2
tp78
ag74
a(I3
I4
tp79
a(I3
I3
tp80
a(I3
I5
tp81
atp82
Rp83
sg15
I8
sg29
g20
((lp84
(I6
I4
tp85
a(I5
I4
tp86
a(I1
I3
tp87
a(I5
I1
tp88
a(I0
I3
tp89
a(I5
I3
tp90
atp91
Rp92
sg13
((I2
I1
tp93
(I6
I1
tp94
(I3
I1
tp95
(I5
I0
tp96
(I7
I3
tp97
tp98
sg14
I7
sbs(iproblems
RoomID
p99
(dp100
g10
I7
sg11
(I5
I2
tp101
sg13
I5
sg14
I8
sg15
I9
sg16
I365562409358139953
sb(imulti_robot_problem
MultiRobotState
p102
(dp103
g19
g20
((lp104
(I6
I4
tp105
a(I5
I5
tp106
a(I2
I1
tp107
a(I3
I7
tp108
a(I2
I5
tp109
ag101
a(I0
I2
tp110
a(I5
I3
tp111
atp112
Rp113
sg15
I9
sg29
g20
((lp114
(I2
I0
tp115
a(I1
I6
tp116
a(I8
I2
tp117
a(I4
I5
tp118
a(I8
I6
tp119
a(I5
I7
tp120
a(I3
I4
tp121
atp122
Rp123
sg13
((I4
I2
tp124
(I8
I3
tp125
(I6
I3
tp126
(I2
I4
tp127
(I6
I7
tp128
tp129
sg14
I8
sbs(iproblems
RoomID
p130
(dp131
g10
I6
sg11
(I2
I3
tp132
sg13
I1
sg14
I8
sg15
I8
sg16
I1085536589165212248
sb(imulti_robot_problem
MultiRobotState
p133
(dp134
g19
g20
((lp135
(I1
I5
tp136
ag132
a(I1
I4
tp137
a(I1
I6
tp138
a(I0
I7
tp139
a(I4
I0
tp140
atp141
Rp142
sg15
I8
sg29
g20
((lp143
(I0
I1
tp144
a(I1
I2
tp145
a(I7
I3
tp146
a(I5
I1
tp147
a(I6
I0
tp148
a(I2
I1
tp149
atp150
Rp151
sg13
((I3
I2
tp152
tp153
sg14
I8
sbssS'name'
p154
S'easy_roomset'
p155
sbsg154
S"AnytimeBeam-w5-gf(1.5, 'exp')_with_PowerHeuristic2"
p156
sS'solutions'
p157
(dp158
g41
((lp159
(F9.75
I13
tp160
aF40.7599999999984
tp161
sg8
((lp162
(F0.0
I7
tp163
aF40.0
tp164
sg72
((lp165
(F2.6599999999998545
I4
tp166
aF41.0
tp167
sg130
((lp168
(F0.06000000000130967
I30
tp169
a(F0.31999999999970896
I28
tp170
a(F0.6599999999998545
I27
tp171
a(F1.0299999999988358
I25
tp172
a(F1.3499999999985448
I23
tp173
a(F2.040000000000873
I21
tp174
a(F3.069999999999709
I20
tp175
a(F4.43999999999869
I19
tp176
a(F6.049999999999272
I17
tp177
a(F7.619999999998981
I15
tp178
aF40.0
tp179
sg99
((lp180
F40.52000000000044
tp181
ssba(imeasure_core
ProblemSetSolution
p182
(dp183
g3
(imeasure_core
RoomSet
p184
(dp185
g6
(dp186
(iproblems
RoomID
p187
(dp188
g10
I8
sg11
(I4
I6
tp189
sg13
I3
sg14
I9
sg15
I12
sg16
I4800841617172907184
sb(imulti_robot_problem
MultiRobotState
p190
(dp191
g19
g20
((lp192
(I5
I4
tp193
ag189
a(I8
I7
tp194
a(I6
I6
tp195
a(I4
I5
tp196
a(I9
I8
tp197
a(I9
I3
tp198
a(I6
I0
tp199
a(I2
I1
tp200
a(I10
I1
tp201
a(I4
I2
tp202
a(I8
I5
tp203
a(I7
I2
tp204
a(I5
I3
tp205
a(I8
I3
tp206
a(I3
I1
tp207
a(I3
I3
tp208
a(I11
I8
tp209
a(I7
I1
tp210
a(I11
I3
tp211
a(I6
I3
tp212
a(I0
I6
tp213
a(I4
I3
tp214
a(I8
I6
tp215
a(I8
I4
tp216
a(I9
I7
tp217
atp218
Rp219
sg15
I12
sg29
g20
((lp220
(I11
I4
tp221
a(I8
I2
tp222
a(I10
I7
tp223
a(I7
I6
tp224
a(I1
I4
tp225
a(I11
I0
tp226
a(I9
I2
tp227
a(I0
I2
tp228
atp229
Rp230
sg13
((I9
I1
tp231
(I0
I4
tp232
(I7
I4
tp233
tp234
sg14
I9
sbs(iproblems
RoomID
p235
(dp236
g10
I10
sg11
(I4
I8
tp237
sg13
I3
sg14
I11
sg15
I9
sg16
I6645345695289302126
sb(imulti_robot_problem
MultiRobotState
p238
(dp239
g19
g20
((lp240
(I5
I9
tp241
a(I3
I2
tp242
a(I3
I1
tp243
ag237
a(I4
I5
tp244
a(I1
I4
tp245
a(I4
I2
tp246
a(I3
I7
tp247
a(I4
I6
tp248
a(I3
I3
tp249
a(I4
I1
tp250
a(I6
I1
tp251
a(I4
I4
tp252
a(I2
I4
tp253
a(I3
I8
tp254
a(I1
I5
tp255
a(I4
I3
tp256
a(I3
I5
tp257
a(I3
I4
tp258
a(I1
I1
tp259
a(I8
I4
tp260
atp261
Rp262
sg15
I9
sg29
g20
((lp263
(I0
I1
tp264
a(I5
I4
tp265
a(I6
I7
tp266
a(I8
I2
tp267
a(I8
I7
tp268
a(I8
I8
tp269
a(I2
I3
tp270
a(I3
I6
tp271
a(I1
I0
tp272
a(I5
I5
tp273
atp274
Rp275
sg13
((I1
I6
tp276
(I0
I9
tp277
(I0
I5
tp278
tp279
sg14
I11
sbs(iproblems
RoomID
p280
(dp281
g10
I7
sg11
(I8
I4
tp282
sg13
I4
sg14
I10
sg15
I11
sg16
I365562409358139953
sb(imulti_robot_problem
MultiRobotState
p283
(dp284
g19
g20
((lp285
(I7
I3
tp286
a(I8
I7
tp287
a(I4
I8
tp288
a(I2
I8
tp289
a(I5
I9
tp290
a(I6
I2
tp291
a(I1
I6
tp292
a(I9
I4
tp293
a(I6
I4
tp294
a(I9
I6
tp295
a(I6
I5
tp296
a(I10
I8
tp297
a(I10
I5
tp298
a(I6
I7
tp299
a(I10
I7
tp300
a(I7
I6
tp301
a(I3
I1
tp302
a(I0
I5
tp303
a(I3
I8
tp304
a(I7
I5
tp305
a(I8
I6
tp306
ag282
a(I5
I2
tp307
a(I6
I1
tp308
a(I9
I7
tp309
atp310
Rp311
sg15
I11
sg29
g20
((lp312
(I5
I6
tp313
a(I6
I9
tp314
a(I1
I7
tp315
a(I4
I5
tp316
a(I10
I3
tp317
a(I0
I2
tp318
a(I2
I1
tp319
atp320
Rp321
sg13
((I10
I4
tp322
(I7
I4
tp323
(I3
I6
tp324
(I8
I9
tp325
tp326
sg14
I10
sbs(iproblems
RoomID
p327
(dp328
g10
I6
sg11
(I9
I4
tp329
sg13
I4
sg14
I9
sg15
I10
sg16
I8833747186876682921
sb(imulti_robot_problem
MultiRobotState
p330
(dp331
g19
g20
((lp332
(I4
I7
tp333
a(I4
I8
tp334
a(I4
I5
tp335
a(I2
I1
tp336
a(I7
I5
tp337
a(I2
I3
tp338
ag329
a(I2
I5
tp339
a(I6
I5
tp340
a(I3
I5
tp341
a(I2
I7
tp342
a(I8
I3
tp343
a(I5
I5
tp344
a(I3
I4
tp345
a(I7
I4
tp346
a(I5
I6
tp347
a(I8
I8
tp348
a(I3
I6
tp349
a(I4
I1
tp350
a(I1
I1
tp351
atp352
Rp353
sg15
I10
sg29
g20
((lp354
(I3
I2
tp355
a(I6
I2
tp356
a(I7
I0
tp357
a(I1
I4
tp358
a(I0
I4
tp359
a(I0
I7
tp360
atp361
Rp362
sg13
((I3
I1
tp363
(I8
I1
tp364
(I3
I3
tp365
(I4
I2
tp366
tp367
sg14
I9
sbs(iproblems
RoomID
p368
(dp369
g10
I8
sg11
(I9
I3
tp370
sg13
I4
sg14
I11
sg15
I12
sg16
I5594871498841892311
sb(imulti_robot_problem
MultiRobotState
p371
(dp372
g19
g20
((lp373
(I5
I9
tp374
a(I6
I9
tp375
a(I11
I9
tp376
a(I9
I1
tp377
a(I4
I8
tp378
a(I8
I0
tp379
a(I6
I0
tp380
a(I9
I9
tp381
ag370
a(I9
I4
tp382
a(I4
I2
tp383
a(I3
I7
tp384
a(I5
I8
tp385
a(I7
I9
tp386
a(I10
I8
tp387
a(I9
I0
tp388
a(I7
I0
tp389
a(I6
I8
tp390
a(I9
I2
tp391
a(I5
I7
tp392
a(I8
I10
tp393
a(I2
I0
tp394
a(I5
I0
tp395
a(I0
I9
tp396
a(I10
I0
tp397
a(I10
I2
tp398
atp399
Rp400
sg15
I12
sg29
g20
((lp401
(I2
I6
tp402
a(I11
I5
tp403
a(I6
I1
tp404
a(I11
I1
tp405
a(I2
I1
tp406
a(I8
I8
tp407
a(I0
I2
tp408
a(I3
I5
tp409
atp410
Rp411
sg13
((I9
I7
tp412
(I10
I5
tp413
(I6
I5
tp414
(I8
I3
tp415
tp416
sg14
I11
sbssg154
S'mild_roomset'
p417
sbsg154
g156
sg157
(dp418
g187
((lp419
(F0.4000000000014552
I17
tp420
aF40.02000000000044
tp421
sg327
((lp422
(F4.509999999998399
I32
tp423
aF40.30999999999767
tp424
sg280
((lp425
(F0.7200000000011642
I25
tp426
aF40.150000000001455
tp427
sg235
((lp428
F40.06999999999971
tp429
sg368
((lp430
(F6.240000000001601
I32
tp431
aF40.06999999999971
tp432
ssba(imeasure_core
ProblemSetSolution
p433
(dp434
g3
(imeasure_core
RoomSet
p435
(dp436
g6
(dp437
(iproblems
RoomID
p438
(dp439
g10
I12
sg11
(I0
I5
tp440
sg13
I7
sg14
I11
sg15
I12
sg16
I365562409358139953
sb(imulti_robot_problem
MultiRobotState
p441
(dp442
g19
g20
((lp443
(I1
I3
tp444
a(I6
I6
tp445
a(I0
I4
tp446
a(I7
I5
tp447
ag440
a(I8
I7
tp448
a(I4
I2
tp449
a(I2
I9
tp450
a(I10
I7
tp451
a(I7
I8
tp452
a(I7
I6
tp453
a(I3
I1
tp454
a(I4
I8
tp455
a(I3
I9
tp456
a(I2
I2
tp457
a(I8
I6
tp458
a(I5
I2
tp459
a(I11
I6
tp460
a(I8
I4
tp461
atp462
Rp463
sg15
I12
sg29
g20
((lp464
(I3
I2
tp465
a(I11
I9
tp466
a(I4
I9
tp467
a(I10
I4
tp468
a(I5
I7
tp469
a(I2
I1
tp470
a(I0
I6
tp471
a(I1
I6
tp472
a(I7
I10
tp473
a(I3
I7
tp474
a(I5
I10
tp475
a(I0
I2
tp476
atp477
Rp478
sg13
((I6
I3
tp479
(I10
I5
tp480
(I3
I6
tp481
(I8
I10
tp482
(I4
I6
tp483
(I11
I3
tp484
(I1
I8
tp485
tp486
sg14
I11
sbs(iproblems
RoomID
p487
(dp488
g10
I11
sg11
(I8
I7
tp489
sg13
I7
sg14
I10
sg15
I11
sg16
I8833747186876682921
sb(imulti_robot_problem
MultiRobotState
p490
(dp491
g19
g20
((lp492
(I5
I7
tp493
a(I4
I8
tp494
a(I4
I5
tp495
a(I2
I1
tp496
ag489
a(I5
I1
tp497
a(I5
I5
tp498
a(I6
I7
tp499
a(I4
I6
tp500
a(I8
I1
tp501
a(I4
I4
tp502
a(I6
I3
tp503
a(I8
I8
tp504
a(I3
I3
tp505
a(I7
I8
tp506
a(I10
I2
tp507
atp508
Rp509
sg15
I11
sg29
g20
((lp510
(I10
I5
tp511
a(I7
I6
tp512
a(I4
I7
tp513
a(I1
I4
tp514
a(I9
I9
tp515
a(I3
I8
tp516
a(I0
I5
tp517
a(I8
I6
tp518
a(I2
I5
tp519
a(I0
I8
tp520
a(I7
I2
tp521
atp522
Rp523
sg13
((I3
I1
tp524
(I9
I1
tp525
(I5
I2
tp526
(I4
I3
tp527
(I8
I0
tp528
(I10
I4
tp529
(I8
I5
tp530
tp531
sg14
I10
sbs(iproblems
RoomID
p532
(dp533
g10
I11
sg11
(I4
I6
tp534
sg13
I5
sg14
I11
sg15
I11
sg16
I1085536589165212248
sb(imulti_robot_problem
MultiRobotState
p535
(dp536
g19
g20
((lp537
(I10
I5
tp538
a(I2
I6
tp539
ag534
a(I9
I3
tp540
a(I3
I2
tp541
a(I9
I9
tp542
a(I1
I8
tp543
a(I1
I9
tp544
a(I1
I7
tp545
a(I3
I7
tp546
a(I6
I9
tp547
a(I5
I8
tp548
a(I3
I3
tp549
atp550
Rp551
sg15
I11
sg29
g20
((lp552
(I0
I1
tp553
a(I4
I9
tp554
a(I10
I4
tp555
a(I10
I7
tp556
a(I6
I0
tp557
a(I0
I7
tp558
a(I2
I3
tp559
a(I1
I4
tp560
a(I2
I2
tp561
a(I10
I0
tp562
a(I0
I10
tp563
atp564
Rp565
sg13
((I5
I3
tp566
(I0
I2
tp567
(I3
I1
tp568
(I7
I1
tp569
(I9
I0
tp570
tp571
sg14
I11
sbs(iproblems
RoomID
p572
(dp573
g10
I13
sg11
(I3
I8
tp574
sg13
I5
sg14
I10
sg15
I10
sg16
I5338040351619750409
sb(imulti_robot_problem
MultiRobotState
p575
(dp576
g19
g20
((lp577
(I4
I7
tp578
a(I2
I6
tp579
a(I9
I1
tp580
a(I2
I8
tp581
a(I6
I1
tp582
a(I1
I4
tp583
ag574
a(I1
I6
tp584
a(I4
I3
tp585
a(I1
I7
tp586
a(I2
I5
tp587
a(I9
I7
tp588
a(I2
I4
tp589
a(I6
I8
tp590
atp591
Rp592
sg15
I10
sg29
g20
((lp593
(I6
I9
tp594
a(I1
I3
tp595
a(I4
I9
tp596
a(I4
I6
tp597
a(I6
I6
tp598
a(I8
I3
tp599
a(I2
I1
tp600
a(I8
I9
tp601
a(I1
I8
tp602
a(I7
I5
tp603
a(I3
I6
tp604
a(I9
I6
tp605
a(I4
I0
tp606
atp607
Rp608
sg13
((I2
I0
tp609
(I3
I5
tp610
(I5
I0
tp611
(I5
I2
tp612
(I4
I5
tp613
tp614
sg14
I10
sbs(iproblems
RoomID
p615
(dp616
g10
I13
sg11
(I9
I8
tp617
sg13
I7
sg14
I12
sg15
I13
sg16
I5594871498841892311
sb(imulti_robot_problem
MultiRobotState
p618
(dp619
g19
g20
((lp620
(I5
I9
tp621
a(I6
I9
tp622
a(I1
I3
tp623
a(I10
I4
tp624
a(I4
I8
tp625
ag617
a(I1
I4
tp626
a(I11
I3
tp627
a(I8
I6
tp628
a(I9
I6
tp629
a(I5
I5
tp630
a(I9
I5
tp631
a(I6
I7
tp632
a(I6
I8
tp633
a(I6
I10
tp634
a(I8
I10
tp635
a(I5
I0
tp636
a(I10
I0
tp637
a(I7
I9
tp638
a(I9
I7
tp639
atp640
Rp641
sg15
I13
sg29
g20
((lp642
(I2
I7
tp643
a(I10
I5
tp644
a(I11
I5
tp645
a(I6
I1
tp646
a(I8
I0
tp647
a(I2
I1
tp648
a(I2
I0
tp649
a(I0
I10
tp650
a(I7
I10
tp651
a(I12
I10
tp652
a(I5
I2
tp653
a(I0
I2
tp654
a(I3
I5
tp655
atp656
Rp657
sg13
((I10
I8
tp658
(I11
I6
tp659
(I7
I5
tp660
(I9
I3
tp661
(I9
I11
tp662
(I12
I1
tp663
(I9
I9
tp664
tp665
sg14
I12
sbssg154
S'heavy_roomset'
p666
sbsg154
g156
sg157
(dp667
g438
((lp668
F47.23999999999796
tp669
sg487
((lp670
F43.150000000001455
tp671
sg532
((lp672
(F7.6599999999998545
I15
tp673
aF40.970000000001164
tp674
sg615
((lp675
F44.169999999998254
tp676
sg572
((lp677
(F6.779999999998836
I16
tp678
aF40.02000000000044
tp679
ssba(imeasure_core
ProblemSetSolution
p680
(dp681
g3
g4
sg154
S"AnytimeBeam-w15-gf(1.5, 'exp')_with_PowerHeuristic2"
p682
sg157
(dp683
g41
((lp684
(F9.860000000000582
I13
tp685
aF40.77000000000044
tp686
sg8
((lp687
(F0.010000000002037268
I7
tp688
aF40.01000000000204
tp689
sg72
((lp690
(F2.680000000000291
I4
tp691
aF41.11000000000058
tp692
sg130
((lp693
(F0.06000000000130967
I30
tp694
a(F0.31999999999970896
I28
tp695
a(F0.6599999999998545
I27
tp696
a(F1.0299999999988358
I25
tp697
a(F1.3499999999985448
I23
tp698
a(F2.040000000000873
I21
tp699
a(F3.069999999999709
I20
tp700
a(F4.450000000000728
I19
tp701
a(F6.06000000000131
I17
tp702
a(F7.630000000001019
I15
tp703
aF40.0
tp704
sg99
((lp705
F40.349999999998545
tp706
ssba(imeasure_core
ProblemSetSolution
p707
(dp708
g3
g184
sg154
g682
sg157
(dp709
g187
((lp710
(F0.4000000000014552
I17
tp711
aF40.029999999998836
tp712
sg327
((lp713
(F4.5
I32
tp714
aF40.26000000000204
tp715
sg280
((lp716
(F0.7200000000011642
I25
tp717
aF40.20000000000073
tp718
sg235
((lp719
F40.06999999999971
tp720
sg368
((lp721
(F6.129999999997381
I32
tp722
aF41.109999999996944
tp723
ssba(imeasure_core
ProblemSetSolution
p724
(dp725
g3
g435
sg154
g682
sg157
(dp726
g438
((lp727
F47.25
tp728
sg487
((lp729
F43.16000000000349
tp730
sg532
((lp731
(F7.619999999998981
I15
tp732
aF41.06999999999971
tp733
sg615
((lp734
F44.36000000000058
tp735
sg572
((lp736
(F6.789999999997235
I16
tp737
aF40.19999999999709
tp738
ssba(imeasure_core
ProblemSetSolution
p739
(dp740
g3
g4
sg154
S"AnytimeBeam-w25-gf(1.5, 'exp')_with_PowerHeuristic2"
p741
sg157
(dp742
g41
((lp743
(F9.760000000002037
I13
tp744
aF40.86000000000058
tp745
sg8
((lp746
(F0.030000000002473826
I7
tp747
aF40.0
tp748
sg72
((lp749
(F2.680000000000291
I4
tp750
aF41.279999999998836
tp751
sg130
((lp752
(F0.059999999997671694
I30
tp753
a(F0.32999999999810825
I28
tp754
a(F0.6699999999982538
I27
tp755
a(F1.0399999999972351
I25
tp756
a(F1.360000000000582
I23
tp757
a(F2.0499999999992724
I21
tp758
a(F3.0900000000001455
I20
tp759
a(F4.459999999999127
I19
tp760
a(F6.069999999999709
I17
tp761
a(F7.629999999997381
I15
tp762
aF40.0
tp763
sg99
((lp764
F40.37000000000262
tp765
ssba(imeasure_core
ProblemSetSolution
p766
(dp767
g3
g184
sg154
g741
sg157
(dp768
g187
((lp769
(F0.3999999999978172
I17
tp770
aF40.029999999998836
tp771
sg327
((lp772
(F4.519999999996799
I32
tp773
aF40.219999999997526
tp774
sg280
((lp775
(F0.7200000000011642
I25
tp776
aF40.080000000001746
tp777
sg235
((lp778
F40.06999999999971
tp779
sg368
((lp780
(F6.170000000001892
I32
tp781
aF40.960000000002765
tp782
ssba(imeasure_core
ProblemSetSolution
p783
(dp784
g3
g435
sg154
g741
sg157
(dp785
g438
((lp786
F46.94999999999709
tp787
sg487
((lp788
F43.13999999999942
tp789
sg532
((lp790
(F7.5900000000001455
I15
tp791
aF40.87000000000262
tp792
sg615
((lp793
F44.090000000000146
tp794
sg572
((lp795
(F6.770000000000437
I16
tp796
aF40.219999999997526
tp797
ssba(imeasure_core
ProblemSetSolution
p798
(dp799
g3
g4
sg154
S"AnytimeBeam-w35-gf(1.5, 'exp')_with_PowerHeuristic2"
p800
sg157
(dp801
g41
((lp802
(F9.790000000000873
I13
tp803
aF40.640000000003056
tp804
sg8
((lp805
(F0.030000000002473826
I7
tp806
aF40.0
tp807
sg72
((lp808
(F2.679999999996653
I4
tp809
aF41.169999999998254
tp810
sg130
((lp811
(F0.06000000000130967
I30
tp812
a(F0.33000000000174623
I28
tp813
a(F0.6700000000018917
I27
tp814
a(F1.0300000000024738
I25
tp815
a(F1.3500000000021828
I23
tp816
a(F2.040000000000873
I21
tp817
a(F3.0800000000017462
I20
tp818
a(F4.450000000000728
I19
tp819
a(F6.06000000000131
I17
tp820
a(F7.610000000000582
I15
tp821
aF40.0
tp822
sg99
((lp823
F40.18999999999869
tp824
ssba(imeasure_core
ProblemSetSolution
p825
(dp826
g3
g184
sg154
g800
sg157
(dp827
g187
((lp828
(F0.4000000000014552
I17
tp829
aF40.01000000000204
tp830
sg327
((lp831
(F4.539999999997235
I32
tp832
aF40.14999999999782
tp833
sg280
((lp834
(F0.7099999999991269
I25
tp835
aF40.11000000000058
tp836
sg235
((lp837
F40.11000000000058
tp838
sg368
((lp839
(F6.110000000000582
I32
tp840
aF41.080000000001746
tp841
ssba(imeasure_core
ProblemSetSolution
p842
(dp843
g3
g435
sg154
g800
sg157
(dp844
g438
((lp845
F47.04999999999927
tp846
sg487
((lp847
F43.04000000000087
tp848
sg532
((lp849
(F7.649999999997817
I15
tp850
aF40.859999999996944
tp851
sg615
((lp852
F44.330000000001746
tp853
sg572
((lp854
(F6.790000000000873
I16
tp855
aF40.29000000000087
tp856
ssba(imeasure_core
ProblemSetSolution
p857
(dp858
g3
g4
sg154
S"AnytimeBeam-w45-gf(1.5, 'exp')_with_PowerHeuristic2"
p859
sg157
(dp860
g41
((lp861
(F9.739999999997963
I13
tp862
aF40.80999999999767
tp863
sg8
((lp864
(F0.020000000000436557
I7
tp865
aF40.01000000000204
tp866
sg72
((lp867
(F2.680000000000291
I4
tp868
aF40.9900000000016
tp869
sg130
((lp870
(F0.06000000000130967
I30
tp871
a(F0.33000000000174623
I28
tp872
a(F0.6700000000018917
I27
tp873
a(F1.0400000000008731
I25
tp874
a(F1.3500000000021828
I23
tp875
a(F2.0500000000029104
I21
tp876
a(F3.0800000000017462
I20
tp877
a(F4.450000000000728
I19
tp878
a(F6.06000000000131
I17
tp879
a(F7.620000000002619
I15
tp880
aF40.0
tp881
sg99
((lp882
F40.469999999997526
tp883
ssba(imeasure_core
ProblemSetSolution
p884
(dp885
g3
g184
sg154
g859
sg157
(dp886
g187
((lp887
(F0.4000000000014552
I17
tp888
aF40.030000000002474
tp889
sg327
((lp890
(F4.520000000000437
I32
tp891
aF40.20000000000073
tp892
sg280
((lp893
(F0.7200000000011642
I25
tp894
aF40.02000000000044
tp895
sg235
((lp896
F40.099999999998545
tp897
sg368
((lp898
(F6.110000000000582
I32
tp899
aF40.88999999999942
tp900
ssba(imeasure_core
ProblemSetSolution
p901
(dp902
g3
g435
sg154
g859
sg157
(dp903
g438
((lp904
F47.20999999999913
tp905
sg487
((lp906
F43.27000000000044
tp907
sg532
((lp908
(F7.569999999999709
I15
tp909
aF40.79999999999927
tp910
sg615
((lp911
F44.45000000000073
tp912
sg572
((lp913
(F6.780000000002474
I16
tp914
aF40.25
tp915
ssba(imeasure_core
ProblemSetSolution
p916
(dp917
g3
g4
sg154
S"AnytimeBeam-w5-gf(1.5, 'exp')_with_LinearHeuristic"
p918
sg157
(dp919
g41
((lp920
F41.650000000001455
tp921
sg8
((lp922
(F0.00999999999839929
I7
tp923
aF40.0099999999984
tp924
sg72
((lp925
(F4.619999999998981
I4
tp926
aF41.19999999999709
tp927
sg130
((lp928
(F0.00999999999839929
I15
tp929
aF40.0
tp930
sg99
((lp931
(F15.520000000000437
I17
tp932
aF41.150000000001455
tp933
ssba(imeasure_core
ProblemSetSolution
p934
(dp935
g3
g184
sg154
g918
sg157
(dp936
g187
((lp937
F40.13999999999942
tp938
sg327
((lp939
F40.63000000000102
tp940
sg280
((lp941
F40.56999999999971
tp942
sg235
((lp943
F40.13000000000102
tp944
sg368
((lp945
F41.340000000000146
tp946
ssba(imeasure_core
ProblemSetSolution
p947
(dp948
g3
g435
sg154
g918
sg157
(dp949
g438
((lp950
F59.61999999999898
tp951
sg487
((lp952
F53.61999999999898
tp953
sg532
((lp954
F43.20999999999913
tp955
sg615
((lp956
F52.20999999999913
tp957
sg572
((lp958
F40.9900000000016
tp959
ssba(imeasure_core
ProblemSetSolution
p960
(dp961
g3
g4
sg154
S"AnytimeBeam-w15-gf(1.5, 'exp')_with_LinearHeuristic"
p962
sg157
(dp963
g41
((lp964
F40.43999999999869
tp965
sg8
((lp966
(F0.030000000002473826
I7
tp967
aF40.01000000000204
tp968
sg72
((lp969
(F4.5900000000001455
I4
tp970
aF40.27000000000044
tp971
sg130
((lp972
(F0.010000000002037268
I15
tp973
aF40.0
tp974
sg99
((lp975
(F15.329999999998108
I17
tp976
aF41.169999999998254
tp977
ssba(imeasure_core
ProblemSetSolution
p978
(dp979
g3
g184
sg154
g962
sg157
(dp980
g187
((lp981
F40.150000000001455
tp982
sg327
((lp983
F40.590000000000146
tp984
sg280
((lp985
F40.04999999999927
tp986
sg235
((lp987
F40.090000000000146
tp988
sg368
((lp989
F41.11000000000058
tp990
ssba(imeasure_core
ProblemSetSolution
p991
(dp992
g3
g435
sg154
g962
sg157
(dp993
g438
((lp994
F59.659999999999854
tp995
sg487
((lp996
F53.659999999999854
tp997
sg532
((lp998
F43.340000000000146
tp999
sg615
((lp1000
F51.710000000002765
tp1001
sg572
((lp1002
F40.95999999999913
tp1003
ssba(imeasure_core
ProblemSetSolution
p1004
(dp1005
g3
g4
sg154
S"AnytimeBeam-w25-gf(1.5, 'exp')_with_LinearHeuristic"
p1006
sg157
(dp1007
g41
((lp1008
F40.79000000000087
tp1009
sg8
((lp1010
(F0.029999999998835847
I7
tp1011
aF40.0099999999984
tp1012
sg72
((lp1013
(F4.619999999998981
I4
tp1014
aF41.159999999999854
tp1015
sg130
((lp1016
(F0.00999999999839929
I15
tp1017
aF40.0
tp1018
sg99
((lp1019
(F15.400000000001455
I17
tp1020
aF41.2400000000016
tp1021
ssba(imeasure_core
ProblemSetSolution
p1022
(dp1023
g3
g184
sg154
g1006
sg157
(dp1024
g187
((lp1025
F40.11999999999898
tp1026
sg327
((lp1027
F40.45000000000073
tp1028
sg280
((lp1029
F40.61999999999898
tp1030
sg235
((lp1031
F40.20000000000073
tp1032
sg368
((lp1033
F40.20999999999913
tp1034
ssba(imeasure_core
ProblemSetSolution
p1035
(dp1036
g3
g435
sg154
g1006
sg157
(dp1037
g438
((lp1038
F61.06999999999971
tp1039
sg487
((lp1040
F53.81999999999971
tp1041
sg532
((lp1042
F43.32999999999811
tp1043
sg615
((lp1044
F51.92000000000189
tp1045
sg572
((lp1046
F41.06999999999971
tp1047
ssba(imeasure_core
ProblemSetSolution
p1048
(dp1049
g3
g4
sg154
S"AnytimeBeam-w35-gf(1.5, 'exp')_with_LinearHeuristic"
p1050
sg157
(dp1051
g41
((lp1052
F40.18000000000029
tp1053
sg8
((lp1054
(F0.029999999998835847
I7
tp1055
aF40.0099999999984
tp1056
sg72
((lp1057
(F4.5900000000001455
I4
tp1058
aF40.11000000000058
tp1059
sg130
((lp1060
(F0.010000000002037268
I15
tp1061
aF40.0
tp1062
sg99
((lp1063
(F15.2599999999984
I17
tp1064
aF40.97999999999956
tp1065
ssba(imeasure_core
ProblemSetSolution
p1066
(dp1067
g3
g184
sg154
g1050
sg157
(dp1068
g187
((lp1069
F40.10000000000218
tp1070
sg327
((lp1071
F40.55999999999767
tp1072
sg280
((lp1073
F40.06000000000131
tp1074
sg235
((lp1075
F40.18999999999869
tp1076
sg368
((lp1077
F41.20999999999913
tp1078
ssba(imeasure_core
ProblemSetSolution
p1079
(dp1080
g3
g435
sg154
g1050
sg157
(dp1081
g438
((lp1082
F59.840000000000146
tp1083
sg487
((lp1084
F53.70000000000073
tp1085
sg532
((lp1086
F43.20999999999913
tp1087
sg615
((lp1088
F51.830000000001746
tp1089
sg572
((lp1090
F40.98999999999796
tp1091
ssba(imeasure_core
ProblemSetSolution
p1092
(dp1093
g3
g4
sg154
S"AnytimeBeam-w45-gf(1.5, 'exp')_with_LinearHeuristic"
p1094
sg157
(dp1095
g41
((lp1096
F41.68000000000029
tp1097
sg8
((lp1098
(F0.030000000002473826
I7
tp1099
aF40.0
tp1100
sg72
((lp1101
(F4.460000000002765
I4
tp1102
aF41.01000000000204
tp1103
sg130
((lp1104
(F0.00999999999839929
I15
tp1105
aF40.0
tp1106
sg99
((lp1107
(F14.680000000000291
I17
tp1108
aF40.20999999999913
tp1109
ssba(imeasure_core
ProblemSetSolution
p1110
(dp1111
g3
g184
sg154
g1094
sg157
(dp1112
g187
((lp1113
F40.13999999999942
tp1114
sg327
((lp1115
F40.51000000000204
tp1116
sg280
((lp1117
F40.05999999999767
tp1118
sg235
((lp1119
F40.17000000000189
tp1120
sg368
((lp1121
F41.07999999999811
tp1122
ssba(imeasure_core
ProblemSetSolution
p1123
(dp1124
g3
g435
sg154
g1094
sg157
(dp1125
g438
((lp1126
F59.88999999999942
tp1127
sg487
((lp1128
F53.43000000000029
tp1129
sg532
((lp1130
F43.12000000000262
tp1131
sg615
((lp1132
F51.70000000000073
tp1133
sg572
((lp1134
F40.98999999999796
tp1135
ssba.