(lp0
(imeasure_core
ProblemSetSolution
p1
(dp2
S'roomset'
p3
(imeasure_core
RoomSet
p4
(dp5
S'rooms'
p6
(dp7
(iproblems
RoomID
p8
(dp9
S'dusts'
p10
I7
sS'obstacles'
p11
(I1
I3
tp12
sS'robots'
p13
I1
sS'height'
p14
I7
sS'width'
p15
I9
sS'seed'
p16
I1486246605650367638
sb(imulti_robot_problem
MultiRobotState
p17
(dp18
S'obstacle_locations'
p19
c__builtin__
frozenset
p20
((lp21
(I0
I1
tp22
a(I8
I3
tp23
ag12
a(I0
I3
tp24
a(I0
I2
tp25
atp26
Rp27
sg15
I9
sS'dirt_locations'
p28
g20
((lp29
(I7
I5
tp30
a(I7
I0
tp31
a(I0
I4
tp32
a(I1
I0
tp33
a(I4
I4
tp34
a(I6
I5
tp35
a(I4
I0
tp36
atp37
Rp38
sg13
((I5
I1
tp39
tp40
sg14
I7
sbs(iproblems
RoomID
p41
(dp42
g10
I9
sg11
(I7
I5
tp43
sg13
I4
sg14
I10
sg15
I10
sg16
I679259829289197625
sb(imulti_robot_problem
MultiRobotState
p44
(dp45
g19
g20
((lp46
(I9
I6
tp47
a(I8
I6
tp48
a(I7
I6
tp49
ag43
a(I7
I0
tp50
atp51
Rp52
sg15
I10
sg28
g20
((lp53
(I5
I4
tp54
a(I2
I6
tp55
a(I7
I1
tp56
a(I6
I1
tp57
a(I1
I6
tp58
a(I0
I5
tp59
a(I8
I7
tp60
a(I0
I9
tp61
a(I9
I5
tp62
atp63
Rp64
sg13
((I7
I8
tp65
(I6
I7
tp66
(I3
I5
tp67
(I3
I9
tp68
tp69
sg14
I10
sbs(iproblems
RoomID
p70
(dp71
g10
I6
sg11
(I1
I6
tp72
sg13
I4
sg14
I8
sg15
I10
sg16
I403795515464475257
sb(imulti_robot_problem
MultiRobotState
p73
(dp74
g19
g20
((lp75
(I8
I3
tp76
a(I1
I3
tp77
a(I6
I7
tp78
a(I0
I4
tp79
ag72
a(I4
I1
tp80
a(I0
I5
tp81
atp82
Rp83
sg15
I10
sg28
g20
((lp84
(I7
I3
tp85
a(I4
I7
tp86
a(I2
I2
tp87
a(I8
I0
tp88
a(I0
I2
tp89
a(I0
I7
tp90
atp91
Rp92
sg13
((I8
I2
tp93
(I6
I1
tp94
(I5
I0
tp95
(I2
I0
tp96
tp97
sg14
I8
sbs(iproblems
RoomID
p98
(dp99
g10
I6
sg11
(I4
I4
tp100
sg13
I4
sg14
I9
sg15
I9
sg16
I5891625650498269233
sb(imulti_robot_problem
MultiRobotState
p101
(dp102
g19
g20
((lp103
(I2
I7
tp104
a(I4
I5
tp105
ag100
a(I3
I6
tp106
atp107
Rp108
sg15
I9
sg28
g20
((lp109
(I7
I4
tp110
a(I8
I3
tp111
a(I0
I5
tp112
a(I5
I5
tp113
a(I6
I6
tp114
a(I4
I0
tp115
atp116
Rp117
sg13
((I4
I6
tp118
(I7
I1
tp119
(I0
I4
tp120
(I7
I2
tp121
tp122
sg14
I9
sbs(iproblems
RoomID
p123
(dp124
g10
I5
sg11
(I3
I4
tp125
sg13
I1
sg14
I9
sg15
I9
sg16
I2685440357799139976
sb(imulti_robot_problem
MultiRobotState
p126
(dp127
g19
g20
((lp128
(I8
I3
tp129
a(I1
I3
tp130
a(I5
I6
tp131
ag125
a(I2
I4
tp132
a(I3
I8
tp133
a(I2
I3
tp134
a(I7
I8
tp135
a(I1
I1
tp136
atp137
Rp138
sg15
I9
sg28
g20
((lp139
(I0
I1
tp140
a(I0
I0
tp141
a(I3
I1
tp142
a(I8
I7
tp143
a(I5
I0
tp144
atp145
Rp146
sg13
((I5
I5
tp147
tp148
sg14
I9
sbssS'name'
p149
S'easy_roomset'
p150
sbsg149
S"AnytimeBeam-w20-gf(1.3, 'exp')_with_PowerHeuristic2"
p151
sS'solutions'
p152
(dp153
g8
((lp154
(F0.11000000000058208
I45
tp155
a(F2.1700000000018917
I44
tp156
a(F2.7900000000008731
I37
tp157
a(F3.4000000000014552
I36
tp158
a(F4.0400000000008731
I34
tp159
a(F6.1300000000010186
I33
tp160
a(F8.3800000000010186
I31
tp161
a(F11.340000000000146
I30
tp162
a(F14.540000000000873
I28
tp163
a(F17.0
I26
tp164
a(F22.06000000000131
I25
tp165
a(F28.56000000000131
I24
tp166
aF40.0
tp167
sg41
((lp168
(F2.9700000000011642
I20
tp169
aF40.020000000000437
tp170
sg70
((lp171
(F37.159999999999854
I134
tp172
aF40.049999999999272
tp173
sg98
((lp174
(F1.8300000000017462
I8
tp175
aF40.240000000001601
tp176
sg123
((lp177
(F0.16999999999825377
I47
tp178
a(F1.2999999999992724
I45
tp179
a(F2.3799999999973807
I43
tp180
a(F3.3899999999994179
I35
tp181
a(F4.569999999999709
I33
tp182
a(F5.8699999999989814
I31
tp183
a(F7.2199999999975262
I29
tp184
a(F9.6100000000005821
I27
tp185
a(F12.899999999997817
I25
tp186
a(F15.68999999999869
I23
tp187
aF40.0
tp188
ssba(imeasure_core
ProblemSetSolution
p189
(dp190
g3
(imeasure_core
RoomSet
p191
(dp192
g6
(dp193
(iproblems
RoomID
p194
(dp195
g10
I9
sg11
(I7
I7
tp196
sg13
I4
sg14
I12
sg15
I12
sg16
I679259829289197625
sb(imulti_robot_problem
MultiRobotState
p197
(dp198
g19
g20
((lp199
(I6
I4
tp200
a(I6
I9
tp201
a(I6
I6
tp202
a(I5
I6
tp203
a(I9
I8
tp204
a(I11
I9
tp205
ag196
a(I1
I4
tp206
a(I11
I7
tp207
a(I7
I5
tp208
a(I8
I7
tp209
a(I4
I2
tp210
a(I8
I5
tp211
a(I6
I5
tp212
a(I10
I8
tp213
a(I10
I5
tp214
a(I6
I7
tp215
a(I6
I8
tp216
a(I10
I7
tp217
a(I9
I6
tp218
a(I7
I6
tp219
a(I8
I10
tp220
a(I7
I4
tp221
a(I11
I8
tp222
a(I7
I10
tp223
a(I8
I6
tp224
a(I6
I1
tp225
a(I9
I7
tp226
atp227
Rp228
sg15
I12
sg28
g20
((lp229
(I2
I7
tp230
a(I9
I0
tp231
a(I8
I2
tp232
a(I7
I1
tp233
a(I11
I0
tp234
a(I0
I11
tp235
a(I1
I6
tp236
a(I1
I7
tp237
a(I11
I6
tp238
atp239
Rp240
sg13
((I9
I10
tp241
(I8
I9
tp242
(I3
I7
tp243
(I3
I11
tp244
tp245
sg14
I12
sbs(iproblems
RoomID
p246
(dp247
g10
I5
sg11
(I9
I1
tp248
sg13
I3
sg14
I11
sg15
I11
sg16
I2685440357799139976
sb(imulti_robot_problem
MultiRobotState
p249
(dp250
g19
g20
((lp251
(I7
I3
tp252
a(I10
I4
tp253
a(I9
I3
tp254
ag248
a(I7
I1
tp255
a(I5
I6
tp256
a(I10
I6
tp257
a(I1
I4
tp258
a(I9
I9
tp259
a(I3
I9
tp260
a(I9
I4
tp261
a(I6
I8
tp262
a(I9
I6
tp263
a(I3
I4
tp264
a(I10
I3
tp265
a(I7
I2
tp266
a(I5
I3
tp267
a(I8
I3
tp268
a(I5
I5
tp269
a(I10
I7
tp270
a(I8
I5
tp271
a(I9
I2
tp272
a(I3
I6
tp273
a(I4
I5
tp274
a(I6
I5
tp275
a(I7
I10
tp276
a(I9
I5
tp277
a(I3
I5
tp278
a(I7
I8
tp279
a(I2
I4
tp280
a(I10
I9
tp281
atp282
Rp283
sg15
I11
sg28
g20
((lp284
(I1
I2
tp285
a(I9
I10
tp286
a(I6
I1
tp287
a(I4
I1
tp288
a(I0
I2
tp289
atp290
Rp291
sg13
((I6
I6
tp292
(I0
I0
tp293
(I10
I8
tp294
tp295
sg14
I11
sbs(iproblems
RoomID
p296
(dp297
g10
I7
sg11
(I8
I8
tp298
sg13
I3
sg14
I9
sg15
I9
sg16
I7834319822419845881
sb(imulti_robot_problem
MultiRobotState
p299
(dp300
g19
g20
((lp301
(I4
I7
tp302
a(I1
I3
tp303
a(I5
I0
tp304
a(I6
I6
tp305
a(I5
I6
tp306
a(I2
I8
tp307
a(I3
I5
tp308
a(I4
I6
tp309
a(I2
I6
tp310
a(I0
I5
tp311
a(I3
I7
tp312
a(I0
I3
tp313
a(I0
I8
tp314
a(I8
I5
tp315
a(I5
I8
tp316
a(I3
I3
tp317
a(I2
I7
tp318
a(I6
I7
tp319
a(I5
I5
tp320
a(I7
I8
tp321
a(I4
I4
tp322
a(I1
I5
tp323
a(I1
I8
tp324
ag298
a(I3
I6
tp325
a(I1
I7
tp326
a(I4
I5
tp327
a(I5
I3
tp328
a(I3
I4
tp329
atp330
Rp331
sg15
I9
sg28
g20
((lp332
(I7
I4
tp333
a(I2
I0
tp334
a(I6
I2
tp335
a(I7
I0
tp336
a(I8
I7
tp337
a(I7
I1
tp338
a(I1
I4
tp339
atp340
Rp341
sg13
((I2
I1
tp342
(I2
I3
tp343
(I5
I7
tp344
tp345
sg14
I9
sbs(iproblems
RoomID
p346
(dp347
g10
I6
sg11
(I3
I9
tp348
sg13
I4
sg14
I11
sg15
I11
sg16
I5891625650498269233
sb(imulti_robot_problem
MultiRobotState
p349
(dp350
g19
g20
((lp351
(I7
I3
tp352
a(I4
I7
tp353
a(I6
I6
tp354
a(I5
I6
tp355
a(I2
I8
tp356
a(I6
I2
tp357
a(I5
I1
tp358
a(I3
I7
tp359
a(I8
I5
tp360
a(I5
I5
tp361
a(I2
I9
tp362
a(I7
I6
tp363
a(I4
I4
tp364
a(I2
I2
tp365
a(I1
I1
tp366
a(I9
I7
tp367
a(I3
I2
tp368
a(I10
I4
tp369
a(I4
I5
tp370
a(I9
I3
tp371
a(I10
I5
tp372
a(I2
I10
tp373
a(I7
I5
tp374
a(I2
I3
tp375
a(I8
I3
tp376
a(I4
I6
tp377
a(I5
I2
tp378
a(I6
I1
tp379
a(I3
I8
tp380
a(I1
I8
tp381
ag348
a(I4
I3
tp382
a(I9
I5
tp383
a(I3
I4
tp384
a(I8
I4
tp385
atp386
Rp387
sg15
I11
sg28
g20
((lp388
(I8
I8
tp389
a(I5
I10
tp390
a(I9
I1
tp391
a(I10
I7
tp392
a(I1
I6
tp393
a(I7
I9
tp394
atp395
Rp396
sg13
((I5
I7
tp397
(I8
I1
tp398
(I0
I5
tp399
(I4
I0
tp400
tp401
sg14
I11
sbs(iproblems
RoomID
p402
(dp403
g10
I10
sg11
(I1
I5
tp404
sg13
I4
sg14
I12
sg15
I10
sg16
I1737871632067391849
sb(imulti_robot_problem
MultiRobotState
p405
(dp406
g19
g20
((lp407
(I3
I2
tp408
a(I0
I0
tp409
a(I6
I6
tp410
a(I5
I6
tp411
a(I2
I8
tp412
a(I2
I10
tp413
a(I8
I9
tp414
a(I6
I2
tp415
a(I2
I3
tp416
a(I8
I7
tp417
a(I5
I1
tp418
a(I8
I5
tp419
a(I5
I8
tp420
a(I8
I3
tp421
a(I5
I5
tp422
a(I7
I8
tp423
a(I7
I6
tp424
a(I8
I10
tp425
ag404
a(I6
I5
tp426
a(I2
I2
tp427
a(I4
I1
tp428
a(I2
I4
tp429
atp430
Rp431
sg15
I10
sg28
g20
((lp432
(I0
I1
tp433
a(I4
I10
tp434
a(I4
I8
tp435
a(I3
I0
tp436
a(I9
I6
tp437
a(I3
I10
tp438
a(I5
I11
tp439
a(I2
I7
tp440
a(I1
I9
tp441
a(I3
I4
tp442
atp443
Rp444
sg13
((I4
I9
tp445
(I8
I11
tp446
(I4
I0
tp447
(I3
I9
tp448
tp449
sg14
I12
sbssg149
S'mild_roomset'
p450
sbsg149
g151
sg152
(dp451
g194
((lp452
F40.490000000001601
tp453
sg246
((lp454
(F28.25
I127
tp455
aF40.299999999999272
tp456
sg296
((lp457
(F0.13999999999941792
I25
tp458
aF40.0
tp459
sg346
((lp460
(F17.389999999999418
I64
tp461
aF40.169999999998254
tp462
sg402
((lp463
(F1.1900000000023283
I12
tp464
aF40.010000000002037
tp465
ssba(imeasure_core
ProblemSetSolution
p466
(dp467
g3
(imeasure_core
RoomSet
p468
(dp469
g6
(dp470
(iproblems
RoomID
p471
(dp472
g10
I12
sg11
(I6
I3
tp473
sg13
I5
sg14
I10
sg15
I12
sg16
I1486246605650367638
sb(imulti_robot_problem
MultiRobotState
p474
(dp475
g19
g20
((lp476
(I5
I9
tp477
a(I1
I3
tp478
a(I7
I1
tp479
a(I2
I7
tp480
a(I1
I4
tp481
a(I6
I2
tp482
a(I1
I6
tp483
a(I2
I1
tp484
a(I0
I3
tp485
a(I6
I5
tp486
a(I1
I2
tp487
a(I1
I5
tp488
a(I4
I1
tp489
a(I3
I1
tp490
ag473
a(I2
I0
tp491
a(I10
I0
tp492
a(I5
I2
tp493
a(I1
I1
tp494
a(I8
I4
tp495
atp496
Rp497
sg15
I12
sg28
g20
((lp498
(I11
I7
tp499
a(I11
I4
tp500
a(I9
I1
tp501
a(I11
I8
tp502
a(I2
I8
tp503
a(I6
I0
tp504
a(I0
I6
tp505
a(I11
I1
tp506
a(I0
I4
tp507
a(I4
I9
tp508
a(I10
I9
tp509
a(I9
I7
tp510
atp511
Rp512
sg13
((I2
I4
tp513
(I10
I1
tp514
(I2
I5
tp515
(I9
I8
tp516
(I6
I6
tp517
tp518
sg14
I10
sbs(iproblems
RoomID
p519
(dp520
g10
I14
sg11
(I7
I6
tp521
sg13
I7
sg14
I13
sg15
I13
sg16
I679259829289197625
sb(imulti_robot_problem
MultiRobotState
p522
(dp523
g19
g20
((lp524
(I6
I4
tp525
a(I4
I8
tp526
a(I12
I7
tp527
a(I10
I6
tp528
a(I7
I5
tp529
a(I12
I11
tp530
a(I9
I6
tp531
a(I1
I2
tp532
a(I11
I7
tp533
a(I10
I7
tp534
ag521
a(I6
I3
tp535
a(I6
I2
tp536
a(I4
I3
tp537
a(I3
I4
tp538
a(I12
I8
tp539
atp540
Rp541
sg15
I13
sg28
g20
((lp542
(I2
I7
tp543
a(I12
I1
tp544
a(I9
I2
tp545
a(I2
I8
tp546
a(I5
I7
tp547
a(I10
I0
tp548
a(I1
I4
tp549
a(I0
I12
tp550
a(I7
I4
tp551
a(I10
I9
tp552
a(I4
I2
tp553
a(I11
I4
tp554
a(I11
I6
tp555
a(I1
I9
tp556
atp557
Rp558
sg13
((I9
I11
tp559
(I9
I10
tp560
(I4
I7
tp561
(I4
I12
tp562
(I7
I1
tp563
(I1
I8
tp564
(I1
I6
tp565
tp566
sg14
I13
sbs(iproblems
RoomID
p567
(dp568
g10
I11
sg11
(I2
I7
tp569
sg13
I6
sg14
I11
sg15
I13
sg16
I403795515464475257
sb(imulti_robot_problem
MultiRobotState
p570
(dp571
g19
g20
((lp572
g569
a(I10
I8
tp573
a(I1
I7
tp574
a(I3
I10
tp575
a(I4
I4
tp576
a(I1
I4
tp577
a(I12
I5
tp578
a(I0
I6
tp579
a(I0
I5
tp580
a(I3
I6
tp581
a(I2
I2
tp582
a(I0
I8
tp583
a(I7
I9
tp584
atp585
Rp586
sg15
I13
sg28
g20
((lp587
(I6
I4
tp588
a(I0
I0
tp589
a(I2
I9
tp590
a(I11
I5
tp591
a(I8
I9
tp592
a(I11
I1
tp593
a(I2
I3
tp594
a(I1
I10
tp595
a(I12
I2
tp596
a(I0
I3
tp597
a(I5
I2
tp598
atp599
Rp600
sg13
((I10
I3
tp601
(I7
I2
tp602
(I7
I0
tp603
(I3
I1
tp604
(I5
I10
tp605
(I9
I4
tp606
tp607
sg14
I11
sbs(iproblems
RoomID
p608
(dp609
g10
I11
sg11
(I11
I9
tp610
sg13
I7
sg14
I12
sg15
I12
sg16
I5891625650498269233
sb(imulti_robot_problem
MultiRobotState
p611
(dp612
g19
g20
((lp613
(I4
I4
tp614
a(I4
I8
tp615
a(I5
I6
tp616
a(I8
I11
tp617
ag610
a(I7
I7
tp618
a(I7
I1
tp619
a(I9
I10
tp620
a(I3
I9
tp621
a(I1
I9
tp622
a(I6
I7
tp623
a(I10
I7
tp624
a(I7
I6
tp625
a(I5
I7
tp626
a(I2
I11
tp627
a(I6
I11
tp628
a(I9
I11
tp629
a(I7
I10
tp630
a(I10
I9
tp631
atp632
Rp633
sg15
I12
sg28
g20
((lp634
(I11
I7
tp635
a(I11
I4
tp636
a(I4
I6
tp637
a(I5
I11
tp638
a(I8
I10
tp639
a(I0
I5
tp640
a(I8
I7
tp641
a(I1
I7
tp642
a(I10
I1
tp643
a(I1
I1
tp644
a(I5
I5
tp645
atp646
Rp647
sg13
((I6
I8
tp648
(I9
I2
tp649
(I0
I6
tp650
(I10
I3
tp651
(I9
I5
tp652
(I5
I0
tp653
(I9
I8
tp654
tp655
sg14
I12
sbs(iproblems
RoomID
p656
(dp657
g10
I10
sg11
(I6
I9
tp658
sg13
I5
sg14
I12
sg15
I12
sg16
I2685440357799139976
sb(imulti_robot_problem
MultiRobotState
p659
(dp660
g19
g20
((lp661
(I4
I10
tp662
ag658
a(I9
I1
tp663
a(I5
I11
tp664
a(I3
I0
tp665
a(I0
I7
tp666
a(I3
I9
tp667
a(I0
I5
tp668
a(I1
I4
tp669
a(I0
I3
tp670
a(I4
I0
tp671
a(I1
I2
tp672
a(I11
I10
tp673
a(I6
I10
tp674
a(I5
I6
tp675
a(I9
I11
tp676
a(I7
I9
tp677
a(I4
I5
tp678
a(I3
I5
tp679
a(I3
I4
tp680
a(I2
I4
tp681
a(I1
I9
tp682
atp683
Rp684
sg15
I12
sg28
g20
((lp685
(I11
I7
tp686
a(I8
I3
tp687
a(I10
I11
tp688
a(I7
I1
tp689
a(I10
I5
tp690
a(I8
I10
tp691
a(I6
I3
tp692
a(I3
I6
tp693
a(I9
I10
tp694
a(I6
I5
tp695
atp696
Rp697
sg13
((I7
I7
tp698
(I0
I0
tp699
(I11
I9
tp700
(I0
I2
tp701
(I4
I1
tp702
tp703
sg14
I12
sbssg149
S'heavy_roomset'
p704
sbsg149
g151
sg152
(dp705
g471
((lp706
F42.659999999999854
tp707
sg519
((lp708
F67.009999999998399
tp709
sg567
((lp710
F42.450000000000728
tp711
sg608
((lp712
F51.0
tp713
sg656
((lp714
(F25.75
I58
tp715
aF40.130000000001019
tp716
ssba(imeasure_core
ProblemSetSolution
p717
(dp718
g3
g4
sg149
S"AnytimeBeam-w20-gf(1.5, 'exp')_with_PowerHeuristic2"
p719
sg152
(dp720
g8
((lp721
(F0.11999999999898137
I45
tp722
a(F1.3600000000005821
I44
tp723
a(F1.9899999999979627
I37
tp724
a(F2.6100000000005821
I36
tp725
a(F3.2399999999979627
I34
tp726
a(F5.3299999999981083
I33
tp727
a(F7.5900000000001455
I31
tp728
a(F10.579999999998108
I30
tp729
a(F13.809999999997672
I28
tp730
a(F16.259999999998399
I26
tp731
a(F21.340000000000146
I25
tp732
a(F27.829999999998108
I24
tp733
aF40.0
tp734
sg41
((lp735
(F2.9599999999991269
I20
tp736
aF40.009999999998399
tp737
sg70
((lp738
(F38.380000000001019
I134
tp739
aF40.139999999999418
tp740
sg98
((lp741
(F1.8400000000001455
I8
tp742
aF40.190000000002328
tp743
sg123
((lp744
(F0.16999999999825377
I47
tp745
a(F1.2799999999988358
I45
tp746
a(F2.3400000000001455
I43
tp747
a(F3.3400000000001455
I35
tp748
a(F4.5
I33
tp749
a(F5.7999999999992724
I31
tp750
a(F7.1199999999989814
I29
tp751
a(F9.4599999999991269
I27
tp752
a(F12.729999999999563
I25
tp753
a(F15.489999999997963
I23
tp754
aF40.0
tp755
ssba(imeasure_core
ProblemSetSolution
p756
(dp757
g3
g191
sg149
g719
sg152
(dp758
g194
((lp759
F40.379999999997381
tp760
sg246
((lp761
(F28.660000000003492
I127
tp762
aF40.150000000001455
tp763
sg296
((lp764
(F0.13999999999941792
I25
tp765
aF40.010000000002037
tp766
sg346
((lp767
(F17.299999999999272
I64
tp768
aF40.119999999998981
tp769
sg402
((lp770
(F1.180000000000291
I12
tp771
aF40.090000000000146
tp772
ssba(imeasure_core
ProblemSetSolution
p773
(dp774
g3
g468
sg149
g719
sg152
(dp775
g471
((lp776
F42.490000000001601
tp777
sg519
((lp778
F67.430000000000291
tp779
sg567
((lp780
F42.399999999997817
tp781
sg608
((lp782
F51.290000000000873
tp783
sg656
((lp784
(F25.840000000000146
I58
tp785
aF40.319999999999709
tp786
ssba(imeasure_core
ProblemSetSolution
p787
(dp788
g3
g4
sg149
S"AnytimeBeam-w20-gf(1.7, 'exp')_with_PowerHeuristic2"
p789
sg152
(dp790
g8
((lp791
(F0.1099999999969441
I45
tp792
a(F1.5599999999976717
I44
tp793
a(F2.2099999999991269
I37
tp794
a(F2.8299999999981083
I36
tp795
a(F3.4699999999975262
I34
tp796
a(F5.5599999999976717
I33
tp797
a(F7.819999999999709
I31
tp798
a(F10.789999999997235
I30
tp799
a(F14.019999999996799
I28
tp800
a(F16.469999999997526
I26
tp801
a(F21.539999999997235
I25
tp802
a(F28.059999999997672
I24
tp803
aF40.0
tp804
sg41
((lp805
(F2.9799999999995634
I20
tp806
aF40.149999999997817
tp807
sg70
((lp808
(F38.420000000001892
I134
tp809
aF40.190000000002328
tp810
sg98
((lp811
(F1.819999999999709
I8
tp812
aF40.229999999999563
tp813
sg123
((lp814
(F0.17000000000189175
I47
tp815
a(F1.2799999999988358
I45
tp816
a(F2.3300000000017462
I43
tp817
a(F3.3300000000017462
I35
tp818
a(F4.4900000000016007
I33
tp819
a(F5.7700000000004366
I31
tp820
a(F7.0999999999985448
I29
tp821
a(F9.4399999999986903
I27
tp822
a(F12.680000000000291
I25
tp823
a(F15.420000000001892
I23
tp824
aF40.0
tp825
ssba(imeasure_core
ProblemSetSolution
p826
(dp827
g3
g191
sg149
g789
sg152
(dp828
g194
((lp829
F40.270000000000437
tp830
sg246
((lp831
(F28.329999999998108
I127
tp832
aF40.049999999999272
tp833
sg296
((lp834
(F0.13000000000101863
I25
tp835
aF40.010000000002037
tp836
sg346
((lp837
(F17.389999999999418
I64
tp838
aF40.109999999996944
tp839
sg402
((lp840
(F1.180000000000291
I12
tp841
aF40.030000000002474
tp842
ssba(imeasure_core
ProblemSetSolution
p843
(dp844
g3
g468
sg149
g789
sg152
(dp845
g471
((lp846
F42.400000000001455
tp847
sg519
((lp848
F67.430000000000291
tp849
sg567
((lp850
F42.419999999998254
tp851
sg608
((lp852
F51.020000000000437
tp853
sg656
((lp854
(F25.659999999999854
I58
tp855
aF40.119999999998981
tp856
ssba(imeasure_core
ProblemSetSolution
p857
(dp858
g3
g4
sg149
S"AnytimeBeam-w20-gf(1.8999999999999999, 'exp')_with_PowerHeuristic2"
p859
sg152
(dp860
g8
((lp861
(F0.11000000000058208
I45
tp862
a(F1.069999999999709
I44
tp863
a(F1.7299999999995634
I37
tp864
a(F2.3600000000005821
I36
tp865
a(F3.0
I34
tp866
a(F5.1100000000005821
I33
tp867
a(F7.3800000000010186
I31
tp868
a(F10.380000000001019
I30
tp869
a(F13.610000000000582
I28
tp870
a(F16.049999999999272
I26
tp871
a(F21.130000000001019
I25
tp872
a(F27.709999999999127
I24
tp873
aF40.0
tp874
sg41
((lp875
(F2.9899999999979627
I20
tp876
aF40.119999999998981
tp877
sg70
((lp878
(F38.029999999998836
I134
tp879
aF40.110000000000582
tp880
sg98
((lp881
(F1.8299999999981083
I8
tp882
aF40.239999999997963
tp883
sg123
((lp884
(F0.16000000000349246
I47
tp885
a(F1.2700000000004366
I45
tp886
a(F2.3200000000033469
I43
tp887
a(F3.3200000000033469
I35
tp888
a(F4.4800000000032014
I33
tp889
a(F5.7700000000004366
I31
tp890
a(F7.1100000000005821
I29
tp891
a(F9.4600000000027649
I27
tp892
a(F12.700000000000728
I25
tp893
a(F15.460000000002765
I23
tp894
aF40.0
tp895
ssba(imeasure_core
ProblemSetSolution
p896
(dp897
g3
g191
sg149
g859
sg152
(dp898
g194
((lp899
F40.400000000001455
tp900
sg246
((lp901
(F28.480000000003201
I127
tp902
aF40.160000000003492
tp903
sg296
((lp904
(F0.13999999999941792
I25
tp905
aF40.009999999994761
tp906
sg346
((lp907
(F17.380000000004657
I64
tp908
aF40.120000000002619
tp909
sg402
((lp910
(F1.1900000000023283
I12
tp911
aF40.029999999998836
tp912
ssba(imeasure_core
ProblemSetSolution
p913
(dp914
g3
g468
sg149
g859
sg152
(dp915
g471
((lp916
F42.629999999997381
tp917
sg519
((lp918
F67.450000000004366
tp919
sg567
((lp920
F42.669999999998254
tp921
sg608
((lp922
F51.069999999999709
tp923
sg656
((lp924
(F25.700000000004366
I58
tp925
aF40.150000000001455
tp926
ssba(imeasure_core
ProblemSetSolution
p927
(dp928
g3
g4
sg149
S"AnytimeBeam-w20-gf(1.3, 'exp')_with_LinearHeuristic"
p929
sg152
(dp930
g8
((lp931
(F0.019999999996798579
I24
tp932
aF40.0
tp933
sg41
((lp934
F40.540000000000873
tp935
sg70
((lp936
F40.159999999996217
tp937
sg98
((lp938
(F1.2900000000008731
I4
tp939
aF40.190000000002328
tp940
sg123
((lp941
(F0.019999999996798579
I23
tp942
aF40.0
tp943
ssba(imeasure_core
ProblemSetSolution
p944
(dp945
g3
g191
sg149
g929
sg152
(dp946
g194
((lp947
F40.470000000001164
tp948
sg246
((lp949
F40.129999999997381
tp950
sg296
((lp951
F40.040000000000873
tp952
sg346
((lp953
F40.690000000002328
tp954
sg402
((lp955
F40.059999999997672
tp956
ssba(imeasure_core
ProblemSetSolution
p957
(dp958
g3
g468
sg149
g929
sg152
(dp959
g471
((lp960
F40.840000000003783
tp961
sg519
((lp962
F60.319999999999709
tp963
sg567
((lp964
F42.239999999997963
tp965
sg608
((lp966
F48.909999999996217
tp967
sg656
((lp968
F40.680000000000291
tp969
ssba(imeasure_core
ProblemSetSolution
p970
(dp971
g3
g4
sg149
S"AnytimeBeam-w20-gf(1.5, 'exp')_with_LinearHeuristic"
p972
sg152
(dp973
g8
((lp974
(F0.010000000002037268
I24
tp975
aF40.0
tp976
sg41
((lp977
F40.239999999997963
tp978
sg70
((lp979
F40.010000000002037
tp980
sg98
((lp981
(F1.4800000000032014
I4
tp982
aF40.410000000003492
tp983
sg123
((lp984
(F0.019999999996798579
I23
tp985
aF40.0
tp986
ssba(imeasure_core
ProblemSetSolution
p987
(dp988
g3
g191
sg149
g972
sg152
(dp989
g194
((lp990
F40.309999999997672
tp991
sg246
((lp992
F40.110000000000582
tp993
sg296
((lp994
F40.139999999999418
tp995
sg346
((lp996
F40.779999999998836
tp997
sg402
((lp998
F40.889999999999418
tp999
ssba(imeasure_core
ProblemSetSolution
p1000
(dp1001
g3
g468
sg149
g972
sg152
(dp1002
g471
((lp1003
F40.580000000001746
tp1004
sg519
((lp1005
F59.610000000000582
tp1006
sg567
((lp1007
F42.369999999995343
tp1008
sg608
((lp1009
F48.690000000002328
tp1010
sg656
((lp1011
F41.010000000002037
tp1012
ssba(imeasure_core
ProblemSetSolution
p1013
(dp1014
g3
g4
sg149
S"AnytimeBeam-w20-gf(1.7, 'exp')_with_LinearHeuristic"
p1015
sg152
(dp1016
g8
((lp1017
(F0.019999999996798579
I24
tp1018
aF40.0
tp1019
sg41
((lp1020
F40.669999999998254
tp1021
sg70
((lp1022
F40.430000000000291
tp1023
sg98
((lp1024
(F1.4700000000011642
I4
tp1025
aF40.19999999999709
tp1026
sg123
((lp1027
(F0.020000000004074536
I23
tp1028
aF40.0
tp1029
ssba(imeasure_core
ProblemSetSolution
p1030
(dp1031
g3
g191
sg149
g1015
sg152
(dp1032
g194
((lp1033
F40.180000000000291
tp1034
sg246
((lp1035
F40.030000000006112
tp1036
sg296
((lp1037
F40.059999999997672
tp1038
sg346
((lp1039
F40.279999999998836
tp1040
sg402
((lp1041
F40.510000000002037
tp1042
ssba(imeasure_core
ProblemSetSolution
p1043
(dp1044
g3
g468
sg149
g1015
sg152
(dp1045
g471
((lp1046
F40.469999999993888
tp1047
sg519
((lp1048
F59.470000000001164
tp1049
sg567
((lp1050
F42.029999999998836
tp1051
sg608
((lp1052
F48.540000000000873
tp1053
sg656
((lp1054
F40.410000000003492
tp1055
ssba(imeasure_core
ProblemSetSolution
p1056
(dp1057
g3
g4
sg149
S"AnytimeBeam-w20-gf(1.8999999999999999, 'exp')_with_LinearHeuristic"
p1058
sg152
(dp1059
g8
((lp1060
(F0.010000000002037268
I24
tp1061
aF40.0
tp1062
sg41
((lp1063
F40.590000000003783
tp1064
sg70
((lp1065
F40.040000000000873
tp1066
sg98
((lp1067
(F1.4799999999959255
I4
tp1068
aF40.089999999996508
tp1069
sg123
((lp1070
(F0.020000000004074536
I23
tp1071
aF40.0
tp1072
ssba(imeasure_core
ProblemSetSolution
p1073
(dp1074
g3
g191
sg149
g1058
sg152
(dp1075
g194
((lp1076
F40.05000000000291
tp1077
sg246
((lp1078
F40.349999999998545
tp1079
sg296
((lp1080
F40.139999999999418
tp1081
sg346
((lp1082
F40.339999999996508
tp1083
sg402
((lp1084
F40.490000000005239
tp1085
ssba(imeasure_core
ProblemSetSolution
p1086
(dp1087
g3
g468
sg149
g1058
sg152
(dp1088
g471
((lp1089
F40.639999999999418
tp1090
sg519
((lp1091
F60.059999999997672
tp1092
sg567
((lp1093
F42.209999999999127
tp1094
sg608
((lp1095
F48.720000000001164
tp1096
sg656
((lp1097
F40.459999999999127
tp1098
ssba.