(lp0
(imeasure_core
ProblemSetSolution
p1
(dp2
S'roomset'
p3
(imeasure_core
RoomSet
p4
(dp5
S'rooms'
p6
(dp7
(iproblems
RoomID
p8
(dp9
S'width'
p10
I9
sS'dusts'
p11
I8
sS'seed'
p12
I1689441204489037471
sS'obstacles'
p13
(I0
I4
tp14
sS'robots'
p15
I4
sS'height'
p16
I7
sb(imulti_robot_problem
MultiRobotState
p17
(dp18
S'obstacle_locations'
p19
c__builtin__
frozenset
p20
((lp21
(I0
I1
tp22
a(I1
I2
tp23
a(I3
I2
tp24
a(I8
I1
tp25
a(I4
I3
tp26
ag14
a(I0
I3
tp27
a(I4
I0
tp28
atp29
Rp30
sg10
I9
sS'dirt_locations'
p31
g20
((lp32
(I0
I0
tp33
a(I7
I0
tp34
a(I7
I6
tp35
a(I1
I4
tp36
a(I6
I2
tp37
a(I2
I3
tp38
a(I5
I1
tp39
a(I3
I5
tp40
atp41
Rp42
sg15
((I6
I0
tp43
(I5
I4
tp44
(I6
I6
tp45
(I5
I0
tp46
tp47
sg16
I7
sbs(iproblems
RoomID
p48
(dp49
g10
I10
sg11
I10
sg12
I6660334802794327005
sg13
(I4
I5
tp50
sg15
I3
sg16
I8
sb(imulti_robot_problem
MultiRobotState
p51
(dp52
g19
g20
((lp53
(I9
I0
tp54
a(I2
I6
tp55
ag50
a(I1
I6
tp56
a(I3
I6
tp57
a(I8
I4
tp58
atp59
Rp60
sg10
I10
sg31
g20
((lp61
(I9
I1
tp62
a(I5
I6
tp63
a(I4
I1
tp64
a(I1
I5
tp65
a(I7
I5
tp66
a(I9
I4
tp67
a(I1
I7
tp68
a(I9
I6
tp69
a(I7
I2
tp70
a(I8
I2
tp71
atp72
Rp73
sg15
((I7
I3
tp74
(I4
I7
tp75
(I4
I2
tp76
tp77
sg16
I8
sbs(iproblems
RoomID
p78
(dp79
g10
I9
sg11
I6
sg12
I3119042104763040036
sg13
(I8
I4
tp80
sg15
I4
sg16
I10
sb(imulti_robot_problem
MultiRobotState
p81
(dp82
g19
g20
((lp83
(I1
I2
tp84
a(I6
I7
tp85
a(I4
I8
tp86
a(I7
I6
tp87
a(I8
I5
tp88
ag80
atp89
Rp90
sg10
I9
sg31
g20
((lp91
(I6
I8
tp92
a(I6
I6
tp93
a(I3
I0
tp94
a(I6
I5
tp95
a(I8
I7
tp96
a(I7
I2
tp97
atp98
Rp99
sg15
((I5
I9
tp100
(I6
I1
tp101
(I3
I4
tp102
(I2
I7
tp103
tp104
sg16
I10
sbs(iproblems
RoomID
p105
(dp106
g10
I9
sg11
I7
sg12
I4640892725076559864
sg13
(I2
I5
tp107
sg15
I5
sg16
I9
sb(imulti_robot_problem
MultiRobotState
p108
(dp109
g19
g20
((lp110
(I2
I6
tp111
a(I6
I7
tp112
a(I1
I5
tp113
a(I3
I1
tp114
a(I0
I6
tp115
a(I1
I6
tp116
a(I0
I4
tp117
ag107
a(I3
I4
tp118
atp119
Rp120
sg10
I9
sg31
g20
((lp121
(I7
I3
tp122
a(I7
I1
tp123
a(I8
I1
tp124
a(I3
I8
tp125
a(I4
I2
tp126
a(I8
I6
tp127
a(I5
I3
tp128
atp129
Rp130
sg15
((I6
I5
tp131
(I8
I4
tp132
(I7
I6
tp133
(I6
I0
tp134
(I6
I3
tp135
tp136
sg16
I9
sbs(iproblems
RoomID
p137
(dp138
g10
I7
sg11
I6
sg12
I3914746131789064238
sg13
(I3
I0
tp139
sg15
I4
sg16
I10
sb(imulti_robot_problem
MultiRobotState
p140
(dp141
g19
g20
((lp142
g139
a(I6
I1
tp143
a(I2
I3
tp144
a(I5
I0
tp145
a(I2
I2
tp146
a(I0
I3
tp147
a(I0
I8
tp148
a(I4
I1
tp149
a(I3
I5
tp150
atp151
Rp152
sg10
I7
sg31
g20
((lp153
(I3
I3
tp154
a(I1
I7
tp155
a(I0
I7
tp156
a(I0
I4
tp157
a(I3
I4
tp158
a(I6
I5
tp159
atp160
Rp161
sg15
((I1
I8
tp162
(I5
I1
tp163
(I5
I3
tp164
(I1
I9
tp165
tp166
sg16
I10
sbssS'name'
p167
S'easy_roomset'
p168
sbsS'name'
p169
S"AnytimeBeam-w5-gf(1.3, 'exp')_with_PowerHeuristic2"
p170
sS'solutions'
p171
(dp172
g8
((lp173
(F0.25
I8
tp174
aF40.149999999999636
tp175
sg48
((lp176
(F0.17000000000007276
I23
tp177
aF40.030000000000655
tp178
sg78
((lp179
(F0.36999999999898137
I11
tp180
aF40.100000000000364
tp181
sg105
((lp182
(F1.0
I6
tp183
aF40.029999999998836
tp184
sg137
((lp185
(F0.1499999999996362
I7
tp186
aF40.069999999999709
tp187
ssba(imeasure_core
ProblemSetSolution
p188
(dp189
g3
(imeasure_core
RoomSet
p190
(dp191
S'rooms'
p192
(dp193
(iproblems
RoomID
p194
(dp195
S'width'
p196
I11
sS'dusts'
p197
I6
sS'seed'
p198
I3119042104763040036
sS'obstacles'
p199
(I5
I5
tp200
sS'robots'
p201
I4
sS'height'
p202
I12
sb(imulti_robot_problem
MultiRobotState
p203
(dp204
S'obstacle_locations'
p205
g20
((lp206
(I3
I0
tp207
a(I9
I8
tp208
a(I10
I6
tp209
a(I2
I1
tp210
a(I8
I9
tp211
a(I0
I10
tp212
a(I10
I3
tp213
ag200
a(I10
I7
tp214
a(I4
I4
tp215
a(I2
I2
tp216
a(I7
I9
tp217
a(I1
I1
tp218
a(I10
I4
tp219
a(I4
I5
tp220
a(I2
I3
tp221
a(I3
I3
tp222
a(I4
I6
tp223
a(I9
I2
tp224
a(I3
I4
tp225
a(I9
I5
tp226
a(I7
I8
tp227
a(I2
I4
tp228
atp229
Rp230
sg196
I11
sS'dirt_locations'
p231
g20
((lp232
(I8
I3
tp233
a(I5
I10
tp234
a(I8
I8
tp235
a(I9
I4
tp236
a(I8
I6
tp237
a(I10
I9
tp238
atp239
Rp240
sg201
((I6
I11
tp241
(I7
I2
tp242
(I2
I8
tp243
(I8
I10
tp244
tp245
sg202
I12
sbs(iproblems
RoomID
p246
(dp247
g196
I9
sg197
I6
sg198
I3914746131789064238
sg199
(I4
I8
tp248
sg201
I4
sg202
I12
sb(imulti_robot_problem
MultiRobotState
p249
(dp250
g205
g20
((lp251
(I5
I7
tp252
a(I6
I6
tp253
a(I0
I10
tp254
a(I0
I3
tp255
a(I8
I5
tp256
a(I4
I0
tp257
a(I6
I7
tp258
a(I3
I3
tp259
a(I8
I1
tp260
a(I7
I6
tp261
ag248
a(I5
I0
tp262
a(I2
I2
tp263
a(I8
I6
tp264
a(I4
I5
tp265
a(I0
I5
tp266
a(I8
I7
tp267
a(I5
I3
tp268
a(I7
I0
tp269
a(I4
I6
tp270
a(I6
I1
tp271
a(I3
I1
tp272
a(I0
I9
tp273
a(I2
I3
tp274
atp275
Rp276
sg196
I9
sg231
g20
((lp277
(I4
I4
tp278
a(I2
I11
tp279
a(I2
I10
tp280
a(I1
I8
tp281
a(I1
I9
tp282
a(I4
I3
tp283
atp284
Rp285
sg201
((I1
I10
tp286
(I6
I2
tp287
(I7
I3
tp288
(I1
I11
tp289
tp290
sg202
I12
sbs(iproblems
RoomID
p291
(dp292
g196
I10
sg197
I9
sg198
I4253868527325451640
sg199
(I9
I10
tp293
sg201
I3
sg202
I11
sb(imulti_robot_problem
MultiRobotState
p294
(dp295
g205
g20
((lp296
(I7
I3
tp297
a(I4
I7
tp298
a(I2
I6
tp299
a(I5
I0
tp300
a(I4
I8
tp301
a(I3
I4
tp302
a(I7
I1
tp303
a(I6
I9
tp304
a(I8
I10
tp305
ag293
a(I3
I9
tp306
a(I1
I6
tp307
a(I7
I10
tp308
a(I2
I3
tp309
a(I3
I7
tp310
a(I2
I5
tp311
a(I3
I5
tp312
a(I8
I5
tp313
a(I2
I4
tp314
a(I5
I8
tp315
a(I7
I9
tp316
atp317
Rp318
sg196
I10
sg231
g20
((lp319
(I3
I8
tp320
a(I5
I10
tp321
a(I6
I8
tp322
a(I7
I6
tp323
a(I8
I9
tp324
a(I0
I10
tp325
a(I9
I4
tp326
a(I0
I9
tp327
a(I5
I3
tp328
atp329
Rp330
sg201
((I3
I6
tp331
(I0
I8
tp332
(I2
I1
tp333
tp334
sg202
I11
sbs(iproblems
RoomID
p335
(dp336
g196
I10
sg197
I9
sg198
I3273124617966689144
sg199
(I9
I9
tp337
sg201
I3
sg202
I10
sb(imulti_robot_problem
MultiRobotState
p338
(dp339
g205
g20
((lp340
(I7
I3
tp341
a(I1
I3
tp342
a(I9
I8
tp343
a(I3
I2
tp344
a(I1
I6
tp345
a(I2
I5
tp346
a(I3
I3
tp347
a(I7
I6
tp348
a(I6
I3
tp349
a(I8
I6
tp350
a(I5
I3
tp351
a(I9
I7
tp352
a(I6
I4
tp353
a(I5
I4
tp354
a(I4
I5
tp355
a(I7
I5
tp356
a(I2
I3
tp357
a(I0
I8
tp358
a(I9
I6
tp359
a(I6
I5
tp360
a(I5
I5
tp361
ag337
a(I4
I3
tp362
a(I2
I4
tp363
atp364
Rp365
sg196
I10
sg231
g20
((lp366
(I7
I0
tp367
a(I3
I0
tp368
a(I6
I1
tp369
a(I3
I1
tp370
a(I5
I0
tp371
a(I2
I2
tp372
a(I3
I4
tp373
a(I1
I1
tp374
a(I8
I4
tp375
atp376
Rp377
sg201
((I0
I7
tp378
(I2
I1
tp379
(I6
I6
tp380
tp381
sg202
I10
sbs(iproblems
RoomID
p382
(dp383
g196
I12
sg197
I5
sg198
I659184109953178577
sg199
(I5
I7
tp384
sg201
I4
sg202
I9
sb(imulti_robot_problem
MultiRobotState
p385
(dp386
g205
g20
((lp387
(I7
I3
tp388
a(I4
I7
tp389
a(I6
I6
tp390
a(I7
I7
tp391
a(I9
I4
tp392
a(I2
I5
tp393
a(I10
I3
tp394
a(I7
I2
tp395
a(I3
I3
tp396
a(I3
I6
tp397
a(I8
I6
tp398
a(I6
I4
tp399
a(I8
I2
tp400
a(I4
I5
tp401
a(I11
I0
tp402
a(I7
I5
tp403
a(I0
I8
tp404
a(I6
I5
tp405
a(I4
I6
tp406
a(I6
I1
tp407
ag384
a(I4
I3
tp408
a(I3
I4
tp409
atp410
Rp411
sg196
I12
sg231
g20
((lp412
(I10
I8
tp413
a(I4
I1
tp414
a(I0
I2
tp415
a(I1
I6
tp416
a(I10
I4
tp417
atp418
Rp419
sg201
((I10
I0
tp420
(I7
I0
tp421
(I2
I6
tp422
(I8
I3
tp423
tp424
sg202
I9
sbssS'name'
p425
S'mild_roomset'
p426
sbsg169
g170
sg171
(dp427
g194
((lp428
(F8.1200000000008004
I164
tp429
aF40.020000000000437
tp430
sg246
((lp431
(F0.15999999999985448
I6
tp432
aF40.079999999999927
tp433
sg291
((lp434
(F0.22999999999956344
I32
tp435
aF40.149999999999636
tp436
sg335
((lp437
(F4.1700000000000728
I89
tp438
a(F6.0200000000004366
I67
tp439
a(F8.75
I52
tp440
aF40.079999999999927
tp441
sg382
((lp442
(F0.75
I24
tp443
a(F4.2300000000013824
I18
tp444
aF40.079999999999927
tp445
ssba(imeasure_core
ProblemSetSolution
p446
(dp447
g3
(imeasure_core
RoomSet
p448
(dp449
S'rooms'
p450
(dp451
(iproblems
RoomID
p452
(dp453
S'width'
p454
I12
sS'dusts'
p455
I13
sS'seed'
p456
I1689441204489037471
sS'obstacles'
p457
(I3
I4
tp458
sS'robots'
p459
I6
sS'height'
p460
I10
sb(imulti_robot_problem
MultiRobotState
p461
(dp462
S'obstacle_locations'
p463
g20
((lp464
(I7
I3
tp465
a(I1
I3
tp466
a(I10
I6
tp467
a(I7
I7
tp468
a(I6
I2
tp469
a(I1
I6
tp470
a(I9
I4
tp471
a(I5
I1
tp472
a(I8
I5
tp473
a(I11
I5
tp474
a(I10
I3
tp475
a(I0
I4
tp476
a(I8
I6
tp477
a(I4
I1
tp478
a(I1
I1
tp479
a(I9
I3
tp480
a(I0
I5
tp481
a(I8
I7
tp482
a(I4
I2
tp483
a(I2
I7
tp484
ag458
a(I3
I8
tp485
a(I4
I3
tp486
a(I9
I5
tp487
a(I5
I2
tp488
a(I0
I2
tp489
a(I8
I4
tp490
atp491
Rp492
sg454
I12
sS'dirt_locations'
p493
g20
((lp494
(I7
I4
tp495
a(I9
I0
tp496
a(I0
I0
tp497
a(I10
I4
tp498
a(I4
I8
tp499
a(I8
I1
tp500
a(I11
I2
tp501
a(I5
I4
tp502
a(I8
I9
tp503
a(I11
I8
tp504
a(I2
I6
tp505
a(I2
I3
tp506
a(I1
I5
tp507
atp508
Rp509
sg459
((I8
I0
tp510
(I7
I6
tp511
(I8
I8
tp512
(I7
I0
tp513
(I2
I4
tp514
(I9
I9
tp515
tp516
sg460
I10
sbs(iproblems
RoomID
p517
(dp518
g454
I13
sg455
I15
sg456
I6660334802794327005
sg457
(I10
I7
tp519
sg459
I6
sg460
I11
sb(imulti_robot_problem
MultiRobotState
p520
(dp521
g463
g20
((lp522
(I11
I7
tp523
a(I4
I7
tp524
a(I9
I0
tp525
a(I3
I8
tp526
a(I10
I8
tp527
a(I5
I6
tp528
a(I2
I8
tp529
a(I5
I7
tp530
a(I9
I9
tp531
a(I8
I10
tp532
a(I9
I10
tp533
ag519
a(I1
I8
tp534
a(I10
I0
tp535
a(I1
I10
tp536
a(I1
I5
tp537
a(I2
I4
tp538
atp539
Rp540
sg454
I13
sg493
g20
((lp541
(I2
I7
tp542
a(I12
I2
tp543
a(I6
I9
tp544
a(I10
I6
tp545
a(I12
I1
tp546
a(I2
I9
tp547
a(I12
I0
tp548
a(I10
I3
tp549
a(I11
I2
tp550
a(I6
I10
tp551
a(I12
I5
tp552
a(I6
I3
tp553
a(I1
I7
tp554
a(I12
I9
tp555
a(I12
I8
tp556
atp557
Rp558
sg459
((I9
I5
tp559
(I5
I10
tp560
(I5
I3
tp561
(I5
I1
tp562
(I9
I3
tp563
(I7
I8
tp564
tp565
sg460
I11
sbs(iproblems
RoomID
p566
(dp567
g454
I12
sg455
I12
sg456
I4640892725076559864
sg457
(I8
I7
tp568
sg459
I7
sg460
I12
sb(imulti_robot_problem
MultiRobotState
p569
(dp570
g463
g20
((lp571
(I5
I9
tp572
a(I6
I9
tp573
a(I4
I8
tp574
a(I5
I6
tp575
a(I2
I8
tp576
a(I6
I2
tp577
a(I3
I7
tp578
a(I5
I1
tp579
a(I8
I5
tp580
a(I2
I9
tp581
a(I2
I0
tp582
a(I7
I6
tp583
a(I8
I10
tp584
a(I6
I3
tp585
a(I1
I1
tp586
a(I9
I7
tp587
a(I4
I5
tp588
a(I6
I0
tp589
a(I2
I10
tp590
ag568
a(I1
I0
tp591
a(I7
I9
tp592
a(I7
I0
tp593
a(I6
I8
tp594
a(I5
I7
tp595
a(I7
I4
tp596
a(I0
I6
tp597
a(I1
I8
tp598
a(I0
I9
tp599
a(I5
I2
tp600
a(I0
I2
tp601
atp602
Rp603
sg454
I12
sg493
g20
((lp604
(I2
I7
tp605
a(I6
I4
tp606
a(I11
I10
tp607
a(I4
I6
tp608
a(I11
I8
tp609
a(I11
I2
tp610
a(I9
I3
tp611
a(I3
I2
tp612
a(I8
I8
tp613
a(I0
I5
tp614
a(I10
I3
tp615
a(I5
I3
tp616
atp617
Rp618
sg459
((I8
I6
tp619
(I11
I5
tp620
(I10
I8
tp621
(I9
I0
tp622
(I9
I4
tp623
(I9
I2
tp624
(I4
I11
tp625
tp626
sg460
I12
sbs(iproblems
RoomID
p627
(dp628
g454
I10
sg455
I11
sg456
I3914746131789064238
sg457
(I6
I1
tp629
sg459
I7
sg460
I13
sb(imulti_robot_problem
MultiRobotState
p630
(dp631
g463
g20
((lp632
(I0
I0
tp633
a(I7
I0
tp634
a(I9
I1
tp635
a(I2
I9
tp636
a(I7
I1
tp637
a(I9
I2
tp638
ag629
a(I6
I3
tp639
a(I8
I1
tp640
a(I6
I5
tp641
a(I5
I1
tp642
a(I7
I8
tp643
a(I7
I2
tp644
a(I5
I5
tp645
atp646
Rp647
sg454
I10
sg493
g20
((lp648
(I4
I7
tp649
a(I3
I3
tp650
a(I4
I5
tp651
a(I4
I4
tp652
a(I1
I4
tp653
a(I0
I11
tp654
a(I0
I5
tp655
a(I0
I10
tp656
a(I8
I7
tp657
a(I9
I5
tp658
a(I5
I3
tp659
atp660
Rp661
sg459
((I1
I11
tp662
(I8
I4
tp663
(I2
I12
tp664
(I1
I9
tp665
(I2
I11
tp666
(I5
I4
tp667
(I5
I0
tp668
tp669
sg460
I13
sbs(iproblems
RoomID
p670
(dp671
g454
I12
sg455
I11
sg456
I3119042104763040036
sg457
(I7
I6
tp672
sg459
I7
sg460
I13
sb(imulti_robot_problem
MultiRobotState
p673
(dp674
g463
g20
((lp675
(I5
I4
tp676
a(I9
I0
tp677
a(I5
I10
tp678
a(I10
I5
tp679
a(I4
I5
tp680
a(I9
I8
tp681
a(I10
I6
tp682
a(I6
I0
tp683
a(I9
I9
tp684
a(I8
I9
tp685
a(I10
I7
tp686
a(I2
I12
tp687
a(I8
I6
tp688
a(I9
I6
tp689
ag672
a(I11
I6
tp690
a(I9
I7
tp691
atp692
Rp693
sg454
I12
sg493
g20
((lp694
(I1
I2
tp695
a(I8
I0
tp696
a(I5
I11
tp697
a(I5
I6
tp698
a(I7
I8
tp699
a(I4
I4
tp700
a(I8
I10
tp701
a(I0
I11
tp702
a(I2
I3
tp703
a(I3
I4
tp704
a(I4
I0
tp705
atp706
Rp707
sg459
((I7
I12
tp708
(I8
I2
tp709
(I4
I6
tp710
(I3
I9
tp711
(I9
I11
tp712
(I11
I9
tp713
(I9
I3
tp714
tp715
sg460
I13
sbssS'name'
p716
S'heavy_roomset'
p717
sbsg169
g170
sg171
(dp718
g452
((lp719
F40.079999999999927
tp720
sg517
((lp721
(F15.820000000001528
I11
tp722
aF41.280000000000655
tp723
sg670
((lp724
F45.389999999999418
tp725
sg627
((lp726
F40.200000000000728
tp727
sg566
((lp728
F45.569999999999709
tp729
ssba(imeasure_core
ProblemSetSolution
p730
(dp731
g3
g4
sg169
S"AnytimeBeam-w15-gf(1.3, 'exp')_with_PowerHeuristic2"
p732
sg171
(dp733
g8
((lp734
(F0.31999999999970896
I8
tp735
aF40.170000000000073
tp736
sg48
((lp737
(F0.22999999999956344
I23
tp738
aF40.040000000000873
tp739
sg78
((lp740
(F0.45999999999912689
I11
tp741
aF40.349999999998545
tp742
sg105
((lp743
(F1.3600000000005821
I6
tp744
aF40.700000000000728
tp745
sg137
((lp746
(F0.19000000000050932
I7
tp747
aF40.030000000000655
tp748
ssba(imeasure_core
ProblemSetSolution
p749
(dp750
g3
g190
sg169
g732
sg171
(dp751
g194
((lp752
(F6.1500000000014552
I164
tp753
aF40.030000000000655
tp754
sg246
((lp755
(F0.21999999999934516
I6
tp756
aF40.210000000000946
tp757
sg291
((lp758
(F0.33999999999832653
I32
tp759
aF40.0
tp760
sg335
((lp761
(F3.9399999999986903
I148
tp762
a(F6.0099999999983993
I89
tp763
a(F8.6199999999989814
I52
tp764
aF40.019999999998618
tp765
sg382
((lp766
(F1.1900000000005093
I18
tp767
aF40.06000000000131
tp768
ssba(imeasure_core
ProblemSetSolution
p769
(dp770
g3
g448
sg169
g732
sg171
(dp771
g452
((lp772
F40.469999999999345
tp773
sg517
((lp774
(F16.100000000000364
I11
tp775
aF41.8799999999992
tp776
sg670
((lp777
F45.220000000001164
tp778
sg627
((lp779
F40.959999999999127
tp780
sg566
((lp781
F41.630000000001019
tp782
ssba(imeasure_core
ProblemSetSolution
p783
(dp784
g3
g4
sg169
S"AnytimeBeam-w25-gf(1.3, 'exp')_with_PowerHeuristic2"
p785
sg171
(dp786
g8
((lp787
(F0.36999999999898137
I8
tp788
aF40.079999999999927
tp789
sg48
((lp790
(F0.26999999999861757
I23
tp791
aF40.079999999999927
tp792
sg78
((lp793
(F0.5
I11
tp794
aF40.049999999999272
tp795
sg105
((lp796
(F1.4099999999998545
I6
tp797
aF40.0
tp798
sg137
((lp799
(F0.22999999999956344
I7
tp800
aF40.159999999999854
tp801
ssba(imeasure_core
ProblemSetSolution
p802
(dp803
g3
g190
sg169
g785
sg171
(dp804
g194
((lp805
(F7.0
I164
tp806
aF40.25
tp807
sg246
((lp808
(F0.23999999999978172
I6
tp809
aF40.1200000000008
tp810
sg291
((lp811
(F0.40999999999985448
I32
tp812
aF40.039999999999054
tp813
sg335
((lp814
(F1.9099999999998545
I67
tp815
a(F4.819999999999709
I52
tp816
aF40.050000000001091
tp817
sg382
((lp818
(F1.2999999999992724
I18
tp819
aF40.180000000000291
tp820
ssba(imeasure_core
ProblemSetSolution
p821
(dp822
g3
g448
sg169
g785
sg171
(dp823
g452
((lp824
F40.400000000001455
tp825
sg517
((lp826
(F16.170000000000073
I11
tp827
aF42.459999999999127
tp828
sg670
((lp829
F45.31000000000131
tp830
sg627
((lp831
F41.209999999999127
tp832
sg566
((lp833
F41.680000000000291
tp834
ssba(imeasure_core
ProblemSetSolution
p835
(dp836
g3
g4
sg169
S"AnytimeBeam-w35-gf(1.3, 'exp')_with_PowerHeuristic2"
p837
sg171
(dp838
g8
((lp839
(F0.43999999999869033
I8
tp840
aF40.219999999999345
tp841
sg48
((lp842
(F0.32999999999992724
I23
tp843
aF40.0
tp844
sg78
((lp845
(F0.56999999999970896
I11
tp846
aF40.319999999999709
tp847
sg105
((lp848
(F1.5799999999999272
I6
tp849
aF40.270000000000437
tp850
sg137
((lp851
(F0.26000000000021828
I7
tp852
aF40.010000000000218
tp853
ssba(imeasure_core
ProblemSetSolution
p854
(dp855
g3
g190
sg169
g837
sg171
(dp856
g194
((lp857
(F7.680000000000291
I164
tp858
aF40.039999999999054
tp859
sg246
((lp860
(F0.28000000000065484
I6
tp861
aF40.010000000000218
tp862
sg291
((lp863
(F0.47000000000116415
I32
tp864
aF40.0
tp865
sg335
((lp866
(F2.9700000000011642
I52
tp867
aF40.06000000000131
tp868
sg382
((lp869
(F1.5
I18
tp870
aF40.099999999998545
tp871
ssba(imeasure_core
ProblemSetSolution
p872
(dp873
g3
g448
sg169
g837
sg171
(dp874
g452
((lp875
F40.210000000000946
tp876
sg517
((lp877
(F16.309999999999491
I11
tp878
aF42.680000000000291
tp879
sg670
((lp880
F45.059999999999491
tp881
sg627
((lp882
F42.8799999999992
tp883
sg566
((lp884
F40.010000000000218
tp885
ssba(imeasure_core
ProblemSetSolution
p886
(dp887
g3
g4
sg169
S"AnytimeBeam-w45-gf(1.3, 'exp')_with_PowerHeuristic2"
p888
sg171
(dp889
g8
((lp890
(F0.47999999999956344
I8
tp891
aF40.170000000000073
tp892
sg48
((lp893
(F0.3500000000003638
I23
tp894
aF40.059999999999491
tp895
sg78
((lp896
(F0.61000000000058208
I11
tp897
aF40.06000000000131
tp898
sg105
((lp899
(F1.6299999999991996
I6
tp900
aF40.510000000000218
tp901
sg137
((lp902
(F0.27999999999883585
I7
tp903
aF40.019999999998618
tp904
ssba(imeasure_core
ProblemSetSolution
p905
(dp906
g3
g190
sg169
g888
sg171
(dp907
g194
((lp908
(F8.1200000000008004
I164
tp909
aF40.200000000000728
tp910
sg246
((lp911
(F0.30999999999949068
I6
tp912
aF40.010000000000218
tp913
sg291
((lp914
(F0.51999999999861757
I32
tp915
aF40.090000000000146
tp916
sg335
((lp917
(F3.1199999999989814
I52
tp918
aF40.139999999999418
tp919
sg382
((lp920
(F1.6000000000003638
I18
tp921
aF40.059999999999491
tp922
ssba(imeasure_core
ProblemSetSolution
p923
(dp924
g3
g448
sg169
g888
sg171
(dp925
g452
((lp926
F40.180000000000291
tp927
sg517
((lp928
(F16.420000000000073
I11
tp929
aF42.909999999999854
tp930
sg670
((lp931
F45.269999999998618
tp932
sg627
((lp933
F43.190000000000509
tp934
sg566
((lp935
F41.770000000000437
tp936
ssba(imeasure_core
ProblemSetSolution
p937
(dp938
g3
g4
sg169
S"AnytimeBeam-w5-gf(1.3, 'exp')_with_LinearHeuristic"
p939
sg171
(dp940
g8
((lp941
F40.229999999999563
tp942
sg48
((lp943
(F0.58000000000174623
I27
tp944
aF40.0
tp945
sg78
((lp946
F40.090000000000146
tp947
sg105
((lp948
(F1.1700000000000728
I6
tp949
aF40.230000000001382
tp950
sg137
((lp951
F40.069999999999709
tp952
ssba(imeasure_core
ProblemSetSolution
p953
(dp954
g3
g190
sg169
g939
sg171
(dp955
g194
((lp956
F40.270000000000437
tp957
sg246
((lp958
(F0.27999999999883585
I12
tp959
a(F30.989999999999782
I11
tp960
aF40.349999999998545
tp961
sg291
((lp962
(F13.159999999999854
I92
tp963
aF40.040000000000873
tp964
sg335
((lp965
F40.069999999999709
tp966
sg382
((lp967
F40.159999999999854
tp968
ssba(imeasure_core
ProblemSetSolution
p969
(dp970
g3
g448
sg169
g939
sg171
(dp971
g452
((lp972
F40.380000000001019
tp973
sg517
((lp974
F41.75
tp975
sg670
((lp976
F42.68999999999869
tp977
sg627
((lp978
F40.470000000001164
tp979
sg566
((lp980
F40.93999999999869
tp981
ssba(imeasure_core
ProblemSetSolution
p982
(dp983
g3
g4
sg169
S"AnytimeBeam-w15-gf(1.3, 'exp')_with_LinearHeuristic"
p984
sg171
(dp985
g8
((lp986
F40.229999999999563
tp987
sg48
((lp988
(F1.8400000000001455
I49
tp989
aF40.040000000000873
tp990
sg78
((lp991
(F16.25
I165
tp992
aF40.049999999999272
tp993
sg105
((lp994
(F1.5400000000008731
I6
tp995
aF40.490000000001601
tp996
sg137
((lp997
F40.149999999999636
tp998
ssba(imeasure_core
ProblemSetSolution
p999
(dp1000
g3
g190
sg169
g984
sg171
(dp1001
g194
((lp1002
F40.019999999998618
tp1003
sg246
((lp1004
(F0.34000000000014552
I12
tp1005
a(F30.31000000000131
I11
tp1006
aF40.159999999999854
tp1007
sg291
((lp1008
(F4.6700000000000728
I92
tp1009
aF40.030000000000655
tp1010
sg335
((lp1011
F40.030000000000655
tp1012
sg382
((lp1013
F40.1299999999992
tp1014
ssba(imeasure_core
ProblemSetSolution
p1015
(dp1016
g3
g448
sg169
g984
sg171
(dp1017
g452
((lp1018
F40.010000000000218
tp1019
sg517
((lp1020
F41.069999999999709
tp1021
sg670
((lp1022
F42.950000000000728
tp1023
sg627
((lp1024
F41.590000000000146
tp1025
sg566
((lp1026
F41.489999999999782
tp1027
ssba(imeasure_core
ProblemSetSolution
p1028
(dp1029
g3
g4
sg169
S"AnytimeBeam-w25-gf(1.3, 'exp')_with_LinearHeuristic"
p1030
sg171
(dp1031
g8
((lp1032
(F33.509999999998399
I223
tp1033
aF40.090000000000146
tp1034
sg48
((lp1035
(F2.9399999999986903
I49
tp1036
aF40.009999999998399
tp1037
sg78
((lp1038
(F18.120000000002619
I165
tp1039
aF40.06000000000131
tp1040
sg105
((lp1041
(F1.7099999999991269
I6
tp1042
aF40.0
tp1043
sg137
((lp1044
F40.150000000001455
tp1045
ssba(imeasure_core
ProblemSetSolution
p1046
(dp1047
g3
g190
sg169
g1030
sg171
(dp1048
g194
((lp1049
F40.090000000000146
tp1050
sg246
((lp1051
(F0.36999999999898137
I12
tp1052
a(F28.709999999999127
I11
tp1053
aF40.040000000000873
tp1054
sg291
((lp1055
(F7.7700000000004366
I92
tp1056
aF40.020000000000437
tp1057
sg335
((lp1058
F40.029999999998836
tp1059
sg382
((lp1060
F40.020000000000437
tp1061
ssba(imeasure_core
ProblemSetSolution
p1062
(dp1063
g3
g448
sg169
g1030
sg171
(dp1064
g452
((lp1065
F40.209999999999127
tp1066
sg517
((lp1067
F41.180000000000291
tp1068
sg670
((lp1069
F42.840000000000146
tp1070
sg627
((lp1071
F41.80000000000291
tp1072
sg566
((lp1073
F40.069999999999709
tp1074
ssba(imeasure_core
ProblemSetSolution
p1075
(dp1076
g3
g4
sg169
S"AnytimeBeam-w35-gf(1.3, 'exp')_with_LinearHeuristic"
p1077
sg171
(dp1078
g8
((lp1079
(F37.75
I223
tp1080
aF40.049999999999272
tp1081
sg48
((lp1082
(F6.0099999999983993
I49
tp1083
aF40.049999999999272
tp1084
sg78
((lp1085
(F20.400000000001455
I165
tp1086
aF40.110000000000582
tp1087
sg105
((lp1088
(F1.9899999999979627
I6
tp1089
aF40.169999999998254
tp1090
sg137
((lp1091
F40.030000000002474
tp1092
ssba(imeasure_core
ProblemSetSolution
p1093
(dp1094
g3
g190
sg169
g1077
sg171
(dp1095
g194
((lp1096
F40.039999999997235
tp1097
sg246
((lp1098
(F0.42000000000189175
I12
tp1099
a(F28.610000000000582
I11
tp1100
aF40.100000000002183
tp1101
sg291
((lp1102
(F10.680000000000291
I92
tp1103
aF40.119999999998981
tp1104
sg335
((lp1105
F40.090000000000146
tp1106
sg382
((lp1107
F40.180000000000291
tp1108
ssba(imeasure_core
ProblemSetSolution
p1109
(dp1110
g3
g448
sg169
g1077
sg171
(dp1111
g452
((lp1112
F40.200000000000728
tp1113
sg517
((lp1114
F40.120000000002619
tp1115
sg670
((lp1116
F43.170000000001892
tp1117
sg627
((lp1118
F42.829999999998108
tp1119
sg566
((lp1120
F40.909999999999854
tp1121
ssba(imeasure_core
ProblemSetSolution
p1122
(dp1123
g3
g4
sg169
S"AnytimeBeam-w45-gf(1.3, 'exp')_with_LinearHeuristic"
p1124
sg171
(dp1125
g8
((lp1126
(F39.169999999998254
I223
tp1127
aF40.099999999998545
tp1128
sg48
((lp1129
(F7.9199999999982538
I49
tp1130
aF40.049999999999272
tp1131
sg78
((lp1132
(F21.690000000002328
I165
tp1133
aF40.139999999999418
tp1134
sg105
((lp1135
(F2.1100000000005821
I6
tp1136
aF40.5
tp1137
sg137
((lp1138
F40.120000000002619
tp1139
ssba(imeasure_core
ProblemSetSolution
p1140
(dp1141
g3
g190
sg169
g1124
sg171
(dp1142
g194
((lp1143
F40.029999999998836
tp1144
sg246
((lp1145
(F0.43999999999869033
I12
tp1146
a(F27.840000000000146
I11
tp1147
aF40.0
tp1148
sg291
((lp1149
(F16.270000000000437
I92
tp1150
aF40.020000000000437
tp1151
sg335
((lp1152
F40.029999999998836
tp1153
sg382
((lp1154
F40.25
tp1155
ssba(imeasure_core
ProblemSetSolution
p1156
(dp1157
g3
g448
sg169
g1124
sg171
(dp1158
g452
((lp1159
F40.159999999999854
tp1160
sg517
((lp1161
F40.270000000000437
tp1162
sg670
((lp1163
F43.330000000001746
tp1164
sg627
((lp1165
F43.299999999999272
tp1166
sg566
((lp1167
F40.180000000000291
tp1168
ssba.