(lp0
(imeasure_core
ProblemSetSolution
p1
(dp2
S'roomset'
p3
(imeasure_core
RoomSet
p4
(dp5
S'rooms'
p6
(dp7
(iproblems
RoomID
p8
(dp9
S'dusts'
p10
I6
sS'obstacles'
p11
(I5
I1
tp12
sS'robots'
p13
I4
sS'height'
p14
I9
sS'width'
p15
I10
sS'seed'
p16
I2405875930906139466
sb(imulti_robot_problem
MultiRobotState
p17
(dp18
S'obstacle_locations'
p19
c__builtin__
frozenset
p20
((lp21
(I7
I0
tp22
a(I7
I1
tp23
ag12
a(I6
I1
tp24
a(I6
I0
tp25
a(I7
I2
tp26
atp27
Rp28
sg15
I10
sS'dirt_locations'
p29
g20
((lp30
(I7
I3
tp31
a(I2
I1
tp32
a(I6
I4
tp33
a(I5
I6
tp34
a(I5
I2
tp35
a(I0
I7
tp36
atp37
Rp38
sg13
((I7
I6
tp39
(I3
I3
tp40
(I8
I6
tp41
(I0
I2
tp42
tp43
sg14
I9
sbs(iproblems
RoomID
p44
(dp45
g10
I6
sg11
(I6
I7
tp46
sg13
I4
sg14
I10
sg15
I7
sg16
I8744744311366254845
sb(imulti_robot_problem
MultiRobotState
p47
(dp48
g19
g20
((lp49
(I0
I6
tp50
ag46
a(I4
I6
tp51
a(I3
I7
tp52
a(I5
I7
tp53
a(I1
I9
tp54
atp55
Rp56
sg15
I7
sg29
g20
((lp57
(I2
I7
tp58
a(I0
I1
tp59
a(I5
I4
tp60
a(I6
I0
tp61
a(I5
I8
tp62
a(I5
I3
tp63
atp64
Rp65
sg13
((I0
I8
tp66
(I4
I2
tp67
(I3
I0
tp68
(I1
I4
tp69
tp70
sg14
I10
sbs(iproblems
RoomID
p71
(dp72
g10
I6
sg11
(I4
I6
tp73
sg13
I1
sg14
I8
sg15
I7
sg16
I3537054308274871603
sb(imulti_robot_problem
MultiRobotState
p74
(dp75
g19
g20
((lp76
(I4
I7
tp77
ag73
a(I4
I5
tp78
a(I2
I5
tp79
a(I3
I5
tp80
a(I6
I0
tp81
a(I2
I4
tp82
atp83
Rp84
sg15
I7
sg29
g20
((lp85
(I0
I6
tp86
a(I6
I2
tp87
a(I5
I6
tp88
a(I4
I1
tp89
a(I1
I1
tp90
a(I5
I3
tp91
atp92
Rp93
sg13
((I0
I3
tp94
tp95
sg14
I8
sbs(iproblems
RoomID
p96
(dp97
g10
I10
sg11
(I4
I7
tp98
sg13
I5
sg14
I10
sg15
I8
sg16
I8655808914197340073
sb(imulti_robot_problem
MultiRobotState
p99
(dp100
g19
g20
((lp101
(I2
I7
tp102
ag98
a(I4
I8
tp103
a(I6
I3
tp104
a(I7
I5
tp105
a(I3
I7
tp106
a(I1
I0
tp107
a(I5
I3
tp108
atp109
Rp110
sg15
I8
sg29
g20
((lp111
(I7
I3
tp112
a(I5
I4
tp113
a(I7
I0
tp114
a(I5
I7
tp115
a(I1
I5
tp116
a(I1
I9
tp117
a(I3
I6
tp118
a(I1
I7
tp119
a(I3
I4
tp120
a(I5
I8
tp121
atp122
Rp123
sg13
((I3
I8
tp124
(I7
I9
tp125
(I6
I1
tp126
(I2
I3
tp127
(I5
I5
tp128
tp129
sg14
I10
sbssS'name'
p130
S'easy_roomset'
p131
sbsg130
S'LimitedTimeAStar_with_PowerHeuristic2'
p132
sS'solutions'
p133
(dp134
g8
((lp135
F0.37999999999988177
tp136
sg44
((lp137
F190.44000000000005
tp138
sg71
((lp139
F0.069999999999936335
tp140
sg96
((lp141
F1.7699999999999818
tp142
ssba(imeasure_core
ProblemSetSolution
p143
(dp144
g3
(imeasure_core
RoomSet
p145
(dp146
g6
(dp147
(iproblems
RoomID
p148
(dp149
g10
I6
sg11
(I1
I8
tp150
sg13
I4
sg14
I11
sg15
I12
sg16
I2405875930906139466
sb(imulti_robot_problem
MultiRobotState
p151
(dp152
g19
g20
((lp153
(I6
I4
tp154
a(I4
I6
tp155
a(I8
I2
tp156
a(I6
I6
tp157
a(I2
I8
tp158
a(I8
I0
tp159
a(I5
I5
tp160
a(I9
I10
tp161
a(I6
I2
tp162
a(I2
I3
tp163
a(I3
I7
tp164
a(I6
I5
tp165
a(I5
I3
tp166
a(I7
I0
tp167
a(I3
I3
tp168
a(I2
I9
tp169
a(I11
I5
tp170
a(I8
I1
tp171
a(I6
I1
tp172
a(I3
I1
tp173
a(I6
I3
tp174
a(I2
I0
tp175
ag150
a(I7
I5
tp176
a(I3
I6
tp177
a(I4
I3
tp178
a(I3
I4
tp179
atp180
Rp181
sg15
I12
sg29
g20
((lp182
(I9
I4
tp183
a(I7
I1
tp184
a(I0
I9
tp185
a(I9
I3
tp186
a(I7
I7
tp187
a(I2
I1
tp188
atp189
Rp190
sg13
((I9
I7
tp191
(I4
I4
tp192
(I10
I8
tp193
(I0
I2
tp194
tp195
sg14
I11
sbs(iproblems
RoomID
p196
(dp197
g10
I10
sg11
(I0
I5
tp198
sg13
I4
sg14
I12
sg15
I10
sg16
I8655808914197340073
sb(imulti_robot_problem
MultiRobotState
p199
(dp200
g19
g20
((lp201
(I5
I9
tp202
a(I5
I4
tp203
a(I5
I7
tp204
a(I6
I6
tp205
a(I4
I8
tp206
a(I8
I0
tp207
a(I0
I7
tp208
a(I7
I5
tp209
a(I2
I3
tp210
a(I1
I4
tp211
a(I6
I8
tp212
a(I1
I11
tp213
a(I9
I6
tp214
a(I5
I8
tp215
a(I4
I6
tp216
a(I3
I8
tp217
a(I6
I7
tp218
a(I5
I5
tp219
a(I3
I4
tp220
a(I4
I4
tp221
a(I6
I3
tp222
a(I2
I0
tp223
a(I6
I5
tp224
ag198
a(I7
I8
tp225
atp226
Rp227
sg15
I10
sg29
g20
((lp228
(I6
I9
tp229
a(I2
I9
tp230
a(I2
I11
tp231
a(I9
I0
tp232
a(I7
I7
tp233
a(I8
I3
tp234
a(I1
I7
tp235
a(I8
I6
tp236
a(I8
I4
tp237
a(I3
I5
tp238
atp239
Rp240
sg13
((I4
I9
tp241
(I8
I11
tp242
(I7
I1
tp243
(I3
I3
tp244
tp245
sg14
I12
sbs(iproblems
RoomID
p246
(dp247
g10
I10
sg11
(I3
I6
tp248
sg13
I4
sg14
I12
sg15
I11
sg16
I4278205817407065157
sb(imulti_robot_problem
MultiRobotState
p249
(dp250
g19
g20
((lp251
(I0
I1
tp252
a(I4
I7
tp253
a(I5
I6
tp254
a(I2
I8
tp255
a(I0
I10
tp256
a(I3
I7
tp257
a(I7
I11
tp258
a(I3
I3
tp259
a(I2
I7
tp260
a(I5
I3
tp261
a(I6
I7
tp262
a(I4
I6
tp263
a(I10
I7
tp264
a(I4
I4
tp265
a(I3
I8
tp266
a(I4
I5
tp267
ag248
a(I1
I10
tp268
a(I3
I5
tp269
a(I1
I9
tp270
atp271
Rp272
sg15
I11
sg29
g20
((lp273
(I1
I2
tp274
a(I8
I1
tp275
a(I9
I2
tp276
a(I6
I1
tp277
a(I5
I7
tp278
a(I8
I9
tp279
a(I3
I0
tp280
a(I9
I4
tp281
a(I0
I2
tp282
a(I4
I0
tp283
atp284
Rp285
sg13
((I6
I10
tp286
(I5
I11
tp287
(I2
I0
tp288
(I9
I1
tp289
tp290
sg14
I12
sbs(iproblems
RoomID
p291
(dp292
g10
I10
sg11
(I11
I0
tp293
sg13
I4
sg14
I9
sg15
I12
sg16
I2796939073032698495
sb(imulti_robot_problem
MultiRobotState
p294
(dp295
g19
g20
((lp296
(I7
I3
tp297
a(I5
I7
tp298
a(I9
I1
tp299
a(I6
I6
tp300
a(I8
I0
tp301
a(I7
I7
tp302
a(I5
I8
tp303
a(I3
I3
tp304
a(I8
I1
tp305
a(I4
I8
tp306
a(I6
I3
tp307
a(I7
I2
tp308
a(I3
I6
tp309
a(I6
I4
tp310
a(I5
I4
tp311
a(I2
I6
tp312
a(I7
I1
tp313
a(I4
I5
tp314
ag293
a(I2
I3
tp315
a(I10
I1
tp316
a(I1
I0
tp317
a(I6
I5
tp318
a(I5
I3
tp319
a(I8
I3
tp320
a(I7
I0
tp321
a(I6
I8
tp322
a(I9
I2
tp323
a(I6
I1
tp324
a(I3
I1
tp325
a(I8
I8
tp326
a(I4
I3
tp327
a(I5
I2
tp328
a(I10
I2
tp329
atp330
Rp331
sg15
I12
sg29
g20
((lp332
(I1
I2
tp333
a(I11
I7
tp334
a(I3
I2
tp335
a(I2
I8
tp336
a(I9
I3
tp337
a(I1
I6
tp338
a(I5
I0
tp339
a(I0
I3
tp340
a(I0
I8
tp341
a(I4
I1
tp342
atp343
Rp344
sg13
((I10
I8
tp345
(I4
I6
tp346
(I11
I4
tp347
(I7
I8
tp348
tp349
sg14
I9
sbssg130
S'mild_roomset'
p350
sbsg130
g132
sg133
(dp351
g148
((lp352
F0.5600000000001728
tp353
sg196
((lp354
F179.53999999999996
tp355
sg246
((lp356
F1.1599999999998545
tp357
sg291
((lp358
F300.31000000000017
tp359
ssba(imeasure_core
ProblemSetSolution
p360
(dp361
g3
(imeasure_core
RoomSet
p362
(dp363
g6
(dp364
(iproblems
RoomID
p365
(dp366
g10
I11
sg11
(I10
I1
tp367
sg13
I7
sg14
I12
sg15
I13
sg16
I2405875930906139466
sb(imulti_robot_problem
MultiRobotState
p368
(dp369
g19
g20
((lp370
(I7
I3
tp371
a(I9
I1
tp372
a(I7
I1
tp373
a(I5
I6
tp374
a(I8
I11
tp375
a(I8
I0
tp376
a(I1
I4
tp377
a(I6
I2
tp378
a(I0
I7
tp379
ag367
a(I10
I3
tp380
a(I7
I2
tp381
a(I10
I4
tp382
a(I11
I7
tp383
a(I9
I0
tp384
a(I11
I5
tp385
a(I7
I4
tp386
a(I1
I5
tp387
a(I10
I2
tp388
a(I11
I6
tp389
a(I8
I4
tp390
atp391
Rp392
sg15
I13
sg29
g20
((lp393
(I12
I5
tp394
a(I10
I11
tp395
a(I8
I1
tp396
a(I7
I8
tp397
a(I8
I6
tp398
a(I6
I3
tp399
a(I2
I0
tp400
a(I2
I3
tp401
a(I5
I1
tp402
a(I10
I0
tp403
a(I3
I4
tp404
atp405
Rp406
sg13
((I10
I8
tp407
(I9
I2
tp408
(I4
I5
tp409
(I11
I8
tp410
(I1
I2
tp411
(I3
I1
tp412
(I0
I10
tp413
tp414
sg14
I12
sbs(iproblems
RoomID
p415
(dp416
g10
I11
sg11
(I7
I9
tp417
sg13
I6
sg14
I13
sg15
I10
sg16
I8744744311366254845
sb(imulti_robot_problem
MultiRobotState
p418
(dp419
g19
g20
((lp420
(I6
I9
tp421
a(I1
I3
tp422
a(I4
I9
tp423
a(I5
I6
tp424
a(I9
I8
tp425
a(I1
I8
tp426
a(I1
I0
tp427
ag417
a(I3
I4
tp428
a(I5
I8
tp429
a(I9
I7
tp430
atp431
Rp432
sg15
I10
sg29
g20
((lp433
(I0
I1
tp434
a(I7
I3
tp435
a(I9
I0
tp436
a(I1
I12
tp437
a(I4
I10
tp438
a(I5
I11
tp439
a(I9
I10
tp440
a(I7
I11
tp441
a(I3
I7
tp442
a(I0
I8
tp443
a(I9
I6
tp444
atp445
Rp446
sg13
((I0
I10
tp447
(I6
I3
tp448
(I4
I0
tp449
(I1
I6
tp450
(I7
I5
tp451
(I9
I9
tp452
tp453
sg14
I13
sbs(iproblems
RoomID
p454
(dp455
g10
I15
sg11
(I4
I8
tp456
sg13
I6
sg14
I13
sg15
I12
sg16
I4278205817407065157
sb(imulti_robot_problem
MultiRobotState
p457
(dp458
g19
g20
((lp459
(I11
I7
tp460
a(I2
I9
tp461
ag456
a(I5
I6
tp462
a(I2
I8
tp463
a(I6
I10
tp464
a(I3
I8
tp465
a(I11
I8
tp466
a(I3
I9
tp467
a(I1
I10
tp468
a(I1
I11
tp469
a(I7
I8
tp470
a(I2
I4
tp471
atp472
Rp473
sg15
I12
sg29
g20
((lp474
(I1
I2
tp475
a(I0
I1
tp476
a(I5
I4
tp477
a(I5
I7
tp478
a(I10
I4
tp479
a(I7
I1
tp480
a(I3
I1
tp481
a(I10
I5
tp482
a(I4
I7
tp483
a(I9
I9
tp484
a(I0
I10
tp485
a(I4
I3
tp486
a(I8
I12
tp487
a(I4
I1
tp488
a(I0
I2
tp489
atp490
Rp491
sg13
((I7
I10
tp492
(I6
I12
tp493
(I2
I0
tp494
(I9
I1
tp495
(I10
I3
tp496
(I4
I0
tp497
tp498
sg14
I13
sbs(iproblems
RoomID
p499
(dp500
g10
I15
sg11
(I5
I8
tp501
sg13
I7
sg14
I13
sg15
I11
sg16
I8655808914197340073
sb(imulti_robot_problem
MultiRobotState
p502
(dp503
g19
g20
((lp504
(I5
I9
tp505
a(I6
I7
tp506
a(I6
I11
tp507
a(I1
I4
tp508
a(I0
I12
tp509
a(I0
I11
tp510
a(I7
I5
tp511
a(I1
I6
tp512
a(I0
I4
tp513
a(I5
I10
tp514
a(I3
I9
tp515
a(I4
I9
tp516
a(I10
I3
tp517
ag501
atp518
Rp519
sg15
I11
sg29
g20
((lp520
(I2
I7
tp521
a(I7
I3
tp522
a(I4
I6
tp523
a(I1
I12
tp524
a(I5
I6
tp525
a(I8
I5
tp526
a(I7
I7
tp527
a(I7
I9
tp528
a(I2
I0
tp529
a(I9
I4
tp530
a(I7
I10
tp531
a(I0
I8
tp532
a(I9
I6
tp533
a(I6
I5
tp534
a(I9
I7
tp535
atp536
Rp537
sg13
((I9
I11
tp538
(I8
I1
tp539
(I3
I4
tp540
(I8
I7
tp541
(I9
I1
tp542
(I2
I10
tp543
(I2
I12
tp544
tp545
sg14
I13
sbssg130
S'heavy_roomset'
p546
sbsg130
g132
sg133
(dp547
g365
((lp548
F304.9699999999998
tp549
sg415
((lp550
F304.48000000000002
tp551
sg454
((lp552
F24.460000000000036
tp553
sg499
((lp554
F92.070000000000164
tp555
ssba(imeasure_core
ProblemSetSolution
p556
(dp557
g3
(imeasure_core
RoomSet
p558
(dp559
g6
(dp560
S'complexRoom'
p561
(imulti_robot_problem
MultiRobotState
p562
(dp563
g19
g20
((lp564
(I2
I7
tp565
a(I7
I3
tp566
a(I6
I3
tp567
a(I3
I3
tp568
a(I7
I6
tp569
a(I7
I4
tp570
a(I7
I5
tp571
a(I2
I3
tp572
a(I4
I3
tp573
a(I2
I5
tp574
a(I2
I4
tp575
a(I5
I3
tp576
atp577
Rp578
sg15
I11
sg29
g20
((lp579
(I1
I0
tp580
a(I9
I0
tp581
atp582
Rp583
sg13
((I6
I4
tp584
(I1
I6
tp585
tp586
sg14
I8
sbsS'exampleProblem'
p587
(imulti_robot_problem
MultiRobotState
p588
(dp589
g19
g20
((lp590
tp591
Rp592
sg15
I5
sg29
g20
((lp593
(I1
I3
tp594
a(I3
I1
tp595
a(I1
I1
tp596
a(I3
I3
tp597
atp598
Rp599
sg13
((I2
I2
tp600
tp601
sg14
I5
sbsS'linear_test'
p602
(imulti_robot_problem
MultiRobotState
p603
(dp604
g19
g592
sg15
I12
sg29
g20
((lp605
(I11
I0
tp606
a(I1
I0
tp607
a(I9
I0
tp608
atp609
Rp610
sg13
((I3
I0
tp611
(I1
I2
tp612
tp613
sg14
I7
sbsS'obstacle_Far_CloseTest'
p614
(imulti_robot_problem
MultiRobotState
p615
(dp616
g19
g20
((lp617
(I0
I1
tp618
a(I7
I3
tp619
a(I3
I1
tp620
a(I7
I1
tp621
a(I4
I5
tp622
a(I7
I6
tp623
a(I4
I4
tp624
a(I2
I1
tp625
a(I7
I4
tp626
a(I7
I5
tp627
a(I4
I3
tp628
a(I4
I2
tp629
a(I4
I1
tp630
a(I1
I1
tp631
a(I7
I2
tp632
atp633
Rp634
sg15
I12
sg29
g20
((lp635
(I3
I2
tp636
a(I9
I6
tp637
atp638
Rp639
sg13
((I0
I0
tp640
(I6
I6
tp641
tp642
sg14
I7
sbsS'zigzag'
p643
(imulti_robot_problem
MultiRobotState
p644
(dp645
g19
g20
((lp646
(I1
I2
tp647
a(I3
I2
tp648
a(I1
I3
tp649
a(I3
I0
tp650
a(I3
I1
tp651
a(I5
I1
tp652
a(I5
I2
tp653
a(I1
I1
tp654
a(I5
I3
tp655
atp656
Rp657
sg15
I20
sg29
g20
((lp658
(I6
I3
tp659
atp660
Rp661
sg13
((I0
I3
tp662
(I19
I3
tp663
tp664
sg14
I4
sbsS'room1'
p665
(imulti_robot_problem
MultiRobotState
p666
(dp667
g19
g20
((lp668
(I6
I3
tp669
a(I7
I3
tp670
a(I8
I3
tp671
a(I2
I3
tp672
a(I3
I3
tp673
a(I4
I3
tp674
a(I5
I3
tp675
atp676
Rp677
sg15
I9
sg29
g20
((lp678
(I0
I0
tp679
a(I2
I1
tp680
atp681
Rp682
sg13
((I6
I1
tp683
(I6
I5
tp684
tp685
sg14
I6
sbsS'complexRoom2'
p686
(imulti_robot_problem
MultiRobotState
p687
(dp688
g19
g20
((lp689
(I7
I3
tp690
a(I1
I3
tp691
a(I7
I1
tp692
a(I4
I5
tp693
a(I9
I3
tp694
a(I5
I5
tp695
a(I2
I6
tp696
a(I2
I3
tp697
a(I5
I1
tp698
a(I0
I3
tp699
a(I10
I3
tp700
a(I2
I5
tp701
a(I6
I5
tp702
a(I5
I3
tp703
a(I2
I7
tp704
a(I8
I3
tp705
a(I3
I3
tp706
a(I5
I2
tp707
a(I7
I6
tp708
a(I3
I1
tp709
a(I6
I3
tp710
a(I7
I5
tp711
a(I4
I3
tp712
a(I3
I5
tp713
a(I4
I1
tp714
a(I6
I1
tp715
atp716
Rp717
sg15
I11
sg29
g20
((lp718
(I7
I2
tp719
a(I0
I7
tp720
atp721
Rp722
sg13
((I1
I2
tp723
(I3
I6
tp724
tp725
sg14
I8
sbsS'zigzagUpright'
p726
(imulti_robot_problem
MultiRobotState
p727
(dp728
g19
g20
((lp729
(I1
I3
tp730
a(I3
I1
tp731
a(I2
I1
tp732
a(I1
I1
tp733
a(I1
I5
tp734
a(I2
I3
tp735
a(I2
I5
tp736
a(I0
I3
tp737
a(I3
I5
tp738
atp739
Rp740
sg15
I4
sg29
g20
((lp741
(I3
I6
tp742
atp743
Rp744
sg13
((I3
I0
tp745
(I3
I19
tp746
tp747
sg14
I20
sbsS'ivansRevenge'
p748
(imulti_robot_problem
MultiRobotState
p749
(dp750
g19
g592
sg15
I10
sg29
g20
((lp751
(I9
I2
tp752
a(I0
I0
tp753
atp754
Rp755
sg13
((I9
I0
tp756
(I0
I2
tp757
tp758
sg14
I3
sbsS'roomLongWithObstaccle'
p759
(imulti_robot_problem
MultiRobotState
p760
(dp761
g19
g20
((lp762
(I0
I1
tp763
a(I12
I1
tp764
a(I9
I1
tp765
a(I7
I1
tp766
a(I8
I1
tp767
a(I6
I1
tp768
a(I3
I1
tp769
a(I2
I1
tp770
a(I11
I1
tp771
a(I10
I1
tp772
a(I5
I1
tp773
a(I4
I1
tp774
a(I1
I1
tp775
atp776
Rp777
sg15
I15
sg29
g20
((lp778
(I0
I2
tp779
a(I14
I6
tp780
atp781
Rp782
sg13
((I0
I0
tp783
(I0
I6
tp784
tp785
sg14
I7
sbsS'twoRobotsInOpCorners'
p786
(imulti_robot_problem
MultiRobotState
p787
(dp788
g19
g592
sg15
I5
sg29
g20
((lp789
(I0
I0
tp790
a(I4
I4
tp791
atp792
Rp793
sg13
((I3
I0
tp794
(I0
I3
tp795
tp796
sg14
I5
sbsS'split2'
p797
(imulti_robot_problem
MultiRobotState
p798
(dp799
g19
g592
sg15
I10
sg29
g20
((lp800
(I0
I9
tp801
a(I9
I0
tp802
a(I0
I0
tp803
a(I9
I9
tp804
atp805
Rp806
sg13
((I1
I1
tp807
(I8
I1
tp808
(I4
I5
tp809
(I5
I5
tp810
tp811
sg14
I10
sbsS'split3'
p812
(imulti_robot_problem
MultiRobotState
p813
(dp814
g19
g592
sg15
I10
sg29
g20
((lp815
(I0
I9
tp816
a(I9
I0
tp817
a(I0
I0
tp818
a(I9
I9
tp819
atp820
Rp821
sg13
((I1
I1
tp822
(I8
I1
tp823
(I1
I7
tp824
(I7
I7
tp825
tp826
sg14
I10
sbsS'gaintRoom'
p827
(imulti_robot_problem
MultiRobotState
p828
(dp829
g19
g592
sg15
I5
sg29
g20
((lp830
(I4
I0
tp831
a(I4
I4
tp832
a(I0
I4
tp833
atp834
Rp835
sg13
((I0
I0
tp836
tp837
sg14
I5
sbsS'gaintRoomWithWall'
p838
(imulti_robot_problem
MultiRobotState
p839
(dp840
g19
g20
((lp841
(I2
I4
tp842
atp843
Rp844
sg15
I5
sg29
g20
((lp845
(I4
I0
tp846
a(I4
I4
tp847
a(I0
I4
tp848
atp849
Rp850
sg13
((I0
I0
tp851
tp852
sg14
I5
sbsS'split'
p853
(imulti_robot_problem
MultiRobotState
p854
(dp855
g19
g592
sg15
I10
sg29
g20
((lp856
(I0
I9
tp857
a(I9
I0
tp858
a(I0
I0
tp859
a(I9
I9
tp860
atp861
Rp862
sg13
((I4
I4
tp863
(I5
I4
tp864
(I4
I5
tp865
(I5
I5
tp866
tp867
sg14
I10
sbsS'twoRobots'
p868
(imulti_robot_problem
MultiRobotState
p869
(dp870
g19
g592
sg15
I9
sg29
g20
((lp871
(I8
I0
tp872
a(I0
I0
tp873
atp874
Rp875
sg13
((I2
I0
tp876
(I0
I3
tp877
tp878
sg14
I4
sbssg130
S'static_rooms'
p879
sbsg130
g132
sg133
(dp880
g797
((lp881
F0.25
tp882
sg812
((lp883
F0.11999999999989086
tp884
sg561
((lp885
F0.03999999999996362
tp886
sg827
((lp887
F0.030000000000200089
tp888
sg587
((lp889
F0.0
tp890
sg602
((lp891
F0.0099999999997635314
tp892
sg614
((lp893
F21.340000000000146
tp894
sg868
((lp895
F0.010000000000218279
tp896
sg838
((lp897
F0.01999999999998181
tp898
sg643
((lp899
F1.4800000000000182
tp900
sg665
((lp901
F0.01999999999998181
tp902
sg686
((lp903
F6.8499999999999091
tp904
sg726
((lp905
F2.8000000000001819
tp906
sg748
((lp907
F0.0
tp908
sg759
((lp909
F11.340000000000146
tp910
sg786
((lp911
F0.0099999999997635314
tp912
sg853
((lp913
F0.25999999999976353
tp914
ssba.