(lp0
(imeasure_core
ProblemSetSolution
p1
(dp2
S'roomset'
p3
(imeasure_core
RoomSet
p4
(dp5
S'rooms'
p6
(dp7
(iproblems
RoomID
p8
(dp9
S'dusts'
p10
I8
sS'obstacles'
p11
(I0
I4
tp12
sS'robots'
p13
I4
sS'height'
p14
I7
sS'width'
p15
I9
sS'seed'
p16
I1689441204489037471
sb(imulti_robot_problem
MultiRobotState
p17
(dp18
S'obstacle_locations'
p19
c__builtin__
frozenset
p20
((lp21
(I0
I1
tp22
a(I1
I2
tp23
a(I3
I2
tp24
a(I8
I1
tp25
a(I4
I3
tp26
ag12
a(I0
I3
tp27
a(I4
I0
tp28
atp29
Rp30
sg15
I9
sS'dirt_locations'
p31
g20
((lp32
(I0
I0
tp33
a(I7
I0
tp34
a(I7
I6
tp35
a(I1
I4
tp36
a(I6
I2
tp37
a(I2
I3
tp38
a(I5
I1
tp39
a(I3
I5
tp40
atp41
Rp42
sg13
((I6
I0
tp43
(I5
I4
tp44
(I6
I6
tp45
(I5
I0
tp46
tp47
sg14
I7
sbs(iproblems
RoomID
p48
(dp49
g10
I10
sg11
(I4
I5
tp50
sg13
I3
sg14
I8
sg15
I10
sg16
I6660334802794327005
sb(imulti_robot_problem
MultiRobotState
p51
(dp52
g19
g20
((lp53
(I9
I0
tp54
a(I2
I6
tp55
a(I1
I6
tp56
a(I3
I6
tp57
ag50
a(I8
I4
tp58
atp59
Rp60
sg15
I10
sg31
g20
((lp61
(I9
I1
tp62
a(I5
I6
tp63
a(I9
I6
tp64
a(I1
I5
tp65
a(I7
I5
tp66
a(I9
I4
tp67
a(I1
I7
tp68
a(I4
I1
tp69
a(I7
I2
tp70
a(I8
I2
tp71
atp72
Rp73
sg13
((I7
I3
tp74
(I4
I7
tp75
(I4
I2
tp76
tp77
sg14
I8
sbs(iproblems
RoomID
p78
(dp79
g10
I6
sg11
(I3
I0
tp80
sg13
I4
sg14
I10
sg15
I7
sg16
I3914746131789064238
sb(imulti_robot_problem
MultiRobotState
p81
(dp82
g19
g20
((lp83
g80
a(I6
I1
tp84
a(I2
I3
tp85
a(I5
I0
tp86
a(I2
I2
tp87
a(I0
I3
tp88
a(I0
I8
tp89
a(I4
I1
tp90
a(I3
I5
tp91
atp92
Rp93
sg15
I7
sg31
g20
((lp94
(I6
I5
tp95
a(I3
I3
tp96
a(I1
I7
tp97
a(I0
I4
tp98
a(I3
I4
tp99
a(I0
I7
tp100
atp101
Rp102
sg13
((I1
I8
tp103
(I5
I1
tp104
(I5
I3
tp105
(I1
I9
tp106
tp107
sg14
I10
sbs(iproblems
RoomID
p108
(dp109
g10
I7
sg11
(I2
I5
tp110
sg13
I5
sg14
I9
sg15
I9
sg16
I4640892725076559864
sb(imulti_robot_problem
MultiRobotState
p111
(dp112
g19
g20
((lp113
(I2
I6
tp114
a(I6
I7
tp115
a(I0
I6
tp116
a(I3
I1
tp117
a(I1
I5
tp118
a(I1
I6
tp119
a(I0
I4
tp120
ag110
a(I3
I4
tp121
atp122
Rp123
sg15
I9
sg31
g20
((lp124
(I3
I8
tp125
a(I7
I3
tp126
a(I7
I1
tp127
a(I8
I1
tp128
a(I8
I6
tp129
a(I4
I2
tp130
a(I5
I3
tp131
atp132
Rp133
sg13
((I6
I5
tp134
(I8
I4
tp135
(I7
I6
tp136
(I6
I0
tp137
(I6
I3
tp138
tp139
sg14
I9
sbs(iproblems
RoomID
p140
(dp141
g10
I6
sg11
(I8
I4
tp142
sg13
I4
sg14
I10
sg15
I9
sg16
I3119042104763040036
sb(imulti_robot_problem
MultiRobotState
p143
(dp144
g19
g20
((lp145
(I1
I2
tp146
a(I6
I7
tp147
a(I4
I8
tp148
a(I7
I6
tp149
a(I8
I5
tp150
ag142
atp151
Rp152
sg15
I9
sg31
g20
((lp153
(I6
I8
tp154
a(I8
I7
tp155
a(I6
I6
tp156
a(I3
I0
tp157
a(I7
I2
tp158
a(I6
I5
tp159
atp160
Rp161
sg13
((I5
I9
tp162
(I6
I1
tp163
(I3
I4
tp164
(I2
I7
tp165
tp166
sg14
I10
sbssS'name'
p167
S'easy_roomset'
p168
sbsg167
S"AnytimeBeam-w20-gf(1.3, 'exp')_with_PowerHeuristic2"
p169
sS'solutions'
p170
(dp171
g8
((lp172
(F0.33999999999832653
I8
tp173
aF40.18999999999869
tp174
sg48
((lp175
(F0.26000000000021828
I23
tp176
aF40.050000000001091
tp177
sg108
((lp178
(F1.4000000000014552
I6
tp179
aF40.380000000001019
tp180
sg78
((lp181
(F0.20999999999912689
I7
tp182
aF40.019999999998618
tp183
sg140
((lp184
(F0.47999999999956344
I11
tp185
aF40.119999999998981
tp186
ssba(imeasure_core
ProblemSetSolution
p187
(dp188
g3
(imeasure_core
RoomSet
p189
(dp190
g6
(dp191
(iproblems
RoomID
p192
(dp193
g10
I6
sg11
(I5
I5
tp194
sg13
I4
sg14
I12
sg15
I11
sg16
I3119042104763040036
sb(imulti_robot_problem
MultiRobotState
p195
(dp196
g19
g20
((lp197
(I4
I6
tp198
a(I10
I4
tp199
a(I3
I0
tp200
a(I9
I8
tp201
a(I10
I6
tp202
a(I2
I1
tp203
a(I8
I9
tp204
a(I2
I3
tp205
a(I0
I10
tp206
a(I9
I5
tp207
a(I10
I3
tp208
a(I7
I9
tp209
ag194
a(I10
I7
tp210
a(I7
I8
tp211
a(I4
I4
tp212
a(I9
I2
tp213
a(I2
I4
tp214
a(I4
I5
tp215
a(I2
I2
tp216
a(I3
I3
tp217
a(I3
I4
tp218
a(I1
I1
tp219
atp220
Rp221
sg15
I11
sg31
g20
((lp222
(I8
I3
tp223
a(I8
I8
tp224
a(I5
I10
tp225
a(I9
I4
tp226
a(I8
I6
tp227
a(I10
I9
tp228
atp229
Rp230
sg13
((I6
I11
tp231
(I7
I2
tp232
(I2
I8
tp233
(I8
I10
tp234
tp235
sg14
I12
sbs(iproblems
RoomID
p236
(dp237
g10
I6
sg11
(I4
I8
tp238
sg13
I4
sg14
I12
sg15
I9
sg16
I3914746131789064238
sb(imulti_robot_problem
MultiRobotState
p239
(dp240
g19
g20
((lp241
(I4
I6
tp242
a(I6
I6
tp243
a(I4
I5
tp244
a(I5
I7
tp245
a(I0
I5
tp246
a(I0
I10
tp247
a(I8
I7
tp248
a(I7
I0
tp249
a(I0
I3
tp250
a(I8
I5
tp251
a(I4
I0
tp252
a(I2
I3
tp253
a(I6
I7
tp254
a(I3
I3
tp255
a(I8
I1
tp256
a(I7
I6
tp257
a(I3
I1
tp258
ag238
a(I5
I0
tp259
a(I2
I2
tp260
a(I0
I9
tp261
a(I8
I6
tp262
a(I5
I3
tp263
a(I6
I1
tp264
atp265
Rp266
sg15
I9
sg31
g20
((lp267
(I1
I8
tp268
a(I1
I9
tp269
a(I4
I3
tp270
a(I4
I4
tp271
a(I2
I11
tp272
a(I2
I10
tp273
atp274
Rp275
sg13
((I1
I10
tp276
(I6
I2
tp277
(I7
I3
tp278
(I1
I11
tp279
tp280
sg14
I12
sbs(iproblems
RoomID
p281
(dp282
g10
I9
sg11
(I9
I9
tp283
sg13
I3
sg14
I10
sg15
I10
sg16
I3273124617966689144
sb(imulti_robot_problem
MultiRobotState
p284
(dp285
g19
g20
((lp286
(I7
I3
tp287
a(I5
I4
tp288
a(I1
I3
tp289
a(I6
I4
tp290
a(I4
I5
tp291
a(I9
I8
tp292
a(I3
I2
tp293
a(I7
I5
tp294
a(I1
I6
tp295
a(I2
I5
tp296
a(I0
I8
tp297
a(I9
I6
tp298
a(I6
I5
tp299
a(I5
I3
tp300
a(I3
I3
tp301
a(I5
I5
tp302
a(I7
I6
tp303
ag283
a(I6
I3
tp304
a(I4
I3
tp305
a(I2
I3
tp306
a(I8
I6
tp307
a(I2
I4
tp308
a(I9
I7
tp309
atp310
Rp311
sg15
I10
sg31
g20
((lp312
(I7
I0
tp313
a(I3
I0
tp314
a(I6
I1
tp315
a(I3
I1
tp316
a(I5
I0
tp317
a(I2
I2
tp318
a(I3
I4
tp319
a(I1
I1
tp320
a(I8
I4
tp321
atp322
Rp323
sg13
((I0
I7
tp324
(I2
I1
tp325
(I6
I6
tp326
tp327
sg14
I10
sbs(iproblems
RoomID
p328
(dp329
g10
I9
sg11
(I9
I10
tp330
sg13
I3
sg14
I11
sg15
I10
sg16
I4253868527325451640
sb(imulti_robot_problem
MultiRobotState
p331
(dp332
g19
g20
((lp333
(I7
I3
tp334
a(I4
I7
tp335
a(I2
I6
tp336
a(I7
I10
tp337
a(I4
I8
tp338
a(I6
I9
tp339
ag330
a(I3
I9
tp340
a(I1
I6
tp341
a(I3
I7
tp342
a(I2
I5
tp343
a(I8
I5
tp344
a(I5
I8
tp345
a(I7
I9
tp346
a(I7
I1
tp347
a(I8
I10
tp348
a(I5
I0
tp349
a(I2
I3
tp350
a(I3
I5
tp351
a(I3
I4
tp352
a(I2
I4
tp353
atp354
Rp355
sg15
I10
sg31
g20
((lp356
(I8
I9
tp357
a(I5
I10
tp358
a(I6
I8
tp359
a(I7
I6
tp360
a(I3
I8
tp361
a(I0
I10
tp362
a(I9
I4
tp363
a(I0
I9
tp364
a(I5
I3
tp365
atp366
Rp367
sg13
((I3
I6
tp368
(I0
I8
tp369
(I2
I1
tp370
tp371
sg14
I11
sbs(iproblems
RoomID
p372
(dp373
g10
I5
sg11
(I5
I7
tp374
sg13
I4
sg14
I9
sg15
I12
sg16
I659184109953178577
sb(imulti_robot_problem
MultiRobotState
p375
(dp376
g19
g20
((lp377
(I7
I3
tp378
a(I4
I7
tp379
a(I8
I2
tp380
a(I6
I6
tp381
a(I4
I5
tp382
a(I7
I7
tp383
a(I11
I0
tp384
a(I7
I5
tp385
a(I9
I4
tp386
a(I2
I5
tp387
a(I0
I8
tp388
a(I10
I3
tp389
a(I7
I2
tp390
a(I4
I6
tp391
a(I6
I4
tp392
a(I4
I3
tp393
a(I3
I3
tp394
a(I6
I1
tp395
ag374
a(I6
I5
tp396
a(I3
I6
tp397
a(I8
I6
tp398
a(I3
I4
tp399
atp400
Rp401
sg15
I12
sg31
g20
((lp402
(I10
I8
tp403
a(I4
I1
tp404
a(I0
I2
tp405
a(I1
I6
tp406
a(I10
I4
tp407
atp408
Rp409
sg13
((I10
I0
tp410
(I7
I0
tp411
(I2
I6
tp412
(I8
I3
tp413
tp414
sg14
I9
sbssg167
S'mild_roomset'
p415
sbsg167
g169
sg170
(dp416
g192
((lp417
(F6.8700000000008004
I164
tp418
aF40.079999999999927
tp419
sg236
((lp420
(F0.23999999999978172
I6
tp421
aF40.06000000000131
tp422
sg281
((lp423
(F2.1099999999987631
I89
tp424
a(F4.7600000000002183
I52
tp425
aF40.0
tp426
sg328
((lp427
(F0.37999999999919964
I32
tp428
aF40.0
tp429
sg372
((lp430
(F1.25
I18
tp431
aF40.18999999999869
tp432
ssba(imeasure_core
ProblemSetSolution
p433
(dp434
g3
(imeasure_core
RoomSet
p435
(dp436
g6
(dp437
(iproblems
RoomID
p438
(dp439
g10
I13
sg11
(I3
I4
tp440
sg13
I6
sg14
I10
sg15
I12
sg16
I1689441204489037471
sb(imulti_robot_problem
MultiRobotState
p441
(dp442
g19
g20
((lp443
(I7
I3
tp444
a(I1
I3
tp445
a(I8
I7
tp446
a(I10
I6
tp447
a(I7
I7
tp448
a(I6
I2
tp449
a(I1
I6
tp450
a(I9
I4
tp451
a(I4
I2
tp452
a(I5
I1
tp453
a(I10
I3
tp454
a(I2
I7
tp455
a(I9
I3
tp456
a(I9
I5
tp457
a(I0
I5
tp458
a(I11
I5
tp459
a(I8
I5
tp460
a(I5
I2
tp461
a(I0
I2
tp462
a(I3
I8
tp463
a(I4
I3
tp464
a(I0
I4
tp465
ag440
a(I8
I6
tp466
a(I4
I1
tp467
a(I1
I1
tp468
a(I8
I4
tp469
atp470
Rp471
sg15
I12
sg31
g20
((lp472
(I8
I9
tp473
a(I9
I0
tp474
a(I0
I0
tp475
a(I10
I4
tp476
a(I4
I8
tp477
a(I8
I1
tp478
a(I11
I2
tp479
a(I5
I4
tp480
a(I7
I4
tp481
a(I11
I8
tp482
a(I2
I6
tp483
a(I2
I3
tp484
a(I1
I5
tp485
atp486
Rp487
sg13
((I8
I0
tp488
(I7
I6
tp489
(I8
I8
tp490
(I7
I0
tp491
(I2
I4
tp492
(I9
I9
tp493
tp494
sg14
I10
sbs(iproblems
RoomID
p495
(dp496
g10
I15
sg11
(I10
I7
tp497
sg13
I6
sg14
I11
sg15
I13
sg16
I6660334802794327005
sb(imulti_robot_problem
MultiRobotState
p498
(dp499
g19
g20
((lp500
(I4
I7
tp501
a(I11
I7
tp502
a(I5
I6
tp503
a(I2
I8
tp504
a(I9
I9
tp505
a(I9
I10
tp506
a(I10
I8
tp507
a(I9
I0
tp508
ag497
a(I5
I7
tp509
a(I8
I10
tp510
a(I3
I8
tp511
a(I1
I5
tp512
a(I1
I8
tp513
a(I1
I10
tp514
a(I10
I0
tp515
a(I2
I4
tp516
atp517
Rp518
sg15
I13
sg31
g20
((lp519
(I2
I7
tp520
a(I12
I2
tp521
a(I6
I9
tp522
a(I6
I10
tp523
a(I12
I1
tp524
a(I2
I9
tp525
a(I12
I0
tp526
a(I12
I9
tp527
a(I11
I2
tp528
a(I10
I6
tp529
a(I1
I7
tp530
a(I12
I5
tp531
a(I6
I3
tp532
a(I10
I3
tp533
a(I12
I8
tp534
atp535
Rp536
sg13
((I9
I5
tp537
(I5
I10
tp538
(I5
I3
tp539
(I5
I1
tp540
(I9
I3
tp541
(I7
I8
tp542
tp543
sg14
I11
sbs(iproblems
RoomID
p544
(dp545
g10
I12
sg11
(I8
I7
tp546
sg13
I7
sg14
I12
sg15
I12
sg16
I4640892725076559864
sb(imulti_robot_problem
MultiRobotState
p547
(dp548
g19
g20
((lp549
(I5
I9
tp550
a(I6
I9
tp551
a(I4
I8
tp552
a(I5
I6
tp553
a(I2
I8
tp554
a(I6
I0
tp555
a(I2
I10
tp556
a(I0
I9
tp557
a(I6
I2
tp558
ag546
a(I3
I7
tp559
a(I5
I1
tp560
a(I1
I0
tp561
a(I8
I5
tp562
a(I7
I9
tp563
a(I7
I4
tp564
a(I7
I0
tp565
a(I6
I8
tp566
a(I2
I9
tp567
a(I0
I6
tp568
a(I7
I6
tp569
a(I5
I7
tp570
a(I8
I10
tp571
a(I0
I2
tp572
a(I6
I3
tp573
a(I2
I0
tp574
a(I1
I8
tp575
a(I4
I5
tp576
a(I5
I2
tp577
a(I1
I1
tp578
a(I9
I7
tp579
atp580
Rp581
sg15
I12
sg31
g20
((lp582
(I2
I7
tp583
a(I6
I4
tp584
a(I11
I10
tp585
a(I4
I6
tp586
a(I11
I8
tp587
a(I11
I2
tp588
a(I9
I3
tp589
a(I3
I2
tp590
a(I8
I8
tp591
a(I0
I5
tp592
a(I10
I3
tp593
a(I5
I3
tp594
atp595
Rp596
sg13
((I8
I6
tp597
(I11
I5
tp598
(I10
I8
tp599
(I9
I0
tp600
(I9
I4
tp601
(I9
I2
tp602
(I4
I11
tp603
tp604
sg14
I12
sbs(iproblems
RoomID
p605
(dp606
g10
I11
sg11
(I7
I6
tp607
sg13
I7
sg14
I13
sg15
I12
sg16
I3119042104763040036
sb(imulti_robot_problem
MultiRobotState
p608
(dp609
g19
g20
((lp610
(I5
I4
tp611
a(I4
I5
tp612
a(I9
I8
tp613
a(I10
I6
tp614
a(I9
I0
tp615
a(I6
I0
tp616
a(I8
I9
tp617
a(I2
I12
tp618
a(I9
I6
tp619
a(I10
I5
tp620
a(I5
I10
tp621
a(I10
I7
tp622
ag607
a(I9
I9
tp623
a(I8
I6
tp624
a(I11
I6
tp625
a(I9
I7
tp626
atp627
Rp628
sg15
I12
sg31
g20
((lp629
(I1
I2
tp630
a(I4
I4
tp631
a(I5
I11
tp632
a(I5
I6
tp633
a(I3
I4
tp634
a(I8
I0
tp635
a(I8
I10
tp636
a(I0
I11
tp637
a(I2
I3
tp638
a(I7
I8
tp639
a(I4
I0
tp640
atp641
Rp642
sg13
((I7
I12
tp643
(I8
I2
tp644
(I4
I6
tp645
(I3
I9
tp646
(I9
I11
tp647
(I11
I9
tp648
(I9
I3
tp649
tp650
sg14
I13
sbs(iproblems
RoomID
p651
(dp652
g10
I11
sg11
(I6
I1
tp653
sg13
I7
sg14
I13
sg15
I10
sg16
I3914746131789064238
sb(imulti_robot_problem
MultiRobotState
p654
(dp655
g19
g20
((lp656
(I0
I0
tp657
a(I7
I0
tp658
a(I9
I1
tp659
a(I2
I9
tp660
a(I7
I1
tp661
a(I9
I2
tp662
ag653
a(I6
I3
tp663
a(I8
I1
tp664
a(I7
I2
tp665
a(I5
I1
tp666
a(I7
I8
tp667
a(I6
I5
tp668
a(I5
I5
tp669
atp670
Rp671
sg15
I10
sg31
g20
((lp672
(I4
I7
tp673
a(I3
I3
tp674
a(I4
I5
tp675
a(I4
I4
tp676
a(I1
I4
tp677
a(I0
I11
tp678
a(I0
I5
tp679
a(I0
I10
tp680
a(I8
I7
tp681
a(I9
I5
tp682
a(I5
I3
tp683
atp684
Rp685
sg13
((I1
I11
tp686
(I8
I4
tp687
(I2
I12
tp688
(I1
I9
tp689
(I2
I11
tp690
(I5
I4
tp691
(I5
I0
tp692
tp693
sg14
I13
sbssg167
S'heavy_roomset'
p694
sbsg167
g169
sg170
(dp695
g438
((lp696
F40.190000000000509
tp697
sg495
((lp698
(F16.079999999999927
I11
tp699
aF42.059999999999491
tp700
sg544
((lp701
F41.390000000001237
tp702
sg605
((lp703
F45.409999999999854
tp704
sg651
((lp705
F41.139999999999418
tp706
ssba(imeasure_core
ProblemSetSolution
p707
(dp708
g3
g4
sg167
S"AnytimeBeam-w20-gf(1.5, 'exp')_with_PowerHeuristic2"
p709
sg170
(dp710
g8
((lp711
(F0.3500000000003638
I8
tp712
aF40.200000000000728
tp713
sg48
((lp714
(F0.25999999999839929
I23
tp715
aF40.029999999998836
tp716
sg108
((lp717
(F1.3899999999994179
I6
tp718
aF40.010000000000218
tp719
sg78
((lp720
(F0.21000000000094587
I7
tp721
aF40.110000000000582
tp722
sg140
((lp723
(F0.47999999999956344
I11
tp724
aF40.109999999998763
tp725
ssba(imeasure_core
ProblemSetSolution
p726
(dp727
g3
g189
sg167
g709
sg170
(dp728
g192
((lp729
(F6.9200000000000728
I164
tp730
aF40.110000000000582
tp731
sg236
((lp732
(F0.23999999999978172
I6
tp733
aF40.180000000000291
tp734
sg281
((lp735
(F2.1100000000005821
I89
tp736
a(F4.8700000000008004
I52
tp737
aF40.209999999999127
tp738
sg328
((lp739
(F0.39000000000123691
I32
tp740
aF40.06000000000131
tp741
sg372
((lp742
(F1.2699999999986176
I18
tp743
aF40.269999999998618
tp744
ssba(imeasure_core
ProblemSetSolution
p745
(dp746
g3
g435
sg167
g709
sg170
(dp747
g438
((lp748
F40.400000000001455
tp749
sg495
((lp750
(F16.159999999999854
I11
tp751
aF42.229999999999563
tp752
sg544
((lp753
F41.420000000000073
tp754
sg605
((lp755
F45.6299999999992
tp756
sg651
((lp757
F40.930000000000291
tp758
ssba(imeasure_core
ProblemSetSolution
p759
(dp760
g3
g4
sg167
S"AnytimeBeam-w20-gf(1.7, 'exp')_with_PowerHeuristic2"
p761
sg170
(dp762
g8
((lp763
(F0.3500000000003638
I8
tp764
aF40.170000000000073
tp765
sg48
((lp766
(F0.26000000000021828
I23
tp767
aF40.069999999999709
tp768
sg108
((lp769
(F1.3899999999994179
I6
tp770
aF41.469999999999345
tp771
sg78
((lp772
(F0.21000000000094587
I7
tp773
aF40.200000000000728
tp774
sg140
((lp775
(F0.47999999999956344
I11
tp776
aF40.100000000000364
tp777
ssba(imeasure_core
ProblemSetSolution
p778
(dp779
g3
g189
sg167
g761
sg170
(dp780
g192
((lp781
(F6.9400000000005093
I164
tp782
aF40.110000000000582
tp783
sg236
((lp784
(F0.22999999999956344
I6
tp785
aF40.059999999999491
tp786
sg281
((lp787
(F2.1000000000003638
I89
tp788
a(F5.0799999999999272
I52
tp789
aF40.010000000000218
tp790
sg328
((lp791
(F0.38999999999941792
I32
tp792
aF40.069999999999709
tp793
sg372
((lp794
(F1.2700000000004366
I18
tp795
aF40.030000000000655
tp796
ssba(imeasure_core
ProblemSetSolution
p797
(dp798
g3
g435
sg167
g761
sg170
(dp799
g438
((lp800
F40.280000000000655
tp801
sg495
((lp802
(F16.190000000000509
I11
tp803
aF42.590000000000146
tp804
sg544
((lp805
F41.510000000000218
tp806
sg605
((lp807
F45.409999999999854
tp808
sg651
((lp809
F41.069999999999709
tp810
ssba(imeasure_core
ProblemSetSolution
p811
(dp812
g3
g4
sg167
S"AnytimeBeam-w20-gf(1.8999999999999999, 'exp')_with_PowerHeuristic2"
p813
sg170
(dp814
g8
((lp815
(F0.3500000000003638
I8
tp816
aF40.270000000000437
tp817
sg48
((lp818
(F0.26000000000021828
I23
tp819
aF40.059999999999491
tp820
sg108
((lp821
(F1.3999999999996362
I6
tp822
aF40.579999999999927
tp823
sg78
((lp824
(F0.21000000000094587
I7
tp825
aF40.0
tp826
sg140
((lp827
(F0.47999999999956344
I11
tp828
aF40.020000000000437
tp829
ssba(imeasure_core
ProblemSetSolution
p830
(dp831
g3
g189
sg167
g813
sg170
(dp832
g192
((lp833
(F6.930000000000291
I164
tp834
aF40.289999999999054
tp835
sg236
((lp836
(F0.23999999999978172
I6
tp837
aF40.079999999999927
tp838
sg281
((lp839
(F2.1100000000005821
I89
tp840
a(F5.180000000000291
I52
tp841
aF40.06000000000131
tp842
sg328
((lp843
(F0.38999999999941792
I32
tp844
aF40.079999999999927
tp845
sg372
((lp846
(F1.2699999999986176
I18
tp847
aF40.069999999999709
tp848
ssba(imeasure_core
ProblemSetSolution
p849
(dp850
g3
g435
sg167
g813
sg170
(dp851
g438
((lp852
F40.430000000000291
tp853
sg495
((lp854
(F16.170000000000073
I11
tp855
aF42.619999999998981
tp856
sg544
((lp857
F41.530000000000655
tp858
sg605
((lp859
F45.569999999999709
tp860
sg651
((lp861
F41.020000000000437
tp862
ssba(imeasure_core
ProblemSetSolution
p863
(dp864
g3
g4
sg167
S"AnytimeBeam-w20-gf(1.3, 'exp')_with_LinearHeuristic"
p865
sg170
(dp866
g8
((lp867
(F33.869999999998981
I223
tp868
aF40.029999999998836
tp869
sg48
((lp870
(F2.2000000000007276
I49
tp871
aF40.030000000000655
tp872
sg108
((lp873
(F1.6299999999991996
I6
tp874
aF40.340000000000146
tp875
sg78
((lp876
F40.100000000000364
tp877
sg140
((lp878
(F18.059999999999491
I165
tp879
aF40.019999999998618
tp880
ssba(imeasure_core
ProblemSetSolution
p881
(dp882
g3
g189
sg167
g865
sg170
(dp883
g192
((lp884
F40.180000000000291
tp885
sg236
((lp886
(F0.36000000000058208
I12
tp887
a(F30.31000000000131
I11
tp888
aF40.150000000001455
tp889
sg281
((lp890
F40.029999999998836
tp891
sg328
((lp892
(F6.6399999999994179
I92
tp893
aF40.0
tp894
sg372
((lp895
F40.149999999999636
tp896
ssba(imeasure_core
ProblemSetSolution
p897
(dp898
g3
g435
sg167
g865
sg170
(dp899
g438
((lp900
F40.079999999999927
tp901
sg495
((lp902
F41.340000000000146
tp903
sg544
((lp904
F40.150000000001455
tp905
sg605
((lp906
F43.009999999998399
tp907
sg651
((lp908
F41.8700000000008
tp909
ssba(imeasure_core
ProblemSetSolution
p910
(dp911
g3
g4
sg167
S"AnytimeBeam-w20-gf(1.5, 'exp')_with_LinearHeuristic"
p912
sg170
(dp913
g8
((lp914
(F33.829999999999927
I223
tp915
aF40.049999999999272
tp916
sg48
((lp917
(F2.180000000000291
I49
tp918
aF40.040000000000873
tp919
sg108
((lp920
(F1.6399999999994179
I6
tp921
aF40.479999999999563
tp922
sg78
((lp923
F40.260000000000218
tp924
sg140
((lp925
(F18.0
I165
tp926
aF40.069999999999709
tp927
ssba(imeasure_core
ProblemSetSolution
p928
(dp929
g3
g189
sg167
g912
sg170
(dp930
g192
((lp931
F40.059999999999491
tp932
sg236
((lp933
(F0.36000000000058208
I12
tp934
a(F26.710000000000946
I11
tp935
aF40.010000000000218
tp936
sg281
((lp937
F40.010000000000218
tp938
sg328
((lp939
(F6.6399999999994179
I92
tp940
aF40.049999999999272
tp941
sg372
((lp942
F40.06000000000131
tp943
ssba(imeasure_core
ProblemSetSolution
p944
(dp945
g3
g435
sg167
g912
sg170
(dp946
g438
((lp947
F40.100000000000364
tp948
sg495
((lp949
F41.229999999999563
tp950
sg544
((lp951
F40.119999999998981
tp952
sg605
((lp953
F42.920000000000073
tp954
sg651
((lp955
F41.840000000000146
tp956
ssba(imeasure_core
ProblemSetSolution
p957
(dp958
g3
g4
sg167
S"AnytimeBeam-w20-gf(1.7, 'exp')_with_LinearHeuristic"
p959
sg170
(dp960
g8
((lp961
(F33.81000000000131
I223
tp962
aF40.010000000000218
tp963
sg48
((lp964
(F2.2100000000009459
I49
tp965
aF40.0
tp966
sg108
((lp967
(F1.6400000000012369
I6
tp968
aF40.390000000001237
tp969
sg78
((lp970
F40.229999999999563
tp971
sg140
((lp972
(F17.920000000000073
I165
tp973
aF40.349999999998545
tp974
ssba(imeasure_core
ProblemSetSolution
p975
(dp976
g3
g189
sg167
g959
sg170
(dp977
g192
((lp978
F40.270000000000437
tp979
sg236
((lp980
(F0.36000000000058208
I12
tp981
a(F19.880000000001019
I11
tp982
a(F35.909999999999854
I10
tp983
aF40.010000000000218
tp984
sg281
((lp985
F40.030000000000655
tp986
sg328
((lp987
(F6.5799999999999272
I92
tp988
aF40.059999999999491
tp989
sg372
((lp990
F40.110000000000582
tp991
ssba(imeasure_core
ProblemSetSolution
p992
(dp993
g3
g435
sg167
g959
sg170
(dp994
g438
((lp995
F40.209999999999127
tp996
sg495
((lp997
F41.270000000000437
tp998
sg544
((lp999
F40.069999999999709
tp1000
sg605
((lp1001
F43.059999999999491
tp1002
sg651
((lp1003
F41.970000000001164
tp1004
ssba(imeasure_core
ProblemSetSolution
p1005
(dp1006
g3
g4
sg167
S"AnytimeBeam-w20-gf(1.8999999999999999, 'exp')_with_LinearHeuristic"
p1007
sg170
(dp1008
g8
((lp1009
(F33.959999999999127
I223
tp1010
aF40.139999999999418
tp1011
sg48
((lp1012
(F2.2000000000007276
I49
tp1013
aF40.049999999999272
tp1014
sg108
((lp1015
(F1.6400000000012369
I6
tp1016
aF40.660000000001673
tp1017
sg78
((lp1018
F40.0
tp1019
sg140
((lp1020
(F18.239999999999782
I165
tp1021
aF41.25
tp1022
ssba(imeasure_core
ProblemSetSolution
p1023
(dp1024
g3
g189
sg167
g1007
sg170
(dp1025
g192
((lp1026
F40.240000000001601
tp1027
sg236
((lp1028
(F0.35999999999876309
I12
tp1029
a(F18.949999999998909
I11
tp1030
a(F35.099999999998545
I10
tp1031
aF40.059999999999491
tp1032
sg281
((lp1033
F40.059999999999491
tp1034
sg328
((lp1035
(F6.6399999999994179
I92
tp1036
aF40.139999999999418
tp1037
sg372
((lp1038
F40.06000000000131
tp1039
ssba(imeasure_core
ProblemSetSolution
p1040
(dp1041
g3
g435
sg167
g1007
sg170
(dp1042
g438
((lp1043
F40.039999999999054
tp1044
sg495
((lp1045
F41.479999999999563
tp1046
sg544
((lp1047
F40.220000000001164
tp1048
sg605
((lp1049
F43.449999999998909
tp1050
sg651
((lp1051
F41.8700000000008
tp1052
ssba.