(lp0
(imeasure_core
ProblemSetSolution
p1
(dp2
S'roomset'
p3
(imeasure_core
RoomSet
p4
(dp5
S'rooms'
p6
(dp7
(iproblems
RoomID
p8
(dp9
S'dusts'
p10
I8
sS'obstacles'
p11
(I5
I7
tp12
sS'robots'
p13
I5
sS'height'
p14
I9
sS'width'
p15
I10
sS'seed'
p16
I5594871498841892311
sb(imulti_robot_problem
MultiRobotState
p17
(dp18
S'obstacle_locations'
p19
c__builtin__
frozenset
p20
((lp21
(I4
I7
tp22
a(I3
I6
tp23
a(I5
I1
tp24
a(I1
I0
tp25
ag12
a(I8
I3
tp26
a(I5
I8
tp27
atp28
Rp29
sg15
I10
sS'dirt_locations'
p30
g20
((lp31
(I0
I1
tp32
a(I9
I0
tp33
a(I8
I2
tp34
a(I6
I0
tp35
a(I1
I1
tp36
a(I1
I5
tp37
a(I9
I4
tp38
a(I2
I4
tp39
atp40
Rp41
sg13
((I7
I6
tp42
(I8
I4
tp43
(I5
I4
tp44
(I7
I2
tp45
(I7
I8
tp46
tp47
sg14
I9
sbs(iproblems
RoomID
p48
(dp49
g10
I6
sg11
(I4
I4
tp50
sg13
I5
sg14
I7
sg15
I8
sg16
I8833747186876682921
sb(imulti_robot_problem
MultiRobotState
p51
(dp52
g19
g20
((lp53
(I2
I2
tp54
ag50
a(I3
I4
tp55
a(I3
I3
tp56
a(I3
I5
tp57
atp58
Rp59
sg15
I8
sg30
g20
((lp60
(I6
I4
tp61
a(I5
I4
tp62
a(I1
I3
tp63
a(I5
I1
tp64
a(I0
I3
tp65
a(I5
I3
tp66
atp67
Rp68
sg13
((I2
I1
tp69
(I6
I1
tp70
(I3
I1
tp71
(I5
I0
tp72
(I7
I3
tp73
tp74
sg14
I7
sbs(iproblems
RoomID
p75
(dp76
g10
I5
sg11
(I6
I4
tp77
sg13
I2
sg14
I8
sg15
I10
sg16
I1662056218554549082
sb(imulti_robot_problem
MultiRobotState
p78
(dp79
g19
g20
((lp80
g77
a(I4
I6
tp81
a(I3
I6
tp82
a(I4
I4
tp83
a(I9
I6
tp84
a(I5
I5
tp85
atp86
Rp87
sg15
I10
sg30
g20
((lp88
(I4
I5
tp89
a(I8
I3
tp90
a(I8
I4
tp91
a(I7
I7
tp92
a(I3
I3
tp93
atp94
Rp95
sg13
((I9
I3
tp96
(I2
I0
tp97
tp98
sg14
I8
sbs(iproblems
RoomID
p99
(dp100
g10
I6
sg11
(I2
I3
tp101
sg13
I1
sg14
I8
sg15
I8
sg16
I1085536589165212248
sb(imulti_robot_problem
MultiRobotState
p102
(dp103
g19
g20
((lp104
(I1
I5
tp105
ag101
a(I1
I4
tp106
a(I1
I6
tp107
a(I0
I7
tp108
a(I4
I0
tp109
atp110
Rp111
sg15
I8
sg30
g20
((lp112
(I0
I1
tp113
a(I1
I2
tp114
a(I7
I3
tp115
a(I5
I1
tp116
a(I6
I0
tp117
a(I2
I1
tp118
atp119
Rp120
sg13
((I3
I2
tp121
tp122
sg14
I8
sbs(iproblems
RoomID
p123
(dp124
g10
I7
sg11
(I5
I2
tp125
sg13
I5
sg14
I8
sg15
I9
sg16
I365562409358139953
sb(imulti_robot_problem
MultiRobotState
p126
(dp127
g19
g20
((lp128
(I6
I4
tp129
a(I5
I5
tp130
a(I2
I1
tp131
a(I3
I7
tp132
a(I2
I5
tp133
ag125
a(I0
I2
tp134
a(I5
I3
tp135
atp136
Rp137
sg15
I9
sg30
g20
((lp138
(I2
I0
tp139
a(I1
I6
tp140
a(I8
I2
tp141
a(I4
I5
tp142
a(I8
I6
tp143
a(I5
I7
tp144
a(I3
I4
tp145
atp146
Rp147
sg13
((I4
I2
tp148
(I8
I3
tp149
(I6
I3
tp150
(I2
I4
tp151
(I6
I7
tp152
tp153
sg14
I8
sbssS'name'
p154
S'easy_roomset'
p155
sbsg154
S"AnytimeBeam-w20-gf(1.3, 'exp')_with_PowerHeuristic2"
p156
sS'solutions'
p157
(dp158
g8
((lp159
(F2.8000000000029104
I13
tp160
aF40.159999999999854
tp161
sg48
((lp162
(F0.53000000000247383
I4
tp163
aF40.580000000001746
tp164
sg75
((lp165
(F0.020000000000436557
I7
tp166
aF40.0
tp167
sg99
((lp168
(F0.060000000001309672
I32
tp169
a(F0.11999999999898137
I30
tp170
a(F1.0600000000013097
I28
tp171
a(F1.4199999999982538
I27
tp172
a(F1.8100000000013097
I25
tp173
a(F2.1399999999994179
I23
tp174
a(F2.8699999999989814
I21
tp175
a(F3.9599999999991269
I20
tp176
a(F5.3999999999978172
I19
tp177
a(F7.0999999999985448
I17
tp178
a(F8.7399999999979627
I15
tp179
aF40.0
tp180
sg123
((lp181
F40.18999999999869
tp182
ssba(imeasure_core
ProblemSetSolution
p183
(dp184
g3
(imeasure_core
RoomSet
p185
(dp186
g6
(dp187
(iproblems
RoomID
p188
(dp189
g10
I8
sg11
(I9
I3
tp190
sg13
I4
sg14
I11
sg15
I12
sg16
I5594871498841892311
sb(imulti_robot_problem
MultiRobotState
p191
(dp192
g19
g20
((lp193
(I5
I9
tp194
a(I6
I9
tp195
a(I11
I9
tp196
a(I9
I1
tp197
a(I4
I8
tp198
a(I8
I0
tp199
a(I6
I0
tp200
a(I9
I9
tp201
ag190
a(I9
I4
tp202
a(I4
I2
tp203
a(I3
I7
tp204
a(I5
I8
tp205
a(I7
I9
tp206
a(I10
I8
tp207
a(I9
I0
tp208
a(I7
I0
tp209
a(I6
I8
tp210
a(I9
I2
tp211
a(I5
I7
tp212
a(I8
I10
tp213
a(I2
I0
tp214
a(I5
I0
tp215
a(I0
I9
tp216
a(I10
I0
tp217
a(I10
I2
tp218
atp219
Rp220
sg15
I12
sg30
g20
((lp221
(I2
I6
tp222
a(I11
I5
tp223
a(I6
I1
tp224
a(I11
I1
tp225
a(I2
I1
tp226
a(I8
I8
tp227
a(I0
I2
tp228
a(I3
I5
tp229
atp230
Rp231
sg13
((I9
I7
tp232
(I10
I5
tp233
(I6
I5
tp234
(I8
I3
tp235
tp236
sg14
I11
sbs(iproblems
RoomID
p237
(dp238
g10
I6
sg11
(I9
I4
tp239
sg13
I4
sg14
I9
sg15
I10
sg16
I8833747186876682921
sb(imulti_robot_problem
MultiRobotState
p240
(dp241
g19
g20
((lp242
(I4
I7
tp243
a(I4
I8
tp244
a(I4
I5
tp245
a(I2
I1
tp246
a(I7
I5
tp247
a(I2
I3
tp248
ag239
a(I2
I5
tp249
a(I6
I5
tp250
a(I3
I5
tp251
a(I2
I7
tp252
a(I8
I3
tp253
a(I5
I5
tp254
a(I3
I4
tp255
a(I7
I4
tp256
a(I5
I6
tp257
a(I8
I8
tp258
a(I3
I6
tp259
a(I4
I1
tp260
a(I1
I1
tp261
atp262
Rp263
sg15
I10
sg30
g20
((lp264
(I3
I2
tp265
a(I6
I2
tp266
a(I7
I0
tp267
a(I1
I4
tp268
a(I0
I4
tp269
a(I0
I7
tp270
atp271
Rp272
sg13
((I3
I1
tp273
(I8
I1
tp274
(I3
I3
tp275
(I4
I2
tp276
tp277
sg14
I9
sbs(iproblems
RoomID
p278
(dp279
g10
I8
sg11
(I4
I6
tp280
sg13
I3
sg14
I9
sg15
I12
sg16
I4800841617172907184
sb(imulti_robot_problem
MultiRobotState
p281
(dp282
g19
g20
((lp283
(I5
I4
tp284
ag280
a(I8
I7
tp285
a(I6
I6
tp286
a(I4
I5
tp287
a(I9
I8
tp288
a(I9
I3
tp289
a(I6
I0
tp290
a(I2
I1
tp291
a(I10
I1
tp292
a(I4
I2
tp293
a(I8
I5
tp294
a(I7
I2
tp295
a(I5
I3
tp296
a(I8
I3
tp297
a(I3
I1
tp298
a(I3
I3
tp299
a(I11
I8
tp300
a(I7
I1
tp301
a(I11
I3
tp302
a(I6
I3
tp303
a(I0
I6
tp304
a(I4
I3
tp305
a(I8
I6
tp306
a(I8
I4
tp307
a(I9
I7
tp308
atp309
Rp310
sg15
I12
sg30
g20
((lp311
(I11
I4
tp312
a(I8
I2
tp313
a(I10
I7
tp314
a(I7
I6
tp315
a(I1
I4
tp316
a(I11
I0
tp317
a(I9
I2
tp318
a(I0
I2
tp319
atp320
Rp321
sg13
((I9
I1
tp322
(I0
I4
tp323
(I7
I4
tp324
tp325
sg14
I9
sbs(iproblems
RoomID
p326
(dp327
g10
I10
sg11
(I4
I8
tp328
sg13
I3
sg14
I11
sg15
I9
sg16
I6645345695289302126
sb(imulti_robot_problem
MultiRobotState
p329
(dp330
g19
g20
((lp331
(I5
I9
tp332
a(I3
I2
tp333
a(I3
I1
tp334
ag328
a(I4
I5
tp335
a(I1
I4
tp336
a(I4
I2
tp337
a(I3
I7
tp338
a(I4
I6
tp339
a(I3
I3
tp340
a(I4
I1
tp341
a(I6
I1
tp342
a(I4
I4
tp343
a(I2
I4
tp344
a(I3
I8
tp345
a(I1
I5
tp346
a(I4
I3
tp347
a(I3
I5
tp348
a(I3
I4
tp349
a(I1
I1
tp350
a(I8
I4
tp351
atp352
Rp353
sg15
I9
sg30
g20
((lp354
(I0
I1
tp355
a(I5
I4
tp356
a(I6
I7
tp357
a(I8
I2
tp358
a(I8
I7
tp359
a(I8
I8
tp360
a(I2
I3
tp361
a(I3
I6
tp362
a(I1
I0
tp363
a(I5
I5
tp364
atp365
Rp366
sg13
((I1
I6
tp367
(I0
I9
tp368
(I0
I5
tp369
tp370
sg14
I11
sbs(iproblems
RoomID
p371
(dp372
g10
I7
sg11
(I8
I4
tp373
sg13
I4
sg14
I10
sg15
I11
sg16
I365562409358139953
sb(imulti_robot_problem
MultiRobotState
p374
(dp375
g19
g20
((lp376
(I7
I3
tp377
a(I8
I7
tp378
a(I4
I8
tp379
a(I2
I8
tp380
a(I5
I9
tp381
a(I6
I2
tp382
a(I1
I6
tp383
a(I9
I4
tp384
a(I6
I4
tp385
a(I9
I6
tp386
a(I6
I5
tp387
a(I10
I8
tp388
a(I10
I5
tp389
a(I6
I7
tp390
a(I10
I7
tp391
a(I7
I6
tp392
a(I3
I1
tp393
a(I0
I5
tp394
a(I3
I8
tp395
a(I7
I5
tp396
a(I8
I6
tp397
ag373
a(I5
I2
tp398
a(I6
I1
tp399
a(I9
I7
tp400
atp401
Rp402
sg15
I11
sg30
g20
((lp403
(I5
I6
tp404
a(I6
I9
tp405
a(I1
I7
tp406
a(I4
I5
tp407
a(I10
I3
tp408
a(I0
I2
tp409
a(I2
I1
tp410
atp411
Rp412
sg13
((I10
I4
tp413
(I7
I4
tp414
(I3
I6
tp415
(I8
I9
tp416
tp417
sg14
I10
sbssg154
S'mild_roomset'
p418
sbsg154
g156
sg157
(dp419
g188
((lp420
(F1.1399999999994179
I32
tp421
aF40.009999999998399
tp422
sg237
((lp423
(F1.4599999999991269
I32
tp424
aF40.010000000002037
tp425
sg278
((lp426
(F0.15999999999985448
I17
tp427
aF40.039999999997235
tp428
sg326
((lp429
(F12.090000000000146
I127
tp430
aF40.0
tp431
sg371
((lp432
(F0.30000000000291038
I25
tp433
aF40.090000000000146
tp434
ssba(imeasure_core
ProblemSetSolution
p435
(dp436
g3
(imeasure_core
RoomSet
p437
(dp438
g6
(dp439
(iproblems
RoomID
p440
(dp441
g10
I13
sg11
(I9
I8
tp442
sg13
I7
sg14
I12
sg15
I13
sg16
I5594871498841892311
sb(imulti_robot_problem
MultiRobotState
p443
(dp444
g19
g20
((lp445
(I5
I9
tp446
a(I6
I9
tp447
a(I1
I3
tp448
a(I10
I4
tp449
a(I4
I8
tp450
ag442
a(I1
I4
tp451
a(I11
I3
tp452
a(I8
I6
tp453
a(I9
I6
tp454
a(I5
I5
tp455
a(I9
I5
tp456
a(I6
I7
tp457
a(I6
I8
tp458
a(I6
I10
tp459
a(I8
I10
tp460
a(I5
I0
tp461
a(I10
I0
tp462
a(I7
I9
tp463
a(I9
I7
tp464
atp465
Rp466
sg15
I13
sg30
g20
((lp467
(I2
I7
tp468
a(I10
I5
tp469
a(I11
I5
tp470
a(I6
I1
tp471
a(I8
I0
tp472
a(I2
I1
tp473
a(I2
I0
tp474
a(I0
I10
tp475
a(I7
I10
tp476
a(I12
I10
tp477
a(I5
I2
tp478
a(I0
I2
tp479
a(I3
I5
tp480
atp481
Rp482
sg13
((I10
I8
tp483
(I11
I6
tp484
(I7
I5
tp485
(I9
I3
tp486
(I9
I11
tp487
(I12
I1
tp488
(I9
I9
tp489
tp490
sg14
I12
sbs(iproblems
RoomID
p491
(dp492
g10
I11
sg11
(I8
I7
tp493
sg13
I7
sg14
I10
sg15
I11
sg16
I8833747186876682921
sb(imulti_robot_problem
MultiRobotState
p494
(dp495
g19
g20
((lp496
(I5
I7
tp497
a(I4
I8
tp498
a(I4
I5
tp499
a(I2
I1
tp500
ag493
a(I5
I1
tp501
a(I5
I5
tp502
a(I6
I7
tp503
a(I4
I6
tp504
a(I8
I1
tp505
a(I4
I4
tp506
a(I6
I3
tp507
a(I8
I8
tp508
a(I3
I3
tp509
a(I7
I8
tp510
a(I10
I2
tp511
atp512
Rp513
sg15
I11
sg30
g20
((lp514
(I10
I5
tp515
a(I7
I6
tp516
a(I4
I7
tp517
a(I1
I4
tp518
a(I9
I9
tp519
a(I3
I8
tp520
a(I0
I5
tp521
a(I8
I6
tp522
a(I2
I5
tp523
a(I0
I8
tp524
a(I7
I2
tp525
atp526
Rp527
sg13
((I3
I1
tp528
(I9
I1
tp529
(I5
I2
tp530
(I4
I3
tp531
(I8
I0
tp532
(I10
I4
tp533
(I8
I5
tp534
tp535
sg14
I10
sbs(iproblems
RoomID
p536
(dp537
g10
I11
sg11
(I4
I6
tp538
sg13
I5
sg14
I11
sg15
I11
sg16
I1085536589165212248
sb(imulti_robot_problem
MultiRobotState
p539
(dp540
g19
g20
((lp541
(I10
I5
tp542
a(I2
I6
tp543
ag538
a(I9
I3
tp544
a(I3
I2
tp545
a(I9
I9
tp546
a(I1
I8
tp547
a(I1
I9
tp548
a(I1
I7
tp549
a(I3
I7
tp550
a(I6
I9
tp551
a(I5
I8
tp552
a(I3
I3
tp553
atp554
Rp555
sg15
I11
sg30
g20
((lp556
(I0
I1
tp557
a(I4
I9
tp558
a(I10
I4
tp559
a(I10
I7
tp560
a(I6
I0
tp561
a(I0
I7
tp562
a(I2
I3
tp563
a(I1
I4
tp564
a(I2
I2
tp565
a(I10
I0
tp566
a(I0
I10
tp567
atp568
Rp569
sg13
((I5
I3
tp570
(I0
I2
tp571
(I3
I1
tp572
(I7
I1
tp573
(I9
I0
tp574
tp575
sg14
I11
sbs(iproblems
RoomID
p576
(dp577
g10
I12
sg11
(I0
I5
tp578
sg13
I7
sg14
I11
sg15
I12
sg16
I365562409358139953
sb(imulti_robot_problem
MultiRobotState
p579
(dp580
g19
g20
((lp581
(I1
I3
tp582
a(I6
I6
tp583
a(I0
I4
tp584
a(I7
I5
tp585
ag578
a(I8
I7
tp586
a(I4
I2
tp587
a(I2
I9
tp588
a(I10
I7
tp589
a(I7
I8
tp590
a(I7
I6
tp591
a(I3
I1
tp592
a(I4
I8
tp593
a(I3
I9
tp594
a(I2
I2
tp595
a(I8
I6
tp596
a(I5
I2
tp597
a(I11
I6
tp598
a(I8
I4
tp599
atp600
Rp601
sg15
I12
sg30
g20
((lp602
(I3
I2
tp603
a(I11
I9
tp604
a(I4
I9
tp605
a(I10
I4
tp606
a(I5
I7
tp607
a(I2
I1
tp608
a(I0
I6
tp609
a(I1
I6
tp610
a(I7
I10
tp611
a(I3
I7
tp612
a(I5
I10
tp613
a(I0
I2
tp614
atp615
Rp616
sg13
((I6
I3
tp617
(I10
I5
tp618
(I3
I6
tp619
(I8
I10
tp620
(I4
I6
tp621
(I11
I3
tp622
(I1
I8
tp623
tp624
sg14
I11
sbs(iproblems
RoomID
p625
(dp626
g10
I13
sg11
(I3
I8
tp627
sg13
I5
sg14
I10
sg15
I10
sg16
I5338040351619750409
sb(imulti_robot_problem
MultiRobotState
p628
(dp629
g19
g20
((lp630
(I4
I7
tp631
a(I2
I6
tp632
a(I9
I1
tp633
a(I2
I8
tp634
a(I6
I1
tp635
a(I1
I4
tp636
ag627
a(I1
I6
tp637
a(I4
I3
tp638
a(I1
I7
tp639
a(I2
I5
tp640
a(I9
I7
tp641
a(I2
I4
tp642
a(I6
I8
tp643
atp644
Rp645
sg15
I10
sg30
g20
((lp646
(I6
I9
tp647
a(I1
I3
tp648
a(I4
I9
tp649
a(I4
I6
tp650
a(I6
I6
tp651
a(I8
I3
tp652
a(I2
I1
tp653
a(I8
I9
tp654
a(I1
I8
tp655
a(I7
I5
tp656
a(I3
I6
tp657
a(I9
I6
tp658
a(I4
I0
tp659
atp660
Rp661
sg13
((I2
I0
tp662
(I3
I5
tp663
(I5
I0
tp664
(I5
I2
tp665
(I4
I5
tp666
tp667
sg14
I10
sbssg154
S'heavy_roomset'
p668
sbsg154
g156
sg157
(dp669
g440
((lp670
F40.700000000000728
tp671
sg491
((lp672
(F22.529999999998836
I19
tp673
aF40.849999999998545
tp674
sg536
((lp675
(F2.0400000000008731
I15
tp676
aF40.190000000002328
tp677
sg576
((lp678
F40.319999999999709
tp679
sg625
((lp680
(F2.4700000000011642
I16
tp681
aF40.159999999999854
tp682
ssba(imeasure_core
ProblemSetSolution
p683
(dp684
g3
g4
sg154
S"AnytimeBeam-w20-gf(1.5, 'exp')_with_PowerHeuristic2"
p685
sg157
(dp686
g8
((lp687
(F2.8000000000029104
I13
tp688
aF40.450000000000728
tp689
sg48
((lp690
(F0.54000000000087311
I4
tp691
aF40.440000000002328
tp692
sg75
((lp693
(F0.029999999998835847
I7
tp694
aF40.0
tp695
sg99
((lp696
(F0.059999999997671694
I32
tp697
a(F0.11999999999898137
I30
tp698
a(F0.6099999999969441
I28
tp699
a(F0.96999999999752617
I27
tp700
a(F1.3599999999969441
I25
tp701
a(F1.6999999999970896
I23
tp702
a(F2.4399999999986903
I21
tp703
a(F3.5399999999972351
I20
tp704
a(F4.9799999999995634
I19
tp705
a(F6.6799999999966531
I17
tp706
a(F8.3299999999981083
I15
tp707
aF40.0
tp708
sg123
((lp709
F40.069999999999709
tp710
ssba(imeasure_core
ProblemSetSolution
p711
(dp712
g3
g185
sg154
g685
sg157
(dp713
g188
((lp714
(F1.1399999999994179
I32
tp715
aF40.599999999998545
tp716
sg237
((lp717
(F1.4500000000007276
I32
tp718
aF40.070000000003347
tp719
sg278
((lp720
(F0.16999999999825377
I17
tp721
aF40.019999999996799
tp722
sg326
((lp723
(F8.5600000000013097
I127
tp724
aF40.040000000000873
tp725
sg371
((lp726
(F0.2999999999992724
I25
tp727
aF40.110000000000582
tp728
ssba(imeasure_core
ProblemSetSolution
p729
(dp730
g3
g437
sg154
g685
sg157
(dp731
g440
((lp732
F40.029999999998836
tp733
sg491
((lp734
(F22.590000000000146
I19
tp735
aF40.130000000001019
tp736
sg536
((lp737
(F2.0400000000008731
I15
tp738
aF40.760000000002037
tp739
sg576
((lp740
F40.19999999999709
tp741
sg625
((lp742
(F2.4799999999995634
I16
tp743
aF40.069999999999709
tp744
ssba(imeasure_core
ProblemSetSolution
p745
(dp746
g3
g4
sg154
S"AnytimeBeam-w20-gf(1.7, 'exp')_with_PowerHeuristic2"
p747
sg157
(dp748
g8
((lp749
(F2.7999999999992724
I13
tp750
aF40.680000000000291
tp751
sg48
((lp752
(F0.52000000000043656
I4
tp753
aF40.430000000000291
tp754
sg75
((lp755
(F0.029999999998835847
I7
tp756
aF40.0
tp757
sg99
((lp758
(F0.059999999997671694
I32
tp759
a(F0.12999999999738066
I30
tp760
a(F0.66999999999825377
I28
tp761
a(F1.0299999999988358
I27
tp762
a(F1.4199999999982538
I25
tp763
a(F1.75
I23
tp764
a(F2.4799999999995634
I21
tp765
a(F3.569999999999709
I20
tp766
a(F5.0200000000004366
I19
tp767
a(F6.7199999999975262
I17
tp768
a(F8.3600000000005821
I15
tp769
aF40.0
tp770
sg123
((lp771
F40.239999999997963
tp772
ssba(imeasure_core
ProblemSetSolution
p773
(dp774
g3
g185
sg154
g747
sg157
(dp775
g188
((lp776
(F1.1399999999994179
I32
tp777
aF40.260000000002037
tp778
sg237
((lp779
(F1.4499999999970896
I32
tp780
aF40.509999999998399
tp781
sg278
((lp782
(F0.17000000000189175
I17
tp783
aF40.049999999999272
tp784
sg326
((lp785
(F9.3400000000001455
I127
tp786
aF40.0
tp787
sg371
((lp788
(F0.30000000000291038
I25
tp789
aF40.110000000000582
tp790
ssba(imeasure_core
ProblemSetSolution
p791
(dp792
g3
g437
sg154
g747
sg157
(dp793
g440
((lp794
F40.56000000000131
tp795
sg491
((lp796
(F22.430000000000291
I19
tp797
aF40.069999999999709
tp798
sg536
((lp799
(F2.0400000000008731
I15
tp800
aF40.459999999999127
tp801
sg576
((lp802
F40.240000000001601
tp803
sg625
((lp804
(F2.4699999999975262
I16
tp805
aF40.119999999998981
tp806
ssba(imeasure_core
ProblemSetSolution
p807
(dp808
g3
g4
sg154
S"AnytimeBeam-w20-gf(1.8999999999999999, 'exp')_with_PowerHeuristic2"
p809
sg157
(dp810
g8
((lp811
(F2.8100000000013097
I13
tp812
aF40.180000000000291
tp813
sg48
((lp814
(F0.53000000000247383
I4
tp815
aF40.950000000000728
tp816
sg75
((lp817
(F0.029999999998835847
I7
tp818
aF40.020000000000437
tp819
sg99
((lp820
(F0.049999999999272404
I32
tp821
a(F0.11999999999898137
I30
tp822
a(F0.40000000000145519
I28
tp823
a(F0.75
I27
tp824
a(F1.1399999999994179
I25
tp825
a(F1.4700000000011642
I23
tp826
a(F2.1899999999986903
I21
tp827
a(F3.2700000000004366
I20
tp828
a(F4.7000000000007276
I19
tp829
a(F6.4000000000014552
I17
tp830
a(F8.0299999999988358
I15
tp831
aF40.0
tp832
sg123
((lp833
F40.200000000000728
tp834
ssba(imeasure_core
ProblemSetSolution
p835
(dp836
g3
g185
sg154
g809
sg157
(dp837
g188
((lp838
(F1.1399999999994179
I32
tp839
aF40.030000000002474
tp840
sg237
((lp841
(F1.4299999999966531
I32
tp842
aF40.019999999996799
tp843
sg278
((lp844
(F0.17000000000189175
I17
tp845
aF40.010000000002037
tp846
sg326
((lp847
(F9.8999999999978172
I127
tp848
a(F35.75
I102
tp849
aF40.009999999998399
tp850
sg371
((lp851
(F0.30000000000291038
I25
tp852
aF40.090000000000146
tp853
ssba(imeasure_core
ProblemSetSolution
p854
(dp855
g3
g437
sg154
g809
sg157
(dp856
g440
((lp857
F40.539999999997235
tp858
sg491
((lp859
(F22.490000000001601
I19
tp860
aF40.210000000002765
tp861
sg536
((lp862
(F2.0599999999976717
I15
tp863
aF40.049999999999272
tp864
sg576
((lp865
F40.069999999999709
tp866
sg625
((lp867
(F2.4900000000016007
I16
tp868
aF40.0
tp869
ssba(imeasure_core
ProblemSetSolution
p870
(dp871
g3
g4
sg154
S"AnytimeBeam-w20-gf(1.3, 'exp')_with_LinearHeuristic"
p872
sg157
(dp873
g8
((lp874
F40.779999999998836
tp875
sg48
((lp876
(F0.94000000000232831
I4
tp877
aF40.580000000001746
tp878
sg75
((lp879
(F0.040000000000873115
I7
tp880
aF40.0
tp881
sg99
((lp882
(F0.0099999999983992893
I15
tp883
aF40.0
tp884
sg123
((lp885
(F2.7700000000004366
I17
tp886
aF40.099999999998545
tp887
ssba(imeasure_core
ProblemSetSolution
p888
(dp889
g3
g185
sg154
g872
sg157
(dp890
g188
((lp891
F40.270000000000437
tp892
sg237
((lp893
(F35.81000000000131
I229
tp894
aF40.090000000000146
tp895
sg278
((lp896
F40.069999999999709
tp897
sg326
((lp898
F40.100000000002183
tp899
sg371
((lp900
F40.139999999999418
tp901
ssba(imeasure_core
ProblemSetSolution
p902
(dp903
g3
g437
sg154
g872
sg157
(dp904
g440
((lp905
F43.509999999998399
tp906
sg491
((lp907
F40.06000000000131
tp908
sg536
((lp909
F40.040000000000873
tp910
sg576
((lp911
F40.209999999999127
tp912
sg625
((lp913
F40.270000000000437
tp914
ssba(imeasure_core
ProblemSetSolution
p915
(dp916
g3
g4
sg154
S"AnytimeBeam-w20-gf(1.5, 'exp')_with_LinearHeuristic"
p917
sg157
(dp918
g8
((lp919
F40.759999999998399
tp920
sg48
((lp921
(F0.93000000000029104
I4
tp922
aF40.240000000001601
tp923
sg75
((lp924
(F0.029999999998835847
I7
tp925
aF40.0
tp926
sg99
((lp927
(F0.0099999999983992893
I15
tp928
aF40.0
tp929
sg123
((lp930
(F2.7599999999983993
I17
tp931
aF40.419999999998254
tp932
ssba(imeasure_core
ProblemSetSolution
p933
(dp934
g3
g185
sg154
g917
sg157
(dp935
g188
((lp936
F40.369999999998981
tp937
sg237
((lp938
(F35.940000000002328
I229
tp939
aF40.030000000002474
tp940
sg278
((lp941
F40.110000000000582
tp942
sg326
((lp943
F40.229999999999563
tp944
sg371
((lp945
F40.18999999999869
tp946
ssba(imeasure_core
ProblemSetSolution
p947
(dp948
g3
g437
sg154
g917
sg157
(dp949
g440
((lp950
F43.569999999999709
tp951
sg491
((lp952
F40.010000000002037
tp953
sg536
((lp954
F40.159999999999854
tp955
sg576
((lp956
F41.430000000000291
tp957
sg625
((lp958
F40.18999999999869
tp959
ssba(imeasure_core
ProblemSetSolution
p960
(dp961
g3
g4
sg154
S"AnytimeBeam-w20-gf(1.7, 'exp')_with_LinearHeuristic"
p962
sg157
(dp963
g8
((lp964
F40.779999999998836
tp965
sg48
((lp966
(F0.92000000000189175
I4
tp967
aF40.340000000000146
tp968
sg75
((lp969
(F0.030000000002473826
I7
tp970
aF40.0
tp971
sg99
((lp972
(F0.010000000002037268
I15
tp973
aF40.0
tp974
sg123
((lp975
(F2.7299999999995634
I17
tp976
aF40.540000000000873
tp977
ssba(imeasure_core
ProblemSetSolution
p978
(dp979
g3
g185
sg154
g962
sg157
(dp980
g188
((lp981
F40.25
tp982
sg237
((lp983
(F35.880000000001019
I229
tp984
aF40.05000000000291
tp985
sg278
((lp986
F40.099999999998545
tp987
sg326
((lp988
F40.0
tp989
sg371
((lp990
F40.209999999999127
tp991
ssba(imeasure_core
ProblemSetSolution
p992
(dp993
g3
g437
sg154
g962
sg157
(dp994
g440
((lp995
F43.409999999999854
tp996
sg491
((lp997
F40.129999999997381
tp998
sg536
((lp999
F40.05000000000291
tp1000
sg576
((lp1001
F40.169999999998254
tp1002
sg625
((lp1003
F40.029999999998836
tp1004
ssba(imeasure_core
ProblemSetSolution
p1005
(dp1006
g3
g4
sg154
S"AnytimeBeam-w20-gf(1.8999999999999999, 'exp')_with_LinearHeuristic"
p1007
sg157
(dp1008
g8
((lp1009
F40.850000000002183
tp1010
sg48
((lp1011
(F0.93000000000029104
I4
tp1012
aF40.569999999999709
tp1013
sg75
((lp1014
(F0.029999999998835847
I7
tp1015
aF40.009999999998399
tp1016
sg99
((lp1017
(F0.010000000002037268
I15
tp1018
aF40.0
tp1019
sg123
((lp1020
(F2.7600000000020373
I17
tp1021
aF40.0
tp1022
ssba(imeasure_core
ProblemSetSolution
p1023
(dp1024
g3
g185
sg154
g1007
sg157
(dp1025
g188
((lp1026
F40.090000000000146
tp1027
sg237
((lp1028
(F35.670000000001892
I229
tp1029
aF40.030000000002474
tp1030
sg278
((lp1031
F40.049999999999272
tp1032
sg326
((lp1033
F40.079999999998108
tp1034
sg371
((lp1035
F40.110000000000582
tp1036
ssba(imeasure_core
ProblemSetSolution
p1037
(dp1038
g3
g437
sg154
g1007
sg157
(dp1039
g440
((lp1040
F43.5
tp1041
sg491
((lp1042
F40.06000000000131
tp1043
sg536
((lp1044
F40.020000000000437
tp1045
sg576
((lp1046
F40.259999999998399
tp1047
sg625
((lp1048
F40.130000000001019
tp1049
ssba.