(lp0
(imeasure_core
ProblemSetSolution
p1
(dp2
S'roomset'
p3
(imeasure_core
RoomSet
p4
(dp5
S'rooms'
p6
(dp7
(iproblems
RoomID
p8
(dp9
S'dusts'
p10
I6
sS'obstacles'
p11
(I0
I4
tp12
sS'robots'
p13
I1
sS'height'
p14
I9
sS'width'
p15
I9
sS'seed'
p16
I1164115433906158532
sb(imulti_robot_problem
MultiRobotState
p17
(dp18
S'obstacle_locations'
p19
c__builtin__
frozenset
p20
((lp21
(I0
I1
tp22
a(I1
I2
tp23
a(I1
I3
tp24
a(I1
I4
tp25
ag12
atp26
Rp27
sg15
I9
sS'dirt_locations'
p28
g20
((lp29
(I6
I4
tp30
a(I1
I8
tp31
a(I1
I6
tp32
a(I1
I0
tp33
a(I8
I5
tp34
a(I3
I5
tp35
atp36
Rp37
sg13
((I4
I5
tp38
tp39
sg14
I9
sbs(iproblems
RoomID
p40
(dp41
g10
I8
sg11
(I6
I5
tp42
sg13
I5
sg14
I8
sg15
I7
sg16
I2175216119781798972
sb(imulti_robot_problem
MultiRobotState
p43
(dp44
g19
g20
((lp45
(I1
I2
tp46
a(I2
I6
tp47
a(I6
I7
tp48
a(I6
I6
tp49
a(I5
I7
tp50
a(I2
I3
tp51
a(I0
I4
tp52
a(I1
I0
tp53
ag42
atp54
Rp55
sg15
I7
sg28
g20
((lp56
(I5
I4
tp57
a(I5
I5
tp58
a(I4
I4
tp59
a(I0
I6
tp60
a(I0
I5
tp61
a(I1
I7
tp62
a(I4
I2
tp63
a(I0
I2
tp64
atp65
Rp66
sg13
((I1
I3
tp67
(I6
I4
tp68
(I3
I7
tp69
(I6
I0
tp70
(I2
I1
tp71
tp72
sg14
I8
sbs(iproblems
RoomID
p73
(dp74
g10
I5
sg11
(I0
I4
tp75
sg13
I5
sg14
I7
sg15
I7
sg16
I8711387064946514083
sb(imulti_robot_problem
MultiRobotState
p76
(dp77
g19
g20
((lp78
(I0
I1
tp79
a(I2
I2
tp80
a(I0
I2
tp81
a(I1
I5
tp82
ag75
a(I0
I3
tp83
a(I2
I4
tp84
a(I6
I5
tp85
atp86
Rp87
sg15
I7
sg28
g20
((lp88
(I5
I6
tp89
a(I6
I4
tp90
a(I3
I2
tp91
a(I6
I1
tp92
a(I6
I6
tp93
atp94
Rp95
sg13
((I1
I1
tp96
(I6
I0
tp97
(I5
I0
tp98
(I1
I3
tp99
(I4
I5
tp100
tp101
sg14
I7
sbs(iproblems
RoomID
p102
(dp103
g10
I9
sg11
(I2
I2
tp104
sg13
I2
sg14
I9
sg15
I7
sg16
I3872982626502034966
sb(imulti_robot_problem
MultiRobotState
p105
(dp106
g19
g20
((lp107
(I4
I1
tp108
a(I2
I6
tp109
a(I3
I1
tp110
a(I5
I0
tp111
ag104
atp112
Rp113
sg15
I7
sg28
g20
((lp114
(I4
I7
tp115
a(I2
I8
tp116
a(I4
I4
tp117
a(I3
I2
tp118
a(I2
I1
tp119
a(I1
I4
tp120
a(I4
I2
tp121
a(I0
I3
tp122
a(I5
I8
tp123
atp124
Rp125
sg13
((I1
I6
tp126
(I1
I7
tp127
tp128
sg14
I9
sbs(iproblems
RoomID
p129
(dp130
g10
I9
sg11
(I6
I3
tp131
sg13
I4
sg14
I9
sg15
I10
sg16
I7002664860023442459
sb(imulti_robot_problem
MultiRobotState
p132
(dp133
g19
g20
((lp134
(I7
I4
tp135
a(I7
I3
tp136
ag131
a(I6
I5
tp137
a(I9
I7
tp138
atp139
Rp140
sg15
I10
sg28
g20
((lp141
(I0
I0
tp142
a(I6
I8
tp143
a(I2
I8
tp144
a(I5
I7
tp145
a(I2
I6
tp146
a(I4
I2
tp147
a(I5
I1
tp148
a(I8
I6
tp149
a(I8
I4
tp150
atp151
Rp152
sg13
((I7
I5
tp153
(I7
I6
tp154
(I1
I7
tp155
(I1
I6
tp156
tp157
sg14
I9
sbssS'name'
p158
S'easy_roomset'
p159
sbsg158
S"AnytimeBeam-w20-gf(1.3, 'exp')_with_PowerHeuristic2"
p160
sS'solutions'
p161
(dp162
g8
((lp163
(F0.13999999999941792
I42
tp164
a(F3.9299999999993815
I40
tp165
a(F5.2799999999997453
I34
tp166
a(F6.4699999999993452
I30
tp167
a(F7.5299999999997453
I28
tp168
a(F13.319999999999709
I26
tp169
aF40.0
tp170
sg40
((lp171
(F2.0299999999997453
I5
tp172
aF40.1899999999996
tp173
sg73
((lp174
(F0.82999999999992724
I4
tp175
aF40.190000000000509
tp176
sg102
((lp177
(F1.6099999999996726
I66
tp178
a(F14.279999999999745
I65
tp179
a(F24.529999999999745
I64
tp180
aF40.029999999999745
tp181
sg129
((lp182
(F1.4499999999998181
I11
tp183
aF40.289999999999964
tp184
ssba(imeasure_core
ProblemSetSolution
p185
(dp186
g3
(imeasure_core
RoomSet
p187
(dp188
g6
(dp189
(iproblems
RoomID
p190
(dp191
g10
I6
sg11
(I5
I5
tp192
sg13
I3
sg14
I11
sg15
I11
sg16
I1164115433906158532
sb(imulti_robot_problem
MultiRobotState
p193
(dp194
g19
g20
((lp195
(I5
I4
tp196
a(I1
I3
tp197
a(I4
I3
tp198
a(I4
I8
tp199
a(I3
I0
tp200
a(I8
I0
tp201
a(I3
I2
tp202
a(I0
I7
tp203
a(I2
I1
tp204
a(I3
I9
tp205
a(I0
I5
tp206
a(I1
I4
tp207
a(I3
I7
tp208
a(I2
I5
tp209
a(I5
I3
tp210
a(I8
I3
tp211
a(I3
I1
tp212
ag192
a(I2
I0
tp213
a(I3
I10
tp214
a(I6
I10
tp215
a(I0
I6
tp216
a(I1
I8
tp217
a(I3
I6
tp218
a(I4
I5
tp219
a(I0
I2
tp220
atp221
Rp222
sg15
I11
sg28
g20
((lp223
(I7
I5
tp224
a(I8
I8
tp225
a(I4
I9
tp226
a(I4
I6
tp227
a(I10
I6
tp228
a(I8
I2
tp229
atp230
Rp231
sg13
((I5
I7
tp232
(I2
I10
tp233
(I2
I8
tp234
tp235
sg14
I11
sbs(iproblems
RoomID
p236
(dp237
g10
I8
sg11
(I5
I4
tp238
sg13
I4
sg14
I10
sg15
I9
sg16
I2175216119781798972
sb(imulti_robot_problem
MultiRobotState
p239
(dp240
g19
g20
((lp241
(I6
I6
tp242
a(I2
I8
tp243
a(I0
I7
tp244
a(I6
I2
tp245
a(I1
I6
tp246
a(I2
I5
tp247
a(I5
I5
tp248
a(I8
I1
tp249
a(I7
I6
tp250
a(I6
I3
tp251
a(I2
I2
tp252
a(I8
I6
tp253
a(I6
I4
tp254
ag238
a(I8
I2
tp255
a(I7
I1
tp256
a(I1
I4
tp257
a(I7
I5
tp258
a(I8
I7
tp259
a(I1
I0
tp260
a(I6
I5
tp261
a(I3
I3
tp262
a(I8
I3
tp263
a(I7
I0
tp264
a(I6
I8
tp265
a(I3
I4
tp266
a(I7
I4
tp267
a(I0
I6
tp268
a(I1
I8
tp269
a(I8
I8
tp270
a(I4
I3
tp271
a(I1
I7
tp272
a(I7
I8
tp273
a(I0
I2
tp274
atp275
Rp276
sg15
I9
sg28
g20
((lp277
(I6
I7
tp278
a(I2
I9
tp279
a(I5
I6
tp280
a(I3
I1
tp281
a(I8
I9
tp282
a(I0
I5
tp283
a(I0
I3
tp284
a(I5
I2
tp285
atp286
Rp287
sg13
((I2
I4
tp288
(I8
I5
tp289
(I4
I9
tp290
(I7
I7
tp291
tp292
sg14
I10
sbs(iproblems
RoomID
p293
(dp294
g10
I9
sg11
(I5
I3
tp295
sg13
I3
sg14
I9
sg15
I9
sg16
I1885758236351349410
sb(imulti_robot_problem
MultiRobotState
p296
(dp297
g19
g20
((lp298
(I4
I7
tp299
a(I5
I7
tp300
a(I7
I1
tp301
a(I5
I6
tp302
a(I5
I4
tp303
a(I0
I0
tp304
a(I2
I3
tp305
a(I4
I2
tp306
a(I8
I5
tp307
ag295
a(I6
I7
tp308
a(I5
I5
tp309
a(I4
I4
tp310
a(I1
I5
tp311
a(I4
I3
tp312
a(I0
I4
tp313
a(I1
I6
tp314
a(I3
I4
tp315
a(I2
I4
tp316
atp317
Rp318
sg15
I9
sg28
g20
((lp319
(I7
I3
tp320
a(I7
I0
tp321
a(I3
I0
tp322
a(I6
I1
tp323
a(I1
I4
tp324
a(I0
I5
tp325
a(I5
I0
tp326
a(I1
I1
tp327
a(I8
I4
tp328
atp329
Rp330
sg13
((I0
I1
tp331
(I2
I6
tp332
(I0
I2
tp333
tp334
sg14
I9
sbs(iproblems
RoomID
p335
(dp336
g10
I9
sg11
(I4
I3
tp337
sg13
I4
sg14
I11
sg15
I12
sg16
I7002664860023442459
sb(imulti_robot_problem
MultiRobotState
p338
(dp339
g19
g20
((lp340
(I11
I8
tp341
a(I0
I0
tp342
a(I10
I4
tp343
a(I3
I0
tp344
a(I9
I3
tp345
a(I6
I0
tp346
a(I2
I1
tp347
a(I8
I9
tp348
a(I9
I4
tp349
a(I5
I1
tp350
a(I8
I5
tp351
a(I5
I8
tp352
a(I8
I2
tp353
a(I7
I0
tp354
a(I8
I7
tp355
a(I3
I3
tp356
a(I1
I5
tp357
a(I8
I1
tp358
a(I9
I6
tp359
a(I3
I1
tp360
a(I9
I2
tp361
a(I2
I0
tp362
ag337
a(I2
I2
tp363
a(I9
I5
tp364
a(I5
I2
tp365
a(I2
I4
tp366
atp367
Rp368
sg15
I12
sg28
g20
((lp369
(I0
I1
tp370
a(I10
I8
tp371
a(I2
I8
tp372
a(I3
I10
tp373
a(I10
I6
tp374
a(I6
I2
tp375
a(I3
I7
tp376
a(I7
I8
tp377
a(I7
I9
tp378
atp379
Rp380
sg13
((I9
I7
tp381
(I8
I8
tp382
(I2
I9
tp383
(I1
I7
tp384
tp385
sg14
I11
sbs(iproblems
RoomID
p386
(dp387
g10
I9
sg11
(I3
I0
tp388
sg13
I3
sg14
I9
sg15
I12
sg16
I4912931603392816429
sb(imulti_robot_problem
MultiRobotState
p389
(dp390
g19
g20
((lp391
(I6
I4
tp392
a(I4
I7
tp393
a(I0
I0
tp394
a(I4
I8
tp395
a(I5
I6
tp396
a(I2
I8
tp397
a(I0
I7
tp398
a(I4
I6
tp399
a(I7
I5
tp400
a(I4
I2
tp401
a(I0
I3
tp402
a(I7
I2
tp403
a(I6
I8
tp404
a(I10
I5
tp405
a(I5
I5
tp406
a(I7
I8
tp407
a(I4
I4
tp408
a(I5
I2
tp409
ag388
a(I8
I8
tp410
a(I5
I8
tp411
a(I1
I7
tp412
a(I4
I5
tp413
a(I8
I6
tp414
a(I5
I3
tp415
a(I4
I1
tp416
atp417
Rp418
sg15
I12
sg28
g20
((lp419
(I7
I3
tp420
a(I7
I1
tp421
a(I8
I1
tp422
a(I6
I3
tp423
a(I11
I8
tp424
a(I8
I7
tp425
a(I3
I7
tp426
a(I2
I5
tp427
a(I3
I4
tp428
atp429
Rp430
sg13
((I9
I1
tp431
(I1
I6
tp432
(I8
I4
tp433
tp434
sg14
I9
sbssg158
S'mild_roomset'
p435
sbsg158
g160
sg161
(dp436
g190
((lp437
(F38.449999999999818
I136
tp438
aF40.019999999999527
tp439
sg236
((lp440
F40.090000000000146
tp441
sg293
((lp442
(F2.8000000000001819
I65
tp443
aF40.020000000000437
tp444
sg335
((lp445
(F1.6299999999991996
I11
tp446
aF40.299999999999272
tp447
sg386
((lp448
(F0.19000000000050932
I11
tp449
aF40.070000000000618
tp450
ssba(imeasure_core
ProblemSetSolution
p451
(dp452
g3
(imeasure_core
RoomSet
p453
(dp454
g6
(dp455
(iproblems
RoomID
p456
(dp457
g10
I11
sg11
(I7
I9
tp458
sg13
I5
sg14
I12
sg15
I12
sg16
I1164115433906158532
sb(imulti_robot_problem
MultiRobotState
p459
(dp460
g19
g20
((lp461
(I4
I7
tp462
a(I1
I3
tp463
a(I5
I6
tp464
a(I9
I3
tp465
a(I1
I4
tp466
a(I0
I5
tp467
a(I7
I11
tp468
a(I1
I0
tp469
a(I5
I8
tp470
a(I3
I3
tp471
a(I3
I1
tp472
a(I6
I7
tp473
a(I6
I8
tp474
a(I7
I8
tp475
a(I5
I7
tp476
ag458
a(I4
I1
tp477
a(I0
I2
tp478
atp479
Rp480
sg15
I12
sg28
g20
((lp481
(I4
I10
tp482
a(I9
I0
tp483
a(I2
I6
tp484
a(I5
I10
tp485
a(I9
I2
tp486
a(I0
I7
tp487
a(I8
I9
tp488
a(I1
I6
tp489
a(I8
I5
tp490
a(I4
I11
tp491
a(I5
I3
tp492
atp493
Rp494
sg13
((I1
I2
tp495
(I2
I11
tp496
(I2
I0
tp497
(I2
I9
tp498
(I11
I7
tp499
tp500
sg14
I12
sbs(iproblems
RoomID
p501
(dp502
g10
I10
sg11
(I0
I7
tp503
sg13
I7
sg14
I10
sg15
I10
sg16
I8711387064946514083
sb(imulti_robot_problem
MultiRobotState
p504
(dp505
g19
g20
((lp506
(I5
I9
tp507
a(I6
I9
tp508
a(I2
I6
tp509
a(I2
I9
tp510
a(I0
I6
tp511
ag503
a(I1
I5
tp512
a(I8
I8
tp513
a(I0
I5
tp514
a(I4
I3
tp515
a(I0
I4
tp516
a(I0
I3
tp517
a(I9
I7
tp518
a(I0
I2
tp519
a(I7
I9
tp520
atp521
Rp522
sg15
I10
sg28
g20
((lp523
(I9
I0
tp524
a(I3
I3
tp525
a(I7
I1
tp526
a(I8
I1
tp527
a(I9
I8
tp528
a(I4
I4
tp529
a(I9
I9
tp530
a(I3
I6
tp531
a(I1
I7
tp532
a(I8
I6
tp533
atp534
Rp535
sg13
((I1
I1
tp536
(I8
I0
tp537
(I7
I0
tp538
(I2
I5
tp539
(I6
I7
tp540
(I8
I9
tp541
(I5
I8
tp542
tp543
sg14
I10
sbs(iproblems
RoomID
p544
(dp545
g10
I10
sg11
(I6
I7
tp546
sg13
I6
sg14
I10
sg15
I13
sg16
I8999366892653588108
sb(imulti_robot_problem
MultiRobotState
p547
(dp548
g19
g20
((lp549
(I5
I4
tp550
ag546
a(I5
I5
tp551
a(I5
I6
tp552
a(I7
I6
tp553
a(I4
I2
tp554
a(I2
I3
tp555
a(I8
I6
tp556
a(I12
I1
tp557
a(I5
I3
tp558
a(I6
I5
tp559
a(I3
I3
tp560
atp561
Rp562
sg15
I13
sg28
g20
((lp563
(I6
I9
tp564
a(I7
I0
tp565
a(I5
I7
tp566
a(I12
I6
tp567
a(I2
I1
tp568
a(I0
I5
tp569
a(I10
I1
tp570
a(I0
I3
tp571
a(I7
I9
tp572
a(I3
I5
tp573
atp574
Rp575
sg13
((I12
I0
tp576
(I6
I1
tp577
(I2
I2
tp578
(I6
I4
tp579
(I4
I6
tp580
(I7
I1
tp581
tp582
sg14
I10
sbs(iproblems
RoomID
p583
(dp584
g10
I14
sg11
(I0
I3
tp585
sg13
I7
sg14
I12
sg15
I13
sg16
I7002664860023442459
sb(imulti_robot_problem
MultiRobotState
p586
(dp587
g19
g20
((lp588
(I1
I2
tp589
a(I11
I4
tp590
a(I9
I8
tp591
a(I10
I6
tp592
ag585
a(I0
I8
tp593
a(I10
I3
tp594
a(I0
I1
tp595
a(I10
I5
tp596
a(I10
I7
tp597
a(I7
I8
tp598
a(I9
I9
tp599
a(I0
I9
tp600
a(I9
I5
tp601
a(I3
I4
tp602
a(I0
I2
tp603
a(I11
I6
tp604
a(I9
I7
tp605
atp606
Rp607
sg15
I13
sg28
g20
((lp608
(I6
I4
tp609
a(I11
I9
tp610
a(I4
I6
tp611
a(I2
I9
tp612
a(I5
I9
tp613
a(I12
I2
tp614
a(I3
I1
tp615
a(I3
I11
tp616
a(I10
I10
tp617
a(I7
I4
tp618
a(I0
I0
tp619
a(I11
I5
tp620
a(I2
I5
tp621
a(I12
I9
tp622
atp623
Rp624
sg13
((I2
I10
tp625
(I1
I8
tp626
(I8
I10
tp627
(I7
I2
tp628
(I3
I8
tp629
(I6
I2
tp630
(I7
I9
tp631
tp632
sg14
I12
sbs(iproblems
RoomID
p633
(dp634
g10
I14
sg11
(I5
I10
tp635
sg13
I5
sg14
I12
sg15
I10
sg16
I3872982626502034966
sb(imulti_robot_problem
MultiRobotState
p636
(dp637
g19
g20
((lp638
(I5
I9
tp639
a(I6
I9
tp640
a(I5
I7
tp641
a(I3
I2
tp642
ag635
a(I4
I10
tp643
a(I4
I8
tp644
a(I3
I11
tp645
a(I2
I1
tp646
a(I6
I2
tp647
a(I1
I4
tp648
a(I8
I7
tp649
a(I6
I8
tp650
a(I6
I7
tp651
a(I5
I8
tp652
a(I3
I5
tp653
a(I4
I9
tp654
a(I4
I6
tp655
a(I8
I1
tp656
a(I7
I1
tp657
a(I3
I8
tp658
a(I4
I3
tp659
a(I5
I2
tp660
a(I1
I1
tp661
atp662
Rp663
sg15
I10
sg28
g20
((lp664
(I5
I3
tp665
a(I3
I1
tp666
a(I8
I11
tp667
a(I9
I3
tp668
a(I0
I2
tp669
a(I6
I3
tp670
a(I3
I9
tp671
a(I2
I3
tp672
a(I9
I5
tp673
a(I7
I11
tp674
a(I0
I8
tp675
a(I3
I10
tp676
a(I7
I2
tp677
a(I9
I7
tp678
atp679
Rp680
sg13
((I1
I8
tp681
(I2
I9
tp682
(I1
I9
tp683
(I1
I5
tp684
(I6
I5
tp685
tp686
sg14
I12
sbssg158
S'heavy_roomset'
p687
sbsg158
g160
sg161
(dp688
g456
((lp689
(F9.7299999999995634
I20
tp690
aF40.579999999999927
tp691
sg501
((lp692
F47.279999999999745
tp693
sg544
((lp694
F40.479999999999563
tp695
sg583
((lp696
F63.520000000000437
tp697
sg633
((lp698
F40.279999999999745
tp699
ssba(imeasure_core
ProblemSetSolution
p700
(dp701
g3
g4
sg158
S"AnytimeBeam-w20-gf(1.5, 'exp')_with_PowerHeuristic2"
p702
sg161
(dp703
g8
((lp704
(F0.14000000000032742
I42
tp705
a(F3.1700000000000728
I40
tp706
a(F4.5299999999997453
I34
tp707
a(F5.7100000000000364
I30
tp708
a(F6.7700000000004366
I28
tp709
a(F12.539999999999964
I26
tp710
aF40.0
tp711
sg40
((lp712
(F2.0299999999997453
I5
tp713
aF40.430000000000291
tp714
sg73
((lp715
(F0.82999999999992724
I4
tp716
aF40.210000000000036
tp717
sg102
((lp718
(F1.5799999999999272
I66
tp719
a(F14.170000000000073
I65
tp720
a(F24.539999999999964
I64
tp721
aF40.069999999999709
tp722
sg129
((lp723
(F1.4499999999998181
I11
tp724
aF40.109999999999673
tp725
ssba(imeasure_core
ProblemSetSolution
p726
(dp727
g3
g187
sg158
g702
sg161
(dp728
g190
((lp729
(F38.460000000000036
I136
tp730
aF40.010000000000218
tp731
sg236
((lp732
F40.090000000000146
tp733
sg293
((lp734
(F2.8299999999999272
I65
tp735
aF40.039999999999964
tp736
sg335
((lp737
(F1.6499999999996362
I11
tp738
aF40.220000000000255
tp739
sg386
((lp740
(F0.18999999999959982
I11
tp741
aF40.039999999999964
tp742
ssba(imeasure_core
ProblemSetSolution
p743
(dp744
g3
g453
sg158
g702
sg161
(dp745
g456
((lp746
(F9.6999999999998181
I20
tp747
aF40.419999999999163
tp748
sg501
((lp749
F47.390000000000327
tp750
sg544
((lp751
F40.489999999999782
tp752
sg583
((lp753
F63.180000000000291
tp754
sg633
((lp755
F40.180000000000291
tp756
ssba(imeasure_core
ProblemSetSolution
p757
(dp758
g3
g4
sg158
S"AnytimeBeam-w20-gf(1.7, 'exp')_with_PowerHeuristic2"
p759
sg161
(dp760
g8
((lp761
(F0.1499999999996362
I42
tp762
a(F2.4600000000000364
I40
tp763
a(F3.8099999999994907
I34
tp764
a(F4.9899999999997817
I30
tp765
a(F6.0299999999997453
I28
tp766
a(F11.809999999999491
I26
tp767
aF40.0
tp768
sg40
((lp769
(F2.0299999999997453
I5
tp770
aF40.549999999999272
tp771
sg73
((lp772
(F0.83000000000083674
I4
tp773
aF40.0600000000004
tp774
sg102
((lp775
(F1.5900000000001455
I66
tp776
a(F14.159999999999854
I65
tp777
a(F24.409999999999854
I64
tp778
aF40.029999999999745
tp779
sg129
((lp780
(F1.4600000000000364
I11
tp781
aF40.280000000000655
tp782
ssba(imeasure_core
ProblemSetSolution
p783
(dp784
g3
g187
sg158
g759
sg161
(dp785
g190
((lp786
(F38.3799999999992
I136
tp787
aF40.009999999999309
tp788
sg236
((lp789
F40.170000000000073
tp790
sg293
((lp791
(F2.8200000000006185
I65
tp792
aF40.0600000000004
tp793
sg335
((lp794
(F1.6499999999996362
I11
tp795
aF40.039999999999964
tp796
sg386
((lp797
(F0.18000000000029104
I11
tp798
aF40.039999999999964
tp799
ssba(imeasure_core
ProblemSetSolution
p800
(dp801
g3
g453
sg158
g759
sg161
(dp802
g456
((lp803
(F9.7100000000000364
I20
tp804
aF40.710000000000036
tp805
sg501
((lp806
F47.399999999999636
tp807
sg544
((lp808
F40.409999999999854
tp809
sg583
((lp810
F63.420000000000073
tp811
sg633
((lp812
F40.190000000000509
tp813
ssba(imeasure_core
ProblemSetSolution
p814
(dp815
g3
g4
sg158
S"AnytimeBeam-w20-gf(1.8999999999999999, 'exp')_with_PowerHeuristic2"
p816
sg161
(dp817
g8
((lp818
(F0.1499999999996362
I42
tp819
a(F2.819999999999709
I40
tp820
a(F4.1799999999993815
I34
tp821
a(F5.3699999999998909
I30
tp822
a(F6.4399999999995998
I28
tp823
a(F12.220000000000255
I26
tp824
aF40.0
tp825
sg40
((lp826
(F2.0199999999995271
I5
tp827
aF40.4399999999996
tp828
sg73
((lp829
(F0.82999999999992724
I4
tp830
aF40.25
tp831
sg102
((lp832
(F1.5900000000001455
I66
tp833
a(F14.180000000000291
I65
tp834
a(F24.489999999999782
I64
tp835
aF40.030000000000655
tp836
sg129
((lp837
(F1.4699999999993452
I11
tp838
aF40.279999999999745
tp839
ssba(imeasure_core
ProblemSetSolution
p840
(dp841
g3
g187
sg158
g816
sg161
(dp842
g190
((lp843
(F38.510000000000218
I136
tp844
aF40.0
tp845
sg236
((lp846
F40.099999999999454
tp847
sg293
((lp848
(F2.8100000000004002
I65
tp849
aF40.110000000000582
tp850
sg335
((lp851
(F1.6700000000000728
I11
tp852
aF40.079999999999927
tp853
sg386
((lp854
(F0.18000000000029104
I11
tp855
aF40.010000000000218
tp856
ssba(imeasure_core
ProblemSetSolution
p857
(dp858
g3
g453
sg158
g816
sg161
(dp859
g456
((lp860
(F9.75
I20
tp861
aF40.400000000000546
tp862
sg501
((lp863
F47.149999999999636
tp864
sg544
((lp865
F40.489999999999782
tp866
sg583
((lp867
F63.140000000000327
tp868
sg633
((lp869
F40.220000000000255
tp870
ssba(imeasure_core
ProblemSetSolution
p871
(dp872
g3
g4
sg158
S"AnytimeBeam-w20-gf(1.3, 'exp')_with_LinearHeuristic"
p873
sg161
(dp874
g8
((lp875
(F0.019999999999527063
I28
tp876
aF40.0
tp877
sg40
((lp878
F40.059999999999491
tp879
sg73
((lp880
(F3.8900000000003274
I10
tp881
aF40.520000000000437
tp882
sg102
((lp883
(F1.3099999999994907
I25
tp884
a(F19.739999999999782
I24
tp885
a(F32.729999999999563
I23
tp886
aF40.0
tp887
sg129
((lp888
(F11.119999999999891
I27
tp889
aF40.970000000000255
tp890
ssba(imeasure_core
ProblemSetSolution
p891
(dp892
g3
g187
sg158
g873
sg161
(dp893
g190
((lp894
F40.25
tp895
sg236
((lp896
F40.119999999999891
tp897
sg293
((lp898
(F37.960000000000036
I226
tp899
aF40.009999999999309
tp900
sg335
((lp901
F40.330000000000837
tp902
sg386
((lp903
F40.259999999999309
tp904
ssba(imeasure_core
ProblemSetSolution
p905
(dp906
g3
g453
sg158
g873
sg161
(dp907
g456
((lp908
F40.150000000000546
tp909
sg501
((lp910
F51.389999999999418
tp911
sg544
((lp912
F41.480000000000473
tp913
sg583
((lp914
F53.760000000000218
tp915
sg633
((lp916
F40.239999999999782
tp917
ssba(imeasure_core
ProblemSetSolution
p918
(dp919
g3
g4
sg158
S"AnytimeBeam-w20-gf(1.5, 'exp')_with_LinearHeuristic"
p920
sg161
(dp921
g8
((lp922
(F0.019999999999527063
I28
tp923
a(F26.809999999999491
I26
tp924
aF39.999999999999091
tp925
sg40
((lp926
F40.380000000001019
tp927
sg73
((lp928
(F4.3099999999994907
I10
tp929
aF40.279999999998836
tp930
sg102
((lp931
(F1.2900000000008731
I25
tp932
a(F19.910000000001673
I24
tp933
a(F32.840000000000146
I23
tp934
aF40.020000000000437
tp935
sg129
((lp936
(F12.460000000000946
I27
tp937
aF40.520000000000437
tp938
ssba(imeasure_core
ProblemSetSolution
p939
(dp940
g3
g187
sg158
g920
sg161
(dp941
g190
((lp942
F40.25
tp943
sg236
((lp944
F40.489999999999782
tp945
sg293
((lp946
(F37.670000000000073
I226
tp947
aF40.040000000000873
tp948
sg335
((lp949
F40.319999999999709
tp950
sg386
((lp951
F40.180000000000291
tp952
ssba(imeasure_core
ProblemSetSolution
p953
(dp954
g3
g453
sg158
g920
sg161
(dp955
g456
((lp956
F40.449999999998909
tp957
sg501
((lp958
F51.420000000000073
tp959
sg544
((lp960
F41.649999999999636
tp961
sg583
((lp962
F54.210000000000946
tp963
sg633
((lp964
F40.309999999999491
tp965
ssba(imeasure_core
ProblemSetSolution
p966
(dp967
g3
g4
sg158
S"AnytimeBeam-w20-gf(1.7, 'exp')_with_LinearHeuristic"
p968
sg161
(dp969
g8
((lp970
(F0.020000000000436557
I28
tp971
a(F28.1200000000008
I26
tp972
aF40.0
tp973
sg40
((lp974
F40.170000000000073
tp975
sg73
((lp976
(F4.6900000000005093
I10
tp977
aF40.909999999999854
tp978
sg102
((lp979
(F1.2999999999992724
I25
tp980
a(F20.219999999999345
I24
tp981
a(F33.219999999999345
I23
tp982
aF40.020000000000437
tp983
sg129
((lp984
(F12.5
I27
tp985
aF40.559999999999491
tp986
ssba(imeasure_core
ProblemSetSolution
p987
(dp988
g3
g187
sg158
g968
sg161
(dp989
g190
((lp990
F40.059999999999491
tp991
sg236
((lp992
F40.409999999999854
tp993
sg293
((lp994
(F37.980000000001382
I226
tp995
aF40.030000000000655
tp996
sg335
((lp997
F40.319999999999709
tp998
sg386
((lp999
F40.420000000000073
tp1000
ssba(imeasure_core
ProblemSetSolution
p1001
(dp1002
g3
g453
sg158
g968
sg161
(dp1003
g456
((lp1004
F40.510000000000218
tp1005
sg501
((lp1006
F51.510000000000218
tp1007
sg544
((lp1008
F41.719999999999345
tp1009
sg583
((lp1010
F53.649999999999636
tp1011
sg633
((lp1012
F40.239999999999782
tp1013
ssba(imeasure_core
ProblemSetSolution
p1014
(dp1015
g3
g4
sg158
S"AnytimeBeam-w20-gf(1.8999999999999999, 'exp')_with_LinearHeuristic"
p1016
sg161
(dp1017
g8
((lp1018
(F0.030000000000654836
I28
tp1019
a(F24.06000000000131
I26
tp1020
aF40.0
tp1021
sg40
((lp1022
F40.400000000001455
tp1023
sg73
((lp1024
(F4.7999999999992724
I10
tp1025
aF41.149999999999636
tp1026
sg102
((lp1027
(F1.2999999999992724
I25
tp1028
a(F20.329999999999927
I24
tp1029
a(F33.409999999999854
I23
tp1030
aF40.0
tp1031
sg129
((lp1032
(F12.440000000000509
I27
tp1033
aF40.520000000000437
tp1034
ssba(imeasure_core
ProblemSetSolution
p1035
(dp1036
g3
g187
sg158
g1016
sg161
(dp1037
g190
((lp1038
F40.300000000001091
tp1039
sg236
((lp1040
F40.510000000000218
tp1041
sg293
((lp1042
(F37.799999999999272
I226
tp1043
aF40.029999999998836
tp1044
sg335
((lp1045
F40.210000000000946
tp1046
sg386
((lp1047
F40.039999999999054
tp1048
ssba(imeasure_core
ProblemSetSolution
p1049
(dp1050
g3
g453
sg158
g1016
sg161
(dp1051
g456
((lp1052
F40.06000000000131
tp1053
sg501
((lp1054
F51.619999999998981
tp1055
sg544
((lp1056
F41.6200000000008
tp1057
sg583
((lp1058
F53.829999999999927
tp1059
sg633
((lp1060
F40.170000000000073
tp1061
ssba.