(lp0
(imeasure_core
ProblemSetSolution
p1
(dp2
S'roomset'
p3
(imeasure_core
RoomSet
p4
(dp5
S'rooms'
p6
(dp7
(iproblems
RoomID
p8
(dp9
S'width'
p10
I10
sS'dusts'
p11
I6
sS'seed'
p12
I2405875930906139466
sS'obstacles'
p13
(I5
I1
tp14
sS'robots'
p15
I4
sS'height'
p16
I9
sb(imulti_robot_problem
MultiRobotState
p17
(dp18
S'obstacle_locations'
p19
c__builtin__
frozenset
p20
((lp21
(I7
I0
tp22
a(I7
I1
tp23
a(I6
I1
tp24
a(I6
I0
tp25
ag14
a(I7
I2
tp26
atp27
Rp28
sg10
I10
sS'dirt_locations'
p29
g20
((lp30
(I7
I3
tp31
a(I6
I4
tp32
a(I5
I6
tp33
a(I0
I7
tp34
a(I2
I1
tp35
a(I5
I2
tp36
atp37
Rp38
sg15
((I7
I6
tp39
(I3
I3
tp40
(I8
I6
tp41
(I0
I2
tp42
tp43
sg16
I9
sbs(iproblems
RoomID
p44
(dp45
g10
I7
sg11
I6
sg12
I8744744311366254845
sg13
(I6
I7
tp46
sg15
I4
sg16
I10
sb(imulti_robot_problem
MultiRobotState
p47
(dp48
g19
g20
((lp49
g46
a(I4
I6
tp50
a(I5
I7
tp51
a(I0
I6
tp52
a(I1
I9
tp53
a(I3
I7
tp54
atp55
Rp56
sg10
I7
sg29
g20
((lp57
(I2
I7
tp58
a(I0
I1
tp59
a(I5
I4
tp60
a(I6
I0
tp61
a(I5
I8
tp62
a(I5
I3
tp63
atp64
Rp65
sg15
((I0
I8
tp66
(I4
I2
tp67
(I3
I0
tp68
(I1
I4
tp69
tp70
sg16
I10
sbs(iproblems
RoomID
p71
(dp72
g10
I7
sg11
I8
sg12
I7325839828077136048
sg13
(I5
I3
tp73
sg15
I3
sg16
I7
sb(imulti_robot_problem
MultiRobotState
p74
(dp75
g19
g20
((lp76
(I6
I4
tp77
a(I5
I4
tp78
a(I5
I5
tp79
a(I6
I6
tp80
a(I3
I1
tp81
a(I6
I0
tp82
a(I2
I0
tp83
a(I0
I4
tp84
ag73
atp85
Rp86
sg10
I7
sg29
g20
((lp87
(I1
I5
tp88
a(I3
I0
tp89
a(I1
I1
tp90
a(I0
I6
tp91
a(I4
I3
tp92
a(I2
I2
tp93
a(I2
I4
tp94
a(I3
I5
tp95
atp96
Rp97
sg15
((I1
I0
tp98
(I3
I3
tp99
(I6
I2
tp100
tp101
sg16
I7
sbs(iproblems
RoomID
p102
(dp103
g10
I7
sg11
I6
sg12
I3537054308274871603
sg13
(I4
I6
tp104
sg15
I1
sg16
I8
sb(imulti_robot_problem
MultiRobotState
p105
(dp106
g19
g20
((lp107
(I4
I7
tp108
ag104
a(I4
I5
tp109
a(I6
I0
tp110
a(I2
I5
tp111
a(I2
I4
tp112
a(I3
I5
tp113
atp114
Rp115
sg10
I7
sg29
g20
((lp116
(I5
I6
tp117
a(I0
I6
tp118
a(I6
I2
tp119
a(I4
I1
tp120
a(I1
I1
tp121
a(I5
I3
tp122
atp123
Rp124
sg15
((I0
I3
tp125
tp126
sg16
I8
sbs(iproblems
RoomID
p127
(dp128
g10
I8
sg11
I10
sg12
I8655808914197340073
sg13
(I4
I7
tp129
sg15
I5
sg16
I10
sb(imulti_robot_problem
MultiRobotState
p130
(dp131
g19
g20
((lp132
(I2
I7
tp133
ag129
a(I4
I8
tp134
a(I6
I3
tp135
a(I7
I5
tp136
a(I3
I7
tp137
a(I1
I0
tp138
a(I5
I3
tp139
atp140
Rp141
sg10
I8
sg29
g20
((lp142
(I7
I3
tp143
a(I5
I4
tp144
a(I7
I0
tp145
a(I5
I7
tp146
a(I1
I5
tp147
a(I1
I9
tp148
a(I3
I6
tp149
a(I1
I7
tp150
a(I3
I4
tp151
a(I5
I8
tp152
atp153
Rp154
sg15
((I3
I8
tp155
(I7
I9
tp156
(I6
I1
tp157
(I2
I3
tp158
(I5
I5
tp159
tp160
sg16
I10
sbssS'name'
p161
S'easy_roomset'
p162
sbsS'name'
p163
S"AnytimeBeam-w20-gf(1.3, 'exp')_with_PowerHeuristic2"
p164
sS'solutions'
p165
(dp166
g8
((lp167
(F0.47999999999956344
I10
tp168
aF40.079999999999927
tp169
sg44
((lp170
(F0.32999999999992724
I14
tp171
aF40.029999999998836
tp172
sg71
((lp173
(F5.0900000000001455
I144
tp174
aF40.030000000000655
tp175
sg102
((lp176
(F0.1000000000003638
I49
tp177
a(F0.52000000000043656
I47
tp178
a(F0.72999999999956344
I45
tp179
a(F0.98999999999978172
I43
tp180
a(F1.8099999999994907
I41
tp181
a(F2.2399999999997817
I40
tp182
a(F3.2399999999997817
I39
tp183
a(F4.1399999999994179
I38
tp184
a(F5.3899999999994179
I37
tp185
a(F6.5599999999994907
I35
tp186
a(F8.2000000000007276
I33
tp187
a(F10.520000000000437
I31
tp188
a(F12.5
I29
tp189
a(F14.069999999999709
I27
tp190
a(F16.069999999999709
I25
tp191
a(F20.409999999999854
I24
tp192
a(F24.319999999999709
I22
tp193
a(F27.6299999999992
I20
tp194
aF40.0
tp195
sg127
((lp196
(F1.5200000000004366
I9
tp197
aF40.1200000000008
tp198
ssba(imeasure_core
ProblemSetSolution
p199
(dp200
g3
(imeasure_core
RoomSet
p201
(dp202
S'rooms'
p203
(dp204
(iproblems
RoomID
p205
(dp206
S'width'
p207
I12
sS'dusts'
p208
I6
sS'seed'
p209
I2405875930906139466
sS'obstacles'
p210
(I1
I8
tp211
sS'robots'
p212
I4
sS'height'
p213
I11
sb(imulti_robot_problem
MultiRobotState
p214
(dp215
S'obstacle_locations'
p216
g20
((lp217
(I6
I6
tp218
a(I2
I8
tp219
a(I8
I0
tp220
a(I6
I2
tp221
a(I3
I7
tp222
a(I5
I5
tp223
a(I2
I9
tp224
a(I11
I5
tp225
a(I8
I1
tp226
a(I6
I3
tp227
a(I3
I6
tp228
a(I5
I3
tp229
a(I6
I4
tp230
a(I8
I2
tp231
a(I9
I10
tp232
a(I7
I5
tp233
a(I2
I3
tp234
a(I6
I5
tp235
a(I3
I3
tp236
a(I7
I0
tp237
a(I4
I6
tp238
a(I6
I1
tp239
a(I3
I1
tp240
a(I2
I0
tp241
ag211
a(I4
I3
tp242
a(I3
I4
tp243
atp244
Rp245
sg207
I12
sS'dirt_locations'
p246
g20
((lp247
(I7
I1
tp248
a(I9
I3
tp249
a(I7
I7
tp250
a(I2
I1
tp251
a(I9
I4
tp252
a(I0
I9
tp253
atp254
Rp255
sg212
((I9
I7
tp256
(I4
I4
tp257
(I10
I8
tp258
(I0
I2
tp259
tp260
sg213
I11
sbs(iproblems
RoomID
p261
(dp262
g207
I10
sg208
I10
sg209
I8655808914197340073
sg210
(I0
I5
tp263
sg212
I4
sg213
I12
sb(imulti_robot_problem
MultiRobotState
p264
(dp265
g216
g20
((lp266
(I5
I9
tp267
a(I4
I4
tp268
a(I6
I6
tp269
a(I8
I0
tp270
a(I0
I7
tp271
a(I1
I11
tp272
a(I5
I8
tp273
a(I6
I7
tp274
a(I5
I5
tp275
a(I4
I8
tp276
a(I6
I3
tp277
a(I5
I4
tp278
a(I1
I4
tp279
a(I7
I5
tp280
a(I2
I3
tp281
a(I9
I6
tp282
a(I6
I5
tp283
a(I4
I6
tp284
a(I6
I8
tp285
a(I7
I8
tp286
a(I5
I7
tp287
a(I3
I8
tp288
a(I2
I0
tp289
ag263
a(I3
I4
tp290
atp291
Rp292
sg207
I10
sg246
g20
((lp293
(I8
I3
tp294
a(I9
I0
tp295
a(I2
I9
tp296
a(I2
I11
tp297
a(I6
I9
tp298
a(I7
I7
tp299
a(I1
I7
tp300
a(I8
I6
tp301
a(I3
I5
tp302
a(I8
I4
tp303
atp304
Rp305
sg212
((I4
I9
tp306
(I8
I11
tp307
(I7
I1
tp308
(I3
I3
tp309
tp310
sg213
I12
sbs(iproblems
RoomID
p311
(dp312
g207
I12
sg208
I6
sg209
I7193062864237573168
sg210
(I3
I3
tp313
sg212
I4
sg213
I12
sb(imulti_robot_problem
MultiRobotState
p314
(dp315
g216
g20
((lp316
(I1
I3
tp317
a(I6
I6
tp318
a(I0
I7
tp319
a(I1
I6
tp320
a(I2
I5
tp321
a(I10
I3
tp322
a(I3
I1
tp323
ag313
a(I9
I7
tp324
a(I6
I4
tp325
a(I5
I4
tp326
a(I7
I1
tp327
a(I9
I3
tp328
a(I2
I3
tp329
a(I0
I8
tp330
a(I8
I3
tp331
a(I5
I7
tp332
a(I11
I3
tp333
a(I7
I4
tp334
a(I0
I9
tp335
a(I3
I4
tp336
a(I2
I4
tp337
a(I8
I4
tp338
atp339
Rp340
sg207
I12
sg246
g20
((lp341
(I2
I6
tp342
a(I6
I8
tp343
a(I0
I6
tp344
a(I4
I4
tp345
a(I7
I7
tp346
a(I2
I0
tp347
atp348
Rp349
sg212
((I11
I9
tp350
(I11
I2
tp351
(I4
I11
tp352
(I3
I6
tp353
tp354
sg213
I12
sbs(iproblems
RoomID
p355
(dp356
g207
I12
sg208
I10
sg209
I2796939073032698495
sg210
(I11
I0
tp357
sg212
I4
sg213
I9
sb(imulti_robot_problem
MultiRobotState
p358
(dp359
g216
g20
((lp360
(I7
I3
tp361
a(I3
I1
tp362
a(I9
I1
tp363
a(I6
I6
tp364
a(I8
I0
tp365
a(I7
I7
tp366
a(I7
I2
tp367
a(I3
I3
tp368
a(I8
I1
tp369
a(I4
I8
tp370
a(I6
I3
tp371
a(I5
I8
tp372
a(I3
I6
tp373
a(I6
I4
tp374
a(I5
I4
tp375
a(I2
I6
tp376
a(I7
I1
tp377
a(I4
I5
tp378
ag357
a(I2
I3
tp379
a(I10
I1
tp380
a(I1
I0
tp381
a(I6
I5
tp382
a(I5
I3
tp383
a(I8
I3
tp384
a(I7
I0
tp385
a(I6
I8
tp386
a(I9
I2
tp387
a(I6
I1
tp388
a(I5
I7
tp389
a(I8
I8
tp390
a(I4
I3
tp391
a(I5
I2
tp392
a(I10
I2
tp393
atp394
Rp395
sg207
I12
sg246
g20
((lp396
(I1
I2
tp397
a(I11
I7
tp398
a(I3
I2
tp399
a(I2
I8
tp400
a(I9
I3
tp401
a(I1
I6
tp402
a(I5
I0
tp403
a(I0
I3
tp404
a(I0
I8
tp405
a(I4
I1
tp406
atp407
Rp408
sg212
((I10
I8
tp409
(I4
I6
tp410
(I11
I4
tp411
(I7
I8
tp412
tp413
sg213
I9
sbs(iproblems
RoomID
p414
(dp415
g207
I11
sg208
I10
sg209
I4278205817407065157
sg210
(I3
I6
tp416
sg212
I4
sg213
I12
sb(imulti_robot_problem
MultiRobotState
p417
(dp418
g216
g20
((lp419
(I0
I1
tp420
a(I2
I7
tp421
a(I4
I7
tp422
a(I4
I6
tp423
a(I6
I7
tp424
a(I3
I3
tp425
a(I5
I6
tp426
a(I2
I8
tp427
a(I1
I10
tp428
a(I4
I4
tp429
a(I3
I8
tp430
a(I10
I7
tp431
a(I1
I9
tp432
a(I0
I10
tp433
ag416
a(I7
I11
tp434
a(I4
I5
tp435
a(I3
I7
tp436
a(I3
I5
tp437
a(I5
I3
tp438
atp439
Rp440
sg207
I11
sg246
g20
((lp441
(I1
I2
tp442
a(I8
I1
tp443
a(I6
I1
tp444
a(I5
I7
tp445
a(I3
I0
tp446
a(I8
I9
tp447
a(I9
I2
tp448
a(I9
I4
tp449
a(I0
I2
tp450
a(I4
I0
tp451
atp452
Rp453
sg212
((I6
I10
tp454
(I5
I11
tp455
(I2
I0
tp456
(I9
I1
tp457
tp458
sg213
I12
sbssS'name'
p459
S'mild_roomset'
p460
sbsg163
g164
sg165
(dp461
g205
((lp462
(F3.3799999999991996
I60
tp463
a(F7.5
I55
tp464
a(F19.359999999998763
I32
tp465
aF40.0
tp466
sg261
((lp467
(F11.989999999999782
I171
tp468
aF40.0
tp469
sg311
((lp470
(F0.92000000000007276
I25
tp471
aF40.089999999998327
tp472
sg355
((lp473
F40.020000000000437
tp474
sg414
((lp475
(F1.3900000000012369
I28
tp476
aF40.110000000000582
tp477
ssba(imeasure_core
ProblemSetSolution
p478
(dp479
g3
(imeasure_core
RoomSet
p480
(dp481
S'rooms'
p482
(dp483
(iproblems
RoomID
p484
(dp485
S'width'
p486
I13
sS'dusts'
p487
I11
sS'seed'
p488
I2405875930906139466
sS'obstacles'
p489
(I10
I1
tp490
sS'robots'
p491
I7
sS'height'
p492
I12
sb(imulti_robot_problem
MultiRobotState
p493
(dp494
S'obstacle_locations'
p495
g20
((lp496
(I7
I3
tp497
a(I9
I0
tp498
a(I8
I4
tp499
a(I9
I1
tp500
a(I7
I1
tp501
a(I5
I6
tp502
a(I8
I11
tp503
a(I8
I0
tp504
a(I1
I4
tp505
a(I11
I7
tp506
a(I7
I4
tp507
a(I1
I5
tp508
a(I6
I2
tp509
a(I0
I7
tp510
ag490
a(I11
I6
tp511
a(I11
I5
tp512
a(I10
I2
tp513
a(I10
I3
tp514
a(I7
I2
tp515
a(I10
I4
tp516
atp517
Rp518
sg486
I13
sS'dirt_locations'
p519
g20
((lp520
(I6
I3
tp521
a(I10
I11
tp522
a(I8
I1
tp523
a(I3
I4
tp524
a(I10
I0
tp525
a(I12
I5
tp526
a(I2
I0
tp527
a(I2
I3
tp528
a(I5
I1
tp529
a(I8
I6
tp530
a(I7
I8
tp531
atp532
Rp533
sg491
((I10
I8
tp534
(I9
I2
tp535
(I4
I5
tp536
(I11
I8
tp537
(I1
I2
tp538
(I3
I1
tp539
(I0
I10
tp540
tp541
sg492
I12
sbs(iproblems
RoomID
p542
(dp543
g486
I10
sg487
I11
sg488
I8744744311366254845
sg489
(I7
I9
tp544
sg491
I6
sg492
I13
sb(imulti_robot_problem
MultiRobotState
p545
(dp546
g495
g20
((lp547
(I6
I9
tp548
a(I1
I3
tp549
a(I4
I9
tp550
a(I5
I6
tp551
a(I9
I8
tp552
a(I1
I8
tp553
a(I1
I0
tp554
a(I9
I7
tp555
a(I3
I4
tp556
a(I5
I8
tp557
ag544
atp558
Rp559
sg486
I10
sg519
g20
((lp560
(I0
I1
tp561
a(I7
I3
tp562
a(I9
I0
tp563
a(I1
I12
tp564
a(I5
I11
tp565
a(I4
I10
tp566
a(I9
I10
tp567
a(I3
I7
tp568
a(I7
I11
tp569
a(I0
I8
tp570
a(I9
I6
tp571
atp572
Rp573
sg491
((I0
I10
tp574
(I6
I3
tp575
(I4
I0
tp576
(I1
I6
tp577
(I7
I5
tp578
(I9
I9
tp579
tp580
sg492
I13
sbs(iproblems
RoomID
p581
(dp582
g486
I13
sg487
I15
sg488
I2796939073032698495
sg489
(I3
I6
tp583
sg491
I7
sg492
I10
sb(imulti_robot_problem
MultiRobotState
p584
(dp585
g495
g20
((lp586
(I5
I9
tp587
a(I6
I9
tp588
a(I5
I7
tp589
a(I6
I6
tp590
a(I6
I2
tp591
a(I5
I1
tp592
a(I12
I9
tp593
a(I5
I8
tp594
a(I6
I7
tp595
a(I5
I5
tp596
a(I4
I8
tp597
a(I5
I0
tp598
a(I6
I4
tp599
a(I5
I4
tp600
ag583
a(I4
I5
tp601
a(I3
I9
tp602
a(I0
I5
tp603
a(I8
I7
tp604
a(I4
I9
tp605
a(I6
I5
tp606
a(I5
I3
tp607
a(I2
I7
tp608
a(I4
I6
tp609
a(I3
I1
tp610
a(I2
I0
tp611
a(I7
I8
tp612
atp613
Rp614
sg486
I13
sg519
g20
((lp615
(I1
I2
tp616
a(I8
I2
tp617
a(I2
I9
tp618
a(I12
I0
tp619
a(I3
I4
tp620
a(I6
I0
tp621
a(I9
I9
tp622
a(I2
I3
tp623
a(I9
I4
tp624
a(I1
I7
tp625
a(I0
I9
tp626
a(I3
I3
tp627
a(I7
I9
tp628
a(I4
I1
tp629
a(I12
I8
tp630
atp631
Rp632
sg491
((I10
I2
tp633
(I11
I8
tp634
(I12
I5
tp635
(I8
I9
tp636
(I10
I3
tp637
(I0
I3
tp638
(I11
I2
tp639
tp640
sg492
I10
sbs(iproblems
RoomID
p641
(dp642
g486
I12
sg487
I15
sg488
I4278205817407065157
sg489
(I4
I8
tp643
sg491
I6
sg492
I13
sb(imulti_robot_problem
MultiRobotState
p644
(dp645
g495
g20
((lp646
(I11
I7
tp647
a(I2
I9
tp648
ag643
a(I5
I6
tp649
a(I2
I8
tp650
a(I6
I10
tp651
a(I3
I8
tp652
a(I11
I8
tp653
a(I3
I9
tp654
a(I1
I10
tp655
a(I1
I11
tp656
a(I7
I8
tp657
a(I2
I4
tp658
atp659
Rp660
sg486
I12
sg519
g20
((lp661
(I1
I2
tp662
a(I0
I1
tp663
a(I5
I4
tp664
a(I3
I1
tp665
a(I10
I4
tp666
a(I7
I1
tp667
a(I5
I7
tp668
a(I10
I5
tp669
a(I4
I7
tp670
a(I9
I9
tp671
a(I0
I10
tp672
a(I4
I3
tp673
a(I8
I12
tp674
a(I4
I1
tp675
a(I0
I2
tp676
atp677
Rp678
sg491
((I7
I10
tp679
(I6
I12
tp680
(I2
I0
tp681
(I9
I1
tp682
(I10
I3
tp683
(I4
I0
tp684
tp685
sg492
I13
sbs(iproblems
RoomID
p686
(dp687
g486
I11
sg487
I15
sg488
I8655808914197340073
sg489
(I5
I8
tp688
sg491
I7
sg492
I13
sb(imulti_robot_problem
MultiRobotState
p689
(dp690
g495
g20
((lp691
(I5
I9
tp692
a(I6
I7
tp693
a(I6
I11
tp694
a(I1
I4
tp695
a(I0
I12
tp696
a(I0
I11
tp697
a(I7
I5
tp698
a(I1
I6
tp699
a(I0
I4
tp700
a(I5
I10
tp701
a(I3
I9
tp702
a(I4
I9
tp703
a(I10
I3
tp704
ag688
atp705
Rp706
sg486
I11
sg519
g20
((lp707
(I2
I7
tp708
a(I7
I3
tp709
a(I9
I7
tp710
a(I4
I6
tp711
a(I1
I12
tp712
a(I5
I6
tp713
a(I9
I6
tp714
a(I7
I7
tp715
a(I2
I0
tp716
a(I9
I4
tp717
a(I7
I10
tp718
a(I0
I8
tp719
a(I8
I5
tp720
a(I6
I5
tp721
a(I7
I9
tp722
atp723
Rp724
sg491
((I9
I11
tp725
(I8
I1
tp726
(I3
I4
tp727
(I8
I7
tp728
(I9
I1
tp729
(I2
I10
tp730
(I2
I12
tp731
tp732
sg492
I13
sbssS'name'
p733
S'heavy_roomset'
p734
sbsg163
g164
sg165
(dp735
g484
((lp736
F41.110000000000582
tp737
sg542
((lp738
(F12.459999999999127
I13
tp739
aF42.039999999999054
tp740
sg581
((lp741
F40.260000000000218
tp742
sg641
((lp743
(F21.090000000000146
I15
tp744
aF40.329999999999927
tp745
sg686
((lp746
F42.960000000000946
tp747
ssba(imeasure_core
ProblemSetSolution
p748
(dp749
g3
g4
sg163
S"AnytimeBeam-w20-gf(1.5, 'exp')_with_PowerHeuristic2"
p750
sg165
(dp751
g8
((lp752
(F0.47999999999956344
I10
tp753
aF40.119999999998981
tp754
sg44
((lp755
(F0.32999999999992724
I14
tp756
aF40.170000000000073
tp757
sg71
((lp758
(F5.1599999999998545
I144
tp759
aF40.010000000000218
tp760
sg102
((lp761
(F0.1000000000003638
I49
tp762
a(F0.56999999999970896
I47
tp763
a(F0.78999999999905413
I45
tp764
a(F1.0599999999994907
I43
tp765
a(F1.5
I41
tp766
a(F1.930000000000291
I40
tp767
a(F2.9599999999991269
I39
tp768
a(F3.8600000000005821
I38
tp769
a(F5.1299999999991996
I37
tp770
a(F6.2999999999992724
I35
tp771
a(F7.9599999999991269
I33
tp772
a(F10.299999999999272
I31
tp773
a(F12.280000000000655
I29
tp774
a(F13.850000000000364
I27
tp775
a(F15.850000000000364
I25
tp776
a(F20.200000000000728
I24
tp777
a(F24.069999999999709
I22
tp778
a(F27.3799999999992
I20
tp779
aF40.0
tp780
sg127
((lp781
(F1.5100000000002183
I9
tp782
aF40.520000000000437
tp783
ssba(imeasure_core
ProblemSetSolution
p784
(dp785
g3
g201
sg163
g750
sg165
(dp786
g205
((lp787
(F3.3899999999994179
I60
tp788
a(F8.2099999999991269
I55
tp789
a(F14.279999999998836
I32
tp790
aF40.010000000000218
tp791
sg261
((lp792
(F11.979999999999563
I171
tp793
aF40.039999999999054
tp794
sg311
((lp795
(F0.92000000000007276
I25
tp796
aF40.049999999999272
tp797
sg355
((lp798
F40.040000000000873
tp799
sg414
((lp800
(F1.4099999999998545
I28
tp801
aF40.049999999999272
tp802
ssba(imeasure_core
ProblemSetSolution
p803
(dp804
g3
g480
sg163
g750
sg165
(dp805
g484
((lp806
F41.329999999999927
tp807
sg542
((lp808
(F12.440000000000509
I13
tp809
aF40.210000000000946
tp810
sg581
((lp811
F40.280000000000655
tp812
sg641
((lp813
(F20.93999999999869
I15
tp814
aF40.089999999998327
tp815
sg686
((lp816
F42.530000000000655
tp817
ssba(imeasure_core
ProblemSetSolution
p818
(dp819
g3
g4
sg163
S"AnytimeBeam-w20-gf(1.7, 'exp')_with_PowerHeuristic2"
p820
sg165
(dp821
g8
((lp822
(F0.45999999999912689
I10
tp823
aF40.430000000000291
tp824
sg44
((lp825
(F0.32999999999992724
I14
tp826
aF40.389999999999418
tp827
sg71
((lp828
(F5.1200000000008004
I144
tp829
aF40.159999999999854
tp830
sg102
((lp831
(F0.1000000000003638
I49
tp832
a(F0.30000000000109139
I47
tp833
a(F0.52000000000043656
I45
tp834
a(F0.79000000000087311
I43
tp835
a(F1.2299999999995634
I41
tp836
a(F1.6599999999998545
I40
tp837
a(F2.6700000000000728
I39
tp838
a(F3.5799999999999272
I38
tp839
a(F4.8500000000003638
I37
tp840
a(F6.0300000000006548
I35
tp841
a(F7.7000000000007276
I33
tp842
a(F10.06000000000131
I31
tp843
a(F12.040000000000873
I29
tp844
a(F13.6200000000008
I27
tp845
a(F15.6200000000008
I25
tp846
a(F20.020000000000437
I24
tp847
a(F23.950000000000728
I22
tp848
a(F27.280000000000655
I20
tp849
aF40.0
tp850
sg127
((lp851
(F1.5100000000002183
I9
tp852
aF41.290000000000873
tp853
ssba(imeasure_core
ProblemSetSolution
p854
(dp855
g3
g201
sg163
g820
sg165
(dp856
g205
((lp857
(F3.3999999999996362
I60
tp858
a(F9.1000000000003638
I55
tp859
a(F15.430000000000291
I32
tp860
aF40.010000000000218
tp861
sg261
((lp862
(F11.920000000000073
I171
tp863
aF40.049999999999272
tp864
sg311
((lp865
(F0.93000000000029104
I25
tp866
aF40.280000000000655
tp867
sg355
((lp868
F40.0
tp869
sg414
((lp870
(F1.4200000000000728
I28
tp871
aF40.25
tp872
ssba(imeasure_core
ProblemSetSolution
p873
(dp874
g3
g480
sg163
g820
sg165
(dp875
g484
((lp876
F41.479999999999563
tp877
sg542
((lp878
(F12.539999999999054
I13
tp879
aF40.449999999998909
tp880
sg581
((lp881
F40.110000000000582
tp882
sg641
((lp883
(F21.06000000000131
I15
tp884
aF41.159999999999854
tp885
sg686
((lp886
F42.709999999999127
tp887
ssba(imeasure_core
ProblemSetSolution
p888
(dp889
g3
g4
sg163
S"AnytimeBeam-w20-gf(1.8999999999999999, 'exp')_with_PowerHeuristic2"
p890
sg165
(dp891
g8
((lp892
(F0.47999999999956344
I10
tp893
aF40.040000000000873
tp894
sg44
((lp895
(F0.32999999999810825
I14
tp896
aF40.219999999997526
tp897
sg71
((lp898
(F5.069999999999709
I144
tp899
aF40.0
tp900
sg102
((lp901
(F0.10000000000218279
I49
tp902
a(F0.2999999999992724
I47
tp903
a(F0.52000000000043656
I45
tp904
a(F0.78000000000247383
I43
tp905
a(F1.2200000000011642
I41
tp906
a(F1.6500000000014552
I40
tp907
a(F2.6599999999998545
I39
tp908
a(F3.5600000000013097
I38
tp909
a(F4.819999999999709
I37
tp910
a(F5.9900000000016007
I35
tp911
a(F7.6399999999994179
I33
tp912
a(F9.9799999999995634
I31
tp913
a(F11.950000000000728
I29
tp914
a(F13.510000000002037
I27
tp915
a(F15.510000000002037
I25
tp916
a(F19.860000000000582
I24
tp917
a(F23.75
I22
tp918
a(F27.040000000000873
I20
tp919
aF40.0
tp920
sg127
((lp921
(F1.5100000000020373
I9
tp922
aF40.049999999999272
tp923
ssba(imeasure_core
ProblemSetSolution
p924
(dp925
g3
g201
sg163
g890
sg165
(dp926
g205
((lp927
(F3.4000000000014552
I60
tp928
a(F9.6900000000023283
I55
tp929
a(F16.370000000002619
I32
tp930
aF40.090000000000146
tp931
sg261
((lp932
(F11.950000000000728
I171
tp933
aF40.120000000002619
tp934
sg311
((lp935
(F0.91999999999825377
I25
tp936
aF40.119999999998981
tp937
sg355
((lp938
F40.079999999998108
tp939
sg414
((lp940
(F1.4099999999998545
I28
tp941
aF40.25
tp942
ssba(imeasure_core
ProblemSetSolution
p943
(dp944
g3
g480
sg163
g890
sg165
(dp945
g484
((lp946
F41.520000000000437
tp947
sg542
((lp948
(F12.419999999998254
I13
tp949
aF40.979999999999563
tp950
sg581
((lp951
F40.329999999998108
tp952
sg641
((lp953
(F20.970000000001164
I15
tp954
aF40.980000000003201
tp955
sg686
((lp956
F42.769999999996799
tp957
ssba(imeasure_core
ProblemSetSolution
p958
(dp959
g3
g4
sg163
S"AnytimeBeam-w20-gf(1.3, 'exp')_with_LinearHeuristic"
p960
sg165
(dp961
g8
((lp962
F40.090000000000146
tp963
sg44
((lp964
F40.340000000000146
tp965
sg71
((lp966
(F1.1500000000014552
I58
tp967
aF40.05000000000291
tp968
sg102
((lp969
(F0.0099999999983992893
I22
tp970
a(F0.47999999999956344
I20
tp971
aF40.0
tp972
sg127
((lp973
(F1.9499999999970896
I6
tp974
aF40.409999999999854
tp975
ssba(imeasure_core
ProblemSetSolution
p976
(dp977
g3
g201
sg163
g960
sg165
(dp978
g205
((lp979
F40.019999999996799
tp980
sg261
((lp981
F40.430000000000291
tp982
sg311
((lp983
F40.140000000003056
tp984
sg355
((lp985
F40.25
tp986
sg414
((lp987
(F15.309999999997672
I146
tp988
aF40.139999999999418
tp989
ssba(imeasure_core
ProblemSetSolution
p990
(dp991
g3
g480
sg163
g960
sg165
(dp992
g484
((lp993
F47.459999999999127
tp994
sg542
((lp995
(F11.430000000000291
I8
tp996
aF40.900000000001455
tp997
sg581
((lp998
F40.68999999999869
tp999
sg641
((lp1000
F40.159999999999854
tp1001
sg686
((lp1002
F45.220000000001164
tp1003
ssba(imeasure_core
ProblemSetSolution
p1004
(dp1005
g3
g4
sg163
S"AnytimeBeam-w20-gf(1.5, 'exp')_with_LinearHeuristic"
p1006
sg165
(dp1007
g8
((lp1008
F40.279999999998836
tp1009
sg44
((lp1010
F40.159999999999854
tp1011
sg71
((lp1012
(F1.1500000000014552
I58
tp1013
a(F36.569999999999709
I56
tp1014
aF40.080000000001746
tp1015
sg102
((lp1016
(F0.020000000000436557
I22
tp1017
a(F0.40000000000145519
I20
tp1018
aF40.0
tp1019
sg127
((lp1020
(F1.9500000000007276
I6
tp1021
aF40.099999999998545
tp1022
ssba(imeasure_core
ProblemSetSolution
p1023
(dp1024
g3
g201
sg163
g1006
sg165
(dp1025
g205
((lp1026
F40.059999999997672
tp1027
sg261
((lp1028
F40.220000000001164
tp1029
sg311
((lp1030
F40.159999999999854
tp1031
sg355
((lp1032
F40.049999999999272
tp1033
sg414
((lp1034
(F15.380000000001019
I146
tp1035
aF40.170000000001892
tp1036
ssba(imeasure_core
ProblemSetSolution
p1037
(dp1038
g3
g480
sg163
g1006
sg165
(dp1039
g484
((lp1040
F47.5
tp1041
sg542
((lp1042
(F11.450000000000728
I8
tp1043
aF41.520000000000437
tp1044
sg581
((lp1045
F40.479999999999563
tp1046
sg641
((lp1047
F40.119999999998981
tp1048
sg686
((lp1049
F45.180000000000291
tp1050
ssba(imeasure_core
ProblemSetSolution
p1051
(dp1052
g3
g4
sg163
S"AnytimeBeam-w20-gf(1.7, 'exp')_with_LinearHeuristic"
p1053
sg165
(dp1054
g8
((lp1055
F40.020000000000437
tp1056
sg44
((lp1057
F40.369999999998981
tp1058
sg71
((lp1059
(F1.1500000000014552
I58
tp1060
a(F32.779999999998836
I56
tp1061
aF40.010000000002037
tp1062
sg102
((lp1063
(F0.019999999996798579
I22
tp1064
a(F0.23999999999796273
I20
tp1065
aF40.0
tp1066
sg127
((lp1067
(F1.9399999999986903
I6
tp1068
aF40.599999999998545
tp1069
ssba(imeasure_core
ProblemSetSolution
p1070
(dp1071
g3
g201
sg163
g1053
sg165
(dp1072
g205
((lp1073
F40.150000000001455
tp1074
sg261
((lp1075
F40.020000000000437
tp1076
sg311
((lp1077
F40.0
tp1078
sg355
((lp1079
F40.119999999998981
tp1080
sg414
((lp1081
(F15.369999999998981
I146
tp1082
aF40.0
tp1083
ssba(imeasure_core
ProblemSetSolution
p1084
(dp1085
g3
g480
sg163
g1053
sg165
(dp1086
g484
((lp1087
F48.049999999999272
tp1088
sg542
((lp1089
(F11.510000000002037
I8
tp1090
aF41.490000000001601
tp1091
sg581
((lp1092
F40.790000000000873
tp1093
sg641
((lp1094
F40.299999999999272
tp1095
sg686
((lp1096
F45.770000000000437
tp1097
ssba(imeasure_core
ProblemSetSolution
p1098
(dp1099
g3
g4
sg163
S"AnytimeBeam-w20-gf(1.8999999999999999, 'exp')_with_LinearHeuristic"
p1100
sg165
(dp1101
g8
((lp1102
F40.069999999999709
tp1103
sg44
((lp1104
F40.119999999998981
tp1105
sg71
((lp1106
(F1.1599999999998545
I58
tp1107
a(F26.389999999999418
I56
tp1108
aF40.0
tp1109
sg102
((lp1110
(F0.020000000000436557
I22
tp1111
a(F0.25
I20
tp1112
aF40.0
tp1113
sg127
((lp1114
(F1.9500000000007276
I6
tp1115
aF40.700000000000728
tp1116
ssba(imeasure_core
ProblemSetSolution
p1117
(dp1118
g3
g201
sg163
g1100
sg165
(dp1119
g205
((lp1120
F40.069999999999709
tp1121
sg261
((lp1122
F40.420000000001892
tp1123
sg311
((lp1124
F40.0
tp1125
sg355
((lp1126
F40.079999999998108
tp1127
sg414
((lp1128
(F15.360000000000582
I146
tp1129
aF40.020000000000437
tp1130
ssba(imeasure_core
ProblemSetSolution
p1131
(dp1132
g3
g480
sg163
g1100
sg165
(dp1133
g484
((lp1134
F47.479999999999563
tp1135
sg542
((lp1136
(F11.470000000001164
I8
tp1137
aF40.680000000000291
tp1138
sg581
((lp1139
F40.380000000001019
tp1140
sg641
((lp1141
F40.049999999999272
tp1142
sg686
((lp1143
F45.18999999999869
tp1144
ssba.