(lp0
(imeasure_core
ProblemSetSolution
p1
(dp2
S'roomset'
p3
(imeasure_core
RoomSet
p4
(dp5
S'rooms'
p6
(dp7
(iproblems
RoomID
p8
(dp9
S'dusts'
p10
I8
sS'obstacles'
p11
(I5
I7
tp12
sS'robots'
p13
I5
sS'height'
p14
I9
sS'width'
p15
I10
sS'seed'
p16
I5594871498841892311
sb(imulti_robot_problem
MultiRobotState
p17
(dp18
S'obstacle_locations'
p19
c__builtin__
frozenset
p20
((lp21
(I4
I7
tp22
a(I3
I6
tp23
a(I5
I1
tp24
a(I1
I0
tp25
ag12
a(I8
I3
tp26
a(I5
I8
tp27
atp28
Rp29
sg15
I10
sS'dirt_locations'
p30
g20
((lp31
(I0
I1
tp32
a(I9
I0
tp33
a(I8
I2
tp34
a(I6
I0
tp35
a(I1
I1
tp36
a(I1
I5
tp37
a(I9
I4
tp38
a(I2
I4
tp39
atp40
Rp41
sg13
((I7
I6
tp42
(I8
I4
tp43
(I5
I4
tp44
(I7
I2
tp45
(I7
I8
tp46
tp47
sg14
I9
sbs(iproblems
RoomID
p48
(dp49
g10
I6
sg11
(I4
I4
tp50
sg13
I5
sg14
I7
sg15
I8
sg16
I8833747186876682921
sb(imulti_robot_problem
MultiRobotState
p51
(dp52
g19
g20
((lp53
(I2
I2
tp54
ag50
a(I3
I4
tp55
a(I3
I3
tp56
a(I3
I5
tp57
atp58
Rp59
sg15
I8
sg30
g20
((lp60
(I6
I4
tp61
a(I5
I4
tp62
a(I1
I3
tp63
a(I5
I1
tp64
a(I0
I3
tp65
a(I5
I3
tp66
atp67
Rp68
sg13
((I2
I1
tp69
(I6
I1
tp70
(I3
I1
tp71
(I5
I0
tp72
(I7
I3
tp73
tp74
sg14
I7
sbs(iproblems
RoomID
p75
(dp76
g10
I7
sg11
(I5
I2
tp77
sg13
I5
sg14
I8
sg15
I9
sg16
I365562409358139953
sb(imulti_robot_problem
MultiRobotState
p78
(dp79
g19
g20
((lp80
(I6
I4
tp81
a(I5
I5
tp82
a(I2
I1
tp83
a(I3
I7
tp84
a(I2
I5
tp85
ag77
a(I0
I2
tp86
a(I5
I3
tp87
atp88
Rp89
sg15
I9
sg30
g20
((lp90
(I2
I0
tp91
a(I1
I6
tp92
a(I8
I2
tp93
a(I4
I5
tp94
a(I8
I6
tp95
a(I5
I7
tp96
a(I3
I4
tp97
atp98
Rp99
sg13
((I4
I2
tp100
(I8
I3
tp101
(I6
I3
tp102
(I2
I4
tp103
(I6
I7
tp104
tp105
sg14
I8
sbs(iproblems
RoomID
p106
(dp107
g10
I6
sg11
(I2
I3
tp108
sg13
I1
sg14
I8
sg15
I8
sg16
I1085536589165212248
sb(imulti_robot_problem
MultiRobotState
p109
(dp110
g19
g20
((lp111
(I1
I5
tp112
ag108
a(I1
I4
tp113
a(I1
I6
tp114
a(I0
I7
tp115
a(I4
I0
tp116
atp117
Rp118
sg15
I8
sg30
g20
((lp119
(I0
I1
tp120
a(I1
I2
tp121
a(I7
I3
tp122
a(I5
I1
tp123
a(I6
I0
tp124
a(I2
I1
tp125
atp126
Rp127
sg13
((I3
I2
tp128
tp129
sg14
I8
sbs(iproblems
RoomID
p130
(dp131
g10
I5
sg11
(I6
I4
tp132
sg13
I2
sg14
I8
sg15
I10
sg16
I1662056218554549082
sb(imulti_robot_problem
MultiRobotState
p133
(dp134
g19
g20
((lp135
g132
a(I4
I6
tp136
a(I3
I6
tp137
a(I4
I4
tp138
a(I9
I6
tp139
a(I5
I5
tp140
atp141
Rp142
sg15
I10
sg30
g20
((lp143
(I4
I5
tp144
a(I8
I3
tp145
a(I8
I4
tp146
a(I7
I7
tp147
a(I3
I3
tp148
atp149
Rp150
sg13
((I9
I3
tp151
(I2
I0
tp152
tp153
sg14
I8
sbssS'name'
p154
S'easy_roomset'
p155
sbsg154
S"AnytimeBeam-w5-gf(1.3, 'exp')_with_PowerHeuristic2"
p156
sS'solutions'
p157
(dp158
g8
((lp159
(F2.0499999999992724
I13
tp160
aF40.159999999999854
tp161
sg48
((lp162
(F0.47000000000116415
I4
tp163
aF40.579999999998108
tp164
sg75
((lp165
F40.040000000000873
tp166
sg106
((lp167
(F0.069999999999708962
I36
tp168
a(F0.11000000000058208
I32
tp169
a(F0.26000000000203727
I30
tp170
a(F1.180000000000291
I28
tp171
a(F1.5300000000024738
I27
tp172
a(F1.9099999999998545
I25
tp173
a(F2.2400000000016007
I23
tp174
a(F2.9700000000011642
I21
tp175
a(F4.0499999999992724
I20
tp176
a(F5.4900000000016007
I19
tp177
a(F7.180000000000291
I17
tp178
a(F8.819999999999709
I15
tp179
aF40.0
tp180
sg130
((lp181
(F0.010000000002037268
I7
tp182
aF40.020000000000437
tp183
ssba(imeasure_core
ProblemSetSolution
p184
(dp185
g3
(imeasure_core
RoomSet
p186
(dp187
g6
(dp188
(iproblems
RoomID
p189
(dp190
g10
I8
sg11
(I9
I3
tp191
sg13
I4
sg14
I11
sg15
I12
sg16
I5594871498841892311
sb(imulti_robot_problem
MultiRobotState
p192
(dp193
g19
g20
((lp194
(I5
I9
tp195
a(I6
I9
tp196
a(I11
I9
tp197
a(I9
I1
tp198
a(I4
I8
tp199
a(I8
I0
tp200
a(I6
I0
tp201
a(I9
I9
tp202
ag191
a(I9
I4
tp203
a(I4
I2
tp204
a(I3
I7
tp205
a(I5
I8
tp206
a(I7
I9
tp207
a(I10
I8
tp208
a(I9
I0
tp209
a(I7
I0
tp210
a(I6
I8
tp211
a(I9
I2
tp212
a(I5
I7
tp213
a(I8
I10
tp214
a(I2
I0
tp215
a(I5
I0
tp216
a(I0
I9
tp217
a(I10
I0
tp218
a(I10
I2
tp219
atp220
Rp221
sg15
I12
sg30
g20
((lp222
(I2
I6
tp223
a(I11
I5
tp224
a(I6
I1
tp225
a(I11
I1
tp226
a(I2
I1
tp227
a(I8
I8
tp228
a(I0
I2
tp229
a(I3
I5
tp230
atp231
Rp232
sg13
((I9
I7
tp233
(I10
I5
tp234
(I6
I5
tp235
(I8
I3
tp236
tp237
sg14
I11
sbs(iproblems
RoomID
p238
(dp239
g10
I6
sg11
(I9
I4
tp240
sg13
I4
sg14
I9
sg15
I10
sg16
I8833747186876682921
sb(imulti_robot_problem
MultiRobotState
p241
(dp242
g19
g20
((lp243
(I4
I7
tp244
a(I4
I8
tp245
a(I4
I5
tp246
a(I2
I1
tp247
a(I7
I5
tp248
a(I2
I3
tp249
ag240
a(I2
I5
tp250
a(I6
I5
tp251
a(I3
I5
tp252
a(I2
I7
tp253
a(I8
I3
tp254
a(I5
I5
tp255
a(I3
I4
tp256
a(I7
I4
tp257
a(I5
I6
tp258
a(I8
I8
tp259
a(I3
I6
tp260
a(I4
I1
tp261
a(I1
I1
tp262
atp263
Rp264
sg15
I10
sg30
g20
((lp265
(I3
I2
tp266
a(I6
I2
tp267
a(I7
I0
tp268
a(I1
I4
tp269
a(I0
I4
tp270
a(I0
I7
tp271
atp272
Rp273
sg13
((I3
I1
tp274
(I8
I1
tp275
(I3
I3
tp276
(I4
I2
tp277
tp278
sg14
I9
sbs(iproblems
RoomID
p279
(dp280
g10
I7
sg11
(I8
I4
tp281
sg13
I4
sg14
I10
sg15
I11
sg16
I365562409358139953
sb(imulti_robot_problem
MultiRobotState
p282
(dp283
g19
g20
((lp284
(I7
I3
tp285
a(I8
I7
tp286
a(I4
I8
tp287
a(I2
I8
tp288
a(I5
I9
tp289
a(I6
I2
tp290
a(I1
I6
tp291
a(I9
I4
tp292
a(I6
I4
tp293
a(I9
I6
tp294
a(I6
I5
tp295
a(I10
I8
tp296
a(I10
I5
tp297
a(I6
I7
tp298
a(I10
I7
tp299
a(I7
I6
tp300
a(I3
I1
tp301
a(I0
I5
tp302
a(I3
I8
tp303
a(I7
I5
tp304
a(I8
I6
tp305
ag281
a(I5
I2
tp306
a(I6
I1
tp307
a(I9
I7
tp308
atp309
Rp310
sg15
I11
sg30
g20
((lp311
(I5
I6
tp312
a(I6
I9
tp313
a(I1
I7
tp314
a(I4
I5
tp315
a(I10
I3
tp316
a(I0
I2
tp317
a(I2
I1
tp318
atp319
Rp320
sg13
((I10
I4
tp321
(I7
I4
tp322
(I3
I6
tp323
(I8
I9
tp324
tp325
sg14
I10
sbs(iproblems
RoomID
p326
(dp327
g10
I8
sg11
(I4
I6
tp328
sg13
I3
sg14
I9
sg15
I12
sg16
I4800841617172907184
sb(imulti_robot_problem
MultiRobotState
p329
(dp330
g19
g20
((lp331
(I5
I4
tp332
ag328
a(I8
I7
tp333
a(I6
I6
tp334
a(I4
I5
tp335
a(I9
I8
tp336
a(I9
I3
tp337
a(I6
I0
tp338
a(I2
I1
tp339
a(I10
I1
tp340
a(I4
I2
tp341
a(I8
I5
tp342
a(I7
I2
tp343
a(I5
I3
tp344
a(I8
I3
tp345
a(I3
I1
tp346
a(I3
I3
tp347
a(I11
I8
tp348
a(I7
I1
tp349
a(I11
I3
tp350
a(I6
I3
tp351
a(I0
I6
tp352
a(I4
I3
tp353
a(I8
I6
tp354
a(I8
I4
tp355
a(I9
I7
tp356
atp357
Rp358
sg15
I12
sg30
g20
((lp359
(I11
I4
tp360
a(I8
I2
tp361
a(I10
I7
tp362
a(I7
I6
tp363
a(I1
I4
tp364
a(I11
I0
tp365
a(I9
I2
tp366
a(I0
I2
tp367
atp368
Rp369
sg13
((I9
I1
tp370
(I0
I4
tp371
(I7
I4
tp372
tp373
sg14
I9
sbs(iproblems
RoomID
p374
(dp375
g10
I10
sg11
(I4
I8
tp376
sg13
I3
sg14
I11
sg15
I9
sg16
I6645345695289302126
sb(imulti_robot_problem
MultiRobotState
p377
(dp378
g19
g20
((lp379
(I5
I9
tp380
a(I3
I2
tp381
a(I3
I1
tp382
ag376
a(I4
I5
tp383
a(I1
I4
tp384
a(I4
I2
tp385
a(I3
I7
tp386
a(I4
I6
tp387
a(I3
I3
tp388
a(I4
I1
tp389
a(I6
I1
tp390
a(I4
I4
tp391
a(I2
I4
tp392
a(I3
I8
tp393
a(I1
I5
tp394
a(I4
I3
tp395
a(I3
I5
tp396
a(I3
I4
tp397
a(I1
I1
tp398
a(I8
I4
tp399
atp400
Rp401
sg15
I9
sg30
g20
((lp402
(I0
I1
tp403
a(I5
I4
tp404
a(I6
I7
tp405
a(I8
I2
tp406
a(I8
I7
tp407
a(I8
I8
tp408
a(I2
I3
tp409
a(I3
I6
tp410
a(I1
I0
tp411
a(I5
I5
tp412
atp413
Rp414
sg13
((I1
I6
tp415
(I0
I9
tp416
(I0
I5
tp417
tp418
sg14
I11
sbssg154
S'mild_roomset'
p419
sbsg154
g156
sg157
(dp420
g189
((lp421
(F0.81000000000130967
I32
tp422
aF40.659999999999854
tp423
sg238
((lp424
(F0.85000000000218279
I32
tp425
aF40.040000000000873
tp426
sg279
((lp427
(F0.16999999999825377
I25
tp428
aF40.149999999997817
tp429
sg326
((lp430
(F0.17000000000189175
I22
tp431
a(F0.29000000000087311
I17
tp432
aF40.020000000000437
tp433
sg374
((lp434
(F11.140000000003056
I127
tp435
aF40.0
tp436
ssba(imeasure_core
ProblemSetSolution
p437
(dp438
g3
(imeasure_core
RoomSet
p439
(dp440
g6
(dp441
(iproblems
RoomID
p442
(dp443
g10
I13
sg11
(I9
I8
tp444
sg13
I7
sg14
I12
sg15
I13
sg16
I5594871498841892311
sb(imulti_robot_problem
MultiRobotState
p445
(dp446
g19
g20
((lp447
(I5
I9
tp448
a(I6
I9
tp449
a(I1
I3
tp450
a(I10
I4
tp451
a(I4
I8
tp452
ag444
a(I1
I4
tp453
a(I11
I3
tp454
a(I8
I6
tp455
a(I9
I6
tp456
a(I5
I5
tp457
a(I9
I5
tp458
a(I6
I7
tp459
a(I6
I8
tp460
a(I6
I10
tp461
a(I8
I10
tp462
a(I5
I0
tp463
a(I10
I0
tp464
a(I7
I9
tp465
a(I9
I7
tp466
atp467
Rp468
sg15
I13
sg30
g20
((lp469
(I2
I7
tp470
a(I10
I5
tp471
a(I11
I5
tp472
a(I6
I1
tp473
a(I8
I0
tp474
a(I2
I1
tp475
a(I2
I0
tp476
a(I0
I10
tp477
a(I7
I10
tp478
a(I12
I10
tp479
a(I5
I2
tp480
a(I0
I2
tp481
a(I3
I5
tp482
atp483
Rp484
sg13
((I10
I8
tp485
(I11
I6
tp486
(I7
I5
tp487
(I9
I3
tp488
(I9
I11
tp489
(I12
I1
tp490
(I9
I9
tp491
tp492
sg14
I12
sbs(iproblems
RoomID
p493
(dp494
g10
I11
sg11
(I8
I7
tp495
sg13
I7
sg14
I10
sg15
I11
sg16
I8833747186876682921
sb(imulti_robot_problem
MultiRobotState
p496
(dp497
g19
g20
((lp498
(I5
I7
tp499
a(I4
I8
tp500
a(I4
I5
tp501
a(I2
I1
tp502
ag495
a(I5
I1
tp503
a(I5
I5
tp504
a(I6
I7
tp505
a(I4
I6
tp506
a(I8
I1
tp507
a(I4
I4
tp508
a(I6
I3
tp509
a(I8
I8
tp510
a(I3
I3
tp511
a(I7
I8
tp512
a(I10
I2
tp513
atp514
Rp515
sg15
I11
sg30
g20
((lp516
(I10
I5
tp517
a(I7
I6
tp518
a(I4
I7
tp519
a(I1
I4
tp520
a(I9
I9
tp521
a(I3
I8
tp522
a(I0
I5
tp523
a(I8
I6
tp524
a(I2
I5
tp525
a(I0
I8
tp526
a(I7
I2
tp527
atp528
Rp529
sg13
((I3
I1
tp530
(I9
I1
tp531
(I5
I2
tp532
(I4
I3
tp533
(I8
I0
tp534
(I10
I4
tp535
(I8
I5
tp536
tp537
sg14
I10
sbs(iproblems
RoomID
p538
(dp539
g10
I11
sg11
(I4
I6
tp540
sg13
I5
sg14
I11
sg15
I11
sg16
I1085536589165212248
sb(imulti_robot_problem
MultiRobotState
p541
(dp542
g19
g20
((lp543
(I10
I5
tp544
a(I2
I6
tp545
ag540
a(I9
I3
tp546
a(I3
I2
tp547
a(I9
I9
tp548
a(I1
I8
tp549
a(I1
I9
tp550
a(I1
I7
tp551
a(I3
I7
tp552
a(I6
I9
tp553
a(I5
I8
tp554
a(I3
I3
tp555
atp556
Rp557
sg15
I11
sg30
g20
((lp558
(I0
I1
tp559
a(I4
I9
tp560
a(I10
I4
tp561
a(I10
I7
tp562
a(I6
I0
tp563
a(I0
I7
tp564
a(I2
I3
tp565
a(I1
I4
tp566
a(I2
I2
tp567
a(I10
I0
tp568
a(I0
I10
tp569
atp570
Rp571
sg13
((I5
I3
tp572
(I0
I2
tp573
(I3
I1
tp574
(I7
I1
tp575
(I9
I0
tp576
tp577
sg14
I11
sbs(iproblems
RoomID
p578
(dp579
g10
I13
sg11
(I3
I8
tp580
sg13
I5
sg14
I10
sg15
I10
sg16
I5338040351619750409
sb(imulti_robot_problem
MultiRobotState
p581
(dp582
g19
g20
((lp583
(I4
I7
tp584
a(I2
I6
tp585
a(I9
I1
tp586
a(I2
I8
tp587
a(I6
I1
tp588
a(I1
I4
tp589
ag580
a(I1
I6
tp590
a(I4
I3
tp591
a(I1
I7
tp592
a(I2
I5
tp593
a(I9
I7
tp594
a(I2
I4
tp595
a(I6
I8
tp596
atp597
Rp598
sg15
I10
sg30
g20
((lp599
(I6
I9
tp600
a(I1
I3
tp601
a(I4
I9
tp602
a(I4
I6
tp603
a(I6
I6
tp604
a(I8
I3
tp605
a(I2
I1
tp606
a(I8
I9
tp607
a(I1
I8
tp608
a(I7
I5
tp609
a(I3
I6
tp610
a(I9
I6
tp611
a(I4
I0
tp612
atp613
Rp614
sg13
((I2
I0
tp615
(I3
I5
tp616
(I5
I0
tp617
(I5
I2
tp618
(I4
I5
tp619
tp620
sg14
I10
sbs(iproblems
RoomID
p621
(dp622
g10
I12
sg11
(I0
I5
tp623
sg13
I7
sg14
I11
sg15
I12
sg16
I365562409358139953
sb(imulti_robot_problem
MultiRobotState
p624
(dp625
g19
g20
((lp626
(I1
I3
tp627
a(I6
I6
tp628
a(I0
I4
tp629
a(I7
I5
tp630
ag623
a(I8
I7
tp631
a(I4
I2
tp632
a(I2
I9
tp633
a(I10
I7
tp634
a(I7
I8
tp635
a(I7
I6
tp636
a(I3
I1
tp637
a(I4
I8
tp638
a(I3
I9
tp639
a(I2
I2
tp640
a(I8
I6
tp641
a(I5
I2
tp642
a(I11
I6
tp643
a(I8
I4
tp644
atp645
Rp646
sg15
I12
sg30
g20
((lp647
(I3
I2
tp648
a(I11
I9
tp649
a(I4
I9
tp650
a(I10
I4
tp651
a(I5
I7
tp652
a(I2
I1
tp653
a(I0
I6
tp654
a(I1
I6
tp655
a(I7
I10
tp656
a(I3
I7
tp657
a(I5
I10
tp658
a(I0
I2
tp659
atp660
Rp661
sg13
((I6
I3
tp662
(I10
I5
tp663
(I3
I6
tp664
(I8
I10
tp665
(I4
I6
tp666
(I11
I3
tp667
(I1
I8
tp668
tp669
sg14
I11
sbssg154
S'heavy_roomset'
p670
sbsg154
g156
sg157
(dp671
g442
((lp672
F40.0
tp673
sg493
((lp674
(F20.969999999997526
I19
tp675
aF40.18999999999869
tp676
sg538
((lp677
(F1.7999999999992724
I15
tp678
aF40.350000000002183
tp679
sg578
((lp680
(F2.0
I16
tp681
aF40.0
tp682
sg621
((lp683
F40.069999999999709
tp684
ssba(imeasure_core
ProblemSetSolution
p685
(dp686
g3
g4
sg154
S"AnytimeBeam-w15-gf(1.3, 'exp')_with_PowerHeuristic2"
p687
sg157
(dp688
g8
((lp689
(F2.7400000000016007
I13
tp690
aF40.040000000000873
tp691
sg48
((lp692
(F0.52000000000043656
I4
tp693
aF40.200000000000728
tp694
sg75
((lp695
F40.009999999998399
tp696
sg106
((lp697
(F0.049999999999272404
I32
tp698
a(F0.2000000000007276
I30
tp699
a(F1.1300000000010186
I28
tp700
a(F1.4799999999995634
I27
tp701
a(F1.8600000000005821
I25
tp702
a(F2.1899999999986903
I23
tp703
a(F2.9099999999998545
I21
tp704
a(F3.9799999999995634
I20
tp705
a(F5.4099999999998545
I19
tp706
a(F7.0999999999985448
I17
tp707
a(F8.7200000000011642
I15
tp708
aF40.0
tp709
sg130
((lp710
(F0.020000000000436557
I7
tp711
aF40.010000000002037
tp712
ssba(imeasure_core
ProblemSetSolution
p713
(dp714
g3
g186
sg154
g687
sg157
(dp715
g189
((lp716
(F1.0600000000013097
I32
tp717
aF40.049999999999272
tp718
sg238
((lp719
(F1.3500000000021828
I32
tp720
aF40.240000000001601
tp721
sg279
((lp722
(F0.25999999999839929
I25
tp723
aF40.029999999998836
tp724
sg326
((lp725
(F0.15000000000145519
I17
tp726
aF40.0
tp727
sg374
((lp728
(F13.099999999998545
I127
tp729
aF40.0
tp730
ssba(imeasure_core
ProblemSetSolution
p731
(dp732
g3
g439
sg154
g687
sg157
(dp733
g442
((lp734
F40.240000000001601
tp735
sg493
((lp736
(F22.44999999999709
I19
tp737
aF40.819999999999709
tp738
sg538
((lp739
(F1.9799999999995634
I15
tp740
aF40.289999999997235
tp741
sg578
((lp742
(F2.4200000000018917
I16
tp743
aF40.120000000002619
tp744
sg621
((lp745
F40.090000000000146
tp746
ssba(imeasure_core
ProblemSetSolution
p747
(dp748
g3
g4
sg154
S"AnytimeBeam-w25-gf(1.3, 'exp')_with_PowerHeuristic2"
p749
sg157
(dp750
g8
((lp751
(F2.8400000000001455
I13
tp752
aF40.539999999997235
tp753
sg48
((lp754
(F0.56000000000130967
I4
tp755
aF41.200000000000728
tp756
sg75
((lp757
F40.56000000000131
tp758
sg106
((lp759
(F0.060000000001309672
I30
tp760
a(F0.98999999999796273
I28
tp761
a(F1.3400000000001455
I27
tp762
a(F1.7200000000011642
I25
tp763
a(F2.0499999999992724
I23
tp764
a(F2.7599999999983993
I21
tp765
a(F3.8299999999981083
I20
tp766
a(F5.25
I19
tp767
a(F6.9199999999982538
I17
tp768
a(F8.5400000000008731
I15
tp769
aF40.0
tp770
sg130
((lp771
(F0.029999999998835847
I7
tp772
aF40.0
tp773
ssba(imeasure_core
ProblemSetSolution
p774
(dp775
g3
g186
sg154
g749
sg157
(dp776
g189
((lp777
(F1.180000000000291
I32
tp778
aF40.06000000000131
tp779
sg238
((lp780
(F1.5199999999967986
I32
tp781
aF40.279999999998836
tp782
sg279
((lp783
(F0.32999999999810825
I25
tp784
aF40.069999999999709
tp785
sg326
((lp786
(F0.16999999999825377
I17
tp787
aF40.029999999998836
tp788
sg374
((lp789
(F9.3600000000005821
I127
tp790
aF40.0
tp791
ssba(imeasure_core
ProblemSetSolution
p792
(dp793
g3
g439
sg154
g749
sg157
(dp794
g442
((lp795
F40.349999999998545
tp796
sg493
((lp797
(F22.709999999999127
I19
tp798
aF40.470000000001164
tp799
sg538
((lp800
(F2.1100000000005821
I15
tp801
aF40.200000000000728
tp802
sg578
((lp803
(F2.5299999999988358
I16
tp804
aF40.059999999997672
tp805
sg621
((lp806
F40.340000000000146
tp807
ssba(imeasure_core
ProblemSetSolution
p808
(dp809
g3
g4
sg154
S"AnytimeBeam-w35-gf(1.3, 'exp')_with_PowerHeuristic2"
p810
sg157
(dp811
g8
((lp812
(F3.2099999999991269
I13
tp813
aF40.340000000000146
tp814
sg48
((lp815
(F0.61999999999898137
I4
tp816
aF40.349999999998545
tp817
sg75
((lp818
F40.25
tp819
sg106
((lp820
(F0.069999999999708962
I30
tp821
a(F0.81999999999970896
I28
tp822
a(F1.1699999999982538
I27
tp823
a(F1.5400000000008731
I25
tp824
a(F1.8699999999989814
I23
tp825
a(F2.5799999999981083
I21
tp826
a(F3.6599999999998545
I20
tp827
a(F5.0799999999981083
I19
tp828
a(F6.7599999999983993
I17
tp829
a(F8.3800000000010186
I15
tp830
aF40.0
tp831
sg130
((lp832
(F0.029999999998835847
I7
tp833
aF40.0
tp834
ssba(imeasure_core
ProblemSetSolution
p835
(dp836
g3
g186
sg154
g810
sg157
(dp837
g189
((lp838
(F1.3000000000029104
I32
tp839
aF40.0
tp840
sg238
((lp841
(F1.75
I32
tp842
aF40.330000000001746
tp843
sg279
((lp844
(F0.40000000000145519
I25
tp845
aF40.029999999998836
tp846
sg326
((lp847
(F0.2000000000007276
I17
tp848
aF40.020000000000437
tp849
sg374
((lp850
(F6.9799999999995634
I127
tp851
aF40.0
tp852
ssba(imeasure_core
ProblemSetSolution
p853
(dp854
g3
g439
sg154
g810
sg157
(dp855
g442
((lp856
F40.619999999998981
tp857
sg493
((lp858
(F23.610000000000582
I19
tp859
aF40.090000000000146
tp860
sg538
((lp861
(F2.2700000000004366
I15
tp862
aF40.159999999999854
tp863
sg578
((lp864
(F2.75
I16
tp865
aF40.069999999999709
tp866
sg621
((lp867
F40.299999999999272
tp868
ssba(imeasure_core
ProblemSetSolution
p869
(dp870
g3
g4
sg154
S"AnytimeBeam-w45-gf(1.3, 'exp')_with_PowerHeuristic2"
p871
sg157
(dp872
g8
((lp873
(F3.3400000000001455
I13
tp874
aF40.549999999999272
tp875
sg48
((lp876
(F0.65999999999985448
I4
tp877
aF40.279999999998836
tp878
sg75
((lp879
F40.369999999998981
tp880
sg106
((lp881
(F0.060000000001309672
I30
tp882
a(F0.60000000000218279
I28
tp883
a(F0.9500000000007276
I27
tp884
a(F1.3300000000017462
I25
tp885
a(F1.6599999999998545
I23
tp886
a(F2.3800000000010186
I21
tp887
a(F3.4600000000027649
I20
tp888
a(F4.9000000000014552
I19
tp889
a(F6.5800000000017462
I17
tp890
a(F8.2100000000027649
I15
tp891
aF40.0
tp892
sg130
((lp893
(F0.030000000002473826
I7
tp894
aF40.010000000002037
tp895
ssba(imeasure_core
ProblemSetSolution
p896
(dp897
g3
g186
sg154
g871
sg157
(dp898
g189
((lp899
(F1.3899999999994179
I32
tp900
aF40.209999999999127
tp901
sg238
((lp902
(F1.8499999999985448
I32
tp903
aF40.099999999998545
tp904
sg279
((lp905
(F0.46000000000276486
I25
tp906
aF40.05000000000291
tp907
sg326
((lp908
(F0.20999999999912689
I17
tp909
aF40.029999999998836
tp910
sg374
((lp911
(F8.180000000000291
I127
tp912
aF40.020000000000437
tp913
ssba(imeasure_core
ProblemSetSolution
p914
(dp915
g3
g439
sg154
g871
sg157
(dp916
g442
((lp917
F40.520000000000437
tp918
sg493
((lp919
(F23.789999999997235
I19
tp920
aF40.360000000000582
tp921
sg538
((lp922
(F2.3699999999989814
I15
tp923
aF40.43999999999869
tp924
sg578
((lp925
(F2.8600000000005821
I16
tp926
aF40.159999999999854
tp927
sg621
((lp928
F40.369999999998981
tp929
ssba(imeasure_core
ProblemSetSolution
p930
(dp931
g3
g4
sg154
S"AnytimeBeam-w5-gf(1.3, 'exp')_with_LinearHeuristic"
p932
sg157
(dp933
g8
((lp934
F40.110000000000582
tp935
sg48
((lp936
(F0.67000000000189175
I4
tp937
aF40.020000000000437
tp938
sg75
((lp939
(F1.8499999999985448
I17
tp940
aF40.099999999998545
tp941
sg106
((lp942
(F0.010000000002037268
I15
tp943
aF40.0
tp944
sg130
((lp945
(F0.020000000000436557
I7
tp946
aF40.0
tp947
ssba(imeasure_core
ProblemSetSolution
p948
(dp949
g3
g186
sg154
g932
sg157
(dp950
g189
((lp951
F40.120000000002619
tp952
sg238
((lp953
F40.0
tp954
sg279
((lp955
F40.029999999998836
tp956
sg326
((lp957
F40.090000000000146
tp958
sg374
((lp959
F40.040000000000873
tp960
ssba(imeasure_core
ProblemSetSolution
p961
(dp962
g3
g439
sg154
g932
sg157
(dp963
g442
((lp964
F42.979999999999563
tp965
sg493
((lp966
F43.159999999999854
tp967
sg538
((lp968
F40.030000000002474
tp969
sg578
((lp970
F40.009999999998399
tp971
sg621
((lp972
F40.520000000000437
tp973
ssba(imeasure_core
ProblemSetSolution
p974
(dp975
g3
g4
sg154
S"AnytimeBeam-w15-gf(1.3, 'exp')_with_LinearHeuristic"
p976
sg157
(dp977
g8
((lp978
F40.040000000000873
tp979
sg48
((lp980
(F0.90999999999985448
I4
tp981
aF40.349999999998545
tp982
sg75
((lp983
(F2.6700000000018917
I17
tp984
aF40.069999999999709
tp985
sg106
((lp986
(F0.010000000002037268
I15
tp987
aF40.0
tp988
sg130
((lp989
(F0.029999999998835847
I7
tp990
aF40.0
tp991
ssba(imeasure_core
ProblemSetSolution
p992
(dp993
g3
g186
sg154
g976
sg157
(dp994
g189
((lp995
F40.109999999996944
tp996
sg238
((lp997
F40.150000000001455
tp998
sg279
((lp999
F40.240000000001601
tp1000
sg326
((lp1001
F40.039999999997235
tp1002
sg374
((lp1003
F40.040000000000873
tp1004
ssba(imeasure_core
ProblemSetSolution
p1005
(dp1006
g3
g439
sg154
g976
sg157
(dp1007
g442
((lp1008
F43.110000000000582
tp1009
sg493
((lp1010
F40.020000000000437
tp1011
sg538
((lp1012
F40.020000000000437
tp1013
sg578
((lp1014
F40.18999999999869
tp1015
sg621
((lp1016
F41.0
tp1017
ssba(imeasure_core
ProblemSetSolution
p1018
(dp1019
g3
g4
sg154
S"AnytimeBeam-w25-gf(1.3, 'exp')_with_LinearHeuristic"
p1020
sg157
(dp1021
g8
((lp1022
F40.19999999999709
tp1023
sg48
((lp1024
(F0.94000000000232831
I4
tp1025
aF41.040000000000873
tp1026
sg75
((lp1027
(F2.7700000000004366
I17
tp1028
aF40.349999999998545
tp1029
sg106
((lp1030
(F0.010000000002037268
I15
tp1031
aF40.0
tp1032
sg130
((lp1033
(F0.030000000002473826
I7
tp1034
aF40.0
tp1035
ssba(imeasure_core
ProblemSetSolution
p1036
(dp1037
g3
g186
sg154
g1020
sg157
(dp1038
g189
((lp1039
F40.040000000000873
tp1040
sg238
((lp1041
(F36.510000000002037
I229
tp1042
aF40.069999999999709
tp1043
sg279
((lp1044
F40.030000000002474
tp1045
sg326
((lp1046
F40.059999999997672
tp1047
sg374
((lp1048
F40.040000000000873
tp1049
ssba(imeasure_core
ProblemSetSolution
p1050
(dp1051
g3
g439
sg154
g1020
sg157
(dp1052
g442
((lp1053
F43.160000000003492
tp1054
sg493
((lp1055
F40.009999999998399
tp1056
sg538
((lp1057
F40.079999999998108
tp1058
sg578
((lp1059
F40.150000000001455
tp1060
sg621
((lp1061
F41.069999999999709
tp1062
ssba(imeasure_core
ProblemSetSolution
p1063
(dp1064
g3
g4
sg154
S"AnytimeBeam-w35-gf(1.3, 'exp')_with_LinearHeuristic"
p1065
sg157
(dp1066
g8
((lp1067
F40.369999999998981
tp1068
sg48
((lp1069
(F1.0600000000013097
I4
tp1070
aF40.140000000003056
tp1071
sg75
((lp1072
(F3.1299999999973807
I17
tp1073
aF40.119999999998981
tp1074
sg106
((lp1075
(F0.0099999999983992893
I15
tp1076
aF40.0
tp1077
sg130
((lp1078
(F0.029999999998835847
I7
tp1079
aF40.0
tp1080
ssba(imeasure_core
ProblemSetSolution
p1081
(dp1082
g3
g186
sg154
g1065
sg157
(dp1083
g189
((lp1084
F40.030000000002474
tp1085
sg238
((lp1086
F40.099999999998545
tp1087
sg279
((lp1088
F40.080000000001746
tp1089
sg326
((lp1090
F40.099999999998545
tp1091
sg374
((lp1092
F40.119999999998981
tp1093
ssba(imeasure_core
ProblemSetSolution
p1094
(dp1095
g3
g439
sg154
g1065
sg157
(dp1096
g442
((lp1097
F43.370000000002619
tp1098
sg493
((lp1099
F40.179999999996653
tp1100
sg538
((lp1101
F40.140000000003056
tp1102
sg578
((lp1103
F40.239999999997963
tp1104
sg621
((lp1105
F40.110000000000582
tp1106
ssba(imeasure_core
ProblemSetSolution
p1107
(dp1108
g3
g4
sg154
S"AnytimeBeam-w45-gf(1.3, 'exp')_with_LinearHeuristic"
p1109
sg157
(dp1110
g8
((lp1111
F40.830000000001746
tp1112
sg48
((lp1113
(F1.1099999999969441
I4
tp1114
aF41.109999999996944
tp1115
sg75
((lp1116
(F3.25
I17
tp1117
aF40.229999999999563
tp1118
sg106
((lp1119
(F0.010000000002037268
I15
tp1120
aF40.0
tp1121
sg130
((lp1122
(F0.030000000002473826
I7
tp1123
aF40.010000000002037
tp1124
ssba(imeasure_core
ProblemSetSolution
p1125
(dp1126
g3
g186
sg154
g1109
sg157
(dp1127
g189
((lp1128
F40.159999999999854
tp1129
sg238
((lp1130
F40.240000000001601
tp1131
sg279
((lp1132
F40.059999999997672
tp1133
sg326
((lp1134
F40.069999999999709
tp1135
sg374
((lp1136
F40.069999999999709
tp1137
ssba(imeasure_core
ProblemSetSolution
p1138
(dp1139
g3
g439
sg154
g1109
sg157
(dp1140
g442
((lp1141
F43.350000000002183
tp1142
sg493
((lp1143
F40.090000000000146
tp1144
sg538
((lp1145
F40.239999999997963
tp1146
sg578
((lp1147
F40.139999999999418
tp1148
sg621
((lp1149
F40.409999999999854
tp1150
ssba.