(lp0
(imeasure_core
ProblemSetSolution
p1
(dp2
S'roomset'
p3
(imeasure_core
RoomSet
p4
(dp5
S'rooms'
p6
(dp7
(iproblems
RoomID
p8
(dp9
S'dusts'
p10
I10
sS'obstacles'
p11
(I0
I8
tp12
sS'robots'
p13
I4
sS'height'
p14
I10
sS'width'
p15
I9
sS'seed'
p16
I4712128852136459333
sb(imulti_robot_problem
MultiRobotState
p17
(dp18
S'obstacle_locations'
p19
c__builtin__
frozenset
p20
((lp21
(I0
I6
tp22
ag12
a(I2
I3
tp23
a(I1
I5
tp24
a(I8
I0
tp25
a(I1
I1
tp26
a(I0
I7
tp27
atp28
Rp29
sg15
I9
sS'dirt_locations'
p30
g20
((lp31
(I4
I7
tp32
a(I1
I3
tp33
a(I4
I9
tp34
a(I8
I1
tp35
a(I7
I6
tp36
a(I2
I6
tp37
a(I8
I7
tp38
a(I2
I2
tp39
a(I4
I1
tp40
a(I2
I4
tp41
atp42
Rp43
sg13
((I5
I8
tp44
(I6
I9
tp45
(I5
I0
tp46
(I3
I1
tp47
tp48
sg14
I10
sbs(iproblems
RoomID
p49
(dp50
g10
I9
sg11
(I3
I4
tp51
sg13
I1
sg14
I7
sg15
I8
sg16
I6613812840851947673
sb(imulti_robot_problem
MultiRobotState
p52
(dp53
g19
g20
((lp54
(I3
I5
tp55
ag51
a(I2
I4
tp56
a(I2
I1
tp57
a(I1
I4
tp58
atp59
Rp60
sg15
I8
sg30
g20
((lp61
(I6
I4
tp62
a(I5
I4
tp63
a(I6
I0
tp64
a(I7
I5
tp65
a(I1
I6
tp66
a(I2
I2
tp67
a(I0
I5
tp68
a(I4
I1
tp69
a(I4
I0
tp70
atp71
Rp72
sg13
((I3
I1
tp73
tp74
sg14
I7
sbs(iproblems
RoomID
p75
(dp76
g10
I9
sg11
(I5
I3
tp77
sg13
I3
sg14
I7
sg15
I8
sg16
I4594210616595436404
sb(imulti_robot_problem
MultiRobotState
p78
(dp79
g19
g20
((lp80
(I0
I1
tp81
a(I3
I3
tp82
a(I4
I3
tp83
a(I4
I2
tp84
a(I6
I1
tp85
ag77
atp86
Rp87
sg15
I8
sg30
g20
((lp88
(I6
I6
tp89
a(I5
I6
tp90
a(I4
I4
tp91
a(I1
I4
tp92
a(I0
I6
tp93
a(I5
I1
tp94
a(I1
I0
tp95
a(I0
I3
tp96
a(I1
I1
tp97
atp98
Rp99
sg13
((I2
I1
tp100
(I3
I4
tp101
(I3
I6
tp102
tp103
sg14
I7
sbs(iproblems
RoomID
p104
(dp105
g10
I10
sg11
(I4
I5
tp106
sg13
I1
sg14
I8
sg15
I8
sg16
I2893396244277848635
sb(imulti_robot_problem
MultiRobotState
p107
(dp108
g19
g20
((lp109
g106
a(I3
I7
tp110
a(I2
I6
tp111
a(I4
I6
tp112
atp113
Rp114
sg15
I8
sg30
g20
((lp115
(I6
I4
tp116
a(I0
I0
tp117
a(I6
I7
tp118
a(I3
I0
tp119
a(I2
I1
tp120
a(I0
I6
tp121
a(I7
I2
tp122
a(I2
I4
tp123
a(I6
I5
tp124
a(I5
I3
tp125
atp126
Rp127
sg13
((I2
I3
tp128
tp129
sg14
I8
sbs(iproblems
RoomID
p130
(dp131
g10
I10
sg11
(I4
I8
tp132
sg13
I4
sg14
I10
sg15
I7
sg16
I956523682424107605
sb(imulti_robot_problem
MultiRobotState
p133
(dp134
g19
g20
((lp135
(I2
I8
tp136
ag132
a(I3
I7
tp137
a(I2
I9
tp138
a(I4
I2
tp139
atp140
Rp141
sg15
I7
sg30
g20
((lp142
(I5
I9
tp143
a(I4
I7
tp144
a(I1
I3
tp145
a(I3
I3
tp146
a(I5
I5
tp147
a(I6
I1
tp148
a(I5
I4
tp149
a(I0
I4
tp150
a(I5
I2
tp151
a(I5
I3
tp152
atp153
Rp154
sg13
((I1
I9
tp155
(I4
I9
tp156
(I1
I8
tp157
(I0
I3
tp158
tp159
sg14
I10
sbssS'name'
p160
S'easy_roomset'
p161
sbsg160
S"AnytimeBeam-w20-gf(2, 'lin')_with_PowerHeuristic2"
p162
sS'solutions'
p163
(dp164
g8
((lp165
(F2.8500000000021828
I51
tp166
aF40.020000000000437
tp167
sg49
((lp168
(F0.090000000000145519
I36
tp169
a(F11.889999999999418
I30
tp170
a(F12.610000000000582
I29
tp171
aF40.0
tp172
sg75
((lp173
(F1.9199999999982538
I26
tp174
aF40.0
tp175
sg104
((lp176
(F0.34999999999854481
I61
tp177
a(F1.3300000000017462
I57
tp178
a(F2.25
I56
tp179
a(F3.4799999999995634
I54
tp180
a(F4.6100000000005821
I52
tp181
a(F6.5900000000001455
I51
tp182
a(F9.4599999999991269
I50
tp183
a(F12.330000000001746
I48
tp184
a(F15.340000000000146
I46
tp185
a(F18.430000000000291
I44
tp186
a(F24.759999999998399
I42
tp187
a(F32.880000000001019
I41
tp188
aF40.0
tp189
sg130
((lp190
(F0.84999999999854481
I10
tp191
aF40.009999999998399
tp192
ssba(imeasure_core
ProblemSetSolution
p193
(dp194
g3
(imeasure_core
RoomSet
p195
(dp196
g6
(dp197
(iproblems
RoomID
p198
(dp199
g10
I10
sg11
(I8
I7
tp200
sg13
I4
sg14
I12
sg15
I11
sg16
I4712128852136459333
sb(imulti_robot_problem
MultiRobotState
p201
(dp202
g19
g20
((lp203
(I6
I4
tp204
a(I4
I7
tp205
ag200
a(I4
I5
tp206
a(I3
I11
tp207
a(I0
I7
tp208
a(I7
I7
tp209
a(I1
I6
tp210
a(I1
I9
tp211
a(I2
I10
tp212
a(I4
I2
tp213
a(I1
I11
tp214
a(I6
I5
tp215
a(I5
I3
tp216
a(I9
I0
tp217
a(I0
I8
tp218
a(I5
I5
tp219
a(I7
I6
tp220
a(I3
I1
tp221
a(I2
I11
tp222
a(I0
I9
tp223
a(I2
I3
tp224
a(I4
I1
tp225
a(I1
I1
tp226
atp227
Rp228
sg15
I11
sg30
g20
((lp229
(I2
I7
tp230
a(I9
I1
tp231
a(I9
I8
tp232
a(I5
I1
tp233
a(I2
I5
tp234
a(I9
I7
tp235
a(I3
I4
tp236
a(I2
I4
tp237
a(I5
I8
tp238
a(I3
I3
tp239
atp240
Rp241
sg13
((I6
I10
tp242
(I8
I10
tp243
(I7
I0
tp244
(I5
I11
tp245
tp246
sg14
I12
sbs(iproblems
RoomID
p247
(dp248
g10
I9
sg11
(I4
I4
tp249
sg13
I3
sg14
I9
sg15
I10
sg16
I4594210616595436404
sb(imulti_robot_problem
MultiRobotState
p250
(dp251
g19
g20
((lp252
(I1
I3
tp253
a(I3
I0
tp254
a(I2
I1
tp255
a(I1
I6
tp256
a(I9
I4
tp257
a(I3
I7
tp258
a(I0
I3
tp259
a(I1
I2
tp260
a(I5
I5
tp261
a(I1
I5
tp262
a(I7
I6
tp263
ag249
a(I6
I3
tp264
a(I5
I6
tp265
a(I3
I6
tp266
a(I0
I4
tp267
a(I8
I6
tp268
a(I3
I5
tp269
a(I1
I1
tp270
a(I5
I4
tp271
a(I4
I5
tp272
a(I0
I5
tp273
a(I5
I3
tp274
a(I0
I1
tp275
a(I5
I2
tp276
a(I0
I6
tp277
a(I2
I0
tp278
a(I1
I8
tp279
a(I2
I3
tp280
a(I9
I5
tp281
a(I3
I4
tp282
a(I0
I2
tp283
atp284
Rp285
sg15
I10
sg30
g20
((lp286
(I7
I8
tp287
a(I7
I0
tp288
a(I6
I8
tp289
a(I2
I8
tp290
a(I8
I8
tp291
a(I0
I8
tp292
a(I8
I5
tp293
a(I5
I8
tp294
a(I8
I2
tp295
atp296
Rp297
sg13
((I4
I6
tp298
(I2
I5
tp299
(I6
I1
tp300
tp301
sg14
I9
sbs(iproblems
RoomID
p302
(dp303
g10
I6
sg11
(I8
I8
tp304
sg13
I4
sg14
I11
sg15
I12
sg16
I7529058068588108450
sb(imulti_robot_problem
MultiRobotState
p305
(dp306
g19
g20
((lp307
(I5
I9
tp308
a(I6
I9
tp309
a(I2
I6
tp310
a(I3
I2
tp311
a(I9
I1
tp312
a(I4
I10
tp313
a(I6
I6
tp314
a(I7
I7
tp315
a(I7
I1
tp316
a(I4
I6
tp317
a(I10
I4
tp318
a(I7
I5
tp319
a(I6
I8
tp320
a(I3
I7
tp321
a(I5
I8
tp322
a(I8
I2
tp323
a(I5
I5
tp324
a(I7
I6
tp325
a(I4
I4
tp326
a(I7
I4
tp327
a(I1
I5
tp328
ag304
a(I7
I2
tp329
a(I3
I6
tp330
a(I2
I2
tp331
a(I1
I10
tp332
a(I7
I8
tp333
a(I3
I10
tp334
atp335
Rp336
sg15
I12
sg30
g20
((lp337
(I7
I3
tp338
a(I0
I5
tp339
a(I4
I0
tp340
a(I11
I3
tp341
a(I11
I6
tp342
a(I6
I0
tp343
atp344
Rp345
sg13
((I11
I7
tp346
(I6
I2
tp347
(I11
I5
tp348
(I6
I7
tp349
tp350
sg14
I11
sbs(iproblems
RoomID
p351
(dp352
g10
I8
sg11
(I5
I0
tp353
sg13
I4
sg14
I9
sg15
I9
sg16
I6858376947525423350
sb(imulti_robot_problem
MultiRobotState
p354
(dp355
g19
g20
((lp356
(I6
I4
tp357
a(I4
I7
tp358
a(I1
I3
tp359
a(I4
I3
tp360
a(I7
I1
tp361
a(I3
I0
tp362
a(I2
I8
tp363
a(I6
I0
tp364
a(I2
I1
tp365
a(I1
I6
tp366
a(I5
I1
tp367
a(I2
I5
tp368
a(I0
I8
tp369
a(I7
I2
tp370
a(I2
I7
tp371
a(I3
I8
tp372
a(I5
I5
tp373
a(I6
I1
tp374
a(I5
I7
tp375
a(I6
I3
tp376
a(I1
I8
tp377
ag353
a(I2
I2
tp378
a(I2
I3
tp379
a(I3
I4
tp380
a(I2
I4
tp381
atp382
Rp383
sg15
I9
sg30
g20
((lp384
(I8
I3
tp385
a(I7
I0
tp386
a(I4
I6
tp387
a(I6
I6
tp388
a(I7
I5
tp389
a(I8
I0
tp390
a(I8
I8
tp391
a(I8
I4
tp392
atp393
Rp394
sg13
((I1
I1
tp395
(I6
I5
tp396
(I8
I2
tp397
(I1
I5
tp398
tp399
sg14
I9
sbs(iproblems
RoomID
p400
(dp401
g10
I5
sg11
(I4
I9
tp402
sg13
I4
sg14
I11
sg15
I11
sg16
I1881095652490078568
sb(imulti_robot_problem
MultiRobotState
p403
(dp404
g19
g20
((lp405
(I6
I9
tp406
a(I6
I6
tp407
a(I4
I5
tp408
a(I2
I8
tp409
a(I9
I3
tp410
a(I4
I7
tp411
a(I7
I5
tp412
a(I5
I4
tp413
ag402
a(I6
I5
tp414
a(I3
I5
tp415
a(I7
I4
tp416
a(I1
I7
tp417
a(I6
I7
tp418
a(I4
I6
tp419
a(I7
I6
tp420
a(I4
I4
tp421
a(I8
I10
tp422
a(I6
I3
tp423
a(I7
I10
tp424
a(I2
I2
tp425
a(I4
I8
tp426
a(I7
I8
tp427
a(I1
I1
tp428
a(I8
I4
tp429
atp430
Rp431
sg15
I11
sg30
g20
((lp432
(I1
I10
tp433
a(I5
I9
tp434
a(I0
I0
tp435
a(I10
I2
tp436
a(I9
I7
tp437
atp438
Rp439
sg13
((I5
I7
tp440
(I8
I1
tp441
(I3
I1
tp442
(I8
I8
tp443
tp444
sg14
I11
sbssg160
S'mild_roomset'
p445
sbsg160
g162
sg163
(dp446
g198
((lp447
(F2.8699999999989814
I23
tp448
aF40.239999999997963
tp449
sg247
((lp450
F40.220000000001164
tp451
sg302
((lp452
(F2.0900000000001455
I33
tp453
aF40.180000000000291
tp454
sg351
((lp455
(F0.72999999999956344
I16
tp456
aF40.18999999999869
tp457
sg400
((lp458
(F0.56000000000130967
I7
tp459
aF40.05000000000291
tp460
ssba(imeasure_core
ProblemSetSolution
p461
(dp462
g3
(imeasure_core
RoomSet
p463
(dp464
g6
(dp465
(iproblems
RoomID
p466
(dp467
g10
I15
sg11
(I5
I9
tp468
sg13
I7
sg14
I13
sg15
I12
sg16
I4712128852136459333
sb(imulti_robot_problem
MultiRobotState
p469
(dp470
g19
g20
((lp471
g468
a(I4
I9
tp472
a(I5
I5
tp473
a(I4
I12
tp474
a(I2
I8
tp475
a(I3
I1
tp476
a(I3
I9
tp477
a(I9
I4
tp478
a(I1
I7
tp479
a(I1
I10
tp480
a(I3
I12
tp481
a(I0
I8
tp482
a(I5
I2
tp483
atp484
Rp485
sg15
I12
sg30
g20
((lp486
(I6
I9
tp487
a(I3
I3
tp488
a(I1
I12
tp489
a(I5
I6
tp490
a(I7
I7
tp491
a(I3
I5
tp492
a(I3
I8
tp493
a(I8
I8
tp494
a(I10
I0
tp495
a(I2
I5
tp496
a(I10
I2
tp497
a(I3
I4
tp498
a(I1
I1
tp499
a(I5
I8
tp500
a(I9
I7
tp501
atp502
Rp503
sg13
((I6
I11
tp504
(I8
I11
tp505
(I7
I0
tp506
(I4
I1
tp507
(I6
I12
tp508
(I10
I9
tp509
(I6
I1
tp510
tp511
sg14
I13
sbs(iproblems
RoomID
p512
(dp513
g10
I14
sg11
(I5
I5
tp514
sg13
I5
sg14
I10
sg15
I11
sg16
I6613812840851947673
sb(imulti_robot_problem
MultiRobotState
p515
(dp516
g19
g20
((lp517
(I4
I7
tp518
a(I2
I6
tp519
a(I6
I6
tp520
a(I4
I5
tp521
a(I7
I5
tp522
a(I1
I6
tp523
a(I8
I7
tp524
a(I3
I7
tp525
a(I10
I3
tp526
a(I3
I5
tp527
a(I10
I8
tp528
a(I6
I3
tp529
ag514
a(I8
I5
tp530
a(I7
I4
tp531
a(I3
I8
tp532
a(I0
I6
tp533
a(I3
I6
tp534
a(I1
I3
tp535
a(I8
I6
tp536
a(I2
I4
tp537
atp538
Rp539
sg15
I11
sg30
g20
((lp540
(I6
I4
tp541
a(I3
I2
tp542
a(I4
I6
tp543
a(I4
I9
tp544
a(I3
I3
tp545
a(I9
I8
tp546
a(I8
I0
tp547
a(I8
I8
tp548
a(I5
I0
tp549
a(I1
I0
tp550
a(I8
I4
tp551
a(I5
I2
tp552
a(I6
I1
tp553
a(I9
I7
tp554
atp555
Rp556
sg13
((I5
I1
tp557
(I0
I8
tp558
(I2
I9
tp559
(I4
I1
tp560
(I7
I6
tp561
tp562
sg14
I10
sbs(iproblems
RoomID
p563
(dp564
g10
I15
sg11
(I6
I6
tp565
sg13
I5
sg14
I11
sg15
I11
sg16
I2893396244277848635
sb(imulti_robot_problem
MultiRobotState
p566
(dp567
g19
g20
((lp568
(I7
I3
tp569
a(I4
I7
tp570
a(I5
I5
tp571
a(I4
I8
tp572
a(I5
I6
tp573
a(I2
I8
tp574
ag565
a(I3
I2
tp575
a(I3
I9
tp576
a(I4
I3
tp577
a(I1
I7
tp578
a(I6
I9
tp579
atp580
Rp581
sg15
I11
sg30
g20
((lp582
(I2
I6
tp583
a(I8
I7
tp584
a(I3
I10
tp585
a(I3
I1
tp586
a(I2
I10
tp587
a(I0
I5
tp588
a(I6
I5
tp589
a(I3
I6
tp590
a(I8
I6
tp591
a(I4
I0
tp592
a(I3
I7
tp593
a(I7
I9
tp594
a(I4
I1
tp595
a(I5
I8
tp596
a(I5
I3
tp597
atp598
Rp599
sg13
((I4
I5
tp600
(I0
I9
tp601
(I0
I1
tp602
(I9
I2
tp603
(I8
I10
tp604
tp605
sg14
I11
sbs(iproblems
RoomID
p606
(dp607
g10
I15
sg11
(I4
I8
tp608
sg13
I6
sg14
I13
sg15
I10
sg16
I956523682424107605
sb(imulti_robot_problem
MultiRobotState
p609
(dp610
g19
g20
((lp611
(I5
I9
tp612
a(I6
I9
tp613
a(I7
I10
tp614
ag608
a(I5
I6
tp615
a(I3
I11
tp616
a(I9
I4
tp617
a(I4
I9
tp618
a(I5
I8
tp619
a(I2
I7
tp620
a(I5
I10
tp621
a(I5
I5
tp622
a(I3
I10
tp623
a(I5
I7
tp624
a(I9
I9
tp625
a(I5
I0
tp626
a(I7
I8
tp627
a(I1
I1
tp628
atp629
Rp630
sg15
I10
sg30
g20
((lp631
(I6
I10
tp632
a(I8
I3
tp633
a(I1
I3
tp634
a(I6
I6
tp635
a(I7
I6
tp636
a(I8
I12
tp637
a(I5
I4
tp638
a(I1
I4
tp639
a(I2
I10
tp640
a(I7
I4
tp641
a(I1
I5
tp642
a(I7
I5
tp643
a(I0
I9
tp644
a(I7
I11
tp645
a(I6
I2
tp646
atp647
Rp648
sg13
((I1
I12
tp649
(I6
I12
tp650
(I2
I11
tp651
(I0
I4
tp652
(I9
I1
tp653
(I7
I7
tp654
tp655
sg14
I13
sbs(iproblems
RoomID
p656
(dp657
g10
I13
sg11
(I1
I6
tp658
sg13
I7
sg14
I10
sg15
I10
sg16
I6858376947525423350
sb(imulti_robot_problem
MultiRobotState
p659
(dp660
g19
g20
((lp661
(I4
I7
tp662
a(I1
I3
tp663
a(I2
I8
tp664
a(I2
I2
tp665
a(I2
I1
tp666
a(I2
I3
tp667
a(I9
I5
tp668
a(I2
I5
tp669
a(I2
I7
tp670
a(I2
I9
tp671
a(I8
I1
tp672
ag658
a(I1
I7
tp673
a(I0
I9
tp674
a(I8
I6
tp675
a(I2
I4
tp676
atp677
Rp678
sg15
I10
sg30
g20
((lp679
(I8
I0
tp680
a(I4
I9
tp681
a(I3
I3
tp682
a(I3
I0
tp683
a(I7
I6
tp684
a(I5
I7
tp685
a(I9
I9
tp686
a(I4
I4
tp687
a(I6
I2
tp688
a(I9
I4
tp689
a(I8
I5
tp690
a(I5
I8
tp691
a(I5
I3
tp692
atp693
Rp694
sg13
((I1
I2
tp695
(I7
I5
tp696
(I7
I2
tp697
(I9
I2
tp698
(I1
I5
tp699
(I9
I0
tp700
(I6
I6
tp701
tp702
sg14
I10
sbssg160
S'heavy_roomset'
p703
sbsg160
g162
sg163
(dp704
g466
((lp705
F45.290000000000873
tp706
sg512
((lp707
F40.149999999997817
tp708
sg563
((lp709
(F12.220000000001164
I27
tp710
aF40.330000000001746
tp711
sg606
((lp712
(F16.930000000000291
I10
tp713
aF40.169999999998254
tp714
sg656
((lp715
F40.650000000001455
tp716
ssba(imeasure_core
ProblemSetSolution
p717
(dp718
g3
g4
sg160
S"AnytimeBeam-w20-gf(4, 'lin')_with_PowerHeuristic2"
p719
sg163
(dp720
g8
((lp721
(F2.8400000000001455
I51
tp722
aF40.010000000002037
tp723
sg49
((lp724
(F0.090000000000145519
I36
tp725
a(F3.2099999999991269
I30
tp726
a(F3.9099999999998545
I29
tp727
a(F21.599999999998545
I28
tp728
aF40.0
tp729
sg75
((lp730
(F1.9799999999995634
I26
tp731
aF40.06000000000131
tp732
sg104
((lp733
(F0.3599999999969441
I61
tp734
a(F1.3299999999981083
I57
tp735
a(F2.2399999999979627
I56
tp736
a(F3.4399999999986903
I54
tp737
a(F4.5599999999976717
I52
tp738
a(F6.5099999999983993
I51
tp739
a(F9.3799999999973807
I50
tp740
a(F12.269999999996799
I48
tp741
a(F15.289999999997235
I46
tp742
a(F18.409999999999854
I44
tp743
a(F27.149999999997817
I43
tp744
a(F35.319999999999709
I42
tp745
aF40.0
tp746
sg130
((lp747
(F0.92999999999665306
I10
tp748
aF40.069999999999709
tp749
ssba(imeasure_core
ProblemSetSolution
p750
(dp751
g3
g195
sg160
g719
sg163
(dp752
g198
((lp753
(F3.0399999999972351
I23
tp754
aF40.099999999998545
tp755
sg247
((lp756
F40.040000000000873
tp757
sg302
((lp758
(F2.5900000000001455
I33
tp759
aF40.159999999999854
tp760
sg351
((lp761
(F0.75999999999839929
I16
tp762
aF40.009999999998399
tp763
sg400
((lp764
(F0.5499999999992724
I7
tp765
aF40.130000000001019
tp766
ssba(imeasure_core
ProblemSetSolution
p767
(dp768
g3
g463
sg160
g719
sg163
(dp769
g466
((lp770
F45.340000000000146
tp771
sg512
((lp772
F40.569999999999709
tp773
sg563
((lp774
(F13.180000000000291
I27
tp775
aF40.400000000001455
tp776
sg606
((lp777
(F17.969999999997526
I10
tp778
aF40.479999999999563
tp779
sg656
((lp780
F42.180000000000291
tp781
ssba(imeasure_core
ProblemSetSolution
p782
(dp783
g3
g4
sg160
S"AnytimeBeam-w20-gf(8, 'lin')_with_PowerHeuristic2"
p784
sg163
(dp785
g8
((lp786
(F2.8699999999989814
I51
tp787
aF40.079999999998108
tp788
sg49
((lp789
(F0.090000000000145519
I36
tp790
a(F0.90999999999985448
I30
tp791
a(F1.6399999999994179
I29
tp792
a(F6.5400000000008731
I28
tp793
aF40.0
tp794
sg75
((lp795
(F2.1199999999989814
I26
tp796
aF40.06000000000131
tp797
sg104
((lp798
(F0.34999999999854481
I61
tp799
a(F1.319999999999709
I57
tp800
a(F2.2199999999975262
I56
tp801
a(F3.4199999999982538
I54
tp802
a(F4.5299999999988358
I52
tp803
a(F6.4699999999975262
I51
tp804
a(F9.319999999999709
I50
tp805
a(F12.159999999999854
I48
tp806
a(F15.159999999999854
I46
tp807
a(F18.239999999997963
I44
tp808
a(F26.849999999998545
I43
tp809
a(F34.979999999999563
I42
tp810
aF40.0
tp811
sg130
((lp812
(F1.0400000000008731
I10
tp813
aF40.180000000000291
tp814
ssba(imeasure_core
ProblemSetSolution
p815
(dp816
g3
g195
sg160
g784
sg163
(dp817
g198
((lp818
(F3.1699999999982538
I23
tp819
aF40.379999999997381
tp820
sg247
((lp821
F40.220000000001164
tp822
sg302
((lp823
(F2.7700000000004366
I33
tp824
aF40.159999999999854
tp825
sg351
((lp826
(F0.75
I16
tp827
aF40.029999999998836
tp828
sg400
((lp829
(F0.56000000000130967
I7
tp830
aF40.080000000001746
tp831
ssba(imeasure_core
ProblemSetSolution
p832
(dp833
g3
g463
sg160
g784
sg163
(dp834
g466
((lp835
F45.420000000001892
tp836
sg512
((lp837
F40.220000000001164
tp838
sg563
((lp839
(F14.539999999997235
I27
tp840
aF40.009999999998399
tp841
sg606
((lp842
(F20.25
I10
tp843
aF40.590000000000146
tp844
sg656
((lp845
F45.759999999998399
tp846
ssba(imeasure_core
ProblemSetSolution
p847
(dp848
g3
g4
sg160
S"AnytimeBeam-w20-gf(16, 'lin')_with_PowerHeuristic2"
p849
sg163
(dp850
g8
((lp851
(F2.8700000000026193
I51
tp852
aF40.0
tp853
sg49
((lp854
(F0.090000000000145519
I36
tp855
a(F0.90000000000145519
I30
tp856
a(F1.6100000000005821
I29
tp857
a(F6.4800000000032014
I28
tp858
a(F12.740000000001601
I27
tp859
a(F24.920000000001892
I26
tp860
a(F35.30000000000291
I25
tp861
aF40.0
tp862
sg75
((lp863
(F2.5800000000017462
I26
tp864
aF40.030000000002474
tp865
sg104
((lp866
(F0.34999999999854481
I61
tp867
a(F1.319999999999709
I57
tp868
a(F2.2199999999975262
I56
tp869
a(F3.4099999999998545
I54
tp870
a(F4.5299999999988358
I52
tp871
a(F6.4799999999995634
I51
tp872
a(F9.3499999999985448
I50
tp873
a(F12.200000000000728
I48
tp874
a(F15.159999999999854
I46
tp875
a(F18.219999999997526
I44
tp876
a(F26.829999999998108
I43
tp877
a(F34.979999999999563
I42
tp878
aF40.0
tp879
sg130
((lp880
(F1.0499999999992724
I10
tp881
aF40.259999999998399
tp882
ssba(imeasure_core
ProblemSetSolution
p883
(dp884
g3
g195
sg160
g849
sg163
(dp885
g198
((lp886
(F3.4200000000018917
I23
tp887
aF40.700000000000728
tp888
sg247
((lp889
F40.130000000001019
tp890
sg302
((lp891
(F2.8600000000005821
I33
tp892
aF40.25
tp893
sg351
((lp894
(F0.75999999999839929
I16
tp895
aF40.020000000000437
tp896
sg400
((lp897
(F0.55999999999767169
I7
tp898
aF40.090000000000146
tp899
ssba(imeasure_core
ProblemSetSolution
p900
(dp901
g3
g463
sg160
g849
sg163
(dp902
g466
((lp903
F45.659999999999854
tp904
sg512
((lp905
F40.049999999999272
tp906
sg563
((lp907
(F16.020000000000437
I27
tp908
aF40.029999999998836
tp909
sg606
((lp910
(F22.979999999999563
I10
tp911
aF41.330000000001746
tp912
sg656
((lp913
F41.039999999997235
tp914
ssba(imeasure_core
ProblemSetSolution
p915
(dp916
g3
g4
sg160
S"AnytimeBeam-w20-gf(2, 'lin')_with_LinearHeuristic"
p917
sg163
(dp918
g8
((lp919
F40.069999999999709
tp920
sg49
((lp921
(F0.020000000000436557
I25
tp922
aF40.0
tp923
sg75
((lp924
(F0.27000000000043656
I8
tp925
aF40.049999999999272
tp926
sg104
((lp927
(F0.020000000000436557
I32
tp928
a(F0.63000000000101863
I30
tp929
aF40.0
tp930
sg130
((lp931
F40.659999999999854
tp932
ssba(imeasure_core
ProblemSetSolution
p933
(dp934
g3
g195
sg160
g917
sg163
(dp935
g198
((lp936
F40.040000000000873
tp937
sg247
((lp938
(F20.31000000000131
I14
tp939
aF40.009999999998399
tp940
sg302
((lp941
F40.31000000000131
tp942
sg351
((lp943
F40.319999999999709
tp944
sg400
((lp945
(F0.92000000000189175
I7
tp946
aF40.130000000001019
tp947
ssba(imeasure_core
ProblemSetSolution
p948
(dp949
g3
g463
sg160
g917
sg163
(dp950
g466
((lp951
F43.850000000002183
tp952
sg512
((lp953
F40.139999999999418
tp954
sg563
((lp955
F40.029999999998836
tp956
sg606
((lp957
F40.119999999998981
tp958
sg656
((lp959
F42.330000000001746
tp960
ssba(imeasure_core
ProblemSetSolution
p961
(dp962
g3
g4
sg160
S"AnytimeBeam-w20-gf(4, 'lin')_with_LinearHeuristic"
p963
sg163
(dp964
g8
((lp965
F40.139999999999418
tp966
sg49
((lp967
(F0.010000000002037268
I25
tp968
aF40.0
tp969
sg75
((lp970
(F0.2999999999992724
I8
tp971
aF40.010000000002037
tp972
sg104
((lp973
(F0.029999999998835847
I32
tp974
a(F0.63999999999941792
I30
tp975
aF40.0
tp976
sg130
((lp977
F40.049999999999272
tp978
ssba(imeasure_core
ProblemSetSolution
p979
(dp980
g3
g195
sg160
g963
sg163
(dp981
g198
((lp982
F40.209999999999127
tp983
sg247
((lp984
(F20.639999999999418
I14
tp985
aF40.0
tp986
sg302
((lp987
F40.290000000000873
tp988
sg351
((lp989
F40.209999999999127
tp990
sg400
((lp991
(F0.9500000000007276
I7
tp992
aF40.159999999999854
tp993
ssba(imeasure_core
ProblemSetSolution
p994
(dp995
g3
g463
sg160
g963
sg163
(dp996
g466
((lp997
F43.950000000000728
tp998
sg512
((lp999
F40.760000000002037
tp1000
sg563
((lp1001
F40.149999999997817
tp1002
sg606
((lp1003
F40.100000000002183
tp1004
sg656
((lp1005
F40.0
tp1006
ssba(imeasure_core
ProblemSetSolution
p1007
(dp1008
g3
g4
sg160
S"AnytimeBeam-w20-gf(8, 'lin')_with_LinearHeuristic"
p1009
sg163
(dp1010
g8
((lp1011
F40.080000000001746
tp1012
sg49
((lp1013
(F0.020000000000436557
I25
tp1014
aF40.0
tp1015
sg75
((lp1016
(F0.2999999999992724
I8
tp1017
aF40.0
tp1018
sg104
((lp1019
(F0.029999999998835847
I32
tp1020
a(F0.63999999999941792
I30
tp1021
aF40.0
tp1022
sg130
((lp1023
F40.209999999999127
tp1024
ssba(imeasure_core
ProblemSetSolution
p1025
(dp1026
g3
g195
sg160
g1009
sg163
(dp1027
g198
((lp1028
F40.229999999999563
tp1029
sg247
((lp1030
(F22.670000000001892
I14
tp1031
aF40.0
tp1032
sg302
((lp1033
F40.140000000003056
tp1034
sg351
((lp1035
F40.259999999998399
tp1036
sg400
((lp1037
(F0.97999999999956344
I7
tp1038
aF40.220000000001164
tp1039
ssba(imeasure_core
ProblemSetSolution
p1040
(dp1041
g3
g463
sg160
g1009
sg163
(dp1042
g466
((lp1043
F44.520000000000437
tp1044
sg512
((lp1045
F40.180000000000291
tp1046
sg563
((lp1047
F40.259999999998399
tp1048
sg606
((lp1049
F40.25
tp1050
sg656
((lp1051
F42.329999999998108
tp1052
ssba(imeasure_core
ProblemSetSolution
p1053
(dp1054
g3
g4
sg160
S"AnytimeBeam-w20-gf(16, 'lin')_with_LinearHeuristic"
p1055
sg163
(dp1056
g8
((lp1057
F40.279999999998836
tp1058
sg49
((lp1059
(F0.020000000000436557
I25
tp1060
aF40.0
tp1061
sg75
((lp1062
(F0.31000000000130967
I8
tp1063
aF40.0
tp1064
sg104
((lp1065
(F0.030000000002473826
I32
tp1066
a(F0.63999999999941792
I30
tp1067
aF40.010000000002037
tp1068
sg130
((lp1069
F40.049999999999272
tp1070
ssba(imeasure_core
ProblemSetSolution
p1071
(dp1072
g3
g195
sg160
g1055
sg163
(dp1073
g198
((lp1074
F40.05000000000291
tp1075
sg247
((lp1076
(F23.409999999999854
I14
tp1077
aF40.019999999996799
tp1078
sg302
((lp1079
F40.020000000000437
tp1080
sg351
((lp1081
F40.170000000001892
tp1082
sg400
((lp1083
(F1.0099999999983993
I7
tp1084
aF40.0
tp1085
ssba(imeasure_core
ProblemSetSolution
p1086
(dp1087
g3
g463
sg160
g1055
sg163
(dp1088
g466
((lp1089
F45.409999999999854
tp1090
sg512
((lp1091
F40.440000000002328
tp1092
sg563
((lp1093
F40.090000000000146
tp1094
sg606
((lp1095
F40.019999999996799
tp1096
sg656
((lp1097
F43.659999999999854
tp1098
ssba.