(lp0
(imeasure_core
ProblemSetSolution
p1
(dp2
S'roomset'
p3
(imeasure_core
RoomSet
p4
(dp5
S'rooms'
p6
(dp7
(iproblems
RoomID
p8
(dp9
S'dusts'
p10
I8
sS'obstacles'
p11
(I2
I8
tp12
sS'robots'
p13
I4
sS'height'
p14
I10
sS'width'
p15
I7
sS'seed'
p16
I7106521602475165645
sb(imulti_robot_problem
MultiRobotState
p17
(dp18
S'obstacle_locations'
p19
c__builtin__
frozenset
p20
((lp21
(I3
I8
tp22
a(I5
I9
tp23
a(I4
I9
tp24
ag12
a(I5
I2
tp25
a(I5
I8
tp26
atp27
Rp28
sg15
I7
sS'dirt_locations'
p29
g20
((lp30
(I1
I2
tp31
a(I2
I7
tp32
a(I0
I0
tp33
a(I3
I1
tp34
a(I6
I0
tp35
a(I2
I1
tp36
a(I2
I3
tp37
a(I2
I5
tp38
atp39
Rp40
sg13
((I0
I8
tp41
(I4
I5
tp42
(I3
I9
tp43
(I1
I8
tp44
tp45
sg14
I10
sbs(iproblems
RoomID
p46
(dp47
g10
I10
sg11
(I3
I3
tp48
sg13
I4
sg14
I10
sg15
I8
sg16
I746805015404516437
sb(imulti_robot_problem
MultiRobotState
p49
(dp50
g19
g20
((lp51
(I7
I4
tp52
ag48
a(I4
I2
tp53
a(I6
I1
tp54
a(I3
I1
tp55
a(I4
I1
tp56
a(I1
I4
tp57
atp58
Rp59
sg15
I8
sg29
g20
((lp60
(I4
I6
tp61
a(I6
I3
tp62
a(I2
I0
tp63
a(I3
I9
tp64
a(I2
I3
tp65
a(I3
I6
tp66
a(I5
I1
tp67
a(I1
I0
tp68
a(I0
I8
tp69
a(I5
I8
tp70
atp71
Rp72
sg13
((I3
I8
tp73
(I4
I8
tp74
(I4
I9
tp75
(I0
I3
tp76
tp77
sg14
I10
sbs(iproblems
RoomID
p78
(dp79
g10
I6
sg11
(I7
I4
tp80
sg13
I2
sg14
I7
sg15
I9
sg16
I4029557120079369747
sb(imulti_robot_problem
MultiRobotState
p81
(dp82
g19
g20
((lp83
g80
a(I7
I5
tp84
a(I4
I1
tp85
a(I6
I1
tp86
a(I8
I5
tp87
a(I8
I4
tp88
atp89
Rp90
sg15
I9
sg29
g20
((lp91
(I2
I6
tp92
a(I6
I6
tp93
a(I3
I0
tp94
a(I2
I5
tp95
a(I1
I1
tp96
a(I5
I3
tp97
atp98
Rp99
sg13
((I6
I0
tp100
(I3
I1
tp101
tp102
sg14
I7
sbs(iproblems
RoomID
p103
(dp104
g10
I5
sg11
(I4
I5
tp105
sg13
I1
sg14
I9
sg15
I8
sg16
I6604845167042249220
sb(imulti_robot_problem
MultiRobotState
p106
(dp107
g19
g20
((lp108
(I7
I4
tp109
ag105
a(I5
I4
tp110
a(I6
I1
tp111
a(I6
I5
tp112
atp113
Rp114
sg15
I8
sg29
g20
((lp115
(I2
I8
tp116
a(I1
I0
tp117
a(I1
I1
tp118
a(I4
I3
tp119
a(I4
I8
tp120
atp121
Rp122
sg13
((I3
I6
tp123
tp124
sg14
I9
sbs(iproblems
RoomID
p125
(dp126
g10
I9
sg11
(I7
I6
tp127
sg13
I5
sg14
I9
sg15
I9
sg16
I8963783824838420066
sb(imulti_robot_problem
MultiRobotState
p128
(dp129
g19
g20
((lp130
(I2
I7
tp131
a(I5
I5
tp132
a(I6
I6
tp133
ag127
a(I4
I4
tp134
a(I7
I1
tp135
a(I7
I5
tp136
a(I2
I2
tp137
a(I6
I5
tp138
atp139
Rp140
sg15
I9
sg29
g20
((lp141
(I3
I0
tp142
a(I2
I1
tp143
a(I6
I3
tp144
a(I0
I7
tp145
a(I3
I7
tp146
a(I8
I6
tp147
a(I0
I8
tp148
a(I8
I5
tp149
a(I7
I2
tp150
atp151
Rp152
sg13
((I7
I7
tp153
(I2
I4
tp154
(I3
I2
tp155
(I4
I7
tp156
(I5
I0
tp157
tp158
sg14
I9
sbssS'name'
p159
S'easy_roomset'
p160
sbsg159
S"AnytimeBeam-w20-gf(2, 'lin')_with_PowerHeuristic2"
p161
sS'solutions'
p162
(dp163
g8
((lp164
(F0.58000000000000007
I15
tp165
aF40.160000000000004
tp166
sg46
((lp167
(F1.759999999999998
I20
tp168
aF40.089999999999996
tp169
sg78
((lp170
(F0.090000000000003411
I18
tp171
aF40.0
tp172
sg103
((lp173
(F0.07000000000000739
I35
tp174
a(F13.239999999999995
I33
tp175
a(F18.250000000000014
I30
tp176
a(F18.929999999999993
I26
tp177
a(F19.709999999999994
I25
tp178
a(F20.459999999999994
I23
tp179
a(F21.209999999999994
I21
tp180
a(F29.290000000000006
I20
tp181
a(F30.510000000000005
I18
tp182
aF40.000000000000014
tp183
sg125
((lp184
(F1.2999999999999829
I7
tp185
aF40.049999999999983
tp186
ssba(imeasure_core
ProblemSetSolution
p187
(dp188
g3
(imeasure_core
RoomSet
p189
(dp190
g6
(dp191
(iproblems
RoomID
p192
(dp193
g10
I6
sg11
(I5
I8
tp194
sg13
I3
sg14
I9
sg15
I11
sg16
I4029557120079369747
sb(imulti_robot_problem
MultiRobotState
p195
(dp196
g19
g20
((lp197
(I7
I3
tp198
a(I1
I3
tp199
a(I4
I8
tp200
a(I10
I6
tp201
a(I7
I1
tp202
a(I1
I4
tp203
a(I3
I7
tp204
a(I5
I1
tp205
a(I2
I5
tp206
a(I8
I5
tp207
ag194
a(I10
I5
tp208
a(I4
I6
tp209
a(I10
I7
tp210
a(I9
I6
tp211
a(I6
I1
tp212
a(I4
I4
tp213
a(I6
I3
tp214
a(I3
I6
tp215
a(I1
I7
tp216
a(I9
I5
tp217
a(I2
I4
tp218
a(I8
I4
tp219
atp220
Rp221
sg15
I11
sg29
g20
((lp222
(I3
I8
tp223
a(I8
I8
tp224
a(I7
I2
tp225
a(I5
I2
tp226
a(I1
I1
tp227
a(I2
I1
tp228
atp229
Rp230
sg13
((I8
I0
tp231
(I3
I1
tp232
(I4
I0
tp233
tp234
sg14
I9
sbs(iproblems
RoomID
p235
(dp236
g10
I10
sg11
(I4
I4
tp237
sg13
I4
sg14
I12
sg15
I12
sg16
I2569146471088859254
sb(imulti_robot_problem
MultiRobotState
p238
(dp239
g19
g20
((lp240
(I5
I4
tp241
a(I4
I8
tp242
a(I4
I5
tp243
a(I11
I2
tp244
a(I4
I7
tp245
a(I1
I9
tp246
a(I10
I3
tp247
a(I5
I8
tp248
a(I5
I5
tp249
a(I3
I3
tp250
ag237
a(I2
I11
tp251
a(I5
I6
tp252
a(I7
I2
tp253
a(I4
I3
tp254
a(I2
I2
tp255
a(I10
I0
tp256
a(I5
I11
tp257
a(I1
I1
tp258
atp259
Rp260
sg15
I12
sg29
g20
((lp261
(I2
I7
tp262
a(I10
I10
tp263
a(I3
I0
tp264
a(I3
I11
tp265
a(I0
I2
tp266
a(I1
I5
tp267
a(I9
I4
tp268
a(I0
I8
tp269
a(I2
I4
tp270
a(I11
I6
tp271
atp272
Rp273
sg13
((I9
I11
tp274
(I7
I10
tp275
(I6
I0
tp276
(I10
I1
tp277
tp278
sg14
I12
sbs(iproblems
RoomID
p279
(dp280
g10
I6
sg11
(I4
I5
tp281
sg13
I3
sg14
I12
sg15
I12
sg16
I1360307757430227195
sb(imulti_robot_problem
MultiRobotState
p282
(dp283
g19
g20
((lp284
(I6
I4
tp285
a(I3
I2
tp286
a(I10
I4
tp287
a(I3
I0
tp288
a(I5
I4
tp289
a(I7
I5
tp290
a(I5
I1
tp291
a(I8
I5
tp292
a(I6
I5
tp293
a(I4
I0
tp294
a(I7
I4
tp295
a(I8
I3
tp296
a(I6
I7
tp297
a(I5
I5
tp298
a(I8
I10
tp299
a(I6
I3
tp300
a(I5
I6
tp301
a(I6
I2
tp302
ag281
a(I9
I5
tp303
a(I5
I3
tp304
atp305
Rp306
sg15
I12
sg29
g20
((lp307
(I3
I3
tp308
a(I4
I3
tp309
a(I9
I2
tp310
a(I5
I7
tp311
a(I0
I2
tp312
a(I11
I6
tp313
atp314
Rp315
sg13
((I11
I11
tp316
(I1
I3
tp317
(I0
I1
tp318
tp319
sg14
I12
sbs(iproblems
RoomID
p320
(dp321
g10
I7
sg11
(I5
I4
tp322
sg13
I3
sg14
I11
sg15
I12
sg16
I2577854692418029171
sb(imulti_robot_problem
MultiRobotState
p323
(dp324
g19
g20
((lp325
(I4
I7
tp326
a(I3
I0
tp327
a(I8
I0
tp328
a(I2
I1
tp329
a(I6
I2
tp330
a(I1
I6
tp331
a(I5
I1
tp332
a(I4
I0
tp333
a(I1
I2
tp334
a(I4
I9
tp335
a(I3
I3
tp336
a(I8
I1
tp337
a(I3
I10
tp338
a(I6
I3
tp339
a(I3
I6
tp340
a(I1
I10
tp341
a(I8
I6
tp342
a(I3
I5
tp343
ag322
a(I2
I6
tp344
a(I7
I1
tp345
a(I6
I0
tp346
a(I1
I9
tp347
a(I4
I2
tp348
a(I0
I8
tp349
a(I5
I3
tp350
a(I0
I1
tp351
a(I7
I0
tp352
a(I5
I2
tp353
a(I6
I1
tp354
a(I3
I1
tp355
a(I3
I8
tp356
a(I3
I4
tp357
a(I2
I4
tp358
atp359
Rp360
sg15
I12
sg29
g20
((lp361
(I4
I10
tp362
a(I10
I5
tp363
a(I10
I1
tp364
a(I2
I8
tp365
a(I7
I6
tp366
a(I4
I4
tp367
a(I9
I7
tp368
atp369
Rp370
sg13
((I10
I6
tp371
(I1
I4
tp372
(I11
I8
tp373
tp374
sg14
I11
sbs(iproblems
RoomID
p375
(dp376
g10
I6
sg11
(I2
I4
tp377
sg13
I3
sg14
I10
sg15
I10
sg16
I1821862095355237593
sb(imulti_robot_problem
MultiRobotState
p378
(dp379
g19
g20
((lp380
(I6
I4
tp381
a(I4
I7
tp382
a(I2
I6
tp383
a(I5
I6
tp384
a(I6
I0
tp385
a(I1
I9
tp386
a(I8
I5
tp387
a(I7
I2
tp388
a(I7
I9
tp389
a(I5
I3
tp390
a(I6
I7
tp391
a(I3
I3
tp392
a(I5
I5
tp393
a(I4
I4
tp394
a(I6
I3
tp395
a(I4
I5
tp396
a(I6
I5
tp397
a(I4
I3
tp398
a(I0
I4
tp399
a(I8
I6
tp400
a(I3
I5
tp401
a(I3
I4
tp402
ag377
atp403
Rp404
sg15
I10
sg29
g20
((lp405
(I0
I6
tp406
a(I7
I0
tp407
a(I5
I1
tp408
a(I2
I3
tp409
a(I2
I8
tp410
a(I9
I6
tp411
atp412
Rp413
sg13
((I2
I2
tp414
(I4
I2
tp415
(I0
I7
tp416
tp417
sg14
I10
sbssg159
S'mild_roomset'
p418
sbsg159
g161
sg162
(dp419
g192
((lp420
(F0.15000000000000568
I15
tp421
aF40.02000000000001
tp422
sg235
((lp423
(F5.1100000000000136
I122
tp424
aF40.010000000000019
tp425
sg320
((lp426
(F0.51999999999998181
I34
tp427
a(F8.0600000000000023
I29
tp428
aF40.019999999999982
tp429
sg375
((lp430
(F0.14999999999997726
I13
tp431
aF40.029999999999973
tp432
sg279
((lp433
F40.120000000000005
tp434
ssba(imeasure_core
ProblemSetSolution
p435
(dp436
g3
(imeasure_core
RoomSet
p437
(dp438
g6
(dp439
(iproblems
RoomID
p440
(dp441
g10
I13
sg11
(I5
I3
tp442
sg13
I6
sg14
I13
sg15
I10
sg16
I7106521602475165645
sb(imulti_robot_problem
MultiRobotState
p443
(dp444
g19
g20
((lp445
(I5
I6
tp446
a(I5
I11
tp447
a(I7
I12
tp448
a(I0
I12
tp449
a(I2
I3
tp450
a(I6
I12
tp451
a(I7
I2
tp452
ag442
a(I1
I2
tp453
a(I4
I5
tp454
a(I8
I12
tp455
a(I7
I1
tp456
a(I2
I11
tp457
a(I6
I3
tp458
a(I6
I11
tp459
a(I0
I4
tp460
a(I0
I9
tp461
a(I0
I5
tp462
a(I3
I4
tp463
atp464
Rp465
sg15
I10
sg29
g20
((lp466
(I0
I1
tp467
a(I8
I3
tp468
a(I4
I6
tp469
a(I7
I11
tp470
a(I6
I9
tp471
a(I0
I11
tp472
a(I3
I9
tp473
a(I2
I12
tp474
a(I8
I6
tp475
a(I5
I1
tp476
a(I3
I7
tp477
a(I0
I3
tp478
a(I3
I5
tp479
atp480
Rp481
sg13
((I0
I10
tp482
(I6
I7
tp483
(I4
I11
tp484
(I1
I11
tp485
(I9
I0
tp486
(I3
I1
tp487
tp488
sg14
I13
sbs(iproblems
RoomID
p489
(dp490
g10
I15
sg11
(I9
I4
tp491
sg13
I6
sg14
I13
sg15
I11
sg16
I746805015404516437
sb(imulti_robot_problem
MultiRobotState
p492
(dp493
g19
g20
((lp494
(I8
I0
tp495
a(I4
I8
tp496
a(I4
I5
tp497
a(I10
I6
tp498
a(I6
I0
tp499
a(I3
I5
tp500
a(I3
I9
tp501
ag491
a(I4
I2
tp502
a(I7
I2
tp503
a(I7
I9
tp504
a(I10
I5
tp505
a(I5
I5
tp506
a(I4
I4
tp507
a(I1
I8
tp508
a(I8
I6
tp509
a(I5
I3
tp510
a(I5
I2
tp511
a(I2
I4
tp512
a(I9
I7
tp513
atp514
Rp515
sg15
I11
sg29
g20
((lp516
(I3
I12
tp517
a(I9
I1
tp518
a(I7
I1
tp519
a(I8
I1
tp520
a(I6
I10
tp521
a(I8
I9
tp522
a(I2
I0
tp523
a(I2
I3
tp524
a(I0
I10
tp525
a(I2
I2
tp526
a(I7
I11
tp527
a(I2
I5
tp528
a(I8
I5
tp529
a(I5
I8
tp530
a(I4
I11
tp531
atp532
Rp533
sg13
((I4
I10
tp534
(I6
I11
tp535
(I5
I12
tp536
(I0
I5
tp537
(I1
I0
tp538
(I7
I10
tp539
tp540
sg14
I13
sbs(iproblems
RoomID
p541
(dp542
g10
I11
sg11
(I9
I6
tp543
sg13
I6
sg14
I10
sg15
I12
sg16
I4029557120079369747
sb(imulti_robot_problem
MultiRobotState
p544
(dp545
g19
g20
((lp546
(I11
I7
tp547
a(I10
I6
tp548
a(I5
I5
tp549
a(I7
I1
tp550
a(I10
I7
tp551
a(I9
I8
tp552
a(I4
I4
tp553
a(I1
I6
tp554
a(I3
I6
tp555
a(I1
I7
tp556
ag543
a(I11
I6
tp557
atp558
Rp559
sg15
I12
sg29
g20
((lp560
(I1
I2
tp561
a(I1
I3
tp562
a(I4
I9
tp563
a(I8
I2
tp564
a(I8
I1
tp565
a(I6
I1
tp566
a(I2
I1
tp567
a(I7
I4
tp568
a(I1
I8
tp569
a(I5
I2
tp570
a(I1
I1
tp571
atp572
Rp573
sg13
((I8
I0
tp574
(I4
I1
tp575
(I4
I0
tp576
(I3
I9
tp577
(I8
I9
tp578
(I3
I8
tp579
tp580
sg14
I10
sbs(iproblems
RoomID
p581
(dp582
g10
I15
sg11
(I5
I5
tp583
sg13
I6
sg14
I13
sg15
I13
sg16
I2569146471088859254
sb(imulti_robot_problem
MultiRobotState
p584
(dp585
g19
g20
((lp586
(I12
I2
tp587
a(I5
I4
tp588
a(I3
I3
tp589
a(I5
I9
tp590
a(I4
I5
tp591
a(I6
I1
tp592
a(I10
I10
tp593
a(I8
I8
tp594
a(I4
I3
tp595
a(I2
I2
tp596
a(I9
I11
tp597
a(I8
I12
tp598
a(I1
I1
tp599
a(I12
I3
tp600
ag583
atp601
Rp602
sg15
I13
sg29
g20
((lp603
(I10
I5
tp604
a(I3
I12
tp605
a(I8
I2
tp606
a(I5
I6
tp607
a(I12
I7
tp608
a(I11
I3
tp609
a(I0
I2
tp610
a(I11
I0
tp611
a(I0
I9
tp612
a(I2
I12
tp613
a(I1
I10
tp614
a(I3
I7
tp615
a(I10
I11
tp616
a(I2
I4
tp617
a(I5
I12
tp618
atp619
Rp620
sg13
((I9
I12
tp621
(I7
I11
tp622
(I7
I0
tp623
(I10
I1
tp624
(I1
I5
tp625
(I4
I0
tp626
tp627
sg14
I13
sbs(iproblems
RoomID
p628
(dp629
g10
I10
sg11
(I6
I7
tp630
sg13
I5
sg14
I12
sg15
I11
sg16
I6604845167042249220
sb(imulti_robot_problem
MultiRobotState
p631
(dp632
g19
g20
((lp633
(I9
I0
tp634
ag630
a(I7
I1
tp635
a(I2
I8
tp636
a(I10
I6
tp637
a(I7
I7
tp638
a(I8
I8
tp639
a(I9
I4
tp640
a(I8
I6
tp641
a(I7
I11
tp642
a(I9
I7
tp643
atp644
Rp645
sg15
I11
sg29
g20
((lp646
(I10
I5
tp647
a(I3
I3
tp648
a(I5
I11
tp649
a(I8
I1
tp650
a(I9
I8
tp651
a(I6
I9
tp652
a(I0
I7
tp653
a(I0
I10
tp654
a(I4
I1
tp655
a(I8
I4
tp656
atp657
Rp658
sg13
((I4
I8
tp659
(I1
I0
tp660
(I2
I2
tp661
(I3
I11
tp662
(I6
I5
tp663
tp664
sg14
I12
sbssg159
S'heavy_roomset'
p665
sbsg159
g161
sg162
(dp666
g440
((lp667
F40.670000000000016
tp668
sg489
((lp669
F40.150000000000034
tp670
sg541
((lp671
(F6.5600000000000023
I6
tp672
aF40.45999999999998
tp673
sg581
((lp674
(F32.17999999999995
I27
tp675
aF40.710000000000036
tp676
sg628
((lp677
(F5.3600000000000136
I21
tp678
aF40.360000000000014
tp679
ssba(imeasure_core
ProblemSetSolution
p680
(dp681
g3
g4
sg159
S"AnytimeBeam-w20-gf(4, 'lin')_with_PowerHeuristic2"
p682
sg162
(dp683
g8
((lp684
(F0.57999999999992724
I15
tp685
aF40.0
tp686
sg46
((lp687
(F1.7599999999999909
I20
tp688
aF40.019999999999982
tp689
sg78
((lp690
(F0.089999999999918145
I18
tp691
aF40.009999999999991
tp692
sg103
((lp693
(F0.069999999999936335
I35
tp694
a(F6.7300000000000182
I33
tp695
a(F9.2699999999999818
I30
tp696
a(F9.9499999999999318
I26
tp697
a(F10.75
I25
tp698
a(F11.509999999999991
I23
tp699
a(F12.269999999999982
I21
tp700
a(F13.590000000000032
I20
tp701
a(F14.809999999999945
I18
tp702
aF40.0
tp703
sg125
((lp704
(F1.3099999999999454
I7
tp705
aF40.049999999999955
tp706
ssba(imeasure_core
ProblemSetSolution
p707
(dp708
g3
g189
sg159
g682
sg162
(dp709
g192
((lp710
(F0.14999999999997726
I15
tp711
aF40.029999999999973
tp712
sg235
((lp713
(F5.1000000000000227
I122
tp714
aF40.050000000000068
tp715
sg320
((lp716
(F0.52999999999997272
I34
tp717
a(F4.67999999999995
I29
tp718
aF40.009999999999991
tp719
sg375
((lp720
(F0.14999999999997726
I13
tp721
aF40.0
tp722
sg279
((lp723
F40.139999999999986
tp724
ssba(imeasure_core
ProblemSetSolution
p725
(dp726
g3
g437
sg159
g682
sg162
(dp727
g440
((lp728
F40.6400000000001
tp729
sg489
((lp730
F40.139999999999873
tp731
sg541
((lp732
(F6.5499999999999545
I6
tp733
aF40.309999999999945
tp734
sg581
((lp735
(F32.080000000000155
I27
tp736
aF40.620000000000118
tp737
sg628
((lp738
(F5.3599999999999
I21
tp739
aF40.1099999999999
tp740
ssba(imeasure_core
ProblemSetSolution
p741
(dp742
g3
g4
sg159
S"AnytimeBeam-w20-gf(8, 'lin')_with_PowerHeuristic2"
p743
sg162
(dp744
g8
((lp745
(F0.57000000000016371
I15
tp746
aF40.220000000000027
tp747
sg46
((lp748
(F1.7599999999999909
I20
tp749
aF40.029999999999973
tp750
sg78
((lp751
(F0.090000000000145519
I18
tp752
aF40.0
tp753
sg103
((lp754
(F0.070000000000163709
I35
tp755
a(F3.4300000000000637
I33
tp756
a(F5.1400000000001
I30
tp757
a(F5.8200000000001637
I26
tp758
a(F6.6100000000001273
I25
tp759
a(F7.3700000000001182
I23
tp760
a(F8.1300000000001091
I21
tp761
a(F9.4500000000000455
I20
tp762
a(F10.680000000000064
I18
tp763
aF40.0
tp764
sg125
((lp765
(F1.3100000000001728
I7
tp766
aF40.009999999999991
tp767
ssba(imeasure_core
ProblemSetSolution
p768
(dp769
g3
g189
sg159
g743
sg162
(dp770
g192
((lp771
(F0.14000000000010004
I15
tp772
aF40.0300000000002
tp773
sg235
((lp774
(F5.1099999999999
I122
tp775
aF40.0
tp776
sg320
((lp777
(F0.51999999999998181
I34
tp778
a(F2.6200000000001182
I29
tp779
aF40.0
tp780
sg375
((lp781
(F0.15000000000009095
I13
tp782
aF40.029999999999973
tp783
sg279
((lp784
F40.179999999999836
tp785
ssba(imeasure_core
ProblemSetSolution
p786
(dp787
g3
g437
sg159
g743
sg162
(dp788
g440
((lp789
F40.980000000000018
tp790
sg489
((lp791
F40.340000000000146
tp792
sg541
((lp793
(F6.5399999999999636
I6
tp794
aF40.449999999999818
tp795
sg581
((lp796
(F32.110000000000127
I27
tp797
aF40.610000000000127
tp798
sg628
((lp799
(F5.3399999999999181
I21
tp800
aF40.019999999999982
tp801
ssba(imeasure_core
ProblemSetSolution
p802
(dp803
g3
g4
sg159
S"AnytimeBeam-w20-gf(16, 'lin')_with_PowerHeuristic2"
p804
sg162
(dp805
g8
((lp806
(F0.57999999999992724
I15
tp807
aF40.190000000000055
tp808
sg46
((lp809
(F1.7599999999999909
I20
tp810
aF40.019999999999982
tp811
sg78
((lp812
(F0.07999999999992724
I18
tp813
aF40.0
tp814
sg103
((lp815
(F0.069999999999936335
I35
tp816
a(F2.1399999999998727
I33
tp817
a(F3.0
I30
tp818
a(F3.6800000000000637
I26
tp819
a(F4.4600000000000364
I25
tp820
a(F5.2200000000000273
I23
tp821
a(F5.9600000000000364
I21
tp822
a(F7.2799999999999727
I20
tp823
a(F8.5
I18
tp824
aF40.0
tp825
sg125
((lp826
(F1.2999999999999545
I7
tp827
aF40.059999999999945
tp828
ssba(imeasure_core
ProblemSetSolution
p829
(dp830
g3
g189
sg159
g804
sg162
(dp831
g192
((lp832
(F0.15000000000009095
I15
tp833
aF40.0
tp834
sg235
((lp835
(F5.1100000000001273
I122
tp836
aF40.139999999999873
tp837
sg320
((lp838
(F0.51999999999998181
I34
tp839
a(F2.0199999999999818
I29
tp840
aF40.039999999999964
tp841
sg375
((lp842
(F0.15000000000009095
I13
tp843
aF40.0
tp844
sg279
((lp845
F40.230000000000018
tp846
ssba(imeasure_core
ProblemSetSolution
p847
(dp848
g3
g437
sg159
g804
sg162
(dp849
g440
((lp850
F40.720000000000255
tp851
sg489
((lp852
F40.170000000000073
tp853
sg541
((lp854
(F6.5199999999999818
I6
tp855
aF40.690000000000055
tp856
sg581
((lp857
(F32.129999999999654
I27
tp858
aF40.699999999999818
tp859
sg628
((lp860
(F5.3600000000001273
I21
tp861
aF40.559999999999945
tp862
ssba(imeasure_core
ProblemSetSolution
p863
(dp864
g3
g4
sg159
S"AnytimeBeam-w20-gf(2, 'lin')_with_LinearHeuristic"
p865
sg162
(dp866
g8
((lp867
(F11.920000000000073
I155
tp868
aF40.010000000000218
tp869
sg46
((lp870
(F1.5499999999997272
I24
tp871
aF40.0
tp872
sg78
((lp873
(F0.03999999999996362
I10
tp874
aF40.0
tp875
sg103
((lp876
(F0.0099999999997635314
I18
tp877
aF40.0
tp878
sg125
((lp879
(F14.480000000000018
I91
tp880
aF40.109999999999673
tp881
ssba(imeasure_core
ProblemSetSolution
p882
(dp883
g3
g189
sg159
g865
sg162
(dp884
g192
((lp885
F40.069999999999709
tp886
sg235
((lp887
F40.0300000000002
tp888
sg320
((lp889
F40.129999999999654
tp890
sg375
((lp891
(F11.360000000000127
I134
tp892
aF40.010000000000218
tp893
sg279
((lp894
F40.050000000000182
tp895
ssba(imeasure_core
ProblemSetSolution
p896
(dp897
g3
g437
sg159
g865
sg162
(dp898
g440
((lp899
F40.239999999999782
tp900
sg489
((lp901
F40.100000000000364
tp902
sg541
((lp903
(F8.8299999999999272
I7
tp904
aF41.709999999999582
tp905
sg581
((lp906
F40.370000000000346
tp907
sg628
((lp908
F40.319999999999709
tp909
ssba(imeasure_core
ProblemSetSolution
p910
(dp911
g3
g4
sg159
S"AnytimeBeam-w20-gf(4, 'lin')_with_LinearHeuristic"
p912
sg162
(dp913
g8
((lp914
(F11.880000000000109
I155
tp915
aF40.0300000000002
tp916
sg46
((lp917
(F1.5500000000001819
I24
tp918
aF40.039999999999964
tp919
sg78
((lp920
(F0.03999999999996362
I10
tp921
aF40.0
tp922
sg103
((lp923
(F0.010000000000218279
I18
tp924
aF40.0
tp925
sg125
((lp926
(F14.440000000000055
I91
tp927
aF40.119999999999891
tp928
ssba(imeasure_core
ProblemSetSolution
p929
(dp930
g3
g189
sg159
g912
sg162
(dp931
g192
((lp932
F40.079999999999927
tp933
sg235
((lp934
F40.0300000000002
tp935
sg320
((lp936
F40.130000000000109
tp937
sg375
((lp938
(F11.420000000000073
I134
tp939
aF40.0
tp940
sg279
((lp941
F40.099999999999909
tp942
ssba(imeasure_core
ProblemSetSolution
p943
(dp944
g3
g437
sg159
g912
sg162
(dp945
g440
((lp946
F40.0
tp947
sg489
((lp948
F40.050000000000182
tp949
sg541
((lp950
(F8.8600000000001273
I7
tp951
aF42.360000000000127
tp952
sg581
((lp953
F40.489999999999782
tp954
sg628
((lp955
F40.380000000000109
tp956
ssba(imeasure_core
ProblemSetSolution
p957
(dp958
g3
g4
sg159
S"AnytimeBeam-w20-gf(8, 'lin')_with_LinearHeuristic"
p959
sg162
(dp960
g8
((lp961
(F11.900000000000091
I155
tp962
aF40.010000000000218
tp963
sg46
((lp964
(F1.5399999999999636
I24
tp965
aF40.069999999999709
tp966
sg78
((lp967
(F0.03999999999996362
I10
tp968
aF40.010000000000218
tp969
sg103
((lp970
(F0.0099999999997635314
I18
tp971
aF40.0
tp972
sg125
((lp973
(F14.4699999999998
I91
tp974
aF40.059999999999945
tp975
ssba(imeasure_core
ProblemSetSolution
p976
(dp977
g3
g189
sg159
g959
sg162
(dp978
g192
((lp979
F40.100000000000364
tp980
sg235
((lp981
F40.279999999999745
tp982
sg320
((lp983
F40.129999999999654
tp984
sg375
((lp985
(F11.7800000000002
I134
tp986
aF40.0
tp987
sg279
((lp988
F40.050000000000182
tp989
ssba(imeasure_core
ProblemSetSolution
p990
(dp991
g3
g437
sg159
g959
sg162
(dp992
g440
((lp993
F40.050000000000182
tp994
sg489
((lp995
F40.179999999999836
tp996
sg541
((lp997
(F8.8400000000001455
I7
tp998
aF40.460000000000036
tp999
sg581
((lp1000
F40.590000000000146
tp1001
sg628
((lp1002
F40.019999999999527
tp1003
ssba(imeasure_core
ProblemSetSolution
p1004
(dp1005
g3
g4
sg159
S"AnytimeBeam-w20-gf(16, 'lin')_with_LinearHeuristic"
p1006
sg162
(dp1007
g8
((lp1008
(F11.909999999999854
I155
tp1009
aF40.109999999999673
tp1010
sg46
((lp1011
(F1.5500000000001819
I24
tp1012
aF40.100000000000364
tp1013
sg78
((lp1014
(F0.03999999999996362
I10
tp1015
aF40.0
tp1016
sg103
((lp1017
(F0.020000000000436557
I18
tp1018
aF40.0
tp1019
sg125
((lp1020
(F14.510000000000218
I91
tp1021
aF40.069999999999709
tp1022
ssba(imeasure_core
ProblemSetSolution
p1023
(dp1024
g3
g189
sg159
g1006
sg162
(dp1025
g192
((lp1026
F40.090000000000146
tp1027
sg235
((lp1028
F40.260000000000218
tp1029
sg320
((lp1030
F40.069999999999709
tp1031
sg375
((lp1032
(F12.329999999999927
I134
tp1033
a(F30.369999999999891
I133
tp1034
aF40.0600000000004
tp1035
sg279
((lp1036
F40.0
tp1037
ssba(imeasure_core
ProblemSetSolution
p1038
(dp1039
g3
g437
sg159
g1006
sg162
(dp1040
g440
((lp1041
F40.039999999999964
tp1042
sg489
((lp1043
F40.039999999999964
tp1044
sg541
((lp1045
(F8.8400000000001455
I7
tp1046
aF40.880000000000109
tp1047
sg581
((lp1048
F40.429999999999382
tp1049
sg628
((lp1050
F40.100000000000364
tp1051
ssba.