(lp0
(imeasure_core
ProblemSetSolution
p1
(dp2
S'roomset'
p3
(imeasure_core
RoomSet
p4
(dp5
S'rooms'
p6
(dp7
(iproblems
RoomID
p8
(dp9
S'width'
p10
I7
sS'dusts'
p11
I8
sS'seed'
p12
I7283207964119141687
sS'obstacles'
p13
(I2
I4
tp14
sS'robots'
p15
I4
sS'height'
p16
I9
sb(imulti_robot_problem
MultiRobotState
p17
(dp18
S'obstacle_locations'
p19
c__builtin__
frozenset
p20
((lp21
(I4
I6
tp22
a(I3
I0
tp23
a(I4
I3
tp24
a(I4
I2
tp25
a(I3
I4
tp26
ag14
a(I3
I3
tp27
atp28
Rp29
sg10
I7
sS'dirt_locations'
p30
g20
((lp31
(I4
I5
tp32
a(I5
I7
tp33
a(I0
I6
tp34
a(I1
I6
tp35
a(I5
I0
tp36
a(I5
I1
tp37
a(I5
I2
tp38
a(I1
I1
tp39
atp40
Rp41
sg15
((I1
I5
tp42
(I5
I5
tp43
(I3
I1
tp44
(I3
I5
tp45
tp46
sg16
I9
sbs(iproblems
RoomID
p47
(dp48
g10
I8
sg11
I8
sg12
I890727360438182992
sg13
(I4
I6
tp49
sg15
I2
sg16
I10
sb(imulti_robot_problem
MultiRobotState
p50
(dp51
g19
g20
((lp52
(I0
I0
tp53
ag49
a(I6
I6
tp54
a(I5
I6
tp55
a(I7
I6
tp56
a(I7
I4
tp57
a(I4
I2
tp58
a(I2
I4
tp59
atp60
Rp61
sg10
I8
sg30
g20
((lp62
(I7
I0
tp63
a(I7
I1
tp64
a(I6
I3
tp65
a(I1
I8
tp66
a(I0
I5
tp67
a(I5
I1
tp68
a(I1
I0
tp69
a(I0
I3
tp70
atp71
Rp72
sg15
((I2
I8
tp73
(I2
I5
tp74
tp75
sg16
I10
sbs(iproblems
RoomID
p76
(dp77
g10
I10
sg11
I7
sg12
I1585446675937841368
sg13
(I4
I1
tp78
sg15
I3
sg16
I10
sb(imulti_robot_problem
MultiRobotState
p79
(dp80
g19
g20
((lp81
(I3
I2
tp82
a(I2
I6
tp83
a(I6
I7
tp84
a(I6
I1
tp85
a(I5
I8
tp86
a(I5
I0
tp87
ag78
a(I2
I4
tp88
a(I7
I2
tp89
atp90
Rp91
sg10
I10
sg30
g20
((lp92
(I7
I3
tp93
a(I2
I9
tp94
a(I1
I7
tp95
a(I9
I4
tp96
a(I2
I2
tp97
a(I5
I2
tp98
a(I9
I7
tp99
atp100
Rp101
sg15
((I8
I9
tp102
(I4
I4
tp103
(I9
I8
tp104
tp105
sg16
I10
sbs(iproblems
RoomID
p106
(dp107
g10
I9
sg11
I10
sg12
I3960482443532127989
sg13
(I6
I5
tp108
sg15
I5
sg16
I8
sb(imulti_robot_problem
MultiRobotState
p109
(dp110
g19
g20
((lp111
(I4
I5
tp112
a(I5
I5
tp113
ag108
a(I6
I6
tp114
atp115
Rp116
sg10
I9
sg30
g20
((lp117
(I2
I7
tp118
a(I2
I6
tp119
a(I3
I6
tp120
a(I5
I7
tp121
a(I1
I4
tp122
a(I1
I5
tp123
a(I5
I0
tp124
a(I8
I0
tp125
a(I8
I5
tp126
a(I5
I3
tp127
atp128
Rp129
sg15
((I4
I3
tp130
(I8
I7
tp131
(I1
I6
tp132
(I7
I3
tp133
(I6
I4
tp134
tp135
sg16
I8
sbs(iproblems
RoomID
p136
(dp137
g10
I8
sg11
I5
sg12
I1736392818365009963
sg13
(I7
I3
tp138
sg15
I1
sg16
I7
sb(imulti_robot_problem
MultiRobotState
p139
(dp140
g19
g20
((lp141
g138
a(I2
I6
tp142
a(I7
I0
tp143
a(I7
I1
tp144
a(I2
I1
tp145
a(I6
I3
tp146
a(I0
I4
tp147
a(I7
I2
tp148
atp149
Rp150
sg10
I8
sg30
g20
((lp151
(I0
I1
tp152
a(I6
I2
tp153
a(I1
I6
tp154
a(I4
I4
tp155
a(I0
I0
tp156
atp157
Rp158
sg15
((I3
I1
tp159
tp160
sg16
I7
sbssS'name'
p161
S'easy_roomset'
p162
sbsS'name'
p163
S"AnytimeBeam-w5-gf(1.3, 'exp')_with_PowerHeuristic2"
p164
sS'solutions'
p165
(dp166
g8
((lp167
(F1.0500000000029104
I28
tp168
aF40.0
tp169
sg47
((lp170
(F0.040000000000873115
I19
tp171
aF40.0
tp172
sg76
((lp173
(F0.13000000000465661
I14
tp174
aF40.040000000000873
tp175
sg106
((lp176
(F1.5199999999967986
I10
tp177
aF40.05000000000291
tp178
sg136
((lp179
(F0.069999999999708962
I30
tp180
a(F0.13999999999941792
I28
tp181
a(F1.0
I27
tp182
a(F1.7099999999991269
I25
tp183
a(F2.0599999999976717
I23
tp184
a(F2.3600000000005821
I22
tp185
a(F3.569999999999709
I21
tp186
a(F4.6499999999941792
I20
tp187
aF40.0
tp188
ssba(imeasure_core
ProblemSetSolution
p189
(dp190
g3
(imeasure_core
RoomSet
p191
(dp192
S'rooms'
p193
(dp194
(iproblems
RoomID
p195
(dp196
S'width'
p197
I9
sS'dusts'
p198
I8
sS'seed'
p199
I7283207964119141687
sS'obstacles'
p200
(I2
I6
tp201
sS'robots'
p202
I4
sS'height'
p203
I11
sb(imulti_robot_problem
MultiRobotState
p204
(dp205
S'obstacle_locations'
p206
g20
((lp207
(I4
I7
tp208
a(I1
I3
tp209
a(I8
I9
tp210
a(I6
I2
tp211
a(I0
I10
tp212
a(I3
I7
tp213
a(I0
I3
tp214
a(I8
I5
tp215
a(I4
I0
tp216
a(I5
I5
tp217
a(I6
I10
tp218
a(I6
I3
tp219
a(I3
I6
tp220
a(I5
I3
tp221
a(I5
I4
tp222
ag201
a(I4
I5
tp223
a(I1
I4
tp224
a(I3
I5
tp225
a(I3
I4
tp226
a(I6
I1
tp227
a(I4
I3
tp228
a(I5
I2
tp229
a(I2
I4
tp230
atp231
Rp232
sg197
I9
sS'dirt_locations'
p233
g20
((lp234
(I7
I0
tp235
a(I6
I8
tp236
a(I7
I1
tp237
a(I5
I6
tp238
a(I1
I8
tp239
a(I0
I8
tp240
a(I4
I1
tp241
a(I5
I8
tp242
atp243
Rp244
sg202
((I1
I7
tp245
(I6
I6
tp246
(I4
I6
tp247
(I2
I1
tp248
tp249
sg203
I11
sbs(iproblems
RoomID
p250
(dp251
g197
I10
sg198
I8
sg199
I890727360438182992
sg200
(I3
I5
tp252
sg202
I3
sg203
I12
sb(imulti_robot_problem
MultiRobotState
p253
(dp254
g206
g20
((lp255
(I7
I8
tp256
a(I4
I7
tp257
a(I5
I7
tp258
a(I3
I0
tp259
a(I8
I9
tp260
a(I5
I8
tp261
a(I6
I7
tp262
a(I7
I10
tp263
a(I2
I2
tp264
a(I3
I2
tp265
a(I0
I0
tp266
a(I1
I4
tp267
a(I7
I5
tp268
a(I2
I3
tp269
a(I4
I11
tp270
ag252
a(I6
I8
tp271
a(I3
I4
tp272
a(I3
I1
tp273
a(I8
I8
tp274
a(I0
I9
tp275
a(I3
I9
tp276
a(I5
I2
tp277
atp278
Rp279
sg197
I10
sg233
g20
((lp280
(I9
I2
tp281
a(I6
I1
tp282
a(I8
I0
tp283
a(I2
I10
tp284
a(I0
I6
tp285
a(I0
I4
tp286
a(I9
I5
tp287
a(I1
I1
tp288
atp289
Rp290
sg202
((I2
I9
tp291
(I2
I6
tp292
(I8
I4
tp293
tp294
sg203
I12
sbs(iproblems
RoomID
p295
(dp296
g197
I10
sg198
I5
sg199
I1736392818365009963
sg200
(I7
I6
tp297
sg202
I3
sg203
I9
sb(imulti_robot_problem
MultiRobotState
p298
(dp299
g206
g20
((lp300
(I7
I3
tp301
a(I9
I1
tp302
a(I4
I8
tp303
a(I7
I7
tp304
a(I6
I2
tp305
a(I8
I5
tp306
a(I7
I2
tp307
a(I1
I2
tp308
a(I3
I8
tp309
a(I9
I0
tp310
ag297
a(I2
I2
tp311
a(I9
I3
tp312
a(I7
I5
tp313
a(I0
I5
tp314
a(I0
I4
tp315
a(I6
I5
tp316
a(I0
I1
tp317
a(I9
I2
tp318
a(I7
I4
tp319
a(I4
I3
tp320
a(I5
I2
tp321
a(I8
I4
tp322
atp323
Rp324
sg197
I10
sg233
g20
((lp325
(I1
I8
tp326
a(I3
I1
tp327
a(I4
I1
tp328
a(I0
I2
tp329
a(I5
I5
tp330
atp331
Rp332
sg202
((I4
I2
tp333
(I1
I0
tp334
(I8
I2
tp335
tp336
sg203
I9
sbs(iproblems
RoomID
p337
(dp338
g197
I12
sg198
I7
sg199
I1585446675937841368
sg200
(I6
I3
tp339
sg202
I3
sg203
I12
sb(imulti_robot_problem
MultiRobotState
p340
(dp341
g206
g20
((lp342
(I5
I9
tp343
a(I7
I3
tp344
a(I2
I8
tp345
a(I3
I11
tp346
a(I6
I2
tp347
a(I5
I1
tp348
a(I1
I11
tp349
a(I8
I5
tp350
a(I7
I2
tp351
a(I7
I8
tp352
a(I6
I7
tp353
a(I2
I9
tp354
a(I7
I6
tp355
a(I6
I6
tp356
ag339
a(I7
I10
tp357
a(I8
I6
tp358
a(I4
I10
tp359
a(I8
I2
tp360
a(I7
I1
tp361
a(I9
I3
tp362
a(I7
I7
tp363
a(I4
I11
tp364
a(I2
I7
tp365
a(I6
I8
tp366
a(I3
I4
tp367
a(I5
I7
tp368
a(I2
I11
tp369
a(I4
I3
tp370
a(I5
I2
tp371
a(I8
I4
tp372
atp373
Rp374
sg197
I12
sg233
g20
((lp375
(I3
I2
tp376
a(I11
I5
tp377
a(I11
I8
tp378
a(I6
I10
tp379
a(I1
I9
tp380
a(I9
I4
tp381
a(I2
I5
tp382
atp383
Rp384
sg202
((I10
I10
tp385
(I5
I5
tp386
(I11
I10
tp387
tp388
sg203
I12
sbs(iproblems
RoomID
p389
(dp390
g197
I10
sg198
I9
sg199
I7713914763314685786
sg200
(I1
I3
tp391
sg202
I4
sg203
I9
sb(imulti_robot_problem
MultiRobotState
p392
(dp393
g206
g20
((lp394
g391
a(I2
I1
tp395
a(I5
I1
tp396
a(I7
I2
tp397
a(I4
I0
tp398
a(I1
I2
tp399
a(I1
I5
tp400
a(I2
I2
tp401
a(I4
I1
tp402
a(I1
I1
tp403
a(I3
I2
tp404
a(I7
I1
tp405
a(I9
I3
tp406
a(I6
I0
tp407
a(I4
I2
tp408
a(I9
I6
tp409
a(I3
I5
tp410
a(I7
I0
tp411
a(I6
I1
tp412
a(I3
I1
tp413
a(I1
I8
tp414
a(I5
I2
tp415
atp416
Rp417
sg197
I10
sg233
g20
((lp418
(I7
I3
tp419
a(I5
I4
tp420
a(I7
I6
tp421
a(I7
I5
tp422
a(I0
I5
tp423
a(I8
I7
tp424
a(I8
I6
tp425
a(I8
I5
tp426
a(I9
I7
tp427
atp428
Rp429
sg202
((I3
I0
tp430
(I7
I7
tp431
(I2
I0
tp432
(I4
I6
tp433
tp434
sg203
I9
sbssS'name'
p435
S'mild_roomset'
p436
sbsg163
g164
sg165
(dp437
g195
((lp438
(F0.099999999998544808
I7
tp439
aF40.180000000000291
tp440
sg250
((lp441
F40.07999999999447
tp442
sg337
((lp443
(F0.16000000000349246
I20
tp444
aF40.010000000002037
tp445
sg389
((lp446
(F0.3400000000037835
I15
tp447
aF40.200000000004366
tp448
sg295
((lp449
(F1.3100000000049477
I66
tp450
aF40.069999999999709
tp451
ssba(imeasure_core
ProblemSetSolution
p452
(dp453
g3
(imeasure_core
RoomSet
p454
(dp455
S'rooms'
p456
(dp457
(iproblems
RoomID
p458
(dp459
S'width'
p460
I10
sS'dusts'
p461
I13
sS'seed'
p462
I7283207964119141687
sS'obstacles'
p463
(I8
I4
tp464
sS'robots'
p465
I7
sS'height'
p466
I12
sb(imulti_robot_problem
MultiRobotState
p467
(dp468
S'obstacle_locations'
p469
g20
((lp470
(I7
I4
tp471
a(I3
I4
tp472
a(I6
I10
tp473
a(I6
I0
tp474
a(I6
I3
tp475
a(I0
I11
tp476
a(I6
I2
tp477
a(I3
I6
tp478
a(I2
I2
tp479
a(I0
I4
tp480
a(I5
I2
tp481
a(I5
I8
tp482
ag464
atp483
Rp484
sg460
I10
sS'dirt_locations'
p485
g20
((lp486
(I7
I3
tp487
a(I6
I7
tp488
a(I6
I8
tp489
a(I7
I1
tp490
a(I8
I1
tp491
a(I4
I4
tp492
a(I6
I6
tp493
a(I5
I6
tp494
a(I1
I9
tp495
a(I5
I0
tp496
a(I9
I10
tp497
a(I9
I6
tp498
a(I7
I9
tp499
atp500
Rp501
sg465
((I1
I7
tp502
(I7
I6
tp503
(I4
I6
tp504
(I2
I1
tp505
(I6
I4
tp506
(I0
I9
tp507
(I8
I0
tp508
tp509
sg466
I12
sbs(iproblems
RoomID
p510
(dp511
g460
I11
sg461
I13
sg462
I890727360438182992
sg463
(I8
I3
tp512
sg465
I5
sg466
I13
sb(imulti_robot_problem
MultiRobotState
p513
(dp514
g469
g20
((lp515
(I4
I10
tp516
a(I6
I9
tp517
a(I9
I0
tp518
a(I8
I2
tp519
a(I5
I9
tp520
a(I9
I8
tp521
a(I6
I10
tp522
ag512
a(I8
I8
tp523
a(I4
I12
tp524
a(I0
I10
tp525
a(I8
I7
tp526
a(I6
I8
tp527
a(I8
I6
tp528
a(I7
I8
tp529
a(I0
I2
tp530
a(I9
I1
tp531
atp532
Rp533
sg460
I11
sg485
g20
((lp534
(I10
I5
tp535
a(I0
I0
tp536
a(I4
I6
tp537
a(I1
I5
tp538
a(I9
I2
tp539
a(I8
I11
tp540
a(I2
I1
tp541
a(I9
I10
tp542
a(I0
I6
tp543
a(I0
I4
tp544
a(I0
I9
tp545
a(I5
I2
tp546
a(I4
I11
tp547
atp548
Rp549
sg465
((I3
I10
tp550
(I2
I7
tp551
(I9
I4
tp552
(I2
I11
tp553
(I7
I1
tp554
tp555
sg466
I13
sbs(iproblems
RoomID
p556
(dp557
g460
I11
sg461
I10
sg462
I1736392818365009963
sg463
(I10
I4
tp558
sg465
I5
sg466
I10
sb(imulti_robot_problem
MultiRobotState
p559
(dp560
g469
g20
((lp561
(I0
I1
tp562
a(I1
I2
tp563
a(I3
I2
tp564
ag558
a(I4
I5
tp565
a(I7
I4
tp566
a(I6
I2
tp567
a(I2
I3
tp568
a(I10
I1
tp569
a(I3
I8
tp570
a(I10
I0
tp571
a(I10
I3
tp572
a(I10
I2
tp573
atp574
Rp575
sg460
I11
sg485
g20
((lp576
(I5
I9
tp577
a(I5
I5
tp578
a(I3
I1
tp579
a(I8
I8
tp580
a(I3
I9
tp581
a(I0
I5
tp582
a(I5
I3
tp583
a(I4
I1
tp584
a(I6
I5
tp585
a(I8
I4
tp586
atp587
Rp588
sg465
((I4
I2
tp589
(I1
I0
tp590
(I9
I3
tp591
(I1
I9
tp592
(I0
I2
tp593
tp594
sg466
I10
sbs(iproblems
RoomID
p595
(dp596
g460
I12
sg461
I15
sg462
I3960482443532127989
sg463
(I6
I9
tp597
sg465
I7
sg466
I11
sb(imulti_robot_problem
MultiRobotState
p598
(dp599
g469
g20
((lp600
(I5
I9
tp601
ag597
a(I9
I1
tp602
a(I6
I4
tp603
a(I5
I6
tp604
a(I7
I7
tp605
a(I9
I4
tp606
a(I1
I2
tp607
a(I6
I7
tp608
a(I2
I9
tp609
a(I8
I1
tp610
a(I6
I3
tp611
a(I8
I6
tp612
a(I9
I7
tp613
a(I4
I10
tp614
a(I2
I10
tp615
a(I3
I9
tp616
a(I6
I5
tp617
a(I8
I3
tp618
a(I5
I10
tp619
a(I5
I7
tp620
a(I7
I4
tp621
a(I10
I7
tp622
a(I0
I9
tp623
a(I7
I8
tp624
a(I11
I6
tp625
atp626
Rp627
sg460
I12
sg485
g20
((lp628
(I7
I3
tp629
a(I2
I6
tp630
a(I5
I5
tp631
a(I3
I0
tp632
a(I3
I8
tp633
a(I0
I6
tp634
a(I11
I1
tp635
a(I1
I6
tp636
a(I4
I3
tp637
a(I1
I7
tp638
a(I1
I3
tp639
a(I1
I0
tp640
a(I10
I1
tp641
a(I1
I1
tp642
a(I10
I2
tp643
atp644
Rp645
sg465
((I11
I10
tp646
(I1
I8
tp647
(I10
I5
tp648
(I11
I0
tp649
(I4
I8
tp650
(I7
I9
tp651
(I7
I1
tp652
tp653
sg466
I11
sbs(iproblems
RoomID
p654
(dp655
g460
I13
sg461
I12
sg462
I1585446675937841368
sg463
(I6
I9
tp656
sg465
I6
sg466
I13
sb(imulti_robot_problem
MultiRobotState
p657
(dp658
g469
g20
((lp659
(I7
I3
tp660
ag656
a(I7
I7
tp661
a(I4
I12
tp662
a(I10
I3
tp663
a(I7
I2
tp664
a(I2
I9
tp665
a(I8
I1
tp666
a(I7
I6
tp667
a(I6
I3
tp668
a(I5
I8
tp669
a(I7
I10
tp670
a(I9
I7
tp671
a(I8
I11
tp672
a(I7
I5
tp673
a(I1
I12
tp674
a(I9
I2
tp675
a(I7
I4
tp676
a(I3
I4
tp677
a(I2
I4
tp678
a(I9
I12
tp679
a(I8
I4
tp680
atp681
Rp682
sg460
I13
sg485
g20
((lp683
(I3
I3
tp684
a(I2
I8
tp685
a(I6
I10
tp686
a(I5
I2
tp687
a(I8
I10
tp688
a(I2
I10
tp689
a(I12
I5
tp690
a(I4
I3
tp691
a(I5
I1
tp692
a(I3
I5
tp693
a(I12
I9
tp694
a(I7
I9
tp695
atp696
Rp697
sg465
((I10
I11
tp698
(I5
I5
tp699
(I12
I11
tp700
(I1
I10
tp701
(I3
I12
tp702
(I10
I4
tp703
tp704
sg466
I13
sbssS'name'
p705
S'heavy_roomset'
p706
sbsg163
g164
sg165
(dp707
g458
((lp708
(F33.029999999998836
I10
tp709
aF41.349999999998545
tp710
sg510
((lp711
F40.369999999995343
tp712
sg556
((lp713
(F0.98000000000320142
I9
tp714
aF40.830000000001746
tp715
sg595
((lp716
F45.069999999999709
tp717
sg654
((lp718
F40.419999999998254
tp719
ssba(imeasure_core
ProblemSetSolution
p720
(dp721
g3
g4
sg163
S"AnytimeBeam-w15-gf(1.3, 'exp')_with_PowerHeuristic2"
p722
sg165
(dp723
g8
((lp724
(F1.6900000000023283
I28
tp725
aF40.020000000004075
tp726
sg47
((lp727
(F0.08000000000174623
I19
tp728
aF40.0
tp729
sg76
((lp730
(F0.19999999999708962
I14
tp731
aF40.040000000000873
tp732
sg106
((lp733
(F1.75
I10
tp734
aF40.180000000000291
tp735
sg136
((lp736
(F0.059999999997671694
I30
tp737
a(F0.12999999999738066
I28
tp738
a(F1.0799999999944703
I27
tp739
a(F1.4899999999979627
I25
tp740
a(F1.8399999999965075
I23
tp741
a(F2.1299999999973807
I22
tp742
a(F3.3399999999965075
I21
tp743
a(F4.4099999999962165
I20
tp744
aF40.0
tp745
ssba(imeasure_core
ProblemSetSolution
p746
(dp747
g3
g191
sg163
g722
sg165
(dp748
g195
((lp749
(F0.12999999999738066
I7
tp750
aF40.489999999997963
tp751
sg250
((lp752
F40.019999999996799
tp753
sg337
((lp754
(F0.25
I20
tp755
aF40.060000000004948
tp756
sg389
((lp757
(F0.48999999999796273
I15
tp758
aF40.19999999999709
tp759
sg295
((lp760
(F1.1600000000034925
I66
tp761
aF40.0
tp762
ssba(imeasure_core
ProblemSetSolution
p763
(dp764
g3
g454
sg163
g722
sg165
(dp765
g458
((lp766
(F35.160000000003492
I10
tp767
aF43.489999999997963
tp768
sg510
((lp769
F40.290000000000873
tp770
sg556
((lp771
(F1.180000000000291
I9
tp772
aF40.190000000002328
tp773
sg595
((lp774
F40.209999999999127
tp775
sg654
((lp776
F40.19999999999709
tp777
ssba(imeasure_core
ProblemSetSolution
p778
(dp779
g3
g4
sg163
S"AnytimeBeam-w25-gf(1.3, 'exp')_with_PowerHeuristic2"
p780
sg165
(dp781
g8
((lp782
(F1.8400000000037835
I28
tp783
aF40.169999999998254
tp784
sg47
((lp785
(F0.090000000003783498
I19
tp786
aF40.010000000002037
tp787
sg76
((lp788
(F0.23999999999796273
I14
tp789
aF40.010000000002037
tp790
sg106
((lp791
(F1.819999999999709
I10
tp792
aF40.339999999996508
tp793
sg136
((lp794
(F0.069999999999708962
I30
tp795
a(F0.16000000000349246
I28
tp796
a(F0.65000000000145519
I27
tp797
a(F0.98000000000320142
I25
tp798
a(F1.3300000000017462
I23
tp799
a(F1.6200000000026193
I22
tp800
a(F2.8300000000017462
I21
tp801
a(F3.9000000000014552
I20
tp802
aF40.0
tp803
ssba(imeasure_core
ProblemSetSolution
p804
(dp805
g3
g191
sg163
g780
sg165
(dp806
g195
((lp807
(F0.15000000000145519
I7
tp808
aF40.060000000004948
tp809
sg250
((lp810
F40.110000000000582
tp811
sg337
((lp812
(F0.30999999999767169
I20
tp813
aF40.039999999993597
tp814
sg389
((lp815
(F0.57000000000698492
I15
tp816
aF40.070000000006985
tp817
sg295
((lp818
(F1.3299999999944703
I66
tp819
aF40.0
tp820
ssba(imeasure_core
ProblemSetSolution
p821
(dp822
g3
g454
sg163
g780
sg165
(dp823
g458
((lp824
(F35.299999999995634
I10
tp825
aF43.649999999994179
tp826
sg510
((lp827
F40.060000000004948
tp828
sg556
((lp829
(F1.2299999999959255
I9
tp830
aF40.189999999995052
tp831
sg595
((lp832
F40.150000000001455
tp833
sg654
((lp834
F40.110000000000582
tp835
ssba(imeasure_core
ProblemSetSolution
p836
(dp837
g3
g4
sg163
S"AnytimeBeam-w35-gf(1.3, 'exp')_with_PowerHeuristic2"
p838
sg165
(dp839
g8
((lp840
(F2.0800000000017462
I28
tp841
aF40.190000000002328
tp842
sg47
((lp843
(F0.099999999998544808
I19
tp844
aF40.009999999994761
tp845
sg76
((lp846
(F0.2800000000061118
I14
tp847
aF40.010000000002037
tp848
sg106
((lp849
(F1.9599999999991269
I10
tp850
aF40.389999999999418
tp851
sg136
((lp852
(F0.069999999999708962
I30
tp853
a(F0.16000000000349246
I28
tp854
a(F0.49000000000523869
I27
tp855
a(F0.90000000000145519
I25
tp856
a(F1.25
I23
tp857
a(F1.5500000000029104
I22
tp858
a(F2.7700000000040745
I21
tp859
a(F3.8600000000005821
I20
tp860
aF40.0
tp861
ssba(imeasure_core
ProblemSetSolution
p862
(dp863
g3
g191
sg163
g838
sg165
(dp864
g195
((lp865
(F0.18000000000029104
I7
tp866
aF40.0
tp867
sg250
((lp868
F40.139999999999418
tp869
sg337
((lp870
(F0.37000000000261934
I20
tp871
aF40.040000000000873
tp872
sg389
((lp873
(F0.69000000000232831
I15
tp874
aF40.139999999999418
tp875
sg295
((lp876
(F1.5400000000008731
I66
tp877
aF40.069999999999709
tp878
ssba(imeasure_core
ProblemSetSolution
p879
(dp880
g3
g454
sg163
g838
sg165
(dp881
g458
((lp882
(F36.440000000002328
I10
tp883
aF44.720000000001164
tp884
sg510
((lp885
F40.120000000002619
tp886
sg556
((lp887
(F1.3399999999965075
I9
tp888
aF40.369999999995343
tp889
sg595
((lp890
F40.220000000001164
tp891
sg654
((lp892
F40.17000000000553
tp893
ssba(imeasure_core
ProblemSetSolution
p894
(dp895
g3
g4
sg163
S"AnytimeBeam-w45-gf(1.3, 'exp')_with_PowerHeuristic2"
p896
sg165
(dp897
g8
((lp898
(F2.2099999999991269
I28
tp899
aF40.25
tp900
sg47
((lp901
(F0.099999999998544808
I19
tp902
aF40.0
tp903
sg76
((lp904
(F0.29999999999563443
I14
tp905
aF40.019999999996799
tp906
sg106
((lp907
(F2.0199999999967986
I10
tp908
aF40.080000000001746
tp909
sg136
((lp910
(F0.069999999999708962
I30
tp911
a(F0.1599999999962165
I28
tp912
a(F0.47000000000116415
I27
tp913
a(F0.87999999999738066
I25
tp914
a(F1.2299999999959255
I23
tp915
a(F1.5299999999988358
I22
tp916
a(F2.7299999999959255
I21
tp917
a(F3.8099999999976717
I20
tp918
aF40.0
tp919
ssba(imeasure_core
ProblemSetSolution
p920
(dp921
g3
g191
sg163
g896
sg165
(dp922
g195
((lp923
(F0.20999999999912689
I7
tp924
aF40.439999999995052
tp925
sg250
((lp926
F40.060000000004948
tp927
sg337
((lp928
(F0.41999999999825377
I20
tp929
aF40.019999999996799
tp930
sg389
((lp931
(F0.76000000000203727
I15
tp932
aF40.150000000001455
tp933
sg295
((lp934
(F1.6699999999982538
I66
tp935
aF40.029999999998836
tp936
ssba(imeasure_core
ProblemSetSolution
p937
(dp938
g3
g454
sg163
g896
sg165
(dp939
g458
((lp940
(F36.409999999996217
I10
tp941
aF44.769999999996799
tp942
sg510
((lp943
F40.270000000004075
tp944
sg556
((lp945
(F1.4000000000014552
I9
tp946
aF40.009999999994761
tp947
sg595
((lp948
F40.020000000004075
tp949
sg654
((lp950
F40.269999999996799
tp951
ssba(imeasure_core
ProblemSetSolution
p952
(dp953
g3
g4
sg163
S"AnytimeBeam-w5-gf(1.3, 'exp')_with_LinearHeuristic"
p954
sg165
(dp955
g8
((lp956
(F0.26999999999679858
I5
tp957
aF40.029999999998836
tp958
sg47
((lp959
(F0.090000000003783498
I22
tp960
aF40.0
tp961
sg76
((lp962
(F2.0900000000037835
I67
tp963
aF40.060000000004948
tp964
sg106
((lp965
(F1.569999999999709
I10
tp966
aF40.029999999998836
tp967
sg136
((lp968
(F0.019999999996798579
I20
tp969
aF40.0
tp970
ssba(imeasure_core
ProblemSetSolution
p971
(dp972
g3
g191
sg163
g954
sg165
(dp973
g195
((lp974
(F23.07999999999447
I177
tp975
aF40.0
tp976
sg250
((lp977
F40.009999999994761
tp978
sg337
((lp979
F40.030000000006112
tp980
sg389
((lp981
F40.109999999993306
tp982
sg295
((lp983
(F0.19000000000232831
I23
tp984
a(F16.040000000000873
I21
tp985
a(F21.319999999999709
I20
tp986
a(F29.910000000003492
I19
tp987
aF40.0
tp988
ssba(imeasure_core
ProblemSetSolution
p989
(dp990
g3
g454
sg163
g954
sg165
(dp991
g458
((lp992
F41.290000000000873
tp993
sg510
((lp994
F40.110000000000582
tp995
sg556
((lp996
(F34.669999999998254
I95
tp997
aF40.069999999999709
tp998
sg595
((lp999
F44.110000000000582
tp1000
sg654
((lp1001
F40.529999999998836
tp1002
ssba(imeasure_core
ProblemSetSolution
p1003
(dp1004
g3
g4
sg163
S"AnytimeBeam-w15-gf(1.3, 'exp')_with_LinearHeuristic"
p1005
sg165
(dp1006
g8
((lp1007
(F0.36000000000058208
I5
tp1008
aF40.169999999998254
tp1009
sg47
((lp1010
(F0.16999999999825377
I22
tp1011
aF40.010000000002037
tp1012
sg76
((lp1013
(F2.319999999999709
I67
tp1014
aF40.029999999998836
tp1015
sg106
((lp1016
(F2.0400000000008731
I10
tp1017
aF40.180000000000291
tp1018
sg136
((lp1019
(F0.019999999996798579
I20
tp1020
aF40.0
tp1021
ssba(imeasure_core
ProblemSetSolution
p1022
(dp1023
g3
g191
sg163
g1005
sg165
(dp1024
g195
((lp1025
(F16.889999999999418
I177
tp1026
aF40.019999999996799
tp1027
sg250
((lp1028
F40.040000000000873
tp1029
sg337
((lp1030
F40.239999999997963
tp1031
sg389
((lp1032
F40.019999999996799
tp1033
sg295
((lp1034
(F0.27000000000407454
I23
tp1035
a(F24.860000000000582
I21
tp1036
a(F30.190000000002328
I20
tp1037
a(F39.690000000002328
I19
tp1038
aF40.020000000004075
tp1039
ssba(imeasure_core
ProblemSetSolution
p1040
(dp1041
g3
g454
sg163
g1005
sg165
(dp1042
g458
((lp1043
F42.510000000002037
tp1044
sg510
((lp1045
F40.020000000004075
tp1046
sg556
((lp1047
(F17.799999999995634
I95
tp1048
aF40.25
tp1049
sg595
((lp1050
F40.109999999993306
tp1051
sg654
((lp1052
F40.130000000004657
tp1053
ssba(imeasure_core
ProblemSetSolution
p1054
(dp1055
g3
g4
sg163
S"AnytimeBeam-w25-gf(1.3, 'exp')_with_LinearHeuristic"
p1056
sg165
(dp1057
g8
((lp1058
(F0.38999999999941792
I5
tp1059
aF40.439999999995052
tp1060
sg47
((lp1061
(F0.18000000000029104
I22
tp1062
aF40.0
tp1063
sg76
((lp1064
(F3.4199999999982538
I67
tp1065
aF40.020000000004075
tp1066
sg106
((lp1067
(F2.1899999999950523
I10
tp1068
aF40.07999999999447
tp1069
sg136
((lp1070
(F0.010000000002037268
I20
tp1071
aF40.0
tp1072
ssba(imeasure_core
ProblemSetSolution
p1073
(dp1074
g3
g191
sg163
g1056
sg165
(dp1075
g195
((lp1076
(F13.110000000000582
I177
tp1077
aF40.029999999998836
tp1078
sg250
((lp1079
(F36.160000000003492
I338
tp1080
aF40.040000000000873
tp1081
sg337
((lp1082
F40.090000000003783
tp1083
sg389
((lp1084
F40.180000000000291
tp1085
sg295
((lp1086
(F0.33000000000174623
I23
tp1087
a(F19.730000000003201
I21
tp1088
a(F25.020000000004075
I20
tp1089
a(F33.760000000002037
I19
tp1090
aF40.029999999998836
tp1091
ssba(imeasure_core
ProblemSetSolution
p1092
(dp1093
g3
g454
sg163
g1056
sg165
(dp1094
g458
((lp1095
F43.219999999993888
tp1096
sg510
((lp1097
F40.090000000003783
tp1098
sg556
((lp1099
(F18.680000000000291
I95
tp1100
aF43.349999999998545
tp1101
sg595
((lp1102
F44.360000000000582
tp1103
sg654
((lp1104
F40.260000000002037
tp1105
ssba(imeasure_core
ProblemSetSolution
p1106
(dp1107
g3
g4
sg163
S"AnytimeBeam-w35-gf(1.3, 'exp')_with_LinearHeuristic"
p1108
sg165
(dp1109
g8
((lp1110
(F0.45999999999912689
I5
tp1111
aF40.099999999998545
tp1112
sg47
((lp1113
(F0.19000000000232831
I22
tp1114
aF40.0
tp1115
sg76
((lp1116
(F4.8799999999973807
I67
tp1117
aF40.010000000002037
tp1118
sg106
((lp1119
(F2.5
I10
tp1120
aF40.229999999995925
tp1121
sg136
((lp1122
(F0.010000000002037268
I20
tp1123
aF40.0
tp1124
ssba(imeasure_core
ProblemSetSolution
p1125
(dp1126
g3
g191
sg163
g1108
sg165
(dp1127
g195
((lp1128
(F14.430000000000291
I177
tp1129
aF40.110000000000582
tp1130
sg250
((lp1131
F40.040000000000873
tp1132
sg337
((lp1133
F40.180000000000291
tp1134
sg389
((lp1135
F40.110000000000582
tp1136
sg295
((lp1137
(F0.40000000000145519
I23
tp1138
a(F11.839999999996508
I21
tp1139
a(F17.190000000002328
I20
tp1140
a(F25.739999999997963
I19
tp1141
aF40.019999999996799
tp1142
ssba(imeasure_core
ProblemSetSolution
p1143
(dp1144
g3
g454
sg163
g1108
sg165
(dp1145
g458
((lp1146
F40.080000000001746
tp1147
sg510
((lp1148
F40.089999999996508
tp1149
sg556
((lp1150
(F20.740000000005239
I95
tp1151
aF40.910000000003492
tp1152
sg595
((lp1153
F40.169999999998254
tp1154
sg654
((lp1155
F40.029999999998836
tp1156
ssba(imeasure_core
ProblemSetSolution
p1157
(dp1158
g3
g4
sg163
S"AnytimeBeam-w45-gf(1.3, 'exp')_with_LinearHeuristic"
p1159
sg165
(dp1160
g8
((lp1161
(F0.47000000000116415
I5
tp1162
aF40.059999999997672
tp1163
sg47
((lp1164
(F0.19000000000232831
I22
tp1165
aF40.0
tp1166
sg76
((lp1167
(F7.6600000000034925
I67
tp1168
aF40.029999999998836
tp1169
sg106
((lp1170
(F2.6399999999994179
I10
tp1171
aF40.290000000000873
tp1172
sg136
((lp1173
(F0.019999999996798579
I20
tp1174
aF40.0
tp1175
ssba(imeasure_core
ProblemSetSolution
p1176
(dp1177
g3
g191
sg163
g1159
sg165
(dp1178
g195
((lp1179
(F14.900000000001455
I177
tp1180
aF40.010000000002037
tp1181
sg250
((lp1182
F40.0
tp1183
sg337
((lp1184
F40.17000000000553
tp1185
sg389
((lp1186
F40.189999999995052
tp1187
sg295
((lp1188
(F0.47000000000116415
I23
tp1189
a(F23.479999999995925
I21
tp1190
a(F28.889999999999418
I20
tp1191
a(F38.489999999997963
I19
tp1192
aF40.049999999995634
tp1193
ssba(imeasure_core
ProblemSetSolution
p1194
(dp1195
g3
g454
sg163
g1159
sg165
(dp1196
g458
((lp1197
F40.729999999995925
tp1198
sg510
((lp1199
F40.040000000000873
tp1200
sg556
((lp1201
(F21.639999999999418
I95
tp1202
aF40.440000000002328
tp1203
sg595
((lp1204
F40.150000000001455
tp1205
sg654
((lp1206
F40.069999999999709
tp1207
ssba.