(lp0
(imeasure_core
ProblemSetSolution
p1
(dp2
S'roomset'
p3
(imeasure_core
RoomSet
p4
(dp5
S'rooms'
p6
(dp7
(iproblems
RoomID
p8
(dp9
S'dusts'
p10
I6
sS'obstacles'
p11
(I0
I4
tp12
sS'robots'
p13
I1
sS'height'
p14
I9
sS'width'
p15
I9
sS'seed'
p16
I1164115433906158532
sb(imulti_robot_problem
MultiRobotState
p17
(dp18
S'obstacle_locations'
p19
c__builtin__
frozenset
p20
((lp21
(I0
I1
tp22
a(I1
I2
tp23
a(I1
I3
tp24
a(I1
I4
tp25
ag12
atp26
Rp27
sg15
I9
sS'dirt_locations'
p28
g20
((lp29
(I6
I4
tp30
a(I1
I8
tp31
a(I1
I6
tp32
a(I1
I0
tp33
a(I8
I5
tp34
a(I3
I5
tp35
atp36
Rp37
sg13
((I4
I5
tp38
tp39
sg14
I9
sbs(iproblems
RoomID
p40
(dp41
g10
I8
sg11
(I6
I5
tp42
sg13
I5
sg14
I8
sg15
I7
sg16
I2175216119781798972
sb(imulti_robot_problem
MultiRobotState
p43
(dp44
g19
g20
((lp45
(I1
I2
tp46
a(I2
I6
tp47
a(I6
I7
tp48
a(I6
I6
tp49
a(I5
I7
tp50
a(I2
I3
tp51
a(I0
I4
tp52
a(I1
I0
tp53
ag42
atp54
Rp55
sg15
I7
sg28
g20
((lp56
(I5
I4
tp57
a(I5
I5
tp58
a(I4
I4
tp59
a(I0
I6
tp60
a(I0
I5
tp61
a(I1
I7
tp62
a(I4
I2
tp63
a(I0
I2
tp64
atp65
Rp66
sg13
((I1
I3
tp67
(I6
I4
tp68
(I3
I7
tp69
(I6
I0
tp70
(I2
I1
tp71
tp72
sg14
I8
sbs(iproblems
RoomID
p73
(dp74
g10
I9
sg11
(I6
I3
tp75
sg13
I4
sg14
I9
sg15
I10
sg16
I7002664860023442459
sb(imulti_robot_problem
MultiRobotState
p76
(dp77
g19
g20
((lp78
(I7
I4
tp79
a(I7
I3
tp80
ag75
a(I6
I5
tp81
a(I9
I7
tp82
atp83
Rp84
sg15
I10
sg28
g20
((lp85
(I0
I0
tp86
a(I6
I8
tp87
a(I2
I8
tp88
a(I5
I7
tp89
a(I2
I6
tp90
a(I4
I2
tp91
a(I5
I1
tp92
a(I8
I6
tp93
a(I8
I4
tp94
atp95
Rp96
sg13
((I7
I5
tp97
(I7
I6
tp98
(I1
I7
tp99
(I1
I6
tp100
tp101
sg14
I9
sbs(iproblems
RoomID
p102
(dp103
g10
I5
sg11
(I0
I4
tp104
sg13
I5
sg14
I7
sg15
I7
sg16
I8711387064946514083
sb(imulti_robot_problem
MultiRobotState
p105
(dp106
g19
g20
((lp107
(I0
I1
tp108
a(I2
I2
tp109
a(I0
I2
tp110
a(I1
I5
tp111
ag104
a(I0
I3
tp112
a(I2
I4
tp113
a(I6
I5
tp114
atp115
Rp116
sg15
I7
sg28
g20
((lp117
(I5
I6
tp118
a(I6
I4
tp119
a(I3
I2
tp120
a(I6
I1
tp121
a(I6
I6
tp122
atp123
Rp124
sg13
((I1
I1
tp125
(I6
I0
tp126
(I5
I0
tp127
(I1
I3
tp128
(I4
I5
tp129
tp130
sg14
I7
sbssS'name'
p131
S'easy_roomset'
p132
sbsg131
S"AnytimeBeam-w4-gf(1.1000000000000001, 'exp')_with_PowerHeuristic2"
p133
sS'solutions'
p134
(dp135
g8
((lp136
(F0.075933933258056641
I64
tp137
a(F0.5261690616607666
I50
tp138
a(F0.83140802383422852
I42
tp139
a(F7.6338460445404053
I36
tp140
a(F9.5494940280914307
I34
tp141
a(F12.704734086990356
I30
tp142
a(F13.770008087158203
I28
tp143
a(F19.471001148223877
I26
tp144
aF39.989999999999782
tp145
sg40
((lp146
(F1.2556588649749756
I5
tp147
aF40.490000000001601
tp148
sg73
((lp149
F40.089999999998327
tp150
sg102
((lp151
(F0.67607402801513672
I4
tp152
aF40.050000000001091
tp153
ssba(imeasure_core
ProblemSetSolution
p154
(dp155
g3
(imeasure_core
RoomSet
p156
(dp157
g6
(dp158
(iproblems
RoomID
p159
(dp160
g10
I6
sg11
(I5
I5
tp161
sg13
I3
sg14
I11
sg15
I11
sg16
I1164115433906158532
sb(imulti_robot_problem
MultiRobotState
p162
(dp163
g19
g20
((lp164
(I5
I4
tp165
a(I1
I3
tp166
a(I4
I3
tp167
a(I4
I8
tp168
a(I3
I0
tp169
a(I8
I0
tp170
a(I3
I2
tp171
a(I0
I7
tp172
a(I2
I1
tp173
a(I3
I9
tp174
a(I0
I5
tp175
a(I1
I4
tp176
a(I3
I7
tp177
a(I2
I5
tp178
a(I5
I3
tp179
a(I8
I3
tp180
a(I3
I1
tp181
ag161
a(I2
I0
tp182
a(I3
I10
tp183
a(I6
I10
tp184
a(I0
I6
tp185
a(I1
I8
tp186
a(I3
I6
tp187
a(I4
I5
tp188
a(I0
I2
tp189
atp190
Rp191
sg15
I11
sg28
g20
((lp192
(I7
I5
tp193
a(I8
I8
tp194
a(I4
I9
tp195
a(I4
I6
tp196
a(I10
I6
tp197
a(I8
I2
tp198
atp199
Rp200
sg13
((I5
I7
tp201
(I2
I10
tp202
(I2
I8
tp203
tp204
sg14
I11
sbs(iproblems
RoomID
p205
(dp206
g10
I8
sg11
(I5
I4
tp207
sg13
I4
sg14
I10
sg15
I9
sg16
I2175216119781798972
sb(imulti_robot_problem
MultiRobotState
p208
(dp209
g19
g20
((lp210
(I6
I6
tp211
a(I2
I8
tp212
a(I0
I7
tp213
a(I6
I2
tp214
a(I1
I6
tp215
a(I2
I5
tp216
a(I5
I5
tp217
a(I8
I1
tp218
a(I7
I6
tp219
a(I6
I3
tp220
a(I2
I2
tp221
a(I8
I6
tp222
a(I6
I4
tp223
ag207
a(I8
I2
tp224
a(I7
I1
tp225
a(I1
I4
tp226
a(I7
I5
tp227
a(I8
I7
tp228
a(I1
I0
tp229
a(I6
I5
tp230
a(I3
I3
tp231
a(I8
I3
tp232
a(I7
I0
tp233
a(I6
I8
tp234
a(I3
I4
tp235
a(I7
I4
tp236
a(I0
I6
tp237
a(I1
I8
tp238
a(I8
I8
tp239
a(I4
I3
tp240
a(I1
I7
tp241
a(I7
I8
tp242
a(I0
I2
tp243
atp244
Rp245
sg15
I9
sg28
g20
((lp246
(I6
I7
tp247
a(I2
I9
tp248
a(I5
I6
tp249
a(I3
I1
tp250
a(I8
I9
tp251
a(I0
I5
tp252
a(I0
I3
tp253
a(I5
I2
tp254
atp255
Rp256
sg13
((I2
I4
tp257
(I8
I5
tp258
(I4
I9
tp259
(I7
I7
tp260
tp261
sg14
I10
sbs(iproblems
RoomID
p262
(dp263
g10
I9
sg11
(I4
I3
tp264
sg13
I4
sg14
I11
sg15
I12
sg16
I7002664860023442459
sb(imulti_robot_problem
MultiRobotState
p265
(dp266
g19
g20
((lp267
(I11
I8
tp268
a(I0
I0
tp269
a(I10
I4
tp270
a(I3
I0
tp271
a(I9
I3
tp272
a(I6
I0
tp273
a(I2
I1
tp274
a(I8
I9
tp275
a(I9
I4
tp276
a(I5
I1
tp277
a(I8
I5
tp278
a(I5
I8
tp279
a(I8
I2
tp280
a(I7
I0
tp281
a(I8
I7
tp282
a(I3
I3
tp283
a(I1
I5
tp284
a(I8
I1
tp285
a(I9
I6
tp286
a(I3
I1
tp287
a(I9
I2
tp288
a(I2
I0
tp289
ag264
a(I2
I2
tp290
a(I9
I5
tp291
a(I5
I2
tp292
a(I2
I4
tp293
atp294
Rp295
sg15
I12
sg28
g20
((lp296
(I0
I1
tp297
a(I10
I8
tp298
a(I2
I8
tp299
a(I3
I10
tp300
a(I10
I6
tp301
a(I6
I2
tp302
a(I3
I7
tp303
a(I7
I8
tp304
a(I7
I9
tp305
atp306
Rp307
sg13
((I9
I7
tp308
(I8
I8
tp309
(I2
I9
tp310
(I1
I7
tp311
tp312
sg14
I11
sbs(iproblems
RoomID
p313
(dp314
g10
I9
sg11
(I3
I0
tp315
sg13
I3
sg14
I9
sg15
I12
sg16
I4912931603392816429
sb(imulti_robot_problem
MultiRobotState
p316
(dp317
g19
g20
((lp318
(I6
I4
tp319
a(I4
I7
tp320
a(I0
I0
tp321
a(I4
I8
tp322
a(I5
I6
tp323
a(I2
I8
tp324
a(I0
I7
tp325
a(I4
I6
tp326
a(I7
I5
tp327
a(I4
I2
tp328
a(I0
I3
tp329
a(I7
I2
tp330
a(I6
I8
tp331
a(I10
I5
tp332
a(I5
I5
tp333
a(I7
I8
tp334
a(I4
I4
tp335
a(I5
I2
tp336
ag315
a(I8
I8
tp337
a(I5
I8
tp338
a(I1
I7
tp339
a(I4
I5
tp340
a(I8
I6
tp341
a(I5
I3
tp342
a(I4
I1
tp343
atp344
Rp345
sg15
I12
sg28
g20
((lp346
(I7
I3
tp347
a(I7
I1
tp348
a(I8
I1
tp349
a(I6
I3
tp350
a(I11
I8
tp351
a(I8
I7
tp352
a(I3
I7
tp353
a(I2
I5
tp354
a(I3
I4
tp355
atp356
Rp357
sg13
((I9
I1
tp358
(I1
I6
tp359
(I8
I4
tp360
tp361
sg14
I9
sbssg131
S'mild_roomset'
p362
sbsg131
g133
sg134
(dp363
g159
((lp364
F40.0
tp365
sg205
((lp366
F40.029999999998836
tp367
sg262
((lp368
F40.1200000000008
tp369
sg313
((lp370
F39.989999999999782
tp371
ssba(imeasure_core
ProblemSetSolution
p372
(dp373
g3
(imeasure_core
RoomSet
p374
(dp375
g6
(dp376
(iproblems
RoomID
p377
(dp378
g10
I11
sg11
(I7
I9
tp379
sg13
I5
sg14
I12
sg15
I12
sg16
I1164115433906158532
sb(imulti_robot_problem
MultiRobotState
p380
(dp381
g19
g20
((lp382
(I4
I7
tp383
a(I1
I3
tp384
a(I5
I6
tp385
a(I9
I3
tp386
a(I1
I4
tp387
a(I0
I5
tp388
a(I7
I11
tp389
a(I1
I0
tp390
a(I5
I8
tp391
a(I3
I3
tp392
a(I3
I1
tp393
a(I6
I7
tp394
a(I6
I8
tp395
a(I7
I8
tp396
a(I5
I7
tp397
ag379
a(I4
I1
tp398
a(I0
I2
tp399
atp400
Rp401
sg15
I12
sg28
g20
((lp402
(I4
I10
tp403
a(I9
I0
tp404
a(I2
I6
tp405
a(I5
I10
tp406
a(I9
I2
tp407
a(I0
I7
tp408
a(I8
I9
tp409
a(I1
I6
tp410
a(I8
I5
tp411
a(I4
I11
tp412
a(I5
I3
tp413
atp414
Rp415
sg13
((I1
I2
tp416
(I2
I11
tp417
(I2
I0
tp418
(I2
I9
tp419
(I11
I7
tp420
tp421
sg14
I12
sbs(iproblems
RoomID
p422
(dp423
g10
I10
sg11
(I0
I7
tp424
sg13
I7
sg14
I10
sg15
I10
sg16
I8711387064946514083
sb(imulti_robot_problem
MultiRobotState
p425
(dp426
g19
g20
((lp427
(I5
I9
tp428
a(I6
I9
tp429
a(I2
I6
tp430
a(I2
I9
tp431
a(I0
I6
tp432
ag424
a(I1
I5
tp433
a(I8
I8
tp434
a(I0
I5
tp435
a(I4
I3
tp436
a(I0
I4
tp437
a(I0
I3
tp438
a(I9
I7
tp439
a(I0
I2
tp440
a(I7
I9
tp441
atp442
Rp443
sg15
I10
sg28
g20
((lp444
(I9
I0
tp445
a(I3
I3
tp446
a(I7
I1
tp447
a(I8
I1
tp448
a(I9
I8
tp449
a(I4
I4
tp450
a(I9
I9
tp451
a(I3
I6
tp452
a(I1
I7
tp453
a(I8
I6
tp454
atp455
Rp456
sg13
((I1
I1
tp457
(I8
I0
tp458
(I7
I0
tp459
(I2
I5
tp460
(I6
I7
tp461
(I8
I9
tp462
(I5
I8
tp463
tp464
sg14
I10
sbs(iproblems
RoomID
p465
(dp466
g10
I14
sg11
(I5
I10
tp467
sg13
I5
sg14
I12
sg15
I10
sg16
I3872982626502034966
sb(imulti_robot_problem
MultiRobotState
p468
(dp469
g19
g20
((lp470
(I5
I9
tp471
a(I6
I9
tp472
a(I5
I7
tp473
a(I3
I2
tp474
ag467
a(I4
I10
tp475
a(I4
I8
tp476
a(I3
I11
tp477
a(I2
I1
tp478
a(I6
I2
tp479
a(I1
I4
tp480
a(I8
I7
tp481
a(I6
I8
tp482
a(I6
I7
tp483
a(I5
I8
tp484
a(I3
I5
tp485
a(I4
I9
tp486
a(I4
I6
tp487
a(I8
I1
tp488
a(I7
I1
tp489
a(I3
I8
tp490
a(I4
I3
tp491
a(I5
I2
tp492
a(I1
I1
tp493
atp494
Rp495
sg15
I10
sg28
g20
((lp496
(I5
I3
tp497
a(I3
I1
tp498
a(I8
I11
tp499
a(I9
I3
tp500
a(I0
I2
tp501
a(I6
I3
tp502
a(I3
I9
tp503
a(I2
I3
tp504
a(I9
I5
tp505
a(I7
I11
tp506
a(I0
I8
tp507
a(I3
I10
tp508
a(I7
I2
tp509
a(I9
I7
tp510
atp511
Rp512
sg13
((I1
I8
tp513
(I2
I9
tp514
(I1
I9
tp515
(I1
I5
tp516
(I6
I5
tp517
tp518
sg14
I12
sbs(iproblems
RoomID
p519
(dp520
g10
I14
sg11
(I0
I3
tp521
sg13
I7
sg14
I12
sg15
I13
sg16
I7002664860023442459
sb(imulti_robot_problem
MultiRobotState
p522
(dp523
g19
g20
((lp524
(I1
I2
tp525
a(I11
I4
tp526
a(I9
I8
tp527
a(I10
I6
tp528
ag521
a(I0
I8
tp529
a(I10
I3
tp530
a(I0
I1
tp531
a(I10
I5
tp532
a(I10
I7
tp533
a(I7
I8
tp534
a(I9
I9
tp535
a(I0
I9
tp536
a(I9
I5
tp537
a(I3
I4
tp538
a(I0
I2
tp539
a(I11
I6
tp540
a(I9
I7
tp541
atp542
Rp543
sg15
I13
sg28
g20
((lp544
(I6
I4
tp545
a(I11
I9
tp546
a(I4
I6
tp547
a(I2
I9
tp548
a(I5
I9
tp549
a(I12
I2
tp550
a(I3
I1
tp551
a(I3
I11
tp552
a(I10
I10
tp553
a(I7
I4
tp554
a(I0
I0
tp555
a(I11
I5
tp556
a(I2
I5
tp557
a(I12
I9
tp558
atp559
Rp560
sg13
((I2
I10
tp561
(I1
I8
tp562
(I8
I10
tp563
(I7
I2
tp564
(I3
I8
tp565
(I6
I2
tp566
(I7
I9
tp567
tp568
sg14
I12
sbssg131
S'heavy_roomset'
p569
sbsg131
g133
sg134
(dp570
g377
((lp571
F40.069999999999709
tp572
sg422
((lp573
F44.479999999999563
tp574
sg465
((lp575
F40.329999999999927
tp576
sg519
((lp577
F59.510000000000218
tp578
ssba(imeasure_core
ProblemSetSolution
p579
(dp580
g3
(imeasure_core
RoomSet
p581
(dp582
g6
(dp583
S'complexRoom'
p584
(imulti_robot_problem
MultiRobotState
p585
(dp586
g19
g20
((lp587
(I2
I7
tp588
a(I7
I3
tp589
a(I6
I3
tp590
a(I3
I3
tp591
a(I7
I6
tp592
a(I7
I4
tp593
a(I7
I5
tp594
a(I2
I3
tp595
a(I4
I3
tp596
a(I2
I5
tp597
a(I2
I4
tp598
a(I5
I3
tp599
atp600
Rp601
sg15
I11
sg28
g20
((lp602
(I1
I0
tp603
a(I9
I0
tp604
atp605
Rp606
sg13
((I6
I4
tp607
(I1
I6
tp608
tp609
sg14
I8
sbsS'exampleProblem'
p610
(imulti_robot_problem
MultiRobotState
p611
(dp612
g19
g20
((lp613
tp614
Rp615
sg15
I5
sg28
g20
((lp616
(I1
I3
tp617
a(I3
I1
tp618
a(I1
I1
tp619
a(I3
I3
tp620
atp621
Rp622
sg13
((I2
I2
tp623
tp624
sg14
I5
sbsS'linear_test'
p625
(imulti_robot_problem
MultiRobotState
p626
(dp627
g19
g615
sg15
I12
sg28
g20
((lp628
(I11
I0
tp629
a(I1
I0
tp630
a(I9
I0
tp631
atp632
Rp633
sg13
((I3
I0
tp634
(I1
I2
tp635
tp636
sg14
I7
sbsS'obstacle_Far_CloseTest'
p637
(imulti_robot_problem
MultiRobotState
p638
(dp639
g19
g20
((lp640
(I0
I1
tp641
a(I7
I3
tp642
a(I3
I1
tp643
a(I7
I1
tp644
a(I4
I5
tp645
a(I7
I6
tp646
a(I4
I4
tp647
a(I2
I1
tp648
a(I7
I4
tp649
a(I7
I5
tp650
a(I4
I3
tp651
a(I4
I2
tp652
a(I4
I1
tp653
a(I1
I1
tp654
a(I7
I2
tp655
atp656
Rp657
sg15
I12
sg28
g20
((lp658
(I3
I2
tp659
a(I9
I6
tp660
atp661
Rp662
sg13
((I0
I0
tp663
(I6
I6
tp664
tp665
sg14
I7
sbsS'zigzag'
p666
(imulti_robot_problem
MultiRobotState
p667
(dp668
g19
g20
((lp669
(I1
I2
tp670
a(I3
I2
tp671
a(I1
I3
tp672
a(I3
I0
tp673
a(I3
I1
tp674
a(I5
I1
tp675
a(I5
I2
tp676
a(I1
I1
tp677
a(I5
I3
tp678
atp679
Rp680
sg15
I20
sg28
g20
((lp681
(I6
I3
tp682
atp683
Rp684
sg13
((I0
I3
tp685
(I19
I3
tp686
tp687
sg14
I4
sbsS'room1'
p688
(imulti_robot_problem
MultiRobotState
p689
(dp690
g19
g20
((lp691
(I6
I3
tp692
a(I7
I3
tp693
a(I8
I3
tp694
a(I2
I3
tp695
a(I3
I3
tp696
a(I4
I3
tp697
a(I5
I3
tp698
atp699
Rp700
sg15
I9
sg28
g20
((lp701
(I0
I0
tp702
a(I2
I1
tp703
atp704
Rp705
sg13
((I6
I1
tp706
(I6
I5
tp707
tp708
sg14
I6
sbsS'complexRoom2'
p709
(imulti_robot_problem
MultiRobotState
p710
(dp711
g19
g20
((lp712
(I7
I3
tp713
a(I1
I3
tp714
a(I7
I1
tp715
a(I4
I5
tp716
a(I9
I3
tp717
a(I5
I5
tp718
a(I2
I6
tp719
a(I2
I3
tp720
a(I5
I1
tp721
a(I0
I3
tp722
a(I10
I3
tp723
a(I2
I5
tp724
a(I6
I5
tp725
a(I5
I3
tp726
a(I2
I7
tp727
a(I8
I3
tp728
a(I3
I3
tp729
a(I5
I2
tp730
a(I7
I6
tp731
a(I3
I1
tp732
a(I6
I3
tp733
a(I7
I5
tp734
a(I4
I3
tp735
a(I3
I5
tp736
a(I4
I1
tp737
a(I6
I1
tp738
atp739
Rp740
sg15
I11
sg28
g20
((lp741
(I7
I2
tp742
a(I0
I7
tp743
atp744
Rp745
sg13
((I1
I2
tp746
(I3
I6
tp747
tp748
sg14
I8
sbsS'zigzagUpright'
p749
(imulti_robot_problem
MultiRobotState
p750
(dp751
g19
g20
((lp752
(I1
I3
tp753
a(I3
I1
tp754
a(I2
I1
tp755
a(I1
I1
tp756
a(I1
I5
tp757
a(I2
I3
tp758
a(I2
I5
tp759
a(I0
I3
tp760
a(I3
I5
tp761
atp762
Rp763
sg15
I4
sg28
g20
((lp764
(I3
I6
tp765
atp766
Rp767
sg13
((I3
I0
tp768
(I3
I19
tp769
tp770
sg14
I20
sbsS'ivansRevenge'
p771
(imulti_robot_problem
MultiRobotState
p772
(dp773
g19
g615
sg15
I10
sg28
g20
((lp774
(I9
I2
tp775
a(I0
I0
tp776
atp777
Rp778
sg13
((I9
I0
tp779
(I0
I2
tp780
tp781
sg14
I3
sbsS'roomLongWithObstaccle'
p782
(imulti_robot_problem
MultiRobotState
p783
(dp784
g19
g20
((lp785
(I0
I1
tp786
a(I12
I1
tp787
a(I9
I1
tp788
a(I7
I1
tp789
a(I8
I1
tp790
a(I6
I1
tp791
a(I3
I1
tp792
a(I2
I1
tp793
a(I11
I1
tp794
a(I10
I1
tp795
a(I5
I1
tp796
a(I4
I1
tp797
a(I1
I1
tp798
atp799
Rp800
sg15
I15
sg28
g20
((lp801
(I0
I2
tp802
a(I14
I6
tp803
atp804
Rp805
sg13
((I0
I0
tp806
(I0
I6
tp807
tp808
sg14
I7
sbsS'twoRobotsInOpCorners'
p809
(imulti_robot_problem
MultiRobotState
p810
(dp811
g19
g615
sg15
I5
sg28
g20
((lp812
(I0
I0
tp813
a(I4
I4
tp814
atp815
Rp816
sg13
((I3
I0
tp817
(I0
I3
tp818
tp819
sg14
I5
sbsS'split2'
p820
(imulti_robot_problem
MultiRobotState
p821
(dp822
g19
g615
sg15
I10
sg28
g20
((lp823
(I0
I9
tp824
a(I9
I0
tp825
a(I0
I0
tp826
a(I9
I9
tp827
atp828
Rp829
sg13
((I1
I1
tp830
(I8
I1
tp831
(I4
I5
tp832
(I5
I5
tp833
tp834
sg14
I10
sbsS'split3'
p835
(imulti_robot_problem
MultiRobotState
p836
(dp837
g19
g615
sg15
I10
sg28
g20
((lp838
(I0
I9
tp839
a(I9
I0
tp840
a(I0
I0
tp841
a(I9
I9
tp842
atp843
Rp844
sg13
((I1
I1
tp845
(I8
I1
tp846
(I1
I7
tp847
(I7
I7
tp848
tp849
sg14
I10
sbsS'gaintRoom'
p850
(imulti_robot_problem
MultiRobotState
p851
(dp852
g19
g615
sg15
I5
sg28
g20
((lp853
(I4
I0
tp854
a(I4
I4
tp855
a(I0
I4
tp856
atp857
Rp858
sg13
((I0
I0
tp859
tp860
sg14
I5
sbsS'gaintRoomWithWall'
p861
(imulti_robot_problem
MultiRobotState
p862
(dp863
g19
g20
((lp864
(I2
I4
tp865
atp866
Rp867
sg15
I5
sg28
g20
((lp868
(I4
I0
tp869
a(I4
I4
tp870
a(I0
I4
tp871
atp872
Rp873
sg13
((I0
I0
tp874
tp875
sg14
I5
sbsS'split'
p876
(imulti_robot_problem
MultiRobotState
p877
(dp878
g19
g615
sg15
I10
sg28
g20
((lp879
(I0
I9
tp880
a(I9
I0
tp881
a(I0
I0
tp882
a(I9
I9
tp883
atp884
Rp885
sg13
((I4
I4
tp886
(I5
I4
tp887
(I4
I5
tp888
(I5
I5
tp889
tp890
sg14
I10
sbsS'twoRobots'
p891
(imulti_robot_problem
MultiRobotState
p892
(dp893
g19
g615
sg15
I9
sg28
g20
((lp894
(I8
I0
tp895
a(I0
I0
tp896
atp897
Rp898
sg13
((I2
I0
tp899
(I0
I3
tp900
tp901
sg14
I4
sbssg131
S'static_rooms'
p902
sbsg131
g133
sg134
(dp903
g820
((lp904
F40.110000000000582
tp905
sg835
((lp906
F40.119999999998981
tp907
sg584
((lp908
F40.0
tp909
sg850
((lp910
F39.990000000001601
tp911
sg610
((lp912
F39.989999999999782
tp913
sg625
((lp914
F39.989999999999782
tp915
sg637
((lp916
F39.990000000001601
tp917
sg891
((lp918
F39.989999999999782
tp919
sg861
((lp920
F39.989999999999782
tp921
sg666
((lp922
F39.989999999999782
tp923
sg688
((lp924
F40.0
tp925
sg709
((lp926
F39.989999999999782
tp927
sg749
((lp928
F40.0
tp929
sg771
((lp930
(F0.0037519931793212891
I2
tp931
aF39.989999999999782
tp932
sg782
((lp933
F39.989999999999782
tp934
sg809
((lp935
F39.989999999999782
tp936
sg876
((lp937
F40.5
tp938
ssba(imeasure_core
ProblemSetSolution
p939
(dp940
g3
g4
sg131
S"AnytimeBeam-w4-gf(1.3, 'exp')_with_PowerHeuristic2"
p941
sg134
(dp942
g8
((lp943
(F0.30333495140075684
I50
tp944
a(F0.4534909725189209
I42
tp945
a(F4.2788820266723633
I40
tp946
a(F5.6490039825439453
I34
tp947
a(F6.8340158462524414
I30
tp948
a(F7.8956069946289062
I28
tp949
a(F13.629917860031128
I26
tp950
aF39.989999999999782
tp951
sg40
((lp952
(F1.7741458415985107
I5
tp953
aF40.399999999999636
tp954
sg73
((lp955
F40.059999999999491
tp956
sg102
((lp957
(F0.69256210327148438
I4
tp958
aF40.030000000000655
tp959
ssba(imeasure_core
ProblemSetSolution
p960
(dp961
g3
g156
sg131
g941
sg134
(dp962
g159
((lp963
F40.040000000000873
tp964
sg205
((lp965
F40.029999999998836
tp966
sg262
((lp967
F40.100000000000364
tp968
sg313
((lp969
F40.079999999999927
tp970
ssba(imeasure_core
ProblemSetSolution
p971
(dp972
g3
g374
sg131
g941
sg134
(dp973
g377
((lp974
F40.590000000000146
tp975
sg422
((lp976
F50.760000000000218
tp977
sg465
((lp978
F40.969999999999345
tp979
sg519
((lp980
F45.309999999999491
tp981
ssba(imeasure_core
ProblemSetSolution
p982
(dp983
g3
g581
sg131
g941
sg134
(dp984
g820
((lp985
F40.1200000000008
tp986
sg835
((lp987
F40.229999999999563
tp988
sg584
((lp989
F39.989999999999782
tp990
sg850
((lp991
F39.989999999999782
tp992
sg610
((lp993
F39.990000000001601
tp994
sg625
((lp995
F40.0
tp996
sg637
((lp997
F39.989999999999782
tp998
sg891
((lp999
F39.989999999999782
tp1000
sg861
((lp1001
F39.989999999999782
tp1002
sg666
((lp1003
F39.989999999999782
tp1004
sg688
((lp1005
F40.0
tp1006
sg709
((lp1007
F39.989999999999782
tp1008
sg749
((lp1009
F39.989999999999782
tp1010
sg771
((lp1011
(F0.0037679672241210938
I2
tp1012
aF40.0
tp1013
sg782
((lp1014
F40.0
tp1015
sg809
((lp1016
F39.989999999999782
tp1017
sg876
((lp1018
F40.460000000000946
tp1019
ssba(imeasure_core
ProblemSetSolution
p1020
(dp1021
g3
g4
sg131
S"AnytimeBeam-w4-gf(1.5, 'exp')_with_PowerHeuristic2"
p1022
sg134
(dp1023
g8
((lp1024
(F0.21539902687072754
I50
tp1025
a(F0.36443519592285156
I42
tp1026
a(F3.3931770324707031
I40
tp1027
a(F4.7478451728820801
I34
tp1028
a(F5.9176449775695801
I30
tp1029
a(F6.9761261940002441
I28
tp1030
a(F12.660175085067749
I26
tp1031
aF39.989999999999782
tp1032
sg40
((lp1033
(F1.7784309387207031
I5
tp1034
aF40.700000000000728
tp1035
sg73
((lp1036
F40.089999999998327
tp1037
sg102
((lp1038
(F0.67130899429321289
I4
tp1039
aF40.210000000000946
tp1040
ssba(imeasure_core
ProblemSetSolution
p1041
(dp1042
g3
g156
sg131
g1022
sg134
(dp1043
g159
((lp1044
F40.029999999998836
tp1045
sg205
((lp1046
F40.100000000000364
tp1047
sg262
((lp1048
F40.100000000000364
tp1049
sg313
((lp1050
F40.100000000000364
tp1051
ssba(imeasure_core
ProblemSetSolution
p1052
(dp1053
g3
g374
sg131
g1022
sg134
(dp1054
g377
((lp1055
F40.3799999999992
tp1056
sg422
((lp1057
F51.210000000000946
tp1058
sg465
((lp1059
F40.969999999999345
tp1060
sg519
((lp1061
F45.829999999999927
tp1062
ssba(imeasure_core
ProblemSetSolution
p1063
(dp1064
g3
g581
sg131
g1022
sg134
(dp1065
g820
((lp1066
F40.110000000000582
tp1067
sg835
((lp1068
F40.059999999999491
tp1069
sg584
((lp1070
F39.989999999999782
tp1071
sg850
((lp1072
F39.989999999999782
tp1073
sg610
((lp1074
F39.989999999999782
tp1075
sg625
((lp1076
F40.0
tp1077
sg637
((lp1078
F39.989999999999782
tp1079
sg891
((lp1080
F40.0
tp1081
sg861
((lp1082
F39.989999999999782
tp1083
sg666
((lp1084
F39.990000000001601
tp1085
sg688
((lp1086
F39.989999999999782
tp1087
sg709
((lp1088
F40.0
tp1089
sg749
((lp1090
F39.989999999999782
tp1091
sg771
((lp1092
(F0.0037410259246826172
I2
tp1093
aF39.989999999999782
tp1094
sg782
((lp1095
F39.989999999999782
tp1096
sg809
((lp1097
F40.0
tp1098
sg876
((lp1099
F40.149999999999636
tp1100
ssba(imeasure_core
ProblemSetSolution
p1101
(dp1102
g3
g4
sg131
S"AnytimeBeam-w4-gf(1.7, 'exp')_with_PowerHeuristic2"
p1103
sg134
(dp1104
g8
((lp1105
(F0.072202920913696289
I64
tp1106
a(F0.3158118724822998
I42
tp1107
a(F2.8952929973602295
I40
tp1108
a(F4.2750627994537354
I34
tp1109
a(F5.4605050086975098
I30
tp1110
a(F6.5277957916259766
I28
tp1111
a(F12.274161815643311
I26
tp1112
aF39.990000000001601
tp1113
sg40
((lp1114
(F1.7636189460754395
I5
tp1115
aF40.519999999998618
tp1116
sg73
((lp1117
F40.280000000000655
tp1118
sg102
((lp1119
(F0.67359304428100586
I4
tp1120
aF40.280000000000655
tp1121
ssba(imeasure_core
ProblemSetSolution
p1122
(dp1123
g3
g156
sg131
g1103
sg134
(dp1124
g159
((lp1125
F40.030000000000655
tp1126
sg205
((lp1127
F40.069999999999709
tp1128
sg262
((lp1129
F40.069999999999709
tp1130
sg313
((lp1131
F40.100000000000364
tp1132
ssba(imeasure_core
ProblemSetSolution
p1133
(dp1134
g3
g374
sg131
g1103
sg134
(dp1135
g377
((lp1136
F40.170000000000073
tp1137
sg422
((lp1138
F50.909999999999854
tp1139
sg465
((lp1140
F40.680000000000291
tp1141
sg519
((lp1142
F45.260000000000218
tp1143
ssba(imeasure_core
ProblemSetSolution
p1144
(dp1145
g3
g581
sg131
g1103
sg134
(dp1146
g820
((lp1147
F40.139999999999418
tp1148
sg835
((lp1149
F40.110000000000582
tp1150
sg584
((lp1151
F39.989999999999782
tp1152
sg850
((lp1153
F39.989999999999782
tp1154
sg610
((lp1155
F39.989999999999782
tp1156
sg625
((lp1157
F40.0
tp1158
sg637
((lp1159
F39.989999999999782
tp1160
sg891
((lp1161
F40.0
tp1162
sg861
((lp1163
F39.989999999999782
tp1164
sg666
((lp1165
F40.0
tp1166
sg688
((lp1167
F39.989999999999782
tp1168
sg709
((lp1169
F40.0
tp1170
sg749
((lp1171
F39.989999999999782
tp1172
sg771
((lp1173
(F0.0037529468536376953
I2
tp1174
aF39.990000000001601
tp1175
sg782
((lp1176
F39.989999999999782
tp1177
sg809
((lp1178
F39.989999999999782
tp1179
sg876
((lp1180
F40.139999999999418
tp1181
ssba(imeasure_core
ProblemSetSolution
p1182
(dp1183
g3
g4
sg131
S"AnytimeBeam-w4-gf(1.1000000000000001, 'exp')_with_LinearHeuristic"
p1184
sg134
(dp1185
g8
((lp1186
(F0.084555864334106445
I28
tp1187
aF39.990000000001601
tp1188
sg40
((lp1189
F40.959999999999127
tp1190
sg73
((lp1191
(F5.2848479747772217
I27
tp1192
aF40.190000000000509
tp1193
sg102
((lp1194
(F3.8803610801696777
I10
tp1195
aF40.299999999999272
tp1196
ssba(imeasure_core
ProblemSetSolution
p1197
(dp1198
g3
g156
sg131
g1184
sg134
(dp1199
g159
((lp1200
F40.010000000000218
tp1201
sg205
((lp1202
F40.0
tp1203
sg262
((lp1204
F40.149999999999636
tp1205
sg313
((lp1206
F40.0
tp1207
ssba(imeasure_core
ProblemSetSolution
p1208
(dp1209
g3
g374
sg131
g1184
sg134
(dp1210
g377
((lp1211
F40.450000000000728
tp1212
sg422
((lp1213
F44.8799999999992
tp1214
sg465
((lp1215
F41.25
tp1216
sg519
((lp1217
F47.229999999999563
tp1218
ssba(imeasure_core
ProblemSetSolution
p1219
(dp1220
g3
g581
sg131
g1184
sg134
(dp1221
g820
((lp1222
F40.389999999999418
tp1223
sg835
((lp1224
F40.300000000001091
tp1225
sg584
((lp1226
F40.0
tp1227
sg850
((lp1228
F39.989999999999782
tp1229
sg610
((lp1230
(F0.0062880516052246094
I8
tp1231
aF39.989999999999782
tp1232
sg625
((lp1233
F40.0
tp1234
sg637
((lp1235
F40.0
tp1236
sg891
((lp1237
F39.989999999999782
tp1238
sg861
((lp1239
F39.989999999999782
tp1240
sg666
((lp1241
F39.989999999999782
tp1242
sg688
((lp1243
(F9.4525730609893799
I8
tp1244
a(F26.001967191696167
I7
tp1245
aF40.010000000000218
tp1246
sg709
((lp1247
F39.989999999999782
tp1248
sg749
((lp1249
F40.0
tp1250
sg771
((lp1251
(F0.0052738189697265625
I2
tp1252
aF39.990000000001601
tp1253
sg782
((lp1254
F39.989999999999782
tp1255
sg809
((lp1256
F39.989999999999782
tp1257
sg876
((lp1258
F40.100000000000364
tp1259
ssba(imeasure_core
ProblemSetSolution
p1260
(dp1261
g3
g4
sg131
S"AnytimeBeam-w4-gf(1.3, 'exp')_with_LinearHeuristic"
p1262
sg134
(dp1263
g8
((lp1264
(F0.05038905143737793
I28
tp1265
aF39.979999999999563
tp1266
sg40
((lp1267
F40.549999999999272
tp1268
sg73
((lp1269
(F6.1710309982299805
I27
tp1270
aF40.380000000001019
tp1271
sg102
((lp1272
(F4.3738341331481934
I10
tp1273
aF40.180000000000291
tp1274
ssba(imeasure_core
ProblemSetSolution
p1275
(dp1276
g3
g156
sg131
g1262
sg134
(dp1277
g159
((lp1278
F40.0
tp1279
sg205
((lp1280
F40.059999999999491
tp1281
sg262
((lp1282
F40.020000000000437
tp1283
sg313
((lp1284
F40.009999999998399
tp1285
ssba(imeasure_core
ProblemSetSolution
p1286
(dp1287
g3
g374
sg131
g1262
sg134
(dp1288
g377
((lp1289
F40.450000000000728
tp1290
sg422
((lp1291
F58.270000000000437
tp1292
sg465
((lp1293
F40.420000000000073
tp1294
sg519
((lp1295
F50.090000000000146
tp1296
ssba(imeasure_core
ProblemSetSolution
p1297
(dp1298
g3
g581
sg131
g1262
sg134
(dp1299
g820
((lp1300
F40.520000000000437
tp1301
sg835
((lp1302
F40.25
tp1303
sg584
((lp1304
F40.0
tp1305
sg850
((lp1306
F39.990000000001601
tp1307
sg610
((lp1308
(F0.0063760280609130859
I8
tp1309
aF39.989999999999782
tp1310
sg625
((lp1311
F40.010000000000218
tp1312
sg637
((lp1313
F39.989999999999782
tp1314
sg891
((lp1315
F39.989999999997963
tp1316
sg861
((lp1317
F39.989999999997963
tp1318
sg666
((lp1319
F40.0
tp1320
sg688
((lp1321
(F9.4210731983184814
I8
tp1322
a(F25.821977138519287
I7
tp1323
aF39.989999999999782
tp1324
sg709
((lp1325
F40.0
tp1326
sg749
((lp1327
F39.989999999999782
tp1328
sg771
((lp1329
(F0.0053179264068603516
I2
tp1330
aF40.0
tp1331
sg782
((lp1332
F39.989999999999782
tp1333
sg809
((lp1334
F39.989999999999782
tp1335
sg876
((lp1336
F40.720000000001164
tp1337
ssba(imeasure_core
ProblemSetSolution
p1338
(dp1339
g3
g4
sg131
S"AnytimeBeam-w4-gf(1.5, 'exp')_with_LinearHeuristic"
p1340
sg134
(dp1341
g8
((lp1342
(F0.05022883415222168
I28
tp1343
a(F29.141262054443359
I26
tp1344
aF39.989999999997963
tp1345
sg40
((lp1346
F40.210000000002765
tp1347
sg73
((lp1348
F40.0
tp1349
sg102
((lp1350
(F4.7237391471862793
I10
tp1351
aF40.19999999999709
tp1352
ssba(imeasure_core
ProblemSetSolution
p1353
(dp1354
g3
g156
sg131
g1340
sg134
(dp1355
g159
((lp1356
F40.009999999998399
tp1357
sg205
((lp1358
F40.030000000002474
tp1359
sg262
((lp1360
F40.319999999999709
tp1361
sg313
((lp1362
F40.020000000000437
tp1363
ssba(imeasure_core
ProblemSetSolution
p1364
(dp1365
g3
g374
sg131
g1340
sg134
(dp1366
g377
((lp1367
F42.549999999999272
tp1368
sg422
((lp1369
F49.180000000000291
tp1370
sg465
((lp1371
F40.770000000000437
tp1372
sg519
((lp1373
F53.740000000001601
tp1374
ssba(imeasure_core
ProblemSetSolution
p1375
(dp1376
g3
g581
sg131
g1340
sg134
(dp1377
g820
((lp1378
F40.309999999997672
tp1379
sg835
((lp1380
F40.380000000001019
tp1381
sg584
((lp1382
F40.0
tp1383
sg850
((lp1384
F40.0
tp1385
sg610
((lp1386
(F0.0063991546630859375
I8
tp1387
aF40.0
tp1388
sg625
((lp1389
F40.009999999998399
tp1390
sg637
((lp1391
F40.0
tp1392
sg891
((lp1393
F39.990000000001601
tp1394
sg861
((lp1395
F39.990000000001601
tp1396
sg666
((lp1397
F39.990000000001601
tp1398
sg688
((lp1399
(F9.3958737850189209
I8
tp1400
a(F25.887543916702271
I7
tp1401
aF40.0
tp1402
sg709
((lp1403
F40.0
tp1404
sg749
((lp1405
F39.989999999997963
tp1406
sg771
((lp1407
(F0.0053129196166992188
I2
tp1408
aF40.0
tp1409
sg782
((lp1410
F40.0
tp1411
sg809
((lp1412
F39.990000000001601
tp1413
sg876
((lp1414
F40.349999999998545
tp1415
ssba(imeasure_core
ProblemSetSolution
p1416
(dp1417
g3
g4
sg131
S"AnytimeBeam-w4-gf(1.7, 'exp')_with_LinearHeuristic"
p1418
sg134
(dp1419
g8
((lp1420
(F0.041681051254272461
I28
tp1421
a(F28.62126612663269
I26
tp1422
aF39.989999999997963
tp1423
sg40
((lp1424
F40.260000000002037
tp1425
sg73
((lp1426
F40.269999999996799
tp1427
sg102
((lp1428
(F4.9532589912414551
I10
tp1429
aF40.210000000002765
tp1430
ssba(imeasure_core
ProblemSetSolution
p1431
(dp1432
g3
g156
sg131
g1418
sg134
(dp1433
g159
((lp1434
F40.049999999999272
tp1435
sg205
((lp1436
F40.030000000002474
tp1437
sg262
((lp1438
F40.619999999998981
tp1439
sg313
((lp1440
F40.130000000001019
tp1441
ssba(imeasure_core
ProblemSetSolution
p1442
(dp1443
g3
g374
sg131
g1418
sg134
(dp1444
g377
((lp1445
F43.489999999997963
tp1446
sg422
((lp1447
F51.020000000000437
tp1448
sg465
((lp1449
F40.580000000001746
tp1450
sg519
((lp1451
F54.25
tp1452
ssba(imeasure_core
ProblemSetSolution
p1453
(dp1454
g3
g581
sg131
g1418
sg134
(dp1455
g820
((lp1456
F40.049999999999272
tp1457
sg835
((lp1458
F40.119999999998981
tp1459
sg584
((lp1460
F40.009999999998399
tp1461
sg850
((lp1462
F40.0
tp1463
sg610
((lp1464
(F0.0064001083374023438
I8
tp1465
aF39.990000000001601
tp1466
sg625
((lp1467
F40.0
tp1468
sg637
((lp1469
F39.989999999997963
tp1470
sg891
((lp1471
F40.0
tp1472
sg861
((lp1473
F39.990000000001601
tp1474
sg666
((lp1475
F39.990000000001601
tp1476
sg688
((lp1477
(F9.3179068565368652
I8
tp1478
a(F25.580667018890381
I7
tp1479
aF40.009999999998399
tp1480
sg709
((lp1481
F39.990000000001601
tp1482
sg749
((lp1483
F39.989999999997963
tp1484
sg771
((lp1485
(F0.0052490234375
I2
tp1486
aF39.990000000001601
tp1487
sg782
((lp1488
F40.0
tp1489
sg809
((lp1490
F40.0
tp1491
sg876
((lp1492
F40.349999999998545
tp1493
ssba.