(lp0
(imeasure_core
ProblemSetSolution
p1
(dp2
S'roomset'
p3
(imeasure_core
RoomSet
p4
(dp5
S'rooms'
p6
(dp7
(iproblems
RoomID
p8
(dp9
S'width'
p10
I9
sS'dusts'
p11
I8
sS'seed'
p12
I3433768247134474666
sS'obstacles'
p13
(I1
I6
tp14
sS'robots'
p15
I4
sS'height'
p16
I10
sb(imulti_robot_problem
MultiRobotState
p17
(dp18
S'obstacle_locations'
p19
c__builtin__
frozenset
p20
((lp21
(I4
I9
tp22
a(I4
I6
tp23
a(I0
I7
tp24
ag14
a(I0
I9
tp25
a(I8
I6
tp26
a(I0
I8
tp27
a(I3
I3
tp28
atp29
Rp30
sg10
I9
sS'dirt_locations'
p31
g20
((lp32
(I5
I4
tp33
a(I3
I2
tp34
a(I7
I7
tp35
a(I1
I9
tp36
a(I8
I7
tp37
a(I1
I1
tp38
a(I5
I8
tp39
a(I7
I9
tp40
atp41
Rp42
sg15
((I5
I9
tp43
(I5
I5
tp44
(I6
I9
tp45
(I2
I0
tp46
tp47
sg16
I10
sbs(iproblems
RoomID
p48
(dp49
g10
I9
sg11
I7
sg12
I6241004153072892496
sg13
(I2
I2
tp50
sg15
I3
sg16
I9
sb(imulti_robot_problem
MultiRobotState
p51
(dp52
g19
g20
((lp53
(I7
I3
tp54
a(I3
I2
tp55
a(I7
I1
tp56
a(I7
I7
tp57
ag50
a(I5
I1
tp58
a(I4
I1
tp59
atp60
Rp61
sg10
I9
sg31
g20
((lp62
(I4
I8
tp63
a(I5
I7
tp64
a(I6
I0
tp65
a(I3
I8
tp66
a(I1
I5
tp67
a(I3
I7
tp68
a(I3
I4
tp69
atp70
Rp71
sg15
((I6
I5
tp72
(I4
I3
tp73
(I3
I5
tp74
tp75
sg16
I9
sbs(iproblems
RoomID
p76
(dp77
g10
I9
sg11
I6
sg12
I8554152435637441414
sg13
(I7
I4
tp78
sg15
I4
sg16
I8
sb(imulti_robot_problem
MultiRobotState
p79
(dp80
g19
g20
((lp81
(I6
I6
tp82
a(I5
I7
tp83
ag78
a(I2
I0
tp84
a(I7
I5
tp85
a(I3
I7
tp86
a(I0
I3
tp87
a(I4
I1
tp88
atp89
Rp90
sg10
I9
sg31
g20
((lp91
(I7
I3
tp92
a(I1
I6
tp93
a(I5
I1
tp94
a(I8
I6
tp95
a(I0
I2
tp96
a(I4
I0
tp97
atp98
Rp99
sg15
((I5
I3
tp100
(I6
I2
tp101
(I6
I3
tp102
(I6
I4
tp103
tp104
sg16
I8
sbs(iproblems
RoomID
p105
(dp106
g10
I8
sg11
I9
sg12
I6161655336973386967
sg13
(I4
I3
tp107
sg15
I3
sg16
I9
sb(imulti_robot_problem
MultiRobotState
p108
(dp109
g19
g20
((lp110
(I7
I3
tp111
a(I5
I4
tp112
a(I6
I6
tp113
a(I2
I1
tp114
a(I6
I3
tp115
ag107
a(I5
I2
tp116
atp117
Rp118
sg10
I8
sg31
g20
((lp119
(I6
I4
tp120
a(I6
I8
tp121
a(I2
I0
tp122
a(I5
I7
tp123
a(I1
I4
tp124
a(I1
I5
tp125
a(I0
I5
tp126
a(I2
I5
tp127
a(I4
I1
tp128
atp129
Rp130
sg15
((I3
I5
tp131
(I4
I6
tp132
(I4
I5
tp133
tp134
sg16
I9
sbs(iproblems
RoomID
p135
(dp136
g10
I10
sg11
I10
sg12
I3125140389427113411
sg13
(I6
I4
tp137
sg15
I4
sg16
I7
sb(imulti_robot_problem
MultiRobotState
p138
(dp139
g19
g20
((lp140
(I6
I3
tp141
a(I5
I1
tp142
a(I5
I2
tp143
ag137
atp144
Rp145
sg10
I10
sg31
g20
((lp146
(I1
I2
tp147
a(I7
I3
tp148
a(I0
I0
tp149
a(I3
I3
tp150
a(I6
I2
tp151
a(I1
I6
tp152
a(I9
I4
tp153
a(I2
I5
tp154
a(I0
I2
tp155
a(I7
I2
tp156
atp157
Rp158
sg15
((I9
I0
tp159
(I6
I5
tp160
(I1
I4
tp161
(I1
I3
tp162
tp163
sg16
I7
sbssS'name'
p164
S'easy_roomset'
p165
sbsS'name'
p166
S"AnytimeBeam-w5-gf(1.3, 'exp')_with_PowerHeuristic2"
p167
sS'solutions'
p168
(dp169
g8
((lp170
(F0.26999999999679858
I10
tp171
aF40.099999999998545
tp172
sg48
((lp173
(F0.069999999999708962
I8
tp174
aF40.019999999996799
tp175
sg105
((lp176
(F0.43000000000029104
I48
tp177
aF40.130000000004657
tp178
sg76
((lp179
(F0.18000000000029104
I8
tp180
aF40.080000000001746
tp181
sg135
((lp182
(F0.47999999999592546
I13
tp183
aF40.039999999993597
tp184
ssba(imeasure_core
ProblemSetSolution
p185
(dp186
g3
(imeasure_core
RoomSet
p187
(dp188
S'rooms'
p189
(dp190
(iproblems
RoomID
p191
(dp192
S'width'
p193
I9
sS'dusts'
p194
I10
sS'seed'
p195
I4927760411464392432
sS'obstacles'
p196
(I1
I6
tp197
sS'robots'
p198
I3
sS'height'
p199
I12
sb(imulti_robot_problem
MultiRobotState
p200
(dp201
S'obstacle_locations'
p202
g20
((lp203
(I5
I9
tp204
a(I1
I3
tp205
a(I7
I7
tp206
ag197
a(I3
I7
tp207
a(I2
I5
tp208
a(I2
I9
tp209
a(I3
I10
tp210
a(I6
I10
tp211
a(I3
I6
tp212
a(I2
I2
tp213
a(I4
I5
tp214
a(I6
I0
tp215
a(I3
I9
tp216
a(I2
I3
tp217
a(I8
I7
tp218
a(I7
I9
tp219
a(I4
I6
tp220
a(I3
I1
tp221
a(I2
I11
tp222
a(I3
I8
tp223
a(I0
I6
tp224
a(I3
I4
tp225
a(I7
I6
tp226
atp227
Rp228
sg193
I9
sS'dirt_locations'
p229
g20
((lp230
(I1
I2
tp231
a(I6
I4
tp232
a(I6
I9
tp233
a(I8
I2
tp234
a(I8
I0
tp235
a(I0
I9
tp236
a(I1
I10
tp237
a(I1
I0
tp238
a(I0
I2
tp239
a(I4
I11
tp240
atp241
Rp242
sg198
((I1
I11
tp243
(I0
I11
tp244
(I7
I5
tp245
tp246
sg199
I12
sbs(iproblems
RoomID
p247
(dp248
g193
I11
sg194
I8
sg195
I3433768247134474666
sg196
(I1
I11
tp249
sg198
I4
sg199
I12
sb(imulti_robot_problem
MultiRobotState
p250
(dp251
g202
g20
((lp252
(I5
I0
tp253
a(I4
I8
tp254
a(I2
I8
tp255
a(I10
I6
tp256
a(I0
I10
tp257
a(I9
I4
tp258
a(I3
I7
tp259
ag249
a(I10
I3
tp260
a(I5
I8
tp261
a(I6
I7
tp262
a(I2
I9
tp263
a(I0
I11
tp264
a(I3
I6
tp265
a(I10
I4
tp266
a(I4
I5
tp267
a(I9
I3
tp268
a(I2
I10
tp269
a(I2
I3
tp270
a(I8
I7
tp271
a(I4
I9
tp272
a(I9
I6
tp273
a(I4
I11
tp274
a(I2
I7
tp275
a(I10
I5
tp276
a(I3
I8
tp277
a(I1
I8
tp278
a(I8
I8
tp279
a(I0
I9
tp280
a(I7
I8
tp281
atp282
Rp283
sg193
I11
sg229
g20
((lp284
(I4
I3
tp285
a(I5
I11
tp286
a(I9
I8
tp287
a(I2
I11
tp288
a(I9
I11
tp289
a(I7
I10
tp290
a(I1
I1
tp291
a(I6
I5
tp292
atp293
Rp294
sg198
((I7
I11
tp295
(I7
I7
tp296
(I2
I0
tp297
(I10
I9
tp298
tp299
sg199
I12
sbs(iproblems
RoomID
p300
(dp301
g193
I12
sg194
I10
sg195
I3125140389427113411
sg196
(I5
I4
tp302
sg198
I4
sg199
I9
sb(imulti_robot_problem
MultiRobotState
p303
(dp304
g202
g20
((lp305
(I7
I3
tp306
a(I4
I7
tp307
a(I6
I6
tp308
a(I5
I6
tp309
a(I6
I2
tp310
a(I3
I7
tp311
a(I5
I1
tp312
a(I2
I5
tp313
a(I6
I7
tp314
a(I3
I3
tp315
a(I10
I7
tp316
a(I8
I6
tp317
a(I5
I3
tp318
a(I6
I4
tp319
ag302
a(I2
I6
tp320
a(I1
I4
tp321
a(I10
I1
tp322
a(I6
I5
tp323
a(I5
I5
tp324
a(I2
I7
tp325
a(I6
I1
tp326
a(I7
I4
tp327
a(I9
I5
tp328
a(I5
I2
tp329
a(I8
I4
tp330
atp331
Rp332
sg193
I12
sg229
g20
((lp333
(I0
I0
tp334
a(I11
I4
tp335
a(I8
I2
tp336
a(I3
I0
tp337
a(I6
I0
tp338
a(I1
I8
tp339
a(I2
I3
tp340
a(I0
I3
tp341
a(I11
I6
tp342
a(I3
I5
tp343
atp344
Rp345
sg198
((I11
I0
tp346
(I7
I7
tp347
(I1
I5
tp348
(I2
I4
tp349
tp350
sg199
I9
sbs(iproblems
RoomID
p351
(dp352
g193
I11
sg194
I7
sg195
I6241004153072892496
sg196
(I10
I3
tp353
sg198
I3
sg199
I11
sb(imulti_robot_problem
MultiRobotState
p354
(dp355
g202
g20
((lp356
(I9
I8
tp357
a(I7
I7
tp358
a(I8
I9
tp359
a(I6
I2
tp360
a(I9
I4
tp361
a(I5
I1
tp362
a(I0
I3
tp363
a(I8
I5
tp364
a(I1
I2
tp365
a(I5
I5
tp366
a(I10
I7
tp367
ag353
a(I8
I6
tp368
a(I3
I2
tp369
a(I0
I0
tp370
a(I2
I3
tp371
a(I4
I2
tp372
a(I6
I1
tp373
a(I1
I8
tp374
a(I8
I8
tp375
a(I9
I5
tp376
a(I7
I8
tp377
a(I2
I4
tp378
atp379
Rp380
sg193
I11
sg229
g20
((lp381
(I4
I10
tp382
a(I6
I9
tp383
a(I4
I9
tp384
a(I9
I1
tp385
a(I3
I10
tp386
a(I8
I0
tp387
a(I5
I10
tp388
atp389
Rp390
sg198
((I5
I4
tp391
(I4
I6
tp392
(I1
I6
tp393
tp394
sg199
I11
sbs(iproblems
RoomID
p395
(dp396
g193
I11
sg194
I6
sg195
I8554152435637441414
sg196
(I5
I4
tp397
sg198
I4
sg199
I10
sb(imulti_robot_problem
MultiRobotState
p398
(dp399
g202
g20
((lp400
(I2
I8
tp401
a(I7
I7
tp402
a(I0
I7
tp403
a(I6
I2
tp404
a(I3
I7
tp405
a(I5
I1
tp406
a(I0
I3
tp407
a(I8
I5
tp408
a(I4
I9
tp409
a(I6
I3
tp410
a(I3
I6
tp411
a(I8
I6
tp412
a(I10
I9
tp413
a(I6
I4
tp414
ag397
a(I4
I5
tp415
a(I9
I3
tp416
a(I7
I5
tp417
a(I2
I1
tp418
a(I5
I3
tp419
a(I8
I3
tp420
a(I7
I0
tp421
a(I6
I8
tp422
a(I3
I8
tp423
a(I7
I8
tp424
atp425
Rp426
sg193
I11
sg229
g20
((lp427
(I1
I3
tp428
a(I9
I4
tp429
a(I3
I0
tp430
a(I5
I0
tp431
a(I4
I2
tp432
a(I7
I2
tp433
atp434
Rp435
sg198
((I8
I2
tp436
(I8
I4
tp437
(I9
I7
tp438
(I0
I2
tp439
tp440
sg199
I10
sbssS'name'
p441
S'mild_roomset'
p442
sbsg166
g167
sg168
(dp443
g191
((lp444
F40.010000000002037
tp445
sg247
((lp446
(F0.65000000000145519
I30
tp447
aF40.139999999999418
tp448
sg300
((lp449
(F34.30000000000291
I288
tp450
aF40.0
tp451
sg351
((lp452
(F0.38999999999941792
I23
tp453
a(F0.58000000000174623
I13
tp454
aF40.0
tp455
sg395
((lp456
(F3.25
I55
tp457
aF40.020000000004075
tp458
ssba(imeasure_core
ProblemSetSolution
p459
(dp460
g3
(imeasure_core
RoomSet
p461
(dp462
S'rooms'
p463
(dp464
(iproblems
RoomID
p465
(dp466
S'width'
p467
I10
sS'dusts'
p468
I15
sS'seed'
p469
I4927760411464392432
sS'obstacles'
p470
(I3
I3
tp471
sS'robots'
p472
I5
sS'height'
p473
I13
sb(imulti_robot_problem
MultiRobotState
p474
(dp475
S'obstacle_locations'
p476
g20
((lp477
(I1
I2
tp478
a(I3
I1
tp479
ag471
a(I6
I11
tp480
a(I7
I6
tp481
a(I6
I10
tp482
a(I3
I11
tp483
a(I2
I1
tp484
a(I2
I10
tp485
a(I3
I9
tp486
a(I2
I3
tp487
a(I1
I7
tp488
a(I1
I3
tp489
a(I1
I0
tp490
a(I3
I10
tp491
a(I1
I1
tp492
a(I9
I12
tp493
a(I4
I0
tp494
atp495
Rp496
sg467
I10
sS'dirt_locations'
p497
g20
((lp498
(I9
I0
tp499
a(I7
I0
tp500
a(I5
I5
tp501
a(I4
I12
tp502
a(I0
I10
tp503
a(I8
I10
tp504
a(I1
I4
tp505
a(I8
I8
tp506
a(I2
I12
tp507
a(I8
I7
tp508
a(I1
I10
tp509
a(I7
I11
tp510
a(I9
I7
tp511
a(I0
I2
tp512
a(I8
I2
tp513
atp514
Rp515
sg472
((I1
I12
tp516
(I0
I12
tp517
(I8
I5
tp518
(I7
I9
tp519
(I7
I4
tp520
tp521
sg473
I13
sbs(iproblems
RoomID
p522
(dp523
g467
I12
sg468
I13
sg469
I3433768247134474666
sg470
(I4
I11
tp524
sg472
I6
sg473
I13
sb(imulti_robot_problem
MultiRobotState
p525
(dp526
g476
g20
((lp527
(I4
I10
tp528
a(I11
I3
tp529
a(I3
I12
tp530
a(I5
I11
tp531
a(I6
I11
tp532
a(I11
I7
tp533
a(I9
I8
tp534
a(I8
I8
tp535
a(I6
I0
tp536
a(I0
I12
tp537
a(I1
I1
tp538
a(I0
I11
tp539
a(I4
I12
tp540
a(I2
I3
tp541
a(I2
I12
tp542
a(I1
I6
tp543
a(I0
I10
tp544
a(I10
I3
tp545
a(I3
I10
tp546
ag524
a(I1
I9
tp547
atp548
Rp549
sg467
I12
sg497
g20
((lp550
(I10
I8
tp551
a(I10
I5
tp552
a(I6
I7
tp553
a(I6
I8
tp554
a(I4
I4
tp555
a(I10
I12
tp556
a(I5
I10
tp557
a(I9
I9
tp558
a(I7
I5
tp559
a(I7
I10
tp560
a(I6
I12
tp561
a(I8
I10
tp562
a(I5
I3
tp563
atp564
Rp565
sg472
((I7
I12
tp566
(I7
I7
tp567
(I8
I12
tp568
(I2
I0
tp569
(I11
I9
tp570
(I1
I2
tp571
tp572
sg473
I13
sbs(iproblems
RoomID
p573
(dp574
g467
I12
sg468
I11
sg469
I8554152435637441414
sg470
(I3
I6
tp575
sg472
I7
sg473
I11
sb(imulti_robot_problem
MultiRobotState
p576
(dp577
g476
g20
((lp578
(I2
I8
tp579
a(I11
I2
tp580
a(I9
I4
tp581
a(I3
I7
tp582
a(I5
I1
tp583
a(I3
I8
tp584
a(I7
I6
tp585
a(I4
I4
tp586
a(I6
I3
tp587
ag575
a(I0
I4
tp588
a(I8
I6
tp589
a(I9
I7
tp590
a(I4
I5
tp591
a(I7
I5
tp592
a(I9
I6
tp593
a(I7
I9
tp594
a(I3
I1
tp595
a(I7
I4
tp596
a(I1
I8
tp597
a(I8
I8
tp598
a(I1
I7
tp599
a(I0
I9
tp600
atp601
Rp602
sg467
I12
sg497
g20
((lp603
(I11
I10
tp604
a(I4
I9
tp605
a(I2
I9
tp606
a(I3
I0
tp607
a(I8
I0
tp608
a(I4
I7
tp609
a(I1
I4
tp610
a(I0
I3
tp611
a(I0
I8
tp612
a(I5
I2
tp613
a(I7
I2
tp614
atp615
Rp616
sg472
((I6
I4
tp617
(I8
I2
tp618
(I8
I5
tp619
(I10
I8
tp620
(I1
I2
tp621
(I6
I0
tp622
(I10
I4
tp623
tp624
sg473
I11
sbs(iproblems
RoomID
p625
(dp626
g467
I12
sg468
I12
sg469
I6241004153072892496
sg470
(I3
I3
tp627
sg472
I6
sg473
I12
sb(imulti_robot_problem
MultiRobotState
p628
(dp629
g476
g20
((lp630
(I3
I1
tp631
ag627
a(I2
I9
tp632
a(I7
I1
tp633
a(I11
I8
tp634
a(I5
I2
tp635
a(I6
I1
tp636
a(I9
I3
tp637
a(I8
I5
tp638
a(I4
I3
tp639
a(I4
I2
tp640
a(I3
I4
tp641
a(I11
I6
tp642
atp643
Rp644
sg467
I12
sg497
g20
((lp645
(I4
I10
tp646
a(I0
I0
tp647
a(I8
I7
tp648
a(I5
I11
tp649
a(I8
I0
tp650
a(I9
I10
tp651
a(I7
I10
tp652
a(I10
I1
tp653
a(I2
I5
tp654
a(I8
I9
tp655
a(I4
I11
tp656
a(I10
I4
tp657
atp658
Rp659
sg472
((I8
I6
tp660
(I5
I4
tp661
(I7
I2
tp662
(I4
I7
tp663
(I1
I7
tp664
(I5
I6
tp665
tp666
sg473
I12
sbs(iproblems
RoomID
p667
(dp668
g467
I13
sg468
I15
sg469
I3125140389427113411
sg470
(I1
I6
tp669
sg472
I6
sg473
I10
sb(imulti_robot_problem
MultiRobotState
p670
(dp671
g476
g20
((lp672
(I7
I3
tp673
a(I3
I3
tp674
a(I2
I0
tp675
a(I6
I1
tp676
a(I1
I4
tp677
a(I7
I4
tp678
a(I1
I5
tp679
a(I11
I1
tp680
a(I2
I3
tp681
a(I0
I7
tp682
a(I8
I7
tp683
a(I6
I2
tp684
ag669
atp685
Rp686
sg467
I13
sg497
g20
((lp687
(I0
I1
tp688
a(I2
I6
tp689
a(I2
I9
tp690
a(I11
I8
tp691
a(I2
I8
tp692
a(I9
I3
tp693
a(I6
I0
tp694
a(I7
I7
tp695
a(I6
I3
tp696
a(I3
I0
tp697
a(I12
I4
tp698
a(I0
I4
tp699
a(I9
I7
tp700
a(I2
I4
tp701
a(I9
I2
tp702
atp703
Rp704
sg472
((I12
I0
tp705
(I7
I8
tp706
(I2
I5
tp707
(I4
I5
tp708
(I12
I7
tp709
(I9
I4
tp710
tp711
sg473
I10
sbssS'name'
p712
S'heavy_roomset'
p713
sbsg166
g167
sg168
(dp714
g465
((lp715
F40.180000000000291
tp716
sg522
((lp717
(F17.509999999994761
I17
tp718
aF41.869999999995343
tp719
sg625
((lp720
F40.279999999998836
tp721
sg573
((lp722
(F36.169999999998254
I14
tp723
aF42.970000000001164
tp724
sg667
((lp725
(F16.400000000001455
I29
tp726
aF40.529999999998836
tp727
ssba(imeasure_core
ProblemSetSolution
p728
(dp729
g3
g4
sg166
S"AnytimeBeam-w15-gf(1.3, 'exp')_with_PowerHeuristic2"
p730
sg168
(dp731
g8
((lp732
(F0.38999999999941792
I10
tp733
aF40.139999999999418
tp734
sg48
((lp735
(F0.08000000000174623
I8
tp736
aF40.030000000006112
tp737
sg105
((lp738
(F0.62999999999738066
I48
tp739
aF40.010000000002037
tp740
sg76
((lp741
(F0.25999999999476131
I8
tp742
aF40.099999999998545
tp743
sg135
((lp744
(F0.53999999999359716
I13
tp745
aF40.099999999998545
tp746
ssba(imeasure_core
ProblemSetSolution
p747
(dp748
g3
g187
sg166
g730
sg168
(dp749
g191
((lp750
F40.0
tp751
sg247
((lp752
(F0.93999999999505235
I30
tp753
aF40.040000000000873
tp754
sg300
((lp755
(F36.369999999995343
I288
tp756
aF40.009999999994761
tp757
sg351
((lp758
(F0.22000000000116415
I13
tp759
aF40.05000000000291
tp760
sg395
((lp761
(F2.2399999999979627
I55
tp762
aF40.059999999997672
tp763
ssba(imeasure_core
ProblemSetSolution
p764
(dp765
g3
g461
sg166
g730
sg168
(dp766
g465
((lp767
F40.360000000000582
tp768
sg522
((lp769
(F18.129999999997381
I17
tp770
aF40.959999999999127
tp771
sg625
((lp772
F40.270000000004075
tp773
sg573
((lp774
(F37.970000000001164
I14
tp775
aF44.769999999996799
tp776
sg667
((lp777
(F18.040000000000873
I29
tp778
aF40.339999999996508
tp779
ssba(imeasure_core
ProblemSetSolution
p780
(dp781
g3
g4
sg166
S"AnytimeBeam-w25-gf(1.3, 'exp')_with_PowerHeuristic2"
p782
sg168
(dp783
g8
((lp784
(F0.43000000000029104
I10
tp785
aF40.099999999998545
tp786
sg48
((lp787
(F0.12000000000261934
I8
tp788
aF40.040000000000873
tp789
sg105
((lp790
(F0.76000000000203727
I48
tp791
aF40.139999999999418
tp792
sg76
((lp793
(F0.31000000000494765
I8
tp794
aF40.330000000001746
tp795
sg135
((lp796
(F0.59999999999854481
I13
tp797
aF40.349999999998545
tp798
ssba(imeasure_core
ProblemSetSolution
p799
(dp800
g3
g187
sg166
g782
sg168
(dp801
g191
((lp802
F40.0
tp803
sg247
((lp804
(F1.0599999999976717
I30
tp805
aF40.169999999998254
tp806
sg300
((lp807
(F26.080000000001746
I288
tp808
aF40.05000000000291
tp809
sg351
((lp810
(F0.26000000000203727
I13
tp811
aF40.049999999995634
tp812
sg395
((lp813
(F2.569999999999709
I55
tp814
aF40.110000000000582
tp815
ssba(imeasure_core
ProblemSetSolution
p816
(dp817
g3
g461
sg166
g782
sg168
(dp818
g465
((lp819
F40.430000000000291
tp820
sg522
((lp821
(F18.30000000000291
I17
tp822
aF41.730000000003201
tp823
sg625
((lp824
F40.389999999999418
tp825
sg573
((lp826
(F38.040000000000873
I14
tp827
aF44.830000000001746
tp828
sg667
((lp829
(F18.399999999994179
I29
tp830
aF41.919999999998254
tp831
ssba(imeasure_core
ProblemSetSolution
p832
(dp833
g3
g4
sg166
S"AnytimeBeam-w35-gf(1.3, 'exp')_with_PowerHeuristic2"
p834
sg168
(dp835
g8
((lp836
(F0.5
I10
tp837
aF40.069999999999709
tp838
sg48
((lp839
(F0.14999999999417923
I8
tp840
aF40.0
tp841
sg105
((lp842
(F0.86000000000058208
I48
tp843
aF40.009999999994761
tp844
sg76
((lp845
(F0.36999999999534339
I8
tp846
aF40.139999999999418
tp847
sg135
((lp848
(F0.66000000000349246
I13
tp849
aF40.350000000005821
tp850
ssba(imeasure_core
ProblemSetSolution
p851
(dp852
g3
g187
sg166
g834
sg168
(dp853
g191
((lp854
F40.0
tp855
sg247
((lp856
(F1.1900000000023283
I30
tp857
aF40.0
tp858
sg300
((lp859
(F33.040000000000873
I281
tp860
aF40.020000000004075
tp861
sg351
((lp862
(F0.29999999999563443
I13
tp863
aF40.010000000002037
tp864
sg395
((lp865
(F2.8399999999965075
I55
tp866
aF40.059999999997672
tp867
ssba(imeasure_core
ProblemSetSolution
p868
(dp869
g3
g461
sg166
g834
sg168
(dp870
g465
((lp871
F40.129999999997381
tp872
sg522
((lp873
(F18.69999999999709
I17
tp874
aF40.159999999996217
tp875
sg625
((lp876
F40.459999999999127
tp877
sg573
((lp878
(F39.040000000000873
I14
tp879
aF45.810000000004948
tp880
sg667
((lp881
(F19.25
I29
tp882
aF40.610000000000582
tp883
ssba(imeasure_core
ProblemSetSolution
p884
(dp885
g3
g4
sg166
S"AnytimeBeam-w45-gf(1.3, 'exp')_with_PowerHeuristic2"
p886
sg168
(dp887
g8
((lp888
(F0.53999999999359716
I10
tp889
aF40.119999999995343
tp890
sg48
((lp891
(F0.16000000000349246
I8
tp892
aF40.040000000000873
tp893
sg105
((lp894
(F0.93000000000029104
I48
tp895
aF40.040000000000873
tp896
sg76
((lp897
(F0.43000000000029104
I8
tp898
aF40.029999999998836
tp899
sg135
((lp900
(F0.70000000000436557
I13
tp901
aF40.389999999999418
tp902
ssba(imeasure_core
ProblemSetSolution
p903
(dp904
g3
g187
sg166
g886
sg168
(dp905
g191
((lp906
F40.0
tp907
sg247
((lp908
(F1.2799999999988358
I30
tp909
aF40.010000000002037
tp910
sg300
((lp911
F40.519999999996799
tp912
sg351
((lp913
(F0.33000000000174623
I13
tp914
aF40.010000000002037
tp915
sg395
((lp916
(F3.0599999999976717
I55
tp917
aF40.129999999997381
tp918
ssba(imeasure_core
ProblemSetSolution
p919
(dp920
g3
g461
sg166
g886
sg168
(dp921
g465
((lp922
F40.489999999997963
tp923
sg522
((lp924
(F18.940000000002328
I17
tp925
aF40.680000000000291
tp926
sg625
((lp927
F40.669999999998254
tp928
sg573
((lp929
(F39.340000000003783
I14
tp930
aF46.150000000001455
tp931
sg667
((lp932
(F19.620000000002619
I29
tp933
aF41.410000000003492
tp934
ssba(imeasure_core
ProblemSetSolution
p935
(dp936
g3
g4
sg166
S"AnytimeBeam-w5-gf(1.3, 'exp')_with_LinearHeuristic"
p937
sg168
(dp938
g8
((lp939
(F0.87999999999738066
I29
tp940
aF40.44999999999709
tp941
sg48
((lp942
(F0.08000000000174623
I7
tp943
aF40.010000000002037
tp944
sg105
((lp945
(F23.370000000002619
I256
tp946
aF40.029999999998836
tp947
sg76
((lp948
F40.139999999999418
tp949
sg135
((lp950
F40.040000000000873
tp951
ssba(imeasure_core
ProblemSetSolution
p952
(dp953
g3
g187
sg166
g937
sg168
(dp954
g191
((lp955
F40.029999999998836
tp956
sg247
((lp957
F40.020000000004075
tp958
sg300
((lp959
F40.069999999999709
tp960
sg351
((lp961
(F0.29999999999563443
I27
tp962
aF40.059999999997672
tp963
sg395
((lp964
(F0.1599999999962165
I8
tp965
aF40.120000000002619
tp966
ssba(imeasure_core
ProblemSetSolution
p967
(dp968
g3
g461
sg166
g937
sg168
(dp969
g465
((lp970
F40.319999999999709
tp971
sg522
((lp972
F40.410000000003492
tp973
sg625
((lp974
(F17.110000000000582
I10
tp975
aF40.160000000003492
tp976
sg573
((lp977
F47.169999999998254
tp978
sg667
((lp979
F42.359999999993306
tp980
ssba(imeasure_core
ProblemSetSolution
p981
(dp982
g3
g4
sg166
S"AnytimeBeam-w15-gf(1.3, 'exp')_with_LinearHeuristic"
p983
sg168
(dp984
g8
((lp985
(F1.1399999999994179
I29
tp986
aF40.200000000004366
tp987
sg48
((lp988
(F0.11000000000058208
I7
tp989
aF40.029999999998836
tp990
sg105
((lp991
(F23.360000000000582
I256
tp992
aF40.080000000001746
tp993
sg76
((lp994
F40.139999999999418
tp995
sg135
((lp996
F40.019999999996799
tp997
ssba(imeasure_core
ProblemSetSolution
p998
(dp999
g3
g187
sg166
g983
sg168
(dp1000
g191
((lp1001
F40.009999999994761
tp1002
sg247
((lp1003
F40.030000000006112
tp1004
sg300
((lp1005
F40.110000000000582
tp1006
sg351
((lp1007
(F0.45999999999912689
I27
tp1008
aF40.049999999995634
tp1009
sg395
((lp1010
(F0.27000000000407454
I8
tp1011
aF40.010000000002037
tp1012
ssba(imeasure_core
ProblemSetSolution
p1013
(dp1014
g3
g461
sg166
g983
sg168
(dp1015
g465
((lp1016
F40.080000000001746
tp1017
sg522
((lp1018
F40.430000000000291
tp1019
sg625
((lp1020
(F18.529999999998836
I10
tp1021
aF40.919999999998254
tp1022
sg573
((lp1023
F40.229999999995925
tp1024
sg667
((lp1025
F40.25
tp1026
ssba(imeasure_core
ProblemSetSolution
p1027
(dp1028
g3
g4
sg166
S"AnytimeBeam-w25-gf(1.3, 'exp')_with_LinearHeuristic"
p1029
sg168
(dp1030
g8
((lp1031
(F1.2799999999988358
I29
tp1032
aF40.209999999999127
tp1033
sg48
((lp1034
(F0.13999999999941792
I7
tp1035
aF40.020000000004075
tp1036
sg105
((lp1037
(F35.529999999998836
I256
tp1038
aF40.049999999995634
tp1039
sg76
((lp1040
F40.0
tp1041
sg135
((lp1042
F40.279999999998836
tp1043
ssba(imeasure_core
ProblemSetSolution
p1044
(dp1045
g3
g187
sg166
g1029
sg168
(dp1046
g191
((lp1047
F40.010000000002037
tp1048
sg247
((lp1049
F40.220000000001164
tp1050
sg300
((lp1051
F40.549999999995634
tp1052
sg351
((lp1053
(F0.54000000000087311
I27
tp1054
aF40.0
tp1055
sg395
((lp1056
(F0.37000000000261934
I8
tp1057
aF40.100000000005821
tp1058
ssba(imeasure_core
ProblemSetSolution
p1059
(dp1060
g3
g461
sg166
g1029
sg168
(dp1061
g465
((lp1062
F40.209999999999127
tp1063
sg522
((lp1064
F40.049999999995634
tp1065
sg625
((lp1066
(F18.690000000002328
I10
tp1067
aF42.770000000004075
tp1068
sg573
((lp1069
F40.169999999998254
tp1070
sg667
((lp1071
F40.400000000001455
tp1072
ssba(imeasure_core
ProblemSetSolution
p1073
(dp1074
g3
g4
sg166
S"AnytimeBeam-w35-gf(1.3, 'exp')_with_LinearHeuristic"
p1075
sg168
(dp1076
g8
((lp1077
(F1.4899999999979627
I29
tp1078
aF40.089999999996508
tp1079
sg48
((lp1080
(F0.16000000000349246
I7
tp1081
aF40.040000000000873
tp1082
sg105
((lp1083
F40.040000000000873
tp1084
sg76
((lp1085
F40.099999999998545
tp1086
sg135
((lp1087
F40.020000000004075
tp1088
ssba(imeasure_core
ProblemSetSolution
p1089
(dp1090
g3
g187
sg166
g1075
sg168
(dp1091
g191
((lp1092
F40.019999999996799
tp1093
sg247
((lp1094
F40.090000000003783
tp1095
sg300
((lp1096
F40.239999999997963
tp1097
sg351
((lp1098
(F0.65000000000145519
I27
tp1099
aF40.040000000000873
tp1100
sg395
((lp1101
(F0.50999999999476131
I8
tp1102
aF40.0
tp1103
ssba(imeasure_core
ProblemSetSolution
p1104
(dp1105
g3
g461
sg166
g1075
sg168
(dp1106
g465
((lp1107
F40.110000000000582
tp1108
sg522
((lp1109
F40.069999999999709
tp1110
sg625
((lp1111
(F19.470000000001164
I10
tp1112
aF43.819999999999709
tp1113
sg573
((lp1114
F40.0
tp1115
sg667
((lp1116
F40.780000000006112
tp1117
ssba(imeasure_core
ProblemSetSolution
p1118
(dp1119
g3
g4
sg166
S"AnytimeBeam-w45-gf(1.3, 'exp')_with_LinearHeuristic"
p1120
sg168
(dp1121
g8
((lp1122
(F1.6600000000034925
I29
tp1123
aF40.010000000002037
tp1124
sg48
((lp1125
(F0.18000000000029104
I7
tp1126
aF40.059999999997672
tp1127
sg105
((lp1128
F40.120000000002619
tp1129
sg76
((lp1130
F40.459999999999127
tp1131
sg135
((lp1132
F40.099999999998545
tp1133
ssba(imeasure_core
ProblemSetSolution
p1134
(dp1135
g3
g187
sg166
g1120
sg168
(dp1136
g191
((lp1137
F40.020000000004075
tp1138
sg247
((lp1139
F40.339999999996508
tp1140
sg300
((lp1141
F40.099999999998545
tp1142
sg351
((lp1143
(F0.72000000000116415
I27
tp1144
aF40.030000000006112
tp1145
sg395
((lp1146
(F0.58999999999650754
I8
tp1147
aF40.019999999996799
tp1148
ssba(imeasure_core
ProblemSetSolution
p1149
(dp1150
g3
g461
sg166
g1120
sg168
(dp1151
g465
((lp1152
F40.189999999995052
tp1153
sg522
((lp1154
F40.42000000000553
tp1155
sg625
((lp1156
(F19.729999999995925
I10
tp1157
aF44.509999999994761
tp1158
sg573
((lp1159
F40.0
tp1160
sg667
((lp1161
F41.030000000006112
tp1162
ssba.