(lp0
(imeasure_core
ProblemSetSolution
p1
(dp2
S'roomset'
p3
(imeasure_core
RoomSet
p4
(dp5
S'rooms'
p6
(dp7
(iproblems
RoomID
p8
(dp9
S'dusts'
p10
I6
sS'obstacles'
p11
(I0
I4
tp12
sS'robots'
p13
I1
sS'height'
p14
I9
sS'width'
p15
I9
sS'seed'
p16
I1164115433906158532
sb(imulti_robot_problem
MultiRobotState
p17
(dp18
S'obstacle_locations'
p19
c__builtin__
frozenset
p20
((lp21
(I0
I1
tp22
a(I1
I2
tp23
a(I1
I3
tp24
a(I1
I4
tp25
ag12
atp26
Rp27
sg15
I9
sS'dirt_locations'
p28
g20
((lp29
(I6
I4
tp30
a(I1
I8
tp31
a(I1
I6
tp32
a(I1
I0
tp33
a(I8
I5
tp34
a(I3
I5
tp35
atp36
Rp37
sg13
((I4
I5
tp38
tp39
sg14
I9
sbs(iproblems
RoomID
p40
(dp41
g10
I8
sg11
(I6
I5
tp42
sg13
I5
sg14
I8
sg15
I7
sg16
I2175216119781798972
sb(imulti_robot_problem
MultiRobotState
p43
(dp44
g19
g20
((lp45
(I1
I2
tp46
a(I2
I6
tp47
a(I6
I7
tp48
a(I6
I6
tp49
a(I5
I7
tp50
a(I2
I3
tp51
a(I0
I4
tp52
a(I1
I0
tp53
ag42
atp54
Rp55
sg15
I7
sg28
g20
((lp56
(I5
I4
tp57
a(I5
I5
tp58
a(I4
I4
tp59
a(I0
I6
tp60
a(I0
I5
tp61
a(I1
I7
tp62
a(I4
I2
tp63
a(I0
I2
tp64
atp65
Rp66
sg13
((I1
I3
tp67
(I6
I4
tp68
(I3
I7
tp69
(I6
I0
tp70
(I2
I1
tp71
tp72
sg14
I8
sbs(iproblems
RoomID
p73
(dp74
g10
I5
sg11
(I0
I4
tp75
sg13
I5
sg14
I7
sg15
I7
sg16
I8711387064946514083
sb(imulti_robot_problem
MultiRobotState
p76
(dp77
g19
g20
((lp78
(I0
I1
tp79
a(I2
I2
tp80
a(I0
I2
tp81
a(I1
I5
tp82
ag75
a(I0
I3
tp83
a(I2
I4
tp84
a(I6
I5
tp85
atp86
Rp87
sg15
I7
sg28
g20
((lp88
(I5
I6
tp89
a(I6
I4
tp90
a(I3
I2
tp91
a(I6
I1
tp92
a(I6
I6
tp93
atp94
Rp95
sg13
((I1
I1
tp96
(I6
I0
tp97
(I5
I0
tp98
(I1
I3
tp99
(I4
I5
tp100
tp101
sg14
I7
sbs(iproblems
RoomID
p102
(dp103
g10
I9
sg11
(I2
I2
tp104
sg13
I2
sg14
I9
sg15
I7
sg16
I3872982626502034966
sb(imulti_robot_problem
MultiRobotState
p105
(dp106
g19
g20
((lp107
(I4
I1
tp108
a(I2
I6
tp109
a(I3
I1
tp110
a(I5
I0
tp111
ag104
atp112
Rp113
sg15
I7
sg28
g20
((lp114
(I4
I7
tp115
a(I2
I8
tp116
a(I4
I4
tp117
a(I3
I2
tp118
a(I2
I1
tp119
a(I1
I4
tp120
a(I4
I2
tp121
a(I0
I3
tp122
a(I5
I8
tp123
atp124
Rp125
sg13
((I1
I6
tp126
(I1
I7
tp127
tp128
sg14
I9
sbs(iproblems
RoomID
p129
(dp130
g10
I9
sg11
(I6
I3
tp131
sg13
I4
sg14
I9
sg15
I10
sg16
I7002664860023442459
sb(imulti_robot_problem
MultiRobotState
p132
(dp133
g19
g20
((lp134
(I7
I4
tp135
a(I7
I3
tp136
ag131
a(I6
I5
tp137
a(I9
I7
tp138
atp139
Rp140
sg15
I10
sg28
g20
((lp141
(I0
I0
tp142
a(I6
I8
tp143
a(I2
I8
tp144
a(I5
I7
tp145
a(I2
I6
tp146
a(I4
I2
tp147
a(I5
I1
tp148
a(I8
I6
tp149
a(I8
I4
tp150
atp151
Rp152
sg13
((I7
I5
tp153
(I7
I6
tp154
(I1
I7
tp155
(I1
I6
tp156
tp157
sg14
I9
sbssS'name'
p158
S'easy_roomset'
p159
sbsg158
S"AnytimeBeam-w5-gf(1.5, 'exp')_with_PowerHeuristic2"
p160
sS'solutions'
p161
(dp162
g8
((lp163
(F0.3000000000001819
I42
tp164
a(F4.6000000000003638
I40
tp165
a(F5.9700000000002547
I34
tp166
a(F7.1500000000005457
I30
tp167
a(F8.2200000000002547
I28
tp168
a(F14.030000000000655
I26
tp169
aF40.0
tp170
sg40
((lp171
(F2.0100000000002183
I5
tp172
aF40.510000000000218
tp173
sg73
((lp174
(F0.84000000000014552
I4
tp175
aF40.210000000000036
tp176
sg102
((lp177
(F1.5900000000001455
I66
tp178
a(F14.079999999999927
I65
tp179
a(F24.289999999999964
I64
tp180
aF40.020000000000437
tp181
sg129
((lp182
(F1.4600000000000364
I11
tp183
aF40.009999999999309
tp184
ssba(imeasure_core
ProblemSetSolution
p185
(dp186
g3
(imeasure_core
RoomSet
p187
(dp188
g6
(dp189
(iproblems
RoomID
p190
(dp191
g10
I6
sg11
(I5
I5
tp192
sg13
I3
sg14
I11
sg15
I11
sg16
I1164115433906158532
sb(imulti_robot_problem
MultiRobotState
p193
(dp194
g19
g20
((lp195
(I5
I4
tp196
a(I1
I3
tp197
a(I4
I3
tp198
a(I4
I8
tp199
a(I3
I0
tp200
a(I8
I0
tp201
a(I3
I2
tp202
a(I0
I7
tp203
a(I2
I1
tp204
a(I3
I9
tp205
a(I0
I5
tp206
a(I1
I4
tp207
a(I3
I7
tp208
a(I2
I5
tp209
a(I5
I3
tp210
a(I8
I3
tp211
a(I3
I1
tp212
ag192
a(I2
I0
tp213
a(I3
I10
tp214
a(I6
I10
tp215
a(I0
I6
tp216
a(I1
I8
tp217
a(I3
I6
tp218
a(I4
I5
tp219
a(I0
I2
tp220
atp221
Rp222
sg15
I11
sg28
g20
((lp223
(I7
I5
tp224
a(I8
I8
tp225
a(I4
I9
tp226
a(I4
I6
tp227
a(I10
I6
tp228
a(I8
I2
tp229
atp230
Rp231
sg13
((I5
I7
tp232
(I2
I10
tp233
(I2
I8
tp234
tp235
sg14
I11
sbs(iproblems
RoomID
p236
(dp237
g10
I8
sg11
(I5
I4
tp238
sg13
I4
sg14
I10
sg15
I9
sg16
I2175216119781798972
sb(imulti_robot_problem
MultiRobotState
p239
(dp240
g19
g20
((lp241
(I6
I6
tp242
a(I2
I8
tp243
a(I0
I7
tp244
a(I6
I2
tp245
a(I1
I6
tp246
a(I2
I5
tp247
a(I5
I5
tp248
a(I8
I1
tp249
a(I7
I6
tp250
a(I6
I3
tp251
a(I2
I2
tp252
a(I8
I6
tp253
a(I6
I4
tp254
ag238
a(I8
I2
tp255
a(I7
I1
tp256
a(I1
I4
tp257
a(I7
I5
tp258
a(I8
I7
tp259
a(I1
I0
tp260
a(I6
I5
tp261
a(I3
I3
tp262
a(I8
I3
tp263
a(I7
I0
tp264
a(I6
I8
tp265
a(I3
I4
tp266
a(I7
I4
tp267
a(I0
I6
tp268
a(I1
I8
tp269
a(I8
I8
tp270
a(I4
I3
tp271
a(I1
I7
tp272
a(I7
I8
tp273
a(I0
I2
tp274
atp275
Rp276
sg15
I9
sg28
g20
((lp277
(I6
I7
tp278
a(I2
I9
tp279
a(I5
I6
tp280
a(I3
I1
tp281
a(I8
I9
tp282
a(I0
I5
tp283
a(I0
I3
tp284
a(I5
I2
tp285
atp286
Rp287
sg13
((I2
I4
tp288
(I8
I5
tp289
(I4
I9
tp290
(I7
I7
tp291
tp292
sg14
I10
sbs(iproblems
RoomID
p293
(dp294
g10
I9
sg11
(I3
I0
tp295
sg13
I3
sg14
I9
sg15
I12
sg16
I4912931603392816429
sb(imulti_robot_problem
MultiRobotState
p296
(dp297
g19
g20
((lp298
(I6
I4
tp299
a(I4
I7
tp300
a(I0
I0
tp301
a(I4
I8
tp302
a(I5
I6
tp303
a(I2
I8
tp304
a(I0
I7
tp305
a(I4
I6
tp306
a(I7
I5
tp307
a(I4
I2
tp308
a(I0
I3
tp309
a(I7
I2
tp310
a(I6
I8
tp311
a(I10
I5
tp312
a(I5
I5
tp313
a(I7
I8
tp314
a(I4
I4
tp315
a(I5
I2
tp316
ag295
a(I8
I8
tp317
a(I5
I8
tp318
a(I1
I7
tp319
a(I4
I5
tp320
a(I8
I6
tp321
a(I5
I3
tp322
a(I4
I1
tp323
atp324
Rp325
sg15
I12
sg28
g20
((lp326
(I7
I3
tp327
a(I7
I1
tp328
a(I8
I1
tp329
a(I6
I3
tp330
a(I11
I8
tp331
a(I8
I7
tp332
a(I3
I7
tp333
a(I2
I5
tp334
a(I3
I4
tp335
atp336
Rp337
sg13
((I9
I1
tp338
(I1
I6
tp339
(I8
I4
tp340
tp341
sg14
I9
sbs(iproblems
RoomID
p342
(dp343
g10
I9
sg11
(I5
I3
tp344
sg13
I3
sg14
I9
sg15
I9
sg16
I1885758236351349410
sb(imulti_robot_problem
MultiRobotState
p345
(dp346
g19
g20
((lp347
(I4
I7
tp348
a(I5
I7
tp349
a(I7
I1
tp350
a(I5
I6
tp351
a(I5
I4
tp352
a(I0
I0
tp353
a(I2
I3
tp354
a(I4
I2
tp355
a(I8
I5
tp356
ag344
a(I6
I7
tp357
a(I5
I5
tp358
a(I4
I4
tp359
a(I1
I5
tp360
a(I4
I3
tp361
a(I0
I4
tp362
a(I1
I6
tp363
a(I3
I4
tp364
a(I2
I4
tp365
atp366
Rp367
sg15
I9
sg28
g20
((lp368
(I7
I3
tp369
a(I7
I0
tp370
a(I3
I0
tp371
a(I6
I1
tp372
a(I1
I4
tp373
a(I0
I5
tp374
a(I5
I0
tp375
a(I1
I1
tp376
a(I8
I4
tp377
atp378
Rp379
sg13
((I0
I1
tp380
(I2
I6
tp381
(I0
I2
tp382
tp383
sg14
I9
sbs(iproblems
RoomID
p384
(dp385
g10
I9
sg11
(I4
I3
tp386
sg13
I4
sg14
I11
sg15
I12
sg16
I7002664860023442459
sb(imulti_robot_problem
MultiRobotState
p387
(dp388
g19
g20
((lp389
(I11
I8
tp390
a(I0
I0
tp391
a(I10
I4
tp392
a(I3
I0
tp393
a(I9
I3
tp394
a(I6
I0
tp395
a(I2
I1
tp396
a(I8
I9
tp397
a(I9
I4
tp398
a(I5
I1
tp399
a(I8
I5
tp400
a(I5
I8
tp401
a(I8
I2
tp402
a(I7
I0
tp403
a(I8
I7
tp404
a(I3
I3
tp405
a(I1
I5
tp406
a(I8
I1
tp407
a(I9
I6
tp408
a(I3
I1
tp409
a(I9
I2
tp410
a(I2
I0
tp411
ag386
a(I2
I2
tp412
a(I9
I5
tp413
a(I5
I2
tp414
a(I2
I4
tp415
atp416
Rp417
sg15
I12
sg28
g20
((lp418
(I0
I1
tp419
a(I10
I8
tp420
a(I2
I8
tp421
a(I3
I10
tp422
a(I10
I6
tp423
a(I6
I2
tp424
a(I3
I7
tp425
a(I7
I8
tp426
a(I7
I9
tp427
atp428
Rp429
sg13
((I9
I7
tp430
(I8
I8
tp431
(I2
I9
tp432
(I1
I7
tp433
tp434
sg14
I11
sbssg158
S'mild_roomset'
p435
sbsg158
g160
sg161
(dp436
g190
((lp437
(F38.3100000000004
I136
tp438
aF40.010000000000218
tp439
sg236
((lp440
F40.090000000000146
tp441
sg293
((lp442
(F0.17999999999938154
I11
tp443
aF40.029999999999745
tp444
sg384
((lp445
(F1.6400000000003274
I11
tp446
aF40.369999999999891
tp447
sg342
((lp448
(F2.8100000000004002
I65
tp449
aF40.039999999999964
tp450
ssba(imeasure_core
ProblemSetSolution
p451
(dp452
g3
(imeasure_core
RoomSet
p453
(dp454
g6
(dp455
(iproblems
RoomID
p456
(dp457
g10
I11
sg11
(I7
I9
tp458
sg13
I5
sg14
I12
sg15
I12
sg16
I1164115433906158532
sb(imulti_robot_problem
MultiRobotState
p459
(dp460
g19
g20
((lp461
(I4
I7
tp462
a(I1
I3
tp463
a(I5
I6
tp464
a(I9
I3
tp465
a(I1
I4
tp466
a(I0
I5
tp467
a(I7
I11
tp468
a(I1
I0
tp469
a(I5
I8
tp470
a(I3
I3
tp471
a(I3
I1
tp472
a(I6
I7
tp473
a(I6
I8
tp474
a(I7
I8
tp475
a(I5
I7
tp476
ag458
a(I4
I1
tp477
a(I0
I2
tp478
atp479
Rp480
sg15
I12
sg28
g20
((lp481
(I4
I10
tp482
a(I9
I0
tp483
a(I2
I6
tp484
a(I5
I10
tp485
a(I9
I2
tp486
a(I0
I7
tp487
a(I8
I9
tp488
a(I1
I6
tp489
a(I8
I5
tp490
a(I4
I11
tp491
a(I5
I3
tp492
atp493
Rp494
sg13
((I1
I2
tp495
(I2
I11
tp496
(I2
I0
tp497
(I2
I9
tp498
(I11
I7
tp499
tp500
sg14
I12
sbs(iproblems
RoomID
p501
(dp502
g10
I10
sg11
(I0
I7
tp503
sg13
I7
sg14
I10
sg15
I10
sg16
I8711387064946514083
sb(imulti_robot_problem
MultiRobotState
p504
(dp505
g19
g20
((lp506
(I5
I9
tp507
a(I6
I9
tp508
a(I2
I6
tp509
a(I2
I9
tp510
a(I0
I6
tp511
ag503
a(I1
I5
tp512
a(I8
I8
tp513
a(I0
I5
tp514
a(I4
I3
tp515
a(I0
I4
tp516
a(I0
I3
tp517
a(I9
I7
tp518
a(I0
I2
tp519
a(I7
I9
tp520
atp521
Rp522
sg15
I10
sg28
g20
((lp523
(I9
I0
tp524
a(I3
I3
tp525
a(I7
I1
tp526
a(I8
I1
tp527
a(I9
I8
tp528
a(I4
I4
tp529
a(I9
I9
tp530
a(I3
I6
tp531
a(I1
I7
tp532
a(I8
I6
tp533
atp534
Rp535
sg13
((I1
I1
tp536
(I8
I0
tp537
(I7
I0
tp538
(I2
I5
tp539
(I6
I7
tp540
(I8
I9
tp541
(I5
I8
tp542
tp543
sg14
I10
sbs(iproblems
RoomID
p544
(dp545
g10
I14
sg11
(I5
I10
tp546
sg13
I5
sg14
I12
sg15
I10
sg16
I3872982626502034966
sb(imulti_robot_problem
MultiRobotState
p547
(dp548
g19
g20
((lp549
(I5
I9
tp550
a(I6
I9
tp551
a(I5
I7
tp552
a(I3
I2
tp553
ag546
a(I4
I10
tp554
a(I4
I8
tp555
a(I3
I11
tp556
a(I2
I1
tp557
a(I6
I2
tp558
a(I1
I4
tp559
a(I8
I7
tp560
a(I6
I8
tp561
a(I6
I7
tp562
a(I5
I8
tp563
a(I3
I5
tp564
a(I4
I9
tp565
a(I4
I6
tp566
a(I8
I1
tp567
a(I7
I1
tp568
a(I3
I8
tp569
a(I4
I3
tp570
a(I5
I2
tp571
a(I1
I1
tp572
atp573
Rp574
sg15
I10
sg28
g20
((lp575
(I5
I3
tp576
a(I3
I1
tp577
a(I8
I11
tp578
a(I9
I3
tp579
a(I0
I2
tp580
a(I6
I3
tp581
a(I3
I9
tp582
a(I2
I3
tp583
a(I9
I5
tp584
a(I7
I11
tp585
a(I0
I8
tp586
a(I3
I10
tp587
a(I7
I2
tp588
a(I9
I7
tp589
atp590
Rp591
sg13
((I1
I8
tp592
(I2
I9
tp593
(I1
I9
tp594
(I1
I5
tp595
(I6
I5
tp596
tp597
sg14
I12
sbs(iproblems
RoomID
p598
(dp599
g10
I14
sg11
(I0
I3
tp600
sg13
I7
sg14
I12
sg15
I13
sg16
I7002664860023442459
sb(imulti_robot_problem
MultiRobotState
p601
(dp602
g19
g20
((lp603
(I1
I2
tp604
a(I11
I4
tp605
a(I9
I8
tp606
a(I10
I6
tp607
ag600
a(I0
I8
tp608
a(I10
I3
tp609
a(I0
I1
tp610
a(I10
I5
tp611
a(I10
I7
tp612
a(I7
I8
tp613
a(I9
I9
tp614
a(I0
I9
tp615
a(I9
I5
tp616
a(I3
I4
tp617
a(I0
I2
tp618
a(I11
I6
tp619
a(I9
I7
tp620
atp621
Rp622
sg15
I13
sg28
g20
((lp623
(I6
I4
tp624
a(I11
I9
tp625
a(I4
I6
tp626
a(I2
I9
tp627
a(I5
I9
tp628
a(I12
I2
tp629
a(I3
I1
tp630
a(I3
I11
tp631
a(I10
I10
tp632
a(I7
I4
tp633
a(I0
I0
tp634
a(I11
I5
tp635
a(I2
I5
tp636
a(I12
I9
tp637
atp638
Rp639
sg13
((I2
I10
tp640
(I1
I8
tp641
(I8
I10
tp642
(I7
I2
tp643
(I3
I8
tp644
(I6
I2
tp645
(I7
I9
tp646
tp647
sg14
I12
sbs(iproblems
RoomID
p648
(dp649
g10
I10
sg11
(I6
I7
tp650
sg13
I6
sg14
I10
sg15
I13
sg16
I8999366892653588108
sb(imulti_robot_problem
MultiRobotState
p651
(dp652
g19
g20
((lp653
(I5
I4
tp654
ag650
a(I5
I5
tp655
a(I5
I6
tp656
a(I7
I6
tp657
a(I4
I2
tp658
a(I2
I3
tp659
a(I8
I6
tp660
a(I12
I1
tp661
a(I5
I3
tp662
a(I6
I5
tp663
a(I3
I3
tp664
atp665
Rp666
sg15
I13
sg28
g20
((lp667
(I6
I9
tp668
a(I7
I0
tp669
a(I5
I7
tp670
a(I12
I6
tp671
a(I2
I1
tp672
a(I0
I5
tp673
a(I10
I1
tp674
a(I0
I3
tp675
a(I7
I9
tp676
a(I3
I5
tp677
atp678
Rp679
sg13
((I12
I0
tp680
(I6
I1
tp681
(I2
I2
tp682
(I6
I4
tp683
(I4
I6
tp684
(I7
I1
tp685
tp686
sg14
I10
sbssg158
S'heavy_roomset'
p687
sbsg158
g160
sg161
(dp688
g456
((lp689
(F9.7399999999997817
I20
tp690
aF40.399999999999636
tp691
sg501
((lp692
F47.210000000000036
tp693
sg544
((lp694
F41.220000000000255
tp695
sg648
((lp696
F40.4399999999996
tp697
sg598
((lp698
F63.630000000000109
tp699
ssba(imeasure_core
ProblemSetSolution
p700
(dp701
g3
g4
sg158
S"AnytimeBeam-w15-gf(1.5, 'exp')_with_PowerHeuristic2"
p702
sg161
(dp703
g8
((lp704
(F0.14000000000032742
I50
tp705
a(F0.28999999999996362
I42
tp706
a(F3.3500000000003638
I40
tp707
a(F4.6999999999998181
I34
tp708
a(F5.8800000000001091
I30
tp709
a(F6.930000000000291
I28
tp710
a(F12.670000000000073
I26
tp711
aF40.0
tp712
sg40
((lp713
(F2.0300000000006548
I5
tp714
aF40.159999999999854
tp715
sg73
((lp716
(F0.83000000000083674
I4
tp717
aF40.0600000000004
tp718
sg102
((lp719
(F1.5900000000001455
I66
tp720
a(F14.079999999999927
I65
tp721
a(F24.279999999999745
I64
tp722
aF40.020000000000437
tp723
sg129
((lp724
(F1.4599999999991269
I11
tp725
aF40.109999999999673
tp726
ssba(imeasure_core
ProblemSetSolution
p727
(dp728
g3
g187
sg158
g702
sg161
(dp729
g190
((lp730
(F38.460000000000036
I136
tp731
aF40.0
tp732
sg236
((lp733
F40.119999999999891
tp734
sg293
((lp735
(F0.17999999999938154
I11
tp736
aF40.099999999999454
tp737
sg384
((lp738
(F1.6500000000005457
I11
tp739
aF40.0600000000004
tp740
sg342
((lp741
(F2.8299999999999272
I65
tp742
aF40.050000000000182
tp743
ssba(imeasure_core
ProblemSetSolution
p744
(dp745
g3
g453
sg158
g702
sg161
(dp746
g456
((lp747
(F9.6999999999998181
I20
tp748
aF40.239999999999782
tp749
sg501
((lp750
F47.1899999999996
tp751
sg544
((lp752
F40.210000000000036
tp753
sg648
((lp754
F40.350000000000364
tp755
sg598
((lp756
F63.880000000000109
tp757
ssba(imeasure_core
ProblemSetSolution
p758
(dp759
g3
g4
sg158
S"AnytimeBeam-w25-gf(1.5, 'exp')_with_PowerHeuristic2"
p760
sg161
(dp761
g8
((lp762
(F0.15999999999985448
I42
tp763
a(F1.8099999999994907
I36
tp764
a(F2.569999999999709
I34
tp765
a(F3.7399999999997817
I30
tp766
a(F4.8000000000001819
I28
tp767
a(F10.579999999999927
I26
tp768
aF40.0
tp769
sg40
((lp770
(F2.0399999999999636
I5
tp771
aF40.220000000000255
tp772
sg73
((lp773
(F0.82999999999992724
I4
tp774
aF40.229999999999563
tp775
sg102
((lp776
(F1.5799999999999272
I66
tp777
a(F14.090000000000146
I65
tp778
a(F24.350000000000364
I64
tp779
aF40.039999999999964
tp780
sg129
((lp781
(F1.4700000000002547
I11
tp782
aF40.670000000000073
tp783
ssba(imeasure_core
ProblemSetSolution
p784
(dp785
g3
g187
sg158
g760
sg161
(dp786
g190
((lp787
(F38.5
I136
tp788
aF40.010000000000218
tp789
sg236
((lp790
F40.139999999999418
tp791
sg293
((lp792
(F0.18000000000029104
I11
tp793
aF40.0600000000004
tp794
sg384
((lp795
(F1.6399999999994179
I11
tp796
aF40.289999999999964
tp797
sg342
((lp798
(F2.819999999999709
I65
tp799
aF40.090000000000146
tp800
ssba(imeasure_core
ProblemSetSolution
p801
(dp802
g3
g453
sg158
g760
sg161
(dp803
g456
((lp804
(F9.7299999999995634
I20
tp805
aF40.449999999999818
tp806
sg501
((lp807
F47.309999999999491
tp808
sg544
((lp809
F40.190000000000509
tp810
sg648
((lp811
F40.470000000000255
tp812
sg598
((lp813
F63.269999999999527
tp814
ssba(imeasure_core
ProblemSetSolution
p815
(dp816
g3
g4
sg158
S"AnytimeBeam-w35-gf(1.5, 'exp')_with_PowerHeuristic2"
p817
sg161
(dp818
g8
((lp819
(F0.1499999999996362
I42
tp820
a(F2.8599999999996726
I40
tp821
a(F4.2200000000002547
I34
tp822
a(F5.3999999999996362
I30
tp823
a(F6.4600000000000364
I28
tp824
a(F12.229999999999563
I26
tp825
aF40.0
tp826
sg40
((lp827
(F2.0199999999995271
I5
tp828
aF40.279999999999745
tp829
sg73
((lp830
(F0.84000000000014552
I4
tp831
aF40.159999999999854
tp832
sg102
((lp833
(F1.6000000000003638
I66
tp834
a(F14.130000000001019
I65
tp835
a(F24.380000000001019
I64
tp836
aF40.0
tp837
sg129
((lp838
(F1.4500000000007276
I11
tp839
aF40.680000000000291
tp840
ssba(imeasure_core
ProblemSetSolution
p841
(dp842
g3
g187
sg158
g817
sg161
(dp843
g190
((lp844
(F38.489999999999782
I136
tp845
aF40.010000000000218
tp846
sg236
((lp847
F40.219999999999345
tp848
sg293
((lp849
(F0.18000000000029104
I11
tp850
aF40.059999999999491
tp851
sg384
((lp852
(F1.6399999999994179
I11
tp853
aF40.069999999999709
tp854
sg342
((lp855
(F2.8100000000013097
I65
tp856
aF40.100000000000364
tp857
ssba(imeasure_core
ProblemSetSolution
p858
(dp859
g3
g453
sg158
g817
sg161
(dp860
g456
((lp861
(F9.7299999999995634
I20
tp862
aF40.530000000000655
tp863
sg501
((lp864
F47.199999999998909
tp865
sg544
((lp866
F40.150000000001455
tp867
sg648
((lp868
F40.710000000000946
tp869
sg598
((lp870
F63.679999999998472
tp871
ssba(imeasure_core
ProblemSetSolution
p872
(dp873
g3
g4
sg158
S"AnytimeBeam-w45-gf(1.5, 'exp')_with_PowerHeuristic2"
p874
sg161
(dp875
g8
((lp876
(F0.1499999999996362
I42
tp877
a(F2.430000000000291
I40
tp878
a(F3.8099999999994907
I34
tp879
a(F5.0
I30
tp880
a(F6.069999999999709
I28
tp881
a(F11.889999999999418
I26
tp882
aF40.0
tp883
sg40
((lp884
(F2.0300000000006548
I5
tp885
aF40.420000000000073
tp886
sg73
((lp887
(F0.82999999999992724
I4
tp888
aF40.149999999999636
tp889
sg102
((lp890
(F1.6200000000008004
I66
tp891
a(F14.219999999999345
I65
tp892
a(F24.479999999999563
I64
tp893
aF40.030000000000655
tp894
sg129
((lp895
(F1.4599999999991269
I11
tp896
aF40.079999999999927
tp897
ssba(imeasure_core
ProblemSetSolution
p898
(dp899
g3
g187
sg158
g874
sg161
(dp900
g190
((lp901
(F38.75
I136
tp902
aF40.0
tp903
sg236
((lp904
F40.019999999998618
tp905
sg293
((lp906
(F0.18000000000029104
I11
tp907
aF40.06000000000131
tp908
sg384
((lp909
(F1.6400000000012369
I11
tp910
aF40.450000000000728
tp911
sg342
((lp912
(F2.8099999999994907
I65
tp913
aF40.029999999998836
tp914
ssba(imeasure_core
ProblemSetSolution
p915
(dp916
g3
g453
sg158
g874
sg161
(dp917
g456
((lp918
(F9.6700000000000728
I20
tp919
aF40.280000000000655
tp920
sg501
((lp921
F47.18999999999869
tp922
sg544
((lp923
F40.100000000000364
tp924
sg648
((lp925
F40.400000000001455
tp926
sg598
((lp927
F63.469999999999345
tp928
ssba(imeasure_core
ProblemSetSolution
p929
(dp930
g3
g4
sg158
S"AnytimeBeam-w5-gf(1.5, 'exp')_with_LinearHeuristic"
p931
sg161
(dp932
g8
((lp933
(F0.029999999998835847
I28
tp934
a(F35.119999999998981
I26
tp935
aF40.0
tp936
sg40
((lp937
F40.099999999998545
tp938
sg73
((lp939
(F4.5500000000010914
I10
tp940
aF40.450000000000728
tp941
sg102
((lp942
(F1.2899999999990541
I25
tp943
a(F19.950000000000728
I24
tp944
a(F33.1200000000008
I23
tp945
aF40.010000000000218
tp946
sg129
((lp947
(F12.3799999999992
I27
tp948
aF40.1299999999992
tp949
ssba(imeasure_core
ProblemSetSolution
p950
(dp951
g3
g187
sg158
g931
sg161
(dp952
g190
((lp953
F40.110000000000582
tp954
sg236
((lp955
F40.020000000000437
tp956
sg293
((lp957
F40.069999999999709
tp958
sg384
((lp959
F40.329999999999927
tp960
sg342
((lp961
(F37.409999999999854
I226
tp962
aF40.039999999999054
tp963
ssba(imeasure_core
ProblemSetSolution
p964
(dp965
g3
g453
sg158
g931
sg161
(dp966
g456
((lp967
F42.390000000001237
tp968
sg501
((lp969
F50.840000000000146
tp970
sg544
((lp971
F40.059999999999491
tp972
sg648
((lp973
F41.159999999999854
tp974
sg598
((lp975
F53.149999999999636
tp976
ssba(imeasure_core
ProblemSetSolution
p977
(dp978
g3
g4
sg158
S"AnytimeBeam-w15-gf(1.5, 'exp')_with_LinearHeuristic"
p979
sg161
(dp980
g8
((lp981
(F0.020000000000436557
I28
tp982
a(F31.489999999999782
I26
tp983
aF40.0
tp984
sg40
((lp985
F40.090000000000146
tp986
sg73
((lp987
(F4.3500000000003638
I10
tp988
aF40.219999999999345
tp989
sg102
((lp990
(F1.3000000000010914
I25
tp991
a(F19.680000000000291
I24
tp992
a(F32.530000000000655
I23
tp993
aF40.0
tp994
sg129
((lp995
(F12.350000000000364
I27
tp996
aF40.100000000000364
tp997
ssba(imeasure_core
ProblemSetSolution
p998
(dp999
g3
g187
sg158
g979
sg161
(dp1000
g190
((lp1001
F40.130000000001019
tp1002
sg236
((lp1003
F40.199999999998909
tp1004
sg293
((lp1005
F40.25
tp1006
sg384
((lp1007
F40.25
tp1008
sg342
((lp1009
(F37.3700000000008
I226
tp1010
aF40.050000000001091
tp1011
ssba(imeasure_core
ProblemSetSolution
p1012
(dp1013
g3
g453
sg158
g979
sg161
(dp1014
g456
((lp1015
F42.25
tp1016
sg501
((lp1017
F51.010000000000218
tp1018
sg544
((lp1019
F41.1200000000008
tp1020
sg648
((lp1021
F41.299999999999272
tp1022
sg598
((lp1023
F53.590000000000146
tp1024
ssba(imeasure_core
ProblemSetSolution
p1025
(dp1026
g3
g4
sg158
S"AnytimeBeam-w25-gf(1.5, 'exp')_with_LinearHeuristic"
p1027
sg161
(dp1028
g8
((lp1029
(F0.030000000000654836
I28
tp1030
a(F34.659999999999854
I26
tp1031
aF40.0
tp1032
sg40
((lp1033
F40.090000000000146
tp1034
sg73
((lp1035
(F4.4600000000009459
I10
tp1036
aF40.510000000000218
tp1037
sg102
((lp1038
(F1.3099999999994907
I25
tp1039
a(F19.950000000000728
I24
tp1040
a(F33.010000000000218
I23
tp1041
aF40.020000000000437
tp1042
sg129
((lp1043
(F12.340000000000146
I27
tp1044
aF40.170000000000073
tp1045
ssba(imeasure_core
ProblemSetSolution
p1046
(dp1047
g3
g187
sg158
g1027
sg161
(dp1048
g190
((lp1049
F40.059999999999491
tp1050
sg236
((lp1051
F40.100000000000364
tp1052
sg293
((lp1053
F40.109999999998763
tp1054
sg384
((lp1055
F40.409999999999854
tp1056
sg342
((lp1057
(F37.460000000000946
I226
tp1058
aF40.010000000000218
tp1059
ssba(imeasure_core
ProblemSetSolution
p1060
(dp1061
g3
g453
sg158
g1027
sg161
(dp1062
g456
((lp1063
F42.540000000000873
tp1064
sg501
((lp1065
F51.079999999999927
tp1066
sg544
((lp1067
F41.279999999998836
tp1068
sg648
((lp1069
F41.090000000000146
tp1070
sg598
((lp1071
F53.180000000000291
tp1072
ssba(imeasure_core
ProblemSetSolution
p1073
(dp1074
g3
g4
sg158
S"AnytimeBeam-w35-gf(1.5, 'exp')_with_LinearHeuristic"
p1075
sg161
(dp1076
g8
((lp1077
(F0.020000000000436557
I28
tp1078
a(F30.940000000000509
I26
tp1079
aF40.0
tp1080
sg40
((lp1081
F40.210000000000946
tp1082
sg73
((lp1083
(F4.3799999999991996
I10
tp1084
aF40.159999999999854
tp1085
sg102
((lp1086
(F1.2999999999992724
I25
tp1087
a(F19.849999999998545
I24
tp1088
a(F32.829999999999927
I23
tp1089
aF40.010000000000218
tp1090
sg129
((lp1091
(F12.389999999999418
I27
tp1092
aF40.209999999999127
tp1093
ssba(imeasure_core
ProblemSetSolution
p1094
(dp1095
g3
g187
sg158
g1075
sg161
(dp1096
g190
((lp1097
F40.1200000000008
tp1098
sg236
((lp1099
F40.359999999998763
tp1100
sg293
((lp1101
F40.230000000001382
tp1102
sg384
((lp1103
F40.030000000000655
tp1104
sg342
((lp1105
(F37.459999999999127
I226
tp1106
aF40.009999999998399
tp1107
ssba(imeasure_core
ProblemSetSolution
p1108
(dp1109
g3
g453
sg158
g1075
sg161
(dp1110
g456
((lp1111
F42.149999999999636
tp1112
sg501
((lp1113
F50.760000000000218
tp1114
sg544
((lp1115
F41.049999999999272
tp1116
sg648
((lp1117
F41.209999999999127
tp1118
sg598
((lp1119
F53.050000000001091
tp1120
ssba(imeasure_core
ProblemSetSolution
p1121
(dp1122
g3
g4
sg158
S"AnytimeBeam-w45-gf(1.5, 'exp')_with_LinearHeuristic"
p1123
sg161
(dp1124
g8
((lp1125
(F0.020000000000436557
I28
tp1126
a(F26.569999999999709
I26
tp1127
aF40.0
tp1128
sg40
((lp1129
F40.409999999999854
tp1130
sg73
((lp1131
(F4.2700000000004366
I10
tp1132
aF40.920000000000073
tp1133
sg102
((lp1134
(F1.2900000000008731
I25
tp1135
a(F19.710000000000946
I24
tp1136
a(F32.550000000001091
I23
tp1137
aF40.010000000000218
tp1138
sg129
((lp1139
(F12.329999999999927
I27
tp1140
aF40.130000000001019
tp1141
ssba(imeasure_core
ProblemSetSolution
p1142
(dp1143
g3
g187
sg158
g1123
sg161
(dp1144
g190
((lp1145
F40.150000000001455
tp1146
sg236
((lp1147
F40.590000000000146
tp1148
sg293
((lp1149
F40.409999999999854
tp1150
sg384
((lp1151
F40.059999999999491
tp1152
sg342
((lp1153
(F37.25
I226
tp1154
aF40.039999999999054
tp1155
ssba(imeasure_core
ProblemSetSolution
p1156
(dp1157
g3
g453
sg158
g1123
sg161
(dp1158
g456
((lp1159
F42.239999999999782
tp1160
sg501
((lp1161
F51.030000000000655
tp1162
sg544
((lp1163
F41.149999999999636
tp1164
sg648
((lp1165
F41.030000000000655
tp1166
sg598
((lp1167
F53.069999999999709
tp1168
ssba.