(lp0
(imeasure_core
ProblemSetSolution
p1
(dp2
S'roomset'
p3
(imeasure_core
RoomSet
p4
(dp5
S'rooms'
p6
(dp7
(iproblems
RoomID
p8
(dp9
S'dusts'
p10
I8
sS'obstacles'
p11
(I2
I8
tp12
sS'robots'
p13
I4
sS'height'
p14
I10
sS'width'
p15
I7
sS'seed'
p16
I7106521602475165645
sb(imulti_robot_problem
MultiRobotState
p17
(dp18
S'obstacle_locations'
p19
c__builtin__
frozenset
p20
((lp21
(I3
I8
tp22
a(I5
I9
tp23
a(I4
I9
tp24
ag12
a(I5
I2
tp25
a(I5
I8
tp26
atp27
Rp28
sg15
I7
sS'dirt_locations'
p29
g20
((lp30
(I1
I2
tp31
a(I2
I7
tp32
a(I0
I0
tp33
a(I3
I1
tp34
a(I6
I0
tp35
a(I2
I1
tp36
a(I2
I3
tp37
a(I2
I5
tp38
atp39
Rp40
sg13
((I0
I8
tp41
(I4
I5
tp42
(I3
I9
tp43
(I1
I8
tp44
tp45
sg14
I10
sbs(iproblems
RoomID
p46
(dp47
g10
I10
sg11
(I3
I3
tp48
sg13
I4
sg14
I10
sg15
I8
sg16
I746805015404516437
sb(imulti_robot_problem
MultiRobotState
p49
(dp50
g19
g20
((lp51
(I7
I4
tp52
ag48
a(I4
I2
tp53
a(I6
I1
tp54
a(I3
I1
tp55
a(I4
I1
tp56
a(I1
I4
tp57
atp58
Rp59
sg15
I8
sg29
g20
((lp60
(I4
I6
tp61
a(I6
I3
tp62
a(I2
I0
tp63
a(I3
I9
tp64
a(I2
I3
tp65
a(I3
I6
tp66
a(I5
I1
tp67
a(I1
I0
tp68
a(I0
I8
tp69
a(I5
I8
tp70
atp71
Rp72
sg13
((I3
I8
tp73
(I4
I8
tp74
(I4
I9
tp75
(I0
I3
tp76
tp77
sg14
I10
sbs(iproblems
RoomID
p78
(dp79
g10
I5
sg11
(I4
I5
tp80
sg13
I1
sg14
I9
sg15
I8
sg16
I6604845167042249220
sb(imulti_robot_problem
MultiRobotState
p81
(dp82
g19
g20
((lp83
(I7
I4
tp84
ag80
a(I5
I4
tp85
a(I6
I1
tp86
a(I6
I5
tp87
atp88
Rp89
sg15
I8
sg29
g20
((lp90
(I2
I8
tp91
a(I1
I0
tp92
a(I1
I1
tp93
a(I4
I3
tp94
a(I4
I8
tp95
atp96
Rp97
sg13
((I3
I6
tp98
tp99
sg14
I9
sbs(iproblems
RoomID
p100
(dp101
g10
I9
sg11
(I7
I6
tp102
sg13
I5
sg14
I9
sg15
I9
sg16
I8963783824838420066
sb(imulti_robot_problem
MultiRobotState
p103
(dp104
g19
g20
((lp105
(I2
I7
tp106
a(I5
I5
tp107
a(I6
I6
tp108
ag102
a(I4
I4
tp109
a(I7
I1
tp110
a(I7
I5
tp111
a(I2
I2
tp112
a(I6
I5
tp113
atp114
Rp115
sg15
I9
sg29
g20
((lp116
(I3
I0
tp117
a(I2
I1
tp118
a(I6
I3
tp119
a(I0
I7
tp120
a(I3
I7
tp121
a(I8
I6
tp122
a(I0
I8
tp123
a(I8
I5
tp124
a(I7
I2
tp125
atp126
Rp127
sg13
((I7
I7
tp128
(I2
I4
tp129
(I3
I2
tp130
(I4
I7
tp131
(I5
I0
tp132
tp133
sg14
I9
sbssS'name'
p134
S'easy_roomset'
p135
sbsg134
S"AnytimeBeam-w4-gf(1.1000000000000001, 'exp')_with_PowerHeuristic2"
p136
sS'solutions'
p137
(dp138
g8
((lp139
(F0.40887093544006348
I13
tp140
aF39.18
tp141
sg46
((lp142
(F1.1449780464172363
I10
tp143
aF39.169999999999995
tp144
sg78
((lp145
F39.63000000000001
tp146
sg100
((lp147
F40.709999999999994
tp148
ssba(imeasure_core
ProblemSetSolution
p149
(dp150
g3
(imeasure_core
RoomSet
p151
(dp152
g6
(dp153
(iproblems
RoomID
p154
(dp155
g10
I6
sg11
(I5
I8
tp156
sg13
I3
sg14
I9
sg15
I11
sg16
I4029557120079369747
sb(imulti_robot_problem
MultiRobotState
p157
(dp158
g19
g20
((lp159
(I7
I3
tp160
a(I1
I3
tp161
a(I4
I8
tp162
a(I10
I6
tp163
a(I7
I1
tp164
a(I1
I4
tp165
a(I3
I7
tp166
a(I5
I1
tp167
a(I2
I5
tp168
a(I8
I5
tp169
ag156
a(I10
I5
tp170
a(I4
I6
tp171
a(I10
I7
tp172
a(I9
I6
tp173
a(I6
I1
tp174
a(I4
I4
tp175
a(I6
I3
tp176
a(I3
I6
tp177
a(I1
I7
tp178
a(I9
I5
tp179
a(I2
I4
tp180
a(I8
I4
tp181
atp182
Rp183
sg15
I11
sg29
g20
((lp184
(I3
I8
tp185
a(I8
I8
tp186
a(I7
I2
tp187
a(I5
I2
tp188
a(I1
I1
tp189
a(I2
I1
tp190
atp191
Rp192
sg13
((I8
I0
tp193
(I3
I1
tp194
(I4
I0
tp195
tp196
sg14
I9
sbs(iproblems
RoomID
p197
(dp198
g10
I10
sg11
(I4
I4
tp199
sg13
I4
sg14
I12
sg15
I12
sg16
I2569146471088859254
sb(imulti_robot_problem
MultiRobotState
p200
(dp201
g19
g20
((lp202
(I5
I4
tp203
a(I4
I8
tp204
a(I4
I5
tp205
a(I11
I2
tp206
a(I4
I7
tp207
a(I1
I9
tp208
a(I10
I3
tp209
a(I5
I8
tp210
a(I5
I5
tp211
a(I3
I3
tp212
ag199
a(I2
I11
tp213
a(I5
I6
tp214
a(I7
I2
tp215
a(I4
I3
tp216
a(I2
I2
tp217
a(I10
I0
tp218
a(I5
I11
tp219
a(I1
I1
tp220
atp221
Rp222
sg15
I12
sg29
g20
((lp223
(I2
I7
tp224
a(I10
I10
tp225
a(I3
I0
tp226
a(I3
I11
tp227
a(I0
I2
tp228
a(I1
I5
tp229
a(I9
I4
tp230
a(I0
I8
tp231
a(I2
I4
tp232
a(I11
I6
tp233
atp234
Rp235
sg13
((I9
I11
tp236
(I7
I10
tp237
(I6
I0
tp238
(I10
I1
tp239
tp240
sg14
I12
sbs(iproblems
RoomID
p241
(dp242
g10
I7
sg11
(I5
I4
tp243
sg13
I3
sg14
I11
sg15
I12
sg16
I2577854692418029171
sb(imulti_robot_problem
MultiRobotState
p244
(dp245
g19
g20
((lp246
(I4
I7
tp247
a(I3
I0
tp248
a(I8
I0
tp249
a(I2
I1
tp250
a(I6
I2
tp251
a(I1
I6
tp252
a(I5
I1
tp253
a(I4
I0
tp254
a(I1
I2
tp255
a(I4
I9
tp256
a(I3
I3
tp257
a(I8
I1
tp258
a(I3
I10
tp259
a(I6
I3
tp260
a(I3
I6
tp261
a(I1
I10
tp262
a(I8
I6
tp263
a(I3
I5
tp264
ag243
a(I2
I6
tp265
a(I7
I1
tp266
a(I6
I0
tp267
a(I1
I9
tp268
a(I4
I2
tp269
a(I0
I8
tp270
a(I5
I3
tp271
a(I0
I1
tp272
a(I7
I0
tp273
a(I5
I2
tp274
a(I6
I1
tp275
a(I3
I1
tp276
a(I3
I8
tp277
a(I3
I4
tp278
a(I2
I4
tp279
atp280
Rp281
sg15
I12
sg29
g20
((lp282
(I4
I10
tp283
a(I10
I5
tp284
a(I10
I1
tp285
a(I2
I8
tp286
a(I7
I6
tp287
a(I4
I4
tp288
a(I9
I7
tp289
atp290
Rp291
sg13
((I10
I6
tp292
(I1
I4
tp293
(I11
I8
tp294
tp295
sg14
I11
sbs(iproblems
RoomID
p296
(dp297
g10
I6
sg11
(I2
I4
tp298
sg13
I3
sg14
I10
sg15
I10
sg16
I1821862095355237593
sb(imulti_robot_problem
MultiRobotState
p299
(dp300
g19
g20
((lp301
(I6
I4
tp302
a(I4
I7
tp303
a(I2
I6
tp304
a(I5
I6
tp305
a(I6
I0
tp306
a(I1
I9
tp307
a(I8
I5
tp308
a(I7
I2
tp309
a(I7
I9
tp310
a(I5
I3
tp311
a(I6
I7
tp312
a(I3
I3
tp313
a(I5
I5
tp314
a(I4
I4
tp315
a(I6
I3
tp316
a(I4
I5
tp317
a(I6
I5
tp318
a(I4
I3
tp319
a(I0
I4
tp320
a(I8
I6
tp321
a(I3
I5
tp322
a(I3
I4
tp323
ag298
atp324
Rp325
sg15
I10
sg29
g20
((lp326
(I0
I6
tp327
a(I7
I0
tp328
a(I5
I1
tp329
a(I2
I3
tp330
a(I2
I8
tp331
a(I9
I6
tp332
atp333
Rp334
sg13
((I2
I2
tp335
(I4
I2
tp336
(I0
I7
tp337
tp338
sg14
I10
sbssg134
S'mild_roomset'
p339
sbsg134
g136
sg137
(dp340
g154
((lp341
F40.02000000000001
tp342
sg197
((lp343
F40.340000000000003
tp344
sg241
((lp345
F40.110000000000014
tp346
sg296
((lp347
F40.029999999999973
tp348
ssba(imeasure_core
ProblemSetSolution
p349
(dp350
g3
(imeasure_core
RoomSet
p351
(dp352
g6
(dp353
(iproblems
RoomID
p354
(dp355
g10
I13
sg11
(I5
I3
tp356
sg13
I6
sg14
I13
sg15
I10
sg16
I7106521602475165645
sb(imulti_robot_problem
MultiRobotState
p357
(dp358
g19
g20
((lp359
(I5
I6
tp360
a(I5
I11
tp361
a(I7
I12
tp362
a(I0
I12
tp363
a(I2
I3
tp364
a(I6
I12
tp365
a(I7
I2
tp366
ag356
a(I1
I2
tp367
a(I4
I5
tp368
a(I8
I12
tp369
a(I7
I1
tp370
a(I2
I11
tp371
a(I6
I3
tp372
a(I6
I11
tp373
a(I0
I4
tp374
a(I0
I9
tp375
a(I0
I5
tp376
a(I3
I4
tp377
atp378
Rp379
sg15
I10
sg29
g20
((lp380
(I0
I1
tp381
a(I8
I3
tp382
a(I4
I6
tp383
a(I7
I11
tp384
a(I6
I9
tp385
a(I0
I11
tp386
a(I3
I9
tp387
a(I2
I12
tp388
a(I8
I6
tp389
a(I5
I1
tp390
a(I3
I7
tp391
a(I0
I3
tp392
a(I3
I5
tp393
atp394
Rp395
sg13
((I0
I10
tp396
(I6
I7
tp397
(I4
I11
tp398
(I1
I11
tp399
(I9
I0
tp400
(I3
I1
tp401
tp402
sg14
I13
sbs(iproblems
RoomID
p403
(dp404
g10
I15
sg11
(I9
I4
tp405
sg13
I6
sg14
I13
sg15
I11
sg16
I746805015404516437
sb(imulti_robot_problem
MultiRobotState
p406
(dp407
g19
g20
((lp408
(I8
I0
tp409
a(I4
I8
tp410
a(I4
I5
tp411
a(I10
I6
tp412
a(I6
I0
tp413
a(I3
I5
tp414
a(I3
I9
tp415
ag405
a(I4
I2
tp416
a(I7
I2
tp417
a(I7
I9
tp418
a(I10
I5
tp419
a(I5
I5
tp420
a(I4
I4
tp421
a(I1
I8
tp422
a(I8
I6
tp423
a(I5
I3
tp424
a(I5
I2
tp425
a(I2
I4
tp426
a(I9
I7
tp427
atp428
Rp429
sg15
I11
sg29
g20
((lp430
(I3
I12
tp431
a(I9
I1
tp432
a(I7
I1
tp433
a(I8
I1
tp434
a(I6
I10
tp435
a(I8
I9
tp436
a(I2
I0
tp437
a(I2
I3
tp438
a(I0
I10
tp439
a(I2
I2
tp440
a(I7
I11
tp441
a(I2
I5
tp442
a(I8
I5
tp443
a(I5
I8
tp444
a(I4
I11
tp445
atp446
Rp447
sg13
((I4
I10
tp448
(I6
I11
tp449
(I5
I12
tp450
(I0
I5
tp451
(I1
I0
tp452
(I7
I10
tp453
tp454
sg14
I13
sbs(iproblems
RoomID
p455
(dp456
g10
I10
sg11
(I6
I7
tp457
sg13
I5
sg14
I12
sg15
I11
sg16
I6604845167042249220
sb(imulti_robot_problem
MultiRobotState
p458
(dp459
g19
g20
((lp460
(I9
I0
tp461
ag457
a(I7
I1
tp462
a(I2
I8
tp463
a(I10
I6
tp464
a(I7
I7
tp465
a(I8
I8
tp466
a(I9
I4
tp467
a(I8
I6
tp468
a(I7
I11
tp469
a(I9
I7
tp470
atp471
Rp472
sg15
I11
sg29
g20
((lp473
(I10
I5
tp474
a(I3
I3
tp475
a(I5
I11
tp476
a(I8
I1
tp477
a(I9
I8
tp478
a(I6
I9
tp479
a(I0
I7
tp480
a(I0
I10
tp481
a(I4
I1
tp482
a(I8
I4
tp483
atp484
Rp485
sg13
((I4
I8
tp486
(I1
I0
tp487
(I2
I2
tp488
(I3
I11
tp489
(I6
I5
tp490
tp491
sg14
I12
sbs(iproblems
RoomID
p492
(dp493
g10
I11
sg11
(I9
I6
tp494
sg13
I6
sg14
I10
sg15
I12
sg16
I4029557120079369747
sb(imulti_robot_problem
MultiRobotState
p495
(dp496
g19
g20
((lp497
(I11
I7
tp498
a(I10
I6
tp499
a(I5
I5
tp500
a(I7
I1
tp501
a(I10
I7
tp502
a(I9
I8
tp503
a(I4
I4
tp504
a(I1
I6
tp505
a(I3
I6
tp506
a(I1
I7
tp507
ag494
a(I11
I6
tp508
atp509
Rp510
sg15
I12
sg29
g20
((lp511
(I1
I2
tp512
a(I1
I3
tp513
a(I4
I9
tp514
a(I8
I2
tp515
a(I8
I1
tp516
a(I6
I1
tp517
a(I2
I1
tp518
a(I7
I4
tp519
a(I1
I8
tp520
a(I5
I2
tp521
a(I1
I1
tp522
atp523
Rp524
sg13
((I8
I0
tp525
(I4
I1
tp526
(I4
I0
tp527
(I3
I9
tp528
(I8
I9
tp529
(I3
I8
tp530
tp531
sg14
I10
sbssg134
S'heavy_roomset'
p532
sbsg134
g136
sg137
(dp533
g354
((lp534
F41.340000000000032
tp535
sg403
((lp536
F42.729999999999961
tp537
sg455
((lp538
F40.770000000000039
tp539
sg492
((lp540
(F30.341988086700439
I6
tp541
aF46.149999999999977
tp542
ssba(imeasure_core
ProblemSetSolution
p543
(dp544
g3
(imeasure_core
RoomSet
p545
(dp546
g6
(dp547
S'complexRoom'
p548
(imulti_robot_problem
MultiRobotState
p549
(dp550
g19
g20
((lp551
(I2
I7
tp552
a(I7
I3
tp553
a(I6
I3
tp554
a(I3
I3
tp555
a(I7
I6
tp556
a(I7
I4
tp557
a(I7
I5
tp558
a(I2
I3
tp559
a(I4
I3
tp560
a(I2
I5
tp561
a(I2
I4
tp562
a(I5
I3
tp563
atp564
Rp565
sg15
I11
sg29
g20
((lp566
(I1
I0
tp567
a(I9
I0
tp568
atp569
Rp570
sg13
((I6
I4
tp571
(I1
I6
tp572
tp573
sg14
I8
sbsS'exampleProblem'
p574
(imulti_robot_problem
MultiRobotState
p575
(dp576
g19
g20
((lp577
tp578
Rp579
sg15
I5
sg29
g20
((lp580
(I1
I3
tp581
a(I3
I1
tp582
a(I1
I1
tp583
a(I3
I3
tp584
atp585
Rp586
sg13
((I2
I2
tp587
tp588
sg14
I5
sbsS'linear_test'
p589
(imulti_robot_problem
MultiRobotState
p590
(dp591
g19
g579
sg15
I12
sg29
g20
((lp592
(I11
I0
tp593
a(I1
I0
tp594
a(I9
I0
tp595
atp596
Rp597
sg13
((I3
I0
tp598
(I1
I2
tp599
tp600
sg14
I7
sbsS'obstacle_Far_CloseTest'
p601
(imulti_robot_problem
MultiRobotState
p602
(dp603
g19
g20
((lp604
(I0
I1
tp605
a(I7
I3
tp606
a(I3
I1
tp607
a(I7
I1
tp608
a(I4
I5
tp609
a(I7
I6
tp610
a(I4
I4
tp611
a(I2
I1
tp612
a(I7
I4
tp613
a(I7
I5
tp614
a(I4
I3
tp615
a(I4
I2
tp616
a(I4
I1
tp617
a(I1
I1
tp618
a(I7
I2
tp619
atp620
Rp621
sg15
I12
sg29
g20
((lp622
(I3
I2
tp623
a(I9
I6
tp624
atp625
Rp626
sg13
((I0
I0
tp627
(I6
I6
tp628
tp629
sg14
I7
sbsS'zigzag'
p630
(imulti_robot_problem
MultiRobotState
p631
(dp632
g19
g20
((lp633
(I1
I2
tp634
a(I3
I2
tp635
a(I1
I3
tp636
a(I3
I0
tp637
a(I3
I1
tp638
a(I5
I1
tp639
a(I5
I2
tp640
a(I1
I1
tp641
a(I5
I3
tp642
atp643
Rp644
sg15
I20
sg29
g20
((lp645
(I6
I3
tp646
atp647
Rp648
sg13
((I0
I3
tp649
(I19
I3
tp650
tp651
sg14
I4
sbsS'room1'
p652
(imulti_robot_problem
MultiRobotState
p653
(dp654
g19
g20
((lp655
(I6
I3
tp656
a(I7
I3
tp657
a(I8
I3
tp658
a(I2
I3
tp659
a(I3
I3
tp660
a(I4
I3
tp661
a(I5
I3
tp662
atp663
Rp664
sg15
I9
sg29
g20
((lp665
(I0
I0
tp666
a(I2
I1
tp667
atp668
Rp669
sg13
((I6
I1
tp670
(I6
I5
tp671
tp672
sg14
I6
sbsS'complexRoom2'
p673
(imulti_robot_problem
MultiRobotState
p674
(dp675
g19
g20
((lp676
(I7
I3
tp677
a(I1
I3
tp678
a(I7
I1
tp679
a(I4
I5
tp680
a(I9
I3
tp681
a(I5
I5
tp682
a(I2
I6
tp683
a(I2
I3
tp684
a(I5
I1
tp685
a(I0
I3
tp686
a(I10
I3
tp687
a(I2
I5
tp688
a(I6
I5
tp689
a(I5
I3
tp690
a(I2
I7
tp691
a(I8
I3
tp692
a(I3
I3
tp693
a(I5
I2
tp694
a(I7
I6
tp695
a(I3
I1
tp696
a(I6
I3
tp697
a(I7
I5
tp698
a(I4
I3
tp699
a(I3
I5
tp700
a(I4
I1
tp701
a(I6
I1
tp702
atp703
Rp704
sg15
I11
sg29
g20
((lp705
(I7
I2
tp706
a(I0
I7
tp707
atp708
Rp709
sg13
((I1
I2
tp710
(I3
I6
tp711
tp712
sg14
I8
sbsS'zigzagUpright'
p713
(imulti_robot_problem
MultiRobotState
p714
(dp715
g19
g20
((lp716
(I1
I3
tp717
a(I3
I1
tp718
a(I2
I1
tp719
a(I1
I1
tp720
a(I1
I5
tp721
a(I2
I3
tp722
a(I2
I5
tp723
a(I0
I3
tp724
a(I3
I5
tp725
atp726
Rp727
sg15
I4
sg29
g20
((lp728
(I3
I6
tp729
atp730
Rp731
sg13
((I3
I0
tp732
(I3
I19
tp733
tp734
sg14
I20
sbsS'ivansRevenge'
p735
(imulti_robot_problem
MultiRobotState
p736
(dp737
g19
g579
sg15
I10
sg29
g20
((lp738
(I9
I2
tp739
a(I0
I0
tp740
atp741
Rp742
sg13
((I9
I0
tp743
(I0
I2
tp744
tp745
sg14
I3
sbsS'roomLongWithObstaccle'
p746
(imulti_robot_problem
MultiRobotState
p747
(dp748
g19
g20
((lp749
(I0
I1
tp750
a(I12
I1
tp751
a(I9
I1
tp752
a(I7
I1
tp753
a(I8
I1
tp754
a(I6
I1
tp755
a(I3
I1
tp756
a(I2
I1
tp757
a(I11
I1
tp758
a(I10
I1
tp759
a(I5
I1
tp760
a(I4
I1
tp761
a(I1
I1
tp762
atp763
Rp764
sg15
I15
sg29
g20
((lp765
(I0
I2
tp766
a(I14
I6
tp767
atp768
Rp769
sg13
((I0
I0
tp770
(I0
I6
tp771
tp772
sg14
I7
sbsS'twoRobotsInOpCorners'
p773
(imulti_robot_problem
MultiRobotState
p774
(dp775
g19
g579
sg15
I5
sg29
g20
((lp776
(I0
I0
tp777
a(I4
I4
tp778
atp779
Rp780
sg13
((I3
I0
tp781
(I0
I3
tp782
tp783
sg14
I5
sbsS'split2'
p784
(imulti_robot_problem
MultiRobotState
p785
(dp786
g19
g579
sg15
I10
sg29
g20
((lp787
(I0
I9
tp788
a(I9
I0
tp789
a(I0
I0
tp790
a(I9
I9
tp791
atp792
Rp793
sg13
((I1
I1
tp794
(I8
I1
tp795
(I4
I5
tp796
(I5
I5
tp797
tp798
sg14
I10
sbsS'split3'
p799
(imulti_robot_problem
MultiRobotState
p800
(dp801
g19
g579
sg15
I10
sg29
g20
((lp802
(I0
I9
tp803
a(I9
I0
tp804
a(I0
I0
tp805
a(I9
I9
tp806
atp807
Rp808
sg13
((I1
I1
tp809
(I8
I1
tp810
(I1
I7
tp811
(I7
I7
tp812
tp813
sg14
I10
sbsS'gaintRoom'
p814
(imulti_robot_problem
MultiRobotState
p815
(dp816
g19
g579
sg15
I5
sg29
g20
((lp817
(I4
I0
tp818
a(I4
I4
tp819
a(I0
I4
tp820
atp821
Rp822
sg13
((I0
I0
tp823
tp824
sg14
I5
sbsS'gaintRoomWithWall'
p825
(imulti_robot_problem
MultiRobotState
p826
(dp827
g19
g20
((lp828
(I2
I4
tp829
atp830
Rp831
sg15
I5
sg29
g20
((lp832
(I4
I0
tp833
a(I4
I4
tp834
a(I0
I4
tp835
atp836
Rp837
sg13
((I0
I0
tp838
tp839
sg14
I5
sbsS'split'
p840
(imulti_robot_problem
MultiRobotState
p841
(dp842
g19
g579
sg15
I10
sg29
g20
((lp843
(I0
I9
tp844
a(I9
I0
tp845
a(I0
I0
tp846
a(I9
I9
tp847
atp848
Rp849
sg13
((I4
I4
tp850
(I5
I4
tp851
(I4
I5
tp852
(I5
I5
tp853
tp854
sg14
I10
sbsS'twoRobots'
p855
(imulti_robot_problem
MultiRobotState
p856
(dp857
g19
g579
sg15
I9
sg29
g20
((lp858
(I8
I0
tp859
a(I0
I0
tp860
atp861
Rp862
sg13
((I2
I0
tp863
(I0
I3
tp864
tp865
sg14
I4
sbssg134
S'static_rooms'
p866
sbsg134
g136
sg137
(dp867
g784
((lp868
F40.129999999999995
tp869
sg799
((lp870
F40.220000000000027
tp871
sg548
((lp872
F39.990000000000009
tp873
sg814
((lp874
F39.990000000000009
tp875
sg574
((lp876
F39.990000000000009
tp877
sg589
((lp878
F40.0
tp879
sg601
((lp880
F39.990000000000009
tp881
sg855
((lp882
F39.990000000000009
tp883
sg825
((lp884
F39.990000000000009
tp885
sg630
((lp886
F39.990000000000009
tp887
sg652
((lp888
F39.990000000000009
tp889
sg673
((lp890
F39.979999999999905
tp891
sg713
((lp892
F39.990000000000009
tp893
sg735
((lp894
(F0.0037088394165039062
I2
tp895
aF39.990000000000009
tp896
sg746
((lp897
F39.990000000000009
tp898
sg773
((lp899
F39.990000000000009
tp900
sg840
((lp901
F40.190000000000055
tp902
ssba(imeasure_core
ProblemSetSolution
p903
(dp904
g3
g4
sg134
S"AnytimeBeam-w4-gf(1.3, 'exp')_with_PowerHeuristic2"
p905
sg137
(dp906
g8
((lp907
(F0.40640592575073242
I13
tp908
aF40.309999999999945
tp909
sg46
((lp910
(F1.1717729568481445
I10
tp911
aF40.089999999999918
tp912
sg78
((lp913
F39.990000000000009
tp914
sg100
((lp915
F40.610000000000127
tp916
ssba(imeasure_core
ProblemSetSolution
p917
(dp918
g3
g151
sg134
g905
sg137
(dp919
g154
((lp920
F40.019999999999982
tp921
sg197
((lp922
F40.200000000000045
tp923
sg241
((lp924
F40.1099999999999
tp925
sg296
((lp926
F39.940000000000055
tp927
ssba(imeasure_core
ProblemSetSolution
p928
(dp929
g3
g351
sg134
g905
sg137
(dp930
g354
((lp931
F41.039999999999964
tp932
sg403
((lp933
F42.379999999999882
tp934
sg455
((lp935
F40.690000000000055
tp936
sg492
((lp937
(F30.073376893997192
I6
tp938
aF46.019999999999982
tp939
ssba(imeasure_core
ProblemSetSolution
p940
(dp941
g3
g545
sg134
g905
sg137
(dp942
g784
((lp943
F40.2199999999998
tp944
sg799
((lp945
F40.180000000000291
tp946
sg548
((lp947
F40.0
tp948
sg814
((lp949
F39.989999999999782
tp950
sg574
((lp951
F39.990000000000009
tp952
sg589
((lp953
F39.990000000000009
tp954
sg601
((lp955
F40.0
tp956
sg855
((lp957
F39.989999999999782
tp958
sg825
((lp959
F39.990000000000236
tp960
sg630
((lp961
F39.990000000000009
tp962
sg652
((lp963
F39.990000000000009
tp964
sg673
((lp965
F40.0
tp966
sg713
((lp967
F39.980000000000018
tp968
sg735
((lp969
(F0.0037291049957275391
I2
tp970
aF40.0
tp971
sg746
((lp972
F39.989999999999782
tp973
sg773
((lp974
F39.990000000000236
tp975
sg840
((lp976
F40.519999999999982
tp977
ssba(imeasure_core
ProblemSetSolution
p978
(dp979
g3
g4
sg134
S"AnytimeBeam-w4-gf(1.5, 'exp')_with_PowerHeuristic2"
p980
sg137
(dp981
g8
((lp982
(F0.40827083587646484
I13
tp983
aF40.019999999999982
tp984
sg46
((lp985
(F1.1802139282226562
I10
tp986
aF40.25
tp987
sg78
((lp988
F39.990000000000236
tp989
sg100
((lp990
F40.659999999999854
tp991
ssba(imeasure_core
ProblemSetSolution
p992
(dp993
g3
g151
sg134
g980
sg137
(dp994
g154
((lp995
F40.059999999999945
tp996
sg197
((lp997
F40.200000000000273
tp998
sg241
((lp999
F40.099999999999909
tp1000
sg296
((lp1001
F40.019999999999982
tp1002
ssba(imeasure_core
ProblemSetSolution
p1003
(dp1004
g3
g351
sg134
g980
sg137
(dp1005
g354
((lp1006
F41.190000000000055
tp1007
sg403
((lp1008
F42.650000000000091
tp1009
sg455
((lp1010
F40.629999999999654
tp1011
sg492
((lp1012
(F30.056002140045166
I6
tp1013
aF45.960000000000036
tp1014
ssba(imeasure_core
ProblemSetSolution
p1015
(dp1016
g3
g545
sg134
g980
sg137
(dp1017
g784
((lp1018
F40.0
tp1019
sg799
((lp1020
F40.269999999999982
tp1021
sg548
((lp1022
F40.0
tp1023
sg814
((lp1024
F39.989999999999782
tp1025
sg574
((lp1026
F39.990000000000236
tp1027
sg589
((lp1028
F39.960000000000036
tp1029
sg601
((lp1030
F39.949999999999818
tp1031
sg855
((lp1032
F39.990000000000236
tp1033
sg825
((lp1034
F39.980000000000018
tp1035
sg630
((lp1036
F39.989999999999782
tp1037
sg652
((lp1038
F39.990000000000236
tp1039
sg673
((lp1040
F39.989999999999782
tp1041
sg713
((lp1042
F39.990000000000236
tp1043
sg735
((lp1044
(F0.0037159919738769531
I2
tp1045
aF39.9699999999998
tp1046
sg746
((lp1047
F39.980000000000018
tp1048
sg773
((lp1049
F39.970000000000255
tp1050
sg840
((lp1051
F40.5
tp1052
ssba(imeasure_core
ProblemSetSolution
p1053
(dp1054
g3
g4
sg134
S"AnytimeBeam-w4-gf(1.7, 'exp')_with_PowerHeuristic2"
p1055
sg137
(dp1056
g8
((lp1057
(F0.40387296676635742
I13
tp1058
aF40.039999999999964
tp1059
sg46
((lp1060
(F1.174109935760498
I10
tp1061
aF40.090000000000146
tp1062
sg78
((lp1063
F39.940000000000055
tp1064
sg100
((lp1065
F40.170000000000073
tp1066
ssba(imeasure_core
ProblemSetSolution
p1067
(dp1068
g3
g151
sg134
g1055
sg137
(dp1069
g154
((lp1070
F40.019999999999982
tp1071
sg197
((lp1072
F40.179999999999836
tp1073
sg241
((lp1074
F40.119999999999891
tp1075
sg296
((lp1076
F40.0300000000002
tp1077
ssba(imeasure_core
ProblemSetSolution
p1078
(dp1079
g3
g351
sg134
g1055
sg137
(dp1080
g354
((lp1081
F41.200000000000273
tp1082
sg403
((lp1083
F42.400000000000091
tp1084
sg455
((lp1085
F40.710000000000036
tp1086
sg492
((lp1087
(F30.223422050476074
I6
tp1088
aF46.179999999999836
tp1089
ssba(imeasure_core
ProblemSetSolution
p1090
(dp1091
g3
g545
sg134
g1055
sg137
(dp1092
g784
((lp1093
F40.069999999999709
tp1094
sg799
((lp1095
F40.0600000000004
tp1096
sg548
((lp1097
F39.9699999999998
tp1098
sg814
((lp1099
F39.989999999999782
tp1100
sg574
((lp1101
F39.990000000000236
tp1102
sg589
((lp1103
F39.989999999999782
tp1104
sg601
((lp1105
F39.989999999999782
tp1106
sg855
((lp1107
F39.989999999999782
tp1108
sg825
((lp1109
F39.989999999999782
tp1110
sg630
((lp1111
F39.990000000000691
tp1112
sg652
((lp1113
F39.989999999999782
tp1114
sg673
((lp1115
F39.979999999999563
tp1116
sg713
((lp1117
F39.920000000000073
tp1118
sg735
((lp1119
(F0.0037031173706054688
I2
tp1120
aF39.789999999999964
tp1121
sg746
((lp1122
F39.990000000000691
tp1123
sg773
((lp1124
F39.989999999999782
tp1125
sg840
((lp1126
F40.510000000000218
tp1127
ssba(imeasure_core
ProblemSetSolution
p1128
(dp1129
g3
g4
sg134
S"AnytimeBeam-w4-gf(1.1000000000000001, 'exp')_with_LinearHeuristic"
p1130
sg137
(dp1131
g8
((lp1132
F40.0
tp1133
sg46
((lp1134
(F1.2728960514068604
I24
tp1135
aF40.039999999999964
tp1136
sg78
((lp1137
(F0.013436079025268555
I18
tp1138
aF39.989999999999782
tp1139
sg100
((lp1140
F40.289999999999964
tp1141
ssba(imeasure_core
ProblemSetSolution
p1142
(dp1143
g3
g151
sg134
g1130
sg137
(dp1144
g154
((lp1145
F40.030000000000655
tp1146
sg197
((lp1147
F40.010000000000218
tp1148
sg241
((lp1149
F40.009999999999309
tp1150
sg296
((lp1151
F40.0600000000004
tp1152
ssba(imeasure_core
ProblemSetSolution
p1153
(dp1154
g3
g351
sg134
g1130
sg137
(dp1155
g354
((lp1156
F40.079999999999927
tp1157
sg403
((lp1158
F42.470000000000255
tp1159
sg455
((lp1160
F40.539999999999964
tp1161
sg492
((lp1162
(F22.649428844451904
I7
tp1163
aF41.789999999999964
tp1164
ssba(imeasure_core
ProblemSetSolution
p1165
(dp1166
g3
g545
sg134
g1130
sg137
(dp1167
g784
((lp1168
F40.130000000000109
tp1169
sg799
((lp1170
F40.509999999999309
tp1171
sg548
((lp1172
F39.989999999999782
tp1173
sg814
((lp1174
F39.990000000000691
tp1175
sg574
((lp1176
F39.989999999999782
tp1177
sg589
((lp1178
F40.010000000000218
tp1179
sg601
((lp1180
F40.0
tp1181
sg855
((lp1182
F39.989999999999782
tp1183
sg825
((lp1184
F39.989999999999782
tp1185
sg630
((lp1186
F39.989999999999782
tp1187
sg652
((lp1188
(F8.9938209056854248
I7
tp1189
aF40.0
tp1190
sg673
((lp1191
F39.989999999999782
tp1192
sg713
((lp1193
F40.0
tp1194
sg735
((lp1195
(F0.0052700042724609375
I2
tp1196
aF40.0
tp1197
sg746
((lp1198
F39.990000000000691
tp1199
sg773
((lp1200
F40.0
tp1201
sg840
((lp1202
F40.539999999999964
tp1203
ssba(imeasure_core
ProblemSetSolution
p1204
(dp1205
g3
g4
sg134
S"AnytimeBeam-w4-gf(1.3, 'exp')_with_LinearHeuristic"
p1206
sg137
(dp1207
g8
((lp1208
(F26.026817083358765
I155
tp1209
aF40.029999999999745
tp1210
sg46
((lp1211
(F1.6615810394287109
I24
tp1212
aF40.270000000000437
tp1213
sg78
((lp1214
(F0.013531923294067383
I18
tp1215
aF39.989999999999782
tp1216
sg100
((lp1217
F40.630000000000109
tp1218
ssba(imeasure_core
ProblemSetSolution
p1219
(dp1220
g3
g151
sg134
g1206
sg137
(dp1221
g154
((lp1222
F40.069999999999709
tp1223
sg197
((lp1224
F40.159999999999854
tp1225
sg241
((lp1226
F40.090000000000146
tp1227
sg296
((lp1228
F40.010000000000218
tp1229
ssba(imeasure_core
ProblemSetSolution
p1230
(dp1231
g3
g351
sg134
g1206
sg137
(dp1232
g354
((lp1233
F42.170000000000073
tp1234
sg403
((lp1235
F52.460000000000036
tp1236
sg455
((lp1237
F40.520000000000437
tp1238
sg492
((lp1239
F45.840000000000146
tp1240
ssba(imeasure_core
ProblemSetSolution
p1241
(dp1242
g3
g545
sg134
g1206
sg137
(dp1243
g784
((lp1244
F40.210000000000036
tp1245
sg799
((lp1246
F40.359999999999673
tp1247
sg548
((lp1248
(F4.8857059478759766
I18
tp1249
a(F12.838264942169189
I16
tp1250
a(F20.464931964874268
I15
tp1251
a(F28.521591901779175
I14
tp1252
aF40.0
tp1253
sg814
((lp1254
F39.990000000000691
tp1255
sg574
((lp1256
(F0.0063309669494628906
I8
tp1257
aF39.990000000000691
tp1258
sg589
((lp1259
F40.019999999999527
tp1260
sg601
((lp1261
F40.0
tp1262
sg855
((lp1263
F39.989999999999782
tp1264
sg825
((lp1265
F39.989999999999782
tp1266
sg630
((lp1267
F39.989999999999782
tp1268
sg652
((lp1269
(F9.3367278575897217
I8
tp1270
a(F25.615862846374512
I7
tp1271
aF40.0
tp1272
sg673
((lp1273
F40.0
tp1274
sg713
((lp1275
F39.990000000000691
tp1276
sg735
((lp1277
(F0.0052030086517333984
I2
tp1278
aF39.989999999999782
tp1279
sg746
((lp1280
F39.989999999999782
tp1281
sg773
((lp1282
F40.0
tp1283
sg840
((lp1284
F40.390000000000327
tp1285
ssba(imeasure_core
ProblemSetSolution
p1286
(dp1287
g3
g4
sg134
S"AnytimeBeam-w4-gf(1.5, 'exp')_with_LinearHeuristic"
p1288
sg137
(dp1289
g8
((lp1290
(F26.382688045501709
I155
tp1291
aF40.010000000000218
tp1292
sg46
((lp1293
(F2.0204739570617676
I24
tp1294
aF40.309999999999491
tp1295
sg78
((lp1296
(F0.013588190078735352
I18
tp1297
aF39.989999999999782
tp1298
sg100
((lp1299
F40.800000000000182
tp1300
ssba(imeasure_core
ProblemSetSolution
p1301
(dp1302
g3
g151
sg134
g1288
sg137
(dp1303
g154
((lp1304
F40.029999999999745
tp1305
sg197
((lp1306
F40.170000000000073
tp1307
sg241
((lp1308
F40.069999999999709
tp1309
sg296
((lp1310
F40.050000000000182
tp1311
ssba(imeasure_core
ProblemSetSolution
p1312
(dp1313
g3
g351
sg134
g1288
sg137
(dp1314
g354
((lp1315
F42.010000000000218
tp1316
sg403
((lp1317
F52.009999999999309
tp1318
sg455
((lp1319
F40.720000000000255
tp1320
sg492
((lp1321
F46.020000000000437
tp1322
ssba(imeasure_core
ProblemSetSolution
p1323
(dp1324
g3
g545
sg134
g1288
sg137
(dp1325
g784
((lp1326
F40.230000000000473
tp1327
sg799
((lp1328
F40.289999999999964
tp1329
sg548
((lp1330
(F4.8316998481750488
I18
tp1331
a(F12.727561950683594
I16
tp1332
a(F20.333677053451538
I15
tp1333
a(F28.333106994628906
I14
tp1334
aF40.009999999999309
tp1335
sg814
((lp1336
F39.989999999999782
tp1337
sg574
((lp1338
(F0.0063049793243408203
I8
tp1339
aF39.990000000000691
tp1340
sg589
((lp1341
F40.009999999999309
tp1342
sg601
((lp1343
F40.010000000000218
tp1344
sg855
((lp1345
F39.999999999999091
tp1346
sg825
((lp1347
F39.989999999999782
tp1348
sg630
((lp1349
F40.0
tp1350
sg652
((lp1351
(F9.3047771453857422
I8
tp1352
a(F25.542289972305298
I7
tp1353
aF39.989999999999782
tp1354
sg673
((lp1355
F40.010000000000218
tp1356
sg713
((lp1357
F39.989999999999782
tp1358
sg735
((lp1359
(F0.0052659511566162109
I2
tp1360
aF39.990000000000691
tp1361
sg746
((lp1362
F39.989999999999782
tp1363
sg773
((lp1364
F39.989999999999782
tp1365
sg840
((lp1366
F40.190000000000509
tp1367
ssba(imeasure_core
ProblemSetSolution
p1368
(dp1369
g3
g4
sg134
S"AnytimeBeam-w4-gf(1.7, 'exp')_with_LinearHeuristic"
p1370
sg137
(dp1371
g8
((lp1372
(F19.028525829315186
I155
tp1373
aF40.030000000000655
tp1374
sg46
((lp1375
(F2.1846578121185303
I24
tp1376
aF40.760000000000218
tp1377
sg78
((lp1378
(F0.013528823852539062
I18
tp1379
aF40.0
tp1380
sg100
((lp1381
F40.779999999998836
tp1382
ssba(imeasure_core
ProblemSetSolution
p1383
(dp1384
g3
g151
sg134
g1370
sg137
(dp1385
g154
((lp1386
F40.020000000000437
tp1387
sg197
((lp1388
F40.31000000000131
tp1389
sg241
((lp1390
F40.079999999999927
tp1391
sg296
((lp1392
F40.039999999999054
tp1393
ssba(imeasure_core
ProblemSetSolution
p1394
(dp1395
g3
g351
sg134
g1370
sg137
(dp1396
g354
((lp1397
F41.789999999999054
tp1398
sg403
((lp1399
F51.830000000001746
tp1400
sg455
((lp1401
F40.409999999999854
tp1402
sg492
((lp1403
F45.779999999998836
tp1404
ssba(imeasure_core
ProblemSetSolution
p1405
(dp1406
g3
g545
sg134
g1370
sg137
(dp1407
g784
((lp1408
F40.489999999999782
tp1409
sg799
((lp1410
F40.209999999999127
tp1411
sg548
((lp1412
(F4.8224921226501465
I18
tp1413
a(F12.71828293800354
I16
tp1414
a(F20.274424076080322
I15
tp1415
a(F28.231301069259644
I14
tp1416
aF40.010000000000218
tp1417
sg814
((lp1418
F39.989999999999782
tp1419
sg574
((lp1420
(F0.0062551498413085938
I8
tp1421
aF39.989999999999782
tp1422
sg589
((lp1423
F40.010000000000218
tp1424
sg601
((lp1425
F40.0
tp1426
sg855
((lp1427
F39.989999999999782
tp1428
sg825
((lp1429
F39.989999999999782
tp1430
sg630
((lp1431
F39.989999999999782
tp1432
sg652
((lp1433
(F9.24074387550354
I8
tp1434
a(F25.359523057937622
I7
tp1435
aF40.010000000000218
tp1436
sg673
((lp1437
F39.989999999999782
tp1438
sg713
((lp1439
F39.989999999999782
tp1440
sg735
((lp1441
(F0.0052080154418945312
I2
tp1442
aF40.0
tp1443
sg746
((lp1444
F39.989999999999782
tp1445
sg773
((lp1446
F39.990000000001601
tp1447
sg840
((lp1448
F40.130000000001019
tp1449
ssba.