(lp0
(imeasure_core
ProblemSetSolution
p1
(dp2
S'roomset'
p3
(imeasure_core
RoomSet
p4
(dp5
S'rooms'
p6
(dp7
(iproblems
RoomID
p8
(dp9
S'dusts'
p10
I8
sS'obstacles'
p11
(I1
I6
tp12
sS'robots'
p13
I4
sS'height'
p14
I10
sS'width'
p15
I9
sS'seed'
p16
I3433768247134474666
sb(imulti_robot_problem
MultiRobotState
p17
(dp18
S'obstacle_locations'
p19
c__builtin__
frozenset
p20
((lp21
(I4
I9
tp22
a(I4
I6
tp23
a(I0
I7
tp24
ag12
a(I0
I9
tp25
a(I8
I6
tp26
a(I0
I8
tp27
a(I3
I3
tp28
atp29
Rp30
sg15
I9
sS'dirt_locations'
p31
g20
((lp32
(I3
I2
tp33
a(I7
I7
tp34
a(I1
I9
tp35
a(I8
I7
tp36
a(I5
I4
tp37
a(I1
I1
tp38
a(I5
I8
tp39
a(I7
I9
tp40
atp41
Rp42
sg13
((I5
I9
tp43
(I5
I5
tp44
(I6
I9
tp45
(I2
I0
tp46
tp47
sg14
I10
sbs(iproblems
RoomID
p48
(dp49
g10
I7
sg11
(I2
I2
tp50
sg13
I3
sg14
I9
sg15
I9
sg16
I6241004153072892496
sb(imulti_robot_problem
MultiRobotState
p51
(dp52
g19
g20
((lp53
(I7
I3
tp54
a(I3
I2
tp55
a(I7
I1
tp56
a(I5
I1
tp57
ag50
a(I4
I1
tp58
a(I7
I7
tp59
atp60
Rp61
sg15
I9
sg31
g20
((lp62
(I3
I8
tp63
a(I1
I5
tp64
a(I4
I8
tp65
a(I3
I7
tp66
a(I5
I7
tp67
a(I3
I4
tp68
a(I6
I0
tp69
atp70
Rp71
sg13
((I6
I5
tp72
(I4
I3
tp73
(I3
I5
tp74
tp75
sg14
I9
sbs(iproblems
RoomID
p76
(dp77
g10
I10
sg11
(I6
I4
tp78
sg13
I4
sg14
I7
sg15
I10
sg16
I3125140389427113411
sb(imulti_robot_problem
MultiRobotState
p79
(dp80
g19
g20
((lp81
(I6
I3
tp82
a(I5
I1
tp83
a(I5
I2
tp84
ag78
atp85
Rp86
sg15
I10
sg31
g20
((lp87
(I1
I2
tp88
a(I7
I3
tp89
a(I0
I0
tp90
a(I3
I3
tp91
a(I6
I2
tp92
a(I1
I6
tp93
a(I9
I4
tp94
a(I2
I5
tp95
a(I0
I2
tp96
a(I7
I2
tp97
atp98
Rp99
sg13
((I9
I0
tp100
(I6
I5
tp101
(I1
I4
tp102
(I1
I3
tp103
tp104
sg14
I7
sbs(iproblems
RoomID
p105
(dp106
g10
I6
sg11
(I7
I4
tp107
sg13
I4
sg14
I8
sg15
I9
sg16
I8554152435637441414
sb(imulti_robot_problem
MultiRobotState
p108
(dp109
g19
g20
((lp110
(I6
I6
tp111
a(I5
I7
tp112
ag107
a(I2
I0
tp113
a(I7
I5
tp114
a(I3
I7
tp115
a(I0
I3
tp116
a(I4
I1
tp117
atp118
Rp119
sg15
I9
sg31
g20
((lp120
(I7
I3
tp121
a(I1
I6
tp122
a(I5
I1
tp123
a(I8
I6
tp124
a(I0
I2
tp125
a(I4
I0
tp126
atp127
Rp128
sg13
((I5
I3
tp129
(I6
I2
tp130
(I6
I3
tp131
(I6
I4
tp132
tp133
sg14
I8
sbs(iproblems
RoomID
p134
(dp135
g10
I9
sg11
(I4
I3
tp136
sg13
I3
sg14
I9
sg15
I8
sg16
I6161655336973386967
sb(imulti_robot_problem
MultiRobotState
p137
(dp138
g19
g20
((lp139
(I6
I3
tp140
a(I7
I3
tp141
a(I5
I4
tp142
ag136
a(I6
I6
tp143
a(I5
I2
tp144
a(I2
I1
tp145
atp146
Rp147
sg15
I8
sg31
g20
((lp148
(I6
I4
tp149
a(I6
I8
tp150
a(I2
I0
tp151
a(I5
I7
tp152
a(I1
I4
tp153
a(I1
I5
tp154
a(I0
I5
tp155
a(I2
I5
tp156
a(I4
I1
tp157
atp158
Rp159
sg13
((I3
I5
tp160
(I4
I6
tp161
(I4
I5
tp162
tp163
sg14
I9
sbssS'name'
p164
S'easy_roomset'
p165
sbsg164
S'AnytimeBest-dinf_with_PowerHeuristic2'
p166
sS'solutions'
p167
(dp168
g8
((lp169
(F0.35999999999876309
I10
tp170
aF40.039999999999054
tp171
sg48
((lp172
(F0.07999999999992724
I8
tp173
aF40.020000000000437
tp174
sg76
((lp175
(F0.5499999999992724
I13
tp176
aF40.039999999999054
tp177
sg105
((lp178
(F0.26000000000021828
I8
tp179
aF40.050000000001091
tp180
sg134
((lp181
(F1.0
I48
tp182
aF40.010000000000218
tp183
ssba(imeasure_core
ProblemSetSolution
p184
(dp185
g3
(imeasure_core
RoomSet
p186
(dp187
g6
(dp188
(iproblems
RoomID
p189
(dp190
g10
I10
sg11
(I1
I6
tp191
sg13
I3
sg14
I12
sg15
I9
sg16
I4927760411464392432
sb(imulti_robot_problem
MultiRobotState
p192
(dp193
g19
g20
((lp194
(I5
I9
tp195
a(I1
I3
tp196
a(I4
I5
tp197
a(I7
I7
tp198
a(I6
I0
tp199
a(I3
I9
tp200
ag191
a(I8
I7
tp201
a(I3
I7
tp202
a(I2
I5
tp203
a(I7
I9
tp204
a(I3
I1
tp205
a(I4
I6
tp206
a(I2
I9
tp207
a(I3
I10
tp208
a(I6
I10
tp209
a(I2
I11
tp210
a(I3
I8
tp211
a(I0
I6
tp212
a(I3
I6
tp213
a(I2
I2
tp214
a(I2
I3
tp215
a(I3
I4
tp216
a(I7
I6
tp217
atp218
Rp219
sg15
I9
sg31
g20
((lp220
(I1
I2
tp221
a(I6
I4
tp222
a(I6
I9
tp223
a(I8
I2
tp224
a(I8
I0
tp225
a(I1
I10
tp226
a(I0
I9
tp227
a(I1
I0
tp228
a(I0
I2
tp229
a(I4
I11
tp230
atp231
Rp232
sg13
((I1
I11
tp233
(I0
I11
tp234
(I7
I5
tp235
tp236
sg14
I12
sbs(iproblems
RoomID
p237
(dp238
g10
I8
sg11
(I1
I11
tp239
sg13
I4
sg14
I12
sg15
I11
sg16
I3433768247134474666
sb(imulti_robot_problem
MultiRobotState
p240
(dp241
g19
g20
((lp242
(I9
I3
tp243
a(I3
I6
tp244
a(I4
I8
tp245
a(I4
I5
tp246
a(I2
I8
tp247
a(I10
I6
tp248
a(I2
I10
tp249
a(I8
I7
tp250
a(I2
I3
tp251
a(I0
I10
tp252
a(I9
I4
tp253
a(I3
I7
tp254
ag239
a(I10
I3
tp255
a(I5
I8
tp256
a(I10
I4
tp257
a(I2
I7
tp258
a(I10
I5
tp259
a(I6
I7
tp260
a(I2
I9
tp261
a(I9
I6
tp262
a(I1
I8
tp263
a(I3
I8
tp264
a(I0
I11
tp265
a(I8
I8
tp266
a(I4
I11
tp267
a(I5
I0
tp268
a(I0
I9
tp269
a(I4
I9
tp270
a(I7
I8
tp271
atp272
Rp273
sg15
I11
sg31
g20
((lp274
(I4
I3
tp275
a(I5
I11
tp276
a(I9
I8
tp277
a(I2
I11
tp278
a(I9
I11
tp279
a(I7
I10
tp280
a(I1
I1
tp281
a(I6
I5
tp282
atp283
Rp284
sg13
((I7
I11
tp285
(I7
I7
tp286
(I2
I0
tp287
(I10
I9
tp288
tp289
sg14
I12
sbs(iproblems
RoomID
p290
(dp291
g10
I7
sg11
(I10
I3
tp292
sg13
I3
sg14
I11
sg15
I11
sg16
I6241004153072892496
sb(imulti_robot_problem
MultiRobotState
p293
(dp294
g19
g20
((lp295
(I3
I2
tp296
a(I0
I0
tp297
a(I9
I8
tp298
a(I7
I7
tp299
a(I8
I9
tp300
a(I6
I2
tp301
a(I2
I3
tp302
a(I9
I4
tp303
a(I4
I2
tp304
a(I5
I1
tp305
a(I0
I3
tp306
ag292
a(I1
I2
tp307
a(I9
I5
tp308
a(I5
I5
tp309
a(I10
I7
tp310
a(I8
I5
tp311
a(I6
I1
tp312
a(I1
I8
tp313
a(I8
I8
tp314
a(I8
I6
tp315
a(I7
I8
tp316
a(I2
I4
tp317
atp318
Rp319
sg15
I11
sg31
g20
((lp320
(I4
I10
tp321
a(I6
I9
tp322
a(I4
I9
tp323
a(I9
I1
tp324
a(I5
I10
tp325
a(I3
I10
tp326
a(I8
I0
tp327
atp328
Rp329
sg13
((I5
I4
tp330
(I4
I6
tp331
(I1
I6
tp332
tp333
sg14
I11
sbs(iproblems
RoomID
p334
(dp335
g10
I10
sg11
(I5
I4
tp336
sg13
I4
sg14
I9
sg15
I12
sg16
I3125140389427113411
sb(imulti_robot_problem
MultiRobotState
p337
(dp338
g19
g20
((lp339
(I7
I3
tp340
a(I4
I7
tp341
a(I2
I6
tp342
a(I2
I7
tp343
a(I6
I6
tp344
a(I5
I6
tp345
ag336
a(I1
I4
tp346
a(I6
I2
tp347
a(I10
I1
tp348
a(I3
I7
tp349
a(I5
I1
tp350
a(I2
I5
tp351
a(I6
I5
tp352
a(I3
I3
tp353
a(I6
I4
tp354
a(I9
I5
tp355
a(I6
I7
tp356
a(I5
I5
tp357
a(I10
I7
tp358
a(I6
I1
tp359
a(I7
I4
tp360
a(I8
I6
tp361
a(I5
I3
tp362
a(I5
I2
tp363
a(I8
I4
tp364
atp365
Rp366
sg15
I12
sg31
g20
((lp367
(I0
I0
tp368
a(I11
I4
tp369
a(I8
I2
tp370
a(I3
I0
tp371
a(I6
I0
tp372
a(I1
I8
tp373
a(I2
I3
tp374
a(I0
I3
tp375
a(I11
I6
tp376
a(I3
I5
tp377
atp378
Rp379
sg13
((I11
I0
tp380
(I7
I7
tp381
(I1
I5
tp382
(I2
I4
tp383
tp384
sg14
I9
sbs(iproblems
RoomID
p385
(dp386
g10
I6
sg11
(I5
I4
tp387
sg13
I4
sg14
I10
sg15
I11
sg16
I8554152435637441414
sb(imulti_robot_problem
MultiRobotState
p388
(dp389
g19
g20
((lp390
(I6
I4
tp391
ag387
a(I4
I5
tp392
a(I2
I8
tp393
a(I9
I3
tp394
a(I7
I7
tp395
a(I0
I7
tp396
a(I6
I2
tp397
a(I2
I1
tp398
a(I3
I7
tp399
a(I5
I1
tp400
a(I0
I3
tp401
a(I8
I5
tp402
a(I5
I3
tp403
a(I3
I8
tp404
a(I8
I3
tp405
a(I4
I9
tp406
a(I6
I8
tp407
a(I7
I0
tp408
a(I6
I3
tp409
a(I7
I5
tp410
a(I3
I6
tp411
a(I8
I6
tp412
a(I7
I8
tp413
a(I10
I9
tp414
atp415
Rp416
sg15
I11
sg31
g20
((lp417
(I1
I3
tp418
a(I9
I4
tp419
a(I5
I0
tp420
a(I3
I0
tp421
a(I4
I2
tp422
a(I7
I2
tp423
atp424
Rp425
sg13
((I8
I2
tp426
(I8
I4
tp427
(I9
I7
tp428
(I0
I2
tp429
tp430
sg14
I10
sbssg164
S'mild_roomset'
p431
sbsg164
g166
sg167
(dp432
g189
((lp433
F40.25
tp434
sg237
((lp435
(F1.0999999999985448
I30
tp436
aF40.099999999998545
tp437
sg290
((lp438
(F0.23000000000138243
I13
tp439
aF40.020000000000437
tp440
sg334
((lp441
F40.309999999999491
tp442
sg385
((lp443
(F3.2100000000009459
I55
tp444
aF40.200000000000728
tp445
ssba(imeasure_core
ProblemSetSolution
p446
(dp447
g3
(imeasure_core
RoomSet
p448
(dp449
g6
(dp450
(iproblems
RoomID
p451
(dp452
g10
I15
sg11
(I3
I3
tp453
sg13
I5
sg14
I13
sg15
I10
sg16
I4927760411464392432
sb(imulti_robot_problem
MultiRobotState
p454
(dp455
g19
g20
((lp456
(I6
I10
tp457
a(I6
I11
tp458
a(I3
I11
tp459
a(I2
I1
tp460
a(I2
I10
tp461
a(I3
I9
tp462
a(I2
I3
tp463
a(I1
I0
tp464
a(I4
I0
tp465
a(I1
I2
tp466
ag453
a(I7
I6
tp467
a(I3
I1
tp468
a(I1
I1
tp469
a(I1
I7
tp470
a(I1
I3
tp471
a(I3
I10
tp472
a(I9
I12
tp473
atp474
Rp475
sg15
I10
sg31
g20
((lp476
(I9
I0
tp477
a(I9
I7
tp478
a(I7
I0
tp479
a(I8
I2
tp480
a(I5
I5
tp481
a(I8
I10
tp482
a(I1
I4
tp483
a(I8
I8
tp484
a(I2
I12
tp485
a(I8
I7
tp486
a(I1
I10
tp487
a(I7
I11
tp488
a(I4
I12
tp489
a(I0
I2
tp490
a(I0
I10
tp491
atp492
Rp493
sg13
((I1
I12
tp494
(I0
I12
tp495
(I8
I5
tp496
(I7
I9
tp497
(I7
I4
tp498
tp499
sg14
I13
sbs(iproblems
RoomID
p500
(dp501
g10
I13
sg11
(I4
I11
tp502
sg13
I6
sg14
I13
sg15
I12
sg16
I3433768247134474666
sb(imulti_robot_problem
MultiRobotState
p503
(dp504
g19
g20
((lp505
(I4
I10
tp506
a(I5
I11
tp507
a(I6
I11
tp508
a(I9
I8
tp509
a(I6
I0
tp510
a(I0
I12
tp511
a(I4
I12
tp512
a(I2
I3
tp513
a(I2
I12
tp514
a(I10
I3
tp515
ag502
a(I11
I7
tp516
a(I3
I12
tp517
a(I3
I10
tp518
a(I11
I3
tp519
a(I0
I11
tp520
a(I8
I8
tp521
a(I1
I9
tp522
a(I1
I6
tp523
a(I1
I1
tp524
a(I0
I10
tp525
atp526
Rp527
sg15
I12
sg31
g20
((lp528
(I10
I8
tp529
a(I10
I5
tp530
a(I6
I7
tp531
a(I6
I8
tp532
a(I4
I4
tp533
a(I10
I12
tp534
a(I9
I9
tp535
a(I8
I10
tp536
a(I7
I5
tp537
a(I7
I10
tp538
a(I6
I12
tp539
a(I5
I10
tp540
a(I5
I3
tp541
atp542
Rp543
sg13
((I7
I12
tp544
(I7
I7
tp545
(I8
I12
tp546
(I2
I0
tp547
(I11
I9
tp548
(I1
I2
tp549
tp550
sg14
I13
sbs(iproblems
RoomID
p551
(dp552
g10
I11
sg11
(I3
I6
tp553
sg13
I7
sg14
I11
sg15
I12
sg16
I8554152435637441414
sb(imulti_robot_problem
MultiRobotState
p554
(dp555
g19
g20
((lp556
(I3
I1
tp557
a(I3
I8
tp558
a(I4
I5
tp559
a(I2
I8
tp560
a(I11
I2
tp561
a(I1
I7
tp562
a(I7
I5
tp563
a(I9
I4
tp564
a(I3
I7
tp565
a(I5
I1
tp566
a(I9
I6
tp567
a(I7
I9
tp568
a(I6
I3
tp569
a(I7
I6
tp570
a(I4
I4
tp571
a(I7
I4
tp572
a(I1
I8
tp573
a(I8
I8
tp574
ag553
a(I0
I4
tp575
a(I0
I9
tp576
a(I8
I6
tp577
a(I9
I7
tp578
atp579
Rp580
sg15
I12
sg31
g20
((lp581
(I11
I10
tp582
a(I4
I9
tp583
a(I2
I9
tp584
a(I3
I0
tp585
a(I8
I0
tp586
a(I4
I7
tp587
a(I1
I4
tp588
a(I0
I3
tp589
a(I0
I8
tp590
a(I5
I2
tp591
a(I7
I2
tp592
atp593
Rp594
sg13
((I6
I4
tp595
(I8
I2
tp596
(I8
I5
tp597
(I10
I8
tp598
(I1
I2
tp599
(I6
I0
tp600
(I10
I4
tp601
tp602
sg14
I11
sbs(iproblems
RoomID
p603
(dp604
g10
I12
sg11
(I3
I3
tp605
sg13
I6
sg14
I12
sg15
I12
sg16
I6241004153072892496
sb(imulti_robot_problem
MultiRobotState
p606
(dp607
g19
g20
((lp608
(I9
I3
tp609
ag605
a(I2
I9
tp610
a(I7
I1
tp611
a(I11
I8
tp612
a(I3
I4
tp613
a(I6
I1
tp614
a(I3
I1
tp615
a(I5
I2
tp616
a(I4
I3
tp617
a(I4
I2
tp618
a(I8
I5
tp619
a(I11
I6
tp620
atp621
Rp622
sg15
I12
sg31
g20
((lp623
(I4
I10
tp624
a(I0
I0
tp625
a(I7
I10
tp626
a(I5
I11
tp627
a(I8
I0
tp628
a(I9
I10
tp629
a(I8
I7
tp630
a(I10
I1
tp631
a(I2
I5
tp632
a(I8
I9
tp633
a(I4
I11
tp634
a(I10
I4
tp635
atp636
Rp637
sg13
((I8
I6
tp638
(I5
I4
tp639
(I7
I2
tp640
(I4
I7
tp641
(I1
I7
tp642
(I5
I6
tp643
tp644
sg14
I12
sbs(iproblems
RoomID
p645
(dp646
g10
I15
sg11
(I1
I6
tp647
sg13
I6
sg14
I10
sg15
I13
sg16
I3125140389427113411
sb(imulti_robot_problem
MultiRobotState
p648
(dp649
g19
g20
((lp650
(I7
I3
tp651
a(I3
I3
tp652
a(I1
I5
tp653
a(I6
I1
tp654
a(I1
I4
tp655
a(I7
I4
tp656
a(I2
I0
tp657
a(I11
I1
tp658
a(I2
I3
tp659
a(I0
I7
tp660
a(I8
I7
tp661
a(I6
I2
tp662
ag647
atp663
Rp664
sg15
I13
sg31
g20
((lp665
(I0
I1
tp666
a(I2
I6
tp667
a(I2
I9
tp668
a(I11
I8
tp669
a(I2
I8
tp670
a(I9
I3
tp671
a(I6
I0
tp672
a(I3
I0
tp673
a(I7
I7
tp674
a(I6
I3
tp675
a(I9
I2
tp676
a(I12
I4
tp677
a(I0
I4
tp678
a(I2
I4
tp679
a(I9
I7
tp680
atp681
Rp682
sg13
((I12
I0
tp683
(I7
I8
tp684
(I2
I5
tp685
(I4
I5
tp686
(I12
I7
tp687
(I9
I4
tp688
tp689
sg14
I10
sbssg164
S'heavy_roomset'
p690
sbsg164
g166
sg167
(dp691
g451
((lp692
F40.1299999999992
tp693
sg500
((lp694
(F21.180000000000291
I17
tp695
aF40.240000000001601
tp696
sg603
((lp697
F40.979999999999563
tp698
sg551
((lp699
F41.119999999998981
tp700
sg645
((lp701
(F22.680000000000291
I29
tp702
aF40.240000000001601
tp703
ssba(imeasure_core
ProblemSetSolution
p704
(dp705
g3
g4
sg164
S'AnytimeBest-dinf_with_LinearHeuristic'
p706
sg167
(dp707
g8
((lp708
(F1.8700000000008004
I29
tp709
aF40.06000000000131
tp710
sg48
((lp711
(F0.090000000000145519
I7
tp712
aF40.069999999999709
tp713
sg76
((lp714
F40.110000000000582
tp715
sg105
((lp716
F40.209999999999127
tp717
sg134
((lp718
F40.149999999999636
tp719
ssba(imeasure_core
ProblemSetSolution
p720
(dp721
g3
g186
sg164
g706
sg167
(dp722
g189
((lp723
F40.049999999999272
tp724
sg237
((lp725
F40.050000000001091
tp726
sg290
((lp727
(F0.56999999999970896
I27
tp728
aF40.039999999999054
tp729
sg334
((lp730
F40.180000000000291
tp731
sg385
((lp732
(F0.28000000000065484
I8
tp733
aF40.069999999999709
tp734
ssba(imeasure_core
ProblemSetSolution
p735
(dp736
g3
g448
sg164
g706
sg167
(dp737
g451
((lp738
F41.1200000000008
tp739
sg500
((lp740
F40.5
tp741
sg603
((lp742
(F22.989999999999782
I10
tp743
aF42.860000000000582
tp744
sg551
((lp745
F41.489999999999782
tp746
sg645
((lp747
F42.559999999999491
tp748
ssba.