(lp0
(imeasure_core
ProblemSetSolution
p1
(dp2
S'roomset'
p3
(imeasure_core
RoomSet
p4
(dp5
S'rooms'
p6
(dp7
(iproblems
RoomID
p8
(dp9
S'dusts'
p10
I6
sS'obstacles'
p11
(I0
I4
tp12
sS'robots'
p13
I1
sS'height'
p14
I9
sS'width'
p15
I9
sS'seed'
p16
I1164115433906158532
sb(imulti_robot_problem
MultiRobotState
p17
(dp18
S'obstacle_locations'
p19
c__builtin__
frozenset
p20
((lp21
(I0
I1
tp22
a(I1
I2
tp23
a(I1
I3
tp24
a(I1
I4
tp25
ag12
atp26
Rp27
sg15
I9
sS'dirt_locations'
p28
g20
((lp29
(I6
I4
tp30
a(I1
I8
tp31
a(I1
I6
tp32
a(I1
I0
tp33
a(I8
I5
tp34
a(I3
I5
tp35
atp36
Rp37
sg13
((I4
I5
tp38
tp39
sg14
I9
sbs(iproblems
RoomID
p40
(dp41
g10
I8
sg11
(I6
I5
tp42
sg13
I5
sg14
I8
sg15
I7
sg16
I2175216119781798972
sb(imulti_robot_problem
MultiRobotState
p43
(dp44
g19
g20
((lp45
(I1
I2
tp46
a(I2
I6
tp47
a(I6
I7
tp48
a(I6
I6
tp49
a(I5
I7
tp50
a(I2
I3
tp51
a(I0
I4
tp52
a(I1
I0
tp53
ag42
atp54
Rp55
sg15
I7
sg28
g20
((lp56
(I5
I4
tp57
a(I5
I5
tp58
a(I4
I4
tp59
a(I0
I6
tp60
a(I0
I5
tp61
a(I1
I7
tp62
a(I4
I2
tp63
a(I0
I2
tp64
atp65
Rp66
sg13
((I1
I3
tp67
(I6
I4
tp68
(I3
I7
tp69
(I6
I0
tp70
(I2
I1
tp71
tp72
sg14
I8
sbs(iproblems
RoomID
p73
(dp74
g10
I9
sg11
(I6
I3
tp75
sg13
I4
sg14
I9
sg15
I10
sg16
I7002664860023442459
sb(imulti_robot_problem
MultiRobotState
p76
(dp77
g19
g20
((lp78
(I7
I4
tp79
a(I7
I3
tp80
ag75
a(I6
I5
tp81
a(I9
I7
tp82
atp83
Rp84
sg15
I10
sg28
g20
((lp85
(I0
I0
tp86
a(I6
I8
tp87
a(I2
I8
tp88
a(I5
I7
tp89
a(I2
I6
tp90
a(I4
I2
tp91
a(I5
I1
tp92
a(I8
I6
tp93
a(I8
I4
tp94
atp95
Rp96
sg13
((I7
I5
tp97
(I7
I6
tp98
(I1
I7
tp99
(I1
I6
tp100
tp101
sg14
I9
sbs(iproblems
RoomID
p102
(dp103
g10
I9
sg11
(I2
I2
tp104
sg13
I2
sg14
I9
sg15
I7
sg16
I3872982626502034966
sb(imulti_robot_problem
MultiRobotState
p105
(dp106
g19
g20
((lp107
(I4
I1
tp108
a(I2
I6
tp109
a(I3
I1
tp110
a(I5
I0
tp111
ag104
atp112
Rp113
sg15
I7
sg28
g20
((lp114
(I4
I7
tp115
a(I2
I8
tp116
a(I4
I4
tp117
a(I3
I2
tp118
a(I2
I1
tp119
a(I1
I4
tp120
a(I4
I2
tp121
a(I0
I3
tp122
a(I5
I8
tp123
atp124
Rp125
sg13
((I1
I6
tp126
(I1
I7
tp127
tp128
sg14
I9
sbs(iproblems
RoomID
p129
(dp130
g10
I5
sg11
(I0
I4
tp131
sg13
I5
sg14
I7
sg15
I7
sg16
I8711387064946514083
sb(imulti_robot_problem
MultiRobotState
p132
(dp133
g19
g20
((lp134
(I0
I1
tp135
a(I2
I2
tp136
a(I0
I2
tp137
a(I1
I5
tp138
ag131
a(I0
I3
tp139
a(I2
I4
tp140
a(I6
I5
tp141
atp142
Rp143
sg15
I7
sg28
g20
((lp144
(I5
I6
tp145
a(I6
I4
tp146
a(I3
I2
tp147
a(I6
I1
tp148
a(I6
I6
tp149
atp150
Rp151
sg13
((I1
I1
tp152
(I6
I0
tp153
(I5
I0
tp154
(I1
I3
tp155
(I4
I5
tp156
tp157
sg14
I7
sbssS'name'
p158
S'easy_roomset'
p159
sbsg158
S"AnytimeBeam-w20-gf(2, 'lin')_with_PowerHeuristic2"
p160
sS'solutions'
p161
(dp162
g8
((lp163
(F0.1499999999996362
I42
tp164
a(F16.389999999999418
I36
tp165
a(F24.0
I34
tp166
a(F33.960000000000036
I32
tp167
a(F35.199999999999818
I30
tp168
a(F36.269999999999527
I28
tp169
aF40.0
tp170
sg40
((lp171
(F0.96000000000003638
I5
tp172
aF40.0
tp173
sg73
((lp174
(F1.0499999999992724
I11
tp175
aF40.009999999999309
tp176
sg102
((lp177
(F1.4099999999998545
I66
tp178
a(F11.280000000000655
I65
tp179
a(F19.740000000000691
I64
tp180
a(F32.039999999999964
I63
tp181
aF40.020000000000437
tp182
sg129
((lp183
(F0.60999999999967258
I4
tp184
aF40.059999999999491
tp185
ssba(imeasure_core
ProblemSetSolution
p186
(dp187
g3
(imeasure_core
RoomSet
p188
(dp189
g6
(dp190
(iproblems
RoomID
p191
(dp192
g10
I6
sg11
(I5
I5
tp193
sg13
I3
sg14
I11
sg15
I11
sg16
I1164115433906158532
sb(imulti_robot_problem
MultiRobotState
p194
(dp195
g19
g20
((lp196
(I5
I4
tp197
a(I1
I3
tp198
a(I4
I3
tp199
a(I4
I8
tp200
a(I3
I0
tp201
a(I8
I0
tp202
a(I3
I2
tp203
a(I0
I7
tp204
a(I2
I1
tp205
a(I3
I9
tp206
a(I0
I5
tp207
a(I1
I4
tp208
a(I3
I7
tp209
a(I2
I5
tp210
a(I5
I3
tp211
a(I8
I3
tp212
a(I3
I1
tp213
ag193
a(I2
I0
tp214
a(I3
I10
tp215
a(I6
I10
tp216
a(I0
I6
tp217
a(I1
I8
tp218
a(I3
I6
tp219
a(I4
I5
tp220
a(I0
I2
tp221
atp222
Rp223
sg15
I11
sg28
g20
((lp224
(I7
I5
tp225
a(I8
I8
tp226
a(I4
I9
tp227
a(I4
I6
tp228
a(I10
I6
tp229
a(I8
I2
tp230
atp231
Rp232
sg13
((I5
I7
tp233
(I2
I10
tp234
(I2
I8
tp235
tp236
sg14
I11
sbs(iproblems
RoomID
p237
(dp238
g10
I8
sg11
(I5
I4
tp239
sg13
I4
sg14
I10
sg15
I9
sg16
I2175216119781798972
sb(imulti_robot_problem
MultiRobotState
p240
(dp241
g19
g20
((lp242
(I6
I6
tp243
a(I2
I8
tp244
a(I0
I7
tp245
a(I6
I2
tp246
a(I1
I6
tp247
a(I2
I5
tp248
a(I5
I5
tp249
a(I8
I1
tp250
a(I7
I6
tp251
a(I6
I3
tp252
a(I2
I2
tp253
a(I8
I6
tp254
a(I6
I4
tp255
ag239
a(I8
I2
tp256
a(I7
I1
tp257
a(I1
I4
tp258
a(I7
I5
tp259
a(I8
I7
tp260
a(I1
I0
tp261
a(I6
I5
tp262
a(I3
I3
tp263
a(I8
I3
tp264
a(I7
I0
tp265
a(I6
I8
tp266
a(I3
I4
tp267
a(I7
I4
tp268
a(I0
I6
tp269
a(I1
I8
tp270
a(I8
I8
tp271
a(I4
I3
tp272
a(I1
I7
tp273
a(I7
I8
tp274
a(I0
I2
tp275
atp276
Rp277
sg15
I9
sg28
g20
((lp278
(I6
I7
tp279
a(I2
I9
tp280
a(I5
I6
tp281
a(I3
I1
tp282
a(I8
I9
tp283
a(I0
I5
tp284
a(I0
I3
tp285
a(I5
I2
tp286
atp287
Rp288
sg13
((I2
I4
tp289
(I8
I5
tp290
(I4
I9
tp291
(I7
I7
tp292
tp293
sg14
I10
sbs(iproblems
RoomID
p294
(dp295
g10
I9
sg11
(I3
I0
tp296
sg13
I3
sg14
I9
sg15
I12
sg16
I4912931603392816429
sb(imulti_robot_problem
MultiRobotState
p297
(dp298
g19
g20
((lp299
(I6
I4
tp300
a(I4
I7
tp301
a(I0
I0
tp302
a(I4
I8
tp303
a(I5
I6
tp304
a(I2
I8
tp305
a(I0
I7
tp306
a(I4
I6
tp307
a(I7
I5
tp308
a(I4
I2
tp309
a(I0
I3
tp310
a(I7
I2
tp311
a(I6
I8
tp312
a(I10
I5
tp313
a(I5
I5
tp314
a(I7
I8
tp315
a(I4
I4
tp316
a(I5
I2
tp317
ag296
a(I8
I8
tp318
a(I5
I8
tp319
a(I1
I7
tp320
a(I4
I5
tp321
a(I8
I6
tp322
a(I5
I3
tp323
a(I4
I1
tp324
atp325
Rp326
sg15
I12
sg28
g20
((lp327
(I7
I3
tp328
a(I7
I1
tp329
a(I8
I1
tp330
a(I6
I3
tp331
a(I11
I8
tp332
a(I8
I7
tp333
a(I3
I7
tp334
a(I2
I5
tp335
a(I3
I4
tp336
atp337
Rp338
sg13
((I9
I1
tp339
(I1
I6
tp340
(I8
I4
tp341
tp342
sg14
I9
sbs(iproblems
RoomID
p343
(dp344
g10
I9
sg11
(I4
I3
tp345
sg13
I4
sg14
I11
sg15
I12
sg16
I7002664860023442459
sb(imulti_robot_problem
MultiRobotState
p346
(dp347
g19
g20
((lp348
(I11
I8
tp349
a(I0
I0
tp350
a(I10
I4
tp351
a(I3
I0
tp352
a(I9
I3
tp353
a(I6
I0
tp354
a(I2
I1
tp355
a(I8
I9
tp356
a(I9
I4
tp357
a(I5
I1
tp358
a(I8
I5
tp359
a(I5
I8
tp360
a(I8
I2
tp361
a(I7
I0
tp362
a(I8
I7
tp363
a(I3
I3
tp364
a(I1
I5
tp365
a(I8
I1
tp366
a(I9
I6
tp367
a(I3
I1
tp368
a(I9
I2
tp369
a(I2
I0
tp370
ag345
a(I2
I2
tp371
a(I9
I5
tp372
a(I5
I2
tp373
a(I2
I4
tp374
atp375
Rp376
sg15
I12
sg28
g20
((lp377
(I0
I1
tp378
a(I10
I8
tp379
a(I2
I8
tp380
a(I3
I10
tp381
a(I10
I6
tp382
a(I6
I2
tp383
a(I3
I7
tp384
a(I7
I8
tp385
a(I7
I9
tp386
atp387
Rp388
sg13
((I9
I7
tp389
(I8
I8
tp390
(I2
I9
tp391
(I1
I7
tp392
tp393
sg14
I11
sbs(iproblems
RoomID
p394
(dp395
g10
I9
sg11
(I5
I3
tp396
sg13
I3
sg14
I9
sg15
I9
sg16
I1885758236351349410
sb(imulti_robot_problem
MultiRobotState
p397
(dp398
g19
g20
((lp399
(I4
I7
tp400
a(I5
I7
tp401
a(I7
I1
tp402
a(I5
I6
tp403
a(I5
I4
tp404
a(I0
I0
tp405
a(I2
I3
tp406
a(I4
I2
tp407
a(I8
I5
tp408
ag396
a(I6
I7
tp409
a(I5
I5
tp410
a(I4
I4
tp411
a(I1
I5
tp412
a(I4
I3
tp413
a(I0
I4
tp414
a(I1
I6
tp415
a(I3
I4
tp416
a(I2
I4
tp417
atp418
Rp419
sg15
I9
sg28
g20
((lp420
(I7
I3
tp421
a(I7
I0
tp422
a(I3
I0
tp423
a(I6
I1
tp424
a(I1
I4
tp425
a(I0
I5
tp426
a(I5
I0
tp427
a(I1
I1
tp428
a(I8
I4
tp429
atp430
Rp431
sg13
((I0
I1
tp432
(I2
I6
tp433
(I0
I2
tp434
tp435
sg14
I9
sbssg158
S'mild_roomset'
p436
sbsg158
g160
sg161
(dp437
g191
((lp438
(F16.930000000000291
I145
tp439
aF40.150000000000546
tp440
sg237
((lp441
F40.050000000000182
tp442
sg294
((lp443
(F0.17999999999938154
I11
tp444
aF40.009999999999309
tp445
sg343
((lp446
(F1.6000000000003638
I11
tp447
aF40.070000000000618
tp448
sg394
((lp449
(F2.0399999999999636
I65
tp450
aF40.029999999999745
tp451
ssba(imeasure_core
ProblemSetSolution
p452
(dp453
g3
(imeasure_core
RoomSet
p454
(dp455
g6
(dp456
(iproblems
RoomID
p457
(dp458
g10
I11
sg11
(I7
I9
tp459
sg13
I5
sg14
I12
sg15
I12
sg16
I1164115433906158532
sb(imulti_robot_problem
MultiRobotState
p460
(dp461
g19
g20
((lp462
(I4
I7
tp463
a(I1
I3
tp464
a(I5
I6
tp465
a(I9
I3
tp466
a(I1
I4
tp467
a(I0
I5
tp468
a(I7
I11
tp469
a(I1
I0
tp470
a(I5
I8
tp471
a(I3
I3
tp472
a(I3
I1
tp473
a(I6
I7
tp474
a(I6
I8
tp475
a(I7
I8
tp476
a(I5
I7
tp477
ag459
a(I4
I1
tp478
a(I0
I2
tp479
atp480
Rp481
sg15
I12
sg28
g20
((lp482
(I4
I10
tp483
a(I9
I0
tp484
a(I2
I6
tp485
a(I5
I10
tp486
a(I9
I2
tp487
a(I0
I7
tp488
a(I8
I9
tp489
a(I1
I6
tp490
a(I8
I5
tp491
a(I4
I11
tp492
a(I5
I3
tp493
atp494
Rp495
sg13
((I1
I2
tp496
(I2
I11
tp497
(I2
I0
tp498
(I2
I9
tp499
(I11
I7
tp500
tp501
sg14
I12
sbs(iproblems
RoomID
p502
(dp503
g10
I10
sg11
(I0
I7
tp504
sg13
I7
sg14
I10
sg15
I10
sg16
I8711387064946514083
sb(imulti_robot_problem
MultiRobotState
p505
(dp506
g19
g20
((lp507
(I5
I9
tp508
a(I6
I9
tp509
a(I2
I6
tp510
a(I2
I9
tp511
a(I0
I6
tp512
ag504
a(I1
I5
tp513
a(I8
I8
tp514
a(I0
I5
tp515
a(I4
I3
tp516
a(I0
I4
tp517
a(I0
I3
tp518
a(I9
I7
tp519
a(I0
I2
tp520
a(I7
I9
tp521
atp522
Rp523
sg15
I10
sg28
g20
((lp524
(I9
I0
tp525
a(I3
I3
tp526
a(I7
I1
tp527
a(I8
I1
tp528
a(I9
I8
tp529
a(I4
I4
tp530
a(I9
I9
tp531
a(I3
I6
tp532
a(I1
I7
tp533
a(I8
I6
tp534
atp535
Rp536
sg13
((I1
I1
tp537
(I8
I0
tp538
(I7
I0
tp539
(I2
I5
tp540
(I6
I7
tp541
(I8
I9
tp542
(I5
I8
tp543
tp544
sg14
I10
sbs(iproblems
RoomID
p545
(dp546
g10
I14
sg11
(I0
I3
tp547
sg13
I7
sg14
I12
sg15
I13
sg16
I7002664860023442459
sb(imulti_robot_problem
MultiRobotState
p548
(dp549
g19
g20
((lp550
(I1
I2
tp551
a(I11
I4
tp552
a(I9
I8
tp553
a(I10
I6
tp554
ag547
a(I0
I8
tp555
a(I10
I3
tp556
a(I0
I1
tp557
a(I10
I5
tp558
a(I10
I7
tp559
a(I7
I8
tp560
a(I9
I9
tp561
a(I0
I9
tp562
a(I9
I5
tp563
a(I3
I4
tp564
a(I0
I2
tp565
a(I11
I6
tp566
a(I9
I7
tp567
atp568
Rp569
sg15
I13
sg28
g20
((lp570
(I6
I4
tp571
a(I11
I9
tp572
a(I4
I6
tp573
a(I2
I9
tp574
a(I5
I9
tp575
a(I12
I2
tp576
a(I3
I1
tp577
a(I3
I11
tp578
a(I10
I10
tp579
a(I7
I4
tp580
a(I0
I0
tp581
a(I11
I5
tp582
a(I2
I5
tp583
a(I12
I9
tp584
atp585
Rp586
sg13
((I2
I10
tp587
(I1
I8
tp588
(I8
I10
tp589
(I7
I2
tp590
(I3
I8
tp591
(I6
I2
tp592
(I7
I9
tp593
tp594
sg14
I12
sbs(iproblems
RoomID
p595
(dp596
g10
I10
sg11
(I6
I7
tp597
sg13
I6
sg14
I10
sg15
I13
sg16
I8999366892653588108
sb(imulti_robot_problem
MultiRobotState
p598
(dp599
g19
g20
((lp600
(I5
I4
tp601
ag597
a(I5
I5
tp602
a(I5
I6
tp603
a(I7
I6
tp604
a(I4
I2
tp605
a(I2
I3
tp606
a(I8
I6
tp607
a(I12
I1
tp608
a(I5
I3
tp609
a(I6
I5
tp610
a(I3
I3
tp611
atp612
Rp613
sg15
I13
sg28
g20
((lp614
(I6
I9
tp615
a(I7
I0
tp616
a(I5
I7
tp617
a(I12
I6
tp618
a(I2
I1
tp619
a(I0
I5
tp620
a(I10
I1
tp621
a(I0
I3
tp622
a(I7
I9
tp623
a(I3
I5
tp624
atp625
Rp626
sg13
((I12
I0
tp627
(I6
I1
tp628
(I2
I2
tp629
(I6
I4
tp630
(I4
I6
tp631
(I7
I1
tp632
tp633
sg14
I10
sbs(iproblems
RoomID
p634
(dp635
g10
I14
sg11
(I5
I10
tp636
sg13
I5
sg14
I12
sg15
I10
sg16
I3872982626502034966
sb(imulti_robot_problem
MultiRobotState
p637
(dp638
g19
g20
((lp639
(I5
I9
tp640
a(I6
I9
tp641
a(I5
I7
tp642
a(I3
I2
tp643
ag636
a(I4
I10
tp644
a(I4
I8
tp645
a(I3
I11
tp646
a(I2
I1
tp647
a(I6
I2
tp648
a(I1
I4
tp649
a(I8
I7
tp650
a(I6
I8
tp651
a(I6
I7
tp652
a(I5
I8
tp653
a(I3
I5
tp654
a(I4
I9
tp655
a(I4
I6
tp656
a(I8
I1
tp657
a(I7
I1
tp658
a(I3
I8
tp659
a(I4
I3
tp660
a(I5
I2
tp661
a(I1
I1
tp662
atp663
Rp664
sg15
I10
sg28
g20
((lp665
(I5
I3
tp666
a(I3
I1
tp667
a(I8
I11
tp668
a(I9
I3
tp669
a(I0
I2
tp670
a(I6
I3
tp671
a(I3
I9
tp672
a(I2
I3
tp673
a(I9
I5
tp674
a(I7
I11
tp675
a(I0
I8
tp676
a(I3
I10
tp677
a(I7
I2
tp678
a(I9
I7
tp679
atp680
Rp681
sg13
((I1
I8
tp682
(I2
I9
tp683
(I1
I9
tp684
(I1
I5
tp685
(I6
I5
tp686
tp687
sg14
I12
sbssg158
S'heavy_roomset'
p688
sbsg158
g160
sg161
(dp689
g457
((lp690
(F6.7699999999995271
I20
tp691
aF40.099999999999454
tp692
sg502
((lp693
(F19.740000000000691
I7
tp694
aF57.25
tp695
sg545
((lp696
F46.170000000000073
tp697
sg595
((lp698
(F18.090000000000146
I20
tp699
aF40.800000000000182
tp700
sg634
((lp701
F40.050000000000182
tp702
ssba(imeasure_core
ProblemSetSolution
p703
(dp704
g3
g4
sg158
S"AnytimeBeam-w20-gf(4, 'lin')_with_PowerHeuristic2"
p705
sg161
(dp706
g8
((lp707
(F0.1499999999996362
I42
tp708
a(F8.9600000000000364
I36
tp709
a(F12.050000000000182
I34
tp710
a(F17.199999999999818
I32
tp711
a(F18.139999999999418
I30
tp712
a(F19.199999999999818
I28
tp713
a(F38.389999999999418
I26
tp714
aF40.0
tp715
sg40
((lp716
(F1.0599999999994907
I5
tp717
aF40.139999999999418
tp718
sg73
((lp719
(F1.2600000000002183
I11
tp720
aF40.0
tp721
sg102
((lp722
(F1.5300000000006548
I66
tp723
a(F12.900000000000546
I65
tp724
a(F22.230000000000473
I64
tp725
a(F36.360000000000582
I63
tp726
aF40.0
tp727
sg129
((lp728
(F0.72000000000025466
I4
tp729
aF40.190000000000509
tp730
ssba(imeasure_core
ProblemSetSolution
p731
(dp732
g3
g188
sg158
g705
sg161
(dp733
g191
((lp734
(F17.899999999999636
I142
tp735
aF40.309999999999491
tp736
sg237
((lp737
F40.0
tp738
sg294
((lp739
(F0.19000000000050932
I11
tp740
aF40.010000000000218
tp741
sg343
((lp742
(F1.6499999999996362
I11
tp743
aF40.0600000000004
tp744
sg394
((lp745
(F2.2799999999997453
I65
tp746
aF40.069999999999709
tp747
ssba(imeasure_core
ProblemSetSolution
p748
(dp749
g3
g454
sg158
g705
sg161
(dp750
g457
((lp751
(F7.7600000000002183
I20
tp752
aF40.079999999999927
tp753
sg502
((lp754
(F22.1899999999996
I7
tp755
aF40.510000000000218
tp756
sg545
((lp757
F46.550000000000182
tp758
sg595
((lp759
(F20.549999999999272
I20
tp760
aF41.169999999999163
tp761
sg634
((lp762
F40.080000000000837
tp763
ssba(imeasure_core
ProblemSetSolution
p764
(dp765
g3
g4
sg158
S"AnytimeBeam-w20-gf(8, 'lin')_with_PowerHeuristic2"
p766
sg161
(dp767
g8
((lp768
(F0.1499999999996362
I42
tp769
a(F4.7599999999993088
I36
tp770
a(F6.6699999999991633
I34
tp771
a(F8.819999999999709
I32
tp772
a(F9.75
I30
tp773
a(F10.819999999999709
I28
tp774
a(F20.519999999999527
I26
tp775
aF40.0
tp776
sg40
((lp777
(F1.1699999999991633
I5
tp778
aF40.429999999999382
tp779
sg73
((lp780
(F1.430000000000291
I11
tp781
aF40.0
tp782
sg102
((lp783
(F1.5600000000004002
I66
tp784
a(F13.110000000000582
I65
tp785
a(F22.670000000000073
I64
tp786
a(F36.949999999999818
I63
tp787
aF40.029999999999745
tp788
sg129
((lp789
(F0.81000000000040018
I4
tp790
aF40.220000000000255
tp791
ssba(imeasure_core
ProblemSetSolution
p792
(dp793
g3
g188
sg158
g766
sg161
(dp794
g191
((lp795
(F19.980000000000473
I142
tp796
aF40.029999999999745
tp797
sg237
((lp798
F40.010000000000218
tp799
sg294
((lp800
(F0.18000000000029104
I11
tp801
aF40.050000000000182
tp802
sg343
((lp803
(F1.6400000000003274
I11
tp804
aF40.0
tp805
sg394
((lp806
(F2.7200000000002547
I65
tp807
aF40.039999999999964
tp808
ssba(imeasure_core
ProblemSetSolution
p809
(dp810
g3
g454
sg158
g766
sg161
(dp811
g457
((lp812
(F8.4499999999998181
I20
tp813
aF40.470000000000255
tp814
sg502
((lp815
(F24.219999999999345
I7
tp816
aF44.489999999999782
tp817
sg545
((lp818
F46.319999999999709
tp819
sg595
((lp820
(F23.420000000000073
I20
tp821
aF40.400000000000546
tp822
sg634
((lp823
F40.029999999999745
tp824
ssba(imeasure_core
ProblemSetSolution
p825
(dp826
g3
g4
sg158
S"AnytimeBeam-w20-gf(16, 'lin')_with_PowerHeuristic2"
p827
sg161
(dp828
g8
((lp829
(F0.13999999999941792
I42
tp830
a(F2.569999999999709
I36
tp831
a(F3.3299999999999272
I34
tp832
a(F4.4899999999997817
I32
tp833
a(F5.4199999999991633
I30
tp834
a(F6.4899999999997817
I28
tp835
a(F12.289999999999964
I26
tp836
aF40.0
tp837
sg40
((lp838
(F1.3699999999998909
I5
tp839
aF40.219999999999345
tp840
sg73
((lp841
(F1.4600000000000364
I11
tp842
aF40.050000000000182
tp843
sg102
((lp844
(F1.569999999999709
I66
tp845
a(F13.770000000000437
I65
tp846
a(F23.859999999999673
I64
tp847
a(F39.170000000000073
I63
tp848
aF40.010000000000218
tp849
sg129
((lp850
(F0.82999999999992724
I4
tp851
aF40.090000000000146
tp852
ssba(imeasure_core
ProblemSetSolution
p853
(dp854
g3
g188
sg158
g827
sg161
(dp855
g191
((lp856
(F20.420000000000073
I137
tp857
aF40.0
tp858
sg237
((lp859
F40.039999999999964
tp860
sg294
((lp861
(F0.17999999999938154
I11
tp862
aF40.069999999999709
tp863
sg343
((lp864
(F1.6599999999998545
I11
tp865
aF40.3100000000004
tp866
sg394
((lp867
(F2.7599999999993088
I65
tp868
aF40.039999999999964
tp869
ssba(imeasure_core
ProblemSetSolution
p870
(dp871
g3
g454
sg158
g827
sg161
(dp872
g457
((lp873
(F9.1900000000005093
I20
tp874
aF40.490000000000691
tp875
sg502
((lp876
(F28.210000000000036
I7
tp877
aF41.899999999999636
tp878
sg545
((lp879
F46.710000000000036
tp880
sg595
((lp881
(F28.239999999999782
I20
tp882
aF40.180000000000291
tp883
sg634
((lp884
F40.109999999999673
tp885
ssba(imeasure_core
ProblemSetSolution
p886
(dp887
g3
g4
sg158
S"AnytimeBeam-w20-gf(2, 'lin')_with_LinearHeuristic"
p888
sg161
(dp889
g8
((lp890
(F0.019999999999527063
I28
tp891
aF40.0
tp892
sg40
((lp893
F40.220000000000255
tp894
sg73
((lp895
(F4.2199999999993452
I27
tp896
aF40.149999999999636
tp897
sg102
((lp898
(F0.98999999999978172
I25
tp899
aF40.0
tp900
sg129
((lp901
(F2.6499999999996362
I10
tp902
aF40.279999999999745
tp903
ssba(imeasure_core
ProblemSetSolution
p904
(dp905
g3
g188
sg158
g888
sg161
(dp906
g191
((lp907
F40.210000000000036
tp908
sg237
((lp909
F40.0
tp910
sg294
((lp911
F40.159999999999854
tp912
sg343
((lp913
F40.210000000000036
tp914
sg394
((lp915
(F13.609999999999673
I226
tp916
aF40.0
tp917
ssba(imeasure_core
ProblemSetSolution
p918
(dp919
g3
g454
sg158
g888
sg161
(dp920
g457
((lp921
F40.220000000000255
tp922
sg502
((lp923
(F29.959999999999127
I7
tp924
aF42.619999999999891
tp925
sg545
((lp926
F40.699999999999818
tp927
sg595
((lp928
F40.229999999999563
tp929
sg634
((lp930
F40.350000000000364
tp931
ssba(imeasure_core
ProblemSetSolution
p932
(dp933
g3
g4
sg158
S"AnytimeBeam-w20-gf(4, 'lin')_with_LinearHeuristic"
p934
sg161
(dp935
g8
((lp936
(F0.019999999999527063
I28
tp937
aF40.0
tp938
sg40
((lp939
F40.019999999999527
tp940
sg73
((lp941
(F4.4800000000004729
I27
tp942
aF40.079999999999927
tp943
sg102
((lp944
(F1.0
I25
tp945
aF40.0
tp946
sg129
((lp947
(F3.1300000000001091
I10
tp948
aF40.030000000000655
tp949
ssba(imeasure_core
ProblemSetSolution
p950
(dp951
g3
g188
sg158
g934
sg161
(dp952
g191
((lp953
F40.020000000000437
tp954
sg237
((lp955
F40.039999999999964
tp956
sg294
((lp957
F40.150000000000546
tp958
sg343
((lp959
F40.019999999998618
tp960
sg394
((lp961
(F14.960000000000946
I226
tp962
aF40.170000000000073
tp963
ssba(imeasure_core
ProblemSetSolution
p964
(dp965
g3
g454
sg158
g934
sg161
(dp966
g457
((lp967
F40.590000000000146
tp968
sg502
((lp969
(F33.700000000000728
I7
tp970
aF44.409999999999854
tp971
sg545
((lp972
F41.1200000000008
tp973
sg595
((lp974
F40.530000000000655
tp975
sg634
((lp976
F40.039999999999054
tp977
ssba(imeasure_core
ProblemSetSolution
p978
(dp979
g3
g4
sg158
S"AnytimeBeam-w20-gf(8, 'lin')_with_LinearHeuristic"
p980
sg161
(dp981
g8
((lp982
(F0.030000000000654836
I28
tp983
aF40.0
tp984
sg40
((lp985
F40.200000000000728
tp986
sg73
((lp987
(F4.7799999999988358
I27
tp988
aF40.0
tp989
sg102
((lp990
(F1.0199999999986176
I25
tp991
a(F23.430000000000291
I24
tp992
a(F32.68999999999869
I23
tp993
aF40.0
tp994
sg129
((lp995
(F3.5900000000001455
I10
tp996
aF40.840000000000146
tp997
ssba(imeasure_core
ProblemSetSolution
p998
(dp999
g3
g188
sg158
g980
sg161
(dp1000
g191
((lp1001
F40.049999999999272
tp1002
sg237
((lp1003
F40.100000000000364
tp1004
sg294
((lp1005
F40.1299999999992
tp1006
sg343
((lp1007
F40.350000000000364
tp1008
sg394
((lp1009
(F16.030000000000655
I226
tp1010
aF40.010000000000218
tp1011
ssba(imeasure_core
ProblemSetSolution
p1012
(dp1013
g3
g454
sg158
g980
sg161
(dp1014
g457
((lp1015
F40.119999999998981
tp1016
sg502
((lp1017
(F34.840000000000146
I7
tp1018
aF40.380000000001019
tp1019
sg545
((lp1020
F41.449999999998909
tp1021
sg595
((lp1022
F40.110000000000582
tp1023
sg634
((lp1024
F40.079999999999927
tp1025
ssba(imeasure_core
ProblemSetSolution
p1026
(dp1027
g3
g4
sg158
S"AnytimeBeam-w20-gf(16, 'lin')_with_LinearHeuristic"
p1028
sg161
(dp1029
g8
((lp1030
(F0.010000000000218279
I28
tp1031
aF40.0
tp1032
sg40
((lp1033
F40.020000000000437
tp1034
sg73
((lp1035
(F5.2700000000004366
I27
tp1036
aF40.069999999999709
tp1037
sg102
((lp1038
(F1.069999999999709
I25
tp1039
a(F15.5
I24
tp1040
a(F24.709999999999127
I23
tp1041
a(F39.149999999999636
I22
tp1042
aF40.010000000000218
tp1043
sg129
((lp1044
(F3.8299999999999272
I10
tp1045
aF40.149999999999636
tp1046
ssba(imeasure_core
ProblemSetSolution
p1047
(dp1048
g3
g188
sg158
g1028
sg161
(dp1049
g191
((lp1050
F40.100000000000364
tp1051
sg237
((lp1052
F40.119999999998981
tp1053
sg294
((lp1054
F40.140000000001237
tp1055
sg343
((lp1056
F40.170000000000073
tp1057
sg394
((lp1058
(F19.349999999998545
I226
tp1059
aF40.029999999998836
tp1060
ssba(imeasure_core
ProblemSetSolution
p1061
(dp1062
g3
g454
sg158
g1028
sg161
(dp1063
g457
((lp1064
F40.360000000000582
tp1065
sg502
((lp1066
F40.219999999999345
tp1067
sg545
((lp1068
F42.440000000000509
tp1069
sg595
((lp1070
F40.1299999999992
tp1071
sg634
((lp1072
F40.150000000001455
tp1073
ssba.