(lp0
(imeasure_core
ProblemSetSolution
p1
(dp2
S'roomset'
p3
(imeasure_core
RoomSet
p4
(dp5
S'rooms'
p6
(dp7
(iproblems
RoomID
p8
(dp9
S'dusts'
p10
I6
sS'obstacles'
p11
(I5
I1
tp12
sS'robots'
p13
I4
sS'height'
p14
I9
sS'width'
p15
I10
sS'seed'
p16
I2405875930906139466
sb(imulti_robot_problem
MultiRobotState
p17
(dp18
S'obstacle_locations'
p19
c__builtin__
frozenset
p20
((lp21
(I7
I0
tp22
a(I7
I1
tp23
ag12
a(I6
I1
tp24
a(I6
I0
tp25
a(I7
I2
tp26
atp27
Rp28
sg15
I10
sS'dirt_locations'
p29
g20
((lp30
(I7
I3
tp31
a(I2
I1
tp32
a(I6
I4
tp33
a(I5
I6
tp34
a(I5
I2
tp35
a(I0
I7
tp36
atp37
Rp38
sg13
((I7
I6
tp39
(I3
I3
tp40
(I8
I6
tp41
(I0
I2
tp42
tp43
sg14
I9
sbs(iproblems
RoomID
p44
(dp45
g10
I6
sg11
(I6
I7
tp46
sg13
I4
sg14
I10
sg15
I7
sg16
I8744744311366254845
sb(imulti_robot_problem
MultiRobotState
p47
(dp48
g19
g20
((lp49
(I0
I6
tp50
ag46
a(I4
I6
tp51
a(I3
I7
tp52
a(I5
I7
tp53
a(I1
I9
tp54
atp55
Rp56
sg15
I7
sg29
g20
((lp57
(I2
I7
tp58
a(I0
I1
tp59
a(I5
I4
tp60
a(I6
I0
tp61
a(I5
I8
tp62
a(I5
I3
tp63
atp64
Rp65
sg13
((I0
I8
tp66
(I4
I2
tp67
(I3
I0
tp68
(I1
I4
tp69
tp70
sg14
I10
sbs(iproblems
RoomID
p71
(dp72
g10
I6
sg11
(I4
I6
tp73
sg13
I1
sg14
I8
sg15
I7
sg16
I3537054308274871603
sb(imulti_robot_problem
MultiRobotState
p74
(dp75
g19
g20
((lp76
(I4
I7
tp77
ag73
a(I4
I5
tp78
a(I2
I5
tp79
a(I3
I5
tp80
a(I6
I0
tp81
a(I2
I4
tp82
atp83
Rp84
sg15
I7
sg29
g20
((lp85
(I0
I6
tp86
a(I6
I2
tp87
a(I5
I6
tp88
a(I4
I1
tp89
a(I1
I1
tp90
a(I5
I3
tp91
atp92
Rp93
sg13
((I0
I3
tp94
tp95
sg14
I8
sbs(iproblems
RoomID
p96
(dp97
g10
I10
sg11
(I4
I7
tp98
sg13
I5
sg14
I10
sg15
I8
sg16
I8655808914197340073
sb(imulti_robot_problem
MultiRobotState
p99
(dp100
g19
g20
((lp101
(I2
I7
tp102
ag98
a(I4
I8
tp103
a(I6
I3
tp104
a(I7
I5
tp105
a(I3
I7
tp106
a(I1
I0
tp107
a(I5
I3
tp108
atp109
Rp110
sg15
I8
sg29
g20
((lp111
(I7
I3
tp112
a(I5
I4
tp113
a(I7
I0
tp114
a(I5
I7
tp115
a(I1
I5
tp116
a(I1
I9
tp117
a(I3
I6
tp118
a(I1
I7
tp119
a(I3
I4
tp120
a(I5
I8
tp121
atp122
Rp123
sg13
((I3
I8
tp124
(I7
I9
tp125
(I6
I1
tp126
(I2
I3
tp127
(I5
I5
tp128
tp129
sg14
I10
sbs(iproblems
RoomID
p130
(dp131
g10
I8
sg11
(I5
I3
tp132
sg13
I3
sg14
I7
sg15
I7
sg16
I7325839828077136048
sb(imulti_robot_problem
MultiRobotState
p133
(dp134
g19
g20
((lp135
(I6
I4
tp136
a(I5
I4
tp137
a(I5
I5
tp138
a(I6
I6
tp139
a(I3
I1
tp140
a(I6
I0
tp141
a(I2
I0
tp142
a(I0
I4
tp143
ag132
atp144
Rp145
sg15
I7
sg29
g20
((lp146
(I0
I6
tp147
a(I3
I0
tp148
a(I2
I4
tp149
a(I1
I5
tp150
a(I4
I3
tp151
a(I2
I2
tp152
a(I1
I1
tp153
a(I3
I5
tp154
atp155
Rp156
sg13
((I1
I0
tp157
(I3
I3
tp158
(I6
I2
tp159
tp160
sg14
I7
sbssS'name'
p161
S'easy_roomset'
p162
sbsg161
S'LimitedTimeAStar_with_PowerHeuristic2'
p163
sS'solutions'
p164
(dp165
g8
((lp166
F0.49000000000069122
tp167
sg44
((lp168
F0.65999999999985448
tp169
sg71
((lp170
F0.069999999999708962
tp171
sg96
((lp172
F7.8800000000001091
tp173
sg130
((lp174
F0.68999999999959982
tp175
ssba(imeasure_core
ProblemSetSolution
p176
(dp177
g3
(imeasure_core
RoomSet
p178
(dp179
g6
(dp180
(iproblems
RoomID
p181
(dp182
g10
I6
sg11
(I1
I8
tp183
sg13
I4
sg14
I11
sg15
I12
sg16
I2405875930906139466
sb(imulti_robot_problem
MultiRobotState
p184
(dp185
g19
g20
((lp186
(I6
I4
tp187
a(I4
I6
tp188
a(I8
I2
tp189
a(I6
I6
tp190
a(I2
I8
tp191
a(I8
I0
tp192
a(I5
I5
tp193
a(I9
I10
tp194
a(I6
I2
tp195
a(I2
I3
tp196
a(I3
I7
tp197
a(I6
I5
tp198
a(I5
I3
tp199
a(I7
I0
tp200
a(I3
I3
tp201
a(I2
I9
tp202
a(I11
I5
tp203
a(I8
I1
tp204
a(I6
I1
tp205
a(I3
I1
tp206
a(I6
I3
tp207
a(I2
I0
tp208
ag183
a(I7
I5
tp209
a(I3
I6
tp210
a(I4
I3
tp211
a(I3
I4
tp212
atp213
Rp214
sg15
I12
sg29
g20
((lp215
(I9
I4
tp216
a(I7
I1
tp217
a(I0
I9
tp218
a(I9
I3
tp219
a(I7
I7
tp220
a(I2
I1
tp221
atp222
Rp223
sg13
((I9
I7
tp224
(I4
I4
tp225
(I10
I8
tp226
(I0
I2
tp227
tp228
sg14
I11
sbs(iproblems
RoomID
p229
(dp230
g10
I10
sg11
(I0
I5
tp231
sg13
I4
sg14
I12
sg15
I10
sg16
I8655808914197340073
sb(imulti_robot_problem
MultiRobotState
p232
(dp233
g19
g20
((lp234
(I5
I9
tp235
a(I5
I4
tp236
a(I5
I7
tp237
a(I6
I6
tp238
a(I4
I8
tp239
a(I8
I0
tp240
a(I0
I7
tp241
a(I7
I5
tp242
a(I2
I3
tp243
a(I1
I4
tp244
a(I6
I8
tp245
a(I1
I11
tp246
a(I9
I6
tp247
a(I5
I8
tp248
a(I4
I6
tp249
a(I3
I8
tp250
a(I6
I7
tp251
a(I5
I5
tp252
a(I3
I4
tp253
a(I4
I4
tp254
a(I6
I3
tp255
a(I2
I0
tp256
a(I6
I5
tp257
ag231
a(I7
I8
tp258
atp259
Rp260
sg15
I10
sg29
g20
((lp261
(I6
I9
tp262
a(I2
I9
tp263
a(I2
I11
tp264
a(I9
I0
tp265
a(I7
I7
tp266
a(I8
I3
tp267
a(I1
I7
tp268
a(I8
I6
tp269
a(I8
I4
tp270
a(I3
I5
tp271
atp272
Rp273
sg13
((I4
I9
tp274
(I8
I11
tp275
(I7
I1
tp276
(I3
I3
tp277
tp278
sg14
I12
sbs(iproblems
RoomID
p279
(dp280
g10
I6
sg11
(I3
I3
tp281
sg13
I4
sg14
I12
sg15
I12
sg16
I7193062864237573168
sb(imulti_robot_problem
MultiRobotState
p282
(dp283
g19
g20
((lp284
(I6
I4
tp285
a(I5
I4
tp286
a(I1
I3
tp287
a(I6
I6
tp288
a(I7
I1
tp289
a(I9
I3
tp290
a(I0
I7
tp291
a(I1
I6
tp292
a(I2
I5
tp293
a(I0
I8
tp294
a(I10
I3
tp295
a(I8
I3
tp296
a(I3
I1
tp297
ag281
a(I5
I7
tp298
a(I11
I3
tp299
a(I7
I4
tp300
a(I0
I9
tp301
a(I2
I3
tp302
a(I8
I4
tp303
a(I3
I4
tp304
a(I2
I4
tp305
a(I9
I7
tp306
atp307
Rp308
sg15
I12
sg29
g20
((lp309
(I2
I0
tp310
a(I2
I6
tp311
a(I6
I8
tp312
a(I0
I6
tp313
a(I4
I4
tp314
a(I7
I7
tp315
atp316
Rp317
sg13
((I11
I9
tp318
(I11
I2
tp319
(I4
I11
tp320
(I3
I6
tp321
tp322
sg14
I12
sbs(iproblems
RoomID
p323
(dp324
g10
I10
sg11
(I11
I0
tp325
sg13
I4
sg14
I9
sg15
I12
sg16
I2796939073032698495
sb(imulti_robot_problem
MultiRobotState
p326
(dp327
g19
g20
((lp328
(I7
I3
tp329
a(I5
I7
tp330
a(I9
I1
tp331
a(I6
I6
tp332
a(I8
I0
tp333
a(I7
I7
tp334
a(I5
I8
tp335
a(I3
I3
tp336
a(I8
I1
tp337
a(I4
I8
tp338
a(I6
I3
tp339
a(I7
I2
tp340
a(I3
I6
tp341
a(I6
I4
tp342
a(I5
I4
tp343
a(I2
I6
tp344
a(I7
I1
tp345
a(I4
I5
tp346
ag325
a(I2
I3
tp347
a(I10
I1
tp348
a(I1
I0
tp349
a(I6
I5
tp350
a(I5
I3
tp351
a(I8
I3
tp352
a(I7
I0
tp353
a(I6
I8
tp354
a(I9
I2
tp355
a(I6
I1
tp356
a(I3
I1
tp357
a(I8
I8
tp358
a(I4
I3
tp359
a(I5
I2
tp360
a(I10
I2
tp361
atp362
Rp363
sg15
I12
sg29
g20
((lp364
(I1
I2
tp365
a(I11
I7
tp366
a(I3
I2
tp367
a(I2
I8
tp368
a(I9
I3
tp369
a(I1
I6
tp370
a(I5
I0
tp371
a(I0
I3
tp372
a(I0
I8
tp373
a(I4
I1
tp374
atp375
Rp376
sg13
((I10
I8
tp377
(I4
I6
tp378
(I11
I4
tp379
(I7
I8
tp380
tp381
sg14
I9
sbs(iproblems
RoomID
p382
(dp383
g10
I10
sg11
(I3
I6
tp384
sg13
I4
sg14
I12
sg15
I11
sg16
I4278205817407065157
sb(imulti_robot_problem
MultiRobotState
p385
(dp386
g19
g20
((lp387
(I0
I1
tp388
a(I4
I7
tp389
a(I5
I6
tp390
a(I2
I8
tp391
a(I0
I10
tp392
a(I3
I7
tp393
a(I7
I11
tp394
a(I3
I3
tp395
a(I2
I7
tp396
a(I5
I3
tp397
a(I6
I7
tp398
a(I4
I6
tp399
a(I10
I7
tp400
a(I4
I4
tp401
a(I3
I8
tp402
a(I4
I5
tp403
ag384
a(I1
I10
tp404
a(I3
I5
tp405
a(I1
I9
tp406
atp407
Rp408
sg15
I11
sg29
g20
((lp409
(I1
I2
tp410
a(I8
I1
tp411
a(I9
I2
tp412
a(I6
I1
tp413
a(I5
I7
tp414
a(I8
I9
tp415
a(I3
I0
tp416
a(I9
I4
tp417
a(I0
I2
tp418
a(I4
I0
tp419
atp420
Rp421
sg13
((I6
I10
tp422
(I5
I11
tp423
(I2
I0
tp424
(I9
I1
tp425
tp426
sg14
I12
sbssg161
S'mild_roomset'
p427
sbsg161
g163
sg164
(dp428
g181
((lp429
F1.5600000000004002
tp430
sg229
((lp431
F72.010000000000218
tp432
sg279
((lp433
F583.61999999999989
tp434
sg323
((lp435
F600.26999999999953
tp436
sg382
((lp437
F13.480000000000473
tp438
ssba(imeasure_core
ProblemSetSolution
p439
(dp440
g3
(imeasure_core
RoomSet
p441
(dp442
g6
(dp443
(iproblems
RoomID
p444
(dp445
g10
I11
sg11
(I10
I1
tp446
sg13
I7
sg14
I12
sg15
I13
sg16
I2405875930906139466
sb(imulti_robot_problem
MultiRobotState
p447
(dp448
g19
g20
((lp449
(I7
I3
tp450
a(I9
I1
tp451
a(I7
I1
tp452
a(I5
I6
tp453
a(I8
I11
tp454
a(I8
I0
tp455
a(I1
I4
tp456
a(I6
I2
tp457
a(I0
I7
tp458
ag446
a(I10
I3
tp459
a(I7
I2
tp460
a(I10
I4
tp461
a(I11
I7
tp462
a(I9
I0
tp463
a(I11
I5
tp464
a(I7
I4
tp465
a(I1
I5
tp466
a(I10
I2
tp467
a(I11
I6
tp468
a(I8
I4
tp469
atp470
Rp471
sg15
I13
sg29
g20
((lp472
(I12
I5
tp473
a(I10
I11
tp474
a(I8
I1
tp475
a(I7
I8
tp476
a(I8
I6
tp477
a(I6
I3
tp478
a(I2
I0
tp479
a(I2
I3
tp480
a(I5
I1
tp481
a(I10
I0
tp482
a(I3
I4
tp483
atp484
Rp485
sg13
((I10
I8
tp486
(I9
I2
tp487
(I4
I5
tp488
(I11
I8
tp489
(I1
I2
tp490
(I3
I1
tp491
(I0
I10
tp492
tp493
sg14
I12
sbs(iproblems
RoomID
p494
(dp495
g10
I11
sg11
(I7
I9
tp496
sg13
I6
sg14
I13
sg15
I10
sg16
I8744744311366254845
sb(imulti_robot_problem
MultiRobotState
p497
(dp498
g19
g20
((lp499
(I6
I9
tp500
a(I1
I3
tp501
a(I4
I9
tp502
a(I5
I6
tp503
a(I9
I8
tp504
a(I1
I8
tp505
a(I1
I0
tp506
ag496
a(I3
I4
tp507
a(I5
I8
tp508
a(I9
I7
tp509
atp510
Rp511
sg15
I10
sg29
g20
((lp512
(I0
I1
tp513
a(I7
I3
tp514
a(I9
I0
tp515
a(I1
I12
tp516
a(I4
I10
tp517
a(I5
I11
tp518
a(I9
I10
tp519
a(I7
I11
tp520
a(I3
I7
tp521
a(I0
I8
tp522
a(I9
I6
tp523
atp524
Rp525
sg13
((I0
I10
tp526
(I6
I3
tp527
(I4
I0
tp528
(I1
I6
tp529
(I7
I5
tp530
(I9
I9
tp531
tp532
sg14
I13
sbs(iproblems
RoomID
p533
(dp534
g10
I15
sg11
(I5
I8
tp535
sg13
I7
sg14
I13
sg15
I11
sg16
I8655808914197340073
sb(imulti_robot_problem
MultiRobotState
p536
(dp537
g19
g20
((lp538
(I5
I9
tp539
a(I6
I7
tp540
a(I6
I11
tp541
a(I1
I4
tp542
a(I0
I12
tp543
a(I0
I11
tp544
a(I7
I5
tp545
a(I1
I6
tp546
a(I0
I4
tp547
a(I5
I10
tp548
a(I3
I9
tp549
a(I4
I9
tp550
a(I10
I3
tp551
ag535
atp552
Rp553
sg15
I11
sg29
g20
((lp554
(I2
I7
tp555
a(I7
I3
tp556
a(I4
I6
tp557
a(I1
I12
tp558
a(I5
I6
tp559
a(I8
I5
tp560
a(I7
I7
tp561
a(I7
I9
tp562
a(I2
I0
tp563
a(I9
I4
tp564
a(I7
I10
tp565
a(I0
I8
tp566
a(I9
I6
tp567
a(I6
I5
tp568
a(I9
I7
tp569
atp570
Rp571
sg13
((I9
I11
tp572
(I8
I1
tp573
(I3
I4
tp574
(I8
I7
tp575
(I9
I1
tp576
(I2
I10
tp577
(I2
I12
tp578
tp579
sg14
I13
sbs(iproblems
RoomID
p580
(dp581
g10
I15
sg11
(I4
I8
tp582
sg13
I6
sg14
I13
sg15
I12
sg16
I4278205817407065157
sb(imulti_robot_problem
MultiRobotState
p583
(dp584
g19
g20
((lp585
(I11
I7
tp586
a(I2
I9
tp587
ag582
a(I5
I6
tp588
a(I2
I8
tp589
a(I6
I10
tp590
a(I3
I8
tp591
a(I11
I8
tp592
a(I3
I9
tp593
a(I1
I10
tp594
a(I1
I11
tp595
a(I7
I8
tp596
a(I2
I4
tp597
atp598
Rp599
sg15
I12
sg29
g20
((lp600
(I1
I2
tp601
a(I0
I1
tp602
a(I5
I4
tp603
a(I5
I7
tp604
a(I10
I4
tp605
a(I7
I1
tp606
a(I3
I1
tp607
a(I10
I5
tp608
a(I4
I7
tp609
a(I9
I9
tp610
a(I0
I10
tp611
a(I4
I3
tp612
a(I8
I12
tp613
a(I4
I1
tp614
a(I0
I2
tp615
atp616
Rp617
sg13
((I7
I10
tp618
(I6
I12
tp619
(I2
I0
tp620
(I9
I1
tp621
(I10
I3
tp622
(I4
I0
tp623
tp624
sg14
I13
sbs(iproblems
RoomID
p625
(dp626
g10
I15
sg11
(I3
I6
tp627
sg13
I7
sg14
I10
sg15
I13
sg16
I2796939073032698495
sb(imulti_robot_problem
MultiRobotState
p628
(dp629
g19
g20
((lp630
(I5
I9
tp631
a(I6
I9
tp632
a(I4
I6
tp633
a(I5
I0
tp634
a(I6
I6
tp635
a(I4
I5
tp636
a(I5
I4
tp637
a(I6
I7
tp638
a(I6
I2
tp639
a(I0
I5
tp640
a(I8
I7
tp641
a(I5
I1
tp642
a(I6
I4
tp643
a(I12
I9
tp644
a(I5
I8
tp645
a(I5
I3
tp646
a(I2
I7
tp647
a(I4
I9
tp648
a(I5
I5
tp649
a(I3
I1
tp650
a(I4
I8
tp651
a(I2
I0
tp652
a(I3
I9
tp653
a(I6
I5
tp654
ag627
a(I5
I7
tp655
a(I7
I8
tp656
atp657
Rp658
sg15
I13
sg29
g20
((lp659
(I1
I2
tp660
a(I8
I2
tp661
a(I2
I9
tp662
a(I12
I0
tp663
a(I4
I1
tp664
a(I12
I8
tp665
a(I6
I0
tp666
a(I9
I9
tp667
a(I2
I3
tp668
a(I9
I4
tp669
a(I1
I7
tp670
a(I0
I9
tp671
a(I7
I9
tp672
a(I3
I4
tp673
a(I3
I3
tp674
atp675
Rp676
sg13
((I10
I2
tp677
(I11
I8
tp678
(I12
I5
tp679
(I8
I9
tp680
(I10
I3
tp681
(I0
I3
tp682
(I11
I2
tp683
tp684
sg14
I10
sbssg161
S'heavy_roomset'
p685
sbsg161
g163
sg164
(dp686
g444
((lp687
F545.76999999999953
tp688
sg494
((lp689
F13.149999999999636
tp690
sg533
((lp691
F129.55000000000018
tp692
sg580
((lp693
F489.67000000000007
tp694
sg625
((lp695
F403.82999999999993
tp696
ssba.