(lp0
(imeasure_core
ProblemSetSolution
p1
(dp2
S'roomset'
p3
(imeasure_core
RoomSet
p4
(dp5
S'rooms'
p6
(dp7
(iproblems
RoomID
p8
(dp9
S'dusts'
p10
I7
sS'obstacles'
p11
(I1
I3
tp12
sS'robots'
p13
I1
sS'height'
p14
I7
sS'width'
p15
I9
sS'seed'
p16
I1486246605650367638
sb(imulti_robot_problem
MultiRobotState
p17
(dp18
S'obstacle_locations'
p19
c__builtin__
frozenset
p20
((lp21
(I0
I1
tp22
a(I8
I3
tp23
ag12
a(I0
I3
tp24
a(I0
I2
tp25
atp26
Rp27
sg15
I9
sS'dirt_locations'
p28
g20
((lp29
(I7
I5
tp30
a(I7
I0
tp31
a(I0
I4
tp32
a(I1
I0
tp33
a(I4
I4
tp34
a(I6
I5
tp35
a(I4
I0
tp36
atp37
Rp38
sg13
((I5
I1
tp39
tp40
sg14
I7
sbs(iproblems
RoomID
p41
(dp42
g10
I9
sg11
(I7
I5
tp43
sg13
I4
sg14
I10
sg15
I10
sg16
I679259829289197625
sb(imulti_robot_problem
MultiRobotState
p44
(dp45
g19
g20
((lp46
(I9
I6
tp47
a(I8
I6
tp48
a(I7
I6
tp49
ag43
a(I7
I0
tp50
atp51
Rp52
sg15
I10
sg28
g20
((lp53
(I5
I4
tp54
a(I2
I6
tp55
a(I7
I1
tp56
a(I6
I1
tp57
a(I1
I6
tp58
a(I0
I5
tp59
a(I8
I7
tp60
a(I0
I9
tp61
a(I9
I5
tp62
atp63
Rp64
sg13
((I7
I8
tp65
(I6
I7
tp66
(I3
I5
tp67
(I3
I9
tp68
tp69
sg14
I10
sbs(iproblems
RoomID
p70
(dp71
g10
I6
sg11
(I4
I4
tp72
sg13
I4
sg14
I9
sg15
I9
sg16
I5891625650498269233
sb(imulti_robot_problem
MultiRobotState
p73
(dp74
g19
g20
((lp75
(I2
I7
tp76
a(I4
I5
tp77
ag72
a(I3
I6
tp78
atp79
Rp80
sg15
I9
sg28
g20
((lp81
(I7
I4
tp82
a(I8
I3
tp83
a(I0
I5
tp84
a(I5
I5
tp85
a(I6
I6
tp86
a(I4
I0
tp87
atp88
Rp89
sg13
((I4
I6
tp90
(I7
I1
tp91
(I0
I4
tp92
(I7
I2
tp93
tp94
sg14
I9
sbs(iproblems
RoomID
p95
(dp96
g10
I5
sg11
(I3
I4
tp97
sg13
I1
sg14
I9
sg15
I9
sg16
I2685440357799139976
sb(imulti_robot_problem
MultiRobotState
p98
(dp99
g19
g20
((lp100
(I8
I3
tp101
a(I1
I3
tp102
a(I5
I6
tp103
ag97
a(I2
I4
tp104
a(I3
I8
tp105
a(I2
I3
tp106
a(I7
I8
tp107
a(I1
I1
tp108
atp109
Rp110
sg15
I9
sg28
g20
((lp111
(I0
I1
tp112
a(I0
I0
tp113
a(I3
I1
tp114
a(I8
I7
tp115
a(I5
I0
tp116
atp117
Rp118
sg13
((I5
I5
tp119
tp120
sg14
I9
sbssS'name'
p121
S'easy_roomset'
p122
sbsg121
S'LimitedTimeAStar_with_PowerHeuristic2'
p123
sS'solutions'
p124
(dp125
g8
((lp126
F0.07999999999992724
tp127
sg41
((lp128
F0.56999999999970896
tp129
sg70
((lp130
F0.81000000000040018
tp131
sg95
((lp132
F0.1000000000003638
tp133
ssba(imeasure_core
ProblemSetSolution
p134
(dp135
g3
(imeasure_core
RoomSet
p136
(dp137
g6
(dp138
(iproblems
RoomID
p139
(dp140
g10
I9
sg11
(I7
I7
tp141
sg13
I4
sg14
I12
sg15
I12
sg16
I679259829289197625
sb(imulti_robot_problem
MultiRobotState
p142
(dp143
g19
g20
((lp144
(I6
I4
tp145
a(I6
I9
tp146
a(I6
I6
tp147
a(I5
I6
tp148
a(I9
I8
tp149
a(I11
I9
tp150
ag141
a(I1
I4
tp151
a(I11
I7
tp152
a(I7
I5
tp153
a(I8
I7
tp154
a(I4
I2
tp155
a(I8
I5
tp156
a(I6
I5
tp157
a(I10
I8
tp158
a(I10
I5
tp159
a(I6
I7
tp160
a(I6
I8
tp161
a(I10
I7
tp162
a(I9
I6
tp163
a(I7
I6
tp164
a(I8
I10
tp165
a(I7
I4
tp166
a(I11
I8
tp167
a(I7
I10
tp168
a(I8
I6
tp169
a(I6
I1
tp170
a(I9
I7
tp171
atp172
Rp173
sg15
I12
sg28
g20
((lp174
(I2
I7
tp175
a(I9
I0
tp176
a(I8
I2
tp177
a(I7
I1
tp178
a(I11
I0
tp179
a(I0
I11
tp180
a(I1
I6
tp181
a(I1
I7
tp182
a(I11
I6
tp183
atp184
Rp185
sg13
((I9
I10
tp186
(I8
I9
tp187
(I3
I7
tp188
(I3
I11
tp189
tp190
sg14
I12
sbs(iproblems
RoomID
p191
(dp192
g10
I5
sg11
(I9
I1
tp193
sg13
I3
sg14
I11
sg15
I11
sg16
I2685440357799139976
sb(imulti_robot_problem
MultiRobotState
p194
(dp195
g19
g20
((lp196
(I7
I3
tp197
a(I10
I4
tp198
a(I9
I3
tp199
ag193
a(I7
I1
tp200
a(I5
I6
tp201
a(I10
I6
tp202
a(I1
I4
tp203
a(I9
I9
tp204
a(I3
I9
tp205
a(I9
I4
tp206
a(I6
I8
tp207
a(I9
I6
tp208
a(I3
I4
tp209
a(I10
I3
tp210
a(I7
I2
tp211
a(I5
I3
tp212
a(I8
I3
tp213
a(I5
I5
tp214
a(I10
I7
tp215
a(I8
I5
tp216
a(I9
I2
tp217
a(I3
I6
tp218
a(I4
I5
tp219
a(I6
I5
tp220
a(I7
I10
tp221
a(I9
I5
tp222
a(I3
I5
tp223
a(I7
I8
tp224
a(I2
I4
tp225
a(I10
I9
tp226
atp227
Rp228
sg15
I11
sg28
g20
((lp229
(I1
I2
tp230
a(I9
I10
tp231
a(I6
I1
tp232
a(I4
I1
tp233
a(I0
I2
tp234
atp235
Rp236
sg13
((I6
I6
tp237
(I0
I0
tp238
(I10
I8
tp239
tp240
sg14
I11
sbs(iproblems
RoomID
p241
(dp242
g10
I10
sg11
(I1
I5
tp243
sg13
I4
sg14
I12
sg15
I10
sg16
I1737871632067391849
sb(imulti_robot_problem
MultiRobotState
p244
(dp245
g19
g20
((lp246
(I3
I2
tp247
a(I0
I0
tp248
a(I6
I6
tp249
a(I5
I6
tp250
a(I2
I8
tp251
a(I2
I10
tp252
a(I8
I9
tp253
a(I6
I2
tp254
a(I2
I3
tp255
a(I8
I7
tp256
a(I5
I1
tp257
a(I8
I5
tp258
a(I5
I8
tp259
a(I8
I3
tp260
a(I5
I5
tp261
a(I7
I8
tp262
a(I7
I6
tp263
a(I8
I10
tp264
ag243
a(I6
I5
tp265
a(I2
I2
tp266
a(I4
I1
tp267
a(I2
I4
tp268
atp269
Rp270
sg15
I10
sg28
g20
((lp271
(I0
I1
tp272
a(I4
I10
tp273
a(I4
I8
tp274
a(I3
I0
tp275
a(I9
I6
tp276
a(I3
I10
tp277
a(I5
I11
tp278
a(I2
I7
tp279
a(I1
I9
tp280
a(I3
I4
tp281
atp282
Rp283
sg13
((I4
I9
tp284
(I8
I11
tp285
(I4
I0
tp286
(I3
I9
tp287
tp288
sg14
I12
sbs(iproblems
RoomID
p289
(dp290
g10
I6
sg11
(I3
I9
tp291
sg13
I4
sg14
I11
sg15
I11
sg16
I5891625650498269233
sb(imulti_robot_problem
MultiRobotState
p292
(dp293
g19
g20
((lp294
(I7
I3
tp295
a(I4
I7
tp296
a(I6
I6
tp297
a(I5
I6
tp298
a(I2
I8
tp299
a(I6
I2
tp300
a(I5
I1
tp301
a(I3
I7
tp302
a(I8
I5
tp303
a(I5
I5
tp304
a(I2
I9
tp305
a(I7
I6
tp306
a(I4
I4
tp307
a(I2
I2
tp308
a(I1
I1
tp309
a(I9
I7
tp310
a(I3
I2
tp311
a(I10
I4
tp312
a(I4
I5
tp313
a(I9
I3
tp314
a(I10
I5
tp315
a(I2
I10
tp316
a(I7
I5
tp317
a(I2
I3
tp318
a(I8
I3
tp319
a(I4
I6
tp320
a(I5
I2
tp321
a(I6
I1
tp322
a(I3
I8
tp323
a(I1
I8
tp324
ag291
a(I4
I3
tp325
a(I9
I5
tp326
a(I3
I4
tp327
a(I8
I4
tp328
atp329
Rp330
sg15
I11
sg28
g20
((lp331
(I8
I8
tp332
a(I5
I10
tp333
a(I9
I1
tp334
a(I10
I7
tp335
a(I1
I6
tp336
a(I7
I9
tp337
atp338
Rp339
sg13
((I5
I7
tp340
(I8
I1
tp341
(I0
I5
tp342
(I4
I0
tp343
tp344
sg14
I11
sbssg121
S'mild_roomset'
p345
sbsg121
g123
sg124
(dp346
g139
((lp347
F300.85000000000036
tp348
sg191
((lp349
F0.15999999999985448
tp350
sg241
((lp351
F2.1100000000005821
tp352
sg289
((lp353
F0.22999999999956344
tp354
ssba(imeasure_core
ProblemSetSolution
p355
(dp356
g3
(imeasure_core
RoomSet
p357
(dp358
g6
(dp359
(iproblems
RoomID
p360
(dp361
g10
I12
sg11
(I6
I3
tp362
sg13
I5
sg14
I10
sg15
I12
sg16
I1486246605650367638
sb(imulti_robot_problem
MultiRobotState
p363
(dp364
g19
g20
((lp365
(I5
I9
tp366
a(I1
I3
tp367
a(I7
I1
tp368
a(I2
I7
tp369
a(I1
I4
tp370
a(I6
I2
tp371
a(I1
I6
tp372
a(I2
I1
tp373
a(I0
I3
tp374
a(I6
I5
tp375
a(I1
I2
tp376
a(I1
I5
tp377
a(I4
I1
tp378
a(I3
I1
tp379
ag362
a(I2
I0
tp380
a(I10
I0
tp381
a(I5
I2
tp382
a(I1
I1
tp383
a(I8
I4
tp384
atp385
Rp386
sg15
I12
sg28
g20
((lp387
(I11
I7
tp388
a(I11
I4
tp389
a(I9
I1
tp390
a(I11
I8
tp391
a(I2
I8
tp392
a(I6
I0
tp393
a(I0
I6
tp394
a(I11
I1
tp395
a(I0
I4
tp396
a(I4
I9
tp397
a(I10
I9
tp398
a(I9
I7
tp399
atp400
Rp401
sg13
((I2
I4
tp402
(I10
I1
tp403
(I2
I5
tp404
(I9
I8
tp405
(I6
I6
tp406
tp407
sg14
I10
sbs(iproblems
RoomID
p408
(dp409
g10
I14
sg11
(I7
I6
tp410
sg13
I7
sg14
I13
sg15
I13
sg16
I679259829289197625
sb(imulti_robot_problem
MultiRobotState
p411
(dp412
g19
g20
((lp413
(I6
I4
tp414
a(I4
I8
tp415
a(I12
I7
tp416
a(I10
I6
tp417
a(I7
I5
tp418
a(I12
I11
tp419
a(I9
I6
tp420
a(I1
I2
tp421
a(I11
I7
tp422
a(I10
I7
tp423
ag410
a(I6
I3
tp424
a(I6
I2
tp425
a(I4
I3
tp426
a(I3
I4
tp427
a(I12
I8
tp428
atp429
Rp430
sg15
I13
sg28
g20
((lp431
(I2
I7
tp432
a(I12
I1
tp433
a(I9
I2
tp434
a(I2
I8
tp435
a(I5
I7
tp436
a(I10
I0
tp437
a(I1
I4
tp438
a(I0
I12
tp439
a(I7
I4
tp440
a(I10
I9
tp441
a(I4
I2
tp442
a(I11
I4
tp443
a(I11
I6
tp444
a(I1
I9
tp445
atp446
Rp447
sg13
((I9
I11
tp448
(I9
I10
tp449
(I4
I7
tp450
(I4
I12
tp451
(I7
I1
tp452
(I1
I8
tp453
(I1
I6
tp454
tp455
sg14
I13
sbs(iproblems
RoomID
p456
(dp457
g10
I10
sg11
(I6
I9
tp458
sg13
I5
sg14
I12
sg15
I12
sg16
I2685440357799139976
sb(imulti_robot_problem
MultiRobotState
p459
(dp460
g19
g20
((lp461
(I4
I10
tp462
ag458
a(I9
I1
tp463
a(I5
I11
tp464
a(I3
I0
tp465
a(I0
I7
tp466
a(I3
I9
tp467
a(I0
I5
tp468
a(I1
I4
tp469
a(I0
I3
tp470
a(I4
I0
tp471
a(I1
I2
tp472
a(I11
I10
tp473
a(I6
I10
tp474
a(I5
I6
tp475
a(I9
I11
tp476
a(I7
I9
tp477
a(I4
I5
tp478
a(I3
I5
tp479
a(I3
I4
tp480
a(I2
I4
tp481
a(I1
I9
tp482
atp483
Rp484
sg15
I12
sg28
g20
((lp485
(I11
I7
tp486
a(I8
I3
tp487
a(I10
I11
tp488
a(I7
I1
tp489
a(I10
I5
tp490
a(I8
I10
tp491
a(I6
I3
tp492
a(I3
I6
tp493
a(I9
I10
tp494
a(I6
I5
tp495
atp496
Rp497
sg13
((I7
I7
tp498
(I0
I0
tp499
(I11
I9
tp500
(I0
I2
tp501
(I4
I1
tp502
tp503
sg14
I12
sbs(iproblems
RoomID
p504
(dp505
g10
I11
sg11
(I11
I9
tp506
sg13
I7
sg14
I12
sg15
I12
sg16
I5891625650498269233
sb(imulti_robot_problem
MultiRobotState
p507
(dp508
g19
g20
((lp509
(I4
I4
tp510
a(I4
I8
tp511
a(I5
I6
tp512
a(I8
I11
tp513
ag506
a(I7
I7
tp514
a(I7
I1
tp515
a(I9
I10
tp516
a(I3
I9
tp517
a(I1
I9
tp518
a(I6
I7
tp519
a(I10
I7
tp520
a(I7
I6
tp521
a(I5
I7
tp522
a(I2
I11
tp523
a(I6
I11
tp524
a(I9
I11
tp525
a(I7
I10
tp526
a(I10
I9
tp527
atp528
Rp529
sg15
I12
sg28
g20
((lp530
(I11
I7
tp531
a(I11
I4
tp532
a(I4
I6
tp533
a(I5
I11
tp534
a(I8
I10
tp535
a(I0
I5
tp536
a(I8
I7
tp537
a(I1
I7
tp538
a(I10
I1
tp539
a(I1
I1
tp540
a(I5
I5
tp541
atp542
Rp543
sg13
((I6
I8
tp544
(I9
I2
tp545
(I0
I6
tp546
(I10
I3
tp547
(I9
I5
tp548
(I5
I0
tp549
(I9
I8
tp550
tp551
sg14
I12
sbssg121
S'heavy_roomset'
p552
sbsg121
g123
sg124
(dp553
g360
((lp554
F7.5799999999999272
tp555
sg408
((lp556
F302.61999999999989
tp557
sg456
((lp558
F179.88000000000011
tp559
sg504
((lp560
F55.949999999999818
tp561
ssba(imeasure_core
ProblemSetSolution
p562
(dp563
g3
(imeasure_core
RoomSet
p564
(dp565
g6
(dp566
S'complexRoom'
p567
(imulti_robot_problem
MultiRobotState
p568
(dp569
g19
g20
((lp570
(I2
I7
tp571
a(I7
I3
tp572
a(I6
I3
tp573
a(I3
I3
tp574
a(I7
I6
tp575
a(I7
I4
tp576
a(I7
I5
tp577
a(I2
I3
tp578
a(I4
I3
tp579
a(I2
I5
tp580
a(I2
I4
tp581
a(I5
I3
tp582
atp583
Rp584
sg15
I11
sg28
g20
((lp585
(I1
I0
tp586
a(I9
I0
tp587
atp588
Rp589
sg13
((I6
I4
tp590
(I1
I6
tp591
tp592
sg14
I8
sbsS'exampleProblem'
p593
(imulti_robot_problem
MultiRobotState
p594
(dp595
g19
g20
((lp596
tp597
Rp598
sg15
I5
sg28
g20
((lp599
(I1
I3
tp600
a(I3
I1
tp601
a(I1
I1
tp602
a(I3
I3
tp603
atp604
Rp605
sg13
((I2
I2
tp606
tp607
sg14
I5
sbsS'linear_test'
p608
(imulti_robot_problem
MultiRobotState
p609
(dp610
g19
g598
sg15
I12
sg28
g20
((lp611
(I11
I0
tp612
a(I1
I0
tp613
a(I9
I0
tp614
atp615
Rp616
sg13
((I3
I0
tp617
(I1
I2
tp618
tp619
sg14
I7
sbsS'obstacle_Far_CloseTest'
p620
(imulti_robot_problem
MultiRobotState
p621
(dp622
g19
g20
((lp623
(I0
I1
tp624
a(I7
I3
tp625
a(I3
I1
tp626
a(I7
I1
tp627
a(I4
I5
tp628
a(I7
I6
tp629
a(I4
I4
tp630
a(I2
I1
tp631
a(I7
I4
tp632
a(I7
I5
tp633
a(I4
I3
tp634
a(I4
I2
tp635
a(I4
I1
tp636
a(I1
I1
tp637
a(I7
I2
tp638
atp639
Rp640
sg15
I12
sg28
g20
((lp641
(I3
I2
tp642
a(I9
I6
tp643
atp644
Rp645
sg13
((I0
I0
tp646
(I6
I6
tp647
tp648
sg14
I7
sbsS'zigzag'
p649
(imulti_robot_problem
MultiRobotState
p650
(dp651
g19
g20
((lp652
(I1
I2
tp653
a(I3
I2
tp654
a(I1
I3
tp655
a(I3
I0
tp656
a(I3
I1
tp657
a(I5
I1
tp658
a(I5
I2
tp659
a(I1
I1
tp660
a(I5
I3
tp661
atp662
Rp663
sg15
I20
sg28
g20
((lp664
(I6
I3
tp665
atp666
Rp667
sg13
((I0
I3
tp668
(I19
I3
tp669
tp670
sg14
I4
sbsS'room1'
p671
(imulti_robot_problem
MultiRobotState
p672
(dp673
g19
g20
((lp674
(I6
I3
tp675
a(I7
I3
tp676
a(I8
I3
tp677
a(I2
I3
tp678
a(I3
I3
tp679
a(I4
I3
tp680
a(I5
I3
tp681
atp682
Rp683
sg15
I9
sg28
g20
((lp684
(I0
I0
tp685
a(I2
I1
tp686
atp687
Rp688
sg13
((I6
I1
tp689
(I6
I5
tp690
tp691
sg14
I6
sbsS'complexRoom2'
p692
(imulti_robot_problem
MultiRobotState
p693
(dp694
g19
g20
((lp695
(I7
I3
tp696
a(I1
I3
tp697
a(I7
I1
tp698
a(I4
I5
tp699
a(I9
I3
tp700
a(I5
I5
tp701
a(I2
I6
tp702
a(I2
I3
tp703
a(I5
I1
tp704
a(I0
I3
tp705
a(I10
I3
tp706
a(I2
I5
tp707
a(I6
I5
tp708
a(I5
I3
tp709
a(I2
I7
tp710
a(I8
I3
tp711
a(I3
I3
tp712
a(I5
I2
tp713
a(I7
I6
tp714
a(I3
I1
tp715
a(I6
I3
tp716
a(I7
I5
tp717
a(I4
I3
tp718
a(I3
I5
tp719
a(I4
I1
tp720
a(I6
I1
tp721
atp722
Rp723
sg15
I11
sg28
g20
((lp724
(I7
I2
tp725
a(I0
I7
tp726
atp727
Rp728
sg13
((I1
I2
tp729
(I3
I6
tp730
tp731
sg14
I8
sbsS'zigzagUpright'
p732
(imulti_robot_problem
MultiRobotState
p733
(dp734
g19
g20
((lp735
(I1
I3
tp736
a(I3
I1
tp737
a(I2
I1
tp738
a(I1
I1
tp739
a(I1
I5
tp740
a(I2
I3
tp741
a(I2
I5
tp742
a(I0
I3
tp743
a(I3
I5
tp744
atp745
Rp746
sg15
I4
sg28
g20
((lp747
(I3
I6
tp748
atp749
Rp750
sg13
((I3
I0
tp751
(I3
I19
tp752
tp753
sg14
I20
sbsS'ivansRevenge'
p754
(imulti_robot_problem
MultiRobotState
p755
(dp756
g19
g598
sg15
I10
sg28
g20
((lp757
(I9
I2
tp758
a(I0
I0
tp759
atp760
Rp761
sg13
((I9
I0
tp762
(I0
I2
tp763
tp764
sg14
I3
sbsS'roomLongWithObstaccle'
p765
(imulti_robot_problem
MultiRobotState
p766
(dp767
g19
g20
((lp768
(I0
I1
tp769
a(I12
I1
tp770
a(I9
I1
tp771
a(I7
I1
tp772
a(I8
I1
tp773
a(I6
I1
tp774
a(I3
I1
tp775
a(I2
I1
tp776
a(I11
I1
tp777
a(I10
I1
tp778
a(I5
I1
tp779
a(I4
I1
tp780
a(I1
I1
tp781
atp782
Rp783
sg15
I15
sg28
g20
((lp784
(I0
I2
tp785
a(I14
I6
tp786
atp787
Rp788
sg13
((I0
I0
tp789
(I0
I6
tp790
tp791
sg14
I7
sbsS'twoRobotsInOpCorners'
p792
(imulti_robot_problem
MultiRobotState
p793
(dp794
g19
g598
sg15
I5
sg28
g20
((lp795
(I0
I0
tp796
a(I4
I4
tp797
atp798
Rp799
sg13
((I3
I0
tp800
(I0
I3
tp801
tp802
sg14
I5
sbsS'split2'
p803
(imulti_robot_problem
MultiRobotState
p804
(dp805
g19
g598
sg15
I10
sg28
g20
((lp806
(I0
I9
tp807
a(I9
I0
tp808
a(I0
I0
tp809
a(I9
I9
tp810
atp811
Rp812
sg13
((I1
I1
tp813
(I8
I1
tp814
(I4
I5
tp815
(I5
I5
tp816
tp817
sg14
I10
sbsS'split3'
p818
(imulti_robot_problem
MultiRobotState
p819
(dp820
g19
g598
sg15
I10
sg28
g20
((lp821
(I0
I9
tp822
a(I9
I0
tp823
a(I0
I0
tp824
a(I9
I9
tp825
atp826
Rp827
sg13
((I1
I1
tp828
(I8
I1
tp829
(I1
I7
tp830
(I7
I7
tp831
tp832
sg14
I10
sbsS'gaintRoom'
p833
(imulti_robot_problem
MultiRobotState
p834
(dp835
g19
g598
sg15
I5
sg28
g20
((lp836
(I4
I0
tp837
a(I4
I4
tp838
a(I0
I4
tp839
atp840
Rp841
sg13
((I0
I0
tp842
tp843
sg14
I5
sbsS'gaintRoomWithWall'
p844
(imulti_robot_problem
MultiRobotState
p845
(dp846
g19
g20
((lp847
(I2
I4
tp848
atp849
Rp850
sg15
I5
sg28
g20
((lp851
(I4
I0
tp852
a(I4
I4
tp853
a(I0
I4
tp854
atp855
Rp856
sg13
((I0
I0
tp857
tp858
sg14
I5
sbsS'split'
p859
(imulti_robot_problem
MultiRobotState
p860
(dp861
g19
g598
sg15
I10
sg28
g20
((lp862
(I0
I9
tp863
a(I9
I0
tp864
a(I0
I0
tp865
a(I9
I9
tp866
atp867
Rp868
sg13
((I4
I4
tp869
(I5
I4
tp870
(I4
I5
tp871
(I5
I5
tp872
tp873
sg14
I10
sbsS'twoRobots'
p874
(imulti_robot_problem
MultiRobotState
p875
(dp876
g19
g598
sg15
I9
sg28
g20
((lp877
(I8
I0
tp878
a(I0
I0
tp879
atp880
Rp881
sg13
((I2
I0
tp882
(I0
I3
tp883
tp884
sg14
I4
sbssg121
S'static_rooms'
p885
sbsg121
g123
sg124
(dp886
g803
((lp887
F0.25
tp888
sg818
((lp889
F0.13000000000010914
tp890
sg567
((lp891
F0.029999999999745341
tp892
sg833
((lp893
F0.019999999999527063
tp894
sg593
((lp895
F0.010000000000218279
tp896
sg608
((lp897
F0.010000000000218279
tp898
sg620
((lp899
F21.389999999999418
tp900
sg874
((lp901
F0.010000000000218279
tp902
sg844
((lp903
F0.030000000000654836
tp904
sg649
((lp905
F1.4900000000006912
tp906
sg671
((lp907
F0.009999999999308784
tp908
sg692
((lp909
F6.8900000000003274
tp910
sg732
((lp911
F2.8299999999999272
tp912
sg754
((lp913
F0.0
tp914
sg765
((lp915
F11.380000000000109
tp916
sg792
((lp917
F0.010000000000218279
tp918
sg859
((lp919
F0.25999999999930878
tp920
ssba.