(lp0
(imeasure_core
ProblemSetSolution
p1
(dp2
S'roomset'
p3
(imeasure_core
RoomSet
p4
(dp5
S'rooms'
p6
(dp7
(iproblems
RoomID
p8
(dp9
S'dusts'
p10
I10
sS'obstacles'
p11
(I0
I8
tp12
sS'robots'
p13
I4
sS'height'
p14
I10
sS'width'
p15
I9
sS'seed'
p16
I4712128852136459333
sb(imulti_robot_problem
MultiRobotState
p17
(dp18
S'obstacle_locations'
p19
c__builtin__
frozenset
p20
((lp21
(I0
I6
tp22
ag12
a(I2
I3
tp23
a(I1
I5
tp24
a(I8
I0
tp25
a(I1
I1
tp26
a(I0
I7
tp27
atp28
Rp29
sg15
I9
sS'dirt_locations'
p30
g20
((lp31
(I4
I7
tp32
a(I1
I3
tp33
a(I4
I9
tp34
a(I8
I1
tp35
a(I7
I6
tp36
a(I2
I6
tp37
a(I8
I7
tp38
a(I2
I2
tp39
a(I4
I1
tp40
a(I2
I4
tp41
atp42
Rp43
sg13
((I5
I8
tp44
(I6
I9
tp45
(I5
I0
tp46
(I3
I1
tp47
tp48
sg14
I10
sbs(iproblems
RoomID
p49
(dp50
g10
I9
sg11
(I3
I4
tp51
sg13
I1
sg14
I7
sg15
I8
sg16
I6613812840851947673
sb(imulti_robot_problem
MultiRobotState
p52
(dp53
g19
g20
((lp54
(I3
I5
tp55
ag51
a(I2
I4
tp56
a(I2
I1
tp57
a(I1
I4
tp58
atp59
Rp60
sg15
I8
sg30
g20
((lp61
(I6
I4
tp62
a(I5
I4
tp63
a(I6
I0
tp64
a(I7
I5
tp65
a(I1
I6
tp66
a(I2
I2
tp67
a(I0
I5
tp68
a(I4
I1
tp69
a(I4
I0
tp70
atp71
Rp72
sg13
((I3
I1
tp73
tp74
sg14
I7
sbs(iproblems
RoomID
p75
(dp76
g10
I10
sg11
(I4
I5
tp77
sg13
I1
sg14
I8
sg15
I8
sg16
I2893396244277848635
sb(imulti_robot_problem
MultiRobotState
p78
(dp79
g19
g20
((lp80
g77
a(I3
I7
tp81
a(I2
I6
tp82
a(I4
I6
tp83
atp84
Rp85
sg15
I8
sg30
g20
((lp86
(I6
I4
tp87
a(I0
I0
tp88
a(I6
I7
tp89
a(I3
I0
tp90
a(I2
I1
tp91
a(I0
I6
tp92
a(I7
I2
tp93
a(I2
I4
tp94
a(I6
I5
tp95
a(I5
I3
tp96
atp97
Rp98
sg13
((I2
I3
tp99
tp100
sg14
I8
sbs(iproblems
RoomID
p101
(dp102
g10
I9
sg11
(I5
I3
tp103
sg13
I3
sg14
I7
sg15
I8
sg16
I4594210616595436404
sb(imulti_robot_problem
MultiRobotState
p104
(dp105
g19
g20
((lp106
(I0
I1
tp107
a(I3
I3
tp108
a(I4
I3
tp109
a(I4
I2
tp110
a(I6
I1
tp111
ag103
atp112
Rp113
sg15
I8
sg30
g20
((lp114
(I6
I6
tp115
a(I5
I6
tp116
a(I4
I4
tp117
a(I1
I4
tp118
a(I0
I6
tp119
a(I5
I1
tp120
a(I1
I0
tp121
a(I0
I3
tp122
a(I1
I1
tp123
atp124
Rp125
sg13
((I2
I1
tp126
(I3
I4
tp127
(I3
I6
tp128
tp129
sg14
I7
sbs(iproblems
RoomID
p130
(dp131
g10
I10
sg11
(I4
I8
tp132
sg13
I4
sg14
I10
sg15
I7
sg16
I956523682424107605
sb(imulti_robot_problem
MultiRobotState
p133
(dp134
g19
g20
((lp135
(I2
I8
tp136
ag132
a(I3
I7
tp137
a(I2
I9
tp138
a(I4
I2
tp139
atp140
Rp141
sg15
I7
sg30
g20
((lp142
(I5
I9
tp143
a(I4
I7
tp144
a(I1
I3
tp145
a(I3
I3
tp146
a(I5
I5
tp147
a(I6
I1
tp148
a(I5
I4
tp149
a(I0
I4
tp150
a(I5
I2
tp151
a(I5
I3
tp152
atp153
Rp154
sg13
((I1
I9
tp155
(I4
I9
tp156
(I1
I8
tp157
(I0
I3
tp158
tp159
sg14
I10
sbssS'name'
p160
S'easy_roomset'
p161
sbsg160
S"AnytimeBeam-w20-gf(1.3, 'exp')_with_PowerHeuristic2"
p162
sS'solutions'
p163
(dp164
g8
((lp165
(F2.8999999999978172
I51
tp166
aF40.459999999999127
tp167
sg49
((lp168
(F0.069999999999708962
I36
tp169
a(F2.8999999999978172
I30
tp170
a(F3.6299999999973807
I29
tp171
a(F8.5599999999976717
I28
tp172
a(F14.909999999999854
I27
tp173
a(F27.25
I26
tp174
a(F37.719999999997526
I25
tp175
aF40.0
tp176
sg75
((lp177
(F0.39999999999781721
I63
tp178
a(F1.4099999999998545
I61
tp179
a(F3.9899999999979627
I57
tp180
a(F4.9500000000007276
I56
tp181
a(F6.1699999999982538
I54
tp182
a(F7.3400000000001455
I52
tp183
a(F9.3400000000001455
I51
tp184
a(F12.279999999998836
I50
tp185
a(F15.200000000000728
I48
tp186
a(F18.270000000000437
I46
tp187
a(F21.419999999998254
I44
tp188
a(F30.229999999999563
I43
tp189
a(F38.529999999998836
I42
tp190
aF40.0
tp191
sg101
((lp192
(F1.2399999999979627
I31
tp193
a(F7.4599999999991269
I29
tp194
a(F9.2700000000004366
I26
tp195
aF40.029999999998836
tp196
sg130
((lp197
(F0.34000000000014552
I10
tp198
aF40.06000000000131
tp199
ssba(imeasure_core
ProblemSetSolution
p200
(dp201
g3
(imeasure_core
RoomSet
p202
(dp203
g6
(dp204
(iproblems
RoomID
p205
(dp206
g10
I10
sg11
(I8
I7
tp207
sg13
I4
sg14
I12
sg15
I11
sg16
I4712128852136459333
sb(imulti_robot_problem
MultiRobotState
p208
(dp209
g19
g20
((lp210
(I6
I4
tp211
a(I4
I7
tp212
ag207
a(I4
I5
tp213
a(I3
I11
tp214
a(I0
I7
tp215
a(I7
I7
tp216
a(I1
I6
tp217
a(I1
I9
tp218
a(I2
I10
tp219
a(I4
I2
tp220
a(I1
I11
tp221
a(I6
I5
tp222
a(I5
I3
tp223
a(I9
I0
tp224
a(I0
I8
tp225
a(I5
I5
tp226
a(I7
I6
tp227
a(I3
I1
tp228
a(I2
I11
tp229
a(I0
I9
tp230
a(I2
I3
tp231
a(I4
I1
tp232
a(I1
I1
tp233
atp234
Rp235
sg15
I11
sg30
g20
((lp236
(I2
I7
tp237
a(I9
I1
tp238
a(I9
I8
tp239
a(I5
I1
tp240
a(I2
I5
tp241
a(I9
I7
tp242
a(I3
I4
tp243
a(I2
I4
tp244
a(I5
I8
tp245
a(I3
I3
tp246
atp247
Rp248
sg13
((I6
I10
tp249
(I8
I10
tp250
(I7
I0
tp251
(I5
I11
tp252
tp253
sg14
I12
sbs(iproblems
RoomID
p254
(dp255
g10
I9
sg11
(I4
I4
tp256
sg13
I3
sg14
I9
sg15
I10
sg16
I4594210616595436404
sb(imulti_robot_problem
MultiRobotState
p257
(dp258
g19
g20
((lp259
(I1
I3
tp260
a(I3
I0
tp261
a(I2
I1
tp262
a(I1
I6
tp263
a(I9
I4
tp264
a(I3
I7
tp265
a(I0
I3
tp266
a(I1
I2
tp267
a(I5
I5
tp268
a(I1
I5
tp269
a(I7
I6
tp270
ag256
a(I6
I3
tp271
a(I5
I6
tp272
a(I3
I6
tp273
a(I0
I4
tp274
a(I8
I6
tp275
a(I3
I5
tp276
a(I1
I1
tp277
a(I5
I4
tp278
a(I4
I5
tp279
a(I0
I5
tp280
a(I5
I3
tp281
a(I0
I1
tp282
a(I5
I2
tp283
a(I0
I6
tp284
a(I2
I0
tp285
a(I1
I8
tp286
a(I2
I3
tp287
a(I9
I5
tp288
a(I3
I4
tp289
a(I0
I2
tp290
atp291
Rp292
sg15
I10
sg30
g20
((lp293
(I7
I8
tp294
a(I7
I0
tp295
a(I6
I8
tp296
a(I2
I8
tp297
a(I8
I8
tp298
a(I0
I8
tp299
a(I8
I5
tp300
a(I5
I8
tp301
a(I8
I2
tp302
atp303
Rp304
sg13
((I4
I6
tp305
(I2
I5
tp306
(I6
I1
tp307
tp308
sg14
I9
sbs(iproblems
RoomID
p309
(dp310
g10
I5
sg11
(I4
I9
tp311
sg13
I4
sg14
I11
sg15
I11
sg16
I1881095652490078568
sb(imulti_robot_problem
MultiRobotState
p312
(dp313
g19
g20
((lp314
(I6
I9
tp315
a(I6
I6
tp316
a(I4
I5
tp317
a(I2
I8
tp318
a(I9
I3
tp319
a(I4
I7
tp320
a(I7
I5
tp321
a(I5
I4
tp322
ag311
a(I6
I5
tp323
a(I3
I5
tp324
a(I7
I4
tp325
a(I1
I7
tp326
a(I6
I7
tp327
a(I4
I6
tp328
a(I7
I6
tp329
a(I4
I4
tp330
a(I8
I10
tp331
a(I6
I3
tp332
a(I7
I10
tp333
a(I2
I2
tp334
a(I4
I8
tp335
a(I7
I8
tp336
a(I1
I1
tp337
a(I8
I4
tp338
atp339
Rp340
sg15
I11
sg30
g20
((lp341
(I1
I10
tp342
a(I5
I9
tp343
a(I0
I0
tp344
a(I10
I2
tp345
a(I9
I7
tp346
atp347
Rp348
sg13
((I5
I7
tp349
(I8
I1
tp350
(I3
I1
tp351
(I8
I8
tp352
tp353
sg14
I11
sbs(iproblems
RoomID
p354
(dp355
g10
I8
sg11
(I5
I0
tp356
sg13
I4
sg14
I9
sg15
I9
sg16
I6858376947525423350
sb(imulti_robot_problem
MultiRobotState
p357
(dp358
g19
g20
((lp359
(I6
I4
tp360
a(I4
I7
tp361
a(I1
I3
tp362
a(I4
I3
tp363
a(I7
I1
tp364
a(I3
I0
tp365
a(I2
I8
tp366
a(I6
I0
tp367
a(I2
I1
tp368
a(I1
I6
tp369
a(I5
I1
tp370
a(I2
I5
tp371
a(I0
I8
tp372
a(I7
I2
tp373
a(I2
I7
tp374
a(I3
I8
tp375
a(I5
I5
tp376
a(I6
I1
tp377
a(I5
I7
tp378
a(I6
I3
tp379
a(I1
I8
tp380
ag356
a(I2
I2
tp381
a(I2
I3
tp382
a(I3
I4
tp383
a(I2
I4
tp384
atp385
Rp386
sg15
I9
sg30
g20
((lp387
(I8
I3
tp388
a(I7
I0
tp389
a(I4
I6
tp390
a(I6
I6
tp391
a(I7
I5
tp392
a(I8
I0
tp393
a(I8
I8
tp394
a(I8
I4
tp395
atp396
Rp397
sg13
((I1
I1
tp398
(I6
I5
tp399
(I8
I2
tp400
(I1
I5
tp401
tp402
sg14
I9
sbs(iproblems
RoomID
p403
(dp404
g10
I6
sg11
(I8
I8
tp405
sg13
I4
sg14
I11
sg15
I12
sg16
I7529058068588108450
sb(imulti_robot_problem
MultiRobotState
p406
(dp407
g19
g20
((lp408
(I5
I9
tp409
a(I6
I9
tp410
a(I2
I6
tp411
a(I3
I2
tp412
a(I9
I1
tp413
a(I4
I10
tp414
a(I6
I6
tp415
a(I7
I7
tp416
a(I7
I1
tp417
a(I4
I6
tp418
a(I10
I4
tp419
a(I7
I5
tp420
a(I6
I8
tp421
a(I3
I7
tp422
a(I5
I8
tp423
a(I8
I2
tp424
a(I5
I5
tp425
a(I7
I6
tp426
a(I4
I4
tp427
a(I7
I4
tp428
a(I1
I5
tp429
ag405
a(I7
I2
tp430
a(I3
I6
tp431
a(I2
I2
tp432
a(I1
I10
tp433
a(I7
I8
tp434
a(I3
I10
tp435
atp436
Rp437
sg15
I12
sg30
g20
((lp438
(I7
I3
tp439
a(I0
I5
tp440
a(I4
I0
tp441
a(I11
I3
tp442
a(I11
I6
tp443
a(I6
I0
tp444
atp445
Rp446
sg13
((I11
I7
tp447
(I6
I2
tp448
(I11
I5
tp449
(I6
I7
tp450
tp451
sg14
I11
sbssg160
S'mild_roomset'
p452
sbsg160
g162
sg163
(dp453
g205
((lp454
(F1.2099999999991269
I23
tp455
aF40.259999999998399
tp456
sg254
((lp457
F40.0
tp458
sg309
((lp459
(F0.18000000000029104
I7
tp460
aF40.119999999998981
tp461
sg354
((lp462
(F0.30000000000291038
I16
tp463
aF40.0
tp464
sg403
((lp465
(F0.81000000000130967
I33
tp466
aF40.25
tp467
ssba(imeasure_core
ProblemSetSolution
p468
(dp469
g3
(imeasure_core
RoomSet
p470
(dp471
g6
(dp472
(iproblems
RoomID
p473
(dp474
g10
I15
sg11
(I5
I9
tp475
sg13
I7
sg14
I13
sg15
I12
sg16
I4712128852136459333
sb(imulti_robot_problem
MultiRobotState
p476
(dp477
g19
g20
((lp478
g475
a(I4
I9
tp479
a(I5
I5
tp480
a(I4
I12
tp481
a(I2
I8
tp482
a(I3
I1
tp483
a(I3
I9
tp484
a(I9
I4
tp485
a(I1
I7
tp486
a(I1
I10
tp487
a(I3
I12
tp488
a(I0
I8
tp489
a(I5
I2
tp490
atp491
Rp492
sg15
I12
sg30
g20
((lp493
(I6
I9
tp494
a(I3
I3
tp495
a(I1
I12
tp496
a(I5
I6
tp497
a(I7
I7
tp498
a(I3
I5
tp499
a(I3
I8
tp500
a(I8
I8
tp501
a(I10
I0
tp502
a(I2
I5
tp503
a(I10
I2
tp504
a(I3
I4
tp505
a(I1
I1
tp506
a(I5
I8
tp507
a(I9
I7
tp508
atp509
Rp510
sg13
((I6
I11
tp511
(I8
I11
tp512
(I7
I0
tp513
(I4
I1
tp514
(I6
I12
tp515
(I10
I9
tp516
(I6
I1
tp517
tp518
sg14
I13
sbs(iproblems
RoomID
p519
(dp520
g10
I14
sg11
(I5
I5
tp521
sg13
I5
sg14
I10
sg15
I11
sg16
I6613812840851947673
sb(imulti_robot_problem
MultiRobotState
p522
(dp523
g19
g20
((lp524
(I4
I7
tp525
a(I2
I6
tp526
a(I6
I6
tp527
a(I4
I5
tp528
a(I7
I5
tp529
a(I1
I6
tp530
a(I8
I7
tp531
a(I3
I7
tp532
a(I10
I3
tp533
a(I3
I5
tp534
a(I10
I8
tp535
a(I6
I3
tp536
ag521
a(I8
I5
tp537
a(I7
I4
tp538
a(I3
I8
tp539
a(I0
I6
tp540
a(I3
I6
tp541
a(I1
I3
tp542
a(I8
I6
tp543
a(I2
I4
tp544
atp545
Rp546
sg15
I11
sg30
g20
((lp547
(I6
I4
tp548
a(I3
I2
tp549
a(I4
I6
tp550
a(I4
I9
tp551
a(I3
I3
tp552
a(I9
I8
tp553
a(I8
I0
tp554
a(I8
I8
tp555
a(I5
I0
tp556
a(I1
I0
tp557
a(I8
I4
tp558
a(I5
I2
tp559
a(I6
I1
tp560
a(I9
I7
tp561
atp562
Rp563
sg13
((I5
I1
tp564
(I0
I8
tp565
(I2
I9
tp566
(I4
I1
tp567
(I7
I6
tp568
tp569
sg14
I10
sbs(iproblems
RoomID
p570
(dp571
g10
I15
sg11
(I6
I6
tp572
sg13
I5
sg14
I11
sg15
I11
sg16
I2893396244277848635
sb(imulti_robot_problem
MultiRobotState
p573
(dp574
g19
g20
((lp575
(I7
I3
tp576
a(I4
I7
tp577
a(I5
I5
tp578
a(I4
I8
tp579
a(I5
I6
tp580
a(I2
I8
tp581
ag572
a(I3
I2
tp582
a(I3
I9
tp583
a(I4
I3
tp584
a(I1
I7
tp585
a(I6
I9
tp586
atp587
Rp588
sg15
I11
sg30
g20
((lp589
(I2
I6
tp590
a(I8
I7
tp591
a(I3
I10
tp592
a(I3
I1
tp593
a(I2
I10
tp594
a(I0
I5
tp595
a(I6
I5
tp596
a(I3
I6
tp597
a(I8
I6
tp598
a(I4
I0
tp599
a(I3
I7
tp600
a(I7
I9
tp601
a(I4
I1
tp602
a(I5
I8
tp603
a(I5
I3
tp604
atp605
Rp606
sg13
((I4
I5
tp607
(I0
I9
tp608
(I0
I1
tp609
(I9
I2
tp610
(I8
I10
tp611
tp612
sg14
I11
sbs(iproblems
RoomID
p613
(dp614
g10
I15
sg11
(I4
I8
tp615
sg13
I6
sg14
I13
sg15
I10
sg16
I956523682424107605
sb(imulti_robot_problem
MultiRobotState
p616
(dp617
g19
g20
((lp618
(I5
I9
tp619
a(I6
I9
tp620
a(I7
I10
tp621
ag615
a(I5
I6
tp622
a(I3
I11
tp623
a(I9
I4
tp624
a(I4
I9
tp625
a(I5
I8
tp626
a(I2
I7
tp627
a(I5
I10
tp628
a(I5
I5
tp629
a(I3
I10
tp630
a(I5
I7
tp631
a(I9
I9
tp632
a(I5
I0
tp633
a(I7
I8
tp634
a(I1
I1
tp635
atp636
Rp637
sg15
I10
sg30
g20
((lp638
(I6
I10
tp639
a(I8
I3
tp640
a(I1
I3
tp641
a(I6
I6
tp642
a(I7
I6
tp643
a(I8
I12
tp644
a(I5
I4
tp645
a(I1
I4
tp646
a(I2
I10
tp647
a(I7
I4
tp648
a(I1
I5
tp649
a(I7
I5
tp650
a(I0
I9
tp651
a(I7
I11
tp652
a(I6
I2
tp653
atp654
Rp655
sg13
((I1
I12
tp656
(I6
I12
tp657
(I2
I11
tp658
(I0
I4
tp659
(I9
I1
tp660
(I7
I7
tp661
tp662
sg14
I13
sbs(iproblems
RoomID
p663
(dp664
g10
I13
sg11
(I1
I6
tp665
sg13
I7
sg14
I10
sg15
I10
sg16
I6858376947525423350
sb(imulti_robot_problem
MultiRobotState
p666
(dp667
g19
g20
((lp668
(I4
I7
tp669
a(I1
I3
tp670
a(I2
I8
tp671
a(I2
I2
tp672
a(I2
I1
tp673
a(I2
I3
tp674
a(I9
I5
tp675
a(I2
I5
tp676
a(I2
I7
tp677
a(I2
I9
tp678
a(I8
I1
tp679
ag665
a(I1
I7
tp680
a(I0
I9
tp681
a(I8
I6
tp682
a(I2
I4
tp683
atp684
Rp685
sg15
I10
sg30
g20
((lp686
(I8
I0
tp687
a(I4
I9
tp688
a(I3
I3
tp689
a(I3
I0
tp690
a(I7
I6
tp691
a(I5
I7
tp692
a(I9
I9
tp693
a(I4
I4
tp694
a(I6
I2
tp695
a(I9
I4
tp696
a(I8
I5
tp697
a(I5
I8
tp698
a(I5
I3
tp699
atp700
Rp701
sg13
((I1
I2
tp702
(I7
I5
tp703
(I7
I2
tp704
(I9
I2
tp705
(I1
I5
tp706
(I9
I0
tp707
(I6
I6
tp708
tp709
sg14
I10
sbssg160
S'heavy_roomset'
p710
sbsg160
g162
sg163
(dp711
g473
((lp712
F44.520000000000437
tp713
sg519
((lp714
F40.540000000000873
tp715
sg570
((lp716
(F7.9000000000014552
I27
tp717
aF40.020000000000437
tp718
sg613
((lp719
(F11.380000000001019
I10
tp720
aF41.459999999999127
tp721
sg663
((lp722
(F31.850000000002183
I14
tp723
aF44.709999999999127
tp724
ssba(imeasure_core
ProblemSetSolution
p725
(dp726
g3
g4
sg160
S"AnytimeBeam-w20-gf(1.5, 'exp')_with_PowerHeuristic2"
p727
sg163
(dp728
g8
((lp729
(F2.9199999999982538
I51
tp730
aF40.110000000000582
tp731
sg49
((lp732
(F0.079999999998108251
I36
tp733
a(F2.1599999999998545
I30
tp734
a(F2.8999999999978172
I29
tp735
a(F7.8400000000001455
I28
tp736
a(F14.229999999999563
I27
tp737
a(F26.569999999999709
I26
tp738
a(F37.059999999997672
I25
tp739
aF40.0
tp740
sg75
((lp741
(F0.46999999999752617
I63
tp742
a(F0.84999999999854481
I61
tp743
a(F2.6599999999998545
I57
tp744
a(F3.5999999999985448
I56
tp745
a(F4.8499999999985448
I54
tp746
a(F6.0099999999983993
I52
tp747
a(F8.0099999999983993
I51
tp748
a(F10.93999999999869
I50
tp749
a(F13.869999999998981
I48
tp750
a(F16.930000000000291
I46
tp751
a(F20.049999999999272
I44
tp752
a(F28.909999999999854
I43
tp753
a(F37.239999999997963
I42
tp754
aF40.0
tp755
sg101
((lp756
(F1.2299999999995634
I31
tp757
a(F6.0099999999983993
I26
tp758
aF40.049999999999272
tp759
sg130
((lp760
(F0.34000000000014552
I10
tp761
aF40.319999999999709
tp762
ssba(imeasure_core
ProblemSetSolution
p763
(dp764
g3
g202
sg160
g727
sg163
(dp765
g205
((lp766
(F1.2200000000011642
I23
tp767
aF40.270000000000437
tp768
sg254
((lp769
F40.130000000001019
tp770
sg309
((lp771
(F0.16999999999825377
I7
tp772
aF40.019999999996799
tp773
sg354
((lp774
(F0.31000000000130967
I16
tp775
aF40.110000000000582
tp776
sg403
((lp777
(F0.83000000000174623
I33
tp778
aF40.139999999999418
tp779
ssba(imeasure_core
ProblemSetSolution
p780
(dp781
g3
g470
sg160
g727
sg163
(dp782
g473
((lp783
F44.55000000000291
tp784
sg519
((lp785
F40.219999999997526
tp786
sg570
((lp787
(F7.8800000000010186
I27
tp788
aF40.159999999999854
tp789
sg613
((lp790
(F11.409999999999854
I10
tp791
aF41.830000000001746
tp792
sg663
((lp793
(F31.790000000000873
I14
tp794
aF44.729999999999563
tp795
ssba(imeasure_core
ProblemSetSolution
p796
(dp797
g3
g4
sg160
S"AnytimeBeam-w20-gf(1.7, 'exp')_with_PowerHeuristic2"
p798
sg163
(dp799
g8
((lp800
(F2.930000000000291
I51
tp801
aF40.010000000002037
tp802
sg49
((lp803
(F0.069999999999708962
I36
tp804
a(F1.7000000000007276
I30
tp805
a(F2.4399999999986903
I29
tp806
a(F7.3800000000010186
I28
tp807
a(F13.770000000000437
I27
tp808
a(F26.099999999998545
I26
tp809
a(F36.579999999998108
I25
tp810
aF40.0
tp811
sg75
((lp812
(F0.47000000000116415
I63
tp813
a(F0.81999999999970896
I61
tp814
a(F1.7999999999992724
I57
tp815
a(F2.7099999999991269
I56
tp816
a(F3.9399999999986903
I54
tp817
a(F5.0900000000001455
I52
tp818
a(F7.069999999999709
I51
tp819
a(F9.9899999999979627
I50
tp820
a(F12.909999999999854
I48
tp821
a(F15.970000000001164
I46
tp822
a(F19.130000000001019
I44
tp823
a(F28.0
I43
tp824
a(F36.389999999999418
I42
tp825
aF40.0
tp826
sg101
((lp827
(F1.2399999999979627
I31
tp828
a(F4.4599999999991269
I29
tp829
a(F6.3699999999989814
I26
tp830
aF40.0
tp831
sg130
((lp832
(F0.34999999999854481
I10
tp833
aF40.200000000000728
tp834
ssba(imeasure_core
ProblemSetSolution
p835
(dp836
g3
g202
sg160
g798
sg163
(dp837
g205
((lp838
(F1.2099999999991269
I23
tp839
aF40.279999999998836
tp840
sg254
((lp841
F40.119999999998981
tp842
sg309
((lp843
(F0.17000000000189175
I7
tp844
aF40.0
tp845
sg354
((lp846
(F0.31000000000130967
I16
tp847
aF40.069999999999709
tp848
sg403
((lp849
(F0.83000000000174623
I33
tp850
aF40.080000000001746
tp851
ssba(imeasure_core
ProblemSetSolution
p852
(dp853
g3
g470
sg160
g798
sg163
(dp854
g473
((lp855
F44.710000000002765
tp856
sg519
((lp857
F40.349999999998545
tp858
sg570
((lp859
(F7.8899999999994179
I27
tp860
aF40.139999999999418
tp861
sg613
((lp862
(F11.369999999998981
I10
tp863
aF40.650000000001455
tp864
sg663
((lp865
(F31.829999999998108
I14
tp866
aF44.729999999999563
tp867
ssba(imeasure_core
ProblemSetSolution
p868
(dp869
g3
g4
sg160
S"AnytimeBeam-w20-gf(1.8999999999999999, 'exp')_with_PowerHeuristic2"
p870
sg163
(dp871
g8
((lp872
(F2.9099999999998545
I51
tp873
aF40.369999999998981
tp874
sg49
((lp875
(F0.08000000000174623
I36
tp876
a(F1.7799999999988358
I30
tp877
a(F2.5100000000020373
I29
tp878
a(F7.4200000000018917
I28
tp879
a(F13.760000000002037
I27
tp880
a(F26.010000000002037
I26
tp881
a(F36.459999999999127
I25
tp882
aF40.0
tp883
sg75
((lp884
(F0.47999999999956344
I63
tp885
a(F0.84000000000014552
I61
tp886
a(F1.8300000000017462
I57
tp887
a(F2.7600000000020373
I56
tp888
a(F3.9799999999995634
I54
tp889
a(F5.1399999999994179
I52
tp890
a(F7.1399999999994179
I51
tp891
a(F10.080000000001746
I50
tp892
a(F13.0
I48
tp893
a(F16.06000000000131
I46
tp894
a(F19.209999999999127
I44
tp895
a(F28.069999999999709
I43
tp896
a(F36.369999999998981
I42
tp897
aF40.0
tp898
sg101
((lp899
(F1.2299999999995634
I31
tp900
a(F4.5900000000001455
I26
tp901
aF40.06000000000131
tp902
sg130
((lp903
(F0.34000000000014552
I10
tp904
aF40.219999999997526
tp905
ssba(imeasure_core
ProblemSetSolution
p906
(dp907
g3
g202
sg160
g870
sg163
(dp908
g205
((lp909
(F1.2099999999991269
I23
tp910
aF40.180000000000291
tp911
sg254
((lp912
F40.139999999999418
tp913
sg309
((lp914
(F0.16999999999825377
I7
tp915
aF40.0
tp916
sg354
((lp917
(F0.31000000000130967
I16
tp918
aF40.069999999999709
tp919
sg403
((lp920
(F0.81000000000130967
I33
tp921
aF40.090000000000146
tp922
ssba(imeasure_core
ProblemSetSolution
p923
(dp924
g3
g470
sg160
g870
sg163
(dp925
g473
((lp926
F44.520000000000437
tp927
sg519
((lp928
F40.31000000000131
tp929
sg570
((lp930
(F7.8999999999978172
I27
tp931
aF40.069999999999709
tp932
sg613
((lp933
(F11.319999999999709
I10
tp934
aF41.559999999997672
tp935
sg663
((lp936
(F31.729999999999563
I14
tp937
aF44.720000000001164
tp938
ssba(imeasure_core
ProblemSetSolution
p939
(dp940
g3
g4
sg160
S"AnytimeBeam-w20-gf(1.3, 'exp')_with_LinearHeuristic"
p941
sg163
(dp942
g8
((lp943
F40.079999999998108
tp944
sg49
((lp945
(F0.020000000000436557
I25
tp946
aF40.0
tp947
sg75
((lp948
(F0.030000000002473826
I32
tp949
a(F1.3200000000033469
I30
tp950
aF40.0
tp951
sg101
((lp952
(F0.18000000000029104
I8
tp953
aF40.0
tp954
sg130
((lp955
(F38.710000000002765
I286
tp956
aF40.030000000002474
tp957
ssba(imeasure_core
ProblemSetSolution
p958
(dp959
g3
g202
sg160
g941
sg163
(dp960
g205
((lp961
F40.169999999998254
tp962
sg254
((lp963
(F1.7000000000007276
I50
tp964
a(F19.590000000000146
I49
tp965
a(F31.780000000002474
I48
tp966
aF40.020000000000437
tp967
sg309
((lp968
(F0.49000000000160071
I7
tp969
aF40.350000000002183
tp970
sg354
((lp971
F40.029999999998836
tp972
sg403
((lp973
F40.180000000000291
tp974
ssba(imeasure_core
ProblemSetSolution
p975
(dp976
g3
g470
sg160
g941
sg163
(dp977
g473
((lp978
F41.56000000000131
tp979
sg519
((lp980
F40.419999999998254
tp981
sg570
((lp982
F40.06000000000131
tp983
sg613
((lp984
F40.220000000001164
tp985
sg663
((lp986
F40.079999999998108
tp987
ssba(imeasure_core
ProblemSetSolution
p988
(dp989
g3
g4
sg160
S"AnytimeBeam-w20-gf(1.5, 'exp')_with_LinearHeuristic"
p990
sg163
(dp991
g8
((lp992
F40.059999999997672
tp993
sg49
((lp994
(F0.020000000000436557
I25
tp995
aF40.0
tp996
sg75
((lp997
(F0.030000000002473826
I32
tp998
a(F1.2200000000011642
I30
tp999
aF40.0
tp1000
sg101
((lp1001
(F0.18000000000029104
I8
tp1002
aF40.030000000002474
tp1003
sg130
((lp1004
(F38.659999999999854
I286
tp1005
aF40.019999999996799
tp1006
ssba(imeasure_core
ProblemSetSolution
p1007
(dp1008
g3
g202
sg160
g990
sg163
(dp1009
g205
((lp1010
F40.440000000002328
tp1011
sg254
((lp1012
(F1.6899999999986903
I50
tp1013
a(F19.369999999998981
I49
tp1014
a(F37.799999999999272
I48
tp1015
aF40.040000000000873
tp1016
sg309
((lp1017
(F0.47999999999956344
I7
tp1018
aF40.129999999997381
tp1019
sg354
((lp1020
F40.0
tp1021
sg403
((lp1022
F40.090000000000146
tp1023
ssba(imeasure_core
ProblemSetSolution
p1024
(dp1025
g3
g470
sg160
g990
sg163
(dp1026
g473
((lp1027
F41.690000000002328
tp1028
sg519
((lp1029
F40.159999999999854
tp1030
sg570
((lp1031
F40.149999999997817
tp1032
sg613
((lp1033
F40.200000000000728
tp1034
sg663
((lp1035
F40.06000000000131
tp1036
ssba(imeasure_core
ProblemSetSolution
p1037
(dp1038
g3
g4
sg160
S"AnytimeBeam-w20-gf(1.7, 'exp')_with_LinearHeuristic"
p1039
sg163
(dp1040
g8
((lp1041
F40.0
tp1042
sg49
((lp1043
(F0.020000000000436557
I25
tp1044
aF40.0
tp1045
sg75
((lp1046
(F0.029999999998835847
I32
tp1047
a(F0.77000000000043656
I30
tp1048
aF40.0
tp1049
sg101
((lp1050
(F0.18000000000029104
I8
tp1051
aF40.0
tp1052
sg130
((lp1053
(F38.029999999998836
I286
tp1054
aF40.009999999998399
tp1055
ssba(imeasure_core
ProblemSetSolution
p1056
(dp1057
g3
g202
sg160
g1039
sg163
(dp1058
g205
((lp1059
F40.119999999998981
tp1060
sg254
((lp1061
(F1.680000000000291
I50
tp1062
a(F12.349999999998545
I49
tp1063
a(F30.290000000000873
I48
tp1064
aF40.020000000000437
tp1065
sg309
((lp1066
(F0.47999999999956344
I7
tp1067
aF40.149999999997817
tp1068
sg354
((lp1069
F40.080000000001746
tp1070
sg403
((lp1071
F40.270000000000437
tp1072
ssba(imeasure_core
ProblemSetSolution
p1073
(dp1074
g3
g470
sg160
g1039
sg163
(dp1075
g473
((lp1076
F41.520000000000437
tp1077
sg519
((lp1078
F40.229999999999563
tp1079
sg570
((lp1080
F40.119999999998981
tp1081
sg613
((lp1082
F40.080000000001746
tp1083
sg663
((lp1084
F40.540000000000873
tp1085
ssba(imeasure_core
ProblemSetSolution
p1086
(dp1087
g3
g4
sg160
S"AnytimeBeam-w20-gf(1.8999999999999999, 'exp')_with_LinearHeuristic"
p1088
sg163
(dp1089
g8
((lp1090
F40.389999999999418
tp1091
sg49
((lp1092
(F0.020000000000436557
I25
tp1093
aF40.0
tp1094
sg75
((lp1095
(F0.030000000002473826
I32
tp1096
a(F0.81000000000130967
I30
tp1097
aF40.0
tp1098
sg101
((lp1099
(F0.18000000000029104
I8
tp1100
aF40.0
tp1101
sg130
((lp1102
(F38.130000000001019
I286
tp1103
aF40.0
tp1104
ssba(imeasure_core
ProblemSetSolution
p1105
(dp1106
g3
g202
sg160
g1088
sg163
(dp1107
g205
((lp1108
F40.05000000000291
tp1109
sg254
((lp1110
(F1.6799999999966531
I50
tp1111
a(F16.75
I49
tp1112
a(F36.769999999996799
I14
tp1113
aF40.019999999996799
tp1114
sg309
((lp1115
(F0.48000000000320142
I7
tp1116
aF40.020000000000437
tp1117
sg354
((lp1118
F40.0
tp1119
sg403
((lp1120
F40.319999999999709
tp1121
ssba(imeasure_core
ProblemSetSolution
p1122
(dp1123
g3
g470
sg160
g1088
sg163
(dp1124
g473
((lp1125
F41.490000000001601
tp1126
sg519
((lp1127
F40.150000000001455
tp1128
sg570
((lp1129
F40.049999999999272
tp1130
sg613
((lp1131
F40.009999999998399
tp1132
sg663
((lp1133
F40.459999999999127
tp1134
ssba.