(lp0
(imeasure_core
ProblemSetSolution
p1
(dp2
S'roomset'
p3
(imeasure_core
RoomSet
p4
(dp5
S'rooms'
p6
(dp7
(iproblems
RoomID
p8
(dp9
S'dusts'
p10
I8
sS'obstacles'
p11
(I1
I6
tp12
sS'robots'
p13
I4
sS'height'
p14
I10
sS'width'
p15
I9
sS'seed'
p16
I3433768247134474666
sb(imulti_robot_problem
MultiRobotState
p17
(dp18
S'obstacle_locations'
p19
c__builtin__
frozenset
p20
((lp21
(I4
I9
tp22
a(I4
I6
tp23
a(I0
I7
tp24
ag12
a(I0
I9
tp25
a(I8
I6
tp26
a(I0
I8
tp27
a(I3
I3
tp28
atp29
Rp30
sg15
I9
sS'dirt_locations'
p31
g20
((lp32
(I3
I2
tp33
a(I7
I7
tp34
a(I1
I9
tp35
a(I8
I7
tp36
a(I5
I4
tp37
a(I1
I1
tp38
a(I5
I8
tp39
a(I7
I9
tp40
atp41
Rp42
sg13
((I5
I9
tp43
(I5
I5
tp44
(I6
I9
tp45
(I2
I0
tp46
tp47
sg14
I10
sbs(iproblems
RoomID
p48
(dp49
g10
I10
sg11
(I6
I4
tp50
sg13
I4
sg14
I7
sg15
I10
sg16
I3125140389427113411
sb(imulti_robot_problem
MultiRobotState
p51
(dp52
g19
g20
((lp53
(I6
I3
tp54
a(I5
I1
tp55
a(I5
I2
tp56
ag50
atp57
Rp58
sg15
I10
sg31
g20
((lp59
(I1
I2
tp60
a(I7
I3
tp61
a(I0
I0
tp62
a(I3
I3
tp63
a(I6
I2
tp64
a(I1
I6
tp65
a(I9
I4
tp66
a(I2
I5
tp67
a(I0
I2
tp68
a(I7
I2
tp69
atp70
Rp71
sg13
((I9
I0
tp72
(I6
I5
tp73
(I1
I4
tp74
(I1
I3
tp75
tp76
sg14
I7
sbs(iproblems
RoomID
p77
(dp78
g10
I9
sg11
(I4
I3
tp79
sg13
I3
sg14
I9
sg15
I8
sg16
I6161655336973386967
sb(imulti_robot_problem
MultiRobotState
p80
(dp81
g19
g20
((lp82
(I6
I3
tp83
a(I7
I3
tp84
a(I5
I4
tp85
ag79
a(I6
I6
tp86
a(I5
I2
tp87
a(I2
I1
tp88
atp89
Rp90
sg15
I8
sg31
g20
((lp91
(I6
I4
tp92
a(I6
I8
tp93
a(I2
I0
tp94
a(I5
I7
tp95
a(I1
I4
tp96
a(I1
I5
tp97
a(I0
I5
tp98
a(I2
I5
tp99
a(I4
I1
tp100
atp101
Rp102
sg13
((I3
I5
tp103
(I4
I6
tp104
(I4
I5
tp105
tp106
sg14
I9
sbs(iproblems
RoomID
p107
(dp108
g10
I7
sg11
(I2
I2
tp109
sg13
I3
sg14
I9
sg15
I9
sg16
I6241004153072892496
sb(imulti_robot_problem
MultiRobotState
p110
(dp111
g19
g20
((lp112
(I7
I3
tp113
a(I3
I2
tp114
a(I7
I1
tp115
a(I5
I1
tp116
ag109
a(I4
I1
tp117
a(I7
I7
tp118
atp119
Rp120
sg15
I9
sg31
g20
((lp121
(I3
I8
tp122
a(I1
I5
tp123
a(I4
I8
tp124
a(I3
I7
tp125
a(I5
I7
tp126
a(I3
I4
tp127
a(I6
I0
tp128
atp129
Rp130
sg13
((I6
I5
tp131
(I4
I3
tp132
(I3
I5
tp133
tp134
sg14
I9
sbs(iproblems
RoomID
p135
(dp136
g10
I6
sg11
(I7
I4
tp137
sg13
I4
sg14
I8
sg15
I9
sg16
I8554152435637441414
sb(imulti_robot_problem
MultiRobotState
p138
(dp139
g19
g20
((lp140
(I6
I6
tp141
a(I5
I7
tp142
ag137
a(I2
I0
tp143
a(I7
I5
tp144
a(I3
I7
tp145
a(I0
I3
tp146
a(I4
I1
tp147
atp148
Rp149
sg15
I9
sg31
g20
((lp150
(I7
I3
tp151
a(I1
I6
tp152
a(I5
I1
tp153
a(I8
I6
tp154
a(I0
I2
tp155
a(I4
I0
tp156
atp157
Rp158
sg13
((I5
I3
tp159
(I6
I2
tp160
(I6
I3
tp161
(I6
I4
tp162
tp163
sg14
I8
sbssS'name'
p164
S'easy_roomset'
p165
sbsg164
S"AnytimeBeam-w5-gf(1.5, 'exp')_with_PowerHeuristic2"
p166
sS'solutions'
p167
(dp168
g8
((lp169
(F0.26000000000203727
I10
tp170
aF40.020000000004075
tp171
sg48
((lp172
(F1.6199999999953434
I13
tp173
aF40.29000000000087
tp174
sg77
((lp175
(F2.860000000000582
I48
tp176
aF40.0
tp177
sg107
((lp178
(F0.18999999999505235
I8
tp179
aF40.08999999999651
tp180
sg135
((lp181
(F0.9700000000011642
I8
tp182
aF40.330000000001746
tp183
ssba(imeasure_core
ProblemSetSolution
p184
(dp185
g3
(imeasure_core
RoomSet
p186
(dp187
g6
(dp188
(iproblems
RoomID
p189
(dp190
g10
I10
sg11
(I1
I6
tp191
sg13
I3
sg14
I12
sg15
I9
sg16
I4927760411464392432
sb(imulti_robot_problem
MultiRobotState
p192
(dp193
g19
g20
((lp194
(I5
I9
tp195
a(I1
I3
tp196
a(I4
I5
tp197
a(I7
I7
tp198
a(I6
I0
tp199
a(I3
I9
tp200
ag191
a(I8
I7
tp201
a(I3
I7
tp202
a(I2
I5
tp203
a(I7
I9
tp204
a(I3
I1
tp205
a(I4
I6
tp206
a(I2
I9
tp207
a(I3
I10
tp208
a(I6
I10
tp209
a(I2
I11
tp210
a(I3
I8
tp211
a(I0
I6
tp212
a(I3
I6
tp213
a(I2
I2
tp214
a(I2
I3
tp215
a(I3
I4
tp216
a(I7
I6
tp217
atp218
Rp219
sg15
I9
sg31
g20
((lp220
(I1
I2
tp221
a(I6
I4
tp222
a(I6
I9
tp223
a(I8
I2
tp224
a(I8
I0
tp225
a(I1
I10
tp226
a(I0
I9
tp227
a(I1
I0
tp228
a(I0
I2
tp229
a(I4
I11
tp230
atp231
Rp232
sg13
((I1
I11
tp233
(I0
I11
tp234
(I7
I5
tp235
tp236
sg14
I12
sbs(iproblems
RoomID
p237
(dp238
g10
I8
sg11
(I1
I11
tp239
sg13
I4
sg14
I12
sg15
I11
sg16
I3433768247134474666
sb(imulti_robot_problem
MultiRobotState
p240
(dp241
g19
g20
((lp242
(I9
I3
tp243
a(I3
I6
tp244
a(I4
I8
tp245
a(I4
I5
tp246
a(I2
I8
tp247
a(I10
I6
tp248
a(I2
I10
tp249
a(I8
I7
tp250
a(I2
I3
tp251
a(I0
I10
tp252
a(I9
I4
tp253
a(I3
I7
tp254
ag239
a(I10
I3
tp255
a(I5
I8
tp256
a(I10
I4
tp257
a(I2
I7
tp258
a(I10
I5
tp259
a(I6
I7
tp260
a(I2
I9
tp261
a(I9
I6
tp262
a(I1
I8
tp263
a(I3
I8
tp264
a(I0
I11
tp265
a(I8
I8
tp266
a(I4
I11
tp267
a(I5
I0
tp268
a(I0
I9
tp269
a(I4
I9
tp270
a(I7
I8
tp271
atp272
Rp273
sg15
I11
sg31
g20
((lp274
(I4
I3
tp275
a(I5
I11
tp276
a(I9
I8
tp277
a(I2
I11
tp278
a(I9
I11
tp279
a(I7
I10
tp280
a(I1
I1
tp281
a(I6
I5
tp282
atp283
Rp284
sg13
((I7
I11
tp285
(I7
I7
tp286
(I2
I0
tp287
(I10
I9
tp288
tp289
sg14
I12
sbs(iproblems
RoomID
p290
(dp291
g10
I7
sg11
(I10
I3
tp292
sg13
I3
sg14
I11
sg15
I11
sg16
I6241004153072892496
sb(imulti_robot_problem
MultiRobotState
p293
(dp294
g19
g20
((lp295
(I3
I2
tp296
a(I0
I0
tp297
a(I9
I8
tp298
a(I7
I7
tp299
a(I8
I9
tp300
a(I6
I2
tp301
a(I2
I3
tp302
a(I9
I4
tp303
a(I4
I2
tp304
a(I5
I1
tp305
a(I0
I3
tp306
ag292
a(I1
I2
tp307
a(I9
I5
tp308
a(I5
I5
tp309
a(I10
I7
tp310
a(I8
I5
tp311
a(I6
I1
tp312
a(I1
I8
tp313
a(I8
I8
tp314
a(I8
I6
tp315
a(I7
I8
tp316
a(I2
I4
tp317
atp318
Rp319
sg15
I11
sg31
g20
((lp320
(I4
I10
tp321
a(I6
I9
tp322
a(I4
I9
tp323
a(I9
I1
tp324
a(I5
I10
tp325
a(I3
I10
tp326
a(I8
I0
tp327
atp328
Rp329
sg13
((I5
I4
tp330
(I4
I6
tp331
(I1
I6
tp332
tp333
sg14
I11
sbs(iproblems
RoomID
p334
(dp335
g10
I10
sg11
(I5
I4
tp336
sg13
I4
sg14
I9
sg15
I12
sg16
I3125140389427113411
sb(imulti_robot_problem
MultiRobotState
p337
(dp338
g19
g20
((lp339
(I7
I3
tp340
a(I4
I7
tp341
a(I2
I6
tp342
a(I2
I7
tp343
a(I6
I6
tp344
a(I5
I6
tp345
ag336
a(I1
I4
tp346
a(I6
I2
tp347
a(I10
I1
tp348
a(I3
I7
tp349
a(I5
I1
tp350
a(I2
I5
tp351
a(I6
I5
tp352
a(I3
I3
tp353
a(I6
I4
tp354
a(I9
I5
tp355
a(I6
I7
tp356
a(I5
I5
tp357
a(I10
I7
tp358
a(I6
I1
tp359
a(I7
I4
tp360
a(I8
I6
tp361
a(I5
I3
tp362
a(I5
I2
tp363
a(I8
I4
tp364
atp365
Rp366
sg15
I12
sg31
g20
((lp367
(I0
I0
tp368
a(I11
I4
tp369
a(I8
I2
tp370
a(I3
I0
tp371
a(I6
I0
tp372
a(I1
I8
tp373
a(I2
I3
tp374
a(I0
I3
tp375
a(I11
I6
tp376
a(I3
I5
tp377
atp378
Rp379
sg13
((I11
I0
tp380
(I7
I7
tp381
(I1
I5
tp382
(I2
I4
tp383
tp384
sg14
I9
sbs(iproblems
RoomID
p385
(dp386
g10
I6
sg11
(I5
I4
tp387
sg13
I4
sg14
I10
sg15
I11
sg16
I8554152435637441414
sb(imulti_robot_problem
MultiRobotState
p388
(dp389
g19
g20
((lp390
(I6
I4
tp391
ag387
a(I4
I5
tp392
a(I2
I8
tp393
a(I9
I3
tp394
a(I7
I7
tp395
a(I0
I7
tp396
a(I6
I2
tp397
a(I2
I1
tp398
a(I3
I7
tp399
a(I5
I1
tp400
a(I0
I3
tp401
a(I8
I5
tp402
a(I5
I3
tp403
a(I3
I8
tp404
a(I8
I3
tp405
a(I4
I9
tp406
a(I6
I8
tp407
a(I7
I0
tp408
a(I6
I3
tp409
a(I7
I5
tp410
a(I3
I6
tp411
a(I8
I6
tp412
a(I7
I8
tp413
a(I10
I9
tp414
atp415
Rp416
sg15
I11
sg31
g20
((lp417
(I1
I3
tp418
a(I9
I4
tp419
a(I5
I0
tp420
a(I3
I0
tp421
a(I4
I2
tp422
a(I7
I2
tp423
atp424
Rp425
sg13
((I8
I2
tp426
(I8
I4
tp427
(I9
I7
tp428
(I0
I2
tp429
tp430
sg14
I10
sbssg164
S'mild_roomset'
p431
sbsg164
g166
sg167
(dp432
g189
((lp433
F40.06999999999971
tp434
sg237
((lp435
(F3.389999999999418
I30
tp436
aF40.06999999999971
tp437
sg290
((lp438
(F0.8099999999976717
I13
tp439
aF40.06999999999971
tp440
sg334
((lp441
F40.18999999999505
tp442
sg385
((lp443
(F13.580000000001746
I55
tp444
aF40.580000000001746
tp445
ssba(imeasure_core
ProblemSetSolution
p446
(dp447
g3
(imeasure_core
RoomSet
p448
(dp449
g6
(dp450
(iproblems
RoomID
p451
(dp452
g10
I13
sg11
(I4
I11
tp453
sg13
I6
sg14
I13
sg15
I12
sg16
I3433768247134474666
sb(imulti_robot_problem
MultiRobotState
p454
(dp455
g19
g20
((lp456
(I4
I10
tp457
a(I5
I11
tp458
a(I6
I11
tp459
a(I9
I8
tp460
a(I6
I0
tp461
a(I0
I12
tp462
a(I4
I12
tp463
a(I2
I3
tp464
a(I2
I12
tp465
a(I10
I3
tp466
ag453
a(I11
I7
tp467
a(I3
I12
tp468
a(I3
I10
tp469
a(I11
I3
tp470
a(I0
I11
tp471
a(I8
I8
tp472
a(I1
I9
tp473
a(I1
I6
tp474
a(I1
I1
tp475
a(I0
I10
tp476
atp477
Rp478
sg15
I12
sg31
g20
((lp479
(I10
I8
tp480
a(I10
I5
tp481
a(I6
I7
tp482
a(I6
I8
tp483
a(I4
I4
tp484
a(I10
I12
tp485
a(I9
I9
tp486
a(I8
I10
tp487
a(I7
I5
tp488
a(I7
I10
tp489
a(I6
I12
tp490
a(I5
I10
tp491
a(I5
I3
tp492
atp493
Rp494
sg13
((I7
I12
tp495
(I7
I7
tp496
(I8
I12
tp497
(I2
I0
tp498
(I11
I9
tp499
(I1
I2
tp500
tp501
sg14
I13
sbs(iproblems
RoomID
p502
(dp503
g10
I15
sg11
(I1
I6
tp504
sg13
I6
sg14
I10
sg15
I13
sg16
I3125140389427113411
sb(imulti_robot_problem
MultiRobotState
p505
(dp506
g19
g20
((lp507
(I7
I3
tp508
a(I3
I3
tp509
a(I1
I5
tp510
a(I6
I1
tp511
a(I1
I4
tp512
a(I7
I4
tp513
a(I2
I0
tp514
a(I11
I1
tp515
a(I2
I3
tp516
a(I0
I7
tp517
a(I8
I7
tp518
a(I6
I2
tp519
ag504
atp520
Rp521
sg15
I13
sg31
g20
((lp522
(I0
I1
tp523
a(I2
I6
tp524
a(I2
I9
tp525
a(I11
I8
tp526
a(I2
I8
tp527
a(I9
I3
tp528
a(I6
I0
tp529
a(I3
I0
tp530
a(I7
I7
tp531
a(I6
I3
tp532
a(I9
I2
tp533
a(I12
I4
tp534
a(I0
I4
tp535
a(I2
I4
tp536
a(I9
I7
tp537
atp538
Rp539
sg13
((I12
I0
tp540
(I7
I8
tp541
(I2
I5
tp542
(I4
I5
tp543
(I12
I7
tp544
(I9
I4
tp545
tp546
sg14
I10
sbs(iproblems
RoomID
p547
(dp548
g10
I12
sg11
(I3
I3
tp549
sg13
I6
sg14
I12
sg15
I12
sg16
I6241004153072892496
sb(imulti_robot_problem
MultiRobotState
p550
(dp551
g19
g20
((lp552
(I9
I3
tp553
ag549
a(I2
I9
tp554
a(I7
I1
tp555
a(I11
I8
tp556
a(I3
I4
tp557
a(I6
I1
tp558
a(I3
I1
tp559
a(I5
I2
tp560
a(I4
I3
tp561
a(I4
I2
tp562
a(I8
I5
tp563
a(I11
I6
tp564
atp565
Rp566
sg15
I12
sg31
g20
((lp567
(I4
I10
tp568
a(I0
I0
tp569
a(I7
I10
tp570
a(I5
I11
tp571
a(I8
I0
tp572
a(I9
I10
tp573
a(I8
I7
tp574
a(I10
I1
tp575
a(I2
I5
tp576
a(I8
I9
tp577
a(I4
I11
tp578
a(I10
I4
tp579
atp580
Rp581
sg13
((I8
I6
tp582
(I5
I4
tp583
(I7
I2
tp584
(I4
I7
tp585
(I1
I7
tp586
(I5
I6
tp587
tp588
sg14
I12
sbs(iproblems
RoomID
p589
(dp590
g10
I11
sg11
(I3
I6
tp591
sg13
I7
sg14
I11
sg15
I12
sg16
I8554152435637441414
sb(imulti_robot_problem
MultiRobotState
p592
(dp593
g19
g20
((lp594
(I3
I1
tp595
a(I3
I8
tp596
a(I4
I5
tp597
a(I2
I8
tp598
a(I11
I2
tp599
a(I1
I7
tp600
a(I7
I5
tp601
a(I9
I4
tp602
a(I3
I7
tp603
a(I5
I1
tp604
a(I9
I6
tp605
a(I7
I9
tp606
a(I6
I3
tp607
a(I7
I6
tp608
a(I4
I4
tp609
a(I7
I4
tp610
a(I1
I8
tp611
a(I8
I8
tp612
ag591
a(I0
I4
tp613
a(I0
I9
tp614
a(I8
I6
tp615
a(I9
I7
tp616
atp617
Rp618
sg15
I12
sg31
g20
((lp619
(I11
I10
tp620
a(I4
I9
tp621
a(I2
I9
tp622
a(I3
I0
tp623
a(I8
I0
tp624
a(I4
I7
tp625
a(I1
I4
tp626
a(I0
I3
tp627
a(I0
I8
tp628
a(I5
I2
tp629
a(I7
I2
tp630
atp631
Rp632
sg13
((I6
I4
tp633
(I8
I2
tp634
(I8
I5
tp635
(I10
I8
tp636
(I1
I2
tp637
(I6
I0
tp638
(I10
I4
tp639
tp640
sg14
I11
sbs(iproblems
RoomID
p641
(dp642
g10
I15
sg11
(I3
I3
tp643
sg13
I5
sg14
I13
sg15
I10
sg16
I4927760411464392432
sb(imulti_robot_problem
MultiRobotState
p644
(dp645
g19
g20
((lp646
(I6
I10
tp647
a(I6
I11
tp648
a(I3
I11
tp649
a(I2
I1
tp650
a(I2
I10
tp651
a(I3
I9
tp652
a(I2
I3
tp653
a(I1
I0
tp654
a(I4
I0
tp655
a(I1
I2
tp656
ag643
a(I7
I6
tp657
a(I3
I1
tp658
a(I1
I1
tp659
a(I1
I7
tp660
a(I1
I3
tp661
a(I3
I10
tp662
a(I9
I12
tp663
atp664
Rp665
sg15
I10
sg31
g20
((lp666
(I9
I0
tp667
a(I9
I7
tp668
a(I7
I0
tp669
a(I8
I2
tp670
a(I5
I5
tp671
a(I8
I10
tp672
a(I1
I4
tp673
a(I8
I8
tp674
a(I2
I12
tp675
a(I8
I7
tp676
a(I1
I10
tp677
a(I7
I11
tp678
a(I4
I12
tp679
a(I0
I2
tp680
a(I0
I10
tp681
atp682
Rp683
sg13
((I1
I12
tp684
(I0
I12
tp685
(I8
I5
tp686
(I7
I9
tp687
(I7
I4
tp688
tp689
sg14
I13
sbssg164
S'heavy_roomset'
p690
sbsg164
g166
sg167
(dp691
g641
((lp692
F40.94000000000233
tp693
sg451
((lp694
F40.94999999999709
tp695
sg502
((lp696
F42.79000000000087
tp697
sg589
((lp698
F47.83999999999651
tp699
sg547
((lp700
F40.34000000000378
tp701
ssba(imeasure_core
ProblemSetSolution
p702
(dp703
g3
g4
sg164
S"AnytimeBeam-w15-gf(1.5, 'exp')_with_PowerHeuristic2"
p704
sg167
(dp705
g8
((lp706
(F0.37000000000261934
I10
tp707
aF40.080000000001746
tp708
sg48
((lp709
(F1.5900000000037835
I13
tp710
aF40.51000000000204
tp711
sg77
((lp712
(F2.819999999999709
I48
tp713
aF40.06999999999971
tp714
sg107
((lp715
(F0.1900000000023283
I8
tp716
aF40.05000000000291
tp717
sg135
((lp718
(F0.9699999999938882
I8
tp719
aF40.43000000000029
tp720
ssba(imeasure_core
ProblemSetSolution
p721
(dp722
g3
g186
sg164
g704
sg167
(dp723
g189
((lp724
F40.09000000000378
tp725
sg237
((lp726
(F3.389999999999418
I30
tp727
aF40.06999999999971
tp728
sg290
((lp729
(F0.819999999999709
I13
tp730
aF40.0199999999968
tp731
sg334
((lp732
F40.080000000001746
tp733
sg385
((lp734
(F13.519999999996799
I55
tp735
aF40.529999999998836
tp736
ssba(imeasure_core
ProblemSetSolution
p737
(dp738
g3
g448
sg164
g704
sg167
(dp739
g641
((lp740
F40.96999999999389
tp741
sg451
((lp742
F40.80000000000291
tp743
sg502
((lp744
F43.04000000000087
tp745
sg589
((lp746
F47.69000000000233
tp747
sg547
((lp748
F40.349999999998545
tp749
ssba(imeasure_core
ProblemSetSolution
p750
(dp751
g3
g4
sg164
S"AnytimeBeam-w25-gf(1.5, 'exp')_with_PowerHeuristic2"
p752
sg167
(dp753
g8
((lp754
(F0.41000000000349246
I10
tp755
aF40.020000000004075
tp756
sg48
((lp757
(F1.5999999999985448
I13
tp758
aF40.109999999993306
tp759
sg77
((lp760
(F2.8300000000017462
I48
tp761
aF40.11000000000058
tp762
sg107
((lp763
(F0.1900000000023283
I8
tp764
aF40.06999999999971
tp765
sg135
((lp766
(F0.9700000000011642
I8
tp767
aF40.34000000000378
tp768
ssba(imeasure_core
ProblemSetSolution
p769
(dp770
g3
g186
sg164
g752
sg167
(dp771
g189
((lp772
F40.080000000001746
tp773
sg237
((lp774
(F3.389999999999418
I30
tp775
aF40.05999999999767
tp776
sg290
((lp777
(F0.819999999999709
I13
tp778
aF40.04000000000087
tp779
sg334
((lp780
F40.33999999999651
tp781
sg385
((lp782
(F13.510000000002037
I55
tp783
aF40.470000000001164
tp784
ssba(imeasure_core
ProblemSetSolution
p785
(dp786
g3
g448
sg164
g752
sg167
(dp787
g641
((lp788
F41.04000000000087
tp789
sg451
((lp790
F40.93000000000029
tp791
sg502
((lp792
F43.09000000000378
tp793
sg589
((lp794
F47.80000000000291
tp795
sg547
((lp796
F40.2899999999936
tp797
ssba(imeasure_core
ProblemSetSolution
p798
(dp799
g3
g4
sg164
S"AnytimeBeam-w35-gf(1.5, 'exp')_with_PowerHeuristic2"
p800
sg167
(dp801
g8
((lp802
(F0.48999999999796273
I10
tp803
aF40.04000000000087
tp804
sg48
((lp805
(F1.5899999999965075
I13
tp806
aF40.18000000000029
tp807
sg77
((lp808
(F2.8099999999976717
I48
tp809
aF40.14999999999418
tp810
sg107
((lp811
(F0.1900000000023283
I8
tp812
aF40.06000000000495
tp813
sg135
((lp814
(F0.9699999999938882
I8
tp815
aF40.39999999999418
tp816
ssba(imeasure_core
ProblemSetSolution
p817
(dp818
g3
g186
sg164
g800
sg167
(dp819
g189
((lp820
F40.080000000001746
tp821
sg237
((lp822
(F3.4499999999970896
I30
tp823
aF40.220000000001164
tp824
sg290
((lp825
(F0.819999999999709
I13
tp826
aF40.080000000001746
tp827
sg334
((lp828
F40.299999999995634
tp829
sg385
((lp830
(F13.610000000000582
I55
tp831
aF40.200000000004366
tp832
ssba(imeasure_core
ProblemSetSolution
p833
(dp834
g3
g448
sg164
g800
sg167
(dp835
g641
((lp836
F40.83999999999651
tp837
sg451
((lp838
F41.41000000000349
tp839
sg502
((lp840
F43.049999999995634
tp841
sg589
((lp842
F47.66000000000349
tp843
sg547
((lp844
F40.650000000001455
tp845
ssba(imeasure_core
ProblemSetSolution
p846
(dp847
g3
g4
sg164
S"AnytimeBeam-w45-gf(1.5, 'exp')_with_PowerHeuristic2"
p848
sg167
(dp849
g8
((lp850
(F0.5299999999988358
I10
tp851
aF40.270000000004075
tp852
sg48
((lp853
(F1.6499999999941792
I13
tp854
aF40.31999999999971
tp855
sg77
((lp856
(F2.8699999999953434
I48
tp857
aF40.13999999999942
tp858
sg107
((lp859
(F0.18999999999505235
I8
tp860
aF40.08999999999651
tp861
sg135
((lp862
(F0.9800000000032014
I8
tp863
aF40.220000000001164
tp864
ssba(imeasure_core
ProblemSetSolution
p865
(dp866
g3
g186
sg164
g848
sg167
(dp867
g189
((lp868
F40.12000000000262
tp869
sg237
((lp870
(F3.4199999999982538
I30
tp871
aF40.07999999999447
tp872
sg290
((lp873
(F0.819999999999709
I13
tp874
aF40.10000000000582
tp875
sg334
((lp876
F40.12999999999738
tp877
sg385
((lp878
(F13.589999999996508
I55
tp879
aF40.220000000001164
tp880
ssba(imeasure_core
ProblemSetSolution
p881
(dp882
g3
g448
sg164
g848
sg167
(dp883
g641
((lp884
F40.63000000000466
tp885
sg451
((lp886
F40.83999999999651
tp887
sg502
((lp888
F42.94000000000233
tp889
sg589
((lp890
F47.799999999995634
tp891
sg547
((lp892
F40.30000000000291
tp893
ssba(imeasure_core
ProblemSetSolution
p894
(dp895
g3
g4
sg164
S"AnytimeBeam-w5-gf(1.5, 'exp')_with_LinearHeuristic"
p896
sg167
(dp897
g8
((lp898
(F0.8699999999953434
I29
tp899
aF40.2899999999936
tp900
sg48
((lp901
F40.35000000000582
tp902
sg77
((lp903
F40.06999999999971
tp904
sg107
((lp905
(F0.27999999999883585
I7
tp906
aF40.00999999999476
tp907
sg135
((lp908
F40.05000000000291
tp909
ssba(imeasure_core
ProblemSetSolution
p910
(dp911
g3
g186
sg164
g896
sg167
(dp912
g189
((lp913
F40.08999999999651
tp914
sg237
((lp915
F40.79000000000087
tp916
sg290
((lp917
(F1.9100000000034925
I27
tp918
aF40.09000000000378
tp919
sg334
((lp920
F40.61000000000058
tp921
sg385
((lp922
(F1.0199999999967986
I8
tp923
aF40.099999999998545
tp924
ssba(imeasure_core
ProblemSetSolution
p925
(dp926
g3
g448
sg164
g896
sg167
(dp927
g641
((lp928
F42.25999999999476
tp929
sg451
((lp930
F43.93000000000029
tp931
sg502
((lp932
F41.29000000000087
tp933
sg589
((lp934
F54.61000000000058
tp935
sg547
((lp936
F43.279999999998836
tp937
ssba(imeasure_core
ProblemSetSolution
p938
(dp939
g3
g4
sg164
S"AnytimeBeam-w15-gf(1.5, 'exp')_with_LinearHeuristic"
p940
sg167
(dp941
g8
((lp942
(F1.110000000000582
I29
tp943
aF40.0
tp944
sg48
((lp945
F40.04000000000087
tp946
sg77
((lp947
F40.18000000000029
tp948
sg107
((lp949
(F0.2699999999967986
I7
tp950
aF40.029999999998836
tp951
sg135
((lp952
F40.25
tp953
ssba(imeasure_core
ProblemSetSolution
p954
(dp955
g3
g186
sg164
g940
sg167
(dp956
g189
((lp957
F40.150000000001455
tp958
sg237
((lp959
F40.61999999999534
tp960
sg290
((lp961
(F1.9200000000055297
I27
tp962
aF40.09000000000378
tp963
sg334
((lp964
F40.63999999999942
tp965
sg385
((lp966
(F1.0400000000008731
I8
tp967
aF40.26000000000204
tp968
ssba(imeasure_core
ProblemSetSolution
p969
(dp970
g3
g448
sg164
g940
sg167
(dp971
g641
((lp972
F40.11000000000058
tp973
sg451
((lp974
F44.0199999999968
tp975
sg502
((lp976
F41.44000000000233
tp977
sg589
((lp978
F55.06999999999971
tp979
sg547
((lp980
F42.98999999999796
tp981
ssba(imeasure_core
ProblemSetSolution
p982
(dp983
g3
g4
sg164
S"AnytimeBeam-w25-gf(1.5, 'exp')_with_LinearHeuristic"
p984
sg167
(dp985
g8
((lp986
(F1.2399999999979627
I29
tp987
aF40.029999999998836
tp988
sg48
((lp989
F40.17000000000553
tp990
sg77
((lp991
F40.15999999999622
tp992
sg107
((lp993
(F0.27999999999883585
I7
tp994
aF40.029999999998836
tp995
sg135
((lp996
F40.099999999998545
tp997
ssba(imeasure_core
ProblemSetSolution
p998
(dp999
g3
g186
sg164
g984
sg167
(dp1000
g189
((lp1001
F40.020000000004075
tp1002
sg237
((lp1003
F40.599999999998545
tp1004
sg290
((lp1005
(F1.9199999999982538
I27
tp1006
aF40.06999999999971
tp1007
sg334
((lp1008
F40.580000000001746
tp1009
sg385
((lp1010
(F1.0199999999967986
I8
tp1011
aF40.05999999999767
tp1012
ssba(imeasure_core
ProblemSetSolution
p1013
(dp1014
g3
g448
sg164
g984
sg167
(dp1015
g641
((lp1016
F42.349999999998545
tp1017
sg451
((lp1018
F43.93000000000029
tp1019
sg502
((lp1020
F41.48999999999796
tp1021
sg589
((lp1022
F54.91000000000349
tp1023
sg547
((lp1024
F43.30999999999767
tp1025
ssba(imeasure_core
ProblemSetSolution
p1026
(dp1027
g3
g4
sg164
S"AnytimeBeam-w35-gf(1.5, 'exp')_with_LinearHeuristic"
p1028
sg167
(dp1029
g8
((lp1030
(F1.4400000000023283
I29
tp1031
aF40.19999999999709
tp1032
sg48
((lp1033
F40.16000000000349
tp1034
sg77
((lp1035
F40.05999999999767
tp1036
sg107
((lp1037
(F0.27000000000407454
I7
tp1038
aF40.0
tp1039
sg135
((lp1040
F40.87000000000262
tp1041
ssba(imeasure_core
ProblemSetSolution
p1042
(dp1043
g3
g186
sg164
g1028
sg167
(dp1044
g189
((lp1045
F40.05000000000291
tp1046
sg237
((lp1047
F40.650000000001455
tp1048
sg290
((lp1049
(F1.930000000000291
I27
tp1050
aF40.12999999999738
tp1051
sg334
((lp1052
F40.7300000000032
tp1053
sg385
((lp1054
(F1.0199999999967986
I8
tp1055
aF40.04000000000087
tp1056
ssba(imeasure_core
ProblemSetSolution
p1057
(dp1058
g3
g448
sg164
g1028
sg167
(dp1059
g641
((lp1060
F40.25
tp1061
sg451
((lp1062
F44.06999999999971
tp1063
sg502
((lp1064
F41.450000000004366
tp1065
sg589
((lp1066
F54.44000000000233
tp1067
sg547
((lp1068
F43.37999999999738
tp1069
ssba(imeasure_core
ProblemSetSolution
p1070
(dp1071
g3
g4
sg164
S"AnytimeBeam-w45-gf(1.5, 'exp')_with_LinearHeuristic"
p1072
sg167
(dp1073
g8
((lp1074
(F1.610000000000582
I29
tp1075
aF40.73999999999796
tp1076
sg48
((lp1077
F40.169999999998254
tp1078
sg77
((lp1079
F40.11000000000058
tp1080
sg107
((lp1081
(F0.27999999999883585
I7
tp1082
aF40.09000000000378
tp1083
sg135
((lp1084
F40.48999999999796
tp1085
ssba(imeasure_core
ProblemSetSolution
p1086
(dp1087
g3
g186
sg164
g1072
sg167
(dp1088
g189
((lp1089
F40.01000000000204
tp1090
sg237
((lp1091
F41.46999999999389
tp1092
sg290
((lp1093
(F1.9200000000055297
I27
tp1094
aF40.03000000000611
tp1095
sg334
((lp1096
F40.599999999998545
tp1097
sg385
((lp1098
(F1.0299999999988358
I8
tp1099
aF40.19999999999709
tp1100
ssba(imeasure_core
ProblemSetSolution
p1101
(dp1102
g3
g448
sg164
g1072
sg167
(dp1103
g641
((lp1104
F42.2699999999968
tp1105
sg451
((lp1106
F43.830000000001746
tp1107
sg502
((lp1108
F41.25
tp1109
sg589
((lp1110
F54.75
tp1111
sg547
((lp1112
F43.220000000001164
tp1113
ssba.