(lp0
(imeasure_core
ProblemSetSolution
p1
(dp2
S'roomset'
p3
(imeasure_core
RoomSet
p4
(dp5
S'rooms'
p6
(dp7
(iproblems
RoomID
p8
(dp9
S'dusts'
p10
I8
sS'obstacles'
p11
(I0
I4
tp12
sS'robots'
p13
I4
sS'height'
p14
I7
sS'width'
p15
I9
sS'seed'
p16
I1689441204489037471
sb(imulti_robot_problem
MultiRobotState
p17
(dp18
S'obstacle_locations'
p19
c__builtin__
frozenset
p20
((lp21
(I0
I1
tp22
a(I1
I2
tp23
a(I3
I2
tp24
a(I8
I1
tp25
a(I4
I3
tp26
ag12
a(I0
I3
tp27
a(I4
I0
tp28
atp29
Rp30
sg15
I9
sS'dirt_locations'
p31
g20
((lp32
(I0
I0
tp33
a(I7
I0
tp34
a(I7
I6
tp35
a(I1
I4
tp36
a(I6
I2
tp37
a(I2
I3
tp38
a(I5
I1
tp39
a(I3
I5
tp40
atp41
Rp42
sg13
((I6
I0
tp43
(I5
I4
tp44
(I6
I6
tp45
(I5
I0
tp46
tp47
sg14
I7
sbs(iproblems
RoomID
p48
(dp49
g10
I10
sg11
(I4
I5
tp50
sg13
I3
sg14
I8
sg15
I10
sg16
I6660334802794327005
sb(imulti_robot_problem
MultiRobotState
p51
(dp52
g19
g20
((lp53
(I9
I0
tp54
a(I2
I6
tp55
a(I1
I6
tp56
a(I3
I6
tp57
ag50
a(I8
I4
tp58
atp59
Rp60
sg15
I10
sg31
g20
((lp61
(I9
I1
tp62
a(I5
I6
tp63
a(I9
I6
tp64
a(I1
I5
tp65
a(I7
I5
tp66
a(I9
I4
tp67
a(I1
I7
tp68
a(I4
I1
tp69
a(I7
I2
tp70
a(I8
I2
tp71
atp72
Rp73
sg13
((I7
I3
tp74
(I4
I7
tp75
(I4
I2
tp76
tp77
sg14
I8
sbs(iproblems
RoomID
p78
(dp79
g10
I6
sg11
(I3
I0
tp80
sg13
I4
sg14
I10
sg15
I7
sg16
I3914746131789064238
sb(imulti_robot_problem
MultiRobotState
p81
(dp82
g19
g20
((lp83
g80
a(I6
I1
tp84
a(I2
I3
tp85
a(I5
I0
tp86
a(I2
I2
tp87
a(I0
I3
tp88
a(I0
I8
tp89
a(I4
I1
tp90
a(I3
I5
tp91
atp92
Rp93
sg15
I7
sg31
g20
((lp94
(I6
I5
tp95
a(I3
I3
tp96
a(I1
I7
tp97
a(I0
I4
tp98
a(I3
I4
tp99
a(I0
I7
tp100
atp101
Rp102
sg13
((I1
I8
tp103
(I5
I1
tp104
(I5
I3
tp105
(I1
I9
tp106
tp107
sg14
I10
sbs(iproblems
RoomID
p108
(dp109
g10
I7
sg11
(I2
I5
tp110
sg13
I5
sg14
I9
sg15
I9
sg16
I4640892725076559864
sb(imulti_robot_problem
MultiRobotState
p111
(dp112
g19
g20
((lp113
(I2
I6
tp114
a(I6
I7
tp115
a(I0
I6
tp116
a(I3
I1
tp117
a(I1
I5
tp118
a(I1
I6
tp119
a(I0
I4
tp120
ag110
a(I3
I4
tp121
atp122
Rp123
sg15
I9
sg31
g20
((lp124
(I3
I8
tp125
a(I7
I3
tp126
a(I7
I1
tp127
a(I8
I1
tp128
a(I8
I6
tp129
a(I4
I2
tp130
a(I5
I3
tp131
atp132
Rp133
sg13
((I6
I5
tp134
(I8
I4
tp135
(I7
I6
tp136
(I6
I0
tp137
(I6
I3
tp138
tp139
sg14
I9
sbs(iproblems
RoomID
p140
(dp141
g10
I6
sg11
(I8
I4
tp142
sg13
I4
sg14
I10
sg15
I9
sg16
I3119042104763040036
sb(imulti_robot_problem
MultiRobotState
p143
(dp144
g19
g20
((lp145
(I1
I2
tp146
a(I6
I7
tp147
a(I4
I8
tp148
a(I7
I6
tp149
a(I8
I5
tp150
ag142
atp151
Rp152
sg15
I9
sg31
g20
((lp153
(I6
I8
tp154
a(I8
I7
tp155
a(I6
I6
tp156
a(I3
I0
tp157
a(I7
I2
tp158
a(I6
I5
tp159
atp160
Rp161
sg13
((I5
I9
tp162
(I6
I1
tp163
(I3
I4
tp164
(I2
I7
tp165
tp166
sg14
I10
sbssS'name'
p167
S'easy_roomset'
p168
sbsg167
S"AnytimeBeam-w20-gf(1.3, 'exp')_with_PowerHeuristic2"
p169
sS'solutions'
p170
(dp171
g8
((lp172
(F0.36000000000058208
I8
tp173
aF40.059999999999491
tp174
sg48
((lp175
(F0.51000000000021828
I23
tp176
aF40.050000000001091
tp177
sg108
((lp178
(F6.180000000000291
I6
tp179
aF40.110000000000582
tp180
sg140
((lp181
(F1.8299999999999272
I11
tp182
aF40.520000000000437
tp183
sg78
((lp184
(F0.63000000000101863
I7
tp185
aF40.110000000000582
tp186
ssba(imeasure_core
ProblemSetSolution
p187
(dp188
g3
(imeasure_core
RoomSet
p189
(dp190
g6
(dp191
(iproblems
RoomID
p192
(dp193
g10
I6
sg11
(I5
I5
tp194
sg13
I4
sg14
I12
sg15
I11
sg16
I3119042104763040036
sb(imulti_robot_problem
MultiRobotState
p195
(dp196
g19
g20
((lp197
(I4
I6
tp198
a(I10
I4
tp199
a(I3
I0
tp200
a(I9
I8
tp201
a(I10
I6
tp202
a(I2
I1
tp203
a(I8
I9
tp204
a(I2
I3
tp205
a(I0
I10
tp206
a(I9
I5
tp207
a(I10
I3
tp208
a(I7
I9
tp209
ag194
a(I10
I7
tp210
a(I7
I8
tp211
a(I4
I4
tp212
a(I9
I2
tp213
a(I2
I4
tp214
a(I4
I5
tp215
a(I2
I2
tp216
a(I3
I3
tp217
a(I3
I4
tp218
a(I1
I1
tp219
atp220
Rp221
sg15
I11
sg31
g20
((lp222
(I8
I3
tp223
a(I8
I8
tp224
a(I5
I10
tp225
a(I9
I4
tp226
a(I8
I6
tp227
a(I10
I9
tp228
atp229
Rp230
sg13
((I6
I11
tp231
(I7
I2
tp232
(I2
I8
tp233
(I8
I10
tp234
tp235
sg14
I12
sbs(iproblems
RoomID
p236
(dp237
g10
I6
sg11
(I4
I8
tp238
sg13
I4
sg14
I12
sg15
I9
sg16
I3914746131789064238
sb(imulti_robot_problem
MultiRobotState
p239
(dp240
g19
g20
((lp241
(I4
I6
tp242
a(I6
I6
tp243
a(I4
I5
tp244
a(I5
I7
tp245
a(I0
I5
tp246
a(I0
I10
tp247
a(I8
I7
tp248
a(I7
I0
tp249
a(I0
I3
tp250
a(I8
I5
tp251
a(I4
I0
tp252
a(I2
I3
tp253
a(I6
I7
tp254
a(I3
I3
tp255
a(I8
I1
tp256
a(I7
I6
tp257
a(I3
I1
tp258
ag238
a(I5
I0
tp259
a(I2
I2
tp260
a(I0
I9
tp261
a(I8
I6
tp262
a(I5
I3
tp263
a(I6
I1
tp264
atp265
Rp266
sg15
I9
sg31
g20
((lp267
(I1
I8
tp268
a(I1
I9
tp269
a(I4
I3
tp270
a(I4
I4
tp271
a(I2
I11
tp272
a(I2
I10
tp273
atp274
Rp275
sg13
((I1
I10
tp276
(I6
I2
tp277
(I7
I3
tp278
(I1
I11
tp279
tp280
sg14
I12
sbs(iproblems
RoomID
p281
(dp282
g10
I5
sg11
(I5
I7
tp283
sg13
I4
sg14
I9
sg15
I12
sg16
I659184109953178577
sb(imulti_robot_problem
MultiRobotState
p284
(dp285
g19
g20
((lp286
(I7
I3
tp287
a(I4
I7
tp288
a(I8
I2
tp289
a(I6
I6
tp290
a(I4
I5
tp291
a(I7
I7
tp292
a(I11
I0
tp293
a(I7
I5
tp294
a(I9
I4
tp295
a(I2
I5
tp296
a(I0
I8
tp297
a(I10
I3
tp298
a(I7
I2
tp299
a(I4
I6
tp300
a(I6
I4
tp301
a(I4
I3
tp302
a(I3
I3
tp303
a(I6
I1
tp304
ag283
a(I6
I5
tp305
a(I3
I6
tp306
a(I8
I6
tp307
a(I3
I4
tp308
atp309
Rp310
sg15
I12
sg31
g20
((lp311
(I10
I8
tp312
a(I4
I1
tp313
a(I0
I2
tp314
a(I1
I6
tp315
a(I10
I4
tp316
atp317
Rp318
sg13
((I10
I0
tp319
(I7
I0
tp320
(I2
I6
tp321
(I8
I3
tp322
tp323
sg14
I9
sbs(iproblems
RoomID
p324
(dp325
g10
I9
sg11
(I9
I10
tp326
sg13
I3
sg14
I11
sg15
I10
sg16
I4253868527325451640
sb(imulti_robot_problem
MultiRobotState
p327
(dp328
g19
g20
((lp329
(I7
I3
tp330
a(I4
I7
tp331
a(I2
I6
tp332
a(I7
I10
tp333
a(I4
I8
tp334
a(I6
I9
tp335
ag326
a(I3
I9
tp336
a(I1
I6
tp337
a(I3
I7
tp338
a(I2
I5
tp339
a(I8
I5
tp340
a(I5
I8
tp341
a(I7
I9
tp342
a(I7
I1
tp343
a(I8
I10
tp344
a(I5
I0
tp345
a(I2
I3
tp346
a(I3
I5
tp347
a(I3
I4
tp348
a(I2
I4
tp349
atp350
Rp351
sg15
I10
sg31
g20
((lp352
(I8
I9
tp353
a(I5
I10
tp354
a(I6
I8
tp355
a(I7
I6
tp356
a(I3
I8
tp357
a(I0
I10
tp358
a(I9
I4
tp359
a(I0
I9
tp360
a(I5
I3
tp361
atp362
Rp363
sg13
((I3
I6
tp364
(I0
I8
tp365
(I2
I1
tp366
tp367
sg14
I11
sbs(iproblems
RoomID
p368
(dp369
g10
I9
sg11
(I9
I9
tp370
sg13
I3
sg14
I10
sg15
I10
sg16
I3273124617966689144
sb(imulti_robot_problem
MultiRobotState
p371
(dp372
g19
g20
((lp373
(I7
I3
tp374
a(I5
I4
tp375
a(I1
I3
tp376
a(I6
I4
tp377
a(I4
I5
tp378
a(I9
I8
tp379
a(I3
I2
tp380
a(I7
I5
tp381
a(I1
I6
tp382
a(I2
I5
tp383
a(I0
I8
tp384
a(I9
I6
tp385
a(I6
I5
tp386
a(I5
I3
tp387
a(I3
I3
tp388
a(I5
I5
tp389
a(I7
I6
tp390
ag370
a(I6
I3
tp391
a(I4
I3
tp392
a(I2
I3
tp393
a(I8
I6
tp394
a(I2
I4
tp395
a(I9
I7
tp396
atp397
Rp398
sg15
I10
sg31
g20
((lp399
(I7
I0
tp400
a(I3
I0
tp401
a(I6
I1
tp402
a(I3
I1
tp403
a(I5
I0
tp404
a(I2
I2
tp405
a(I3
I4
tp406
a(I1
I1
tp407
a(I8
I4
tp408
atp409
Rp410
sg13
((I0
I7
tp411
(I2
I1
tp412
(I6
I6
tp413
tp414
sg14
I10
sbssg167
S'mild_roomset'
p415
sbsg167
g169
sg170
(dp416
g192
((lp417
F40.040000000000873
tp418
sg236
((lp419
(F0.80999999999949068
I6
tp420
aF40.100000000000364
tp421
sg281
((lp422
(F4.5799999999999272
I18
tp423
aF40.199999999998909
tp424
sg324
((lp425
(F0.90999999999985448
I32
tp426
aF40.050000000001091
tp427
sg368
((lp428
F40.049999999999272
tp429
ssba(imeasure_core
ProblemSetSolution
p430
(dp431
g3
(imeasure_core
RoomSet
p432
(dp433
g6
(dp434
(iproblems
RoomID
p435
(dp436
g10
I13
sg11
(I3
I4
tp437
sg13
I6
sg14
I10
sg15
I12
sg16
I1689441204489037471
sb(imulti_robot_problem
MultiRobotState
p438
(dp439
g19
g20
((lp440
(I7
I3
tp441
a(I1
I3
tp442
a(I8
I7
tp443
a(I10
I6
tp444
a(I7
I7
tp445
a(I6
I2
tp446
a(I1
I6
tp447
a(I9
I4
tp448
a(I4
I2
tp449
a(I5
I1
tp450
a(I10
I3
tp451
a(I2
I7
tp452
a(I9
I3
tp453
a(I9
I5
tp454
a(I0
I5
tp455
a(I11
I5
tp456
a(I8
I5
tp457
a(I5
I2
tp458
a(I0
I2
tp459
a(I3
I8
tp460
a(I4
I3
tp461
a(I0
I4
tp462
ag437
a(I8
I6
tp463
a(I4
I1
tp464
a(I1
I1
tp465
a(I8
I4
tp466
atp467
Rp468
sg15
I12
sg31
g20
((lp469
(I8
I9
tp470
a(I9
I0
tp471
a(I0
I0
tp472
a(I10
I4
tp473
a(I4
I8
tp474
a(I8
I1
tp475
a(I11
I2
tp476
a(I5
I4
tp477
a(I7
I4
tp478
a(I11
I8
tp479
a(I2
I6
tp480
a(I2
I3
tp481
a(I1
I5
tp482
atp483
Rp484
sg13
((I8
I0
tp485
(I7
I6
tp486
(I8
I8
tp487
(I7
I0
tp488
(I2
I4
tp489
(I9
I9
tp490
tp491
sg14
I10
sbs(iproblems
RoomID
p492
(dp493
g10
I15
sg11
(I10
I7
tp494
sg13
I6
sg14
I11
sg15
I13
sg16
I6660334802794327005
sb(imulti_robot_problem
MultiRobotState
p495
(dp496
g19
g20
((lp497
(I4
I7
tp498
a(I11
I7
tp499
a(I5
I6
tp500
a(I2
I8
tp501
a(I9
I9
tp502
a(I9
I10
tp503
a(I10
I8
tp504
a(I9
I0
tp505
ag494
a(I5
I7
tp506
a(I8
I10
tp507
a(I3
I8
tp508
a(I1
I5
tp509
a(I1
I8
tp510
a(I1
I10
tp511
a(I10
I0
tp512
a(I2
I4
tp513
atp514
Rp515
sg15
I13
sg31
g20
((lp516
(I2
I7
tp517
a(I12
I2
tp518
a(I6
I9
tp519
a(I6
I10
tp520
a(I12
I1
tp521
a(I2
I9
tp522
a(I12
I0
tp523
a(I12
I9
tp524
a(I11
I2
tp525
a(I10
I6
tp526
a(I1
I7
tp527
a(I12
I5
tp528
a(I6
I3
tp529
a(I10
I3
tp530
a(I12
I8
tp531
atp532
Rp533
sg13
((I9
I5
tp534
(I5
I10
tp535
(I5
I3
tp536
(I5
I1
tp537
(I9
I3
tp538
(I7
I8
tp539
tp540
sg14
I11
sbs(iproblems
RoomID
p541
(dp542
g10
I11
sg11
(I7
I6
tp543
sg13
I7
sg14
I13
sg15
I12
sg16
I3119042104763040036
sb(imulti_robot_problem
MultiRobotState
p544
(dp545
g19
g20
((lp546
(I5
I4
tp547
a(I4
I5
tp548
a(I9
I8
tp549
a(I10
I6
tp550
a(I9
I0
tp551
a(I6
I0
tp552
a(I8
I9
tp553
a(I2
I12
tp554
a(I9
I6
tp555
a(I10
I5
tp556
a(I5
I10
tp557
a(I10
I7
tp558
ag543
a(I9
I9
tp559
a(I8
I6
tp560
a(I11
I6
tp561
a(I9
I7
tp562
atp563
Rp564
sg15
I12
sg31
g20
((lp565
(I1
I2
tp566
a(I4
I4
tp567
a(I5
I11
tp568
a(I5
I6
tp569
a(I3
I4
tp570
a(I8
I0
tp571
a(I8
I10
tp572
a(I0
I11
tp573
a(I2
I3
tp574
a(I7
I8
tp575
a(I4
I0
tp576
atp577
Rp578
sg13
((I7
I12
tp579
(I8
I2
tp580
(I4
I6
tp581
(I3
I9
tp582
(I9
I11
tp583
(I11
I9
tp584
(I9
I3
tp585
tp586
sg14
I13
sbs(iproblems
RoomID
p587
(dp588
g10
I11
sg11
(I6
I1
tp589
sg13
I7
sg14
I13
sg15
I10
sg16
I3914746131789064238
sb(imulti_robot_problem
MultiRobotState
p590
(dp591
g19
g20
((lp592
(I0
I0
tp593
a(I7
I0
tp594
a(I9
I1
tp595
a(I2
I9
tp596
a(I7
I1
tp597
a(I9
I2
tp598
ag589
a(I6
I3
tp599
a(I8
I1
tp600
a(I7
I2
tp601
a(I5
I1
tp602
a(I7
I8
tp603
a(I6
I5
tp604
a(I5
I5
tp605
atp606
Rp607
sg15
I10
sg31
g20
((lp608
(I4
I7
tp609
a(I3
I3
tp610
a(I4
I5
tp611
a(I4
I4
tp612
a(I1
I4
tp613
a(I0
I11
tp614
a(I0
I5
tp615
a(I0
I10
tp616
a(I8
I7
tp617
a(I9
I5
tp618
a(I5
I3
tp619
atp620
Rp621
sg13
((I1
I11
tp622
(I8
I4
tp623
(I2
I12
tp624
(I1
I9
tp625
(I2
I11
tp626
(I5
I4
tp627
(I5
I0
tp628
tp629
sg14
I13
sbs(iproblems
RoomID
p630
(dp631
g10
I12
sg11
(I8
I7
tp632
sg13
I7
sg14
I12
sg15
I12
sg16
I4640892725076559864
sb(imulti_robot_problem
MultiRobotState
p633
(dp634
g19
g20
((lp635
(I5
I9
tp636
a(I6
I9
tp637
a(I4
I8
tp638
a(I5
I6
tp639
a(I2
I8
tp640
a(I6
I0
tp641
a(I2
I10
tp642
a(I0
I9
tp643
a(I6
I2
tp644
ag632
a(I3
I7
tp645
a(I5
I1
tp646
a(I1
I0
tp647
a(I8
I5
tp648
a(I7
I9
tp649
a(I7
I4
tp650
a(I7
I0
tp651
a(I6
I8
tp652
a(I2
I9
tp653
a(I0
I6
tp654
a(I7
I6
tp655
a(I5
I7
tp656
a(I8
I10
tp657
a(I0
I2
tp658
a(I6
I3
tp659
a(I2
I0
tp660
a(I1
I8
tp661
a(I4
I5
tp662
a(I5
I2
tp663
a(I1
I1
tp664
a(I9
I7
tp665
atp666
Rp667
sg15
I12
sg31
g20
((lp668
(I2
I7
tp669
a(I6
I4
tp670
a(I11
I10
tp671
a(I4
I6
tp672
a(I11
I8
tp673
a(I11
I2
tp674
a(I9
I3
tp675
a(I3
I2
tp676
a(I8
I8
tp677
a(I0
I5
tp678
a(I10
I3
tp679
a(I5
I3
tp680
atp681
Rp682
sg13
((I8
I6
tp683
(I11
I5
tp684
(I10
I8
tp685
(I9
I0
tp686
(I9
I4
tp687
(I9
I2
tp688
(I4
I11
tp689
tp690
sg14
I12
sbssg167
S'heavy_roomset'
p691
sbsg167
g169
sg170
(dp692
g435
((lp693
F40.520000000000437
tp694
sg492
((lp695
(F38.239999999999782
I11
tp696
aF45.289999999999054
tp697
sg541
((lp698
F69.380000000001019
tp699
sg587
((lp700
F44.780000000000655
tp701
sg630
((lp702
F41.889999999999418
tp703
ssba(imeasure_core
ProblemSetSolution
p704
(dp705
g3
g4
sg167
S"AnytimeBeam-w20-gf(1.5, 'exp')_with_PowerHeuristic2"
p706
sg170
(dp707
g8
((lp708
(F0.36000000000058208
I8
tp709
aF40.389999999999418
tp710
sg48
((lp711
(F0.52000000000043656
I23
tp712
aF40.059999999999491
tp713
sg108
((lp714
(F6.1399999999994179
I6
tp715
aF40.510000000000218
tp716
sg140
((lp717
(F1.8299999999999272
I11
tp718
aF40.179999999998472
tp719
sg78
((lp720
(F0.64000000000123691
I7
tp721
aF40.140000000001237
tp722
ssba(imeasure_core
ProblemSetSolution
p723
(dp724
g3
g189
sg167
g706
sg170
(dp725
g192
((lp726
F40.280000000000655
tp727
sg236
((lp728
(F0.80000000000109139
I6
tp729
aF40.149999999999636
tp730
sg281
((lp731
(F4.5200000000004366
I18
tp732
aF40.159999999999854
tp733
sg324
((lp734
(F0.90999999999985448
I32
tp735
aF40.159999999999854
tp736
sg368
((lp737
F40.030000000000655
tp738
ssba(imeasure_core
ProblemSetSolution
p739
(dp740
g3
g432
sg167
g706
sg170
(dp741
g435
((lp742
F40.219999999999345
tp743
sg492
((lp744
(F38.320000000001528
I11
tp745
aF45.360000000000582
tp746
sg541
((lp747
F69.100000000000364
tp748
sg587
((lp749
F44.729999999999563
tp750
sg630
((lp751
F41.809999999999491
tp752
ssba(imeasure_core
ProblemSetSolution
p753
(dp754
g3
g4
sg167
S"AnytimeBeam-w20-gf(1.7, 'exp')_with_PowerHeuristic2"
p755
sg170
(dp756
g8
((lp757
(F0.3500000000003638
I8
tp758
aF40.110000000000582
tp759
sg48
((lp760
(F0.51000000000021828
I23
tp761
aF40.030000000000655
tp762
sg108
((lp763
(F6.1400000000012369
I6
tp764
aF40.430000000000291
tp765
sg140
((lp766
(F1.8099999999994907
I11
tp767
aF40.3700000000008
tp768
sg78
((lp769
(F0.63999999999941792
I7
tp770
aF40.1299999999992
tp771
ssba(imeasure_core
ProblemSetSolution
p772
(dp773
g3
g189
sg167
g755
sg170
(dp774
g192
((lp775
F40.369999999998981
tp776
sg236
((lp777
(F0.80000000000109139
I6
tp778
aF40.010000000000218
tp779
sg281
((lp780
(F4.5599999999994907
I18
tp781
aF40.130000000001019
tp782
sg324
((lp783
(F0.90999999999985448
I32
tp784
aF40.009999999998399
tp785
sg368
((lp786
F40.100000000000364
tp787
ssba(imeasure_core
ProblemSetSolution
p788
(dp789
g3
g432
sg167
g755
sg170
(dp790
g435
((lp791
F40.260000000000218
tp792
sg492
((lp793
(F38.319999999999709
I11
tp794
aF45.389999999999418
tp795
sg541
((lp796
F69.170000000000073
tp797
sg587
((lp798
F44.700000000000728
tp799
sg630
((lp800
F41.909999999999854
tp801
ssba(imeasure_core
ProblemSetSolution
p802
(dp803
g3
g4
sg167
S"AnytimeBeam-w20-gf(1.8999999999999999, 'exp')_with_PowerHeuristic2"
p804
sg170
(dp805
g8
((lp806
(F0.34000000000014552
I8
tp807
aF40.049999999999272
tp808
sg48
((lp809
(F0.51000000000021828
I23
tp810
aF40.069999999999709
tp811
sg108
((lp812
(F6.1500000000014552
I6
tp813
aF40.330000000001746
tp814
sg140
((lp815
(F1.819999999999709
I11
tp816
aF40.149999999999636
tp817
sg78
((lp818
(F0.64000000000123691
I7
tp819
aF40.239999999999782
tp820
ssba(imeasure_core
ProblemSetSolution
p821
(dp822
g3
g189
sg167
g804
sg170
(dp823
g192
((lp824
F40.079999999999927
tp825
sg236
((lp826
(F0.7999999999992724
I6
tp827
aF40.049999999999272
tp828
sg281
((lp829
(F4.5499999999992724
I18
tp830
aF40.149999999999636
tp831
sg324
((lp832
(F0.90999999999985448
I32
tp833
aF40.110000000000582
tp834
sg368
((lp835
F40.049999999999272
tp836
ssba(imeasure_core
ProblemSetSolution
p837
(dp838
g3
g432
sg167
g804
sg170
(dp839
g435
((lp840
F40.350000000000364
tp841
sg492
((lp842
(F38.319999999999709
I11
tp843
aF45.340000000000146
tp844
sg541
((lp845
F69.059999999999491
tp846
sg587
((lp847
F44.590000000000146
tp848
sg630
((lp849
F41.719999999999345
tp850
ssba(imeasure_core
ProblemSetSolution
p851
(dp852
g3
g4
sg167
S"AnytimeBeam-w20-gf(1.3, 'exp')_with_LinearHeuristic"
p853
sg170
(dp854
g8
((lp855
(F32.960000000000946
I223
tp856
aF40.050000000001091
tp857
sg48
((lp858
(F6.0799999999999272
I49
tp859
aF40.010000000000218
tp860
sg108
((lp861
(F3.180000000000291
I6
tp862
aF40.200000000000728
tp863
sg140
((lp864
F40.789999999999054
tp865
sg78
((lp866
F40.389999999999418
tp867
ssba(imeasure_core
ProblemSetSolution
p868
(dp869
g3
g189
sg167
g853
sg170
(dp870
g192
((lp871
F40.309999999999491
tp872
sg236
((lp873
(F2.3900000000012369
I12
tp874
a(F20.970000000001164
I11
tp875
aF40.329999999999927
tp876
sg281
((lp877
F40.06000000000131
tp878
sg324
((lp879
F40.299999999999272
tp880
sg368
((lp881
F40.079999999999927
tp882
ssba(imeasure_core
ProblemSetSolution
p883
(dp884
g3
g432
sg167
g853
sg170
(dp885
g435
((lp886
F41.090000000000146
tp887
sg492
((lp888
F42.260000000000218
tp889
sg541
((lp890
F42.889999999999418
tp891
sg587
((lp892
F60.590000000000146
tp893
sg630
((lp894
F41.3700000000008
tp895
ssba(imeasure_core
ProblemSetSolution
p896
(dp897
g3
g4
sg167
S"AnytimeBeam-w20-gf(1.5, 'exp')_with_LinearHeuristic"
p898
sg170
(dp899
g8
((lp900
(F33.009999999998399
I223
tp901
aF40.009999999998399
tp902
sg48
((lp903
(F7.9400000000005093
I49
tp904
aF40.050000000001091
tp905
sg108
((lp906
(F3.6999999999989086
I6
tp907
aF41.079999999999927
tp908
sg140
((lp909
F40.420000000000073
tp910
sg78
((lp911
F40.260000000000218
tp912
ssba(imeasure_core
ProblemSetSolution
p913
(dp914
g3
g189
sg167
g898
sg170
(dp915
g192
((lp916
F40.069999999999709
tp917
sg236
((lp918
(F2.3999999999996362
I12
tp919
a(F28.659999999999854
I11
tp920
aF40.149999999999636
tp921
sg281
((lp922
F40.3700000000008
tp923
sg324
((lp924
F40.099999999998545
tp925
sg368
((lp926
F40.070000000001528
tp927
ssba(imeasure_core
ProblemSetSolution
p928
(dp929
g3
g432
sg167
g898
sg170
(dp930
g435
((lp931
F43.319999999999709
tp932
sg492
((lp933
F43.670000000000073
tp934
sg541
((lp935
F49.8799999999992
tp936
sg587
((lp937
F65.840000000000146
tp938
sg630
((lp939
F41.489999999999782
tp940
ssba(imeasure_core
ProblemSetSolution
p941
(dp942
g3
g4
sg167
S"AnytimeBeam-w20-gf(1.7, 'exp')_with_LinearHeuristic"
p943
sg170
(dp944
g8
((lp945
(F32.8799999999992
I223
tp946
aF40.069999999999709
tp947
sg48
((lp948
(F14.069999999999709
I49
tp949
aF40.010000000000218
tp950
sg108
((lp951
(F4.1399999999994179
I6
tp952
aF40.720000000001164
tp953
sg140
((lp954
F40.199999999998909
tp955
sg78
((lp956
F40.239999999999782
tp957
ssba(imeasure_core
ProblemSetSolution
p958
(dp959
g3
g189
sg167
g943
sg170
(dp960
g192
((lp961
F40.770000000000437
tp962
sg236
((lp963
(F2.3999999999996362
I12
tp964
a(F29.369999999998981
I11
tp965
aF40.1299999999992
tp966
sg281
((lp967
F40.5
tp968
sg324
((lp969
F40.110000000000582
tp970
sg368
((lp971
F40.110000000000582
tp972
ssba(imeasure_core
ProblemSetSolution
p973
(dp974
g3
g432
sg167
g943
sg170
(dp975
g435
((lp976
F43.5
tp977
sg492
((lp978
F43.829999999999927
tp979
sg541
((lp980
F49.93999999999869
tp981
sg587
((lp982
F65.770000000000437
tp983
sg630
((lp984
F41.390000000001237
tp985
ssba(imeasure_core
ProblemSetSolution
p986
(dp987
g3
g4
sg167
S"AnytimeBeam-w20-gf(1.8999999999999999, 'exp')_with_LinearHeuristic"
p988
sg170
(dp989
g8
((lp990
(F33.019999999998618
I223
tp991
aF40.029999999998836
tp992
sg48
((lp993
(F22.420000000000073
I49
tp994
aF40.030000000000655
tp995
sg108
((lp996
(F5.2199999999993452
I6
tp997
aF40.559999999999491
tp998
sg140
((lp999
F40.090000000000146
tp1000
sg78
((lp1001
F40.100000000000364
tp1002
ssba(imeasure_core
ProblemSetSolution
p1003
(dp1004
g3
g189
sg167
g988
sg170
(dp1005
g192
((lp1006
F41.109999999998763
tp1007
sg236
((lp1008
(F2.4100000000016735
I12
tp1009
a(F29.320000000001528
I11
tp1010
aF40.170000000000073
tp1011
sg281
((lp1012
F40.6200000000008
tp1013
sg324
((lp1014
F40.280000000000655
tp1015
sg368
((lp1016
F40.119999999998981
tp1017
ssba(imeasure_core
ProblemSetSolution
p1018
(dp1019
g3
g432
sg167
g988
sg170
(dp1020
g435
((lp1021
F43.420000000000073
tp1022
sg492
((lp1023
F43.739999999999782
tp1024
sg541
((lp1025
F50.010000000000218
tp1026
sg587
((lp1027
F65.850000000000364
tp1028
sg630
((lp1029
F41.360000000000582
tp1030
ssba.