(lp0
(imeasure_core
ProblemSetSolution
p1
(dp2
S'roomset'
p3
(imeasure_core
RoomSet
p4
(dp5
S'rooms'
p6
(dp7
(iproblems
RoomID
p8
(dp9
S'dusts'
p10
I8
sS'obstacles'
p11
(I0
I4
tp12
sS'robots'
p13
I4
sS'height'
p14
I7
sS'width'
p15
I9
sS'seed'
p16
I1689441204489037471
sb(imulti_robot_problem
MultiRobotState
p17
(dp18
S'obstacle_locations'
p19
c__builtin__
frozenset
p20
((lp21
(I0
I1
tp22
a(I1
I2
tp23
a(I3
I2
tp24
a(I8
I1
tp25
a(I4
I3
tp26
ag12
a(I0
I3
tp27
a(I4
I0
tp28
atp29
Rp30
sg15
I9
sS'dirt_locations'
p31
g20
((lp32
(I0
I0
tp33
a(I7
I0
tp34
a(I7
I6
tp35
a(I1
I4
tp36
a(I6
I2
tp37
a(I2
I3
tp38
a(I5
I1
tp39
a(I3
I5
tp40
atp41
Rp42
sg13
((I6
I0
tp43
(I5
I4
tp44
(I6
I6
tp45
(I5
I0
tp46
tp47
sg14
I7
sbs(iproblems
RoomID
p48
(dp49
g10
I10
sg11
(I4
I5
tp50
sg13
I3
sg14
I8
sg15
I10
sg16
I6660334802794327005
sb(imulti_robot_problem
MultiRobotState
p51
(dp52
g19
g20
((lp53
(I9
I0
tp54
a(I2
I6
tp55
a(I1
I6
tp56
a(I3
I6
tp57
ag50
a(I8
I4
tp58
atp59
Rp60
sg15
I10
sg31
g20
((lp61
(I9
I1
tp62
a(I5
I6
tp63
a(I9
I6
tp64
a(I1
I5
tp65
a(I7
I5
tp66
a(I9
I4
tp67
a(I1
I7
tp68
a(I4
I1
tp69
a(I7
I2
tp70
a(I8
I2
tp71
atp72
Rp73
sg13
((I7
I3
tp74
(I4
I7
tp75
(I4
I2
tp76
tp77
sg14
I8
sbs(iproblems
RoomID
p78
(dp79
g10
I7
sg11
(I2
I5
tp80
sg13
I5
sg14
I9
sg15
I9
sg16
I4640892725076559864
sb(imulti_robot_problem
MultiRobotState
p81
(dp82
g19
g20
((lp83
(I2
I6
tp84
a(I6
I7
tp85
a(I0
I6
tp86
a(I3
I1
tp87
a(I1
I5
tp88
a(I1
I6
tp89
a(I0
I4
tp90
ag80
a(I3
I4
tp91
atp92
Rp93
sg15
I9
sg31
g20
((lp94
(I3
I8
tp95
a(I7
I3
tp96
a(I7
I1
tp97
a(I8
I1
tp98
a(I8
I6
tp99
a(I4
I2
tp100
a(I5
I3
tp101
atp102
Rp103
sg13
((I6
I5
tp104
(I8
I4
tp105
(I7
I6
tp106
(I6
I0
tp107
(I6
I3
tp108
tp109
sg14
I9
sbs(iproblems
RoomID
p110
(dp111
g10
I6
sg11
(I3
I0
tp112
sg13
I4
sg14
I10
sg15
I7
sg16
I3914746131789064238
sb(imulti_robot_problem
MultiRobotState
p113
(dp114
g19
g20
((lp115
g112
a(I6
I1
tp116
a(I2
I3
tp117
a(I5
I0
tp118
a(I2
I2
tp119
a(I0
I3
tp120
a(I0
I8
tp121
a(I4
I1
tp122
a(I3
I5
tp123
atp124
Rp125
sg15
I7
sg31
g20
((lp126
(I6
I5
tp127
a(I3
I3
tp128
a(I1
I7
tp129
a(I0
I4
tp130
a(I3
I4
tp131
a(I0
I7
tp132
atp133
Rp134
sg13
((I1
I8
tp135
(I5
I1
tp136
(I5
I3
tp137
(I1
I9
tp138
tp139
sg14
I10
sbs(iproblems
RoomID
p140
(dp141
g10
I6
sg11
(I8
I4
tp142
sg13
I4
sg14
I10
sg15
I9
sg16
I3119042104763040036
sb(imulti_robot_problem
MultiRobotState
p143
(dp144
g19
g20
((lp145
(I1
I2
tp146
a(I6
I7
tp147
a(I4
I8
tp148
a(I7
I6
tp149
a(I8
I5
tp150
ag142
atp151
Rp152
sg15
I9
sg31
g20
((lp153
(I6
I8
tp154
a(I8
I7
tp155
a(I6
I6
tp156
a(I3
I0
tp157
a(I7
I2
tp158
a(I6
I5
tp159
atp160
Rp161
sg13
((I5
I9
tp162
(I6
I1
tp163
(I3
I4
tp164
(I2
I7
tp165
tp166
sg14
I10
sbssS'name'
p167
S'easy_roomset'
p168
sbsg167
S"AnytimeBeam-w5-gf(1.5, 'exp')_with_PowerHeuristic2"
p169
sS'solutions'
p170
(dp171
g8
((lp172
(F0.25
I8
tp173
aF40.159999999999854
tp174
sg48
((lp175
(F0.52000000000043656
I23
tp176
aF40.020000000000437
tp177
sg78
((lp178
(F6.180000000000291
I6
tp179
aF40.409999999999854
tp180
sg110
((lp181
(F0.62999999999919964
I7
tp182
aF40.029999999998836
tp183
sg140
((lp184
(F1.8100000000013097
I11
tp185
aF40.159999999999854
tp186
ssba(imeasure_core
ProblemSetSolution
p187
(dp188
g3
(imeasure_core
RoomSet
p189
(dp190
g6
(dp191
(iproblems
RoomID
p192
(dp193
g10
I6
sg11
(I5
I5
tp194
sg13
I4
sg14
I12
sg15
I11
sg16
I3119042104763040036
sb(imulti_robot_problem
MultiRobotState
p195
(dp196
g19
g20
((lp197
(I4
I6
tp198
a(I10
I4
tp199
a(I3
I0
tp200
a(I9
I8
tp201
a(I10
I6
tp202
a(I2
I1
tp203
a(I8
I9
tp204
a(I2
I3
tp205
a(I0
I10
tp206
a(I9
I5
tp207
a(I10
I3
tp208
a(I7
I9
tp209
ag194
a(I10
I7
tp210
a(I7
I8
tp211
a(I4
I4
tp212
a(I9
I2
tp213
a(I2
I4
tp214
a(I4
I5
tp215
a(I2
I2
tp216
a(I3
I3
tp217
a(I3
I4
tp218
a(I1
I1
tp219
atp220
Rp221
sg15
I11
sg31
g20
((lp222
(I8
I3
tp223
a(I8
I8
tp224
a(I5
I10
tp225
a(I9
I4
tp226
a(I8
I6
tp227
a(I10
I9
tp228
atp229
Rp230
sg13
((I6
I11
tp231
(I7
I2
tp232
(I2
I8
tp233
(I8
I10
tp234
tp235
sg14
I12
sbs(iproblems
RoomID
p236
(dp237
g10
I6
sg11
(I4
I8
tp238
sg13
I4
sg14
I12
sg15
I9
sg16
I3914746131789064238
sb(imulti_robot_problem
MultiRobotState
p239
(dp240
g19
g20
((lp241
(I4
I6
tp242
a(I6
I6
tp243
a(I4
I5
tp244
a(I5
I7
tp245
a(I0
I5
tp246
a(I0
I10
tp247
a(I8
I7
tp248
a(I7
I0
tp249
a(I0
I3
tp250
a(I8
I5
tp251
a(I4
I0
tp252
a(I2
I3
tp253
a(I6
I7
tp254
a(I3
I3
tp255
a(I8
I1
tp256
a(I7
I6
tp257
a(I3
I1
tp258
ag238
a(I5
I0
tp259
a(I2
I2
tp260
a(I0
I9
tp261
a(I8
I6
tp262
a(I5
I3
tp263
a(I6
I1
tp264
atp265
Rp266
sg15
I9
sg31
g20
((lp267
(I1
I8
tp268
a(I1
I9
tp269
a(I4
I3
tp270
a(I4
I4
tp271
a(I2
I11
tp272
a(I2
I10
tp273
atp274
Rp275
sg13
((I1
I10
tp276
(I6
I2
tp277
(I7
I3
tp278
(I1
I11
tp279
tp280
sg14
I12
sbs(iproblems
RoomID
p281
(dp282
g10
I9
sg11
(I9
I10
tp283
sg13
I3
sg14
I11
sg15
I10
sg16
I4253868527325451640
sb(imulti_robot_problem
MultiRobotState
p284
(dp285
g19
g20
((lp286
(I7
I3
tp287
a(I4
I7
tp288
a(I2
I6
tp289
a(I7
I10
tp290
a(I4
I8
tp291
a(I6
I9
tp292
ag283
a(I3
I9
tp293
a(I1
I6
tp294
a(I3
I7
tp295
a(I2
I5
tp296
a(I8
I5
tp297
a(I5
I8
tp298
a(I7
I9
tp299
a(I7
I1
tp300
a(I8
I10
tp301
a(I5
I0
tp302
a(I2
I3
tp303
a(I3
I5
tp304
a(I3
I4
tp305
a(I2
I4
tp306
atp307
Rp308
sg15
I10
sg31
g20
((lp309
(I8
I9
tp310
a(I5
I10
tp311
a(I6
I8
tp312
a(I7
I6
tp313
a(I3
I8
tp314
a(I0
I10
tp315
a(I9
I4
tp316
a(I0
I9
tp317
a(I5
I3
tp318
atp319
Rp320
sg13
((I3
I6
tp321
(I0
I8
tp322
(I2
I1
tp323
tp324
sg14
I11
sbs(iproblems
RoomID
p325
(dp326
g10
I9
sg11
(I9
I9
tp327
sg13
I3
sg14
I10
sg15
I10
sg16
I3273124617966689144
sb(imulti_robot_problem
MultiRobotState
p328
(dp329
g19
g20
((lp330
(I7
I3
tp331
a(I5
I4
tp332
a(I1
I3
tp333
a(I6
I4
tp334
a(I4
I5
tp335
a(I9
I8
tp336
a(I3
I2
tp337
a(I7
I5
tp338
a(I1
I6
tp339
a(I2
I5
tp340
a(I0
I8
tp341
a(I9
I6
tp342
a(I6
I5
tp343
a(I5
I3
tp344
a(I3
I3
tp345
a(I5
I5
tp346
a(I7
I6
tp347
ag327
a(I6
I3
tp348
a(I4
I3
tp349
a(I2
I3
tp350
a(I8
I6
tp351
a(I2
I4
tp352
a(I9
I7
tp353
atp354
Rp355
sg15
I10
sg31
g20
((lp356
(I7
I0
tp357
a(I3
I0
tp358
a(I6
I1
tp359
a(I3
I1
tp360
a(I5
I0
tp361
a(I2
I2
tp362
a(I3
I4
tp363
a(I1
I1
tp364
a(I8
I4
tp365
atp366
Rp367
sg13
((I0
I7
tp368
(I2
I1
tp369
(I6
I6
tp370
tp371
sg14
I10
sbs(iproblems
RoomID
p372
(dp373
g10
I5
sg11
(I5
I7
tp374
sg13
I4
sg14
I9
sg15
I12
sg16
I659184109953178577
sb(imulti_robot_problem
MultiRobotState
p375
(dp376
g19
g20
((lp377
(I7
I3
tp378
a(I4
I7
tp379
a(I8
I2
tp380
a(I6
I6
tp381
a(I4
I5
tp382
a(I7
I7
tp383
a(I11
I0
tp384
a(I7
I5
tp385
a(I9
I4
tp386
a(I2
I5
tp387
a(I0
I8
tp388
a(I10
I3
tp389
a(I7
I2
tp390
a(I4
I6
tp391
a(I6
I4
tp392
a(I4
I3
tp393
a(I3
I3
tp394
a(I6
I1
tp395
ag374
a(I6
I5
tp396
a(I3
I6
tp397
a(I8
I6
tp398
a(I3
I4
tp399
atp400
Rp401
sg15
I12
sg31
g20
((lp402
(I10
I8
tp403
a(I4
I1
tp404
a(I0
I2
tp405
a(I1
I6
tp406
a(I10
I4
tp407
atp408
Rp409
sg13
((I10
I0
tp410
(I7
I0
tp411
(I2
I6
tp412
(I8
I3
tp413
tp414
sg14
I9
sbssg167
S'mild_roomset'
p415
sbsg167
g169
sg170
(dp416
g192
((lp417
F40.31000000000131
tp418
sg236
((lp419
(F0.78999999999905413
I6
tp420
aF40.049999999999272
tp421
sg281
((lp422
(F0.90999999999985448
I32
tp423
aF40.149999999999636
tp424
sg325
((lp425
F40.070000000001528
tp426
sg372
((lp427
(F4.5499999999992724
I18
tp428
aF40.159999999999854
tp429
ssba(imeasure_core
ProblemSetSolution
p430
(dp431
g3
(imeasure_core
RoomSet
p432
(dp433
g6
(dp434
(iproblems
RoomID
p435
(dp436
g10
I13
sg11
(I3
I4
tp437
sg13
I6
sg14
I10
sg15
I12
sg16
I1689441204489037471
sb(imulti_robot_problem
MultiRobotState
p438
(dp439
g19
g20
((lp440
(I7
I3
tp441
a(I1
I3
tp442
a(I8
I7
tp443
a(I10
I6
tp444
a(I7
I7
tp445
a(I6
I2
tp446
a(I1
I6
tp447
a(I9
I4
tp448
a(I4
I2
tp449
a(I5
I1
tp450
a(I10
I3
tp451
a(I2
I7
tp452
a(I9
I3
tp453
a(I9
I5
tp454
a(I0
I5
tp455
a(I11
I5
tp456
a(I8
I5
tp457
a(I5
I2
tp458
a(I0
I2
tp459
a(I3
I8
tp460
a(I4
I3
tp461
a(I0
I4
tp462
ag437
a(I8
I6
tp463
a(I4
I1
tp464
a(I1
I1
tp465
a(I8
I4
tp466
atp467
Rp468
sg15
I12
sg31
g20
((lp469
(I8
I9
tp470
a(I9
I0
tp471
a(I0
I0
tp472
a(I10
I4
tp473
a(I4
I8
tp474
a(I8
I1
tp475
a(I11
I2
tp476
a(I5
I4
tp477
a(I7
I4
tp478
a(I11
I8
tp479
a(I2
I6
tp480
a(I2
I3
tp481
a(I1
I5
tp482
atp483
Rp484
sg13
((I8
I0
tp485
(I7
I6
tp486
(I8
I8
tp487
(I7
I0
tp488
(I2
I4
tp489
(I9
I9
tp490
tp491
sg14
I10
sbs(iproblems
RoomID
p492
(dp493
g10
I15
sg11
(I10
I7
tp494
sg13
I6
sg14
I11
sg15
I13
sg16
I6660334802794327005
sb(imulti_robot_problem
MultiRobotState
p495
(dp496
g19
g20
((lp497
(I4
I7
tp498
a(I11
I7
tp499
a(I5
I6
tp500
a(I2
I8
tp501
a(I9
I9
tp502
a(I9
I10
tp503
a(I10
I8
tp504
a(I9
I0
tp505
ag494
a(I5
I7
tp506
a(I8
I10
tp507
a(I3
I8
tp508
a(I1
I5
tp509
a(I1
I8
tp510
a(I1
I10
tp511
a(I10
I0
tp512
a(I2
I4
tp513
atp514
Rp515
sg15
I13
sg31
g20
((lp516
(I2
I7
tp517
a(I12
I2
tp518
a(I6
I9
tp519
a(I6
I10
tp520
a(I12
I1
tp521
a(I2
I9
tp522
a(I12
I0
tp523
a(I12
I9
tp524
a(I11
I2
tp525
a(I10
I6
tp526
a(I1
I7
tp527
a(I12
I5
tp528
a(I6
I3
tp529
a(I10
I3
tp530
a(I12
I8
tp531
atp532
Rp533
sg13
((I9
I5
tp534
(I5
I10
tp535
(I5
I3
tp536
(I5
I1
tp537
(I9
I3
tp538
(I7
I8
tp539
tp540
sg14
I11
sbs(iproblems
RoomID
p541
(dp542
g10
I11
sg11
(I6
I1
tp543
sg13
I7
sg14
I13
sg15
I10
sg16
I3914746131789064238
sb(imulti_robot_problem
MultiRobotState
p544
(dp545
g19
g20
((lp546
(I0
I0
tp547
a(I7
I0
tp548
a(I9
I1
tp549
a(I2
I9
tp550
a(I7
I1
tp551
a(I9
I2
tp552
ag543
a(I6
I3
tp553
a(I8
I1
tp554
a(I7
I2
tp555
a(I5
I1
tp556
a(I7
I8
tp557
a(I6
I5
tp558
a(I5
I5
tp559
atp560
Rp561
sg15
I10
sg31
g20
((lp562
(I4
I7
tp563
a(I3
I3
tp564
a(I4
I5
tp565
a(I4
I4
tp566
a(I1
I4
tp567
a(I0
I11
tp568
a(I0
I5
tp569
a(I0
I10
tp570
a(I8
I7
tp571
a(I9
I5
tp572
a(I5
I3
tp573
atp574
Rp575
sg13
((I1
I11
tp576
(I8
I4
tp577
(I2
I12
tp578
(I1
I9
tp579
(I2
I11
tp580
(I5
I4
tp581
(I5
I0
tp582
tp583
sg14
I13
sbs(iproblems
RoomID
p584
(dp585
g10
I11
sg11
(I7
I6
tp586
sg13
I7
sg14
I13
sg15
I12
sg16
I3119042104763040036
sb(imulti_robot_problem
MultiRobotState
p587
(dp588
g19
g20
((lp589
(I5
I4
tp590
a(I4
I5
tp591
a(I9
I8
tp592
a(I10
I6
tp593
a(I9
I0
tp594
a(I6
I0
tp595
a(I8
I9
tp596
a(I2
I12
tp597
a(I9
I6
tp598
a(I10
I5
tp599
a(I5
I10
tp600
a(I10
I7
tp601
ag586
a(I9
I9
tp602
a(I8
I6
tp603
a(I11
I6
tp604
a(I9
I7
tp605
atp606
Rp607
sg15
I12
sg31
g20
((lp608
(I1
I2
tp609
a(I4
I4
tp610
a(I5
I11
tp611
a(I5
I6
tp612
a(I3
I4
tp613
a(I8
I0
tp614
a(I8
I10
tp615
a(I0
I11
tp616
a(I2
I3
tp617
a(I7
I8
tp618
a(I4
I0
tp619
atp620
Rp621
sg13
((I7
I12
tp622
(I8
I2
tp623
(I4
I6
tp624
(I3
I9
tp625
(I9
I11
tp626
(I11
I9
tp627
(I9
I3
tp628
tp629
sg14
I13
sbs(iproblems
RoomID
p630
(dp631
g10
I12
sg11
(I8
I7
tp632
sg13
I7
sg14
I12
sg15
I12
sg16
I4640892725076559864
sb(imulti_robot_problem
MultiRobotState
p633
(dp634
g19
g20
((lp635
(I5
I9
tp636
a(I6
I9
tp637
a(I4
I8
tp638
a(I5
I6
tp639
a(I2
I8
tp640
a(I6
I0
tp641
a(I2
I10
tp642
a(I0
I9
tp643
a(I6
I2
tp644
ag632
a(I3
I7
tp645
a(I5
I1
tp646
a(I1
I0
tp647
a(I8
I5
tp648
a(I7
I9
tp649
a(I7
I4
tp650
a(I7
I0
tp651
a(I6
I8
tp652
a(I2
I9
tp653
a(I0
I6
tp654
a(I7
I6
tp655
a(I5
I7
tp656
a(I8
I10
tp657
a(I0
I2
tp658
a(I6
I3
tp659
a(I2
I0
tp660
a(I1
I8
tp661
a(I4
I5
tp662
a(I5
I2
tp663
a(I1
I1
tp664
a(I9
I7
tp665
atp666
Rp667
sg15
I12
sg31
g20
((lp668
(I2
I7
tp669
a(I6
I4
tp670
a(I11
I10
tp671
a(I4
I6
tp672
a(I11
I8
tp673
a(I11
I2
tp674
a(I9
I3
tp675
a(I3
I2
tp676
a(I8
I8
tp677
a(I0
I5
tp678
a(I10
I3
tp679
a(I5
I3
tp680
atp681
Rp682
sg13
((I8
I6
tp683
(I11
I5
tp684
(I10
I8
tp685
(I9
I0
tp686
(I9
I4
tp687
(I9
I2
tp688
(I4
I11
tp689
tp690
sg14
I12
sbssg167
S'heavy_roomset'
p691
sbsg167
g169
sg170
(dp692
g435
((lp693
F40.209999999999127
tp694
sg492
((lp695
(F38.049999999999272
I11
tp696
aF45.0
tp697
sg541
((lp698
F44.360000000000582
tp699
sg584
((lp700
F68.639999999999418
tp701
sg630
((lp702
F41.559999999999491
tp703
ssba(imeasure_core
ProblemSetSolution
p704
(dp705
g3
g4
sg167
S"AnytimeBeam-w15-gf(1.5, 'exp')_with_PowerHeuristic2"
p706
sg170
(dp707
g8
((lp708
(F0.32000000000152795
I8
tp709
aF40.159999999999854
tp710
sg48
((lp711
(F0.51000000000021828
I23
tp712
aF40.030000000000655
tp713
sg78
((lp714
(F6.1300000000010186
I6
tp715
aF40.719999999999345
tp716
sg110
((lp717
(F0.63000000000101863
I7
tp718
aF40.010000000000218
tp719
sg140
((lp720
(F1.8100000000013097
I11
tp721
aF40.090000000000146
tp722
ssba(imeasure_core
ProblemSetSolution
p723
(dp724
g3
g189
sg167
g706
sg170
(dp725
g192
((lp726
F40.200000000000728
tp727
sg236
((lp728
(F0.7999999999992724
I6
tp729
aF40.1299999999992
tp730
sg281
((lp731
(F0.8999999999996362
I32
tp732
aF40.069999999999709
tp733
sg325
((lp734
F40.110000000000582
tp735
sg372
((lp736
(F4.5799999999999272
I18
tp737
aF40.159999999999854
tp738
ssba(imeasure_core
ProblemSetSolution
p739
(dp740
g3
g432
sg167
g706
sg170
(dp741
g435
((lp742
F41.079999999999927
tp743
sg492
((lp744
(F38.030000000000655
I11
tp745
aF44.960000000000946
tp746
sg541
((lp747
F44.399999999999636
tp748
sg584
((lp749
F68.559999999999491
tp750
sg630
((lp751
F41.389999999999418
tp752
ssba(imeasure_core
ProblemSetSolution
p753
(dp754
g3
g4
sg167
S"AnytimeBeam-w25-gf(1.5, 'exp')_with_PowerHeuristic2"
p755
sg170
(dp756
g8
((lp757
(F0.38000000000101863
I8
tp758
aF40.329999999999927
tp759
sg48
((lp760
(F0.51000000000021828
I23
tp761
aF40.0
tp762
sg78
((lp763
(F6.1600000000016735
I6
tp764
aF40.270000000000437
tp765
sg110
((lp766
(F0.63000000000101863
I7
tp767
aF40.059999999999491
tp768
sg140
((lp769
(F1.8100000000013097
I11
tp770
aF40.070000000001528
tp771
ssba(imeasure_core
ProblemSetSolution
p772
(dp773
g3
g189
sg167
g755
sg170
(dp774
g192
((lp775
F40.170000000000073
tp776
sg236
((lp777
(F0.7999999999992724
I6
tp778
aF40.019999999998618
tp779
sg281
((lp780
(F0.90000000000145519
I32
tp781
aF40.079999999999927
tp782
sg325
((lp783
F40.130000000001019
tp784
sg372
((lp785
(F4.5599999999994907
I18
tp786
aF40.180000000000291
tp787
ssba(imeasure_core
ProblemSetSolution
p788
(dp789
g3
g432
sg167
g755
sg170
(dp790
g435
((lp791
F40.149999999999636
tp792
sg492
((lp793
(F37.899999999999636
I11
tp794
aF44.799999999999272
tp795
sg541
((lp796
F44.180000000000291
tp797
sg584
((lp798
F68.440000000000509
tp799
sg630
((lp800
F41.479999999999563
tp801
ssba(imeasure_core
ProblemSetSolution
p802
(dp803
g3
g4
sg167
S"AnytimeBeam-w35-gf(1.5, 'exp')_with_PowerHeuristic2"
p804
sg170
(dp805
g8
((lp806
(F0.43000000000029104
I8
tp807
aF40.0
tp808
sg48
((lp809
(F0.51000000000021828
I23
tp810
aF40.030000000000655
tp811
sg78
((lp812
(F6.1499999999996362
I6
tp813
aF40.269999999998618
tp814
sg110
((lp815
(F0.64000000000123691
I7
tp816
aF40.360000000000582
tp817
sg140
((lp818
(F1.7999999999992724
I11
tp819
aF40.460000000000946
tp820
ssba(imeasure_core
ProblemSetSolution
p821
(dp822
g3
g189
sg167
g804
sg170
(dp823
g192
((lp824
F40.109999999998763
tp825
sg236
((lp826
(F0.80000000000109139
I6
tp827
aF40.130000000001019
tp828
sg281
((lp829
(F0.8999999999996362
I32
tp830
aF40.1299999999992
tp831
sg325
((lp832
F40.049999999999272
tp833
sg372
((lp834
(F4.570000000001528
I18
tp835
aF40.280000000000655
tp836
ssba(imeasure_core
ProblemSetSolution
p837
(dp838
g3
g432
sg167
g804
sg170
(dp839
g435
((lp840
F40.3700000000008
tp841
sg492
((lp842
(F37.859999999998763
I11
tp843
aF44.769999999998618
tp844
sg541
((lp845
F44.430000000000291
tp846
sg584
((lp847
F68.850000000000364
tp848
sg630
((lp849
F41.409999999999854
tp850
ssba(imeasure_core
ProblemSetSolution
p851
(dp852
g3
g4
sg167
S"AnytimeBeam-w45-gf(1.5, 'exp')_with_PowerHeuristic2"
p853
sg170
(dp854
g8
((lp855
(F0.48999999999978172
I8
tp856
aF40.069999999999709
tp857
sg48
((lp858
(F0.53000000000065484
I23
tp859
aF40.069999999999709
tp860
sg78
((lp861
(F6.1599999999998545
I6
tp862
aF40.270000000000437
tp863
sg110
((lp864
(F0.63000000000101863
I7
tp865
aF40.159999999999854
tp866
sg140
((lp867
(F1.8099999999994907
I11
tp868
aF40.470000000001164
tp869
ssba(imeasure_core
ProblemSetSolution
p870
(dp871
g3
g189
sg167
g853
sg170
(dp872
g192
((lp873
F40.420000000000073
tp874
sg236
((lp875
(F0.80999999999949068
I6
tp876
aF40.039999999999054
tp877
sg281
((lp878
(F0.88999999999941792
I32
tp879
aF40.020000000000437
tp880
sg325
((lp881
F40.069999999999709
tp882
sg372
((lp883
(F4.5399999999990541
I18
tp884
aF40.190000000000509
tp885
ssba(imeasure_core
ProblemSetSolution
p886
(dp887
g3
g432
sg167
g853
sg170
(dp888
g435
((lp889
F40.170000000000073
tp890
sg492
((lp891
(F37.989999999999782
I11
tp892
aF44.899999999999636
tp893
sg541
((lp894
F44.350000000000364
tp895
sg584
((lp896
F68.5
tp897
sg630
((lp898
F41.429999999998472
tp899
ssba(imeasure_core
ProblemSetSolution
p900
(dp901
g3
g4
sg167
S"AnytimeBeam-w5-gf(1.5, 'exp')_with_LinearHeuristic"
p902
sg170
(dp903
g8
((lp904
F40.030000000000655
tp905
sg48
((lp906
(F2.9500000000007276
I49
tp907
aF40.059999999999491
tp908
sg78
((lp909
(F3.2000000000007276
I6
tp910
aF41.010000000000218
tp911
sg110
((lp912
F40.140000000001237
tp913
sg140
((lp914
F40.399999999999636
tp915
ssba(imeasure_core
ProblemSetSolution
p916
(dp917
g3
g189
sg167
g902
sg170
(dp918
g192
((lp919
F40.539999999999054
tp920
sg236
((lp921
(F2.4200000000000728
I12
tp922
a(F29.3700000000008
I11
tp923
aF40.190000000000509
tp924
sg281
((lp925
F40.069999999999709
tp926
sg325
((lp927
F40.010000000000218
tp928
sg372
((lp929
F40.819999999999709
tp930
ssba(imeasure_core
ProblemSetSolution
p931
(dp932
g3
g432
sg167
g902
sg170
(dp933
g435
((lp934
F43.670000000000073
tp935
sg492
((lp936
F43.930000000000291
tp937
sg541
((lp938
F66.030000000000655
tp939
sg584
((lp940
F50.199999999998909
tp941
sg630
((lp942
F41.549999999999272
tp943
ssba(imeasure_core
ProblemSetSolution
p944
(dp945
g3
g4
sg167
S"AnytimeBeam-w15-gf(1.5, 'exp')_with_LinearHeuristic"
p946
sg170
(dp947
g8
((lp948
F40.0
tp949
sg48
((lp950
(F6.0800000000017462
I49
tp951
aF40.020000000000437
tp952
sg78
((lp953
(F2.9000000000014552
I6
tp954
aF40.229999999999563
tp955
sg110
((lp956
F40.240000000001601
tp957
sg140
((lp958
F40.069999999999709
tp959
ssba(imeasure_core
ProblemSetSolution
p960
(dp961
g3
g189
sg167
g946
sg170
(dp962
g192
((lp963
F40.200000000000728
tp964
sg236
((lp965
(F2.3999999999978172
I12
tp966
a(F29.409999999999854
I11
tp967
aF40.020000000000437
tp968
sg281
((lp969
F40.180000000000291
tp970
sg325
((lp971
F40.069999999999709
tp972
sg372
((lp973
F40.609999999996944
tp974
ssba(imeasure_core
ProblemSetSolution
p975
(dp976
g3
g432
sg167
g946
sg170
(dp977
g435
((lp978
F43.360000000000582
tp979
sg492
((lp980
F43.539999999997235
tp981
sg541
((lp982
F66.040000000000873
tp983
sg584
((lp984
F49.900000000001455
tp985
sg630
((lp986
F41.709999999999127
tp987
ssba(imeasure_core
ProblemSetSolution
p988
(dp989
g3
g4
sg167
S"AnytimeBeam-w25-gf(1.5, 'exp')_with_LinearHeuristic"
p990
sg170
(dp991
g8
((lp992
(F33.639999999999418
I223
tp993
aF40.039999999997235
tp994
sg48
((lp995
(F14.049999999999272
I49
tp996
aF40.030000000002474
tp997
sg78
((lp998
(F3.1199999999989814
I6
tp999
aF40.119999999998981
tp1000
sg110
((lp1001
F40.020000000000437
tp1002
sg140
((lp1003
F40.129999999997381
tp1004
ssba(imeasure_core
ProblemSetSolution
p1005
(dp1006
g3
g189
sg167
g990
sg170
(dp1007
g192
((lp1008
F41.020000000000437
tp1009
sg236
((lp1010
(F2.4000000000014552
I12
tp1011
a(F29.440000000002328
I11
tp1012
aF40.280000000002474
tp1013
sg281
((lp1014
F40.090000000000146
tp1015
sg325
((lp1016
F40.119999999998981
tp1017
sg372
((lp1018
F40.979999999999563
tp1019
ssba(imeasure_core
ProblemSetSolution
p1020
(dp1021
g3
g432
sg167
g990
sg170
(dp1022
g435
((lp1023
F43.409999999999854
tp1024
sg492
((lp1025
F43.680000000000291
tp1026
sg541
((lp1027
F65.650000000001455
tp1028
sg584
((lp1029
F49.819999999999709
tp1030
sg630
((lp1031
F41.539999999997235
tp1032
ssba(imeasure_core
ProblemSetSolution
p1033
(dp1034
g3
g4
sg167
S"AnytimeBeam-w35-gf(1.5, 'exp')_with_LinearHeuristic"
p1035
sg170
(dp1036
g8
((lp1037
(F37.889999999999418
I223
tp1038
aF40.040000000000873
tp1039
sg48
((lp1040
(F24.840000000000146
I49
tp1041
aF40.059999999997672
tp1042
sg78
((lp1043
(F3.3700000000026193
I6
tp1044
aF41.170000000001892
tp1045
sg110
((lp1046
F40.239999999997963
tp1047
sg140
((lp1048
F40.470000000001164
tp1049
ssba(imeasure_core
ProblemSetSolution
p1050
(dp1051
g3
g189
sg167
g1035
sg170
(dp1052
g192
((lp1053
F40.760000000002037
tp1054
sg236
((lp1055
(F2.3999999999978172
I12
tp1056
a(F29.509999999998399
I11
tp1057
aF40.079999999998108
tp1058
sg281
((lp1059
F40.130000000001019
tp1060
sg325
((lp1061
F40.080000000001746
tp1062
sg372
((lp1063
F40.709999999999127
tp1064
ssba(imeasure_core
ProblemSetSolution
p1065
(dp1066
g3
g432
sg167
g1035
sg170
(dp1067
g435
((lp1068
F43.30000000000291
tp1069
sg492
((lp1070
F43.629999999997381
tp1071
sg541
((lp1072
F66.030000000002474
tp1073
sg584
((lp1074
F49.959999999999127
tp1075
sg630
((lp1076
F41.549999999999272
tp1077
ssba(imeasure_core
ProblemSetSolution
p1078
(dp1079
g3
g4
sg167
S"AnytimeBeam-w45-gf(1.5, 'exp')_with_LinearHeuristic"
p1080
sg170
(dp1081
g8
((lp1082
(F39.630000000001019
I223
tp1083
aF40.020000000000437
tp1084
sg48
((lp1085
(F31.389999999999418
I49
tp1086
aF40.029999999998836
tp1087
sg78
((lp1088
(F3.6900000000023283
I6
tp1089
aF41.110000000000582
tp1090
sg110
((lp1091
F40.619999999998981
tp1092
sg140
((lp1093
F40.420000000001892
tp1094
ssba(imeasure_core
ProblemSetSolution
p1095
(dp1096
g3
g189
sg167
g1080
sg170
(dp1097
g192
((lp1098
F40.610000000000582
tp1099
sg236
((lp1100
(F2.4099999999998545
I12
tp1101
a(F29.630000000001019
I11
tp1102
aF40.159999999999854
tp1103
sg281
((lp1104
F40.100000000002183
tp1105
sg325
((lp1106
F40.079999999998108
tp1107
sg372
((lp1108
F40.650000000001455
tp1109
ssba(imeasure_core
ProblemSetSolution
p1110
(dp1111
g3
g432
sg167
g1080
sg170
(dp1112
g435
((lp1113
F43.509999999998399
tp1114
sg492
((lp1115
F43.790000000000873
tp1116
sg541
((lp1117
F65.819999999999709
tp1118
sg584
((lp1119
F49.819999999999709
tp1120
sg630
((lp1121
F41.680000000000291
tp1122
ssba.