(lp0
(imeasure_core
ProblemSetSolution
p1
(dp2
S'roomset'
p3
(imeasure_core
RoomSet
p4
(dp5
S'rooms'
p6
(dp7
(iproblems
RoomID
p8
(dp9
S'dusts'
p10
I10
sS'obstacles'
p11
(I0
I8
tp12
sS'robots'
p13
I4
sS'height'
p14
I10
sS'width'
p15
I9
sS'seed'
p16
I4712128852136459333
sb(imulti_robot_problem
MultiRobotState
p17
(dp18
S'obstacle_locations'
p19
c__builtin__
frozenset
p20
((lp21
(I0
I6
tp22
ag12
a(I2
I3
tp23
a(I1
I5
tp24
a(I8
I0
tp25
a(I1
I1
tp26
a(I0
I7
tp27
atp28
Rp29
sg15
I9
sS'dirt_locations'
p30
g20
((lp31
(I4
I7
tp32
a(I1
I3
tp33
a(I4
I9
tp34
a(I8
I1
tp35
a(I7
I6
tp36
a(I2
I6
tp37
a(I8
I7
tp38
a(I2
I2
tp39
a(I4
I1
tp40
a(I2
I4
tp41
atp42
Rp43
sg13
((I5
I8
tp44
(I6
I9
tp45
(I5
I0
tp46
(I3
I1
tp47
tp48
sg14
I10
sbs(iproblems
RoomID
p49
(dp50
g10
I9
sg11
(I3
I4
tp51
sg13
I1
sg14
I7
sg15
I8
sg16
I6613812840851947673
sb(imulti_robot_problem
MultiRobotState
p52
(dp53
g19
g20
((lp54
(I3
I5
tp55
ag51
a(I2
I4
tp56
a(I2
I1
tp57
a(I1
I4
tp58
atp59
Rp60
sg15
I8
sg30
g20
((lp61
(I6
I4
tp62
a(I5
I4
tp63
a(I6
I0
tp64
a(I7
I5
tp65
a(I1
I6
tp66
a(I2
I2
tp67
a(I0
I5
tp68
a(I4
I1
tp69
a(I4
I0
tp70
atp71
Rp72
sg13
((I3
I1
tp73
tp74
sg14
I7
sbs(iproblems
RoomID
p75
(dp76
g10
I10
sg11
(I4
I5
tp77
sg13
I1
sg14
I8
sg15
I8
sg16
I2893396244277848635
sb(imulti_robot_problem
MultiRobotState
p78
(dp79
g19
g20
((lp80
g77
a(I3
I7
tp81
a(I2
I6
tp82
a(I4
I6
tp83
atp84
Rp85
sg15
I8
sg30
g20
((lp86
(I6
I4
tp87
a(I0
I0
tp88
a(I6
I7
tp89
a(I3
I0
tp90
a(I2
I1
tp91
a(I0
I6
tp92
a(I7
I2
tp93
a(I2
I4
tp94
a(I6
I5
tp95
a(I5
I3
tp96
atp97
Rp98
sg13
((I2
I3
tp99
tp100
sg14
I8
sbs(iproblems
RoomID
p101
(dp102
g10
I9
sg11
(I5
I3
tp103
sg13
I3
sg14
I7
sg15
I8
sg16
I4594210616595436404
sb(imulti_robot_problem
MultiRobotState
p104
(dp105
g19
g20
((lp106
(I0
I1
tp107
a(I3
I3
tp108
a(I4
I3
tp109
a(I4
I2
tp110
a(I6
I1
tp111
ag103
atp112
Rp113
sg15
I8
sg30
g20
((lp114
(I6
I6
tp115
a(I5
I6
tp116
a(I4
I4
tp117
a(I1
I4
tp118
a(I0
I6
tp119
a(I5
I1
tp120
a(I1
I0
tp121
a(I0
I3
tp122
a(I1
I1
tp123
atp124
Rp125
sg13
((I2
I1
tp126
(I3
I4
tp127
(I3
I6
tp128
tp129
sg14
I7
sbs(iproblems
RoomID
p130
(dp131
g10
I10
sg11
(I4
I8
tp132
sg13
I4
sg14
I10
sg15
I7
sg16
I956523682424107605
sb(imulti_robot_problem
MultiRobotState
p133
(dp134
g19
g20
((lp135
(I2
I8
tp136
ag132
a(I3
I7
tp137
a(I2
I9
tp138
a(I4
I2
tp139
atp140
Rp141
sg15
I7
sg30
g20
((lp142
(I5
I9
tp143
a(I4
I7
tp144
a(I1
I3
tp145
a(I3
I3
tp146
a(I5
I5
tp147
a(I6
I1
tp148
a(I5
I4
tp149
a(I0
I4
tp150
a(I5
I2
tp151
a(I5
I3
tp152
atp153
Rp154
sg13
((I1
I9
tp155
(I4
I9
tp156
(I1
I8
tp157
(I0
I3
tp158
tp159
sg14
I10
sbssS'name'
p160
S'easy_roomset'
p161
sbsg160
S"AnytimeBeam-w5-gf(1.3, 'exp')_with_PowerHeuristic2"
p162
sS'solutions'
p163
(dp164
g8
((lp165
(F1.8400000000001455
I51
tp166
aF40.040000000000873
tp167
sg49
((lp168
(F0.049999999999272404
I44
tp169
a(F0.20999999999912689
I36
tp170
a(F2.7700000000004366
I30
tp171
a(F3.4899999999979627
I29
tp172
a(F8.3999999999978172
I28
tp173
a(F15.349999999998545
I27
tp174
a(F27.659999999999854
I26
tp175
a(F38.159999999999854
I25
tp176
aF40.0
tp177
sg130
((lp178
(F0.27000000000043656
I10
tp179
aF40.319999999999709
tp180
sg101
((lp181
(F1.0900000000001455
I31
tp182
a(F9.8800000000010186
I26
tp183
aF40.0
tp184
sg75
((lp185
(F0.61000000000058208
I76
tp186
a(F0.9500000000007276
I63
tp187
a(F2.0099999999983993
I61
tp188
a(F3.7700000000004366
I59
tp189
a(F4.5499999999992724
I57
tp190
a(F5.4700000000011642
I56
tp191
a(F6.680000000000291
I54
tp192
a(F7.819999999999709
I52
tp193
a(F9.7900000000008731
I51
tp194
a(F12.68999999999869
I50
tp195
a(F15.559999999997672
I48
tp196
a(F18.569999999999709
I46
tp197
a(F21.680000000000291
I44
tp198
a(F30.430000000000291
I43
tp199
a(F38.669999999998254
I42
tp200
aF40.0
tp201
ssba(imeasure_core
ProblemSetSolution
p202
(dp203
g3
(imeasure_core
RoomSet
p204
(dp205
g6
(dp206
(iproblems
RoomID
p207
(dp208
g10
I10
sg11
(I8
I7
tp209
sg13
I4
sg14
I12
sg15
I11
sg16
I4712128852136459333
sb(imulti_robot_problem
MultiRobotState
p210
(dp211
g19
g20
((lp212
(I6
I4
tp213
a(I4
I7
tp214
ag209
a(I4
I5
tp215
a(I3
I11
tp216
a(I0
I7
tp217
a(I7
I7
tp218
a(I1
I6
tp219
a(I1
I9
tp220
a(I2
I10
tp221
a(I4
I2
tp222
a(I1
I11
tp223
a(I6
I5
tp224
a(I5
I3
tp225
a(I9
I0
tp226
a(I0
I8
tp227
a(I5
I5
tp228
a(I7
I6
tp229
a(I3
I1
tp230
a(I2
I11
tp231
a(I0
I9
tp232
a(I2
I3
tp233
a(I4
I1
tp234
a(I1
I1
tp235
atp236
Rp237
sg15
I11
sg30
g20
((lp238
(I2
I7
tp239
a(I9
I1
tp240
a(I9
I8
tp241
a(I5
I1
tp242
a(I2
I5
tp243
a(I9
I7
tp244
a(I3
I4
tp245
a(I2
I4
tp246
a(I5
I8
tp247
a(I3
I3
tp248
atp249
Rp250
sg13
((I6
I10
tp251
(I8
I10
tp252
(I7
I0
tp253
(I5
I11
tp254
tp255
sg14
I12
sbs(iproblems
RoomID
p256
(dp257
g10
I9
sg11
(I4
I4
tp258
sg13
I3
sg14
I9
sg15
I10
sg16
I4594210616595436404
sb(imulti_robot_problem
MultiRobotState
p259
(dp260
g19
g20
((lp261
(I1
I3
tp262
a(I3
I0
tp263
a(I2
I1
tp264
a(I1
I6
tp265
a(I9
I4
tp266
a(I3
I7
tp267
a(I0
I3
tp268
a(I1
I2
tp269
a(I5
I5
tp270
a(I1
I5
tp271
a(I7
I6
tp272
ag258
a(I6
I3
tp273
a(I5
I6
tp274
a(I3
I6
tp275
a(I0
I4
tp276
a(I8
I6
tp277
a(I3
I5
tp278
a(I1
I1
tp279
a(I5
I4
tp280
a(I4
I5
tp281
a(I0
I5
tp282
a(I5
I3
tp283
a(I0
I1
tp284
a(I5
I2
tp285
a(I0
I6
tp286
a(I2
I0
tp287
a(I1
I8
tp288
a(I2
I3
tp289
a(I9
I5
tp290
a(I3
I4
tp291
a(I0
I2
tp292
atp293
Rp294
sg15
I10
sg30
g20
((lp295
(I7
I8
tp296
a(I7
I0
tp297
a(I6
I8
tp298
a(I2
I8
tp299
a(I8
I8
tp300
a(I0
I8
tp301
a(I8
I5
tp302
a(I5
I8
tp303
a(I8
I2
tp304
atp305
Rp306
sg13
((I4
I6
tp307
(I2
I5
tp308
(I6
I1
tp309
tp310
sg14
I9
sbs(iproblems
RoomID
p311
(dp312
g10
I6
sg11
(I8
I8
tp313
sg13
I4
sg14
I11
sg15
I12
sg16
I7529058068588108450
sb(imulti_robot_problem
MultiRobotState
p314
(dp315
g19
g20
((lp316
(I5
I9
tp317
a(I6
I9
tp318
a(I2
I6
tp319
a(I3
I2
tp320
a(I9
I1
tp321
a(I4
I10
tp322
a(I6
I6
tp323
a(I7
I7
tp324
a(I7
I1
tp325
a(I4
I6
tp326
a(I10
I4
tp327
a(I7
I5
tp328
a(I6
I8
tp329
a(I3
I7
tp330
a(I5
I8
tp331
a(I8
I2
tp332
a(I5
I5
tp333
a(I7
I6
tp334
a(I4
I4
tp335
a(I7
I4
tp336
a(I1
I5
tp337
ag313
a(I7
I2
tp338
a(I3
I6
tp339
a(I2
I2
tp340
a(I1
I10
tp341
a(I7
I8
tp342
a(I3
I10
tp343
atp344
Rp345
sg15
I12
sg30
g20
((lp346
(I7
I3
tp347
a(I0
I5
tp348
a(I4
I0
tp349
a(I11
I3
tp350
a(I11
I6
tp351
a(I6
I0
tp352
atp353
Rp354
sg13
((I11
I7
tp355
(I6
I2
tp356
(I11
I5
tp357
(I6
I7
tp358
tp359
sg14
I11
sbs(iproblems
RoomID
p360
(dp361
g10
I5
sg11
(I4
I9
tp362
sg13
I4
sg14
I11
sg15
I11
sg16
I1881095652490078568
sb(imulti_robot_problem
MultiRobotState
p363
(dp364
g19
g20
((lp365
(I6
I9
tp366
a(I6
I6
tp367
a(I4
I5
tp368
a(I2
I8
tp369
a(I9
I3
tp370
a(I4
I7
tp371
a(I7
I5
tp372
a(I5
I4
tp373
ag362
a(I6
I5
tp374
a(I3
I5
tp375
a(I7
I4
tp376
a(I1
I7
tp377
a(I6
I7
tp378
a(I4
I6
tp379
a(I7
I6
tp380
a(I4
I4
tp381
a(I8
I10
tp382
a(I6
I3
tp383
a(I7
I10
tp384
a(I2
I2
tp385
a(I4
I8
tp386
a(I7
I8
tp387
a(I1
I1
tp388
a(I8
I4
tp389
atp390
Rp391
sg15
I11
sg30
g20
((lp392
(I1
I10
tp393
a(I5
I9
tp394
a(I0
I0
tp395
a(I10
I2
tp396
a(I9
I7
tp397
atp398
Rp399
sg13
((I5
I7
tp400
(I8
I1
tp401
(I3
I1
tp402
(I8
I8
tp403
tp404
sg14
I11
sbs(iproblems
RoomID
p405
(dp406
g10
I8
sg11
(I5
I0
tp407
sg13
I4
sg14
I9
sg15
I9
sg16
I6858376947525423350
sb(imulti_robot_problem
MultiRobotState
p408
(dp409
g19
g20
((lp410
(I6
I4
tp411
a(I4
I7
tp412
a(I1
I3
tp413
a(I4
I3
tp414
a(I7
I1
tp415
a(I3
I0
tp416
a(I2
I8
tp417
a(I6
I0
tp418
a(I2
I1
tp419
a(I1
I6
tp420
a(I5
I1
tp421
a(I2
I5
tp422
a(I0
I8
tp423
a(I7
I2
tp424
a(I2
I7
tp425
a(I3
I8
tp426
a(I5
I5
tp427
a(I6
I1
tp428
a(I5
I7
tp429
a(I6
I3
tp430
a(I1
I8
tp431
ag407
a(I2
I2
tp432
a(I2
I3
tp433
a(I3
I4
tp434
a(I2
I4
tp435
atp436
Rp437
sg15
I9
sg30
g20
((lp438
(I8
I3
tp439
a(I7
I0
tp440
a(I4
I6
tp441
a(I6
I6
tp442
a(I7
I5
tp443
a(I8
I0
tp444
a(I8
I8
tp445
a(I8
I4
tp446
atp447
Rp448
sg13
((I1
I1
tp449
(I6
I5
tp450
(I8
I2
tp451
(I1
I5
tp452
tp453
sg14
I9
sbssg160
S'mild_roomset'
p454
sbsg160
g162
sg163
(dp455
g207
((lp456
(F0.9500000000007276
I23
tp457
aF40.069999999999709
tp458
sg256
((lp459
F40.070000000003347
tp460
sg311
((lp461
(F0.92999999999665306
I33
tp462
aF40.039999999997235
tp463
sg360
((lp464
(F0.12000000000261934
I7
tp465
aF40.020000000000437
tp466
sg405
((lp467
(F0.19000000000232831
I16
tp468
aF40.040000000000873
tp469
ssba(imeasure_core
ProblemSetSolution
p470
(dp471
g3
(imeasure_core
RoomSet
p472
(dp473
g6
(dp474
(iproblems
RoomID
p475
(dp476
g10
I15
sg11
(I5
I9
tp477
sg13
I7
sg14
I13
sg15
I12
sg16
I4712128852136459333
sb(imulti_robot_problem
MultiRobotState
p478
(dp479
g19
g20
((lp480
g477
a(I4
I9
tp481
a(I5
I5
tp482
a(I4
I12
tp483
a(I2
I8
tp484
a(I3
I1
tp485
a(I3
I9
tp486
a(I9
I4
tp487
a(I1
I7
tp488
a(I1
I10
tp489
a(I3
I12
tp490
a(I0
I8
tp491
a(I5
I2
tp492
atp493
Rp494
sg15
I12
sg30
g20
((lp495
(I6
I9
tp496
a(I3
I3
tp497
a(I1
I12
tp498
a(I5
I6
tp499
a(I7
I7
tp500
a(I3
I5
tp501
a(I3
I8
tp502
a(I8
I8
tp503
a(I10
I0
tp504
a(I2
I5
tp505
a(I10
I2
tp506
a(I3
I4
tp507
a(I1
I1
tp508
a(I5
I8
tp509
a(I9
I7
tp510
atp511
Rp512
sg13
((I6
I11
tp513
(I8
I11
tp514
(I7
I0
tp515
(I4
I1
tp516
(I6
I12
tp517
(I10
I9
tp518
(I6
I1
tp519
tp520
sg14
I13
sbs(iproblems
RoomID
p521
(dp522
g10
I14
sg11
(I5
I5
tp523
sg13
I5
sg14
I10
sg15
I11
sg16
I6613812840851947673
sb(imulti_robot_problem
MultiRobotState
p524
(dp525
g19
g20
((lp526
(I4
I7
tp527
a(I2
I6
tp528
a(I6
I6
tp529
a(I4
I5
tp530
a(I7
I5
tp531
a(I1
I6
tp532
a(I8
I7
tp533
a(I3
I7
tp534
a(I10
I3
tp535
a(I3
I5
tp536
a(I10
I8
tp537
a(I6
I3
tp538
ag523
a(I8
I5
tp539
a(I7
I4
tp540
a(I3
I8
tp541
a(I0
I6
tp542
a(I3
I6
tp543
a(I1
I3
tp544
a(I8
I6
tp545
a(I2
I4
tp546
atp547
Rp548
sg15
I11
sg30
g20
((lp549
(I6
I4
tp550
a(I3
I2
tp551
a(I4
I6
tp552
a(I4
I9
tp553
a(I3
I3
tp554
a(I9
I8
tp555
a(I8
I0
tp556
a(I8
I8
tp557
a(I5
I0
tp558
a(I1
I0
tp559
a(I8
I4
tp560
a(I5
I2
tp561
a(I6
I1
tp562
a(I9
I7
tp563
atp564
Rp565
sg13
((I5
I1
tp566
(I0
I8
tp567
(I2
I9
tp568
(I4
I1
tp569
(I7
I6
tp570
tp571
sg14
I10
sbs(iproblems
RoomID
p572
(dp573
g10
I13
sg11
(I1
I6
tp574
sg13
I7
sg14
I10
sg15
I10
sg16
I6858376947525423350
sb(imulti_robot_problem
MultiRobotState
p575
(dp576
g19
g20
((lp577
(I4
I7
tp578
a(I1
I3
tp579
a(I2
I8
tp580
a(I2
I2
tp581
a(I2
I1
tp582
a(I2
I3
tp583
a(I9
I5
tp584
a(I2
I5
tp585
a(I2
I7
tp586
a(I2
I9
tp587
a(I8
I1
tp588
ag574
a(I1
I7
tp589
a(I0
I9
tp590
a(I8
I6
tp591
a(I2
I4
tp592
atp593
Rp594
sg15
I10
sg30
g20
((lp595
(I8
I0
tp596
a(I4
I9
tp597
a(I3
I3
tp598
a(I3
I0
tp599
a(I7
I6
tp600
a(I5
I7
tp601
a(I9
I9
tp602
a(I4
I4
tp603
a(I6
I2
tp604
a(I9
I4
tp605
a(I8
I5
tp606
a(I5
I8
tp607
a(I5
I3
tp608
atp609
Rp610
sg13
((I1
I2
tp611
(I7
I5
tp612
(I7
I2
tp613
(I9
I2
tp614
(I1
I5
tp615
(I9
I0
tp616
(I6
I6
tp617
tp618
sg14
I10
sbs(iproblems
RoomID
p619
(dp620
g10
I15
sg11
(I6
I6
tp621
sg13
I5
sg14
I11
sg15
I11
sg16
I2893396244277848635
sb(imulti_robot_problem
MultiRobotState
p622
(dp623
g19
g20
((lp624
(I7
I3
tp625
a(I4
I7
tp626
a(I5
I5
tp627
a(I4
I8
tp628
a(I5
I6
tp629
a(I2
I8
tp630
ag621
a(I3
I2
tp631
a(I3
I9
tp632
a(I4
I3
tp633
a(I1
I7
tp634
a(I6
I9
tp635
atp636
Rp637
sg15
I11
sg30
g20
((lp638
(I2
I6
tp639
a(I8
I7
tp640
a(I3
I10
tp641
a(I3
I1
tp642
a(I2
I10
tp643
a(I0
I5
tp644
a(I6
I5
tp645
a(I3
I6
tp646
a(I8
I6
tp647
a(I4
I0
tp648
a(I3
I7
tp649
a(I7
I9
tp650
a(I4
I1
tp651
a(I5
I8
tp652
a(I5
I3
tp653
atp654
Rp655
sg13
((I4
I5
tp656
(I0
I9
tp657
(I0
I1
tp658
(I9
I2
tp659
(I8
I10
tp660
tp661
sg14
I11
sbs(iproblems
RoomID
p662
(dp663
g10
I15
sg11
(I4
I8
tp664
sg13
I6
sg14
I13
sg15
I10
sg16
I956523682424107605
sb(imulti_robot_problem
MultiRobotState
p665
(dp666
g19
g20
((lp667
(I5
I9
tp668
a(I6
I9
tp669
a(I7
I10
tp670
ag664
a(I5
I6
tp671
a(I3
I11
tp672
a(I9
I4
tp673
a(I4
I9
tp674
a(I5
I8
tp675
a(I2
I7
tp676
a(I5
I10
tp677
a(I5
I5
tp678
a(I3
I10
tp679
a(I5
I7
tp680
a(I9
I9
tp681
a(I5
I0
tp682
a(I7
I8
tp683
a(I1
I1
tp684
atp685
Rp686
sg15
I10
sg30
g20
((lp687
(I6
I10
tp688
a(I8
I3
tp689
a(I1
I3
tp690
a(I6
I6
tp691
a(I7
I6
tp692
a(I8
I12
tp693
a(I5
I4
tp694
a(I1
I4
tp695
a(I2
I10
tp696
a(I7
I4
tp697
a(I1
I5
tp698
a(I7
I5
tp699
a(I0
I9
tp700
a(I7
I11
tp701
a(I6
I2
tp702
atp703
Rp704
sg13
((I1
I12
tp705
(I6
I12
tp706
(I2
I11
tp707
(I0
I4
tp708
(I9
I1
tp709
(I7
I7
tp710
tp711
sg14
I13
sbssg160
S'heavy_roomset'
p712
sbsg160
g162
sg163
(dp713
g475
((lp714
F44.919999999998254
tp715
sg521
((lp716
F40.260000000002037
tp717
sg572
((lp718
(F28.759999999998399
I14
tp719
aF41.779999999998836
tp720
sg619
((lp721
(F14.299999999999272
I27
tp722
aF40.180000000000291
tp723
sg662
((lp724
(F10.590000000000146
I10
tp725
aF41.080000000001746
tp726
ssba(imeasure_core
ProblemSetSolution
p727
(dp728
g3
g4
sg160
S"AnytimeBeam-w15-gf(1.3, 'exp')_with_PowerHeuristic2"
p729
sg163
(dp730
g8
((lp731
(F2.7000000000007276
I51
tp732
aF40.049999999999272
tp733
sg49
((lp734
(F0.049999999999272404
I36
tp735
a(F2.9599999999991269
I30
tp736
a(F3.680000000000291
I29
tp737
a(F8.5900000000001455
I28
tp738
a(F14.870000000002619
I27
tp739
a(F27.080000000001746
I26
tp740
a(F37.470000000001164
I25
tp741
aF40.0
tp742
sg130
((lp743
(F0.30999999999767169
I10
tp744
aF40.5
tp745
sg101
((lp746
(F0.77000000000043656
I31
tp747
a(F8.1700000000018917
I29
tp748
a(F9.9599999999991269
I26
tp749
aF40.030000000002474
tp750
sg75
((lp751
(F0.5
I63
tp752
a(F1.4799999999995634
I61
tp753
a(F3.9900000000016007
I57
tp754
a(F4.9200000000018917
I56
tp755
a(F6.1200000000026193
I54
tp756
a(F7.25
I52
tp757
a(F9.2000000000007276
I51
tp758
a(F12.06000000000131
I50
tp759
a(F14.920000000001892
I48
tp760
a(F17.900000000001455
I46
tp761
a(F20.979999999999563
I44
tp762
a(F29.630000000001019
I43
tp763
a(F37.780000000002474
I42
tp764
aF40.0
tp765
ssba(imeasure_core
ProblemSetSolution
p766
(dp767
g3
g204
sg160
g729
sg163
(dp768
g207
((lp769
(F1.1399999999994179
I23
tp770
aF40.299999999999272
tp771
sg256
((lp772
F40.049999999999272
tp773
sg311
((lp774
(F0.72999999999956344
I33
tp775
aF40.290000000000873
tp776
sg360
((lp777
(F0.15999999999985448
I7
tp778
aF40.0
tp779
sg405
((lp780
(F0.27000000000043656
I16
tp781
aF40.029999999998836
tp782
ssba(imeasure_core
ProblemSetSolution
p783
(dp784
g3
g472
sg160
g729
sg163
(dp785
g475
((lp786
F45.020000000000437
tp787
sg521
((lp788
F40.409999999999854
tp789
sg572
((lp790
(F31.740000000001601
I14
tp791
aF44.770000000000437
tp792
sg619
((lp793
(F7.8400000000001455
I27
tp794
aF40.209999999999127
tp795
sg662
((lp796
(F11.360000000000582
I10
tp797
aF40.75
tp798
ssba(imeasure_core
ProblemSetSolution
p799
(dp800
g3
g4
sg160
S"AnytimeBeam-w25-gf(1.3, 'exp')_with_PowerHeuristic2"
p801
sg163
(dp802
g8
((lp803
(F2.9799999999995634
I51
tp804
aF40.059999999997672
tp805
sg49
((lp806
(F0.090000000000145519
I36
tp807
a(F2.6700000000018917
I30
tp808
a(F3.3899999999994179
I29
tp809
a(F8.2600000000020373
I28
tp810
a(F14.540000000000873
I27
tp811
a(F26.680000000000291
I26
tp812
a(F37.029999999998836
I25
tp813
aF40.0
tp814
sg130
((lp815
(F0.36999999999898137
I10
tp816
aF40.049999999999272
tp817
sg101
((lp818
(F1.2000000000007276
I31
tp819
a(F6.0
I29
tp820
a(F7.7700000000004366
I26
tp821
aF40.020000000000437
tp822
sg75
((lp823
(F0.25
I63
tp824
a(F1.930000000000291
I61
tp825
a(F3.7600000000020373
I57
tp826
a(F4.6700000000018917
I56
tp827
a(F5.8699999999989814
I54
tp828
a(F6.9900000000016007
I52
tp829
a(F8.9400000000023283
I51
tp830
a(F11.81000000000131
I50
tp831
a(F14.659999999999854
I48
tp832
a(F17.650000000001455
I46
tp833
a(F20.729999999999563
I44
tp834
a(F29.400000000001455
I43
tp835
a(F37.56000000000131
I42
tp836
aF40.0
tp837
ssba(imeasure_core
ProblemSetSolution
p838
(dp839
g3
g204
sg160
g801
sg163
(dp840
g207
((lp841
(F1.2600000000020373
I23
tp842
aF40.040000000000873
tp843
sg256
((lp844
F40.099999999998545
tp845
sg311
((lp846
(F0.85000000000218279
I33
tp847
aF40.069999999999709
tp848
sg360
((lp849
(F0.18000000000029104
I7
tp850
aF40.220000000001164
tp851
sg405
((lp852
(F0.31999999999970896
I16
tp853
aF40.010000000002037
tp854
ssba(imeasure_core
ProblemSetSolution
p855
(dp856
g3
g472
sg160
g801
sg163
(dp857
g475
((lp858
F44.93999999999869
tp859
sg521
((lp860
F40.31000000000131
tp861
sg572
((lp862
(F31.869999999998981
I14
tp863
aF44.889999999999418
tp864
sg619
((lp865
(F8.0400000000008731
I27
tp866
aF40.0
tp867
sg662
((lp868
(F11.479999999999563
I10
tp869
aF40.659999999999854
tp870
ssba(imeasure_core
ProblemSetSolution
p871
(dp872
g3
g4
sg160
S"AnytimeBeam-w35-gf(1.3, 'exp')_with_PowerHeuristic2"
p873
sg163
(dp874
g8
((lp875
(F3.2799999999988358
I51
tp876
aF40.209999999999127
tp877
sg49
((lp878
(F0.08000000000174623
I36
tp879
a(F2.5600000000013097
I30
tp880
a(F3.2799999999988358
I29
tp881
a(F8.1500000000014552
I28
tp882
a(F14.420000000001892
I27
tp883
a(F26.520000000000437
I26
tp884
a(F36.840000000000146
I25
tp885
aF40.0
tp886
sg130
((lp887
(F0.43000000000029104
I10
tp888
aF40.260000000002037
tp889
sg101
((lp890
(F1.4399999999986903
I31
tp891
a(F3.0
I29
tp892
a(F6.8499999999985448
I26
tp893
aF40.029999999998836
tp894
sg75
((lp895
(F0.34000000000014552
I63
tp896
a(F0.70999999999912689
I61
tp897
a(F3.25
I57
tp898
a(F4.180000000000291
I56
tp899
a(F5.3699999999989814
I54
tp900
a(F6.5
I52
tp901
a(F8.4599999999991269
I51
tp902
a(F11.319999999999709
I50
tp903
a(F14.180000000000291
I48
tp904
a(F17.170000000001892
I46
tp905
a(F20.259999999998399
I44
tp906
a(F28.950000000000728
I43
tp907
a(F37.110000000000582
I42
tp908
aF40.0
tp909
ssba(imeasure_core
ProblemSetSolution
p910
(dp911
g3
g204
sg160
g873
sg163
(dp912
g207
((lp913
(F1.3899999999994179
I23
tp914
aF40.110000000000582
tp915
sg256
((lp916
F40.180000000000291
tp917
sg311
((lp918
(F0.98999999999796273
I33
tp919
aF40.169999999998254
tp920
sg360
((lp921
(F0.22999999999956344
I7
tp922
aF40.049999999999272
tp923
sg405
((lp924
(F0.38000000000101863
I16
tp925
aF40.0
tp926
ssba(imeasure_core
ProblemSetSolution
p927
(dp928
g3
g472
sg160
g873
sg163
(dp929
g475
((lp930
F44.940000000002328
tp931
sg521
((lp932
F40.409999999999854
tp933
sg572
((lp934
(F33.459999999995489
I14
tp935
aF46.499999999996362
tp936
sg619
((lp937
(F8.2600000000020373
I27
tp938
aF40.060000000004948
tp939
sg662
((lp940
(F11.930000000000291
I10
tp941
aF41.489999999997963
tp942
ssba(imeasure_core
ProblemSetSolution
p943
(dp944
g3
g4
sg160
S"AnytimeBeam-w45-gf(1.3, 'exp')_with_PowerHeuristic2"
p945
sg163
(dp946
g8
((lp947
(F3.5400000000008731
I51
tp948
aF40.029999999998836
tp949
sg49
((lp950
(F0.08000000000174623
I36
tp951
a(F2.180000000000291
I30
tp952
a(F2.9000000000014552
I29
tp953
a(F7.7600000000020373
I28
tp954
a(F14.0
I27
tp955
a(F26.120000000002619
I26
tp956
a(F36.430000000000291
I25
tp957
aF40.0
tp958
sg130
((lp959
(F0.48000000000320142
I10
tp960
aF40.069999999999709
tp961
sg101
((lp962
(F1.5800000000017462
I31
tp963
a(F3.3300000000017462
I29
tp964
a(F5.1100000000005821
I26
tp965
aF40.029999999998836
tp966
sg75
((lp967
(F0.37000000000261934
I61
tp968
a(F2.8799999999973807
I57
tp969
a(F3.8099999999976717
I56
tp970
a(F5.0
I54
tp971
a(F6.1299999999973807
I52
tp972
a(F8.0800000000017462
I51
tp973
a(F10.940000000002328
I50
tp974
a(F13.790000000000873
I48
tp975
a(F16.770000000004075
I46
tp976
a(F19.840000000003783
I44
tp977
a(F28.5
I43
tp978
a(F36.669999999998254
I42
tp979
aF40.0
tp980
ssba(imeasure_core
ProblemSetSolution
p981
(dp982
g3
g204
sg160
g945
sg163
(dp983
g207
((lp984
(F1.5
I23
tp985
aF40.489999999997963
tp986
sg256
((lp987
F40.260000000002037
tp988
sg311
((lp989
(F1.0599999999976717
I33
tp990
aF40.180000000000291
tp991
sg360
((lp992
(F0.26000000000203727
I7
tp993
aF40.080000000001746
tp994
sg405
((lp995
(F0.43000000000029104
I16
tp996
aF40.019999999996799
tp997
ssba(imeasure_core
ProblemSetSolution
p998
(dp999
g3
g472
sg160
g945
sg163
(dp1000
g475
((lp1001
F45.05000000000291
tp1002
sg521
((lp1003
F40.19999999999709
tp1004
sg572
((lp1005
(F33.75
I14
tp1006
aF46.819999999999709
tp1007
sg619
((lp1008
(F8.4100000000034925
I27
tp1009
aF40.270000000004075
tp1010
sg662
((lp1011
(F12.049999999995634
I10
tp1012
aF40.739999999997963
tp1013
ssba(imeasure_core
ProblemSetSolution
p1014
(dp1015
g3
g4
sg160
S"AnytimeBeam-w5-gf(1.3, 'exp')_with_LinearHeuristic"
p1016
sg163
(dp1017
g8
((lp1018
F40.049999999995634
tp1019
sg49
((lp1020
(F0.020000000004074536
I25
tp1021
aF40.0
tp1022
sg130
((lp1023
F40.029999999998836
tp1024
sg101
((lp1025
(F0.08000000000174623
I8
tp1026
aF40.020000000004075
tp1027
sg75
((lp1028
(F0.020000000004074536
I32
tp1029
a(F1.1699999999982538
I30
tp1030
aF40.0
tp1031
ssba(imeasure_core
ProblemSetSolution
p1032
(dp1033
g3
g204
sg160
g1016
sg163
(dp1034
g207
((lp1035
F40.169999999998254
tp1036
sg256
((lp1037
(F2.0200000000040745
I50
tp1038
a(F18.010000000002037
I49
tp1039
a(F27.910000000003492
I48
tp1040
aF40.0
tp1041
sg311
((lp1042
F40.0
tp1043
sg360
((lp1044
(F0.19999999999708962
I7
tp1045
aF40.099999999998545
tp1046
sg405
((lp1047
F40.069999999999709
tp1048
ssba(imeasure_core
ProblemSetSolution
p1049
(dp1050
g3
g472
sg160
g1016
sg163
(dp1051
g475
((lp1052
F41.010000000002037
tp1053
sg521
((lp1054
F40.080000000001746
tp1055
sg572
((lp1056
F40.139999999999418
tp1057
sg619
((lp1058
F40.139999999999418
tp1059
sg662
((lp1060
F40.080000000001746
tp1061
ssba(imeasure_core
ProblemSetSolution
p1062
(dp1063
g3
g4
sg160
S"AnytimeBeam-w15-gf(1.3, 'exp')_with_LinearHeuristic"
p1064
sg163
(dp1065
g8
((lp1066
F40.030000000006112
tp1067
sg49
((lp1068
(F0.019999999996798579
I25
tp1069
aF40.0
tp1070
sg130
((lp1071
F40.0
tp1072
sg101
((lp1073
(F0.1599999999962165
I8
tp1074
aF40.009999999994761
tp1075
sg75
((lp1076
(F0.029999999998835847
I32
tp1077
a(F1.3499999999985448
I30
tp1078
aF40.0
tp1079
ssba(imeasure_core
ProblemSetSolution
p1080
(dp1081
g3
g204
sg160
g1064
sg163
(dp1082
g207
((lp1083
F40.020000000004075
tp1084
sg256
((lp1085
(F1.319999999999709
I50
tp1086
a(F20.349999999998545
I49
tp1087
a(F32.220000000001164
I48
tp1088
aF40.009999999994761
tp1089
sg311
((lp1090
F40.210000000006403
tp1091
sg360
((lp1092
(F0.4099999999962165
I7
tp1093
aF40.299999999995634
tp1094
sg405
((lp1095
F40.120000000002619
tp1096
ssba(imeasure_core
ProblemSetSolution
p1097
(dp1098
g3
g472
sg160
g1064
sg163
(dp1099
g475
((lp1100
F41.289999999993597
tp1101
sg521
((lp1102
F40.069999999999709
tp1103
sg572
((lp1104
F40.110000000000582
tp1105
sg619
((lp1106
F40.139999999999418
tp1107
sg662
((lp1108
F40.180000000000291
tp1109
ssba(imeasure_core
ProblemSetSolution
p1110
(dp1111
g3
g4
sg160
S"AnytimeBeam-w25-gf(1.3, 'exp')_with_LinearHeuristic"
p1112
sg163
(dp1113
g8
((lp1114
F40.200000000004366
tp1115
sg49
((lp1116
(F0.019999999996798579
I25
tp1117
aF40.0
tp1118
sg130
((lp1119
(F39.040000000000873
I286
tp1120
aF40.0
tp1121
sg101
((lp1122
(F0.18000000000029104
I8
tp1123
aF40.029999999998836
tp1124
sg75
((lp1125
(F0.029999999998835847
I32
tp1126
a(F1.1399999999994179
I30
tp1127
aF40.0
tp1128
ssba(imeasure_core
ProblemSetSolution
p1129
(dp1130
g3
g204
sg160
g1112
sg163
(dp1131
g207
((lp1132
F40.169999999998254
tp1133
sg256
((lp1134
(F1.819999999999709
I50
tp1135
a(F16.269999999996799
I49
tp1136
a(F27.159999999996217
I48
tp1137
aF40.0
tp1138
sg311
((lp1139
F40.069999999999709
tp1140
sg360
((lp1141
(F0.51000000000203727
I7
tp1142
aF40.059999999997672
tp1143
sg405
((lp1144
F40.069999999999709
tp1145
ssba(imeasure_core
ProblemSetSolution
p1146
(dp1147
g3
g472
sg160
g1112
sg163
(dp1148
g475
((lp1149
F41.400000000001455
tp1150
sg521
((lp1151
F40.169999999998254
tp1152
sg572
((lp1153
F40.430000000000291
tp1154
sg619
((lp1155
F40.120000000002619
tp1156
sg662
((lp1157
F40.0
tp1158
ssba(imeasure_core
ProblemSetSolution
p1159
(dp1160
g3
g4
sg160
S"AnytimeBeam-w35-gf(1.3, 'exp')_with_LinearHeuristic"
p1161
sg163
(dp1162
g8
((lp1163
F40.339999999996508
tp1164
sg49
((lp1165
(F0.010000000002037268
I25
tp1166
aF40.0
tp1167
sg130
((lp1168
F40.180000000000291
tp1169
sg101
((lp1170
(F0.20999999999912689
I8
tp1171
aF40.040000000000873
tp1172
sg75
((lp1173
(F0.029999999998835847
I32
tp1174
a(F1.069999999999709
I30
tp1175
aF40.0
tp1176
ssba(imeasure_core
ProblemSetSolution
p1177
(dp1178
g3
g204
sg160
g1161
sg163
(dp1179
g207
((lp1180
F40.379999999997381
tp1181
sg256
((lp1182
(F3.0400000000008731
I50
tp1183
a(F15.75
I49
tp1184
a(F28.180000000000291
I48
tp1185
aF40.020000000004075
tp1186
sg311
((lp1187
F40.219999999993888
tp1188
sg360
((lp1189
(F0.62000000000261934
I7
tp1190
aF40.370000000002619
tp1191
sg405
((lp1192
F40.180000000000291
tp1193
ssba(imeasure_core
ProblemSetSolution
p1194
(dp1195
g3
g472
sg160
g1161
sg163
(dp1196
g475
((lp1197
F41.680000000000291
tp1198
sg521
((lp1199
F40.139999999999418
tp1200
sg572
((lp1201
F40.330000000001746
tp1202
sg619
((lp1203
F40.259999999994761
tp1204
sg662
((lp1205
F40.260000000002037
tp1206
ssba(imeasure_core
ProblemSetSolution
p1207
(dp1208
g3
g4
sg160
S"AnytimeBeam-w45-gf(1.3, 'exp')_with_LinearHeuristic"
p1209
sg163
(dp1210
g8
((lp1211
F40.019999999996799
tp1212
sg49
((lp1213
(F0.020000000004074536
I25
tp1214
aF40.0
tp1215
sg130
((lp1216
F40.160000000003492
tp1217
sg101
((lp1218
(F0.22000000000116415
I8
tp1219
aF40.05000000000291
tp1220
sg75
((lp1221
(F0.030000000006111804
I32
tp1222
a(F0.63999999999941792
I30
tp1223
aF40.0
tp1224
ssba(imeasure_core
ProblemSetSolution
p1225
(dp1226
g3
g204
sg160
g1209
sg163
(dp1227
g207
((lp1228
F40.010000000002037
tp1229
sg256
((lp1230
(F4.1100000000005821
I50
tp1231
a(F11.919999999998254
I49
tp1232
a(F23.720000000001164
I48
tp1233
aF40.010000000002037
tp1234
sg311
((lp1235
F40.009999999994761
tp1236
sg360
((lp1237
(F0.67000000000552973
I7
tp1238
aF40.040000000000873
tp1239
sg405
((lp1240
F40.150000000001455
tp1241
ssba(imeasure_core
ProblemSetSolution
p1242
(dp1243
g3
g472
sg160
g1209
sg163
(dp1244
g475
((lp1245
F41.720000000001164
tp1246
sg521
((lp1247
F40.099999999998545
tp1248
sg572
((lp1249
F40.069999999999709
tp1250
sg619
((lp1251
F40.209999999999127
tp1252
sg662
((lp1253
F40.349999999998545
tp1254
ssba.