(lp0
(imeasure_core
ProblemSetSolution
p1
(dp2
S'roomset'
p3
(imeasure_core
RoomSet
p4
(dp5
S'rooms'
p6
(dp7
(iproblems
RoomID
p8
(dp9
S'dusts'
p10
I8
sS'obstacles'
p11
(I1
I6
tp12
sS'robots'
p13
I4
sS'height'
p14
I10
sS'width'
p15
I9
sS'seed'
p16
I3433768247134474666
sb(imulti_robot_problem
MultiRobotState
p17
(dp18
S'obstacle_locations'
p19
c__builtin__
frozenset
p20
((lp21
(I4
I9
tp22
a(I4
I6
tp23
a(I0
I7
tp24
ag12
a(I0
I9
tp25
a(I8
I6
tp26
a(I0
I8
tp27
a(I3
I3
tp28
atp29
Rp30
sg15
I9
sS'dirt_locations'
p31
g20
((lp32
(I3
I2
tp33
a(I7
I7
tp34
a(I1
I9
tp35
a(I8
I7
tp36
a(I5
I4
tp37
a(I1
I1
tp38
a(I5
I8
tp39
a(I7
I9
tp40
atp41
Rp42
sg13
((I5
I9
tp43
(I5
I5
tp44
(I6
I9
tp45
(I2
I0
tp46
tp47
sg14
I10
sbs(iproblems
RoomID
p48
(dp49
g10
I7
sg11
(I2
I2
tp50
sg13
I3
sg14
I9
sg15
I9
sg16
I6241004153072892496
sb(imulti_robot_problem
MultiRobotState
p51
(dp52
g19
g20
((lp53
(I7
I3
tp54
a(I3
I2
tp55
a(I7
I1
tp56
a(I5
I1
tp57
ag50
a(I4
I1
tp58
a(I7
I7
tp59
atp60
Rp61
sg15
I9
sg31
g20
((lp62
(I3
I8
tp63
a(I1
I5
tp64
a(I4
I8
tp65
a(I3
I7
tp66
a(I5
I7
tp67
a(I3
I4
tp68
a(I6
I0
tp69
atp70
Rp71
sg13
((I6
I5
tp72
(I4
I3
tp73
(I3
I5
tp74
tp75
sg14
I9
sbs(iproblems
RoomID
p76
(dp77
g10
I9
sg11
(I4
I3
tp78
sg13
I3
sg14
I9
sg15
I8
sg16
I6161655336973386967
sb(imulti_robot_problem
MultiRobotState
p79
(dp80
g19
g20
((lp81
(I6
I3
tp82
a(I7
I3
tp83
a(I5
I4
tp84
ag78
a(I6
I6
tp85
a(I5
I2
tp86
a(I2
I1
tp87
atp88
Rp89
sg15
I8
sg31
g20
((lp90
(I6
I4
tp91
a(I6
I8
tp92
a(I2
I0
tp93
a(I5
I7
tp94
a(I1
I4
tp95
a(I1
I5
tp96
a(I0
I5
tp97
a(I2
I5
tp98
a(I4
I1
tp99
atp100
Rp101
sg13
((I3
I5
tp102
(I4
I6
tp103
(I4
I5
tp104
tp105
sg14
I9
sbs(iproblems
RoomID
p106
(dp107
g10
I6
sg11
(I7
I4
tp108
sg13
I4
sg14
I8
sg15
I9
sg16
I8554152435637441414
sb(imulti_robot_problem
MultiRobotState
p109
(dp110
g19
g20
((lp111
(I6
I6
tp112
a(I5
I7
tp113
ag108
a(I2
I0
tp114
a(I7
I5
tp115
a(I3
I7
tp116
a(I0
I3
tp117
a(I4
I1
tp118
atp119
Rp120
sg15
I9
sg31
g20
((lp121
(I7
I3
tp122
a(I1
I6
tp123
a(I5
I1
tp124
a(I8
I6
tp125
a(I0
I2
tp126
a(I4
I0
tp127
atp128
Rp129
sg13
((I5
I3
tp130
(I6
I2
tp131
(I6
I3
tp132
(I6
I4
tp133
tp134
sg14
I8
sbssS'name'
p135
S'easy_roomset'
p136
sbsg135
S'LimitedTimeAStar_with_PowerHeuristic2'
p137
sS'solutions'
p138
(dp139
g8
((lp140
F0.34000000000014552
tp141
sg48
((lp142
F0.07999999999992724
tp143
sg76
((lp144
F0.20999999999912689
tp145
sg106
((lp146
F0.17000000000007276
tp147
ssba(imeasure_core
ProblemSetSolution
p148
(dp149
g3
(imeasure_core
RoomSet
p150
(dp151
g6
(dp152
(iproblems
RoomID
p153
(dp154
g10
I10
sg11
(I1
I6
tp155
sg13
I3
sg14
I12
sg15
I9
sg16
I4927760411464392432
sb(imulti_robot_problem
MultiRobotState
p156
(dp157
g19
g20
((lp158
(I5
I9
tp159
a(I1
I3
tp160
a(I4
I5
tp161
a(I7
I7
tp162
a(I6
I0
tp163
a(I3
I9
tp164
ag155
a(I8
I7
tp165
a(I3
I7
tp166
a(I2
I5
tp167
a(I7
I9
tp168
a(I3
I1
tp169
a(I4
I6
tp170
a(I2
I9
tp171
a(I3
I10
tp172
a(I6
I10
tp173
a(I2
I11
tp174
a(I3
I8
tp175
a(I0
I6
tp176
a(I3
I6
tp177
a(I2
I2
tp178
a(I2
I3
tp179
a(I3
I4
tp180
a(I7
I6
tp181
atp182
Rp183
sg15
I9
sg31
g20
((lp184
(I1
I2
tp185
a(I6
I4
tp186
a(I6
I9
tp187
a(I8
I2
tp188
a(I8
I0
tp189
a(I1
I10
tp190
a(I0
I9
tp191
a(I1
I0
tp192
a(I0
I2
tp193
a(I4
I11
tp194
atp195
Rp196
sg13
((I1
I11
tp197
(I0
I11
tp198
(I7
I5
tp199
tp200
sg14
I12
sbs(iproblems
RoomID
p201
(dp202
g10
I8
sg11
(I1
I11
tp203
sg13
I4
sg14
I12
sg15
I11
sg16
I3433768247134474666
sb(imulti_robot_problem
MultiRobotState
p204
(dp205
g19
g20
((lp206
(I9
I3
tp207
a(I3
I6
tp208
a(I4
I8
tp209
a(I4
I5
tp210
a(I2
I8
tp211
a(I10
I6
tp212
a(I2
I10
tp213
a(I8
I7
tp214
a(I2
I3
tp215
a(I0
I10
tp216
a(I9
I4
tp217
a(I3
I7
tp218
ag203
a(I10
I3
tp219
a(I5
I8
tp220
a(I10
I4
tp221
a(I2
I7
tp222
a(I10
I5
tp223
a(I6
I7
tp224
a(I2
I9
tp225
a(I9
I6
tp226
a(I1
I8
tp227
a(I3
I8
tp228
a(I0
I11
tp229
a(I8
I8
tp230
a(I4
I11
tp231
a(I5
I0
tp232
a(I0
I9
tp233
a(I4
I9
tp234
a(I7
I8
tp235
atp236
Rp237
sg15
I11
sg31
g20
((lp238
(I4
I3
tp239
a(I5
I11
tp240
a(I9
I8
tp241
a(I2
I11
tp242
a(I9
I11
tp243
a(I7
I10
tp244
a(I1
I1
tp245
a(I6
I5
tp246
atp247
Rp248
sg13
((I7
I11
tp249
(I7
I7
tp250
(I2
I0
tp251
(I10
I9
tp252
tp253
sg14
I12
sbs(iproblems
RoomID
p254
(dp255
g10
I6
sg11
(I5
I4
tp256
sg13
I4
sg14
I10
sg15
I11
sg16
I8554152435637441414
sb(imulti_robot_problem
MultiRobotState
p257
(dp258
g19
g20
((lp259
(I6
I4
tp260
ag256
a(I4
I5
tp261
a(I2
I8
tp262
a(I9
I3
tp263
a(I7
I7
tp264
a(I0
I7
tp265
a(I6
I2
tp266
a(I2
I1
tp267
a(I3
I7
tp268
a(I5
I1
tp269
a(I0
I3
tp270
a(I8
I5
tp271
a(I5
I3
tp272
a(I3
I8
tp273
a(I8
I3
tp274
a(I4
I9
tp275
a(I6
I8
tp276
a(I7
I0
tp277
a(I6
I3
tp278
a(I7
I5
tp279
a(I3
I6
tp280
a(I8
I6
tp281
a(I7
I8
tp282
a(I10
I9
tp283
atp284
Rp285
sg15
I11
sg31
g20
((lp286
(I1
I3
tp287
a(I9
I4
tp288
a(I5
I0
tp289
a(I3
I0
tp290
a(I4
I2
tp291
a(I7
I2
tp292
atp293
Rp294
sg13
((I8
I2
tp295
(I8
I4
tp296
(I9
I7
tp297
(I0
I2
tp298
tp299
sg14
I10
sbs(iproblems
RoomID
p300
(dp301
g10
I7
sg11
(I10
I3
tp302
sg13
I3
sg14
I11
sg15
I11
sg16
I6241004153072892496
sb(imulti_robot_problem
MultiRobotState
p303
(dp304
g19
g20
((lp305
(I3
I2
tp306
a(I0
I0
tp307
a(I9
I8
tp308
a(I7
I7
tp309
a(I8
I9
tp310
a(I6
I2
tp311
a(I2
I3
tp312
a(I9
I4
tp313
a(I4
I2
tp314
a(I5
I1
tp315
a(I0
I3
tp316
ag302
a(I1
I2
tp317
a(I9
I5
tp318
a(I5
I5
tp319
a(I10
I7
tp320
a(I8
I5
tp321
a(I6
I1
tp322
a(I1
I8
tp323
a(I8
I8
tp324
a(I8
I6
tp325
a(I7
I8
tp326
a(I2
I4
tp327
atp328
Rp329
sg15
I11
sg31
g20
((lp330
(I4
I10
tp331
a(I6
I9
tp332
a(I4
I9
tp333
a(I9
I1
tp334
a(I5
I10
tp335
a(I3
I10
tp336
a(I8
I0
tp337
atp338
Rp339
sg13
((I5
I4
tp340
(I4
I6
tp341
(I1
I6
tp342
tp343
sg14
I11
sbssg135
S'mild_roomset'
p344
sbsg135
g137
sg138
(dp345
g153
((lp346
F73.690000000000509
tp347
sg201
((lp348
F30.270000000000437
tp349
sg254
((lp350
F0.22999999999956344
tp351
sg300
((lp352
F0.090000000000145519
tp353
ssba(imeasure_core
ProblemSetSolution
p354
(dp355
g3
(imeasure_core
RoomSet
p356
(dp357
g6
(dp358
(iproblems
RoomID
p359
(dp360
g10
I15
sg11
(I3
I3
tp361
sg13
I5
sg14
I13
sg15
I10
sg16
I4927760411464392432
sb(imulti_robot_problem
MultiRobotState
p362
(dp363
g19
g20
((lp364
(I6
I10
tp365
a(I6
I11
tp366
a(I3
I11
tp367
a(I2
I1
tp368
a(I2
I10
tp369
a(I3
I9
tp370
a(I2
I3
tp371
a(I1
I0
tp372
a(I4
I0
tp373
a(I1
I2
tp374
ag361
a(I7
I6
tp375
a(I3
I1
tp376
a(I1
I1
tp377
a(I1
I7
tp378
a(I1
I3
tp379
a(I3
I10
tp380
a(I9
I12
tp381
atp382
Rp383
sg15
I10
sg31
g20
((lp384
(I9
I0
tp385
a(I9
I7
tp386
a(I7
I0
tp387
a(I8
I2
tp388
a(I5
I5
tp389
a(I8
I10
tp390
a(I1
I4
tp391
a(I8
I8
tp392
a(I2
I12
tp393
a(I8
I7
tp394
a(I1
I10
tp395
a(I7
I11
tp396
a(I4
I12
tp397
a(I0
I2
tp398
a(I0
I10
tp399
atp400
Rp401
sg13
((I1
I12
tp402
(I0
I12
tp403
(I8
I5
tp404
(I7
I9
tp405
(I7
I4
tp406
tp407
sg14
I13
sbs(iproblems
RoomID
p408
(dp409
g10
I13
sg11
(I4
I11
tp410
sg13
I6
sg14
I13
sg15
I12
sg16
I3433768247134474666
sb(imulti_robot_problem
MultiRobotState
p411
(dp412
g19
g20
((lp413
(I4
I10
tp414
a(I5
I11
tp415
a(I6
I11
tp416
a(I9
I8
tp417
a(I6
I0
tp418
a(I0
I12
tp419
a(I4
I12
tp420
a(I2
I3
tp421
a(I2
I12
tp422
a(I10
I3
tp423
ag410
a(I11
I7
tp424
a(I3
I12
tp425
a(I3
I10
tp426
a(I11
I3
tp427
a(I0
I11
tp428
a(I8
I8
tp429
a(I1
I9
tp430
a(I1
I6
tp431
a(I1
I1
tp432
a(I0
I10
tp433
atp434
Rp435
sg15
I12
sg31
g20
((lp436
(I10
I8
tp437
a(I10
I5
tp438
a(I6
I7
tp439
a(I6
I8
tp440
a(I4
I4
tp441
a(I10
I12
tp442
a(I9
I9
tp443
a(I8
I10
tp444
a(I7
I5
tp445
a(I7
I10
tp446
a(I6
I12
tp447
a(I5
I10
tp448
a(I5
I3
tp449
atp450
Rp451
sg13
((I7
I12
tp452
(I7
I7
tp453
(I8
I12
tp454
(I2
I0
tp455
(I11
I9
tp456
(I1
I2
tp457
tp458
sg14
I13
sbs(iproblems
RoomID
p459
(dp460
g10
I12
sg11
(I3
I3
tp461
sg13
I6
sg14
I12
sg15
I12
sg16
I6241004153072892496
sb(imulti_robot_problem
MultiRobotState
p462
(dp463
g19
g20
((lp464
(I9
I3
tp465
ag461
a(I2
I9
tp466
a(I7
I1
tp467
a(I11
I8
tp468
a(I3
I4
tp469
a(I6
I1
tp470
a(I3
I1
tp471
a(I5
I2
tp472
a(I4
I3
tp473
a(I4
I2
tp474
a(I8
I5
tp475
a(I11
I6
tp476
atp477
Rp478
sg15
I12
sg31
g20
((lp479
(I4
I10
tp480
a(I0
I0
tp481
a(I7
I10
tp482
a(I5
I11
tp483
a(I8
I0
tp484
a(I9
I10
tp485
a(I8
I7
tp486
a(I10
I1
tp487
a(I2
I5
tp488
a(I8
I9
tp489
a(I4
I11
tp490
a(I10
I4
tp491
atp492
Rp493
sg13
((I8
I6
tp494
(I5
I4
tp495
(I7
I2
tp496
(I4
I7
tp497
(I1
I7
tp498
(I5
I6
tp499
tp500
sg14
I12
sbs(iproblems
RoomID
p501
(dp502
g10
I11
sg11
(I3
I6
tp503
sg13
I7
sg14
I11
sg15
I12
sg16
I8554152435637441414
sb(imulti_robot_problem
MultiRobotState
p504
(dp505
g19
g20
((lp506
(I3
I1
tp507
a(I3
I8
tp508
a(I4
I5
tp509
a(I2
I8
tp510
a(I11
I2
tp511
a(I1
I7
tp512
a(I7
I5
tp513
a(I9
I4
tp514
a(I3
I7
tp515
a(I5
I1
tp516
a(I9
I6
tp517
a(I7
I9
tp518
a(I6
I3
tp519
a(I7
I6
tp520
a(I4
I4
tp521
a(I7
I4
tp522
a(I1
I8
tp523
a(I8
I8
tp524
ag503
a(I0
I4
tp525
a(I0
I9
tp526
a(I8
I6
tp527
a(I9
I7
tp528
atp529
Rp530
sg15
I12
sg31
g20
((lp531
(I11
I10
tp532
a(I4
I9
tp533
a(I2
I9
tp534
a(I3
I0
tp535
a(I8
I0
tp536
a(I4
I7
tp537
a(I1
I4
tp538
a(I0
I3
tp539
a(I0
I8
tp540
a(I5
I2
tp541
a(I7
I2
tp542
atp543
Rp544
sg13
((I6
I4
tp545
(I8
I2
tp546
(I8
I5
tp547
(I10
I8
tp548
(I1
I2
tp549
(I6
I0
tp550
(I10
I4
tp551
tp552
sg14
I11
sbssg135
S'heavy_roomset'
p553
sbsg135
g137
sg138
(dp554
g359
((lp555
F3.4600000000009459
tp556
sg408
((lp557
F302.73999999999978
tp558
sg459
((lp559
F301.46999999999935
tp560
sg501
((lp561
F307.02000000000044
tp562
ssba(imeasure_core
ProblemSetSolution
p563
(dp564
g3
(imeasure_core
RoomSet
p565
(dp566
g6
(dp567
S'complexRoom'
p568
(imulti_robot_problem
MultiRobotState
p569
(dp570
g19
g20
((lp571
(I2
I7
tp572
a(I7
I3
tp573
a(I6
I3
tp574
a(I3
I3
tp575
a(I7
I6
tp576
a(I7
I4
tp577
a(I7
I5
tp578
a(I2
I3
tp579
a(I4
I3
tp580
a(I2
I5
tp581
a(I2
I4
tp582
a(I5
I3
tp583
atp584
Rp585
sg15
I11
sg31
g20
((lp586
(I1
I0
tp587
a(I9
I0
tp588
atp589
Rp590
sg13
((I6
I4
tp591
(I1
I6
tp592
tp593
sg14
I8
sbsS'exampleProblem'
p594
(imulti_robot_problem
MultiRobotState
p595
(dp596
g19
g20
((lp597
tp598
Rp599
sg15
I5
sg31
g20
((lp600
(I1
I3
tp601
a(I3
I1
tp602
a(I1
I1
tp603
a(I3
I3
tp604
atp605
Rp606
sg13
((I2
I2
tp607
tp608
sg14
I5
sbsS'linear_test'
p609
(imulti_robot_problem
MultiRobotState
p610
(dp611
g19
g599
sg15
I12
sg31
g20
((lp612
(I11
I0
tp613
a(I1
I0
tp614
a(I9
I0
tp615
atp616
Rp617
sg13
((I3
I0
tp618
(I1
I2
tp619
tp620
sg14
I7
sbsS'obstacle_Far_CloseTest'
p621
(imulti_robot_problem
MultiRobotState
p622
(dp623
g19
g20
((lp624
(I0
I1
tp625
a(I7
I3
tp626
a(I3
I1
tp627
a(I7
I1
tp628
a(I4
I5
tp629
a(I7
I6
tp630
a(I4
I4
tp631
a(I2
I1
tp632
a(I7
I4
tp633
a(I7
I5
tp634
a(I4
I3
tp635
a(I4
I2
tp636
a(I4
I1
tp637
a(I1
I1
tp638
a(I7
I2
tp639
atp640
Rp641
sg15
I12
sg31
g20
((lp642
(I3
I2
tp643
a(I9
I6
tp644
atp645
Rp646
sg13
((I0
I0
tp647
(I6
I6
tp648
tp649
sg14
I7
sbsS'zigzag'
p650
(imulti_robot_problem
MultiRobotState
p651
(dp652
g19
g20
((lp653
(I1
I2
tp654
a(I3
I2
tp655
a(I1
I3
tp656
a(I3
I0
tp657
a(I3
I1
tp658
a(I5
I1
tp659
a(I5
I2
tp660
a(I1
I1
tp661
a(I5
I3
tp662
atp663
Rp664
sg15
I20
sg31
g20
((lp665
(I6
I3
tp666
atp667
Rp668
sg13
((I0
I3
tp669
(I19
I3
tp670
tp671
sg14
I4
sbsS'room1'
p672
(imulti_robot_problem
MultiRobotState
p673
(dp674
g19
g20
((lp675
(I6
I3
tp676
a(I7
I3
tp677
a(I8
I3
tp678
a(I2
I3
tp679
a(I3
I3
tp680
a(I4
I3
tp681
a(I5
I3
tp682
atp683
Rp684
sg15
I9
sg31
g20
((lp685
(I0
I0
tp686
a(I2
I1
tp687
atp688
Rp689
sg13
((I6
I1
tp690
(I6
I5
tp691
tp692
sg14
I6
sbsS'complexRoom2'
p693
(imulti_robot_problem
MultiRobotState
p694
(dp695
g19
g20
((lp696
(I7
I3
tp697
a(I1
I3
tp698
a(I7
I1
tp699
a(I4
I5
tp700
a(I9
I3
tp701
a(I5
I5
tp702
a(I2
I6
tp703
a(I2
I3
tp704
a(I5
I1
tp705
a(I0
I3
tp706
a(I10
I3
tp707
a(I2
I5
tp708
a(I6
I5
tp709
a(I5
I3
tp710
a(I2
I7
tp711
a(I8
I3
tp712
a(I3
I3
tp713
a(I5
I2
tp714
a(I7
I6
tp715
a(I3
I1
tp716
a(I6
I3
tp717
a(I7
I5
tp718
a(I4
I3
tp719
a(I3
I5
tp720
a(I4
I1
tp721
a(I6
I1
tp722
atp723
Rp724
sg15
I11
sg31
g20
((lp725
(I7
I2
tp726
a(I0
I7
tp727
atp728
Rp729
sg13
((I1
I2
tp730
(I3
I6
tp731
tp732
sg14
I8
sbsS'zigzagUpright'
p733
(imulti_robot_problem
MultiRobotState
p734
(dp735
g19
g20
((lp736
(I1
I3
tp737
a(I3
I1
tp738
a(I2
I1
tp739
a(I1
I1
tp740
a(I1
I5
tp741
a(I2
I3
tp742
a(I2
I5
tp743
a(I0
I3
tp744
a(I3
I5
tp745
atp746
Rp747
sg15
I4
sg31
g20
((lp748
(I3
I6
tp749
atp750
Rp751
sg13
((I3
I0
tp752
(I3
I19
tp753
tp754
sg14
I20
sbsS'ivansRevenge'
p755
(imulti_robot_problem
MultiRobotState
p756
(dp757
g19
g599
sg15
I10
sg31
g20
((lp758
(I9
I2
tp759
a(I0
I0
tp760
atp761
Rp762
sg13
((I9
I0
tp763
(I0
I2
tp764
tp765
sg14
I3
sbsS'roomLongWithObstaccle'
p766
(imulti_robot_problem
MultiRobotState
p767
(dp768
g19
g20
((lp769
(I0
I1
tp770
a(I12
I1
tp771
a(I9
I1
tp772
a(I7
I1
tp773
a(I8
I1
tp774
a(I6
I1
tp775
a(I3
I1
tp776
a(I2
I1
tp777
a(I11
I1
tp778
a(I10
I1
tp779
a(I5
I1
tp780
a(I4
I1
tp781
a(I1
I1
tp782
atp783
Rp784
sg15
I15
sg31
g20
((lp785
(I0
I2
tp786
a(I14
I6
tp787
atp788
Rp789
sg13
((I0
I0
tp790
(I0
I6
tp791
tp792
sg14
I7
sbsS'twoRobotsInOpCorners'
p793
(imulti_robot_problem
MultiRobotState
p794
(dp795
g19
g599
sg15
I5
sg31
g20
((lp796
(I0
I0
tp797
a(I4
I4
tp798
atp799
Rp800
sg13
((I3
I0
tp801
(I0
I3
tp802
tp803
sg14
I5
sbsS'split2'
p804
(imulti_robot_problem
MultiRobotState
p805
(dp806
g19
g599
sg15
I10
sg31
g20
((lp807
(I0
I9
tp808
a(I9
I0
tp809
a(I0
I0
tp810
a(I9
I9
tp811
atp812
Rp813
sg13
((I1
I1
tp814
(I8
I1
tp815
(I4
I5
tp816
(I5
I5
tp817
tp818
sg14
I10
sbsS'split3'
p819
(imulti_robot_problem
MultiRobotState
p820
(dp821
g19
g599
sg15
I10
sg31
g20
((lp822
(I0
I9
tp823
a(I9
I0
tp824
a(I0
I0
tp825
a(I9
I9
tp826
atp827
Rp828
sg13
((I1
I1
tp829
(I8
I1
tp830
(I1
I7
tp831
(I7
I7
tp832
tp833
sg14
I10
sbsS'gaintRoom'
p834
(imulti_robot_problem
MultiRobotState
p835
(dp836
g19
g599
sg15
I5
sg31
g20
((lp837
(I4
I0
tp838
a(I4
I4
tp839
a(I0
I4
tp840
atp841
Rp842
sg13
((I0
I0
tp843
tp844
sg14
I5
sbsS'gaintRoomWithWall'
p845
(imulti_robot_problem
MultiRobotState
p846
(dp847
g19
g20
((lp848
(I2
I4
tp849
atp850
Rp851
sg15
I5
sg31
g20
((lp852
(I4
I0
tp853
a(I4
I4
tp854
a(I0
I4
tp855
atp856
Rp857
sg13
((I0
I0
tp858
tp859
sg14
I5
sbsS'split'
p860
(imulti_robot_problem
MultiRobotState
p861
(dp862
g19
g599
sg15
I10
sg31
g20
((lp863
(I0
I9
tp864
a(I9
I0
tp865
a(I0
I0
tp866
a(I9
I9
tp867
atp868
Rp869
sg13
((I4
I4
tp870
(I5
I4
tp871
(I4
I5
tp872
(I5
I5
tp873
tp874
sg14
I10
sbsS'twoRobots'
p875
(imulti_robot_problem
MultiRobotState
p876
(dp877
g19
g599
sg15
I9
sg31
g20
((lp878
(I8
I0
tp879
a(I0
I0
tp880
atp881
Rp882
sg13
((I2
I0
tp883
(I0
I3
tp884
tp885
sg14
I4
sbssg135
S'static_rooms'
p886
sbsg135
g137
sg138
(dp887
g804
((lp888
F0.25
tp889
sg819
((lp890
F0.12999999999919964
tp891
sg568
((lp892
F0.029999999998835847
tp893
sg834
((lp894
F0.020000000000436557
tp895
sg594
((lp896
F0.0
tp897
sg609
((lp898
F0.020000000000436557
tp899
sg621
((lp900
F21.399999999999636
tp901
sg875
((lp902
F0.010000000000218279
tp903
sg845
((lp904
F0.030000000000654836
tp905
sg650
((lp906
F1.5
tp907
sg672
((lp908
F0.010000000000218279
tp909
sg693
((lp910
F6.8899999999994179
tp911
sg733
((lp912
F2.820000000001528
tp913
sg755
((lp914
F0.010000000000218279
tp915
sg766
((lp916
F11.389999999999418
tp917
sg793
((lp918
F0.010000000000218279
tp919
sg860
((lp920
F0.25999999999839929
tp921
ssba.