(lp0
(imeasure_core
ProblemSetSolution
p1
(dp2
S'roomset'
p3
(imeasure_core
RoomSet
p4
(dp5
S'rooms'
p6
(dp7
(iproblems
RoomID
p8
(dp9
S'dusts'
p10
I7
sS'obstacles'
p11
(I1
I3
tp12
sS'robots'
p13
I1
sS'height'
p14
I7
sS'width'
p15
I9
sS'seed'
p16
I1486246605650367638
sb(imulti_robot_problem
MultiRobotState
p17
(dp18
S'obstacle_locations'
p19
c__builtin__
frozenset
p20
((lp21
(I0
I1
tp22
a(I8
I3
tp23
ag12
a(I0
I3
tp24
a(I0
I2
tp25
atp26
Rp27
sg15
I9
sS'dirt_locations'
p28
g20
((lp29
(I7
I5
tp30
a(I7
I0
tp31
a(I0
I4
tp32
a(I1
I0
tp33
a(I4
I4
tp34
a(I6
I5
tp35
a(I4
I0
tp36
atp37
Rp38
sg13
((I5
I1
tp39
tp40
sg14
I7
sbs(iproblems
RoomID
p41
(dp42
g10
I9
sg11
(I7
I5
tp43
sg13
I4
sg14
I10
sg15
I10
sg16
I679259829289197625
sb(imulti_robot_problem
MultiRobotState
p44
(dp45
g19
g20
((lp46
(I9
I6
tp47
a(I8
I6
tp48
a(I7
I6
tp49
ag43
a(I7
I0
tp50
atp51
Rp52
sg15
I10
sg28
g20
((lp53
(I5
I4
tp54
a(I2
I6
tp55
a(I7
I1
tp56
a(I6
I1
tp57
a(I1
I6
tp58
a(I0
I5
tp59
a(I8
I7
tp60
a(I0
I9
tp61
a(I9
I5
tp62
atp63
Rp64
sg13
((I7
I8
tp65
(I6
I7
tp66
(I3
I5
tp67
(I3
I9
tp68
tp69
sg14
I10
sbs(iproblems
RoomID
p70
(dp71
g10
I6
sg11
(I4
I4
tp72
sg13
I4
sg14
I9
sg15
I9
sg16
I5891625650498269233
sb(imulti_robot_problem
MultiRobotState
p73
(dp74
g19
g20
((lp75
(I2
I7
tp76
a(I4
I5
tp77
ag72
a(I3
I6
tp78
atp79
Rp80
sg15
I9
sg28
g20
((lp81
(I7
I4
tp82
a(I8
I3
tp83
a(I0
I5
tp84
a(I5
I5
tp85
a(I6
I6
tp86
a(I4
I0
tp87
atp88
Rp89
sg13
((I4
I6
tp90
(I7
I1
tp91
(I0
I4
tp92
(I7
I2
tp93
tp94
sg14
I9
sbs(iproblems
RoomID
p95
(dp96
g10
I6
sg11
(I1
I6
tp97
sg13
I4
sg14
I8
sg15
I10
sg16
I403795515464475257
sb(imulti_robot_problem
MultiRobotState
p98
(dp99
g19
g20
((lp100
(I8
I3
tp101
a(I1
I3
tp102
a(I6
I7
tp103
a(I0
I4
tp104
ag97
a(I4
I1
tp105
a(I0
I5
tp106
atp107
Rp108
sg15
I10
sg28
g20
((lp109
(I7
I3
tp110
a(I4
I7
tp111
a(I2
I2
tp112
a(I8
I0
tp113
a(I0
I2
tp114
a(I0
I7
tp115
atp116
Rp117
sg13
((I8
I2
tp118
(I6
I1
tp119
(I5
I0
tp120
(I2
I0
tp121
tp122
sg14
I8
sbs(iproblems
RoomID
p123
(dp124
g10
I5
sg11
(I3
I4
tp125
sg13
I1
sg14
I9
sg15
I9
sg16
I2685440357799139976
sb(imulti_robot_problem
MultiRobotState
p126
(dp127
g19
g20
((lp128
(I8
I3
tp129
a(I1
I3
tp130
a(I5
I6
tp131
ag125
a(I2
I4
tp132
a(I3
I8
tp133
a(I2
I3
tp134
a(I7
I8
tp135
a(I1
I1
tp136
atp137
Rp138
sg15
I9
sg28
g20
((lp139
(I0
I1
tp140
a(I0
I0
tp141
a(I3
I1
tp142
a(I8
I7
tp143
a(I5
I0
tp144
atp145
Rp146
sg13
((I5
I5
tp147
tp148
sg14
I9
sbssS'name'
p149
S'easy_roomset'
p150
sbsg149
S"AnytimeBeam-w20-gf(2, 'lin')_with_PowerHeuristic2"
p151
sS'solutions'
p152
(dp153
g8
((lp154
(F0.11999999999898137
I45
tp155
a(F8.9799999999995634
I44
tp156
a(F15.44999999999709
I42
tp157
a(F15.930000000000291
I39
tp158
a(F16.239999999997963
I37
tp159
a(F16.849999999998545
I36
tp160
a(F17.479999999999563
I34
tp161
a(F19.529999999998836
I33
tp162
a(F24.279999999998836
I31
tp163
a(F35.340000000000146
I30
tp164
aF40.0
tp165
sg41
((lp166
(F1.3999999999978172
I20
tp167
aF40.029999999998836
tp168
sg70
((lp169
(F0.95999999999912689
I8
tp170
aF40.270000000000437
tp171
sg95
((lp172
(F13.079999999998108
I134
tp173
aF40.009999999998399
tp174
sg123
((lp175
(F0.17000000000189175
I47
tp176
a(F1.2900000000008731
I45
tp177
a(F2.3500000000021828
I43
tp178
a(F3.3700000000026193
I35
tp179
a(F4.5400000000008731
I33
tp180
a(F5.8500000000021828
I31
tp181
a(F7.1900000000023283
I29
tp182
a(F9.569999999999709
I27
tp183
a(F12.850000000002183
I25
tp184
a(F15.630000000001019
I23
tp185
aF40.0
tp186
ssba(imeasure_core
ProblemSetSolution
p187
(dp188
g3
(imeasure_core
RoomSet
p189
(dp190
g6
(dp191
(iproblems
RoomID
p192
(dp193
g10
I9
sg11
(I7
I7
tp194
sg13
I4
sg14
I12
sg15
I12
sg16
I679259829289197625
sb(imulti_robot_problem
MultiRobotState
p195
(dp196
g19
g20
((lp197
(I6
I4
tp198
a(I6
I9
tp199
a(I6
I6
tp200
a(I5
I6
tp201
a(I9
I8
tp202
a(I11
I9
tp203
ag194
a(I1
I4
tp204
a(I11
I7
tp205
a(I7
I5
tp206
a(I8
I7
tp207
a(I4
I2
tp208
a(I8
I5
tp209
a(I6
I5
tp210
a(I10
I8
tp211
a(I10
I5
tp212
a(I6
I7
tp213
a(I6
I8
tp214
a(I10
I7
tp215
a(I9
I6
tp216
a(I7
I6
tp217
a(I8
I10
tp218
a(I7
I4
tp219
a(I11
I8
tp220
a(I7
I10
tp221
a(I8
I6
tp222
a(I6
I1
tp223
a(I9
I7
tp224
atp225
Rp226
sg15
I12
sg28
g20
((lp227
(I2
I7
tp228
a(I9
I0
tp229
a(I8
I2
tp230
a(I7
I1
tp231
a(I11
I0
tp232
a(I0
I11
tp233
a(I1
I6
tp234
a(I1
I7
tp235
a(I11
I6
tp236
atp237
Rp238
sg13
((I9
I10
tp239
(I8
I9
tp240
(I3
I7
tp241
(I3
I11
tp242
tp243
sg14
I12
sbs(iproblems
RoomID
p244
(dp245
g10
I5
sg11
(I9
I1
tp246
sg13
I3
sg14
I11
sg15
I11
sg16
I2685440357799139976
sb(imulti_robot_problem
MultiRobotState
p247
(dp248
g19
g20
((lp249
(I7
I3
tp250
a(I10
I4
tp251
a(I9
I3
tp252
ag246
a(I7
I1
tp253
a(I5
I6
tp254
a(I10
I6
tp255
a(I1
I4
tp256
a(I9
I9
tp257
a(I3
I9
tp258
a(I9
I4
tp259
a(I6
I8
tp260
a(I9
I6
tp261
a(I3
I4
tp262
a(I10
I3
tp263
a(I7
I2
tp264
a(I5
I3
tp265
a(I8
I3
tp266
a(I5
I5
tp267
a(I10
I7
tp268
a(I8
I5
tp269
a(I9
I2
tp270
a(I3
I6
tp271
a(I4
I5
tp272
a(I6
I5
tp273
a(I7
I10
tp274
a(I9
I5
tp275
a(I3
I5
tp276
a(I7
I8
tp277
a(I2
I4
tp278
a(I10
I9
tp279
atp280
Rp281
sg15
I11
sg28
g20
((lp282
(I1
I2
tp283
a(I9
I10
tp284
a(I6
I1
tp285
a(I4
I1
tp286
a(I0
I2
tp287
atp288
Rp289
sg13
((I6
I6
tp290
(I0
I0
tp291
(I10
I8
tp292
tp293
sg14
I11
sbs(iproblems
RoomID
p294
(dp295
g10
I6
sg11
(I3
I9
tp296
sg13
I4
sg14
I11
sg15
I11
sg16
I5891625650498269233
sb(imulti_robot_problem
MultiRobotState
p297
(dp298
g19
g20
((lp299
(I7
I3
tp300
a(I4
I7
tp301
a(I6
I6
tp302
a(I5
I6
tp303
a(I2
I8
tp304
a(I6
I2
tp305
a(I5
I1
tp306
a(I3
I7
tp307
a(I8
I5
tp308
a(I5
I5
tp309
a(I2
I9
tp310
a(I7
I6
tp311
a(I4
I4
tp312
a(I2
I2
tp313
a(I1
I1
tp314
a(I9
I7
tp315
a(I3
I2
tp316
a(I10
I4
tp317
a(I4
I5
tp318
a(I9
I3
tp319
a(I10
I5
tp320
a(I2
I10
tp321
a(I7
I5
tp322
a(I2
I3
tp323
a(I8
I3
tp324
a(I4
I6
tp325
a(I5
I2
tp326
a(I6
I1
tp327
a(I3
I8
tp328
a(I1
I8
tp329
ag296
a(I4
I3
tp330
a(I9
I5
tp331
a(I3
I4
tp332
a(I8
I4
tp333
atp334
Rp335
sg15
I11
sg28
g20
((lp336
(I8
I8
tp337
a(I5
I10
tp338
a(I9
I1
tp339
a(I10
I7
tp340
a(I1
I6
tp341
a(I7
I9
tp342
atp343
Rp344
sg13
((I5
I7
tp345
(I8
I1
tp346
(I0
I5
tp347
(I4
I0
tp348
tp349
sg14
I11
sbs(iproblems
RoomID
p350
(dp351
g10
I10
sg11
(I1
I5
tp352
sg13
I4
sg14
I12
sg15
I10
sg16
I1737871632067391849
sb(imulti_robot_problem
MultiRobotState
p353
(dp354
g19
g20
((lp355
(I3
I2
tp356
a(I0
I0
tp357
a(I6
I6
tp358
a(I5
I6
tp359
a(I2
I8
tp360
a(I2
I10
tp361
a(I8
I9
tp362
a(I6
I2
tp363
a(I2
I3
tp364
a(I8
I7
tp365
a(I5
I1
tp366
a(I8
I5
tp367
a(I5
I8
tp368
a(I8
I3
tp369
a(I5
I5
tp370
a(I7
I8
tp371
a(I7
I6
tp372
a(I8
I10
tp373
ag352
a(I6
I5
tp374
a(I2
I2
tp375
a(I4
I1
tp376
a(I2
I4
tp377
atp378
Rp379
sg15
I10
sg28
g20
((lp380
(I0
I1
tp381
a(I4
I10
tp382
a(I4
I8
tp383
a(I3
I0
tp384
a(I9
I6
tp385
a(I3
I10
tp386
a(I5
I11
tp387
a(I2
I7
tp388
a(I1
I9
tp389
a(I3
I4
tp390
atp391
Rp392
sg13
((I4
I9
tp393
(I8
I11
tp394
(I4
I0
tp395
(I3
I9
tp396
tp397
sg14
I12
sbs(iproblems
RoomID
p398
(dp399
g10
I7
sg11
(I8
I8
tp400
sg13
I3
sg14
I9
sg15
I9
sg16
I7834319822419845881
sb(imulti_robot_problem
MultiRobotState
p401
(dp402
g19
g20
((lp403
(I4
I7
tp404
a(I1
I3
tp405
a(I5
I0
tp406
a(I6
I6
tp407
a(I5
I6
tp408
a(I2
I8
tp409
a(I3
I5
tp410
a(I4
I6
tp411
a(I2
I6
tp412
a(I0
I5
tp413
a(I3
I7
tp414
a(I0
I3
tp415
a(I0
I8
tp416
a(I8
I5
tp417
a(I5
I8
tp418
a(I3
I3
tp419
a(I2
I7
tp420
a(I6
I7
tp421
a(I5
I5
tp422
a(I7
I8
tp423
a(I4
I4
tp424
a(I1
I5
tp425
a(I1
I8
tp426
ag400
a(I3
I6
tp427
a(I1
I7
tp428
a(I4
I5
tp429
a(I5
I3
tp430
a(I3
I4
tp431
atp432
Rp433
sg15
I9
sg28
g20
((lp434
(I7
I4
tp435
a(I2
I0
tp436
a(I6
I2
tp437
a(I7
I0
tp438
a(I8
I7
tp439
a(I7
I1
tp440
a(I1
I4
tp441
atp442
Rp443
sg13
((I2
I1
tp444
(I2
I3
tp445
(I5
I7
tp446
tp447
sg14
I9
sbssg149
S'mild_roomset'
p448
sbsg149
g151
sg152
(dp449
g192
((lp450
F40.290000000000873
tp451
sg244
((lp452
(F7.8499999999985448
I127
tp453
aF40.0
tp454
sg294
((lp455
(F4.75
I64
tp456
aF40.229999999999563
tp457
sg350
((lp458
(F1.1399999999994179
I12
tp459
aF40.080000000001746
tp460
sg398
((lp461
(F0.13999999999941792
I25
tp462
aF40.009999999998399
tp463
ssba(imeasure_core
ProblemSetSolution
p464
(dp465
g3
(imeasure_core
RoomSet
p466
(dp467
g6
(dp468
(iproblems
RoomID
p469
(dp470
g10
I12
sg11
(I6
I3
tp471
sg13
I5
sg14
I10
sg15
I12
sg16
I1486246605650367638
sb(imulti_robot_problem
MultiRobotState
p472
(dp473
g19
g20
((lp474
(I5
I9
tp475
a(I1
I3
tp476
a(I7
I1
tp477
a(I2
I7
tp478
a(I1
I4
tp479
a(I6
I2
tp480
a(I1
I6
tp481
a(I2
I1
tp482
a(I0
I3
tp483
a(I6
I5
tp484
a(I1
I2
tp485
a(I1
I5
tp486
a(I4
I1
tp487
a(I3
I1
tp488
ag471
a(I2
I0
tp489
a(I10
I0
tp490
a(I5
I2
tp491
a(I1
I1
tp492
a(I8
I4
tp493
atp494
Rp495
sg15
I12
sg28
g20
((lp496
(I11
I7
tp497
a(I11
I4
tp498
a(I9
I1
tp499
a(I11
I8
tp500
a(I2
I8
tp501
a(I6
I0
tp502
a(I0
I6
tp503
a(I11
I1
tp504
a(I0
I4
tp505
a(I4
I9
tp506
a(I10
I9
tp507
a(I9
I7
tp508
atp509
Rp510
sg13
((I2
I4
tp511
(I10
I1
tp512
(I2
I5
tp513
(I9
I8
tp514
(I6
I6
tp515
tp516
sg14
I10
sbs(iproblems
RoomID
p517
(dp518
g10
I14
sg11
(I7
I6
tp519
sg13
I7
sg14
I13
sg15
I13
sg16
I679259829289197625
sb(imulti_robot_problem
MultiRobotState
p520
(dp521
g19
g20
((lp522
(I6
I4
tp523
a(I4
I8
tp524
a(I12
I7
tp525
a(I10
I6
tp526
a(I7
I5
tp527
a(I12
I11
tp528
a(I9
I6
tp529
a(I1
I2
tp530
a(I11
I7
tp531
a(I10
I7
tp532
ag519
a(I6
I3
tp533
a(I6
I2
tp534
a(I4
I3
tp535
a(I3
I4
tp536
a(I12
I8
tp537
atp538
Rp539
sg15
I13
sg28
g20
((lp540
(I2
I7
tp541
a(I12
I1
tp542
a(I9
I2
tp543
a(I2
I8
tp544
a(I5
I7
tp545
a(I10
I0
tp546
a(I1
I4
tp547
a(I0
I12
tp548
a(I7
I4
tp549
a(I10
I9
tp550
a(I4
I2
tp551
a(I11
I4
tp552
a(I11
I6
tp553
a(I1
I9
tp554
atp555
Rp556
sg13
((I9
I11
tp557
(I9
I10
tp558
(I4
I7
tp559
(I4
I12
tp560
(I7
I1
tp561
(I1
I8
tp562
(I1
I6
tp563
tp564
sg14
I13
sbs(iproblems
RoomID
p565
(dp566
g10
I11
sg11
(I2
I7
tp567
sg13
I6
sg14
I11
sg15
I13
sg16
I403795515464475257
sb(imulti_robot_problem
MultiRobotState
p568
(dp569
g19
g20
((lp570
g567
a(I10
I8
tp571
a(I1
I7
tp572
a(I3
I10
tp573
a(I4
I4
tp574
a(I1
I4
tp575
a(I12
I5
tp576
a(I0
I6
tp577
a(I0
I5
tp578
a(I3
I6
tp579
a(I2
I2
tp580
a(I0
I8
tp581
a(I7
I9
tp582
atp583
Rp584
sg15
I13
sg28
g20
((lp585
(I6
I4
tp586
a(I0
I0
tp587
a(I2
I9
tp588
a(I11
I5
tp589
a(I8
I9
tp590
a(I11
I1
tp591
a(I2
I3
tp592
a(I1
I10
tp593
a(I12
I2
tp594
a(I0
I3
tp595
a(I5
I2
tp596
atp597
Rp598
sg13
((I10
I3
tp599
(I7
I2
tp600
(I7
I0
tp601
(I3
I1
tp602
(I5
I10
tp603
(I9
I4
tp604
tp605
sg14
I11
sbs(iproblems
RoomID
p606
(dp607
g10
I11
sg11
(I11
I9
tp608
sg13
I7
sg14
I12
sg15
I12
sg16
I5891625650498269233
sb(imulti_robot_problem
MultiRobotState
p609
(dp610
g19
g20
((lp611
(I4
I4
tp612
a(I4
I8
tp613
a(I5
I6
tp614
a(I8
I11
tp615
ag608
a(I7
I7
tp616
a(I7
I1
tp617
a(I9
I10
tp618
a(I3
I9
tp619
a(I1
I9
tp620
a(I6
I7
tp621
a(I10
I7
tp622
a(I7
I6
tp623
a(I5
I7
tp624
a(I2
I11
tp625
a(I6
I11
tp626
a(I9
I11
tp627
a(I7
I10
tp628
a(I10
I9
tp629
atp630
Rp631
sg15
I12
sg28
g20
((lp632
(I11
I7
tp633
a(I11
I4
tp634
a(I4
I6
tp635
a(I5
I11
tp636
a(I8
I10
tp637
a(I0
I5
tp638
a(I8
I7
tp639
a(I1
I7
tp640
a(I10
I1
tp641
a(I1
I1
tp642
a(I5
I5
tp643
atp644
Rp645
sg13
((I6
I8
tp646
(I9
I2
tp647
(I0
I6
tp648
(I10
I3
tp649
(I9
I5
tp650
(I5
I0
tp651
(I9
I8
tp652
tp653
sg14
I12
sbs(iproblems
RoomID
p654
(dp655
g10
I10
sg11
(I6
I9
tp656
sg13
I5
sg14
I12
sg15
I12
sg16
I2685440357799139976
sb(imulti_robot_problem
MultiRobotState
p657
(dp658
g19
g20
((lp659
(I4
I10
tp660
ag656
a(I9
I1
tp661
a(I5
I11
tp662
a(I3
I0
tp663
a(I0
I7
tp664
a(I3
I9
tp665
a(I0
I5
tp666
a(I1
I4
tp667
a(I0
I3
tp668
a(I4
I0
tp669
a(I1
I2
tp670
a(I11
I10
tp671
a(I6
I10
tp672
a(I5
I6
tp673
a(I9
I11
tp674
a(I7
I9
tp675
a(I4
I5
tp676
a(I3
I5
tp677
a(I3
I4
tp678
a(I2
I4
tp679
a(I1
I9
tp680
atp681
Rp682
sg15
I12
sg28
g20
((lp683
(I11
I7
tp684
a(I8
I3
tp685
a(I10
I11
tp686
a(I7
I1
tp687
a(I10
I5
tp688
a(I8
I10
tp689
a(I6
I3
tp690
a(I3
I6
tp691
a(I9
I10
tp692
a(I6
I5
tp693
atp694
Rp695
sg13
((I7
I7
tp696
(I0
I0
tp697
(I11
I9
tp698
(I0
I2
tp699
(I4
I1
tp700
tp701
sg14
I12
sbssg149
S'heavy_roomset'
p702
sbsg149
g151
sg152
(dp703
g469
((lp704
(F29.81000000000131
I113
tp705
aF40.049999999999272
tp706
sg517
((lp707
F42.280000000002474
tp708
sg565
((lp709
(F28.489999999997963
I19
tp710
aF42.159999999999854
tp711
sg606
((lp712
F42.899999999997817
tp713
sg654
((lp714
(F9.6700000000018917
I58
tp715
aF40.020000000000437
tp716
ssba(imeasure_core
ProblemSetSolution
p717
(dp718
g3
g4
sg149
S"AnytimeBeam-w20-gf(4, 'lin')_with_PowerHeuristic2"
p719
sg152
(dp720
g8
((lp721
(F0.11000000000058208
I45
tp722
a(F4.8500000000021828
I44
tp723
a(F7.930000000000291
I41
tp724
a(F8.3400000000001455
I37
tp725
a(F8.9500000000007276
I36
tp726
a(F9.569999999999709
I34
tp727
a(F11.580000000001746
I33
tp728
a(F13.799999999999272
I31
tp729
a(F16.740000000001601
I30
tp730
a(F19.909999999999854
I28
tp731
a(F22.340000000000146
I26
tp732
a(F27.369999999998981
I25
tp733
aF40.0
tp734
sg41
((lp735
(F1.5499999999992724
I20
tp736
aF40.279999999998836
tp737
sg70
((lp738
(F1.1200000000026193
I8
tp739
aF40.110000000000582
tp740
sg95
((lp741
(F14.530000000002474
I134
tp742
aF40.280000000002474
tp743
sg123
((lp744
(F0.15999999999985448
I47
tp745
a(F1.2799999999988358
I45
tp746
a(F2.3400000000001455
I43
tp747
a(F3.3400000000001455
I35
tp748
a(F4.4899999999979627
I33
tp749
a(F5.7799999999988358
I31
tp750
a(F7.1099999999969441
I29
tp751
a(F9.4499999999970896
I27
tp752
a(F12.669999999998254
I25
tp753
a(F15.399999999997817
I23
tp754
aF40.0
tp755
ssba(imeasure_core
ProblemSetSolution
p756
(dp757
g3
g189
sg149
g719
sg152
(dp758
g192
((lp759
F40.159999999999854
tp760
sg244
((lp761
(F9.6100000000005821
I127
tp762
aF40.169999999998254
tp763
sg294
((lp764
(F5.2700000000004366
I64
tp765
aF40.510000000002037
tp766
sg350
((lp767
(F1.180000000000291
I12
tp768
aF40.239999999997963
tp769
sg398
((lp770
(F0.13999999999941792
I25
tp771
aF40.020000000000437
tp772
ssba(imeasure_core
ProblemSetSolution
p773
(dp774
g3
g466
sg149
g719
sg152
(dp775
g469
((lp776
(F34.880000000001019
I113
tp777
aF40.140000000003056
tp778
sg517
((lp779
F42.729999999999563
tp780
sg565
((lp781
(F30.639999999999418
I19
tp782
aF41.899999999997817
tp783
sg606
((lp784
F43.400000000001455
tp785
sg654
((lp786
(F11.079999999998108
I58
tp787
aF40.299999999999272
tp788
ssba(imeasure_core
ProblemSetSolution
p789
(dp790
g3
g4
sg149
S"AnytimeBeam-w20-gf(8, 'lin')_with_PowerHeuristic2"
p791
sg152
(dp792
g8
((lp793
(F0.11999999999898137
I45
tp794
a(F2.569999999999709
I44
tp795
a(F4.4799999999995634
I39
tp796
a(F4.7900000000008731
I37
tp797
a(F5.3899999999994179
I36
tp798
a(F6.0100000000020373
I34
tp799
a(F8.0900000000001455
I33
tp800
a(F10.319999999999709
I31
tp801
a(F13.260000000002037
I30
tp802
a(F16.440000000002328
I28
tp803
a(F18.880000000001019
I26
tp804
a(F23.930000000000291
I25
tp805
a(F30.380000000001019
I24
tp806
aF40.0
tp807
sg41
((lp808
(F1.7700000000004366
I20
tp809
aF40.049999999999272
tp810
sg70
((lp811
(F1.3000000000029104
I8
tp812
aF40.330000000001746
tp813
sg95
((lp814
(F15.81000000000131
I134
tp815
aF40.389999999999418
tp816
sg123
((lp817
(F0.17000000000189175
I47
tp818
a(F1.2799999999988358
I45
tp819
a(F2.3400000000001455
I43
tp820
a(F3.3400000000001455
I35
tp821
a(F4.4900000000016007
I33
tp822
a(F5.7799999999988358
I31
tp823
a(F7.1199999999989814
I29
tp824
a(F9.5
I27
tp825
a(F12.779999999998836
I25
tp826
a(F15.56000000000131
I23
tp827
aF40.0
tp828
ssba(imeasure_core
ProblemSetSolution
p829
(dp830
g3
g189
sg149
g791
sg152
(dp831
g192
((lp832
F40.209999999999127
tp833
sg244
((lp834
(F13.130000000001019
I127
tp835
aF40.069999999999709
tp836
sg294
((lp837
(F6.1599999999998545
I64
tp838
aF40.140000000003056
tp839
sg350
((lp840
(F1.1899999999986903
I12
tp841
aF40.159999999999854
tp842
sg398
((lp843
(F0.12999999999738066
I25
tp844
aF40.009999999998399
tp845
ssba(imeasure_core
ProblemSetSolution
p846
(dp847
g3
g466
sg149
g791
sg152
(dp848
g469
((lp849
F40.069999999999709
tp850
sg517
((lp851
F42.709999999999127
tp852
sg565
((lp853
(F33.360000000000582
I19
tp854
aF42.370000000002619
tp855
sg606
((lp856
F43.959999999999127
tp857
sg654
((lp858
(F13.020000000000437
I58
tp859
aF41.009999999998399
tp860
ssba(imeasure_core
ProblemSetSolution
p861
(dp862
g3
g4
sg149
S"AnytimeBeam-w20-gf(16, 'lin')_with_PowerHeuristic2"
p863
sg152
(dp864
g8
((lp865
(F0.11000000000058208
I45
tp866
a(F1.430000000000291
I44
tp867
a(F2.7299999999995634
I37
tp868
a(F3.3400000000001455
I36
tp869
a(F3.9599999999991269
I34
tp870
a(F6.0399999999972351
I33
tp871
a(F8.2899999999972351
I31
tp872
a(F11.25
I30
tp873
a(F14.450000000000728
I28
tp874
a(F16.889999999999418
I26
tp875
a(F21.930000000000291
I25
tp876
a(F28.349999999998545
I24
tp877
aF40.0
tp878
sg41
((lp879
(F2.1100000000005821
I20
tp880
aF40.119999999998981
tp881
sg70
((lp882
(F1.430000000000291
I8
tp883
aF40.069999999999709
tp884
sg95
((lp885
(F16.319999999999709
I134
tp886
aF40.260000000002037
tp887
sg123
((lp888
(F0.15999999999985448
I47
tp889
a(F1.2899999999972351
I45
tp890
a(F2.3499999999985448
I43
tp891
a(F3.3599999999969441
I35
tp892
a(F4.5299999999988358
I33
tp893
a(F5.8299999999981083
I31
tp894
a(F7.1499999999978172
I29
tp895
a(F9.5299999999988358
I27
tp896
a(F12.819999999999709
I25
tp897
a(F15.589999999996508
I23
tp898
aF40.0
tp899
ssba(imeasure_core
ProblemSetSolution
p900
(dp901
g3
g189
sg149
g863
sg152
(dp902
g192
((lp903
F40.019999999996799
tp904
sg244
((lp905
(F17.690000000002328
I127
tp906
aF40.120000000002619
tp907
sg294
((lp908
(F7.2199999999975262
I64
tp909
aF40.079999999998108
tp910
sg350
((lp911
(F1.1900000000023283
I12
tp912
aF40.06000000000131
tp913
sg398
((lp914
(F0.13999999999941792
I25
tp915
aF40.009999999998399
tp916
ssba(imeasure_core
ProblemSetSolution
p917
(dp918
g3
g466
sg149
g863
sg152
(dp919
g469
((lp920
F40.650000000001455
tp921
sg517
((lp922
F43.009999999998399
tp923
sg565
((lp924
(F36.889999999999418
I19
tp925
aF42.630000000001019
tp926
sg606
((lp927
F44.549999999999272
tp928
sg654
((lp929
(F15.470000000001164
I58
tp930
aF41.25
tp931
ssba(imeasure_core
ProblemSetSolution
p932
(dp933
g3
g4
sg149
S"AnytimeBeam-w20-gf(2, 'lin')_with_LinearHeuristic"
p934
sg152
(dp935
g8
((lp936
(F0.0099999999983992893
I24
tp937
aF40.0
tp938
sg41
((lp939
F40.0
tp940
sg70
((lp941
(F0.64999999999781721
I4
tp942
aF40.029999999998836
tp943
sg95
((lp944
F40.229999999999563
tp945
sg123
((lp946
(F0.020000000000436557
I23
tp947
aF40.0
tp948
ssba(imeasure_core
ProblemSetSolution
p949
(dp950
g3
g189
sg149
g934
sg152
(dp951
g192
((lp952
F40.229999999999563
tp953
sg244
((lp954
F40.040000000000873
tp955
sg294
((lp956
F40.090000000000146
tp957
sg350
((lp958
F40.099999999998545
tp959
sg398
((lp960
F40.040000000000873
tp961
ssba(imeasure_core
ProblemSetSolution
p962
(dp963
g3
g466
sg149
g934
sg152
(dp964
g469
((lp965
F40.209999999999127
tp966
sg517
((lp967
F47.75
tp968
sg565
((lp969
(F23.229999999999563
I10
tp970
aF40.55000000000291
tp971
sg606
((lp972
F41.619999999998981
tp973
sg654
((lp974
F40.340000000000146
tp975
ssba(imeasure_core
ProblemSetSolution
p976
(dp977
g3
g4
sg149
S"AnytimeBeam-w20-gf(4, 'lin')_with_LinearHeuristic"
p978
sg152
(dp979
g8
((lp980
(F0.020000000000436557
I24
tp981
aF40.0
tp982
sg41
((lp983
F40.069999999999709
tp984
sg70
((lp985
(F0.72999999999956344
I4
tp986
aF40.169999999998254
tp987
sg95
((lp988
F40.010000000002037
tp989
sg123
((lp990
(F0.0099999999983992893
I23
tp991
aF40.0
tp992
ssba(imeasure_core
ProblemSetSolution
p993
(dp994
g3
g189
sg149
g978
sg152
(dp995
g192
((lp996
F40.229999999999563
tp997
sg244
((lp998
F40.25
tp999
sg294
((lp1000
F40.090000000000146
tp1001
sg350
((lp1002
F40.479999999999563
tp1003
sg398
((lp1004
F40.049999999999272
tp1005
ssba(imeasure_core
ProblemSetSolution
p1006
(dp1007
g3
g466
sg149
g978
sg152
(dp1008
g469
((lp1009
F40.090000000000146
tp1010
sg517
((lp1011
F49.30000000000291
tp1012
sg565
((lp1013
(F25.720000000001164
I10
tp1014
aF42.029999999998836
tp1015
sg606
((lp1016
F42.940000000002328
tp1017
sg654
((lp1018
F40.109999999993306
tp1019
ssba(imeasure_core
ProblemSetSolution
p1020
(dp1021
g3
g4
sg149
S"AnytimeBeam-w20-gf(8, 'lin')_with_LinearHeuristic"
p1022
sg152
(dp1023
g8
((lp1024
(F0.010000000002037268
I24
tp1025
aF40.0
tp1026
sg41
((lp1027
F40.75
tp1028
sg70
((lp1029
(F0.77000000000407454
I4
tp1030
aF40.280000000006112
tp1031
sg95
((lp1032
F40.0
tp1033
sg123
((lp1034
(F0.019999999996798579
I23
tp1035
aF40.0
tp1036
ssba(imeasure_core
ProblemSetSolution
p1037
(dp1038
g3
g189
sg149
g1022
sg152
(dp1039
g192
((lp1040
F40.009999999994761
tp1041
sg244
((lp1042
F40.139999999999418
tp1043
sg294
((lp1044
F40.0
tp1045
sg350
((lp1046
F40.220000000001164
tp1047
sg398
((lp1048
F40.020000000004075
tp1049
ssba(imeasure_core
ProblemSetSolution
p1050
(dp1051
g3
g466
sg149
g1022
sg152
(dp1052
g469
((lp1053
F40.100000000005821
tp1054
sg517
((lp1055
F50.349999999998545
tp1056
sg565
((lp1057
(F26.819999999999709
I10
tp1058
aF41.599999999998545
tp1059
sg606
((lp1060
F43.370000000002619
tp1061
sg654
((lp1062
F40.649999999994179
tp1063
ssba(imeasure_core
ProblemSetSolution
p1064
(dp1065
g3
g4
sg149
S"AnytimeBeam-w20-gf(16, 'lin')_with_LinearHeuristic"
p1066
sg152
(dp1067
g8
((lp1068
(F0.020000000004074536
I24
tp1069
aF40.0
tp1070
sg41
((lp1071
F40.819999999999709
tp1072
sg70
((lp1073
(F0.83000000000174623
I4
tp1074
aF40.120000000002619
tp1075
sg95
((lp1076
F40.020000000004075
tp1077
sg123
((lp1078
(F0.019999999996798579
I23
tp1079
aF40.0
tp1080
ssba(imeasure_core
ProblemSetSolution
p1081
(dp1082
g3
g189
sg149
g1066
sg152
(dp1083
g192
((lp1084
F40.120000000002619
tp1085
sg244
((lp1086
F40.080000000001746
tp1087
sg294
((lp1088
F40.149999999994179
tp1089
sg350
((lp1090
F40.080000000001746
tp1091
sg398
((lp1092
F40.010000000002037
tp1093
ssba(imeasure_core
ProblemSetSolution
p1094
(dp1095
g3
g466
sg149
g1066
sg152
(dp1096
g469
((lp1097
F40.029999999998836
tp1098
sg517
((lp1099
F52.770000000004075
tp1100
sg565
((lp1101
(F29.229999999995925
I10
tp1102
aF42.489999999997963
tp1103
sg606
((lp1104
F45.209999999999127
tp1105
sg654
((lp1106
F40.339999999996508
tp1107
ssba.