(lp0
(imeasure_core
ProblemSetSolution
p1
(dp2
S'roomset'
p3
(imeasure_core
RoomSet
p4
(dp5
S'rooms'
p6
(dp7
(iproblems
RoomID
p8
(dp9
S'width'
p10
I7
sS'dusts'
p11
I8
sS'seed'
p12
I7106521602475165645
sS'obstacles'
p13
(I2
I8
tp14
sS'robots'
p15
I4
sS'height'
p16
I10
sb(imulti_robot_problem
MultiRobotState
p17
(dp18
S'obstacle_locations'
p19
c__builtin__
frozenset
p20
((lp21
(I5
I9
tp22
a(I4
I9
tp23
ag14
a(I3
I8
tp24
a(I5
I2
tp25
a(I5
I8
tp26
atp27
Rp28
sg10
I7
sS'dirt_locations'
p29
g20
((lp30
(I1
I2
tp31
a(I2
I7
tp32
a(I0
I0
tp33
a(I3
I1
tp34
a(I6
I0
tp35
a(I2
I1
tp36
a(I2
I3
tp37
a(I2
I5
tp38
atp39
Rp40
sg15
((I0
I8
tp41
(I4
I5
tp42
(I3
I9
tp43
(I1
I8
tp44
tp45
sg16
I10
sbs(iproblems
RoomID
p46
(dp47
g10
I8
sg11
I10
sg12
I746805015404516437
sg13
(I3
I3
tp48
sg15
I4
sg16
I10
sb(imulti_robot_problem
MultiRobotState
p49
(dp50
g19
g20
((lp51
g48
a(I6
I1
tp52
a(I3
I1
tp53
a(I1
I4
tp54
a(I7
I4
tp55
a(I4
I2
tp56
a(I4
I1
tp57
atp58
Rp59
sg10
I8
sg29
g20
((lp60
(I4
I6
tp61
a(I6
I3
tp62
a(I2
I0
tp63
a(I3
I9
tp64
a(I2
I3
tp65
a(I3
I6
tp66
a(I5
I1
tp67
a(I1
I0
tp68
a(I0
I8
tp69
a(I5
I8
tp70
atp71
Rp72
sg15
((I3
I8
tp73
(I4
I8
tp74
(I4
I9
tp75
(I0
I3
tp76
tp77
sg16
I10
sbs(iproblems
RoomID
p78
(dp79
g10
I8
sg11
I5
sg12
I6604845167042249220
sg13
(I4
I5
tp80
sg15
I1
sg16
I9
sb(imulti_robot_problem
MultiRobotState
p81
(dp82
g19
g20
((lp83
(I7
I4
tp84
ag80
a(I5
I4
tp85
a(I6
I1
tp86
a(I6
I5
tp87
atp88
Rp89
sg10
I8
sg29
g20
((lp90
(I2
I8
tp91
a(I1
I0
tp92
a(I1
I1
tp93
a(I4
I3
tp94
a(I4
I8
tp95
atp96
Rp97
sg15
((I3
I6
tp98
tp99
sg16
I9
sbs(iproblems
RoomID
p100
(dp101
g10
I9
sg11
I6
sg12
I4029557120079369747
sg13
(I7
I4
tp102
sg15
I2
sg16
I7
sb(imulti_robot_problem
MultiRobotState
p103
(dp104
g19
g20
((lp105
(I4
I1
tp106
a(I6
I1
tp107
ag102
a(I7
I5
tp108
a(I8
I5
tp109
a(I8
I4
tp110
atp111
Rp112
sg10
I9
sg29
g20
((lp113
(I2
I6
tp114
a(I6
I6
tp115
a(I3
I0
tp116
a(I2
I5
tp117
a(I1
I1
tp118
a(I5
I3
tp119
atp120
Rp121
sg15
((I6
I0
tp122
(I3
I1
tp123
tp124
sg16
I7
sbs(iproblems
RoomID
p125
(dp126
g10
I9
sg11
I9
sg12
I8963783824838420066
sg13
(I7
I6
tp127
sg15
I5
sg16
I9
sb(imulti_robot_problem
MultiRobotState
p128
(dp129
g19
g20
((lp130
(I2
I7
tp131
a(I6
I6
tp132
a(I5
I5
tp133
a(I7
I1
tp134
ag127
a(I4
I4
tp135
a(I7
I5
tp136
a(I2
I2
tp137
a(I6
I5
tp138
atp139
Rp140
sg10
I9
sg29
g20
((lp141
(I3
I0
tp142
a(I0
I7
tp143
a(I6
I3
tp144
a(I2
I1
tp145
a(I3
I7
tp146
a(I8
I6
tp147
a(I0
I8
tp148
a(I8
I5
tp149
a(I7
I2
tp150
atp151
Rp152
sg15
((I7
I7
tp153
(I2
I4
tp154
(I3
I2
tp155
(I4
I7
tp156
(I5
I0
tp157
tp158
sg16
I9
sbssS'name'
p159
S'easy_roomset'
p160
sbsS'name'
p161
S"AnytimeBeam-w5-gf(1.3, 'exp')_with_PowerHeuristic2"
p162
sS'solutions'
p163
(dp164
g8
((lp165
(F0.40000000000000002
I15
tp166
aF40.160000000000004
tp167
sg46
((lp168
(F1.4199999999999946
I25
tp169
a(F6.4299999999999997
I20
tp170
aF40.039999999999992
tp171
sg78
((lp172
(F0.050000000000011369
I41
tp173
a(F0.10999999999999943
I37
tp174
a(F0.25
I35
tp175
a(F2.7600000000000051
I33
tp176
a(F3.6200000000000045
I30
tp177
a(F4.3100000000000023
I26
tp178
a(F5.1000000000000085
I25
tp179
a(F5.8599999999999994
I23
tp180
a(F6.6099999999999994
I21
tp181
a(F7.9400000000000119
I20
tp182
a(F9.1700000000000017
I18
tp183
aF40.0
tp184
sg100
((lp185
(F0.07000000000000739
I18
tp186
aF40.000000000000014
tp187
sg125
((lp188
(F1.1599999999999966
I7
tp189
aF40.399999999999977
tp190
ssba(imeasure_core
ProblemSetSolution
p191
(dp192
g3
(imeasure_core
RoomSet
p193
(dp194
S'rooms'
p195
(dp196
(iproblems
RoomID
p197
(dp198
S'width'
p199
I11
sS'dusts'
p200
I6
sS'seed'
p201
I4029557120079369747
sS'obstacles'
p202
(I5
I8
tp203
sS'robots'
p204
I3
sS'height'
p205
I9
sb(imulti_robot_problem
MultiRobotState
p206
(dp207
S'obstacle_locations'
p208
g20
((lp209
(I7
I3
tp210
a(I1
I3
tp211
a(I4
I8
tp212
a(I10
I6
tp213
a(I3
I7
tp214
a(I5
I1
tp215
a(I2
I5
tp216
a(I8
I5
tp217
ag203
a(I10
I7
tp218
a(I4
I4
tp219
a(I6
I3
tp220
a(I3
I6
tp221
a(I7
I1
tp222
a(I1
I4
tp223
a(I9
I6
tp224
a(I10
I5
tp225
a(I4
I6
tp226
a(I6
I1
tp227
a(I1
I7
tp228
a(I9
I5
tp229
a(I2
I4
tp230
a(I8
I4
tp231
atp232
Rp233
sg199
I11
sS'dirt_locations'
p234
g20
((lp235
(I2
I1
tp236
a(I3
I8
tp237
a(I8
I8
tp238
a(I5
I2
tp239
a(I1
I1
tp240
a(I7
I2
tp241
atp242
Rp243
sg204
((I8
I0
tp244
(I3
I1
tp245
(I4
I0
tp246
tp247
sg205
I9
sbs(iproblems
RoomID
p248
(dp249
g199
I12
sg200
I10
sg201
I2569146471088859254
sg202
(I4
I4
tp250
sg204
I4
sg205
I12
sb(imulti_robot_problem
MultiRobotState
p251
(dp252
g208
g20
((lp253
(I5
I4
tp254
a(I5
I5
tp255
a(I4
I8
tp256
a(I4
I5
tp257
a(I11
I2
tp258
ag250
a(I2
I11
tp259
a(I4
I7
tp260
a(I7
I2
tp261
a(I5
I6
tp262
a(I1
I9
tp263
a(I4
I3
tp264
a(I2
I2
tp265
a(I10
I0
tp266
a(I5
I11
tp267
a(I10
I3
tp268
a(I1
I1
tp269
a(I5
I8
tp270
a(I3
I3
tp271
atp272
Rp273
sg199
I12
sg234
g20
((lp274
(I2
I7
tp275
a(I10
I10
tp276
a(I3
I0
tp277
a(I3
I11
tp278
a(I2
I4
tp279
a(I1
I5
tp280
a(I9
I4
tp281
a(I0
I8
tp282
a(I0
I2
tp283
a(I11
I6
tp284
atp285
Rp286
sg204
((I9
I11
tp287
(I7
I10
tp288
(I6
I0
tp289
(I10
I1
tp290
tp291
sg205
I12
sbs(iproblems
RoomID
p292
(dp293
g199
I12
sg200
I7
sg201
I2577854692418029171
sg202
(I5
I4
tp294
sg204
I3
sg205
I11
sb(imulti_robot_problem
MultiRobotState
p295
(dp296
g208
g20
((lp297
(I4
I7
tp298
a(I3
I0
tp299
a(I8
I0
tp300
a(I2
I1
tp301
a(I6
I2
tp302
a(I1
I6
tp303
a(I5
I1
tp304
a(I4
I0
tp305
a(I1
I2
tp306
a(I4
I9
tp307
a(I3
I3
tp308
a(I8
I1
tp309
a(I3
I10
tp310
a(I6
I3
tp311
a(I3
I6
tp312
a(I1
I10
tp313
a(I8
I6
tp314
a(I5
I3
tp315
ag294
a(I2
I6
tp316
a(I7
I1
tp317
a(I6
I0
tp318
a(I1
I9
tp319
a(I4
I2
tp320
a(I0
I8
tp321
a(I3
I5
tp322
a(I0
I1
tp323
a(I7
I0
tp324
a(I3
I4
tp325
a(I6
I1
tp326
a(I3
I1
tp327
a(I3
I8
tp328
a(I5
I2
tp329
a(I2
I4
tp330
atp331
Rp332
sg199
I12
sg234
g20
((lp333
(I4
I10
tp334
a(I10
I5
tp335
a(I2
I8
tp336
a(I7
I6
tp337
a(I4
I4
tp338
a(I10
I1
tp339
a(I9
I7
tp340
atp341
Rp342
sg204
((I10
I6
tp343
(I1
I4
tp344
(I11
I8
tp345
tp346
sg205
I11
sbs(iproblems
RoomID
p347
(dp348
g199
I12
sg200
I6
sg201
I1360307757430227195
sg202
(I4
I5
tp349
sg204
I3
sg205
I12
sb(imulti_robot_problem
MultiRobotState
p350
(dp351
g208
g20
((lp352
(I6
I4
tp353
a(I3
I2
tp354
a(I6
I3
tp355
a(I6
I7
tp356
a(I10
I4
tp357
a(I3
I0
tp358
a(I5
I5
tp359
a(I5
I4
tp360
a(I8
I10
tp361
a(I7
I4
tp362
a(I5
I6
tp363
a(I9
I5
tp364
a(I7
I5
tp365
a(I8
I3
tp366
ag349
a(I6
I2
tp367
a(I5
I1
tp368
a(I5
I3
tp369
a(I8
I5
tp370
a(I6
I5
tp371
a(I4
I0
tp372
atp373
Rp374
sg199
I12
sg234
g20
((lp375
(I3
I3
tp376
a(I9
I2
tp377
a(I5
I7
tp378
a(I4
I3
tp379
a(I0
I2
tp380
a(I11
I6
tp381
atp382
Rp383
sg204
((I11
I11
tp384
(I1
I3
tp385
(I0
I1
tp386
tp387
sg205
I12
sbs(iproblems
RoomID
p388
(dp389
g199
I10
sg200
I6
sg201
I1821862095355237593
sg202
(I2
I4
tp390
sg204
I3
sg205
I10
sb(imulti_robot_problem
MultiRobotState
p391
(dp392
g208
g20
((lp393
(I4
I7
tp394
a(I5
I6
tp395
a(I8
I5
tp396
a(I7
I2
tp397
a(I6
I7
tp398
a(I3
I3
tp399
a(I4
I4
tp400
a(I6
I3
tp401
a(I0
I4
tp402
a(I8
I6
tp403
a(I3
I5
tp404
a(I6
I4
tp405
a(I2
I6
tp406
a(I4
I5
tp407
a(I7
I9
tp408
a(I6
I0
tp409
a(I1
I9
tp410
a(I6
I5
tp411
a(I5
I5
tp412
a(I5
I3
tp413
a(I4
I3
tp414
a(I3
I4
tp415
ag390
atp416
Rp417
sg199
I10
sg234
g20
((lp418
(I7
I0
tp419
a(I2
I8
tp420
a(I0
I6
tp421
a(I2
I3
tp422
a(I5
I1
tp423
a(I9
I6
tp424
atp425
Rp426
sg204
((I2
I2
tp427
(I4
I2
tp428
(I0
I7
tp429
tp430
sg205
I10
sbssS'name'
p431
S'mild_roomset'
p432
sbsg161
g162
sg163
(dp433
g197
((lp434
(F0.080000000000012506
I15
tp435
aF40.0
tp436
sg248
((lp437
(F8.1700000000000159
I122
tp438
aF40.020000000000039
tp439
sg292
((lp440
(F1.8999999999999773
I118
tp441
a(F3.6499999999999773
I114
tp442
a(F4.1899999999999977
I34
tp443
a(F6.3599999999999568
I29
tp444
aF40.019999999999982
tp445
sg347
((lp446
F40.04000000000002
tp447
sg388
((lp448
(F0.079999999999984084
I13
tp449
aF40.0
tp450
ssba(imeasure_core
ProblemSetSolution
p451
(dp452
g3
(imeasure_core
RoomSet
p453
(dp454
S'rooms'
p455
(dp456
(iproblems
RoomID
p457
(dp458
S'width'
p459
I10
sS'dusts'
p460
I13
sS'seed'
p461
I7106521602475165645
sS'obstacles'
p462
(I5
I3
tp463
sS'robots'
p464
I6
sS'height'
p465
I13
sb(imulti_robot_problem
MultiRobotState
p466
(dp467
S'obstacle_locations'
p468
g20
((lp469
(I1
I2
tp470
a(I0
I9
tp471
a(I6
I11
tp472
a(I0
I5
tp473
a(I5
I11
tp474
a(I5
I6
tp475
a(I8
I12
tp476
a(I2
I11
tp477
a(I7
I1
tp478
a(I0
I12
tp479
a(I6
I3
tp480
a(I7
I12
tp481
a(I2
I3
tp482
a(I0
I4
tp483
a(I4
I5
tp484
a(I6
I12
tp485
a(I3
I4
tp486
a(I7
I2
tp487
ag463
atp488
Rp489
sg459
I10
sS'dirt_locations'
p490
g20
((lp491
(I0
I1
tp492
a(I8
I3
tp493
a(I3
I7
tp494
a(I4
I6
tp495
a(I6
I9
tp496
a(I0
I11
tp497
a(I3
I9
tp498
a(I2
I12
tp499
a(I8
I6
tp500
a(I5
I1
tp501
a(I7
I11
tp502
a(I0
I3
tp503
a(I3
I5
tp504
atp505
Rp506
sg464
((I0
I10
tp507
(I6
I7
tp508
(I4
I11
tp509
(I1
I11
tp510
(I9
I0
tp511
(I3
I1
tp512
tp513
sg465
I13
sbs(iproblems
RoomID
p514
(dp515
g459
I11
sg460
I15
sg461
I746805015404516437
sg462
(I9
I4
tp516
sg464
I6
sg465
I13
sb(imulti_robot_problem
MultiRobotState
p517
(dp518
g468
g20
((lp519
(I10
I5
tp520
a(I10
I6
tp521
a(I5
I5
tp522
a(I4
I8
tp523
a(I4
I5
tp524
a(I8
I0
tp525
a(I6
I0
tp526
a(I4
I4
tp527
a(I1
I8
tp528
a(I3
I9
tp529
a(I5
I3
tp530
a(I9
I7
tp531
ag516
a(I8
I6
tp532
a(I4
I2
tp533
a(I7
I9
tp534
a(I5
I2
tp535
a(I2
I4
tp536
a(I7
I2
tp537
a(I3
I5
tp538
atp539
Rp540
sg459
I11
sg490
g20
((lp541
(I3
I12
tp542
a(I9
I1
tp543
a(I7
I1
tp544
a(I8
I1
tp545
a(I6
I10
tp546
a(I8
I9
tp547
a(I2
I0
tp548
a(I2
I3
tp549
a(I0
I10
tp550
a(I2
I2
tp551
a(I7
I11
tp552
a(I2
I5
tp553
a(I8
I5
tp554
a(I5
I8
tp555
a(I4
I11
tp556
atp557
Rp558
sg464
((I4
I10
tp559
(I6
I11
tp560
(I5
I12
tp561
(I0
I5
tp562
(I1
I0
tp563
(I7
I10
tp564
tp565
sg465
I13
sbs(iproblems
RoomID
p566
(dp567
g459
I12
sg460
I11
sg461
I4029557120079369747
sg462
(I9
I6
tp568
sg464
I6
sg465
I10
sb(imulti_robot_problem
MultiRobotState
p569
(dp570
g468
g20
((lp571
(I11
I7
tp572
a(I4
I4
tp573
a(I5
I5
tp574
a(I7
I1
tp575
a(I10
I7
tp576
a(I9
I8
tp577
a(I10
I6
tp578
a(I1
I6
tp579
a(I3
I6
tp580
a(I1
I7
tp581
ag568
a(I11
I6
tp582
atp583
Rp584
sg459
I12
sg490
g20
((lp585
(I1
I2
tp586
a(I1
I3
tp587
a(I4
I9
tp588
a(I8
I2
tp589
a(I8
I1
tp590
a(I6
I1
tp591
a(I2
I1
tp592
a(I7
I4
tp593
a(I1
I8
tp594
a(I5
I2
tp595
a(I1
I1
tp596
atp597
Rp598
sg464
((I8
I0
tp599
(I4
I1
tp600
(I4
I0
tp601
(I3
I9
tp602
(I8
I9
tp603
(I3
I8
tp604
tp605
sg465
I10
sbs(iproblems
RoomID
p606
(dp607
g459
I13
sg460
I15
sg461
I2569146471088859254
sg462
(I5
I5
tp608
sg464
I6
sg465
I13
sb(imulti_robot_problem
MultiRobotState
p609
(dp610
g468
g20
((lp611
(I12
I2
tp612
a(I5
I4
tp613
a(I3
I3
tp614
a(I5
I9
tp615
a(I4
I5
tp616
a(I6
I1
tp617
a(I10
I10
tp618
a(I8
I8
tp619
a(I4
I3
tp620
a(I2
I2
tp621
a(I9
I11
tp622
a(I8
I12
tp623
a(I1
I1
tp624
a(I12
I3
tp625
ag608
atp626
Rp627
sg459
I13
sg490
g20
((lp628
(I10
I5
tp629
a(I3
I12
tp630
a(I8
I2
tp631
a(I5
I6
tp632
a(I12
I7
tp633
a(I11
I3
tp634
a(I2
I4
tp635
a(I11
I0
tp636
a(I1
I10
tp637
a(I2
I12
tp638
a(I0
I9
tp639
a(I3
I7
tp640
a(I10
I11
tp641
a(I0
I2
tp642
a(I5
I12
tp643
atp644
Rp645
sg464
((I9
I12
tp646
(I7
I11
tp647
(I7
I0
tp648
(I10
I1
tp649
(I1
I5
tp650
(I4
I0
tp651
tp652
sg465
I13
sbs(iproblems
RoomID
p653
(dp654
g459
I11
sg460
I10
sg461
I6604845167042249220
sg462
(I6
I7
tp655
sg464
I5
sg465
I12
sb(imulti_robot_problem
MultiRobotState
p656
(dp657
g468
g20
((lp658
(I9
I0
tp659
ag655
a(I7
I1
tp660
a(I2
I8
tp661
a(I10
I6
tp662
a(I7
I7
tp663
a(I8
I8
tp664
a(I9
I4
tp665
a(I7
I11
tp666
a(I8
I6
tp667
a(I9
I7
tp668
atp669
Rp670
sg459
I11
sg490
g20
((lp671
(I10
I5
tp672
a(I3
I3
tp673
a(I5
I11
tp674
a(I8
I1
tp675
a(I9
I8
tp676
a(I6
I9
tp677
a(I0
I7
tp678
a(I0
I10
tp679
a(I4
I1
tp680
a(I8
I4
tp681
atp682
Rp683
sg464
((I4
I8
tp684
(I1
I0
tp685
(I2
I2
tp686
(I3
I11
tp687
(I6
I5
tp688
tp689
sg465
I12
sbssS'name'
p690
S'heavy_roomset'
p691
sbsg161
g162
sg163
(dp692
g457
((lp693
F40.029999999999973
tp694
sg514
((lp695
F40.560000000000002
tp696
sg566
((lp697
(F6.0199999999999818
I6
tp698
aF40.910000000000025
tp699
sg606
((lp700
(F29.980000000000018
I27
tp701
aF40.199999999999932
tp702
sg653
((lp703
(F4.3500000000000227
I23
tp704
a(F14.57000000000005
I21
tp705
aF40.0
tp706
ssba(imeasure_core
ProblemSetSolution
p707
(dp708
g3
g4
sg161
S"AnytimeBeam-w15-gf(1.3, 'exp')_with_PowerHeuristic2"
p709
sg163
(dp710
g8
((lp711
(F0.54000000000007731
I15
tp712
aF40.07000000000005
tp713
sg46
((lp714
(F1.67999999999995
I20
tp715
aF40.169999999999959
tp716
sg78
((lp717
(F0.060000000000059117
I35
tp718
a(F2.4600000000000364
I33
tp719
a(F3.32000000000005
I30
tp720
a(F4.0099999999999909
I26
tp721
a(F4.8000000000000682
I25
tp722
a(F5.5600000000000591
I23
tp723
a(F6.3100000000000591
I21
tp724
a(F7.6200000000000045
I20
tp725
a(F8.8400000000000318
I18
tp726
aF40.0
tp727
sg100
((lp728
(F0.070000000000050022
I18
tp729
aF40.0
tp730
sg125
((lp731
(F1.2800000000000864
I7
tp732
aF40.730000000000018
tp733
ssba(imeasure_core
ProblemSetSolution
p734
(dp735
g3
g193
sg161
g709
sg163
(dp736
g197
((lp737
(F0.12000000000000455
I15
tp738
aF40.040000000000077
tp739
sg248
((lp740
(F4.6899999999999409
I122
tp741
aF40.0
tp742
sg292
((lp743
(F1.6699999999999591
I118
tp744
a(F2.1899999999999409
I34
tp745
a(F4.25
I29
tp746
aF40.039999999999964
tp747
sg347
((lp748
F40.139999999999986
tp749
sg388
((lp750
(F0.12999999999999545
I13
tp751
aF40.049999999999955
tp752
ssba(imeasure_core
ProblemSetSolution
p753
(dp754
g3
g453
sg161
g709
sg163
(dp755
g457
((lp756
F40.579999999999927
tp757
sg514
((lp758
F40.5
tp759
sg566
((lp760
(F6.4800000000000182
I6
tp761
aF40.0
tp762
sg606
((lp763
(F31.700000000000045
I27
tp764
aF40.160000000000082
tp765
sg653
((lp766
(F5.2300000000000182
I21
tp767
aF40.059999999999945
tp768
ssba(imeasure_core
ProblemSetSolution
p769
(dp770
g3
g4
sg161
S"AnytimeBeam-w25-gf(1.3, 'exp')_with_PowerHeuristic2"
p771
sg163
(dp772
g8
((lp773
(F0.60999999999989996
I15
tp774
aF40.200000000000045
tp775
sg46
((lp776
(F1.8199999999999363
I20
tp777
aF40.1099999999999
tp778
sg78
((lp779
(F0.070000000000163709
I35
tp780
a(F2.8600000000001273
I33
tp781
a(F3.7300000000000182
I30
tp782
a(F4.4200000000000728
I26
tp783
a(F5.2100000000000364
I25
tp784
a(F5.9700000000000273
I23
tp785
a(F6.7200000000000273
I21
tp786
a(F8.0399999999999636
I20
tp787
a(F9.2699999999999818
I18
tp788
aF40.0
tp789
sg100
((lp790
(F0.080000000000154614
I18
tp791
aF40.009999999999991
tp792
sg125
((lp793
(F1.3100000000001728
I7
tp794
aF40.740000000000009
tp795
ssba(imeasure_core
ProblemSetSolution
p796
(dp797
g3
g193
sg161
g771
sg163
(dp798
g197
((lp799
(F0.17000000000007276
I15
tp800
aF40.019999999999982
tp801
sg248
((lp802
(F5.2899999999999636
I122
tp803
aF40.060000000000173
tp804
sg292
((lp805
(F0.55999999999994543
I34
tp806
a(F1.9699999999997999
I29
tp807
aF40.009999999999991
tp808
sg347
((lp809
F40.1099999999999
tp810
sg388
((lp811
(F0.17000000000007276
I13
tp812
aF40.039999999999964
tp813
ssba(imeasure_core
ProblemSetSolution
p814
(dp815
g3
g453
sg161
g771
sg163
(dp816
g457
((lp817
F40.400000000000091
tp818
sg514
((lp819
F40.409999999999854
tp820
sg566
((lp821
(F6.5100000000002183
I6
tp822
aF41.110000000000127
tp823
sg606
((lp824
(F32.009999999999991
I27
tp825
aF40.5
tp826
sg653
((lp827
(F5.3299999999999272
I21
tp828
aF40.210000000000036
tp829
ssba(imeasure_core
ProblemSetSolution
p830
(dp831
g3
g4
sg161
S"AnytimeBeam-w35-gf(1.3, 'exp')_with_PowerHeuristic2"
p832
sg163
(dp833
g8
((lp834
(F0.71000000000003638
I15
tp835
aF40.180000000000064
tp836
sg46
((lp837
(F1.9399999999998272
I20
tp838
aF40.029999999999973
tp839
sg78
((lp840
(F0.099999999999909051
I35
tp841
a(F1.8599999999999
I33
tp842
a(F2.7300000000000182
I30
tp843
a(F3.4199999999998454
I26
tp844
a(F4.2200000000000273
I25
tp845
a(F4.9700000000000273
I23
tp846
a(F5.7300000000000182
I21
tp847
a(F7.0599999999999454
I20
tp848
a(F8.2899999999999636
I18
tp849
aF40.0
tp850
sg100
((lp851
(F0.089999999999918145
I18
tp852
aF40.009999999999991
tp853
sg125
((lp854
(F1.3799999999998818
I7
tp855
aF40.289999999999964
tp856
ssba(imeasure_core
ProblemSetSolution
p857
(dp858
g3
g193
sg161
g832
sg163
(dp859
g197
((lp860
(F0.20000000000004547
I15
tp861
aF40.039999999999964
tp862
sg248
((lp863
(F5.8600000000001273
I122
tp864
aF40.079999999999927
tp865
sg292
((lp866
(F0.68000000000029104
I34
tp867
a(F1.4000000000000909
I29
tp868
aF40.059999999999945
tp869
sg347
((lp870
F40.070000000000164
tp871
sg388
((lp872
(F0.1999999999998181
I13
tp873
aF40.050000000000182
tp874
ssba(imeasure_core
ProblemSetSolution
p875
(dp876
g3
g453
sg161
g832
sg163
(dp877
g457
((lp878
F40.539999999999964
tp879
sg514
((lp880
F40.75
tp881
sg566
((lp882
(F6.7699999999999818
I6
tp883
aF40.949999999999818
tp884
sg606
((lp885
(F33.059999999999945
I27
tp886
aF41.559999999999945
tp887
sg653
((lp888
(F5.6500000000000909
I21
tp889
aF40.070000000000164
tp890
ssba(imeasure_core
ProblemSetSolution
p891
(dp892
g3
g4
sg161
S"AnytimeBeam-w45-gf(1.3, 'exp')_with_PowerHeuristic2"
p893
sg163
(dp894
g8
((lp895
(F0.78000000000020009
I15
tp896
aF40.120000000000346
tp897
sg46
((lp898
(F2.0299999999997453
I20
tp899
aF40.169999999999618
tp900
sg78
((lp901
(F0.1000000000003638
I35
tp902
a(F1.4600000000000364
I33
tp903
a(F2.3200000000001637
I30
tp904
a(F3.0100000000002183
I26
tp905
a(F3.7899999999999636
I25
tp906
a(F4.5500000000001819
I23
tp907
a(F5.2899999999999636
I21
tp908
a(F6.6100000000001273
I20
tp909
a(F7.830000000000382
I18
tp910
aF40.0
tp911
sg100
((lp912
(F0.090000000000145519
I18
tp913
aF40.010000000000218
tp914
sg125
((lp915
(F1.4099999999998545
I7
tp916
aF41.230000000000018
tp917
ssba(imeasure_core
ProblemSetSolution
p918
(dp919
g3
g193
sg161
g893
sg163
(dp920
g197
((lp921
(F0.23000000000001819
I15
tp922
aF40.010000000000218
tp923
sg248
((lp924
(F6.3099999999999454
I122
tp925
aF40.480000000000018
tp926
sg292
((lp927
(F0.6999999999998181
I29
tp928
aF40.090000000000146
tp929
sg347
((lp930
F40.059999999999945
tp931
sg388
((lp932
(F0.23000000000001819
I13
tp933
aF40.0
tp934
ssba(imeasure_core
ProblemSetSolution
p935
(dp936
g3
g453
sg161
g893
sg163
(dp937
g457
((lp938
F40.659999999999854
tp939
sg514
((lp940
F40.860000000000127
tp941
sg566
((lp942
(F6.819999999999709
I6
tp943
aF40.649999999999636
tp944
sg606
((lp945
(F33.5
I27
tp946
aF40.170000000000073
tp947
sg653
((lp948
(F5.8299999999999272
I21
tp949
aF40.059999999999945
tp950
ssba(imeasure_core
ProblemSetSolution
p951
(dp952
g3
g4
sg161
S"AnytimeBeam-w5-gf(1.3, 'exp')_with_LinearHeuristic"
p953
sg163
(dp954
g8
((lp955
(F20.329999999999927
I155
tp956
aF40.0300000000002
tp957
sg46
((lp958
(F1.0999999999999091
I24
tp959
aF40.199999999999818
tp960
sg78
((lp961
(F0.0099999999997635314
I18
tp962
aF40.0
tp963
sg100
((lp964
(F0.01999999999998181
I10
tp965
aF40.009999999999764
tp966
sg125
((lp967
(F21.820000000000164
I91
tp968
aF40.019999999999982
tp969
ssba(imeasure_core
ProblemSetSolution
p970
(dp971
g3
g193
sg161
g953
sg163
(dp972
g197
((lp973
F40.0
tp974
sg248
((lp975
F40.0300000000002
tp976
sg292
((lp977
F40.0300000000002
tp978
sg347
((lp979
F40.069999999999709
tp980
sg388
((lp981
(F19.309999999999945
I134
tp982
aF40.079999999999927
tp983
ssba(imeasure_core
ProblemSetSolution
p984
(dp985
g3
g453
sg161
g953
sg163
(dp986
g457
((lp987
F40.390000000000327
tp988
sg514
((lp989
F41.379999999999654
tp990
sg566
((lp991
(F7.4000000000000909
I7
tp992
aF40.990000000000236
tp993
sg606
((lp994
F40.610000000000127
tp995
sg653
((lp996
F40.119999999999891
tp997
ssba(imeasure_core
ProblemSetSolution
p998
(dp999
g3
g4
sg161
S"AnytimeBeam-w15-gf(1.3, 'exp')_with_LinearHeuristic"
p1000
sg163
(dp1001
g8
((lp1002
(F11.150000000000091
I155
tp1003
aF40.009999999999764
tp1004
sg46
((lp1005
(F1.4000000000000909
I24
tp1006
aF40.150000000000091
tp1007
sg78
((lp1008
(F0.01999999999998181
I18
tp1009
aF40.0
tp1010
sg100
((lp1011
(F0.03999999999996362
I10
tp1012
aF40.0
tp1013
sg125
((lp1014
(F13.880000000000109
I91
tp1015
aF40.150000000000091
tp1016
ssba(imeasure_core
ProblemSetSolution
p1017
(dp1018
g3
g193
sg161
g1000
sg163
(dp1019
g197
((lp1020
F40.110000000000127
tp1021
sg248
((lp1022
F40.4699999999998
tp1023
sg292
((lp1024
(F30.930000000000291
I440
tp1025
aF40.010000000000218
tp1026
sg347
((lp1027
F40.069999999999709
tp1028
sg388
((lp1029
(F16.390000000000327
I134
tp1030
aF40.110000000000127
tp1031
ssba(imeasure_core
ProblemSetSolution
p1032
(dp1033
g3
g453
sg161
g1000
sg163
(dp1034
g457
((lp1035
F40.039999999999964
tp1036
sg514
((lp1037
F40.820000000000164
tp1038
sg566
((lp1039
(F8.6700000000000728
I7
tp1040
aF41.930000000000291
tp1041
sg606
((lp1042
F40.139999999999418
tp1043
sg653
((lp1044
F40.070000000000618
tp1045
ssba(imeasure_core
ProblemSetSolution
p1046
(dp1047
g3
g4
sg161
S"AnytimeBeam-w25-gf(1.3, 'exp')_with_LinearHeuristic"
p1048
sg163
(dp1049
g8
((lp1050
(F12.150000000000546
I155
tp1051
aF40.039999999999964
tp1052
sg46
((lp1053
(F1.6300000000001091
I24
tp1054
aF40.180000000000291
tp1055
sg78
((lp1056
(F0.020000000000436557
I18
tp1057
aF40.0
tp1058
sg100
((lp1059
(F0.03999999999996362
I10
tp1060
aF40.010000000000218
tp1061
sg125
((lp1062
(F14.609999999999673
I91
tp1063
aF40.079999999999927
tp1064
ssba(imeasure_core
ProblemSetSolution
p1065
(dp1066
g3
g193
sg161
g1048
sg163
(dp1067
g197
((lp1068
F40.029999999999745
tp1069
sg248
((lp1070
F40.140000000000327
tp1071
sg292
((lp1072
F40.049999999999272
tp1073
sg347
((lp1074
F40.050000000000182
tp1075
sg388
((lp1076
(F6.1999999999998181
I134
tp1077
a(F39.340000000000146
I133
tp1078
aF40.039999999999964
tp1079
ssba(imeasure_core
ProblemSetSolution
p1080
(dp1081
g3
g453
sg161
g1048
sg163
(dp1082
g457
((lp1083
F40.069999999999709
tp1084
sg514
((lp1085
F40.990000000000691
tp1086
sg566
((lp1087
(F8.9200000000000728
I7
tp1088
aF40.619999999999891
tp1089
sg606
((lp1090
F40.260000000000218
tp1091
sg653
((lp1092
F40.079999999999927
tp1093
ssba(imeasure_core
ProblemSetSolution
p1094
(dp1095
g3
g4
sg161
S"AnytimeBeam-w35-gf(1.3, 'exp')_with_LinearHeuristic"
p1096
sg163
(dp1097
g8
((lp1098
(F13.5
I155
tp1099
aF40.119999999999891
tp1100
sg46
((lp1101
(F1.8699999999998909
I24
tp1102
aF40.059999999999491
tp1103
sg78
((lp1104
(F0.010000000000218279
I18
tp1105
aF40.0
tp1106
sg100
((lp1107
(F0.060000000000400178
I10
tp1108
aF40.0
tp1109
sg125
((lp1110
(F15.860000000000582
I91
tp1111
aF40.0
tp1112
ssba(imeasure_core
ProblemSetSolution
p1113
(dp1114
g3
g193
sg161
g1096
sg163
(dp1115
g197
((lp1116
F40.090000000000146
tp1117
sg248
((lp1118
F40.480000000000473
tp1119
sg292
((lp1120
F40.039999999999964
tp1121
sg347
((lp1122
F40.090000000000146
tp1123
sg388
((lp1124
(F6.839999999999236
I134
tp1125
a(F23.779999999999745
I133
tp1126
a(F34.699999999999818
I132
tp1127
aF40.029999999999745
tp1128
ssba(imeasure_core
ProblemSetSolution
p1129
(dp1130
g3
g453
sg161
g1096
sg163
(dp1131
g457
((lp1132
F40.260000000000218
tp1133
sg514
((lp1134
F40.229999999999563
tp1135
sg566
((lp1136
(F9.3900000000003274
I7
tp1137
aF40.190000000000509
tp1138
sg606
((lp1139
F41.069999999999709
tp1140
sg653
((lp1141
F40.539999999999964
tp1142
ssba(imeasure_core
ProblemSetSolution
p1143
(dp1144
g3
g4
sg161
S"AnytimeBeam-w45-gf(1.3, 'exp')_with_LinearHeuristic"
p1145
sg163
(dp1146
g8
((lp1147
(F14.019999999999527
I155
tp1148
aF40.059999999999491
tp1149
sg46
((lp1150
(F1.9800000000004729
I24
tp1151
aF40.090000000000146
tp1152
sg78
((lp1153
(F0.010000000000218279
I18
tp1154
aF40.0
tp1155
sg100
((lp1156
(F0.060000000000400178
I10
tp1157
aF40.0
tp1158
sg125
((lp1159
(F16.550000000000182
I91
tp1160
aF40.010000000000218
tp1161
ssba(imeasure_core
ProblemSetSolution
p1162
(dp1163
g3
g193
sg161
g1145
sg163
(dp1164
g197
((lp1165
F40.0
tp1166
sg248
((lp1167
F40.050000000000182
tp1168
sg292
((lp1169
F40.059999999999491
tp1170
sg347
((lp1171
F40.010000000000218
tp1172
sg388
((lp1173
(F7.2300000000004729
I134
tp1174
a(F16.619999999999891
I133
tp1175
a(F27.5
I132
tp1176
a(F38.480000000000473
I131
tp1177
aF40.0
tp1178
ssba(imeasure_core
ProblemSetSolution
p1179
(dp1180
g3
g453
sg161
g1145
sg163
(dp1181
g457
((lp1182
F40.359999999999673
tp1183
sg514
((lp1184
F40.369999999999891
tp1185
sg566
((lp1186
(F9.5399999999999636
I7
tp1187
aF40.440000000000509
tp1188
sg606
((lp1189
F41.309999999999491
tp1190
sg653
((lp1191
F40.350000000000364
tp1192
ssba.