(lp0
(imeasure_core
ProblemSetSolution
p1
(dp2
S'roomset'
p3
(imeasure_core
RoomSet
p4
(dp5
S'rooms'
p6
(dp7
(iproblems
RoomID
p8
(dp9
S'dusts'
p10
I10
sS'obstacles'
p11
(I0
I8
tp12
sS'robots'
p13
I4
sS'height'
p14
I10
sS'width'
p15
I9
sS'seed'
p16
I4712128852136459333
sb(imulti_robot_problem
MultiRobotState
p17
(dp18
S'obstacle_locations'
p19
c__builtin__
frozenset
p20
((lp21
(I0
I6
tp22
ag12
a(I2
I3
tp23
a(I1
I5
tp24
a(I8
I0
tp25
a(I1
I1
tp26
a(I0
I7
tp27
atp28
Rp29
sg15
I9
sS'dirt_locations'
p30
g20
((lp31
(I4
I7
tp32
a(I1
I3
tp33
a(I4
I9
tp34
a(I8
I1
tp35
a(I7
I6
tp36
a(I2
I6
tp37
a(I8
I7
tp38
a(I2
I2
tp39
a(I4
I1
tp40
a(I2
I4
tp41
atp42
Rp43
sg13
((I5
I8
tp44
(I6
I9
tp45
(I5
I0
tp46
(I3
I1
tp47
tp48
sg14
I10
sbs(iproblems
RoomID
p49
(dp50
g10
I9
sg11
(I3
I4
tp51
sg13
I1
sg14
I7
sg15
I8
sg16
I6613812840851947673
sb(imulti_robot_problem
MultiRobotState
p52
(dp53
g19
g20
((lp54
(I3
I5
tp55
ag51
a(I2
I4
tp56
a(I2
I1
tp57
a(I1
I4
tp58
atp59
Rp60
sg15
I8
sg30
g20
((lp61
(I6
I4
tp62
a(I5
I4
tp63
a(I6
I0
tp64
a(I7
I5
tp65
a(I1
I6
tp66
a(I2
I2
tp67
a(I0
I5
tp68
a(I4
I1
tp69
a(I4
I0
tp70
atp71
Rp72
sg13
((I3
I1
tp73
tp74
sg14
I7
sbs(iproblems
RoomID
p75
(dp76
g10
I10
sg11
(I4
I8
tp77
sg13
I4
sg14
I10
sg15
I7
sg16
I956523682424107605
sb(imulti_robot_problem
MultiRobotState
p78
(dp79
g19
g20
((lp80
(I2
I8
tp81
ag77
a(I3
I7
tp82
a(I2
I9
tp83
a(I4
I2
tp84
atp85
Rp86
sg15
I7
sg30
g20
((lp87
(I5
I9
tp88
a(I4
I7
tp89
a(I1
I3
tp90
a(I3
I3
tp91
a(I5
I5
tp92
a(I6
I1
tp93
a(I5
I4
tp94
a(I0
I4
tp95
a(I5
I2
tp96
a(I5
I3
tp97
atp98
Rp99
sg13
((I1
I9
tp100
(I4
I9
tp101
(I1
I8
tp102
(I0
I3
tp103
tp104
sg14
I10
sbs(iproblems
RoomID
p105
(dp106
g10
I9
sg11
(I5
I3
tp107
sg13
I3
sg14
I7
sg15
I8
sg16
I4594210616595436404
sb(imulti_robot_problem
MultiRobotState
p108
(dp109
g19
g20
((lp110
(I0
I1
tp111
a(I3
I3
tp112
a(I4
I3
tp113
a(I4
I2
tp114
a(I6
I1
tp115
ag107
atp116
Rp117
sg15
I8
sg30
g20
((lp118
(I6
I6
tp119
a(I5
I6
tp120
a(I4
I4
tp121
a(I1
I4
tp122
a(I0
I6
tp123
a(I5
I1
tp124
a(I1
I0
tp125
a(I0
I3
tp126
a(I1
I1
tp127
atp128
Rp129
sg13
((I2
I1
tp130
(I3
I4
tp131
(I3
I6
tp132
tp133
sg14
I7
sbs(iproblems
RoomID
p134
(dp135
g10
I10
sg11
(I4
I5
tp136
sg13
I1
sg14
I8
sg15
I8
sg16
I2893396244277848635
sb(imulti_robot_problem
MultiRobotState
p137
(dp138
g19
g20
((lp139
g136
a(I3
I7
tp140
a(I2
I6
tp141
a(I4
I6
tp142
atp143
Rp144
sg15
I8
sg30
g20
((lp145
(I6
I4
tp146
a(I0
I0
tp147
a(I6
I7
tp148
a(I3
I0
tp149
a(I2
I1
tp150
a(I0
I6
tp151
a(I7
I2
tp152
a(I2
I4
tp153
a(I6
I5
tp154
a(I5
I3
tp155
atp156
Rp157
sg13
((I2
I3
tp158
tp159
sg14
I8
sbssS'name'
p160
S'easy_roomset'
p161
sbsg160
S"AnytimeBeam-w5-gf(1.3, 'exp')_with_PowerHeuristic2"
p162
sS'solutions'
p163
(dp164
g8
((lp165
(F1.8400000000001455
I51
tp166
aF40.099999999998545
tp167
sg49
((lp168
(F0.049999999999272404
I44
tp169
a(F0.2000000000007276
I36
tp170
a(F2.7400000000016007
I30
tp171
a(F3.4500000000007276
I29
tp172
a(F8.3300000000017462
I28
tp173
a(F15.25
I27
tp174
a(F27.409999999999854
I26
tp175
a(F37.81000000000131
I25
tp176
aF40.0
tp177
sg75
((lp178
(F0.26000000000203727
I10
tp179
aF40.049999999999272
tp180
sg105
((lp181
(F1.0900000000001455
I31
tp182
a(F9.8700000000026193
I26
tp183
aF40.0
tp184
sg134
((lp185
(F0.61000000000058208
I76
tp186
a(F0.94000000000232831
I63
tp187
a(F1.9900000000016007
I61
tp188
a(F3.7300000000032014
I59
tp189
a(F4.5
I57
tp190
a(F5.4200000000018917
I56
tp191
a(F6.6100000000005821
I54
tp192
a(F7.7400000000016007
I52
tp193
a(F9.6900000000023283
I51
tp194
a(F12.540000000000873
I50
tp195
a(F15.409999999999854
I48
tp196
a(F18.409999999999854
I46
tp197
a(F21.490000000001601
I44
tp198
a(F30.150000000001455
I43
tp199
a(F38.31000000000131
I42
tp200
aF40.0
tp201
ssba(imeasure_core
ProblemSetSolution
p202
(dp203
g3
(imeasure_core
RoomSet
p204
(dp205
g6
(dp206
(iproblems
RoomID
p207
(dp208
g10
I10
sg11
(I8
I7
tp209
sg13
I4
sg14
I12
sg15
I11
sg16
I4712128852136459333
sb(imulti_robot_problem
MultiRobotState
p210
(dp211
g19
g20
((lp212
(I6
I4
tp213
a(I4
I7
tp214
ag209
a(I4
I5
tp215
a(I3
I11
tp216
a(I0
I7
tp217
a(I7
I7
tp218
a(I1
I6
tp219
a(I1
I9
tp220
a(I2
I10
tp221
a(I4
I2
tp222
a(I1
I11
tp223
a(I6
I5
tp224
a(I5
I3
tp225
a(I9
I0
tp226
a(I0
I8
tp227
a(I5
I5
tp228
a(I7
I6
tp229
a(I3
I1
tp230
a(I2
I11
tp231
a(I0
I9
tp232
a(I2
I3
tp233
a(I4
I1
tp234
a(I1
I1
tp235
atp236
Rp237
sg15
I11
sg30
g20
((lp238
(I2
I7
tp239
a(I9
I1
tp240
a(I9
I8
tp241
a(I5
I1
tp242
a(I2
I5
tp243
a(I9
I7
tp244
a(I3
I4
tp245
a(I2
I4
tp246
a(I5
I8
tp247
a(I3
I3
tp248
atp249
Rp250
sg13
((I6
I10
tp251
(I8
I10
tp252
(I7
I0
tp253
(I5
I11
tp254
tp255
sg14
I12
sbs(iproblems
RoomID
p256
(dp257
g10
I9
sg11
(I4
I4
tp258
sg13
I3
sg14
I9
sg15
I10
sg16
I4594210616595436404
sb(imulti_robot_problem
MultiRobotState
p259
(dp260
g19
g20
((lp261
(I1
I3
tp262
a(I3
I0
tp263
a(I2
I1
tp264
a(I1
I6
tp265
a(I9
I4
tp266
a(I3
I7
tp267
a(I0
I3
tp268
a(I1
I2
tp269
a(I5
I5
tp270
a(I1
I5
tp271
a(I7
I6
tp272
ag258
a(I6
I3
tp273
a(I5
I6
tp274
a(I3
I6
tp275
a(I0
I4
tp276
a(I8
I6
tp277
a(I3
I5
tp278
a(I1
I1
tp279
a(I5
I4
tp280
a(I4
I5
tp281
a(I0
I5
tp282
a(I5
I3
tp283
a(I0
I1
tp284
a(I5
I2
tp285
a(I0
I6
tp286
a(I2
I0
tp287
a(I1
I8
tp288
a(I2
I3
tp289
a(I9
I5
tp290
a(I3
I4
tp291
a(I0
I2
tp292
atp293
Rp294
sg15
I10
sg30
g20
((lp295
(I7
I8
tp296
a(I7
I0
tp297
a(I6
I8
tp298
a(I2
I8
tp299
a(I8
I8
tp300
a(I0
I8
tp301
a(I8
I5
tp302
a(I5
I8
tp303
a(I8
I2
tp304
atp305
Rp306
sg13
((I4
I6
tp307
(I2
I5
tp308
(I6
I1
tp309
tp310
sg14
I9
sbs(iproblems
RoomID
p311
(dp312
g10
I6
sg11
(I8
I8
tp313
sg13
I4
sg14
I11
sg15
I12
sg16
I7529058068588108450
sb(imulti_robot_problem
MultiRobotState
p314
(dp315
g19
g20
((lp316
(I5
I9
tp317
a(I6
I9
tp318
a(I2
I6
tp319
a(I3
I2
tp320
a(I9
I1
tp321
a(I4
I10
tp322
a(I6
I6
tp323
a(I7
I7
tp324
a(I7
I1
tp325
a(I4
I6
tp326
a(I10
I4
tp327
a(I7
I5
tp328
a(I6
I8
tp329
a(I3
I7
tp330
a(I5
I8
tp331
a(I8
I2
tp332
a(I5
I5
tp333
a(I7
I6
tp334
a(I4
I4
tp335
a(I7
I4
tp336
a(I1
I5
tp337
ag313
a(I7
I2
tp338
a(I3
I6
tp339
a(I2
I2
tp340
a(I1
I10
tp341
a(I7
I8
tp342
a(I3
I10
tp343
atp344
Rp345
sg15
I12
sg30
g20
((lp346
(I7
I3
tp347
a(I0
I5
tp348
a(I4
I0
tp349
a(I11
I3
tp350
a(I11
I6
tp351
a(I6
I0
tp352
atp353
Rp354
sg13
((I11
I7
tp355
(I6
I2
tp356
(I11
I5
tp357
(I6
I7
tp358
tp359
sg14
I11
sbs(iproblems
RoomID
p360
(dp361
g10
I8
sg11
(I5
I0
tp362
sg13
I4
sg14
I9
sg15
I9
sg16
I6858376947525423350
sb(imulti_robot_problem
MultiRobotState
p363
(dp364
g19
g20
((lp365
(I6
I4
tp366
a(I4
I7
tp367
a(I1
I3
tp368
a(I4
I3
tp369
a(I7
I1
tp370
a(I3
I0
tp371
a(I2
I8
tp372
a(I6
I0
tp373
a(I2
I1
tp374
a(I1
I6
tp375
a(I5
I1
tp376
a(I2
I5
tp377
a(I0
I8
tp378
a(I7
I2
tp379
a(I2
I7
tp380
a(I3
I8
tp381
a(I5
I5
tp382
a(I6
I1
tp383
a(I5
I7
tp384
a(I6
I3
tp385
a(I1
I8
tp386
ag362
a(I2
I2
tp387
a(I2
I3
tp388
a(I3
I4
tp389
a(I2
I4
tp390
atp391
Rp392
sg15
I9
sg30
g20
((lp393
(I8
I3
tp394
a(I7
I0
tp395
a(I4
I6
tp396
a(I6
I6
tp397
a(I7
I5
tp398
a(I8
I0
tp399
a(I8
I8
tp400
a(I8
I4
tp401
atp402
Rp403
sg13
((I1
I1
tp404
(I6
I5
tp405
(I8
I2
tp406
(I1
I5
tp407
tp408
sg14
I9
sbs(iproblems
RoomID
p409
(dp410
g10
I5
sg11
(I4
I9
tp411
sg13
I4
sg14
I11
sg15
I11
sg16
I1881095652490078568
sb(imulti_robot_problem
MultiRobotState
p412
(dp413
g19
g20
((lp414
(I6
I9
tp415
a(I6
I6
tp416
a(I4
I5
tp417
a(I2
I8
tp418
a(I9
I3
tp419
a(I4
I7
tp420
a(I7
I5
tp421
a(I5
I4
tp422
ag411
a(I6
I5
tp423
a(I3
I5
tp424
a(I7
I4
tp425
a(I1
I7
tp426
a(I6
I7
tp427
a(I4
I6
tp428
a(I7
I6
tp429
a(I4
I4
tp430
a(I8
I10
tp431
a(I6
I3
tp432
a(I7
I10
tp433
a(I2
I2
tp434
a(I4
I8
tp435
a(I7
I8
tp436
a(I1
I1
tp437
a(I8
I4
tp438
atp439
Rp440
sg15
I11
sg30
g20
((lp441
(I1
I10
tp442
a(I5
I9
tp443
a(I0
I0
tp444
a(I10
I2
tp445
a(I9
I7
tp446
atp447
Rp448
sg13
((I5
I7
tp449
(I8
I1
tp450
(I3
I1
tp451
(I8
I8
tp452
tp453
sg14
I11
sbssg160
S'mild_roomset'
p454
sbsg160
g162
sg163
(dp455
g207
((lp456
(F0.9500000000007276
I23
tp457
aF40.270000000000437
tp458
sg256
((lp459
F40.049999999999272
tp460
sg311
((lp461
(F0.93000000000029104
I33
tp462
aF40.139999999999418
tp463
sg360
((lp464
(F0.18999999999869033
I16
tp465
aF40.06000000000131
tp466
sg409
((lp467
(F0.11000000000058208
I7
tp468
aF40.0
tp469
ssba(imeasure_core
ProblemSetSolution
p470
(dp471
g3
(imeasure_core
RoomSet
p472
(dp473
g6
(dp474
(iproblems
RoomID
p475
(dp476
g10
I15
sg11
(I5
I9
tp477
sg13
I7
sg14
I13
sg15
I12
sg16
I4712128852136459333
sb(imulti_robot_problem
MultiRobotState
p478
(dp479
g19
g20
((lp480
g477
a(I4
I9
tp481
a(I5
I5
tp482
a(I4
I12
tp483
a(I2
I8
tp484
a(I3
I1
tp485
a(I3
I9
tp486
a(I9
I4
tp487
a(I1
I7
tp488
a(I1
I10
tp489
a(I3
I12
tp490
a(I0
I8
tp491
a(I5
I2
tp492
atp493
Rp494
sg15
I12
sg30
g20
((lp495
(I6
I9
tp496
a(I3
I3
tp497
a(I1
I12
tp498
a(I5
I6
tp499
a(I7
I7
tp500
a(I3
I5
tp501
a(I3
I8
tp502
a(I8
I8
tp503
a(I10
I0
tp504
a(I2
I5
tp505
a(I10
I2
tp506
a(I3
I4
tp507
a(I1
I1
tp508
a(I5
I8
tp509
a(I9
I7
tp510
atp511
Rp512
sg13
((I6
I11
tp513
(I8
I11
tp514
(I7
I0
tp515
(I4
I1
tp516
(I6
I12
tp517
(I10
I9
tp518
(I6
I1
tp519
tp520
sg14
I13
sbs(iproblems
RoomID
p521
(dp522
g10
I14
sg11
(I5
I5
tp523
sg13
I5
sg14
I10
sg15
I11
sg16
I6613812840851947673
sb(imulti_robot_problem
MultiRobotState
p524
(dp525
g19
g20
((lp526
(I4
I7
tp527
a(I2
I6
tp528
a(I6
I6
tp529
a(I4
I5
tp530
a(I7
I5
tp531
a(I1
I6
tp532
a(I8
I7
tp533
a(I3
I7
tp534
a(I10
I3
tp535
a(I3
I5
tp536
a(I10
I8
tp537
a(I6
I3
tp538
ag523
a(I8
I5
tp539
a(I7
I4
tp540
a(I3
I8
tp541
a(I0
I6
tp542
a(I3
I6
tp543
a(I1
I3
tp544
a(I8
I6
tp545
a(I2
I4
tp546
atp547
Rp548
sg15
I11
sg30
g20
((lp549
(I6
I4
tp550
a(I3
I2
tp551
a(I4
I6
tp552
a(I4
I9
tp553
a(I3
I3
tp554
a(I9
I8
tp555
a(I8
I0
tp556
a(I8
I8
tp557
a(I5
I0
tp558
a(I1
I0
tp559
a(I8
I4
tp560
a(I5
I2
tp561
a(I6
I1
tp562
a(I9
I7
tp563
atp564
Rp565
sg13
((I5
I1
tp566
(I0
I8
tp567
(I2
I9
tp568
(I4
I1
tp569
(I7
I6
tp570
tp571
sg14
I10
sbs(iproblems
RoomID
p572
(dp573
g10
I15
sg11
(I4
I8
tp574
sg13
I6
sg14
I13
sg15
I10
sg16
I956523682424107605
sb(imulti_robot_problem
MultiRobotState
p575
(dp576
g19
g20
((lp577
(I5
I9
tp578
a(I6
I9
tp579
a(I7
I10
tp580
ag574
a(I5
I6
tp581
a(I3
I11
tp582
a(I9
I4
tp583
a(I4
I9
tp584
a(I5
I8
tp585
a(I2
I7
tp586
a(I5
I10
tp587
a(I5
I5
tp588
a(I3
I10
tp589
a(I5
I7
tp590
a(I9
I9
tp591
a(I5
I0
tp592
a(I7
I8
tp593
a(I1
I1
tp594
atp595
Rp596
sg15
I10
sg30
g20
((lp597
(I6
I10
tp598
a(I8
I3
tp599
a(I1
I3
tp600
a(I6
I6
tp601
a(I7
I6
tp602
a(I8
I12
tp603
a(I5
I4
tp604
a(I1
I4
tp605
a(I2
I10
tp606
a(I7
I4
tp607
a(I1
I5
tp608
a(I7
I5
tp609
a(I0
I9
tp610
a(I7
I11
tp611
a(I6
I2
tp612
atp613
Rp614
sg13
((I1
I12
tp615
(I6
I12
tp616
(I2
I11
tp617
(I0
I4
tp618
(I9
I1
tp619
(I7
I7
tp620
tp621
sg14
I13
sbs(iproblems
RoomID
p622
(dp623
g10
I13
sg11
(I1
I6
tp624
sg13
I7
sg14
I10
sg15
I10
sg16
I6858376947525423350
sb(imulti_robot_problem
MultiRobotState
p625
(dp626
g19
g20
((lp627
(I4
I7
tp628
a(I1
I3
tp629
a(I2
I8
tp630
a(I2
I2
tp631
a(I2
I1
tp632
a(I2
I3
tp633
a(I9
I5
tp634
a(I2
I5
tp635
a(I2
I7
tp636
a(I2
I9
tp637
a(I8
I1
tp638
ag624
a(I1
I7
tp639
a(I0
I9
tp640
a(I8
I6
tp641
a(I2
I4
tp642
atp643
Rp644
sg15
I10
sg30
g20
((lp645
(I8
I0
tp646
a(I4
I9
tp647
a(I3
I3
tp648
a(I3
I0
tp649
a(I7
I6
tp650
a(I5
I7
tp651
a(I9
I9
tp652
a(I4
I4
tp653
a(I6
I2
tp654
a(I9
I4
tp655
a(I8
I5
tp656
a(I5
I8
tp657
a(I5
I3
tp658
atp659
Rp660
sg13
((I1
I2
tp661
(I7
I5
tp662
(I7
I2
tp663
(I9
I2
tp664
(I1
I5
tp665
(I9
I0
tp666
(I6
I6
tp667
tp668
sg14
I10
sbs(iproblems
RoomID
p669
(dp670
g10
I15
sg11
(I6
I6
tp671
sg13
I5
sg14
I11
sg15
I11
sg16
I2893396244277848635
sb(imulti_robot_problem
MultiRobotState
p672
(dp673
g19
g20
((lp674
(I7
I3
tp675
a(I4
I7
tp676
a(I5
I5
tp677
a(I4
I8
tp678
a(I5
I6
tp679
a(I2
I8
tp680
ag671
a(I3
I2
tp681
a(I3
I9
tp682
a(I4
I3
tp683
a(I1
I7
tp684
a(I6
I9
tp685
atp686
Rp687
sg15
I11
sg30
g20
((lp688
(I2
I6
tp689
a(I8
I7
tp690
a(I3
I10
tp691
a(I3
I1
tp692
a(I2
I10
tp693
a(I0
I5
tp694
a(I6
I5
tp695
a(I3
I6
tp696
a(I8
I6
tp697
a(I4
I0
tp698
a(I3
I7
tp699
a(I7
I9
tp700
a(I4
I1
tp701
a(I5
I8
tp702
a(I5
I3
tp703
atp704
Rp705
sg13
((I4
I5
tp706
(I0
I9
tp707
(I0
I1
tp708
(I9
I2
tp709
(I8
I10
tp710
tp711
sg14
I11
sbssg160
S'heavy_roomset'
p712
sbsg160
g162
sg163
(dp713
g475
((lp714
F44.899999999997817
tp715
sg521
((lp716
F40.200000000000728
tp717
sg572
((lp718
(F10.56000000000131
I10
tp719
aF41.040000000000873
tp720
sg669
((lp721
(F14.239999999997963
I27
tp722
aF40.069999999999709
tp723
sg622
((lp724
(F28.829999999998108
I14
tp725
aF41.950000000000728
tp726
ssba(imeasure_core
ProblemSetSolution
p727
(dp728
g3
g4
sg160
S"AnytimeBeam-w15-gf(1.3, 'exp')_with_PowerHeuristic2"
p729
sg163
(dp730
g8
((lp731
(F2.6700000000018917
I51
tp732
aF40.080000000001746
tp733
sg49
((lp734
(F0.040000000000873115
I36
tp735
a(F2.9199999999982538
I30
tp736
a(F3.6399999999994179
I29
tp737
a(F8.5599999999976717
I28
tp738
a(F14.899999999997817
I27
tp739
a(F27.090000000000146
I26
tp740
a(F37.489999999997963
I25
tp741
aF40.0
tp742
sg75
((lp743
(F0.30999999999767169
I10
tp744
aF40.329999999998108
tp745
sg105
((lp746
(F0.77000000000043656
I31
tp747
a(F8.1900000000023283
I29
tp748
a(F9.9900000000016007
I26
tp749
aF40.010000000002037
tp750
sg134
((lp751
(F0.50999999999839929
I63
tp752
a(F1.4799999999995634
I61
tp753
a(F4.0
I57
tp754
a(F4.9399999999986903
I56
tp755
a(F6.1399999999994179
I54
tp756
a(F7.2799999999988358
I52
tp757
a(F9.25
I51
tp758
a(F12.119999999998981
I50
tp759
a(F14.959999999999127
I48
tp760
a(F17.93999999999869
I46
tp761
a(F21.039999999997235
I44
tp762
a(F29.789999999997235
I43
tp763
a(F37.979999999999563
I42
tp764
aF40.0
tp765
ssba(imeasure_core
ProblemSetSolution
p766
(dp767
g3
g204
sg160
g729
sg163
(dp768
g207
((lp769
(F1.1399999999994179
I23
tp770
aF40.119999999998981
tp771
sg256
((lp772
F40.029999999998836
tp773
sg311
((lp774
(F0.72999999999956344
I33
tp775
aF40.400000000001455
tp776
sg360
((lp777
(F0.27000000000043656
I16
tp778
aF40.040000000000873
tp779
sg409
((lp780
(F0.15999999999985448
I7
tp781
aF40.219999999997526
tp782
ssba(imeasure_core
ProblemSetSolution
p783
(dp784
g3
g472
sg160
g729
sg163
(dp785
g475
((lp786
F44.989999999997963
tp787
sg521
((lp788
F40.5
tp789
sg572
((lp790
(F11.420000000001892
I10
tp791
aF40.950000000000728
tp792
sg669
((lp793
(F7.8800000000010186
I27
tp794
aF40.260000000002037
tp795
sg622
((lp796
(F31.889999999999418
I14
tp797
aF45.119999999998981
tp798
ssba(imeasure_core
ProblemSetSolution
p799
(dp800
g3
g4
sg160
S"AnytimeBeam-w25-gf(1.3, 'exp')_with_PowerHeuristic2"
p801
sg163
(dp802
g8
((lp803
(F2.9600000000027649
I51
tp804
aF40.06000000000131
tp805
sg49
((lp806
(F0.079999999998108251
I36
tp807
a(F2.6699999999982538
I30
tp808
a(F3.4000000000014552
I29
tp809
a(F8.3400000000001455
I28
tp810
a(F14.680000000000291
I27
tp811
a(F27.0
I26
tp812
a(F37.5
I25
tp813
aF40.0
tp814
sg75
((lp815
(F0.36999999999898137
I10
tp816
aF40.229999999999563
tp817
sg105
((lp818
(F1.2000000000007276
I31
tp819
a(F6.0
I29
tp820
a(F7.7600000000020373
I26
tp821
aF40.010000000002037
tp822
sg134
((lp823
(F0.25
I63
tp824
a(F1.9299999999966531
I61
tp825
a(F3.7599999999983993
I57
tp826
a(F4.6699999999982538
I56
tp827
a(F5.8799999999973807
I54
tp828
a(F6.9899999999979627
I52
tp829
a(F8.9499999999970896
I51
tp830
a(F11.819999999999709
I50
tp831
a(F14.669999999998254
I48
tp832
a(F17.679999999996653
I46
tp833
a(F20.759999999998399
I44
tp834
a(F29.469999999997526
I43
tp835
a(F37.789999999997235
I42
tp836
aF40.0
tp837
ssba(imeasure_core
ProblemSetSolution
p838
(dp839
g3
g204
sg160
g801
sg163
(dp840
g207
((lp841
(F1.2699999999967986
I23
tp842
aF40.029999999998836
tp843
sg256
((lp844
F40.020000000000437
tp845
sg311
((lp846
(F0.84999999999854481
I33
tp847
aF40.180000000000291
tp848
sg360
((lp849
(F0.31999999999970896
I16
tp850
aF40.059999999997672
tp851
sg409
((lp852
(F0.18000000000029104
I7
tp853
aF40.139999999999418
tp854
ssba(imeasure_core
ProblemSetSolution
p855
(dp856
g3
g472
sg160
g801
sg163
(dp857
g475
((lp858
F45.0
tp859
sg521
((lp860
F40.470000000001164
tp861
sg572
((lp862
(F11.549999999999272
I10
tp863
aF40.819999999999709
tp864
sg669
((lp865
(F8.0299999999988358
I27
tp866
aF40.039999999997235
tp867
sg622
((lp868
(F32.090000000000146
I14
tp869
aF45.159999999999854
tp870
ssba(imeasure_core
ProblemSetSolution
p871
(dp872
g3
g4
sg160
S"AnytimeBeam-w35-gf(1.3, 'exp')_with_PowerHeuristic2"
p873
sg163
(dp874
g8
((lp875
(F3.2900000000008731
I51
tp876
aF40.169999999998254
tp877
sg49
((lp878
(F0.08000000000174623
I36
tp879
a(F2.5600000000013097
I30
tp880
a(F3.2800000000024738
I29
tp881
a(F8.1599999999998545
I28
tp882
a(F14.430000000000291
I27
tp883
a(F26.569999999999709
I26
tp884
a(F36.950000000000728
I25
tp885
aF40.0
tp886
sg75
((lp887
(F0.43000000000029104
I10
tp888
aF40.100000000002183
tp889
sg105
((lp890
(F1.4399999999986903
I31
tp891
a(F2.9799999999995634
I29
tp892
a(F6.819999999999709
I26
tp893
aF40.020000000000437
tp894
sg134
((lp895
(F0.34000000000014552
I63
tp896
a(F0.70999999999912689
I61
tp897
a(F3.25
I57
tp898
a(F4.180000000000291
I56
tp899
a(F5.3699999999989814
I54
tp900
a(F6.5200000000004366
I52
tp901
a(F8.4799999999995634
I51
tp902
a(F11.340000000000146
I50
tp903
a(F14.18999999999869
I48
tp904
a(F17.180000000000291
I46
tp905
a(F20.270000000000437
I44
tp906
a(F28.979999999999563
I43
tp907
a(F37.209999999999127
I42
tp908
aF40.0
tp909
ssba(imeasure_core
ProblemSetSolution
p910
(dp911
g3
g204
sg160
g873
sg163
(dp912
g207
((lp913
(F1.3999999999978172
I23
tp914
aF40.329999999998108
tp915
sg256
((lp916
F40.150000000001455
tp917
sg311
((lp918
(F0.98999999999796273
I33
tp919
aF40.090000000000146
tp920
sg360
((lp921
(F0.37999999999738066
I16
tp922
aF40.0
tp923
sg409
((lp924
(F0.21999999999752617
I7
tp925
aF40.079999999998108
tp926
ssba(imeasure_core
ProblemSetSolution
p927
(dp928
g3
g472
sg160
g873
sg163
(dp929
g475
((lp930
F44.860000000000582
tp931
sg521
((lp932
F40.119999999998981
tp933
sg572
((lp934
(F11.889999999999418
I10
tp935
aF41.479999999999563
tp936
sg669
((lp937
(F8.2699999999967986
I27
tp938
aF40.120000000002619
tp939
sg622
((lp940
(F33.659999999996217
I14
tp941
aF46.75
tp942
ssba(imeasure_core
ProblemSetSolution
p943
(dp944
g3
g4
sg160
S"AnytimeBeam-w45-gf(1.3, 'exp')_with_PowerHeuristic2"
p945
sg163
(dp946
g8
((lp947
(F3.5099999999947613
I51
tp948
aF40.059999999997672
tp949
sg49
((lp950
(F0.08999999999650754
I36
tp951
a(F2.1999999999970896
I30
tp952
a(F2.9199999999982538
I29
tp953
a(F7.8000000000029104
I28
tp954
a(F14.129999999997381
I27
tp955
a(F26.309999999997672
I26
tp956
a(F36.769999999996799
I25
tp957
aF40.0
tp958
sg75
((lp959
(F0.47999999999592546
I10
tp960
aF40.25
tp961
sg105
((lp962
(F1.5999999999985448
I31
tp963
a(F3.3399999999965075
I29
tp964
a(F5.1299999999973807
I26
tp965
aF40.05000000000291
tp966
sg134
((lp967
(F0.37999999999738066
I61
tp968
a(F2.8799999999973807
I57
tp969
a(F3.8099999999976717
I56
tp970
a(F5.0
I54
tp971
a(F6.1399999999994179
I52
tp972
a(F8.0899999999965075
I51
tp973
a(F10.94999999999709
I50
tp974
a(F13.789999999993597
I48
tp975
a(F16.779999999998836
I46
tp976
a(F19.859999999993306
I44
tp977
a(F28.519999999996799
I43
tp978
a(F36.679999999993015
I42
tp979
aF40.0
tp980
ssba(imeasure_core
ProblemSetSolution
p981
(dp982
g3
g204
sg160
g945
sg163
(dp983
g207
((lp984
(F1.5199999999967986
I23
tp985
aF40.109999999993306
tp986
sg256
((lp987
F40.310000000004948
tp988
sg311
((lp989
(F1.0599999999976717
I33
tp990
aF40.089999999996508
tp991
sg360
((lp992
(F0.41999999999825377
I16
tp993
aF40.020000000004075
tp994
sg409
((lp995
(F0.25999999999476131
I7
tp996
aF40.209999999999127
tp997
ssba(imeasure_core
ProblemSetSolution
p998
(dp999
g3
g472
sg160
g945
sg163
(dp1000
g475
((lp1001
F44.939999999995052
tp1002
sg521
((lp1003
F40.180000000000291
tp1004
sg572
((lp1005
(F12.060000000004948
I10
tp1006
aF40.770000000004075
tp1007
sg669
((lp1008
(F8.3899999999994179
I27
tp1009
aF40.239999999997963
tp1010
sg622
((lp1011
(F33.830000000001746
I14
tp1012
aF40.120000000002619
tp1013
ssba(imeasure_core
ProblemSetSolution
p1014
(dp1015
g3
g4
sg160
S"AnytimeBeam-w5-gf(1.3, 'exp')_with_LinearHeuristic"
p1016
sg163
(dp1017
g8
((lp1018
F40.009999999994761
tp1019
sg49
((lp1020
(F0.020000000004074536
I25
tp1021
aF40.0
tp1022
sg75
((lp1023
F40.0
tp1024
sg105
((lp1025
(F0.08000000000174623
I8
tp1026
aF40.0
tp1027
sg134
((lp1028
(F0.029999999998835847
I32
tp1029
a(F1.1900000000023283
I30
tp1030
aF40.0
tp1031
ssba(imeasure_core
ProblemSetSolution
p1032
(dp1033
g3
g204
sg160
g1016
sg163
(dp1034
g207
((lp1035
F40.319999999999709
tp1036
sg256
((lp1037
(F2.0
I50
tp1038
a(F17.880000000004657
I49
tp1039
a(F27.75
I48
tp1040
aF40.020000000004075
tp1041
sg311
((lp1042
F40.059999999997672
tp1043
sg360
((lp1044
F40.029999999998836
tp1045
sg409
((lp1046
(F0.20000000000436557
I7
tp1047
aF40.370000000002619
tp1048
ssba(imeasure_core
ProblemSetSolution
p1049
(dp1050
g3
g472
sg160
g1016
sg163
(dp1051
g475
((lp1052
F41.339999999996508
tp1053
sg521
((lp1054
F40.090000000003783
tp1055
sg572
((lp1056
F40.159999999996217
tp1057
sg669
((lp1058
F40.130000000004657
tp1059
sg622
((lp1060
F40.129999999997381
tp1061
ssba(imeasure_core
ProblemSetSolution
p1062
(dp1063
g3
g4
sg160
S"AnytimeBeam-w15-gf(1.3, 'exp')_with_LinearHeuristic"
p1064
sg163
(dp1065
g8
((lp1066
F40.180000000000291
tp1067
sg49
((lp1068
(F0.020000000004074536
I25
tp1069
aF40.0
tp1070
sg75
((lp1071
F40.0
tp1072
sg105
((lp1073
(F0.16000000000349246
I8
tp1074
aF40.030000000006112
tp1075
sg134
((lp1076
(F0.029999999998835847
I32
tp1077
a(F1.3499999999985448
I30
tp1078
aF40.0
tp1079
ssba(imeasure_core
ProblemSetSolution
p1080
(dp1081
g3
g204
sg160
g1064
sg163
(dp1082
g207
((lp1083
F40.059999999997672
tp1084
sg256
((lp1085
(F1.3099999999976717
I50
tp1086
a(F20.339999999996508
I49
tp1087
a(F32.209999999999127
I48
tp1088
aF40.029999999998836
tp1089
sg311
((lp1090
F40.05000000000291
tp1091
sg360
((lp1092
F40.159999999996217
tp1093
sg409
((lp1094
(F0.41999999999825377
I7
tp1095
aF40.130000000004657
tp1096
ssba(imeasure_core
ProblemSetSolution
p1097
(dp1098
g3
g472
sg160
g1064
sg163
(dp1099
g475
((lp1100
F41.689999999995052
tp1101
sg521
((lp1102
F40.05000000000291
tp1103
sg572
((lp1104
F40.089999999996508
tp1105
sg669
((lp1106
F40.040000000000873
tp1107
sg622
((lp1108
F40.029999999998836
tp1109
ssba(imeasure_core
ProblemSetSolution
p1110
(dp1111
g3
g4
sg160
S"AnytimeBeam-w25-gf(1.3, 'exp')_with_LinearHeuristic"
p1112
sg163
(dp1113
g8
((lp1114
F40.330000000001746
tp1115
sg49
((lp1116
(F0.020000000004074536
I25
tp1117
aF40.0
tp1118
sg75
((lp1119
(F39.020000000004075
I286
tp1120
aF40.029999999998836
tp1121
sg105
((lp1122
(F0.19000000000232831
I8
tp1123
aF40.029999999998836
tp1124
sg134
((lp1125
(F0.030000000006111804
I32
tp1126
a(F1.1400000000066939
I30
tp1127
aF40.0
tp1128
ssba(imeasure_core
ProblemSetSolution
p1129
(dp1130
g3
g204
sg160
g1112
sg163
(dp1131
g207
((lp1132
F40.05000000000291
tp1133
sg256
((lp1134
(F1.8099999999976717
I50
tp1135
a(F16.209999999999127
I49
tp1136
a(F27.089999999996508
I48
tp1137
aF40.009999999994761
tp1138
sg311
((lp1139
F40.190000000002328
tp1140
sg360
((lp1141
F40.099999999998545
tp1142
sg409
((lp1143
(F0.52000000000407454
I7
tp1144
aF40.160000000003492
tp1145
ssba(imeasure_core
ProblemSetSolution
p1146
(dp1147
g3
g472
sg160
g1112
sg163
(dp1148
g475
((lp1149
F41.849999999998545
tp1150
sg521
((lp1151
F40.159999999996217
tp1152
sg572
((lp1153
F40.010000000002037
tp1154
sg669
((lp1155
F40.0
tp1156
sg622
((lp1157
F40.30000000000291
tp1158
ssba(imeasure_core
ProblemSetSolution
p1159
(dp1160
g3
g4
sg160
S"AnytimeBeam-w35-gf(1.3, 'exp')_with_LinearHeuristic"
p1161
sg163
(dp1162
g8
((lp1163
F40.0
tp1164
sg49
((lp1165
(F0.019999999996798579
I25
tp1166
aF40.0
tp1167
sg75
((lp1168
F40.089999999996508
tp1169
sg105
((lp1170
(F0.20000000000436557
I8
tp1171
aF40.040000000000873
tp1172
sg134
((lp1173
(F0.029999999998835847
I32
tp1174
a(F1.069999999999709
I30
tp1175
aF40.0
tp1176
ssba(imeasure_core
ProblemSetSolution
p1177
(dp1178
g3
g204
sg160
g1161
sg163
(dp1179
g207
((lp1180
F40.150000000001455
tp1181
sg256
((lp1182
(F3.0400000000008731
I50
tp1183
a(F15.720000000001164
I49
tp1184
a(F28.059999999997672
I48
tp1185
aF40.019999999996799
tp1186
sg311
((lp1187
F40.020000000004075
tp1188
sg360
((lp1189
F40.379999999997381
tp1190
sg409
((lp1191
(F0.62000000000261934
I7
tp1192
aF40.110000000000582
tp1193
ssba(imeasure_core
ProblemSetSolution
p1194
(dp1195
g3
g472
sg160
g1161
sg163
(dp1196
g475
((lp1197
F42.080000000001746
tp1198
sg521
((lp1199
F40.19999999999709
tp1200
sg572
((lp1201
F40.059999999997672
tp1202
sg669
((lp1203
F40.389999999999418
tp1204
sg622
((lp1205
F40.130000000004657
tp1206
ssba(imeasure_core
ProblemSetSolution
p1207
(dp1208
g3
g4
sg160
S"AnytimeBeam-w45-gf(1.3, 'exp')_with_LinearHeuristic"
p1209
sg163
(dp1210
g8
((lp1211
F40.059999999997672
tp1212
sg49
((lp1213
(F0.019999999996798579
I25
tp1214
aF40.0
tp1215
sg75
((lp1216
F40.260000000002037
tp1217
sg105
((lp1218
(F0.2199999999938882
I8
tp1219
aF40.049999999995634
tp1220
sg134
((lp1221
(F0.020000000004074536
I32
tp1222
a(F0.65000000000145519
I30
tp1223
aF40.0
tp1224
ssba(imeasure_core
ProblemSetSolution
p1225
(dp1226
g3
g204
sg160
g1209
sg163
(dp1227
g207
((lp1228
F40.220000000001164
tp1229
sg256
((lp1230
(F4.1100000000005821
I50
tp1231
a(F11.919999999998254
I49
tp1232
a(F23.80000000000291
I48
tp1233
aF40.029999999998836
tp1234
sg311
((lp1235
F40.120000000002619
tp1236
sg360
((lp1237
F40.089999999996508
tp1238
sg409
((lp1239
(F0.69000000000232831
I7
tp1240
aF40.060000000004948
tp1241
ssba(imeasure_core
ProblemSetSolution
p1242
(dp1243
g3
g472
sg160
g1209
sg163
(dp1244
g475
((lp1245
F42.290000000000873
tp1246
sg521
((lp1247
F40.120000000002619
tp1248
sg572
((lp1249
F40.379999999997381
tp1250
sg669
((lp1251
F40.020000000004075
tp1252
sg622
((lp1253
F40.180000000000291
tp1254
ssba.