(lp0
(imeasure_core
ProblemSetSolution
p1
(dp2
S'roomset'
p3
(imeasure_core
RoomSet
p4
(dp5
S'rooms'
p6
(dp7
(iproblems
RoomID
p8
(dp9
S'dusts'
p10
I5
sS'obstacles'
p11
(I6
I7
tp12
sS'robots'
p13
I2
sS'height'
p14
I9
sS'width'
p15
I8
sS'seed'
p16
I4141613595808561052
sb(imulti_robot_problem
MultiRobotState
p17
(dp18
S'obstacle_locations'
p19
c__builtin__
frozenset
p20
((lp21
(I3
I8
tp22
a(I5
I7
tp23
ag12
a(I4
I8
tp24
atp25
Rp26
sg15
I8
sS'dirt_locations'
p27
g20
((lp28
(I5
I4
tp29
a(I7
I5
tp30
a(I1
I1
tp31
a(I6
I5
tp32
a(I4
I4
tp33
atp34
Rp35
sg13
((I2
I5
tp36
(I2
I1
tp37
tp38
sg14
I9
sbs(iproblems
RoomID
p39
(dp40
g10
I5
sg11
(I9
I3
tp41
sg13
I2
sg14
I8
sg15
I10
sg16
I536274232951298558
sb(imulti_robot_problem
MultiRobotState
p42
(dp43
g19
g20
((lp44
(I2
I7
tp45
a(I2
I3
tp46
a(I8
I2
tp47
a(I8
I6
tp48
a(I9
I5
tp49
ag41
a(I8
I4
tp50
atp51
Rp52
sg15
I10
sg27
g20
((lp53
(I7
I6
tp54
a(I9
I6
tp55
a(I4
I6
tp56
a(I6
I5
tp57
a(I3
I5
tp58
atp59
Rp60
sg13
((I3
I0
tp61
(I6
I4
tp62
tp63
sg14
I8
sbs(iproblems
RoomID
p64
(dp65
g10
I5
sg11
(I5
I5
tp66
sg13
I5
sg14
I10
sg15
I7
sg16
I1860564370586594366
sb(imulti_robot_problem
MultiRobotState
p67
(dp68
g19
g20
((lp69
(I3
I5
tp70
ag66
a(I3
I6
tp71
a(I4
I6
tp72
atp73
Rp74
sg15
I7
sg27
g20
((lp75
(I6
I3
tp76
a(I3
I0
tp77
a(I6
I6
tp78
a(I2
I7
tp79
a(I1
I5
tp80
atp81
Rp82
sg13
((I1
I8
tp83
(I5
I0
tp84
(I0
I1
tp85
(I6
I5
tp86
(I4
I0
tp87
tp88
sg14
I10
sbs(iproblems
RoomID
p89
(dp90
g10
I9
sg11
(I6
I4
tp91
sg13
I3
sg14
I10
sg15
I10
sg16
I1466129350529707277
sb(imulti_robot_problem
MultiRobotState
p92
(dp93
g19
g20
((lp94
(I7
I3
tp95
a(I8
I3
tp96
a(I5
I9
tp97
a(I9
I2
tp98
a(I2
I8
tp99
a(I9
I3
tp100
a(I2
I0
tp101
a(I3
I6
tp102
ag91
atp103
Rp104
sg15
I10
sg27
g20
((lp105
(I2
I7
tp106
a(I6
I9
tp107
a(I6
I6
tp108
a(I5
I7
tp109
a(I7
I1
tp110
a(I8
I9
tp111
a(I2
I3
tp112
a(I9
I4
tp113
a(I5
I2
tp114
atp115
Rp116
sg13
((I7
I8
tp117
(I4
I8
tp118
(I7
I9
tp119
tp120
sg14
I10
sbs(iproblems
RoomID
p121
(dp122
g10
I10
sg11
(I5
I5
tp123
sg13
I3
sg14
I7
sg15
I8
sg16
I1422029181926308037
sb(imulti_robot_problem
MultiRobotState
p124
(dp125
g19
g20
((lp126
(I5
I6
tp127
a(I0
I6
tp128
a(I6
I6
tp129
ag123
a(I4
I6
tp130
atp131
Rp132
sg15
I8
sg27
g20
((lp133
(I1
I2
tp134
a(I7
I1
tp135
a(I7
I6
tp136
a(I2
I4
tp137
a(I7
I4
tp138
a(I1
I5
tp139
a(I7
I5
tp140
a(I0
I5
tp141
a(I6
I1
tp142
a(I3
I5
tp143
atp144
Rp145
sg13
((I3
I0
tp146
(I3
I6
tp147
(I2
I0
tp148
tp149
sg14
I7
sbssS'name'
p150
S'easy_roomset'
p151
sbsg150
S'LimitedTimeAStar_with_PowerHeuristic2'
p152
sS'solutions'
p153
(dp154
g8
((lp155
(F0.01999999999999999
I8
tp156
aF0.01999999999999999
tp157
sg39
((lp158
(F1.45
I8
tp159
aF1.45
tp160
sg64
((lp161
(F0.7799999999999998
I5
tp162
aF0.79000000000000004
tp163
sg89
((lp164
F300.18000000000001
tp165
sg121
((lp166
F300.51999999999998
tp167
ssba(imeasure_core
ProblemSetSolution
p168
(dp169
g3
(imeasure_core
RoomSet
p170
(dp171
g6
(dp172
(iproblems
RoomID
p173
(dp174
g10
I5
sg11
(I6
I6
tp175
sg13
I3
sg14
I11
sg15
I10
sg16
I4141613595808561052
sb(imulti_robot_problem
MultiRobotState
p176
(dp177
g19
g20
((lp178
(I5
I9
tp179
ag175
a(I5
I6
tp180
a(I9
I8
tp181
a(I9
I9
tp182
a(I9
I10
tp183
a(I3
I9
tp184
a(I3
I7
tp185
a(I1
I0
tp186
a(I0
I8
tp187
a(I5
I3
tp188
a(I2
I7
tp189
a(I4
I9
tp190
a(I4
I6
tp191
a(I2
I9
tp192
a(I3
I10
tp193
a(I6
I10
tp194
a(I8
I10
tp195
a(I3
I8
tp196
a(I1
I8
tp197
a(I7
I10
tp198
a(I9
I5
tp199
a(I9
I7
tp200
atp201
Rp202
sg15
I10
sg27
g20
((lp203
(I5
I5
tp204
a(I8
I6
tp205
a(I6
I5
tp206
a(I8
I7
tp207
a(I2
I2
tp208
atp209
Rp210
sg13
((I3
I6
tp211
(I3
I1
tp212
(I1
I1
tp213
tp214
sg14
I11
sbs(iproblems
RoomID
p215
(dp216
g10
I5
sg11
(I6
I6
tp217
sg13
I3
sg14
I10
sg15
I12
sg16
I536274232951298558
sb(imulti_robot_problem
MultiRobotState
p218
(dp219
g19
g20
((lp220
(I5
I9
tp221
a(I6
I9
tp222
a(I9
I1
tp223
a(I4
I8
tp224
a(I2
I8
tp225
a(I9
I8
tp226
a(I10
I6
tp227
a(I0
I7
tp228
a(I8
I9
tp229
a(I3
I7
tp230
a(I10
I4
tp231
a(I9
I0
tp232
a(I5
I5
tp233
a(I2
I9
tp234
a(I10
I7
tp235
ag217
a(I0
I4
tp236
a(I10
I0
tp237
a(I9
I7
tp238
a(I8
I0
tp239
a(I8
I2
tp240
a(I9
I3
tp241
a(I3
I9
tp242
a(I0
I8
tp243
a(I6
I5
tp244
a(I7
I9
tp245
a(I2
I7
tp246
a(I11
I7
tp247
a(I8
I3
tp248
a(I7
I0
tp249
a(I4
I6
tp250
a(I9
I2
tp251
a(I3
I8
tp252
a(I1
I8
tp253
a(I1
I7
tp254
a(I9
I5
tp255
a(I3
I4
tp256
atp257
Rp258
sg15
I12
sg27
g20
((lp259
(I3
I6
tp260
a(I2
I4
tp261
a(I7
I7
tp262
a(I8
I7
tp263
a(I8
I4
tp264
atp265
Rp266
sg13
((I4
I0
tp267
(I7
I5
tp268
(I11
I8
tp269
tp270
sg14
I10
sbs(iproblems
RoomID
p271
(dp272
g10
I5
sg11
(I0
I10
tp273
sg13
I4
sg14
I12
sg15
I9
sg16
I1860564370586594366
sb(imulti_robot_problem
MultiRobotState
p274
(dp275
g19
g20
((lp276
(I4
I7
tp277
a(I8
I2
tp278
a(I6
I6
tp279
a(I5
I6
tp280
a(I0
I7
tp281
a(I3
I9
tp282
ag273
a(I0
I8
tp283
a(I8
I5
tp284
a(I5
I3
tp285
a(I2
I7
tp286
a(I8
I3
tp287
a(I4
I6
tp288
a(I2
I9
tp289
a(I8
I1
tp290
a(I7
I6
tp291
a(I5
I7
tp292
a(I4
I5
tp293
a(I1
I8
tp294
a(I3
I6
tp295
a(I0
I9
tp296
a(I8
I6
tp297
a(I3
I5
tp298
a(I5
I2
tp299
a(I8
I4
tp300
atp301
Rp302
sg15
I9
sg27
g20
((lp303
(I3
I0
tp304
a(I3
I8
tp305
a(I2
I6
tp306
a(I3
I3
tp307
a(I8
I8
tp308
atp309
Rp310
sg13
((I2
I10
tp311
(I7
I1
tp312
(I0
I2
tp313
(I5
I0
tp314
tp315
sg14
I12
sbs(iproblems
RoomID
p316
(dp317
g10
I10
sg11
(I8
I4
tp318
sg13
I3
sg14
I9
sg15
I10
sg16
I1422029181926308037
sb(imulti_robot_problem
MultiRobotState
p319
(dp320
g19
g20
((lp321
(I6
I4
tp322
a(I2
I6
tp323
a(I6
I6
tp324
a(I5
I6
tp325
a(I9
I8
tp326
a(I7
I7
tp327
a(I7
I5
tp328
a(I1
I6
tp329
a(I8
I7
tp330
a(I0
I8
tp331
a(I5
I8
tp332
a(I5
I5
tp333
a(I0
I1
tp334
a(I6
I7
tp335
a(I6
I8
tp336
a(I3
I8
tp337
a(I8
I6
tp338
a(I9
I7
tp339
a(I7
I8
tp340
ag318
atp341
Rp342
sg15
I10
sg27
g20
((lp343
(I4
I7
tp344
a(I9
I1
tp345
a(I9
I2
tp346
a(I0
I7
tp347
a(I8
I1
tp348
a(I2
I3
tp349
a(I1
I7
tp350
a(I9
I5
tp351
a(I3
I4
tp352
a(I3
I5
tp353
atp354
Rp355
sg13
((I3
I0
tp356
(I4
I8
tp357
(I2
I1
tp358
tp359
sg14
I9
sbs(iproblems
RoomID
p360
(dp361
g10
I7
sg11
(I8
I5
tp362
sg13
I3
sg14
I9
sg15
I12
sg16
I2049693721044702637
sb(imulti_robot_problem
MultiRobotState
p363
(dp364
g19
g20
((lp365
(I7
I3
tp366
a(I5
I4
tp367
a(I8
I2
tp368
a(I6
I6
tp369
a(I3
I0
tp370
a(I7
I7
tp371
a(I8
I6
tp372
a(I3
I7
tp373
a(I6
I4
tp374
ag362
a(I5
I8
tp375
a(I0
I1
tp376
a(I6
I3
tp377
a(I3
I3
tp378
a(I11
I5
tp379
a(I7
I6
tp380
a(I5
I7
tp381
a(I10
I0
tp382
a(I4
I8
tp383
a(I4
I3
tp384
a(I9
I5
tp385
atp386
Rp387
sg15
I12
sg27
g20
((lp388
(I3
I2
tp389
a(I6
I2
tp390
a(I5
I3
tp391
a(I8
I1
tp392
a(I2
I5
tp393
a(I9
I3
tp394
a(I9
I7
tp395
atp396
Rp397
sg13
((I11
I1
tp398
(I4
I0
tp399
(I1
I6
tp400
tp401
sg14
I9
sbssg150
S'mild_roomset'
p402
sbsg150
g152
sg153
(dp403
g173
((lp404
F300.16000000000008
tp405
sg215
((lp406
F300.05999999999995
tp407
sg271
((lp408
F300.5
tp409
sg316
((lp410
F300.36999999999989
tp411
sg360
((lp412
F300.97000000000025
tp413
ssba(imeasure_core
ProblemSetSolution
p414
(dp415
g3
(imeasure_core
RoomSet
p416
(dp417
g6
(dp418
(iproblems
RoomID
p419
(dp420
g10
I10
sg11
(I3
I4
tp421
sg13
I6
sg14
I11
sg15
I13
sg16
I536274232951298558
sb(imulti_robot_problem
MultiRobotState
p422
(dp423
g19
g20
((lp424
(I5
I4
tp425
a(I10
I6
tp426
a(I10
I4
tp427
a(I11
I7
tp428
a(I8
I0
tp429
a(I8
I3
tp430
a(I11
I0
tp431
a(I3
I8
tp432
a(I10
I3
tp433
a(I7
I2
tp434
a(I3
I5
tp435
a(I10
I8
tp436
a(I9
I0
tp437
a(I11
I5
tp438
a(I9
I2
tp439
a(I7
I6
tp440
a(I6
I3
tp441
a(I11
I8
tp442
a(I4
I3
tp443
a(I0
I4
tp444
ag421
a(I10
I2
tp445
atp446
Rp447
sg15
I13
sg27
g20
((lp448
(I4
I7
tp449
a(I3
I10
tp450
a(I6
I9
tp451
a(I2
I10
tp452
a(I1
I8
tp453
a(I8
I8
tp454
a(I8
I7
tp455
a(I0
I9
tp456
a(I2
I5
tp457
a(I8
I4
tp458
atp459
Rp460
sg13
((I4
I0
tp461
(I8
I5
tp462
(I12
I9
tp463
(I9
I9
tp464
(I5
I9
tp465
(I4
I6
tp466
tp467
sg14
I11
sbs(iproblems
RoomID
p468
(dp469
g10
I14
sg11
(I6
I3
tp470
sg13
I6
sg14
I13
sg15
I13
sg16
I1466129350529707277
sb(imulti_robot_problem
MultiRobotState
p471
(dp472
g19
g20
((lp473
(I7
I3
tp474
a(I3
I1
tp475
a(I11
I4
tp476
a(I10
I4
tp477
a(I10
I1
tp478
a(I5
I1
tp479
a(I4
I0
tp480
a(I7
I6
tp481
a(I5
I7
tp482
ag470
a(I1
I5
tp483
a(I7
I10
tp484
a(I1
I10
tp485
a(I9
I5
tp486
a(I7
I8
tp487
a(I12
I3
tp488
a(I8
I4
tp489
atp490
Rp491
sg15
I13
sg27
g20
((lp492
(I9
I1
tp493
a(I2
I9
tp494
a(I5
I11
tp495
a(I3
I0
tp496
a(I3
I10
tp497
a(I4
I8
tp498
a(I2
I11
tp499
a(I12
I6
tp500
a(I8
I8
tp501
a(I6
I12
tp502
a(I3
I9
tp503
a(I12
I9
tp504
a(I9
I12
tp505
a(I7
I9
tp506
atp507
Rp508
sg13
((I10
I10
tp509
(I5
I10
tp510
(I10
I12
tp511
(I3
I4
tp512
(I9
I10
tp513
(I7
I12
tp514
tp515
sg14
I13
sbs(iproblems
RoomID
p516
(dp517
g10
I11
sg11
(I10
I11
tp518
sg13
I6
sg14
I12
sg15
I11
sg16
I5050084214909921351
sb(imulti_robot_problem
MultiRobotState
p519
(dp520
g19
g20
((lp521
(I7
I3
tp522
a(I2
I6
tp523
ag518
a(I7
I10
tp524
a(I4
I10
tp525
a(I6
I11
tp526
a(I8
I11
tp527
a(I7
I7
tp528
a(I6
I2
tp529
a(I5
I10
tp530
a(I5
I1
tp531
a(I7
I11
tp532
a(I9
I6
tp533
a(I4
I11
tp534
a(I4
I0
tp535
a(I6
I7
tp536
a(I3
I3
tp537
a(I6
I8
tp538
a(I4
I2
tp539
a(I6
I3
tp540
a(I9
I11
tp541
a(I5
I0
tp542
a(I2
I2
tp543
a(I4
I3
tp544
a(I5
I3
tp545
a(I5
I2
tp546
a(I10
I9
tp547
atp548
Rp549
sg15
I11
sg27
g20
((lp550
(I0
I1
tp551
a(I5
I4
tp552
a(I0
I0
tp553
a(I10
I4
tp554
a(I7
I6
tp555
a(I9
I9
tp556
a(I0
I7
tp557
a(I1
I6
tp558
a(I9
I4
tp559
a(I10
I1
tp560
a(I9
I7
tp561
atp562
Rp563
sg13
((I3
I6
tp564
(I7
I8
tp565
(I10
I8
tp566
(I2
I8
tp567
(I7
I9
tp568
(I1
I8
tp569
tp570
sg14
I12
sbs(iproblems
RoomID
p571
(dp572
g10
I10
sg11
(I9
I6
tp573
sg13
I7
sg14
I13
sg15
I10
sg16
I1860564370586594366
sb(imulti_robot_problem
MultiRobotState
p574
(dp575
g19
g20
((lp576
(I6
I4
tp577
a(I6
I8
tp578
a(I5
I7
tp579
a(I7
I7
tp580
a(I9
I11
tp581
a(I2
I3
tp582
a(I5
I8
tp583
a(I8
I7
tp584
a(I1
I6
tp585
ag573
a(I6
I5
tp586
a(I9
I7
tp587
atp588
Rp589
sg15
I10
sg27
g20
((lp590
(I2
I7
tp591
a(I6
I7
tp592
a(I3
I3
tp593
a(I3
I10
tp594
a(I3
I5
tp595
a(I1
I8
tp596
a(I3
I9
tp597
a(I6
I2
tp598
a(I0
I8
tp599
a(I9
I1
tp600
atp601
Rp602
sg13
((I2
I11
tp603
(I8
I1
tp604
(I0
I2
tp605
(I6
I0
tp606
(I9
I4
tp607
(I4
I0
tp608
(I9
I8
tp609
tp610
sg14
I13
sbs(iproblems
RoomID
p611
(dp612
g10
I15
sg11
(I7
I8
tp613
sg13
I6
sg14
I10
sg15
I11
sg16
I1422029181926308037
sb(imulti_robot_problem
MultiRobotState
p614
(dp615
g19
g20
((lp616
(I8
I9
tp617
a(I6
I9
tp618
a(I6
I8
tp619
a(I3
I2
tp620
a(I3
I8
tp621
a(I8
I8
tp622
a(I0
I9
tp623
ag613
a(I7
I2
tp624
a(I7
I9
tp625
atp626
Rp627
sg15
I11
sg27
g20
((lp628
(I2
I7
tp629
a(I0
I1
tp630
a(I10
I1
tp631
a(I4
I8
tp632
a(I10
I7
tp633
a(I10
I6
tp634
a(I3
I5
tp635
a(I4
I5
tp636
a(I3
I9
tp637
a(I2
I3
tp638
a(I8
I7
tp639
a(I1
I6
tp640
a(I0
I8
tp641
a(I10
I9
tp642
a(I9
I7
tp643
atp644
Rp645
sg13
((I4
I0
tp646
(I5
I9
tp647
(I3
I1
tp648
(I1
I7
tp649
(I9
I2
tp650
(I0
I7
tp651
tp652
sg14
I10
sbssg150
S'heavy_roomset'
p653
sbsg150
g152
sg153
(dp654
g419
((lp655
F301.24000000000024
tp656
sg468
((lp657
F301.48000000000002
tp658
sg516
((lp659
F302.35999999999967
tp660
sg571
((lp661
F309.08000000000038
tp662
sg611
((lp663
F301.67999999999984
tp664
ssba.