(lp0
(imeasure_core
ProblemSetSolution
p1
(dp2
S'roomset'
p3
(imeasure_core
RoomSet
p4
(dp5
S'rooms'
p6
(dp7
(iproblems
RoomID
p8
(dp9
S'dusts'
p10
I7
sS'obstacles'
p11
(I1
I3
tp12
sS'robots'
p13
I1
sS'height'
p14
I7
sS'width'
p15
I9
sS'seed'
p16
I1486246605650367638
sb(imulti_robot_problem
MultiRobotState
p17
(dp18
S'obstacle_locations'
p19
c__builtin__
frozenset
p20
((lp21
(I0
I1
tp22
a(I8
I3
tp23
ag12
a(I0
I3
tp24
a(I0
I2
tp25
atp26
Rp27
sg15
I9
sS'dirt_locations'
p28
g20
((lp29
(I7
I5
tp30
a(I7
I0
tp31
a(I0
I4
tp32
a(I1
I0
tp33
a(I4
I4
tp34
a(I6
I5
tp35
a(I4
I0
tp36
atp37
Rp38
sg13
((I5
I1
tp39
tp40
sg14
I7
sbs(iproblems
RoomID
p41
(dp42
g10
I9
sg11
(I7
I5
tp43
sg13
I4
sg14
I10
sg15
I10
sg16
I679259829289197625
sb(imulti_robot_problem
MultiRobotState
p44
(dp45
g19
g20
((lp46
(I9
I6
tp47
a(I8
I6
tp48
a(I7
I6
tp49
ag43
a(I7
I0
tp50
atp51
Rp52
sg15
I10
sg28
g20
((lp53
(I5
I4
tp54
a(I2
I6
tp55
a(I7
I1
tp56
a(I6
I1
tp57
a(I1
I6
tp58
a(I0
I5
tp59
a(I8
I7
tp60
a(I0
I9
tp61
a(I9
I5
tp62
atp63
Rp64
sg13
((I7
I8
tp65
(I6
I7
tp66
(I3
I5
tp67
(I3
I9
tp68
tp69
sg14
I10
sbs(iproblems
RoomID
p70
(dp71
g10
I5
sg11
(I3
I4
tp72
sg13
I1
sg14
I9
sg15
I9
sg16
I2685440357799139976
sb(imulti_robot_problem
MultiRobotState
p73
(dp74
g19
g20
((lp75
(I8
I3
tp76
a(I1
I3
tp77
a(I5
I6
tp78
ag72
a(I2
I4
tp79
a(I3
I8
tp80
a(I2
I3
tp81
a(I7
I8
tp82
a(I1
I1
tp83
atp84
Rp85
sg15
I9
sg28
g20
((lp86
(I0
I1
tp87
a(I0
I0
tp88
a(I3
I1
tp89
a(I8
I7
tp90
a(I5
I0
tp91
atp92
Rp93
sg13
((I5
I5
tp94
tp95
sg14
I9
sbs(iproblems
RoomID
p96
(dp97
g10
I6
sg11
(I1
I6
tp98
sg13
I4
sg14
I8
sg15
I10
sg16
I403795515464475257
sb(imulti_robot_problem
MultiRobotState
p99
(dp100
g19
g20
((lp101
(I8
I3
tp102
a(I1
I3
tp103
a(I6
I7
tp104
a(I0
I4
tp105
ag98
a(I4
I1
tp106
a(I0
I5
tp107
atp108
Rp109
sg15
I10
sg28
g20
((lp110
(I7
I3
tp111
a(I4
I7
tp112
a(I2
I2
tp113
a(I8
I0
tp114
a(I0
I2
tp115
a(I0
I7
tp116
atp117
Rp118
sg13
((I8
I2
tp119
(I6
I1
tp120
(I5
I0
tp121
(I2
I0
tp122
tp123
sg14
I8
sbs(iproblems
RoomID
p124
(dp125
g10
I6
sg11
(I4
I4
tp126
sg13
I4
sg14
I9
sg15
I9
sg16
I5891625650498269233
sb(imulti_robot_problem
MultiRobotState
p127
(dp128
g19
g20
((lp129
(I2
I7
tp130
a(I4
I5
tp131
ag126
a(I3
I6
tp132
atp133
Rp134
sg15
I9
sg28
g20
((lp135
(I7
I4
tp136
a(I8
I3
tp137
a(I0
I5
tp138
a(I5
I5
tp139
a(I6
I6
tp140
a(I4
I0
tp141
atp142
Rp143
sg13
((I4
I6
tp144
(I7
I1
tp145
(I0
I4
tp146
(I7
I2
tp147
tp148
sg14
I9
sbssS'name'
p149
S'easy_roomset'
p150
sbsg149
S"AnytimeBeam-w20-gf(2, 'lin')_with_PowerHeuristic2"
p151
sS'solutions'
p152
(dp153
g8
((lp154
(F0.11999999999898137
I45
tp155
a(F9.0099999999983993
I44
tp156
a(F15.520000000000437
I42
tp157
a(F16.009999999998399
I39
tp158
a(F16.329999999998108
I37
tp159
a(F16.93999999999869
I36
tp160
a(F17.569999999999709
I34
tp161
a(F19.639999999999418
I33
tp162
a(F24.419999999998254
I31
tp163
a(F35.539999999997235
I30
tp164
aF40.0
tp165
sg41
((lp166
(F0.78999999999723514
I20
tp167
aF40.029999999998836
tp168
sg70
((lp169
(F0.060000000001309672
I41
tp170
a(F8.8499999999985448
I35
tp171
a(F15.580000000001746
I33
tp172
a(F22.919999999998254
I31
tp173
a(F24.25
I29
tp174
aF40.0
tp175
sg96
((lp176
(F6.8800000000010186
I134
tp177
aF40.009999999998399
tp178
sg124
((lp179
(F0.40999999999985448
I8
tp180
aF40.200000000000728
tp181
ssba(imeasure_core
ProblemSetSolution
p182
(dp183
g3
(imeasure_core
RoomSet
p184
(dp185
g6
(dp186
(iproblems
RoomID
p187
(dp188
g10
I9
sg11
(I7
I7
tp189
sg13
I4
sg14
I12
sg15
I12
sg16
I679259829289197625
sb(imulti_robot_problem
MultiRobotState
p190
(dp191
g19
g20
((lp192
(I6
I4
tp193
a(I6
I9
tp194
a(I6
I6
tp195
a(I5
I6
tp196
a(I9
I8
tp197
a(I11
I9
tp198
ag189
a(I1
I4
tp199
a(I11
I7
tp200
a(I7
I5
tp201
a(I8
I7
tp202
a(I4
I2
tp203
a(I8
I5
tp204
a(I6
I5
tp205
a(I10
I8
tp206
a(I10
I5
tp207
a(I6
I7
tp208
a(I6
I8
tp209
a(I10
I7
tp210
a(I9
I6
tp211
a(I7
I6
tp212
a(I8
I10
tp213
a(I7
I4
tp214
a(I11
I8
tp215
a(I7
I10
tp216
a(I8
I6
tp217
a(I6
I1
tp218
a(I9
I7
tp219
atp220
Rp221
sg15
I12
sg28
g20
((lp222
(I2
I7
tp223
a(I9
I0
tp224
a(I8
I2
tp225
a(I7
I1
tp226
a(I11
I0
tp227
a(I0
I11
tp228
a(I1
I6
tp229
a(I1
I7
tp230
a(I11
I6
tp231
atp232
Rp233
sg13
((I9
I10
tp234
(I8
I9
tp235
(I3
I7
tp236
(I3
I11
tp237
tp238
sg14
I12
sbs(iproblems
RoomID
p239
(dp240
g10
I5
sg11
(I9
I1
tp241
sg13
I3
sg14
I11
sg15
I11
sg16
I2685440357799139976
sb(imulti_robot_problem
MultiRobotState
p242
(dp243
g19
g20
((lp244
(I7
I3
tp245
a(I10
I4
tp246
a(I9
I3
tp247
ag241
a(I7
I1
tp248
a(I5
I6
tp249
a(I10
I6
tp250
a(I1
I4
tp251
a(I9
I9
tp252
a(I3
I9
tp253
a(I9
I4
tp254
a(I6
I8
tp255
a(I9
I6
tp256
a(I3
I4
tp257
a(I10
I3
tp258
a(I7
I2
tp259
a(I5
I3
tp260
a(I8
I3
tp261
a(I5
I5
tp262
a(I10
I7
tp263
a(I8
I5
tp264
a(I9
I2
tp265
a(I3
I6
tp266
a(I4
I5
tp267
a(I6
I5
tp268
a(I7
I10
tp269
a(I9
I5
tp270
a(I3
I5
tp271
a(I7
I8
tp272
a(I2
I4
tp273
a(I10
I9
tp274
atp275
Rp276
sg15
I11
sg28
g20
((lp277
(I1
I2
tp278
a(I9
I10
tp279
a(I6
I1
tp280
a(I4
I1
tp281
a(I0
I2
tp282
atp283
Rp284
sg13
((I6
I6
tp285
(I0
I0
tp286
(I10
I8
tp287
tp288
sg14
I11
sbs(iproblems
RoomID
p289
(dp290
g10
I6
sg11
(I3
I9
tp291
sg13
I4
sg14
I11
sg15
I11
sg16
I5891625650498269233
sb(imulti_robot_problem
MultiRobotState
p292
(dp293
g19
g20
((lp294
(I7
I3
tp295
a(I4
I7
tp296
a(I6
I6
tp297
a(I5
I6
tp298
a(I2
I8
tp299
a(I6
I2
tp300
a(I5
I1
tp301
a(I3
I7
tp302
a(I8
I5
tp303
a(I5
I5
tp304
a(I2
I9
tp305
a(I7
I6
tp306
a(I4
I4
tp307
a(I2
I2
tp308
a(I1
I1
tp309
a(I9
I7
tp310
a(I3
I2
tp311
a(I10
I4
tp312
a(I4
I5
tp313
a(I9
I3
tp314
a(I10
I5
tp315
a(I2
I10
tp316
a(I7
I5
tp317
a(I2
I3
tp318
a(I8
I3
tp319
a(I4
I6
tp320
a(I5
I2
tp321
a(I6
I1
tp322
a(I3
I8
tp323
a(I1
I8
tp324
ag291
a(I4
I3
tp325
a(I9
I5
tp326
a(I3
I4
tp327
a(I8
I4
tp328
atp329
Rp330
sg15
I11
sg28
g20
((lp331
(I8
I8
tp332
a(I5
I10
tp333
a(I9
I1
tp334
a(I10
I7
tp335
a(I1
I6
tp336
a(I7
I9
tp337
atp338
Rp339
sg13
((I5
I7
tp340
(I8
I1
tp341
(I0
I5
tp342
(I4
I0
tp343
tp344
sg14
I11
sbs(iproblems
RoomID
p345
(dp346
g10
I10
sg11
(I1
I5
tp347
sg13
I4
sg14
I12
sg15
I10
sg16
I1737871632067391849
sb(imulti_robot_problem
MultiRobotState
p348
(dp349
g19
g20
((lp350
(I3
I2
tp351
a(I0
I0
tp352
a(I6
I6
tp353
a(I5
I6
tp354
a(I2
I8
tp355
a(I2
I10
tp356
a(I8
I9
tp357
a(I6
I2
tp358
a(I2
I3
tp359
a(I8
I7
tp360
a(I5
I1
tp361
a(I8
I5
tp362
a(I5
I8
tp363
a(I8
I3
tp364
a(I5
I5
tp365
a(I7
I8
tp366
a(I7
I6
tp367
a(I8
I10
tp368
ag347
a(I6
I5
tp369
a(I2
I2
tp370
a(I4
I1
tp371
a(I2
I4
tp372
atp373
Rp374
sg15
I10
sg28
g20
((lp375
(I0
I1
tp376
a(I4
I10
tp377
a(I4
I8
tp378
a(I3
I0
tp379
a(I9
I6
tp380
a(I3
I10
tp381
a(I5
I11
tp382
a(I2
I7
tp383
a(I1
I9
tp384
a(I3
I4
tp385
atp386
Rp387
sg13
((I4
I9
tp388
(I8
I11
tp389
(I4
I0
tp390
(I3
I9
tp391
tp392
sg14
I12
sbs(iproblems
RoomID
p393
(dp394
g10
I7
sg11
(I8
I8
tp395
sg13
I3
sg14
I9
sg15
I9
sg16
I7834319822419845881
sb(imulti_robot_problem
MultiRobotState
p396
(dp397
g19
g20
((lp398
(I4
I7
tp399
a(I1
I3
tp400
a(I5
I0
tp401
a(I6
I6
tp402
a(I5
I6
tp403
a(I2
I8
tp404
a(I3
I5
tp405
a(I4
I6
tp406
a(I2
I6
tp407
a(I0
I5
tp408
a(I3
I7
tp409
a(I0
I3
tp410
a(I0
I8
tp411
a(I8
I5
tp412
a(I5
I8
tp413
a(I3
I3
tp414
a(I2
I7
tp415
a(I6
I7
tp416
a(I5
I5
tp417
a(I7
I8
tp418
a(I4
I4
tp419
a(I1
I5
tp420
a(I1
I8
tp421
ag395
a(I3
I6
tp422
a(I1
I7
tp423
a(I4
I5
tp424
a(I5
I3
tp425
a(I3
I4
tp426
atp427
Rp428
sg15
I9
sg28
g20
((lp429
(I7
I4
tp430
a(I2
I0
tp431
a(I6
I2
tp432
a(I7
I0
tp433
a(I8
I7
tp434
a(I7
I1
tp435
a(I1
I4
tp436
atp437
Rp438
sg13
((I2
I1
tp439
(I2
I3
tp440
(I5
I7
tp441
tp442
sg14
I9
sbssg149
S'mild_roomset'
p443
sbsg149
g151
sg152
(dp444
g187
((lp445
F40.0
tp446
sg239
((lp447
(F3.7800000000024738
I127
tp448
aF40.010000000002037
tp449
sg289
((lp450
(F2.4599999999991269
I64
tp451
aF40.020000000000437
tp452
sg345
((lp453
(F0.40999999999985448
I12
tp454
aF40.099999999998545
tp455
sg393
((lp456
(F0.11000000000058208
I25
tp457
aF40.0
tp458
ssba(imeasure_core
ProblemSetSolution
p459
(dp460
g3
(imeasure_core
RoomSet
p461
(dp462
g6
(dp463
(iproblems
RoomID
p464
(dp465
g10
I12
sg11
(I6
I3
tp466
sg13
I5
sg14
I10
sg15
I12
sg16
I1486246605650367638
sb(imulti_robot_problem
MultiRobotState
p467
(dp468
g19
g20
((lp469
(I5
I9
tp470
a(I1
I3
tp471
a(I7
I1
tp472
a(I2
I7
tp473
a(I1
I4
tp474
a(I6
I2
tp475
a(I1
I6
tp476
a(I2
I1
tp477
a(I0
I3
tp478
a(I6
I5
tp479
a(I1
I2
tp480
a(I1
I5
tp481
a(I4
I1
tp482
a(I3
I1
tp483
ag466
a(I2
I0
tp484
a(I10
I0
tp485
a(I5
I2
tp486
a(I1
I1
tp487
a(I8
I4
tp488
atp489
Rp490
sg15
I12
sg28
g20
((lp491
(I11
I7
tp492
a(I11
I4
tp493
a(I9
I1
tp494
a(I11
I8
tp495
a(I2
I8
tp496
a(I6
I0
tp497
a(I0
I6
tp498
a(I11
I1
tp499
a(I0
I4
tp500
a(I4
I9
tp501
a(I10
I9
tp502
a(I9
I7
tp503
atp504
Rp505
sg13
((I2
I4
tp506
(I10
I1
tp507
(I2
I5
tp508
(I9
I8
tp509
(I6
I6
tp510
tp511
sg14
I10
sbs(iproblems
RoomID
p512
(dp513
g10
I14
sg11
(I7
I6
tp514
sg13
I7
sg14
I13
sg15
I13
sg16
I679259829289197625
sb(imulti_robot_problem
MultiRobotState
p515
(dp516
g19
g20
((lp517
(I6
I4
tp518
a(I4
I8
tp519
a(I12
I7
tp520
a(I10
I6
tp521
a(I7
I5
tp522
a(I12
I11
tp523
a(I9
I6
tp524
a(I1
I2
tp525
a(I11
I7
tp526
a(I10
I7
tp527
ag514
a(I6
I3
tp528
a(I6
I2
tp529
a(I4
I3
tp530
a(I3
I4
tp531
a(I12
I8
tp532
atp533
Rp534
sg15
I13
sg28
g20
((lp535
(I2
I7
tp536
a(I12
I1
tp537
a(I9
I2
tp538
a(I2
I8
tp539
a(I5
I7
tp540
a(I10
I0
tp541
a(I1
I4
tp542
a(I0
I12
tp543
a(I7
I4
tp544
a(I10
I9
tp545
a(I4
I2
tp546
a(I11
I4
tp547
a(I11
I6
tp548
a(I1
I9
tp549
atp550
Rp551
sg13
((I9
I11
tp552
(I9
I10
tp553
(I4
I7
tp554
(I4
I12
tp555
(I7
I1
tp556
(I1
I8
tp557
(I1
I6
tp558
tp559
sg14
I13
sbs(iproblems
RoomID
p560
(dp561
g10
I11
sg11
(I2
I7
tp562
sg13
I6
sg14
I11
sg15
I13
sg16
I403795515464475257
sb(imulti_robot_problem
MultiRobotState
p563
(dp564
g19
g20
((lp565
g562
a(I10
I8
tp566
a(I1
I7
tp567
a(I3
I10
tp568
a(I4
I4
tp569
a(I1
I4
tp570
a(I12
I5
tp571
a(I0
I6
tp572
a(I0
I5
tp573
a(I3
I6
tp574
a(I2
I2
tp575
a(I0
I8
tp576
a(I7
I9
tp577
atp578
Rp579
sg15
I13
sg28
g20
((lp580
(I6
I4
tp581
a(I0
I0
tp582
a(I2
I9
tp583
a(I11
I5
tp584
a(I8
I9
tp585
a(I11
I1
tp586
a(I2
I3
tp587
a(I1
I10
tp588
a(I12
I2
tp589
a(I0
I3
tp590
a(I5
I2
tp591
atp592
Rp593
sg13
((I10
I3
tp594
(I7
I2
tp595
(I7
I0
tp596
(I3
I1
tp597
(I5
I10
tp598
(I9
I4
tp599
tp600
sg14
I11
sbs(iproblems
RoomID
p601
(dp602
g10
I11
sg11
(I11
I9
tp603
sg13
I7
sg14
I12
sg15
I12
sg16
I5891625650498269233
sb(imulti_robot_problem
MultiRobotState
p604
(dp605
g19
g20
((lp606
(I4
I4
tp607
a(I4
I8
tp608
a(I5
I6
tp609
a(I8
I11
tp610
ag603
a(I7
I7
tp611
a(I7
I1
tp612
a(I9
I10
tp613
a(I3
I9
tp614
a(I1
I9
tp615
a(I6
I7
tp616
a(I10
I7
tp617
a(I7
I6
tp618
a(I5
I7
tp619
a(I2
I11
tp620
a(I6
I11
tp621
a(I9
I11
tp622
a(I7
I10
tp623
a(I10
I9
tp624
atp625
Rp626
sg15
I12
sg28
g20
((lp627
(I11
I7
tp628
a(I11
I4
tp629
a(I4
I6
tp630
a(I5
I11
tp631
a(I8
I10
tp632
a(I0
I5
tp633
a(I8
I7
tp634
a(I1
I7
tp635
a(I10
I1
tp636
a(I1
I1
tp637
a(I5
I5
tp638
atp639
Rp640
sg13
((I6
I8
tp641
(I9
I2
tp642
(I0
I6
tp643
(I10
I3
tp644
(I9
I5
tp645
(I5
I0
tp646
(I9
I8
tp647
tp648
sg14
I12
sbs(iproblems
RoomID
p649
(dp650
g10
I10
sg11
(I6
I9
tp651
sg13
I5
sg14
I12
sg15
I12
sg16
I2685440357799139976
sb(imulti_robot_problem
MultiRobotState
p652
(dp653
g19
g20
((lp654
(I4
I10
tp655
ag651
a(I9
I1
tp656
a(I5
I11
tp657
a(I3
I0
tp658
a(I0
I7
tp659
a(I3
I9
tp660
a(I0
I5
tp661
a(I1
I4
tp662
a(I0
I3
tp663
a(I4
I0
tp664
a(I1
I2
tp665
a(I11
I10
tp666
a(I6
I10
tp667
a(I5
I6
tp668
a(I9
I11
tp669
a(I7
I9
tp670
a(I4
I5
tp671
a(I3
I5
tp672
a(I3
I4
tp673
a(I2
I4
tp674
a(I1
I9
tp675
atp676
Rp677
sg15
I12
sg28
g20
((lp678
(I11
I7
tp679
a(I8
I3
tp680
a(I10
I11
tp681
a(I7
I1
tp682
a(I10
I5
tp683
a(I8
I10
tp684
a(I6
I3
tp685
a(I3
I6
tp686
a(I9
I10
tp687
a(I6
I5
tp688
atp689
Rp690
sg13
((I7
I7
tp691
(I0
I0
tp692
(I11
I9
tp693
(I0
I2
tp694
(I4
I1
tp695
tp696
sg14
I12
sbssg149
S'heavy_roomset'
p697
sbsg149
g151
sg152
(dp698
g464
((lp699
(F16.159999999999854
I113
tp700
aF40.0
tp701
sg512
((lp702
F41.970000000001164
tp703
sg560
((lp704
(F23.220000000001164
I19
tp705
aF40.209999999999127
tp706
sg601
((lp707
F41.960000000002765
tp708
sg649
((lp709
(F4.5599999999976717
I58
tp710
aF40.0
tp711
ssba(imeasure_core
ProblemSetSolution
p712
(dp713
g3
g4
sg149
S"AnytimeBeam-w20-gf(4, 'lin')_with_PowerHeuristic2"
p714
sg152
(dp715
g8
((lp716
(F0.11000000000058208
I45
tp717
a(F4.9000000000014552
I44
tp718
a(F8.0400000000008731
I41
tp719
a(F8.4599999999991269
I37
tp720
a(F9.069999999999709
I36
tp721
a(F9.7000000000007276
I34
tp722
a(F11.759999999998399
I33
tp723
a(F14.0
I31
tp724
a(F16.979999999999563
I30
tp725
a(F20.200000000000728
I28
tp726
a(F22.650000000001455
I26
tp727
a(F27.700000000000728
I25
tp728
aF40.0
tp729
sg41
((lp730
(F0.79000000000087311
I20
tp731
aF40.0
tp732
sg70
((lp733
(F0.060000000001309672
I41
tp734
a(F4.5499999999992724
I35
tp735
a(F8.5800000000017462
I33
tp736
a(F12.56000000000131
I31
tp737
a(F13.900000000001455
I29
tp738
a(F20.369999999998981
I27
tp739
a(F33.380000000001019
I25
tp740
a(F36.159999999999854
I23
tp741
aF40.0
tp742
sg96
((lp743
(F6.9199999999982538
I134
tp744
aF40.029999999998836
tp745
sg124
((lp746
(F0.42000000000189175
I8
tp747
aF40.020000000000437
tp748
ssba(imeasure_core
ProblemSetSolution
p749
(dp750
g3
g184
sg149
g714
sg152
(dp751
g187
((lp752
F40.130000000001019
tp753
sg239
((lp754
(F3.7299999999995634
I127
tp755
aF40.0
tp756
sg289
((lp757
(F2.430000000000291
I64
tp758
aF40.090000000000146
tp759
sg345
((lp760
(F0.39999999999781721
I12
tp761
aF40.090000000000146
tp762
sg393
((lp763
(F0.11000000000058208
I25
tp764
aF40.0
tp765
ssba(imeasure_core
ProblemSetSolution
p766
(dp767
g3
g461
sg149
g714
sg152
(dp768
g464
((lp769
(F16.169999999998254
I113
tp770
aF40.029999999998836
tp771
sg512
((lp772
F41.940000000002328
tp773
sg560
((lp774
(F23.229999999999563
I19
tp775
aF40.229999999999563
tp776
sg601
((lp777
F42.009999999998399
tp778
sg649
((lp779
(F4.569999999999709
I58
tp780
aF40.119999999998981
tp781
ssba(imeasure_core
ProblemSetSolution
p782
(dp783
g3
g4
sg149
S"AnytimeBeam-w20-gf(8, 'lin')_with_PowerHeuristic2"
p784
sg152
(dp785
g8
((lp786
(F0.11000000000058208
I45
tp787
a(F2.5900000000001455
I44
tp788
a(F4.5
I39
tp789
a(F4.8099999999976717
I37
tp790
a(F5.4199999999982538
I36
tp791
a(F6.0400000000008731
I34
tp792
a(F8.1199999999989814
I33
tp793
a(F10.380000000001019
I31
tp794
a(F13.349999999998545
I30
tp795
a(F16.549999999999272
I28
tp796
a(F19.0
I26
tp797
a(F24.049999999999272
I25
tp798
a(F30.549999999999272
I24
tp799
aF40.0
tp800
sg41
((lp801
(F0.79000000000087311
I20
tp802
aF40.029999999998836
tp803
sg70
((lp804
(F0.069999999999708962
I41
tp805
a(F2.9399999999986903
I35
tp806
a(F5.2200000000011642
I33
tp807
a(F6.5
I31
tp808
a(F7.819999999999709
I29
tp809
a(F10.159999999999854
I27
tp810
a(F16.720000000001164
I25
tp811
a(F19.5
I23
tp812
aF40.0
tp813
sg96
((lp814
(F6.930000000000291
I134
tp815
aF40.130000000001019
tp816
sg124
((lp817
(F0.40999999999985448
I8
tp818
aF40.040000000000873
tp819
ssba(imeasure_core
ProblemSetSolution
p820
(dp821
g3
g184
sg149
g784
sg152
(dp822
g187
((lp823
F40.069999999999709
tp824
sg239
((lp825
(F3.7299999999995634
I127
tp826
aF40.0
tp827
sg289
((lp828
(F2.4399999999986903
I64
tp829
aF40.159999999999854
tp830
sg345
((lp831
(F0.40000000000145519
I12
tp832
aF40.209999999999127
tp833
sg393
((lp834
(F0.11000000000058208
I25
tp835
aF40.010000000002037
tp836
ssba(imeasure_core
ProblemSetSolution
p837
(dp838
g3
g461
sg149
g784
sg152
(dp839
g464
((lp840
(F16.090000000000146
I113
tp841
aF40.030000000002474
tp842
sg512
((lp843
F41.849999999998545
tp844
sg560
((lp845
(F23.139999999999418
I19
tp846
aF40.150000000001455
tp847
sg601
((lp848
F41.809999999997672
tp849
sg649
((lp850
(F4.5499999999992724
I58
tp851
aF40.040000000000873
tp852
ssba(imeasure_core
ProblemSetSolution
p853
(dp854
g3
g4
sg149
S"AnytimeBeam-w20-gf(16, 'lin')_with_PowerHeuristic2"
p855
sg152
(dp856
g8
((lp857
(F0.11999999999898137
I45
tp858
a(F1.4399999999986903
I44
tp859
a(F2.7400000000016007
I37
tp860
a(F3.3499999999985448
I36
tp861
a(F3.9599999999991269
I34
tp862
a(F6.0499999999992724
I33
tp863
a(F8.2900000000008731
I31
tp864
a(F11.259999999998399
I30
tp865
a(F14.459999999999127
I28
tp866
a(F16.909999999999854
I26
tp867
a(F21.970000000001164
I25
tp868
a(F28.459999999999127
I24
tp869
aF40.0
tp870
sg41
((lp871
(F0.79000000000087311
I20
tp872
aF40.020000000000437
tp873
sg70
((lp874
(F0.060000000001309672
I41
tp875
a(F2.3499999999985448
I35
tp876
a(F3.4899999999979627
I33
tp877
a(F4.7700000000004366
I31
tp878
a(F6.0900000000001455
I29
tp879
a(F8.4599999999991269
I27
tp880
a(F11.739999999997963
I25
tp881
a(F14.509999999998399
I23
tp882
aF40.0
tp883
sg96
((lp884
(F6.8899999999994179
I134
tp885
aF40.009999999998399
tp886
sg124
((lp887
(F0.40999999999985448
I8
tp888
aF40.139999999999418
tp889
ssba(imeasure_core
ProblemSetSolution
p890
(dp891
g3
g184
sg149
g855
sg152
(dp892
g187
((lp893
F40.31000000000131
tp894
sg239
((lp895
(F3.7700000000004366
I127
tp896
aF40.010000000002037
tp897
sg289
((lp898
(F2.4399999999986903
I64
tp899
aF40.009999999998399
tp900
sg345
((lp901
(F0.40000000000145519
I12
tp902
aF40.029999999998836
tp903
sg393
((lp904
(F0.12000000000261934
I25
tp905
aF40.0
tp906
ssba(imeasure_core
ProblemSetSolution
p907
(dp908
g3
g461
sg149
g855
sg152
(dp909
g464
((lp910
(F16.139999999999418
I113
tp911
aF40.06000000000131
tp912
sg512
((lp913
F42.009999999998399
tp914
sg560
((lp915
(F23.25
I19
tp916
aF40.380000000001019
tp917
sg601
((lp918
F41.959999999999127
tp919
sg649
((lp920
(F4.6000000000021828
I58
tp921
aF40.010000000002037
tp922
ssba(imeasure_core
ProblemSetSolution
p923
(dp924
g3
g4
sg149
S"AnytimeBeam-w20-gf(2, 'lin')_with_LinearHeuristic"
p925
sg152
(dp926
g8
((lp927
(F0.010000000002037268
I24
tp928
aF40.0
tp929
sg41
((lp930
F40.139999999999418
tp931
sg70
((lp932
(F0.020000000000436557
I23
tp933
aF40.0
tp934
sg96
((lp935
F40.05000000000291
tp936
sg124
((lp937
(F0.3599999999969441
I4
tp938
aF40.129999999997381
tp939
ssba(imeasure_core
ProblemSetSolution
p940
(dp941
g3
g184
sg149
g925
sg152
(dp942
g187
((lp943
F40.059999999997672
tp944
sg239
((lp945
(F32.590000000000146
I391
tp946
aF40.069999999999709
tp947
sg289
((lp948
F40.070000000003347
tp949
sg345
((lp950
F40.179999999996653
tp951
sg393
((lp952
(F0.69000000000232831
I60
tp953
aF40.0
tp954
ssba(imeasure_core
ProblemSetSolution
p955
(dp956
g3
g461
sg149
g925
sg152
(dp957
g464
((lp958
F40.110000000000582
tp959
sg512
((lp960
F44.209999999999127
tp961
sg560
((lp962
(F16.470000000001164
I10
tp963
aF40.959999999999127
tp964
sg601
((lp965
F45.850000000002183
tp966
sg649
((lp967
F40.099999999998545
tp968
ssba(imeasure_core
ProblemSetSolution
p969
(dp970
g3
g4
sg149
S"AnytimeBeam-w20-gf(4, 'lin')_with_LinearHeuristic"
p971
sg152
(dp972
g8
((lp973
(F0.0099999999983992893
I24
tp974
aF40.0
tp975
sg41
((lp976
F40.069999999999709
tp977
sg70
((lp978
(F0.020000000000436557
I23
tp979
aF40.0
tp980
sg96
((lp981
F40.029999999998836
tp982
sg124
((lp983
(F0.36000000000058208
I4
tp984
aF40.05000000000291
tp985
ssba(imeasure_core
ProblemSetSolution
p986
(dp987
g3
g184
sg149
g971
sg152
(dp988
g187
((lp989
F40.049999999999272
tp990
sg239
((lp991
(F32.620000000002619
I391
tp992
aF40.0
tp993
sg289
((lp994
F40.130000000001019
tp995
sg345
((lp996
F40.270000000000437
tp997
sg393
((lp998
(F0.68999999999869033
I60
tp999
aF40.009999999998399
tp1000
ssba(imeasure_core
ProblemSetSolution
p1001
(dp1002
g3
g461
sg149
g971
sg152
(dp1003
g464
((lp1004
F40.119999999998981
tp1005
sg512
((lp1006
F43.990000000001601
tp1007
sg560
((lp1008
(F16.389999999999418
I10
tp1009
aF40.930000000000291
tp1010
sg601
((lp1011
F45.909999999996217
tp1012
sg649
((lp1013
F40.020000000004075
tp1014
ssba(imeasure_core
ProblemSetSolution
p1015
(dp1016
g3
g4
sg149
S"AnytimeBeam-w20-gf(8, 'lin')_with_LinearHeuristic"
p1017
sg152
(dp1018
g8
((lp1019
(F0.019999999996798579
I24
tp1020
aF40.0
tp1021
sg41
((lp1022
F40.229999999995925
tp1023
sg70
((lp1024
(F0.010000000002037268
I23
tp1025
aF40.0
tp1026
sg96
((lp1027
F40.180000000000291
tp1028
sg124
((lp1029
(F0.36000000000058208
I4
tp1030
aF40.040000000000873
tp1031
ssba(imeasure_core
ProblemSetSolution
p1032
(dp1033
g3
g184
sg149
g1017
sg152
(dp1034
g187
((lp1035
F40.080000000001746
tp1036
sg239
((lp1037
(F32.619999999995343
I391
tp1038
aF40.069999999999709
tp1039
sg289
((lp1040
F40.089999999996508
tp1041
sg345
((lp1042
F40.139999999999418
tp1043
sg393
((lp1044
(F0.68000000000029104
I60
tp1045
aF40.040000000000873
tp1046
ssba(imeasure_core
ProblemSetSolution
p1047
(dp1048
g3
g461
sg149
g1017
sg152
(dp1049
g464
((lp1050
F40.139999999999418
tp1051
sg512
((lp1052
F44.0
tp1053
sg560
((lp1054
(F16.459999999999127
I10
tp1055
aF41.139999999999418
tp1056
sg601
((lp1057
F46.099999999998545
tp1058
sg649
((lp1059
F40.180000000000291
tp1060
ssba(imeasure_core
ProblemSetSolution
p1061
(dp1062
g3
g4
sg149
S"AnytimeBeam-w20-gf(16, 'lin')_with_LinearHeuristic"
p1063
sg152
(dp1064
g8
((lp1065
(F0.020000000004074536
I24
tp1066
aF40.0
tp1067
sg41
((lp1068
F40.05000000000291
tp1069
sg70
((lp1070
(F0.010000000002037268
I23
tp1071
aF40.0
tp1072
sg96
((lp1073
F40.069999999999709
tp1074
sg124
((lp1075
(F0.37000000000261934
I4
tp1076
aF40.330000000001746
tp1077
ssba(imeasure_core
ProblemSetSolution
p1078
(dp1079
g3
g184
sg149
g1063
sg152
(dp1080
g187
((lp1081
F40.009999999994761
tp1082
sg239
((lp1083
(F32.580000000001746
I391
tp1084
aF40.020000000004075
tp1085
sg289
((lp1086
F40.119999999995343
tp1087
sg345
((lp1088
F40.180000000000291
tp1089
sg393
((lp1090
(F0.68000000000029104
I60
tp1091
aF40.020000000004075
tp1092
ssba(imeasure_core
ProblemSetSolution
p1093
(dp1094
g3
g461
sg149
g1063
sg152
(dp1095
g464
((lp1096
F40.060000000004948
tp1097
sg512
((lp1098
F44.180000000000291
tp1099
sg560
((lp1100
(F16.459999999999127
I10
tp1101
aF40.680000000000291
tp1102
sg601
((lp1103
F45.970000000001164
tp1104
sg649
((lp1105
F40.229999999995925
tp1106
ssba.