(lp0
(imeasure_core
ProblemSetSolution
p1
(dp2
S'roomset'
p3
(imeasure_core
RoomSet
p4
(dp5
S'rooms'
p6
(dp7
(iproblems
RoomID
p8
(dp9
S'dusts'
p10
I8
sS'obstacles'
p11
(I5
I7
tp12
sS'robots'
p13
I5
sS'height'
p14
I9
sS'width'
p15
I10
sS'seed'
p16
I5594871498841892311
sb(imulti_robot_problem
MultiRobotState
p17
(dp18
S'obstacle_locations'
p19
c__builtin__
frozenset
p20
((lp21
(I4
I7
tp22
a(I3
I6
tp23
a(I5
I1
tp24
a(I1
I0
tp25
ag12
a(I8
I3
tp26
a(I5
I8
tp27
atp28
Rp29
sg15
I10
sS'dirt_locations'
p30
g20
((lp31
(I0
I1
tp32
a(I9
I0
tp33
a(I8
I2
tp34
a(I6
I0
tp35
a(I1
I1
tp36
a(I1
I5
tp37
a(I9
I4
tp38
a(I2
I4
tp39
atp40
Rp41
sg13
((I7
I6
tp42
(I8
I4
tp43
(I5
I4
tp44
(I7
I2
tp45
(I7
I8
tp46
tp47
sg14
I9
sbs(iproblems
RoomID
p48
(dp49
g10
I6
sg11
(I4
I4
tp50
sg13
I5
sg14
I7
sg15
I8
sg16
I8833747186876682921
sb(imulti_robot_problem
MultiRobotState
p51
(dp52
g19
g20
((lp53
(I2
I2
tp54
ag50
a(I3
I4
tp55
a(I3
I3
tp56
a(I3
I5
tp57
atp58
Rp59
sg15
I8
sg30
g20
((lp60
(I6
I4
tp61
a(I5
I4
tp62
a(I1
I3
tp63
a(I5
I1
tp64
a(I0
I3
tp65
a(I5
I3
tp66
atp67
Rp68
sg13
((I2
I1
tp69
(I6
I1
tp70
(I3
I1
tp71
(I5
I0
tp72
(I7
I3
tp73
tp74
sg14
I7
sbs(iproblems
RoomID
p75
(dp76
g10
I7
sg11
(I5
I2
tp77
sg13
I5
sg14
I8
sg15
I9
sg16
I365562409358139953
sb(imulti_robot_problem
MultiRobotState
p78
(dp79
g19
g20
((lp80
(I6
I4
tp81
a(I5
I5
tp82
a(I2
I1
tp83
a(I3
I7
tp84
a(I2
I5
tp85
ag77
a(I0
I2
tp86
a(I5
I3
tp87
atp88
Rp89
sg15
I9
sg30
g20
((lp90
(I2
I0
tp91
a(I1
I6
tp92
a(I8
I2
tp93
a(I4
I5
tp94
a(I8
I6
tp95
a(I5
I7
tp96
a(I3
I4
tp97
atp98
Rp99
sg13
((I4
I2
tp100
(I8
I3
tp101
(I6
I3
tp102
(I2
I4
tp103
(I6
I7
tp104
tp105
sg14
I8
sbs(iproblems
RoomID
p106
(dp107
g10
I5
sg11
(I6
I4
tp108
sg13
I2
sg14
I8
sg15
I10
sg16
I1662056218554549082
sb(imulti_robot_problem
MultiRobotState
p109
(dp110
g19
g20
((lp111
g108
a(I4
I6
tp112
a(I3
I6
tp113
a(I4
I4
tp114
a(I9
I6
tp115
a(I5
I5
tp116
atp117
Rp118
sg15
I10
sg30
g20
((lp119
(I4
I5
tp120
a(I8
I3
tp121
a(I8
I4
tp122
a(I7
I7
tp123
a(I3
I3
tp124
atp125
Rp126
sg13
((I9
I3
tp127
(I2
I0
tp128
tp129
sg14
I8
sbs(iproblems
RoomID
p130
(dp131
g10
I6
sg11
(I2
I3
tp132
sg13
I1
sg14
I8
sg15
I8
sg16
I1085536589165212248
sb(imulti_robot_problem
MultiRobotState
p133
(dp134
g19
g20
((lp135
(I1
I5
tp136
ag132
a(I1
I4
tp137
a(I1
I6
tp138
a(I0
I7
tp139
a(I4
I0
tp140
atp141
Rp142
sg15
I8
sg30
g20
((lp143
(I0
I1
tp144
a(I1
I2
tp145
a(I7
I3
tp146
a(I5
I1
tp147
a(I6
I0
tp148
a(I2
I1
tp149
atp150
Rp151
sg13
((I3
I2
tp152
tp153
sg14
I8
sbssS'name'
p154
S'easy_roomset'
p155
sbsg154
S'LimitedTimeAStar_with_PowerHeuristic2'
p156
sS'solutions'
p157
(dp158
g8
((lp159
F14.510000000000218
tp160
sg48
((lp161
F0.61999999999989086
tp162
sg75
((lp163
F447.39000000000033
tp164
sg106
((lp165
F0.010000000000218279
tp166
sg130
((lp167
F0.059999999999490683
tp168
ssba(imeasure_core
ProblemSetSolution
p169
(dp170
g3
(imeasure_core
RoomSet
p171
(dp172
g6
(dp173
(iproblems
RoomID
p174
(dp175
g10
I8
sg11
(I9
I3
tp176
sg13
I4
sg14
I11
sg15
I12
sg16
I5594871498841892311
sb(imulti_robot_problem
MultiRobotState
p177
(dp178
g19
g20
((lp179
(I5
I9
tp180
a(I6
I9
tp181
a(I11
I9
tp182
a(I9
I1
tp183
a(I4
I8
tp184
a(I8
I0
tp185
a(I6
I0
tp186
a(I9
I9
tp187
ag176
a(I9
I4
tp188
a(I4
I2
tp189
a(I3
I7
tp190
a(I5
I8
tp191
a(I7
I9
tp192
a(I10
I8
tp193
a(I9
I0
tp194
a(I7
I0
tp195
a(I6
I8
tp196
a(I9
I2
tp197
a(I5
I7
tp198
a(I8
I10
tp199
a(I2
I0
tp200
a(I5
I0
tp201
a(I0
I9
tp202
a(I10
I0
tp203
a(I10
I2
tp204
atp205
Rp206
sg15
I12
sg30
g20
((lp207
(I2
I6
tp208
a(I11
I5
tp209
a(I6
I1
tp210
a(I11
I1
tp211
a(I2
I1
tp212
a(I8
I8
tp213
a(I0
I2
tp214
a(I3
I5
tp215
atp216
Rp217
sg13
((I9
I7
tp218
(I10
I5
tp219
(I6
I5
tp220
(I8
I3
tp221
tp222
sg14
I11
sbs(iproblems
RoomID
p223
(dp224
g10
I6
sg11
(I9
I4
tp225
sg13
I4
sg14
I9
sg15
I10
sg16
I8833747186876682921
sb(imulti_robot_problem
MultiRobotState
p226
(dp227
g19
g20
((lp228
(I4
I7
tp229
a(I4
I8
tp230
a(I4
I5
tp231
a(I2
I1
tp232
a(I7
I5
tp233
a(I2
I3
tp234
ag225
a(I2
I5
tp235
a(I6
I5
tp236
a(I3
I5
tp237
a(I2
I7
tp238
a(I8
I3
tp239
a(I5
I5
tp240
a(I3
I4
tp241
a(I7
I4
tp242
a(I5
I6
tp243
a(I8
I8
tp244
a(I3
I6
tp245
a(I4
I1
tp246
a(I1
I1
tp247
atp248
Rp249
sg15
I10
sg30
g20
((lp250
(I3
I2
tp251
a(I6
I2
tp252
a(I7
I0
tp253
a(I1
I4
tp254
a(I0
I4
tp255
a(I0
I7
tp256
atp257
Rp258
sg13
((I3
I1
tp259
(I8
I1
tp260
(I3
I3
tp261
(I4
I2
tp262
tp263
sg14
I9
sbs(iproblems
RoomID
p264
(dp265
g10
I10
sg11
(I4
I8
tp266
sg13
I3
sg14
I11
sg15
I9
sg16
I6645345695289302126
sb(imulti_robot_problem
MultiRobotState
p267
(dp268
g19
g20
((lp269
(I5
I9
tp270
a(I3
I2
tp271
a(I3
I1
tp272
ag266
a(I4
I5
tp273
a(I1
I4
tp274
a(I4
I2
tp275
a(I3
I7
tp276
a(I4
I6
tp277
a(I3
I3
tp278
a(I4
I1
tp279
a(I6
I1
tp280
a(I4
I4
tp281
a(I2
I4
tp282
a(I3
I8
tp283
a(I1
I5
tp284
a(I4
I3
tp285
a(I3
I5
tp286
a(I3
I4
tp287
a(I1
I1
tp288
a(I8
I4
tp289
atp290
Rp291
sg15
I9
sg30
g20
((lp292
(I0
I1
tp293
a(I5
I4
tp294
a(I6
I7
tp295
a(I8
I2
tp296
a(I8
I7
tp297
a(I8
I8
tp298
a(I2
I3
tp299
a(I3
I6
tp300
a(I1
I0
tp301
a(I5
I5
tp302
atp303
Rp304
sg13
((I1
I6
tp305
(I0
I9
tp306
(I0
I5
tp307
tp308
sg14
I11
sbs(iproblems
RoomID
p309
(dp310
g10
I8
sg11
(I4
I6
tp311
sg13
I3
sg14
I9
sg15
I12
sg16
I4800841617172907184
sb(imulti_robot_problem
MultiRobotState
p312
(dp313
g19
g20
((lp314
(I5
I4
tp315
ag311
a(I8
I7
tp316
a(I6
I6
tp317
a(I4
I5
tp318
a(I9
I8
tp319
a(I9
I3
tp320
a(I6
I0
tp321
a(I2
I1
tp322
a(I10
I1
tp323
a(I4
I2
tp324
a(I8
I5
tp325
a(I7
I2
tp326
a(I5
I3
tp327
a(I8
I3
tp328
a(I3
I1
tp329
a(I3
I3
tp330
a(I11
I8
tp331
a(I7
I1
tp332
a(I11
I3
tp333
a(I6
I3
tp334
a(I0
I6
tp335
a(I4
I3
tp336
a(I8
I6
tp337
a(I8
I4
tp338
a(I9
I7
tp339
atp340
Rp341
sg15
I12
sg30
g20
((lp342
(I11
I4
tp343
a(I8
I2
tp344
a(I10
I7
tp345
a(I7
I6
tp346
a(I1
I4
tp347
a(I11
I0
tp348
a(I9
I2
tp349
a(I0
I2
tp350
atp351
Rp352
sg13
((I9
I1
tp353
(I0
I4
tp354
(I7
I4
tp355
tp356
sg14
I9
sbs(iproblems
RoomID
p357
(dp358
g10
I7
sg11
(I8
I4
tp359
sg13
I4
sg14
I10
sg15
I11
sg16
I365562409358139953
sb(imulti_robot_problem
MultiRobotState
p360
(dp361
g19
g20
((lp362
(I7
I3
tp363
a(I8
I7
tp364
a(I4
I8
tp365
a(I2
I8
tp366
a(I5
I9
tp367
a(I6
I2
tp368
a(I1
I6
tp369
a(I9
I4
tp370
a(I6
I4
tp371
a(I9
I6
tp372
a(I6
I5
tp373
a(I10
I8
tp374
a(I10
I5
tp375
a(I6
I7
tp376
a(I10
I7
tp377
a(I7
I6
tp378
a(I3
I1
tp379
a(I0
I5
tp380
a(I3
I8
tp381
a(I7
I5
tp382
a(I8
I6
tp383
ag359
a(I5
I2
tp384
a(I6
I1
tp385
a(I9
I7
tp386
atp387
Rp388
sg15
I11
sg30
g20
((lp389
(I5
I6
tp390
a(I6
I9
tp391
a(I1
I7
tp392
a(I4
I5
tp393
a(I10
I3
tp394
a(I0
I2
tp395
a(I2
I1
tp396
atp397
Rp398
sg13
((I10
I4
tp399
(I7
I4
tp400
(I3
I6
tp401
(I8
I9
tp402
tp403
sg14
I10
sbssg154
S'mild_roomset'
p404
sbsg154
g156
sg157
(dp405
g174
((lp406
F0.67000000000007276
tp407
sg223
((lp408
F549.65000000000055
tp409
sg264
((lp410
F13.600000000000364
tp411
sg309
((lp412
F0.099999999998544808
tp413
sg357
((lp414
F0.15999999999985448
tp415
ssba(imeasure_core
ProblemSetSolution
p416
(dp417
g3
(imeasure_core
RoomSet
p418
(dp419
g6
(dp420
(iproblems
RoomID
p421
(dp422
g10
I13
sg11
(I9
I8
tp423
sg13
I7
sg14
I12
sg15
I13
sg16
I5594871498841892311
sb(imulti_robot_problem
MultiRobotState
p424
(dp425
g19
g20
((lp426
(I5
I9
tp427
a(I6
I9
tp428
a(I1
I3
tp429
a(I10
I4
tp430
a(I4
I8
tp431
ag423
a(I1
I4
tp432
a(I11
I3
tp433
a(I8
I6
tp434
a(I9
I6
tp435
a(I5
I5
tp436
a(I9
I5
tp437
a(I6
I7
tp438
a(I6
I8
tp439
a(I6
I10
tp440
a(I8
I10
tp441
a(I5
I0
tp442
a(I10
I0
tp443
a(I7
I9
tp444
a(I9
I7
tp445
atp446
Rp447
sg15
I13
sg30
g20
((lp448
(I2
I7
tp449
a(I10
I5
tp450
a(I11
I5
tp451
a(I6
I1
tp452
a(I8
I0
tp453
a(I2
I1
tp454
a(I2
I0
tp455
a(I0
I10
tp456
a(I7
I10
tp457
a(I12
I10
tp458
a(I5
I2
tp459
a(I0
I2
tp460
a(I3
I5
tp461
atp462
Rp463
sg13
((I10
I8
tp464
(I11
I6
tp465
(I7
I5
tp466
(I9
I3
tp467
(I9
I11
tp468
(I12
I1
tp469
(I9
I9
tp470
tp471
sg14
I12
sbs(iproblems
RoomID
p472
(dp473
g10
I11
sg11
(I8
I7
tp474
sg13
I7
sg14
I10
sg15
I11
sg16
I8833747186876682921
sb(imulti_robot_problem
MultiRobotState
p475
(dp476
g19
g20
((lp477
(I5
I7
tp478
a(I4
I8
tp479
a(I4
I5
tp480
a(I2
I1
tp481
ag474
a(I5
I1
tp482
a(I5
I5
tp483
a(I6
I7
tp484
a(I4
I6
tp485
a(I8
I1
tp486
a(I4
I4
tp487
a(I6
I3
tp488
a(I8
I8
tp489
a(I3
I3
tp490
a(I7
I8
tp491
a(I10
I2
tp492
atp493
Rp494
sg15
I11
sg30
g20
((lp495
(I10
I5
tp496
a(I7
I6
tp497
a(I4
I7
tp498
a(I1
I4
tp499
a(I9
I9
tp500
a(I3
I8
tp501
a(I0
I5
tp502
a(I8
I6
tp503
a(I2
I5
tp504
a(I0
I8
tp505
a(I7
I2
tp506
atp507
Rp508
sg13
((I3
I1
tp509
(I9
I1
tp510
(I5
I2
tp511
(I4
I3
tp512
(I8
I0
tp513
(I10
I4
tp514
(I8
I5
tp515
tp516
sg14
I10
sbs(iproblems
RoomID
p517
(dp518
g10
I13
sg11
(I3
I8
tp519
sg13
I5
sg14
I10
sg15
I10
sg16
I5338040351619750409
sb(imulti_robot_problem
MultiRobotState
p520
(dp521
g19
g20
((lp522
(I4
I7
tp523
a(I2
I6
tp524
a(I9
I1
tp525
a(I2
I8
tp526
a(I6
I1
tp527
a(I1
I4
tp528
ag519
a(I1
I6
tp529
a(I4
I3
tp530
a(I1
I7
tp531
a(I2
I5
tp532
a(I9
I7
tp533
a(I2
I4
tp534
a(I6
I8
tp535
atp536
Rp537
sg15
I10
sg30
g20
((lp538
(I6
I9
tp539
a(I1
I3
tp540
a(I4
I9
tp541
a(I4
I6
tp542
a(I6
I6
tp543
a(I8
I3
tp544
a(I2
I1
tp545
a(I8
I9
tp546
a(I1
I8
tp547
a(I7
I5
tp548
a(I3
I6
tp549
a(I9
I6
tp550
a(I4
I0
tp551
atp552
Rp553
sg13
((I2
I0
tp554
(I3
I5
tp555
(I5
I0
tp556
(I5
I2
tp557
(I4
I5
tp558
tp559
sg14
I10
sbs(iproblems
RoomID
p560
(dp561
g10
I12
sg11
(I0
I5
tp562
sg13
I7
sg14
I11
sg15
I12
sg16
I365562409358139953
sb(imulti_robot_problem
MultiRobotState
p563
(dp564
g19
g20
((lp565
(I1
I3
tp566
a(I6
I6
tp567
a(I0
I4
tp568
a(I7
I5
tp569
ag562
a(I8
I7
tp570
a(I4
I2
tp571
a(I2
I9
tp572
a(I10
I7
tp573
a(I7
I8
tp574
a(I7
I6
tp575
a(I3
I1
tp576
a(I4
I8
tp577
a(I3
I9
tp578
a(I2
I2
tp579
a(I8
I6
tp580
a(I5
I2
tp581
a(I11
I6
tp582
a(I8
I4
tp583
atp584
Rp585
sg15
I12
sg30
g20
((lp586
(I3
I2
tp587
a(I11
I9
tp588
a(I4
I9
tp589
a(I10
I4
tp590
a(I5
I7
tp591
a(I2
I1
tp592
a(I0
I6
tp593
a(I1
I6
tp594
a(I7
I10
tp595
a(I3
I7
tp596
a(I5
I10
tp597
a(I0
I2
tp598
atp599
Rp600
sg13
((I6
I3
tp601
(I10
I5
tp602
(I3
I6
tp603
(I8
I10
tp604
(I4
I6
tp605
(I11
I3
tp606
(I1
I8
tp607
tp608
sg14
I11
sbs(iproblems
RoomID
p609
(dp610
g10
I11
sg11
(I4
I6
tp611
sg13
I5
sg14
I11
sg15
I11
sg16
I1085536589165212248
sb(imulti_robot_problem
MultiRobotState
p612
(dp613
g19
g20
((lp614
(I10
I5
tp615
a(I2
I6
tp616
ag611
a(I9
I3
tp617
a(I3
I2
tp618
a(I9
I9
tp619
a(I1
I8
tp620
a(I1
I9
tp621
a(I1
I7
tp622
a(I3
I7
tp623
a(I6
I9
tp624
a(I5
I8
tp625
a(I3
I3
tp626
atp627
Rp628
sg15
I11
sg30
g20
((lp629
(I0
I1
tp630
a(I4
I9
tp631
a(I10
I4
tp632
a(I10
I7
tp633
a(I6
I0
tp634
a(I0
I7
tp635
a(I2
I3
tp636
a(I1
I4
tp637
a(I2
I2
tp638
a(I10
I0
tp639
a(I0
I10
tp640
atp641
Rp642
sg13
((I5
I3
tp643
(I0
I2
tp644
(I3
I1
tp645
(I7
I1
tp646
(I9
I0
tp647
tp648
sg14
I11
sbssg154
S'heavy_roomset'
p649
sbsg154
g156
sg157
(dp650
g421
((lp651
F280.88000000000102
tp652
sg472
((lp653
F25.840000000000146
tp654
sg517
((lp655
F470.04999999999927
tp656
sg560
((lp657
F450.39999999999964
tp658
sg609
((lp659
F2.6900000000005093
tp660
ssba.