(lp0
(imeasure_core
ProblemSetSolution
p1
(dp2
S'roomset'
p3
(imeasure_core
RoomSet
p4
(dp5
S'rooms'
p6
(dp7
(iproblems
RoomID
p8
(dp9
S'width'
p10
I9
sS'dusts'
p11
I8
sS'seed'
p12
I3433768247134474666
sS'obstacles'
p13
(I1
I6
tp14
sS'robots'
p15
I4
sS'height'
p16
I10
sb(imulti_robot_problem
MultiRobotState
p17
(dp18
S'obstacle_locations'
p19
c__builtin__
frozenset
p20
((lp21
(I4
I9
tp22
a(I4
I6
tp23
a(I0
I7
tp24
ag14
a(I0
I9
tp25
a(I8
I6
tp26
a(I0
I8
tp27
a(I3
I3
tp28
atp29
Rp30
sg10
I9
sS'dirt_locations'
p31
g20
((lp32
(I5
I4
tp33
a(I3
I2
tp34
a(I7
I7
tp35
a(I1
I9
tp36
a(I8
I7
tp37
a(I1
I1
tp38
a(I5
I8
tp39
a(I7
I9
tp40
atp41
Rp42
sg15
((I5
I9
tp43
(I5
I5
tp44
(I6
I9
tp45
(I2
I0
tp46
tp47
sg16
I10
sbs(iproblems
RoomID
p48
(dp49
g10
I9
sg11
I7
sg12
I6241004153072892496
sg13
(I2
I2
tp50
sg15
I3
sg16
I9
sb(imulti_robot_problem
MultiRobotState
p51
(dp52
g19
g20
((lp53
(I7
I3
tp54
a(I3
I2
tp55
a(I7
I1
tp56
a(I7
I7
tp57
ag50
a(I5
I1
tp58
a(I4
I1
tp59
atp60
Rp61
sg10
I9
sg31
g20
((lp62
(I4
I8
tp63
a(I5
I7
tp64
a(I6
I0
tp65
a(I3
I8
tp66
a(I1
I5
tp67
a(I3
I7
tp68
a(I3
I4
tp69
atp70
Rp71
sg15
((I6
I5
tp72
(I4
I3
tp73
(I3
I5
tp74
tp75
sg16
I9
sbs(iproblems
RoomID
p76
(dp77
g10
I10
sg11
I10
sg12
I3125140389427113411
sg13
(I6
I4
tp78
sg15
I4
sg16
I7
sb(imulti_robot_problem
MultiRobotState
p79
(dp80
g19
g20
((lp81
(I6
I3
tp82
a(I5
I1
tp83
a(I5
I2
tp84
ag78
atp85
Rp86
sg10
I10
sg31
g20
((lp87
(I1
I2
tp88
a(I7
I3
tp89
a(I0
I0
tp90
a(I3
I3
tp91
a(I6
I2
tp92
a(I1
I6
tp93
a(I9
I4
tp94
a(I2
I5
tp95
a(I0
I2
tp96
a(I7
I2
tp97
atp98
Rp99
sg15
((I9
I0
tp100
(I6
I5
tp101
(I1
I4
tp102
(I1
I3
tp103
tp104
sg16
I7
sbs(iproblems
RoomID
p105
(dp106
g10
I9
sg11
I6
sg12
I8554152435637441414
sg13
(I7
I4
tp107
sg15
I4
sg16
I8
sb(imulti_robot_problem
MultiRobotState
p108
(dp109
g19
g20
((lp110
(I6
I6
tp111
a(I5
I7
tp112
ag107
a(I2
I0
tp113
a(I7
I5
tp114
a(I3
I7
tp115
a(I0
I3
tp116
a(I4
I1
tp117
atp118
Rp119
sg10
I9
sg31
g20
((lp120
(I7
I3
tp121
a(I1
I6
tp122
a(I5
I1
tp123
a(I8
I6
tp124
a(I0
I2
tp125
a(I4
I0
tp126
atp127
Rp128
sg15
((I5
I3
tp129
(I6
I2
tp130
(I6
I3
tp131
(I6
I4
tp132
tp133
sg16
I8
sbs(iproblems
RoomID
p134
(dp135
g10
I8
sg11
I9
sg12
I6161655336973386967
sg13
(I4
I3
tp136
sg15
I3
sg16
I9
sb(imulti_robot_problem
MultiRobotState
p137
(dp138
g19
g20
((lp139
(I7
I3
tp140
a(I5
I4
tp141
a(I6
I6
tp142
a(I2
I1
tp143
a(I6
I3
tp144
ag136
a(I5
I2
tp145
atp146
Rp147
sg10
I8
sg31
g20
((lp148
(I6
I4
tp149
a(I6
I8
tp150
a(I2
I0
tp151
a(I5
I7
tp152
a(I1
I4
tp153
a(I1
I5
tp154
a(I0
I5
tp155
a(I2
I5
tp156
a(I4
I1
tp157
atp158
Rp159
sg15
((I3
I5
tp160
(I4
I6
tp161
(I4
I5
tp162
tp163
sg16
I9
sbssS'name'
p164
S'easy_roomset'
p165
sbsS'name'
p166
S"AnytimeBeam-w20-gf(2, 'lin')_with_PowerHeuristic2"
p167
sS'solutions'
p168
(dp169
g8
((lp170
(F0.41999999999825377
I10
tp171
aF40.110000000000582
tp172
sg48
((lp173
(F0.099999999998544808
I8
tp174
aF40.059999999997672
tp175
sg76
((lp176
(F0.56999999999970896
I13
tp177
aF40.010000000002037
tp178
sg105
((lp179
(F0.27999999999883585
I8
tp180
aF40.080000000001746
tp181
sg134
((lp182
(F0.70999999999912689
I48
tp183
aF40.019999999996799
tp184
ssba(imeasure_core
ProblemSetSolution
p185
(dp186
g3
(imeasure_core
RoomSet
p187
(dp188
S'rooms'
p189
(dp190
(iproblems
RoomID
p191
(dp192
S'width'
p193
I9
sS'dusts'
p194
I10
sS'seed'
p195
I4927760411464392432
sS'obstacles'
p196
(I1
I6
tp197
sS'robots'
p198
I3
sS'height'
p199
I12
sb(imulti_robot_problem
MultiRobotState
p200
(dp201
S'obstacle_locations'
p202
g20
((lp203
(I5
I9
tp204
a(I1
I3
tp205
a(I7
I7
tp206
ag197
a(I3
I7
tp207
a(I2
I5
tp208
a(I2
I9
tp209
a(I3
I10
tp210
a(I6
I10
tp211
a(I3
I6
tp212
a(I2
I2
tp213
a(I4
I5
tp214
a(I6
I0
tp215
a(I3
I9
tp216
a(I2
I3
tp217
a(I8
I7
tp218
a(I7
I9
tp219
a(I4
I6
tp220
a(I3
I1
tp221
a(I2
I11
tp222
a(I3
I8
tp223
a(I0
I6
tp224
a(I3
I4
tp225
a(I7
I6
tp226
atp227
Rp228
sg193
I9
sS'dirt_locations'
p229
g20
((lp230
(I1
I2
tp231
a(I6
I4
tp232
a(I6
I9
tp233
a(I8
I2
tp234
a(I8
I0
tp235
a(I0
I9
tp236
a(I1
I10
tp237
a(I1
I0
tp238
a(I0
I2
tp239
a(I4
I11
tp240
atp241
Rp242
sg198
((I1
I11
tp243
(I0
I11
tp244
(I7
I5
tp245
tp246
sg199
I12
sbs(iproblems
RoomID
p247
(dp248
g193
I11
sg194
I8
sg195
I3433768247134474666
sg196
(I1
I11
tp249
sg198
I4
sg199
I12
sb(imulti_robot_problem
MultiRobotState
p250
(dp251
g202
g20
((lp252
(I5
I0
tp253
a(I4
I8
tp254
a(I2
I8
tp255
a(I10
I6
tp256
a(I0
I10
tp257
a(I9
I4
tp258
a(I3
I7
tp259
ag249
a(I10
I3
tp260
a(I5
I8
tp261
a(I6
I7
tp262
a(I2
I9
tp263
a(I0
I11
tp264
a(I3
I6
tp265
a(I10
I4
tp266
a(I4
I5
tp267
a(I9
I3
tp268
a(I2
I10
tp269
a(I2
I3
tp270
a(I8
I7
tp271
a(I4
I9
tp272
a(I9
I6
tp273
a(I4
I11
tp274
a(I2
I7
tp275
a(I10
I5
tp276
a(I3
I8
tp277
a(I1
I8
tp278
a(I8
I8
tp279
a(I0
I9
tp280
a(I7
I8
tp281
atp282
Rp283
sg193
I11
sg229
g20
((lp284
(I4
I3
tp285
a(I5
I11
tp286
a(I9
I8
tp287
a(I2
I11
tp288
a(I9
I11
tp289
a(I7
I10
tp290
a(I1
I1
tp291
a(I6
I5
tp292
atp293
Rp294
sg198
((I7
I11
tp295
(I7
I7
tp296
(I2
I0
tp297
(I10
I9
tp298
tp299
sg199
I12
sbs(iproblems
RoomID
p300
(dp301
g193
I11
sg194
I6
sg195
I8554152435637441414
sg196
(I5
I4
tp302
sg198
I4
sg199
I10
sb(imulti_robot_problem
MultiRobotState
p303
(dp304
g202
g20
((lp305
(I2
I8
tp306
a(I7
I7
tp307
a(I0
I7
tp308
a(I6
I2
tp309
a(I3
I7
tp310
a(I5
I1
tp311
a(I0
I3
tp312
a(I8
I5
tp313
a(I4
I9
tp314
a(I6
I3
tp315
a(I3
I6
tp316
a(I8
I6
tp317
a(I10
I9
tp318
a(I6
I4
tp319
ag302
a(I4
I5
tp320
a(I9
I3
tp321
a(I7
I5
tp322
a(I2
I1
tp323
a(I5
I3
tp324
a(I8
I3
tp325
a(I7
I0
tp326
a(I6
I8
tp327
a(I3
I8
tp328
a(I7
I8
tp329
atp330
Rp331
sg193
I11
sg229
g20
((lp332
(I1
I3
tp333
a(I9
I4
tp334
a(I3
I0
tp335
a(I5
I0
tp336
a(I4
I2
tp337
a(I7
I2
tp338
atp339
Rp340
sg198
((I8
I2
tp341
(I8
I4
tp342
(I9
I7
tp343
(I0
I2
tp344
tp345
sg199
I10
sbs(iproblems
RoomID
p346
(dp347
g193
I11
sg194
I7
sg195
I6241004153072892496
sg196
(I10
I3
tp348
sg198
I3
sg199
I11
sb(imulti_robot_problem
MultiRobotState
p349
(dp350
g202
g20
((lp351
(I9
I8
tp352
a(I7
I7
tp353
a(I8
I9
tp354
a(I6
I2
tp355
a(I9
I4
tp356
a(I5
I1
tp357
a(I0
I3
tp358
a(I8
I5
tp359
a(I1
I2
tp360
a(I5
I5
tp361
a(I10
I7
tp362
ag348
a(I8
I6
tp363
a(I3
I2
tp364
a(I0
I0
tp365
a(I2
I3
tp366
a(I4
I2
tp367
a(I6
I1
tp368
a(I1
I8
tp369
a(I8
I8
tp370
a(I9
I5
tp371
a(I7
I8
tp372
a(I2
I4
tp373
atp374
Rp375
sg193
I11
sg229
g20
((lp376
(I4
I10
tp377
a(I6
I9
tp378
a(I4
I9
tp379
a(I9
I1
tp380
a(I3
I10
tp381
a(I8
I0
tp382
a(I5
I10
tp383
atp384
Rp385
sg198
((I5
I4
tp386
(I4
I6
tp387
(I1
I6
tp388
tp389
sg199
I11
sbs(iproblems
RoomID
p390
(dp391
g193
I12
sg194
I10
sg195
I3125140389427113411
sg196
(I5
I4
tp392
sg198
I4
sg199
I9
sb(imulti_robot_problem
MultiRobotState
p393
(dp394
g202
g20
((lp395
(I7
I3
tp396
a(I4
I7
tp397
a(I6
I6
tp398
a(I5
I6
tp399
a(I6
I2
tp400
a(I3
I7
tp401
a(I5
I1
tp402
a(I2
I5
tp403
a(I6
I7
tp404
a(I3
I3
tp405
a(I10
I7
tp406
a(I8
I6
tp407
a(I5
I3
tp408
a(I6
I4
tp409
ag392
a(I2
I6
tp410
a(I1
I4
tp411
a(I10
I1
tp412
a(I6
I5
tp413
a(I5
I5
tp414
a(I2
I7
tp415
a(I6
I1
tp416
a(I7
I4
tp417
a(I9
I5
tp418
a(I5
I2
tp419
a(I8
I4
tp420
atp421
Rp422
sg193
I12
sg229
g20
((lp423
(I0
I0
tp424
a(I11
I4
tp425
a(I8
I2
tp426
a(I3
I0
tp427
a(I6
I0
tp428
a(I1
I8
tp429
a(I2
I3
tp430
a(I0
I3
tp431
a(I11
I6
tp432
a(I3
I5
tp433
atp434
Rp435
sg198
((I11
I0
tp436
(I7
I7
tp437
(I1
I5
tp438
(I2
I4
tp439
tp440
sg199
I9
sbssS'name'
p441
S'mild_roomset'
p442
sbsg166
g167
sg168
(dp443
g191
((lp444
F40.010000000002037
tp445
sg247
((lp446
(F1.0299999999988358
I30
tp447
aF40.099999999998545
tp448
sg300
((lp449
(F2.430000000000291
I55
tp450
aF40.069999999999709
tp451
sg346
((lp452
(F0.23999999999796273
I13
tp453
aF40.009999999994761
tp454
sg390
((lp455
(F27.780000000006112
I288
tp456
aF40.040000000000873
tp457
ssba(imeasure_core
ProblemSetSolution
p458
(dp459
g3
(imeasure_core
RoomSet
p460
(dp461
S'rooms'
p462
(dp463
(iproblems
RoomID
p464
(dp465
S'width'
p466
I10
sS'dusts'
p467
I15
sS'seed'
p468
I4927760411464392432
sS'obstacles'
p469
(I3
I3
tp470
sS'robots'
p471
I5
sS'height'
p472
I13
sb(imulti_robot_problem
MultiRobotState
p473
(dp474
S'obstacle_locations'
p475
g20
((lp476
(I1
I2
tp477
a(I3
I1
tp478
ag470
a(I6
I11
tp479
a(I7
I6
tp480
a(I6
I10
tp481
a(I3
I11
tp482
a(I2
I1
tp483
a(I2
I10
tp484
a(I3
I9
tp485
a(I2
I3
tp486
a(I1
I7
tp487
a(I1
I3
tp488
a(I1
I0
tp489
a(I3
I10
tp490
a(I1
I1
tp491
a(I9
I12
tp492
a(I4
I0
tp493
atp494
Rp495
sg466
I10
sS'dirt_locations'
p496
g20
((lp497
(I9
I0
tp498
a(I7
I0
tp499
a(I5
I5
tp500
a(I4
I12
tp501
a(I0
I10
tp502
a(I8
I10
tp503
a(I1
I4
tp504
a(I8
I8
tp505
a(I2
I12
tp506
a(I8
I7
tp507
a(I1
I10
tp508
a(I7
I11
tp509
a(I9
I7
tp510
a(I0
I2
tp511
a(I8
I2
tp512
atp513
Rp514
sg471
((I1
I12
tp515
(I0
I12
tp516
(I8
I5
tp517
(I7
I9
tp518
(I7
I4
tp519
tp520
sg472
I13
sbs(iproblems
RoomID
p521
(dp522
g466
I12
sg467
I13
sg468
I3433768247134474666
sg469
(I4
I11
tp523
sg471
I6
sg472
I13
sb(imulti_robot_problem
MultiRobotState
p524
(dp525
g475
g20
((lp526
(I4
I10
tp527
a(I11
I3
tp528
a(I3
I12
tp529
a(I5
I11
tp530
a(I6
I11
tp531
a(I11
I7
tp532
a(I9
I8
tp533
a(I8
I8
tp534
a(I6
I0
tp535
a(I0
I12
tp536
a(I1
I1
tp537
a(I0
I11
tp538
a(I4
I12
tp539
a(I2
I3
tp540
a(I2
I12
tp541
a(I1
I6
tp542
a(I0
I10
tp543
a(I10
I3
tp544
a(I3
I10
tp545
ag523
a(I1
I9
tp546
atp547
Rp548
sg466
I12
sg496
g20
((lp549
(I10
I8
tp550
a(I10
I5
tp551
a(I6
I7
tp552
a(I6
I8
tp553
a(I4
I4
tp554
a(I10
I12
tp555
a(I5
I10
tp556
a(I9
I9
tp557
a(I7
I5
tp558
a(I7
I10
tp559
a(I6
I12
tp560
a(I8
I10
tp561
a(I5
I3
tp562
atp563
Rp564
sg471
((I7
I12
tp565
(I7
I7
tp566
(I8
I12
tp567
(I2
I0
tp568
(I11
I9
tp569
(I1
I2
tp570
tp571
sg472
I13
sbs(iproblems
RoomID
p572
(dp573
g466
I12
sg467
I11
sg468
I8554152435637441414
sg469
(I3
I6
tp574
sg471
I7
sg472
I11
sb(imulti_robot_problem
MultiRobotState
p575
(dp576
g475
g20
((lp577
(I2
I8
tp578
a(I11
I2
tp579
a(I9
I4
tp580
a(I3
I7
tp581
a(I5
I1
tp582
a(I3
I8
tp583
a(I7
I6
tp584
a(I4
I4
tp585
a(I6
I3
tp586
ag574
a(I0
I4
tp587
a(I8
I6
tp588
a(I9
I7
tp589
a(I4
I5
tp590
a(I7
I5
tp591
a(I9
I6
tp592
a(I7
I9
tp593
a(I3
I1
tp594
a(I7
I4
tp595
a(I1
I8
tp596
a(I8
I8
tp597
a(I1
I7
tp598
a(I0
I9
tp599
atp600
Rp601
sg466
I12
sg496
g20
((lp602
(I11
I10
tp603
a(I4
I9
tp604
a(I2
I9
tp605
a(I3
I0
tp606
a(I8
I0
tp607
a(I4
I7
tp608
a(I1
I4
tp609
a(I0
I3
tp610
a(I0
I8
tp611
a(I5
I2
tp612
a(I7
I2
tp613
atp614
Rp615
sg471
((I6
I4
tp616
(I8
I2
tp617
(I8
I5
tp618
(I10
I8
tp619
(I1
I2
tp620
(I6
I0
tp621
(I10
I4
tp622
tp623
sg472
I11
sbs(iproblems
RoomID
p624
(dp625
g466
I12
sg467
I12
sg468
I6241004153072892496
sg469
(I3
I3
tp626
sg471
I6
sg472
I12
sb(imulti_robot_problem
MultiRobotState
p627
(dp628
g475
g20
((lp629
(I3
I1
tp630
ag626
a(I2
I9
tp631
a(I7
I1
tp632
a(I11
I8
tp633
a(I5
I2
tp634
a(I6
I1
tp635
a(I9
I3
tp636
a(I8
I5
tp637
a(I4
I3
tp638
a(I4
I2
tp639
a(I3
I4
tp640
a(I11
I6
tp641
atp642
Rp643
sg466
I12
sg496
g20
((lp644
(I4
I10
tp645
a(I0
I0
tp646
a(I8
I7
tp647
a(I5
I11
tp648
a(I8
I0
tp649
a(I9
I10
tp650
a(I7
I10
tp651
a(I10
I1
tp652
a(I2
I5
tp653
a(I8
I9
tp654
a(I4
I11
tp655
a(I10
I4
tp656
atp657
Rp658
sg471
((I8
I6
tp659
(I5
I4
tp660
(I7
I2
tp661
(I4
I7
tp662
(I1
I7
tp663
(I5
I6
tp664
tp665
sg472
I12
sbs(iproblems
RoomID
p666
(dp667
g466
I13
sg467
I15
sg468
I3125140389427113411
sg469
(I1
I6
tp668
sg471
I6
sg472
I10
sb(imulti_robot_problem
MultiRobotState
p669
(dp670
g475
g20
((lp671
(I7
I3
tp672
a(I3
I3
tp673
a(I2
I0
tp674
a(I6
I1
tp675
a(I1
I4
tp676
a(I7
I4
tp677
a(I1
I5
tp678
a(I11
I1
tp679
a(I2
I3
tp680
a(I0
I7
tp681
a(I8
I7
tp682
a(I6
I2
tp683
ag668
atp684
Rp685
sg466
I13
sg496
g20
((lp686
(I0
I1
tp687
a(I2
I6
tp688
a(I2
I9
tp689
a(I11
I8
tp690
a(I2
I8
tp691
a(I9
I3
tp692
a(I6
I0
tp693
a(I7
I7
tp694
a(I6
I3
tp695
a(I3
I0
tp696
a(I12
I4
tp697
a(I0
I4
tp698
a(I9
I7
tp699
a(I2
I4
tp700
a(I9
I2
tp701
atp702
Rp703
sg471
((I12
I0
tp704
(I7
I8
tp705
(I2
I5
tp706
(I4
I5
tp707
(I12
I7
tp708
(I9
I4
tp709
tp710
sg472
I10
sbssS'name'
p711
S'heavy_roomset'
p712
sbsg166
g167
sg168
(dp713
g464
((lp714
F40.180000000000291
tp715
sg521
((lp716
(F18.440000000002328
I17
tp717
aF41.580000000001746
tp718
sg572
((lp719
(F38.309999999997672
I14
tp720
aF45.180000000000291
tp721
sg624
((lp722
F40.010000000002037
tp723
sg666
((lp724
(F18.360000000000582
I29
tp725
aF40.930000000000291
tp726
ssba(imeasure_core
ProblemSetSolution
p727
(dp728
g3
g4
sg166
S"AnytimeBeam-w20-gf(4, 'lin')_with_PowerHeuristic2"
p729
sg168
(dp730
g8
((lp731
(F0.41000000000349246
I10
tp732
aF40.030000000006112
tp733
sg48
((lp734
(F0.099999999998544808
I8
tp735
aF40.029999999998836
tp736
sg76
((lp737
(F0.56999999999970896
I13
tp738
aF40.049999999995634
tp739
sg105
((lp740
(F0.29000000000087311
I8
tp741
aF40.030000000006112
tp742
sg134
((lp743
(F0.70999999999912689
I48
tp744
aF40.0
tp745
ssba(imeasure_core
ProblemSetSolution
p746
(dp747
g3
g187
sg166
g729
sg168
(dp748
g191
((lp749
F40.0
tp750
sg247
((lp751
(F1.0199999999967986
I30
tp752
aF40.039999999993597
tp753
sg300
((lp754
(F2.4100000000034925
I55
tp755
aF40.010000000002037
tp756
sg346
((lp757
(F0.25
I13
tp758
aF40.029999999998836
tp759
sg390
((lp760
(F30.740000000005239
I288
tp761
aF40.0
tp762
ssba(imeasure_core
ProblemSetSolution
p763
(dp764
g3
g460
sg166
g729
sg168
(dp765
g464
((lp766
F40.349999999998545
tp767
sg521
((lp768
(F18.440000000002328
I17
tp769
aF41.529999999998836
tp770
sg572
((lp771
(F38.370000000002619
I14
tp772
aF45.200000000004366
tp773
sg624
((lp774
F40.009999999994761
tp775
sg666
((lp776
(F18.310000000004948
I29
tp777
aF40.840000000003783
tp778
ssba(imeasure_core
ProblemSetSolution
p779
(dp780
g3
g4
sg166
S"AnytimeBeam-w20-gf(8, 'lin')_with_PowerHeuristic2"
p781
sg168
(dp782
g8
((lp783
(F0.4099999999962165
I10
tp784
aF40.120000000002619
tp785
sg48
((lp786
(F0.11000000000058208
I8
tp787
aF40.009999999994761
tp788
sg76
((lp789
(F0.56999999999970896
I13
tp790
aF40.010000000002037
tp791
sg105
((lp792
(F0.27999999999883585
I8
tp793
aF40.19999999999709
tp794
sg134
((lp795
(F0.72000000000116415
I48
tp796
aF40.069999999999709
tp797
ssba(imeasure_core
ProblemSetSolution
p798
(dp799
g3
g187
sg166
g781
sg168
(dp800
g191
((lp801
F40.020000000004075
tp802
sg247
((lp803
(F1.0199999999967986
I30
tp804
aF40.029999999998836
tp805
sg300
((lp806
(F2.4399999999950523
I55
tp807
aF40.379999999997381
tp808
sg346
((lp809
(F0.23999999999796273
I13
tp810
aF40.040000000000873
tp811
sg390
((lp812
(F31.94999999999709
I288
tp813
aF40.029999999998836
tp814
ssba(imeasure_core
ProblemSetSolution
p815
(dp816
g3
g460
sg166
g781
sg168
(dp817
g464
((lp818
F40.169999999998254
tp819
sg521
((lp820
(F18.370000000002619
I17
tp821
aF41.520000000004075
tp822
sg572
((lp823
(F38.159999999996217
I14
tp824
aF44.919999999998254
tp825
sg624
((lp826
F40.519999999996799
tp827
sg666
((lp828
(F18.279999999998836
I29
tp829
aF40.990000000005239
tp830
ssba(imeasure_core
ProblemSetSolution
p831
(dp832
g3
g4
sg166
S"AnytimeBeam-w20-gf(16, 'lin')_with_PowerHeuristic2"
p833
sg168
(dp834
g8
((lp835
(F0.41999999999825377
I10
tp836
aF40.19999999999709
tp837
sg48
((lp838
(F0.099999999998544808
I8
tp839
aF40.040000000000873
tp840
sg76
((lp841
(F0.56999999999970896
I13
tp842
aF40.049999999995634
tp843
sg105
((lp844
(F0.2800000000061118
I8
tp845
aF40.040000000000873
tp846
sg134
((lp847
(F0.70999999999912689
I48
tp848
aF40.010000000002037
tp849
ssba(imeasure_core
ProblemSetSolution
p850
(dp851
g3
g187
sg166
g833
sg168
(dp852
g191
((lp853
F40.0
tp854
sg247
((lp855
(F1.0199999999967986
I30
tp856
aF40.189999999995052
tp857
sg300
((lp858
(F2.4100000000034925
I55
tp859
aF40.069999999999709
tp860
sg346
((lp861
(F0.24000000000523869
I13
tp862
aF40.060000000004948
tp863
sg390
((lp864
(F38.44999999999709
I281
tp865
aF40.010000000002037
tp866
ssba(imeasure_core
ProblemSetSolution
p867
(dp868
g3
g460
sg166
g833
sg168
(dp869
g464
((lp870
F40.369999999995343
tp871
sg521
((lp872
(F18.340000000003783
I17
tp873
aF42.029999999998836
tp874
sg572
((lp875
(F38.230000000003201
I14
tp876
aF45.05000000000291
tp877
sg624
((lp878
F40.639999999999418
tp879
sg666
((lp880
(F18.319999999999709
I29
tp881
aF42.099999999998545
tp882
ssba(imeasure_core
ProblemSetSolution
p883
(dp884
g3
g4
sg166
S"AnytimeBeam-w20-gf(2, 'lin')_with_LinearHeuristic"
p885
sg168
(dp886
g8
((lp887
(F1.2200000000011642
I29
tp888
aF40.0
tp889
sg48
((lp890
(F0.12999999999738066
I7
tp891
aF40.029999999998836
tp892
sg76
((lp893
F40.010000000002037
tp894
sg105
((lp895
F40.059999999997672
tp896
sg134
((lp897
(F30.599999999998545
I256
tp898
aF40.0
tp899
ssba(imeasure_core
ProblemSetSolution
p900
(dp901
g3
g187
sg166
g885
sg168
(dp902
g191
((lp903
F40.05000000000291
tp904
sg247
((lp905
F40.129999999997381
tp906
sg300
((lp907
(F0.30999999999767169
I8
tp908
aF40.05000000000291
tp909
sg346
((lp910
(F0.50999999999476131
I27
tp911
aF40.009999999994761
tp912
sg390
((lp913
F40.020000000004075
tp914
ssba(imeasure_core
ProblemSetSolution
p915
(dp916
g3
g460
sg166
g885
sg168
(dp917
g464
((lp918
F40.119999999995343
tp919
sg521
((lp920
F40.360000000000582
tp921
sg572
((lp922
F40.440000000002328
tp923
sg624
((lp924
(F18.659999999996217
I10
tp925
aF41.19999999999709
tp926
sg666
((lp927
F40.360000000000582
tp928
ssba(imeasure_core
ProblemSetSolution
p929
(dp930
g3
g4
sg166
S"AnytimeBeam-w20-gf(4, 'lin')_with_LinearHeuristic"
p931
sg168
(dp932
g8
((lp933
(F1.2299999999959255
I29
tp934
aF40.010000000002037
tp935
sg48
((lp936
(F0.12999999999738066
I7
tp937
aF40.029999999998836
tp938
sg76
((lp939
F40.049999999995634
tp940
sg105
((lp941
F40.040000000000873
tp942
sg134
((lp943
(F30.760000000002037
I256
tp944
aF40.099999999998545
tp945
ssba(imeasure_core
ProblemSetSolution
p946
(dp947
g3
g187
sg166
g931
sg168
(dp948
g191
((lp949
F40.020000000004075
tp950
sg247
((lp951
F40.089999999996508
tp952
sg300
((lp953
(F0.31000000000494765
I8
tp954
aF40.0
tp955
sg346
((lp956
(F0.51000000000203727
I27
tp957
aF40.029999999998836
tp958
sg390
((lp959
F40.130000000004657
tp960
ssba(imeasure_core
ProblemSetSolution
p961
(dp962
g3
g460
sg166
g931
sg168
(dp963
g464
((lp964
F40.169999999998254
tp965
sg521
((lp966
F40.339999999996508
tp967
sg572
((lp968
F40.240000000005239
tp969
sg624
((lp970
(F18.609999999993306
I10
tp971
aF41.109999999993306
tp972
sg666
((lp973
F40.460000000006403
tp974
ssba(imeasure_core
ProblemSetSolution
p975
(dp976
g3
g4
sg166
S"AnytimeBeam-w20-gf(8, 'lin')_with_LinearHeuristic"
p977
sg168
(dp978
g8
((lp979
(F1.2300000000032014
I29
tp980
aF40.040000000000873
tp981
sg48
((lp982
(F0.13000000000465661
I7
tp983
aF40.0
tp984
sg76
((lp985
F40.020000000004075
tp986
sg105
((lp987
F40.229999999995925
tp988
sg134
((lp989
(F30.760000000002037
I256
tp990
aF40.090000000003783
tp991
ssba(imeasure_core
ProblemSetSolution
p992
(dp993
g3
g187
sg166
g977
sg168
(dp994
g191
((lp995
F40.020000000004075
tp996
sg247
((lp997
F40.139999999999418
tp998
sg300
((lp999
(F0.31999999999970896
I8
tp1000
aF40.069999999999709
tp1001
sg346
((lp1002
(F0.51000000000203727
I27
tp1003
aF40.05000000000291
tp1004
sg390
((lp1005
F40.089999999996508
tp1006
ssba(imeasure_core
ProblemSetSolution
p1007
(dp1008
g3
g460
sg166
g977
sg168
(dp1009
g464
((lp1010
F40.19999999999709
tp1011
sg521
((lp1012
F40.450000000004366
tp1013
sg572
((lp1014
F40.379999999997381
tp1015
sg624
((lp1016
(F18.690000000002328
I10
tp1017
aF41.360000000000582
tp1018
sg666
((lp1019
F40.690000000002328
tp1020
ssba(imeasure_core
ProblemSetSolution
p1021
(dp1022
g3
g4
sg166
S"AnytimeBeam-w20-gf(16, 'lin')_with_LinearHeuristic"
p1023
sg168
(dp1024
g8
((lp1025
(F1.2399999999979627
I29
tp1026
aF40.009999999994761
tp1027
sg48
((lp1028
(F0.13000000000465661
I7
tp1029
aF40.010000000002037
tp1030
sg76
((lp1031
F40.019999999996799
tp1032
sg105
((lp1033
F40.100000000005821
tp1034
sg134
((lp1035
(F30.979999999995925
I256
tp1036
aF40.029999999998836
tp1037
ssba(imeasure_core
ProblemSetSolution
p1038
(dp1039
g3
g187
sg166
g1023
sg168
(dp1040
g191
((lp1041
F40.099999999998545
tp1042
sg247
((lp1043
F40.080000000001746
tp1044
sg300
((lp1045
(F0.31999999999970896
I8
tp1046
aF40.089999999996508
tp1047
sg346
((lp1048
(F0.52000000000407454
I27
tp1049
aF40.040000000000873
tp1050
sg390
((lp1051
F40.309999999997672
tp1052
ssba(imeasure_core
ProblemSetSolution
p1053
(dp1054
g3
g460
sg166
g1023
sg168
(dp1055
g464
((lp1056
F40.020000000004075
tp1057
sg521
((lp1058
F40.419999999998254
tp1059
sg572
((lp1060
F40.120000000002619
tp1061
sg624
((lp1062
(F18.689999999995052
I10
tp1063
aF42.909999999996217
tp1064
sg666
((lp1065
F40.370000000002619
tp1066
ssba.