(lp0
(imeasure_core
ProblemSetSolution
p1
(dp2
S'roomset'
p3
(imeasure_core
RoomSet
p4
(dp5
S'rooms'
p6
(dp7
(iproblems
RoomID
p8
(dp9
S'dusts'
p10
I6
sS'obstacles'
p11
(I3
I2
tp12
sS'robots'
p13
I1
sS'height'
p14
I9
sS'width'
p15
I10
sS'seed'
p16
I6832892905590973747
sb(imulti_robot_problem
MultiRobotState
p17
(dp18
S'obstacle_locations'
p19
c__builtin__
frozenset
p20
((lp21
(I3
I0
tp22
a(I2
I0
tp23
ag12
a(I3
I1
tp24
atp25
Rp26
sg15
I10
sS'dirt_locations'
p27
g20
((lp28
(I1
I2
tp29
a(I2
I7
tp30
a(I0
I0
tp31
a(I0
I5
tp32
a(I5
I6
tp33
a(I0
I2
tp34
atp35
Rp36
sg13
((I8
I4
tp37
tp38
sg14
I9
sbs(iproblems
RoomID
p39
(dp40
g10
I7
sg11
(I3
I5
tp41
sg13
I5
sg14
I7
sg15
I9
sg16
I6924344268699531175
sb(imulti_robot_problem
MultiRobotState
p42
(dp43
g19
g20
((lp44
(I2
I6
tp45
a(I1
I6
tp46
a(I3
I6
tp47
ag41
atp48
Rp49
sg15
I9
sg27
g20
((lp50
(I1
I2
tp51
a(I0
I0
tp52
a(I5
I0
tp53
a(I7
I1
tp54
a(I8
I6
tp55
a(I3
I4
tp56
a(I6
I5
tp57
atp58
Rp59
sg13
((I4
I0
tp60
(I7
I2
tp61
(I1
I1
tp62
(I6
I1
tp63
(I8
I4
tp64
tp65
sg14
I7
sbs(iproblems
RoomID
p66
(dp67
g10
I5
sg11
(I4
I7
tp68
sg13
I3
sg14
I9
sg15
I7
sg16
I2524308075868763041
sb(imulti_robot_problem
MultiRobotState
p69
(dp70
g19
g20
((lp71
(I1
I2
tp72
a(I3
I8
tp73
ag68
a(I4
I6
tp74
a(I4
I1
tp75
a(I2
I4
tp76
a(I3
I5
tp77
atp78
Rp79
sg15
I7
sg27
g20
((lp80
(I2
I6
tp81
a(I5
I2
tp82
a(I3
I3
tp83
a(I0
I7
tp84
a(I3
I6
tp85
atp86
Rp87
sg13
((I0
I6
tp88
(I3
I1
tp89
(I4
I8
tp90
tp91
sg14
I9
sbs(iproblems
RoomID
p92
(dp93
g10
I6
sg11
(I3
I1
tp94
sg13
I4
sg14
I8
sg15
I7
sg16
I807570059310326234
sb(imulti_robot_problem
MultiRobotState
p95
(dp96
g19
g20
((lp97
(I6
I3
tp98
a(I4
I2
tp99
ag94
a(I5
I3
tp100
atp101
Rp102
sg15
I7
sg27
g20
((lp103
(I3
I2
tp104
a(I6
I7
tp105
a(I4
I6
tp106
a(I0
I4
tp107
a(I1
I0
tp108
a(I5
I2
tp109
atp110
Rp111
sg13
((I1
I2
tp112
(I0
I1
tp113
(I3
I7
tp114
(I2
I4
tp115
tp116
sg14
I8
sbs(iproblems
RoomID
p117
(dp118
g10
I8
sg11
(I5
I0
tp119
sg13
I4
sg14
I10
sg15
I10
sg16
I3562373307524659409
sb(imulti_robot_problem
MultiRobotState
p120
(dp121
g19
g20
((lp122
(I6
I3
tp123
a(I6
I7
tp124
ag119
a(I3
I6
tp125
a(I8
I1
tp126
a(I7
I0
tp127
a(I6
I0
tp128
atp129
Rp130
sg15
I10
sg27
g20
((lp131
(I1
I3
tp132
a(I2
I9
tp133
a(I7
I6
tp134
a(I7
I7
tp135
a(I8
I9
tp136
a(I1
I8
tp137
a(I1
I6
tp138
a(I2
I2
tp139
atp140
Rp141
sg13
((I9
I8
tp142
(I6
I5
tp143
(I5
I1
tp144
(I8
I8
tp145
tp146
sg14
I10
sbssS'name'
p147
S'easy_roomset'
p148
sbsg147
S'AnytimeBest-d10_with_PowerHeuristic2'
p149
sS'solutions'
p150
(dp151
g8
((lp152
F0.22000000000116415
tp153
sg39
((lp154
(F1.8799999999973807
I7
tp155
aF40.040000000000873
tp156
sg92
((lp157
F40.010000000002037
tp158
sg66
((lp159
(F0.040000000000873115
I7
tp160
aF40.0
tp161
sg117
((lp162
(F0.43999999999505235
I10
tp163
aF40.019999999996799
tp164
ssba(imeasure_core
ProblemSetSolution
p165
(dp166
g3
(imeasure_core
RoomSet
p167
(dp168
g6
(dp169
(iproblems
RoomID
p170
(dp171
g10
I6
sg11
(I6
I2
tp172
sg13
I3
sg14
I11
sg15
I12
sg16
I6832892905590973747
sb(imulti_robot_problem
MultiRobotState
p173
(dp174
g19
g20
((lp175
(I6
I4
tp176
a(I2
I6
tp177
a(I4
I3
tp178
a(I3
I0
tp179
a(I2
I8
tp180
a(I7
I7
tp181
a(I7
I5
tp182
a(I4
I2
tp183
a(I5
I3
tp184
a(I4
I1
tp185
a(I7
I6
tp186
a(I6
I3
tp187
a(I4
I5
tp188
ag172
a(I3
I6
tp189
a(I8
I6
tp190
a(I4
I0
tp191
a(I5
I2
tp192
a(I2
I4
tp193
atp194
Rp195
sg15
I12
sg27
g20
((lp196
(I1
I6
tp197
a(I6
I8
tp198
a(I2
I9
tp199
a(I0
I3
tp200
a(I0
I2
tp201
a(I7
I9
tp202
atp203
Rp204
sg13
((I10
I6
tp205
(I1
I2
tp206
(I0
I0
tp207
tp208
sg14
I11
sbs(iproblems
RoomID
p209
(dp210
g10
I7
sg11
(I3
I1
tp211
sg13
I4
sg14
I9
sg15
I11
sg16
I6924344268699531175
sb(imulti_robot_problem
MultiRobotState
p212
(dp213
g19
g20
((lp214
(I4
I7
tp215
ag211
a(I6
I6
tp216
a(I5
I6
tp217
a(I2
I8
tp218
a(I9
I8
tp219
a(I7
I7
tp220
a(I0
I7
tp221
a(I7
I5
tp222
a(I8
I7
tp223
a(I0
I3
tp224
a(I0
I8
tp225
a(I8
I5
tp226
a(I6
I3
tp227
a(I5
I2
tp228
a(I7
I6
tp229
a(I4
I8
tp230
a(I7
I4
tp231
a(I3
I8
tp232
a(I0
I6
tp233
a(I8
I8
tp234
a(I4
I1
tp235
a(I9
I7
tp236
atp237
Rp238
sg15
I11
sg27
g20
((lp239
(I8
I3
tp240
a(I1
I3
tp241
a(I4
I6
tp242
a(I4
I3
tp243
a(I0
I4
tp244
a(I10
I5
tp245
a(I0
I0
tp246
atp247
Rp248
sg13
((I6
I0
tp249
(I9
I3
tp250
(I1
I1
tp251
(I8
I1
tp252
tp253
sg14
I9
sbs(iproblems
RoomID
p254
(dp255
g10
I6
sg11
(I2
I5
tp256
sg13
I4
sg14
I10
sg15
I9
sg16
I807570059310326234
sb(imulti_robot_problem
MultiRobotState
p257
(dp258
g19
g20
((lp259
(I6
I4
tp260
a(I3
I2
tp261
a(I1
I3
tp262
a(I8
I2
tp263
a(I2
I3
tp264
a(I3
I8
tp265
ag256
a(I1
I0
tp266
a(I1
I2
tp267
a(I7
I4
tp268
a(I4
I1
tp269
a(I3
I3
tp270
a(I3
I4
tp271
a(I1
I1
tp272
a(I6
I3
tp273
a(I2
I0
tp274
a(I1
I8
tp275
a(I2
I2
tp276
a(I5
I2
tp277
a(I0
I2
tp278
a(I8
I4
tp279
atp280
Rp281
sg15
I9
sg27
g20
((lp282
(I7
I3
tp283
a(I2
I6
tp284
a(I1
I6
tp285
a(I4
I2
tp286
a(I5
I8
tp287
a(I7
I9
tp288
atp289
Rp290
sg13
((I6
I2
tp291
(I0
I1
tp292
(I3
I9
tp293
(I3
I5
tp294
tp295
sg14
I10
sbs(iproblems
RoomID
p296
(dp297
g10
I10
sg11
(I6
I8
tp298
sg13
I3
sg14
I11
sg15
I10
sg16
I7391799147228763464
sb(imulti_robot_problem
MultiRobotState
p299
(dp300
g19
g20
((lp301
(I5
I9
tp302
a(I4
I7
tp303
a(I4
I6
tp304
a(I4
I8
tp305
a(I4
I5
tp306
a(I6
I9
tp307
a(I0
I7
tp308
a(I1
I4
tp309
a(I3
I7
tp310
a(I5
I8
tp311
ag298
a(I2
I7
tp312
a(I3
I8
tp313
a(I4
I9
tp314
a(I3
I3
tp315
a(I9
I2
tp316
a(I6
I3
tp317
a(I3
I6
tp318
a(I1
I7
tp319
a(I0
I9
tp320
a(I7
I8
tp321
a(I0
I2
tp322
a(I1
I9
tp323
atp324
Rp325
sg15
I10
sg27
g20
((lp326
(I8
I3
tp327
a(I5
I10
tp328
a(I5
I5
tp329
a(I2
I8
tp330
a(I7
I6
tp331
a(I6
I0
tp332
a(I2
I10
tp333
a(I9
I4
tp334
a(I1
I10
tp335
a(I0
I3
tp336
atp337
Rp338
sg13
((I3
I10
tp339
(I7
I1
tp340
(I1
I5
tp341
tp342
sg14
I11
sbs(iproblems
RoomID
p343
(dp344
g10
I8
sg11
(I11
I7
tp345
sg13
I4
sg14
I12
sg15
I12
sg16
I3562373307524659409
sb(imulti_robot_problem
MultiRobotState
p346
(dp347
g19
g20
((lp348
(I6
I4
tp349
a(I6
I9
tp350
a(I3
I2
tp351
a(I9
I1
tp352
a(I6
I6
tp353
a(I5
I6
tp354
a(I9
I8
tp355
a(I3
I11
tp356
a(I7
I1
tp357
ag345
a(I8
I9
tp358
a(I3
I9
tp359
a(I11
I8
tp360
a(I10
I2
tp361
a(I4
I2
tp362
a(I7
I2
tp363
a(I10
I8
tp364
a(I8
I3
tp365
a(I8
I1
tp366
a(I3
I10
tp367
a(I5
I11
tp368
a(I6
I3
tp369
a(I6
I11
tp370
a(I6
I5
tp371
a(I7
I10
tp372
a(I4
I8
tp373
a(I11
I6
tp374
a(I4
I11
tp375
atp376
Rp377
sg15
I12
sg27
g20
((lp378
(I7
I3
tp379
a(I1
I3
tp380
a(I10
I11
tp381
a(I1
I7
tp382
a(I8
I8
tp383
a(I2
I2
tp384
a(I3
I7
tp385
a(I7
I9
tp386
atp387
Rp388
sg13
((I11
I10
tp389
(I7
I6
tp390
(I10
I10
tp391
(I2
I10
tp392
tp393
sg14
I12
sbssg147
S'mild_roomset'
p394
sbsg147
g149
sg150
(dp395
g170
((lp396
(F0.08999999999650754
I10
tp397
aF40.010000000002037
tp398
sg209
((lp399
F40.180000000000291
tp400
sg254
((lp401
F40.059999999997672
tp402
sg296
((lp403
F40.180000000000291
tp404
sg343
((lp405
F40.19999999999709
tp406
ssba(imeasure_core
ProblemSetSolution
p407
(dp408
g3
(imeasure_core
RoomSet
p409
(dp410
g6
(dp411
(iproblems
RoomID
p412
(dp413
g10
I11
sg11
(I4
I2
tp414
sg13
I5
sg14
I12
sg15
I13
sg16
I6832892905590973747
sb(imulti_robot_problem
MultiRobotState
p415
(dp416
g19
g20
((lp417
(I5
I9
tp418
a(I6
I9
tp419
a(I8
I2
tp420
a(I3
I0
tp421
a(I3
I4
tp422
a(I12
I11
tp423
ag414
a(I4
I1
tp424
a(I4
I0
tp425
atp426
Rp427
sg15
I13
sg27
g20
((lp428
(I2
I7
tp429
a(I9
I0
tp430
a(I6
I8
tp431
a(I4
I5
tp432
a(I2
I8
tp433
a(I8
I10
tp434
a(I2
I10
tp435
a(I1
I7
tp436
a(I3
I7
tp437
a(I2
I5
tp438
a(I0
I8
tp439
atp440
Rp441
sg13
((I11
I6
tp442
(I1
I2
tp443
(I1
I0
tp444
(I0
I3
tp445
(I0
I2
tp446
tp447
sg14
I12
sbs(iproblems
RoomID
p448
(dp449
g10
I12
sg11
(I6
I7
tp450
sg13
I7
sg14
I10
sg15
I12
sg16
I6924344268699531175
sb(imulti_robot_problem
MultiRobotState
p451
(dp452
g19
g20
((lp453
(I4
I7
tp454
ag450
a(I2
I9
tp455
a(I4
I8
tp456
a(I9
I6
tp457
a(I5
I7
tp458
a(I0
I6
tp459
a(I3
I9
tp460
a(I0
I9
tp461
a(I4
I9
tp462
a(I4
I1
tp463
atp464
Rp465
sg15
I12
sg27
g20
((lp466
(I7
I3
tp467
a(I5
I4
tp468
a(I1
I3
tp469
a(I9
I1
tp470
a(I8
I3
tp471
a(I0
I7
tp472
a(I8
I8
tp473
a(I0
I0
tp474
a(I0
I4
tp475
a(I0
I8
tp476
a(I11
I6
tp477
a(I9
I7
tp478
atp479
Rp480
sg13
((I6
I0
tp481
(I10
I4
tp482
(I1
I1
tp483
(I8
I2
tp484
(I11
I5
tp485
(I5
I6
tp486
(I10
I9
tp487
tp488
sg14
I10
sbs(iproblems
RoomID
p489
(dp490
g10
I13
sg11
(I7
I4
tp491
sg13
I6
sg14
I13
sg15
I13
sg16
I3562373307524659409
sb(imulti_robot_problem
MultiRobotState
p492
(dp493
g19
g20
((lp494
(I7
I3
tp495
a(I5
I4
tp496
a(I4
I9
tp497
a(I9
I1
tp498
a(I5
I9
tp499
a(I8
I1
tp500
a(I11
I2
tp501
a(I9
I3
tp502
a(I3
I11
tp503
a(I11
I7
tp504
ag491
a(I10
I1
tp505
a(I3
I10
tp506
a(I10
I5
tp507
a(I8
I2
tp508
atp509
Rp510
sg15
I13
sg27
g20
((lp511
(I8
I3
tp512
a(I3
I12
tp513
a(I4
I8
tp514
a(I6
I10
tp515
a(I9
I9
tp516
a(I12
I6
tp517
a(I8
I9
tp518
a(I1
I8
tp519
a(I4
I3
tp520
a(I2
I2
tp521
a(I4
I2
tp522
a(I11
I12
tp523
a(I2
I4
tp524
atp525
Rp526
sg13
((I12
I11
tp527
(I7
I6
tp528
(I7
I1
tp529
(I10
I11
tp530
(I2
I11
tp531
(I9
I8
tp532
tp533
sg14
I13
sbs(iproblems
RoomID
p534
(dp535
g10
I11
sg11
(I5
I1
tp536
sg13
I7
sg14
I11
sg15
I10
sg16
I807570059310326234
sb(imulti_robot_problem
MultiRobotState
p537
(dp538
g19
g20
((lp539
(I7
I3
tp540
a(I4
I6
tp541
a(I7
I4
tp542
a(I6
I2
tp543
a(I1
I9
tp544
a(I9
I4
tp545
ag536
a(I0
I3
tp546
a(I5
I2
tp547
a(I8
I4
tp548
atp549
Rp550
sg15
I10
sg27
g20
((lp551
(I5
I9
tp552
a(I6
I9
tp553
a(I2
I9
tp554
a(I4
I8
tp555
a(I9
I2
tp556
a(I2
I0
tp557
a(I1
I6
tp558
a(I9
I5
tp559
a(I4
I2
tp560
a(I1
I0
tp561
a(I3
I5
tp562
atp563
Rp564
sg13
((I1
I3
tp565
(I0
I2
tp566
(I4
I10
tp567
(I4
I5
tp568
(I8
I10
tp569
(I8
I3
tp570
(I2
I6
tp571
tp572
sg14
I11
sbs(iproblems
RoomID
p573
(dp574
g10
I15
sg11
(I4
I8
tp575
sg13
I6
sg14
I12
sg15
I11
sg16
I7391799147228763464
sb(imulti_robot_problem
MultiRobotState
p576
(dp577
g19
g20
((lp578
(I6
I4
tp579
a(I4
I7
tp580
ag575
a(I5
I6
tp581
a(I2
I8
tp582
a(I5
I7
tp583
a(I6
I9
tp584
a(I4
I2
tp585
a(I9
I2
tp586
a(I1
I6
tp587
a(I10
I7
tp588
a(I8
I6
tp589
a(I2
I4
tp590
atp591
Rp592
sg15
I11
sg27
g20
((lp593
(I7
I0
tp594
a(I10
I4
tp595
a(I6
I11
tp596
a(I7
I6
tp597
a(I1
I4
tp598
a(I8
I9
tp599
a(I1
I8
tp600
a(I3
I9
tp601
a(I0
I10
tp602
a(I9
I4
tp603
a(I7
I10
tp604
a(I1
I10
tp605
a(I4
I3
tp606
a(I0
I3
tp607
a(I0
I2
tp608
atp609
Rp610
sg13
((I4
I6
tp611
(I3
I11
tp612
(I7
I1
tp613
(I2
I5
tp614
(I5
I9
tp615
(I2
I11
tp616
tp617
sg14
I12
sbssg147
S'heavy_roomset'
p618
sbsg147
g149
sg150
(dp619
g412
((lp620
F40.569999999999709
tp621
sg448
((lp622
F42.489999999997963
tp623
sg489
((lp624
F40.260000000002037
tp625
sg534
((lp626
F40.459999999999127
tp627
sg573
((lp628
F41.660000000003492
tp629
ssba(imeasure_core
ProblemSetSolution
p630
(dp631
g3
g4
sg147
S'AnytimeBest-d80_with_PowerHeuristic2'
p632
sg150
(dp633
g8
((lp634
(F0.5
I44
tp635
a(F1.9399999999950523
I43
tp636
a(F2.0899999999965075
I42
tp637
a(F2.3399999999965075
I38
tp638
a(F4.4599999999991269
I37
tp639
a(F4.7399999999979627
I35
tp640
a(F5.0299999999988358
I33
tp641
a(F5.2900000000008731
I31
tp642
a(F7.3300000000017462
I29
tp643
a(F9.8099999999976717
I27
tp644
a(F13.040000000000873
I25
tp645
a(F16.919999999998254
I22
tp646
a(F17.869999999995343
I20
tp647
aF18.599999999998545
tp648
sg39
((lp649
(F1.8899999999994179
I7
tp650
aF40.05000000000291
tp651
sg92
((lp652
F40.029999999998836
tp653
sg66
((lp654
(F0.029999999998835847
I7
tp655
aF40.0
tp656
sg117
((lp657
(F0.43999999999505235
I10
tp658
aF40.019999999996799
tp659
ssba(imeasure_core
ProblemSetSolution
p660
(dp661
g3
g167
sg147
g632
sg150
(dp662
g170
((lp663
(F0.08000000000174623
I10
tp664
aF40.010000000002037
tp665
sg209
((lp666
F40.209999999999127
tp667
sg254
((lp668
F40.019999999996799
tp669
sg296
((lp670
(F0.5900000000037835
I36
tp671
aF40.010000000002037
tp672
sg343
((lp673
(F4.2399999999979627
I75
tp674
aF40.059999999997672
tp675
ssba(imeasure_core
ProblemSetSolution
p676
(dp677
g3
g409
sg147
g632
sg150
(dp678
g412
((lp679
(F7.5599999999976717
I24
tp680
aF40.080000000001746
tp681
sg448
((lp682
F42.509999999994761
tp683
sg489
((lp684
(F23.660000000003492
I15
tp685
aF40.230000000003201
tp686
sg534
((lp687
F41.639999999999418
tp688
sg573
((lp689
F41.489999999997963
tp690
ssba(imeasure_core
ProblemSetSolution
p691
(dp692
g3
g4
sg147
S'AnytimeBest-d150_with_PowerHeuristic2'
p693
sg150
(dp694
g8
((lp695
(F0.49000000000523869
I44
tp696
a(F1.9200000000055297
I43
tp697
a(F2.069999999999709
I42
tp698
a(F2.3100000000049477
I38
tp699
a(F4.4100000000034925
I37
tp700
a(F4.6900000000023283
I35
tp701
a(F4.9700000000011642
I33
tp702
a(F5.2300000000032014
I31
tp703
a(F7.25
I29
tp704
a(F9.7300000000032014
I27
tp705
a(F12.970000000001164
I25
tp706
a(F16.860000000000582
I22
tp707
a(F17.810000000004948
I20
tp708
aF18.540000000000873
tp709
sg39
((lp710
(F1.9100000000034925
I7
tp711
aF40.05000000000291
tp712
sg92
((lp713
F40.039999999993597
tp714
sg66
((lp715
(F0.029999999998835847
I7
tp716
aF40.010000000002037
tp717
sg117
((lp718
(F0.45000000000436557
I10
tp719
aF40.020000000004075
tp720
ssba(imeasure_core
ProblemSetSolution
p721
(dp722
g3
g167
sg147
g693
sg150
(dp723
g170
((lp724
(F0.079999999994470272
I10
tp725
aF40.009999999994761
tp726
sg209
((lp727
F40.200000000004366
tp728
sg254
((lp729
(F9.3699999999953434
I108
tp730
aF40.019999999996799
tp731
sg296
((lp732
(F0.58000000000174623
I36
tp733
aF40.010000000002037
tp734
sg343
((lp735
(F4.2299999999959255
I75
tp736
aF40.029999999998836
tp737
ssba(imeasure_core
ProblemSetSolution
p738
(dp739
g3
g409
sg147
g693
sg150
(dp740
g412
((lp741
(F7.569999999999709
I24
tp742
aF40.139999999999418
tp743
sg448
((lp744
F42.580000000001746
tp745
sg489
((lp746
(F23.819999999999709
I15
tp747
aF40.229999999995925
tp748
sg534
((lp749
F41.730000000003201
tp750
sg573
((lp751
F41.509999999994761
tp752
ssba(imeasure_core
ProblemSetSolution
p753
(dp754
g3
g4
sg147
S'AnytimeBest-d250_with_PowerHeuristic2'
p755
sg150
(dp756
g8
((lp757
(F0.49000000000523869
I44
tp758
a(F1.9200000000055297
I43
tp759
a(F2.069999999999709
I42
tp760
a(F2.3100000000049477
I38
tp761
a(F4.4100000000034925
I37
tp762
a(F4.680000000000291
I35
tp763
a(F4.9600000000064028
I33
tp764
a(F5.2200000000011642
I31
tp765
a(F7.25
I29
tp766
a(F9.7400000000052387
I27
tp767
a(F12.990000000005239
I25
tp768
a(F16.880000000004657
I22
tp769
a(F17.830000000001746
I20
tp770
aF18.55000000000291
tp771
sg39
((lp772
(F1.9000000000014552
I7
tp773
aF40.05000000000291
tp774
sg92
((lp775
F40.059999999997672
tp776
sg66
((lp777
(F0.029999999998835847
I7
tp778
aF40.0
tp779
sg117
((lp780
(F0.44999999999708962
I10
tp781
aF40.010000000002037
tp782
ssba(imeasure_core
ProblemSetSolution
p783
(dp784
g3
g167
sg147
g755
sg150
(dp785
g170
((lp786
(F0.090000000003783498
I10
tp787
aF40.010000000002037
tp788
sg209
((lp789
F40.230000000003201
tp790
sg254
((lp791
(F9.4399999999950523
I108
tp792
aF40.019999999996799
tp793
sg296
((lp794
(F0.5900000000037835
I36
tp795
aF40.010000000002037
tp796
sg343
((lp797
(F4.2600000000020373
I75
tp798
aF40.099999999998545
tp799
ssba(imeasure_core
ProblemSetSolution
p800
(dp801
g3
g409
sg147
g755
sg150
(dp802
g412
((lp803
(F7.5400000000008731
I24
tp804
aF40.089999999996508
tp805
sg448
((lp806
F42.340000000003783
tp807
sg489
((lp808
(F23.569999999999709
I15
tp809
aF40.229999999995925
tp810
sg534
((lp811
F40.660000000003492
tp812
sg573
((lp813
F41.809999999997672
tp814
ssba(imeasure_core
ProblemSetSolution
p815
(dp816
g3
g4
sg147
S'AnytimeBest-d400_with_PowerHeuristic2'
p817
sg150
(dp818
g8
((lp819
(F0.48999999999796273
I44
tp820
a(F1.9199999999982538
I43
tp821
a(F2.0599999999976717
I42
tp822
a(F2.2999999999956344
I38
tp823
a(F4.4000000000014552
I37
tp824
a(F4.680000000000291
I35
tp825
a(F4.9599999999991269
I33
tp826
a(F5.2200000000011642
I31
tp827
a(F7.2399999999979627
I29
tp828
a(F9.7099999999991269
I27
tp829
a(F12.930000000000291
I25
tp830
a(F16.779999999998836
I22
tp831
a(F17.720000000001164
I20
tp832
aF18.430000000000291
tp833
sg39
((lp834
(F1.8699999999953434
I7
tp835
aF40.040000000000873
tp836
sg92
((lp837
F40.059999999997672
tp838
sg66
((lp839
(F0.040000000000873115
I7
tp840
aF40.0
tp841
sg117
((lp842
(F0.44000000000232831
I10
tp843
aF40.080000000001746
tp844
ssba(imeasure_core
ProblemSetSolution
p845
(dp846
g3
g167
sg147
g817
sg150
(dp847
g170
((lp848
(F0.08000000000174623
I10
tp849
aF40.010000000002037
tp850
sg209
((lp851
F40.209999999999127
tp852
sg254
((lp853
(F9.3400000000037835
I108
tp854
aF40.020000000004075
tp855
sg296
((lp856
(F0.57999999999447027
I36
tp857
aF40.029999999998836
tp858
sg343
((lp859
(F4.2600000000020373
I75
tp860
aF40.029999999998836
tp861
ssba(imeasure_core
ProblemSetSolution
p862
(dp863
g3
g409
sg147
g817
sg150
(dp864
g412
((lp865
(F7.5499999999956344
I24
tp866
aF40.089999999996508
tp867
sg448
((lp868
F42.510000000002037
tp869
sg489
((lp870
(F23.650000000001455
I15
tp871
aF40.230000000003201
tp872
sg534
((lp873
F41.709999999999127
tp874
sg573
((lp875
F40.399999999994179
tp876
ssba(imeasure_core
ProblemSetSolution
p877
(dp878
g3
g4
sg147
S'AnytimeBest-d10_with_LinearHeuristic'
p879
sg150
(dp880
g8
((lp881
F0.62000000000261934
tp882
sg39
((lp883
(F2.0899999999965075
I7
tp884
aF40.430000000000291
tp885
sg92
((lp886
F40.19999999999709
tp887
sg66
((lp888
F40.029999999998836
tp889
sg117
((lp890
F40.110000000000582
tp891
ssba(imeasure_core
ProblemSetSolution
p892
(dp893
g3
g167
sg147
g879
sg150
(dp894
g170
((lp895
F40.020000000004075
tp896
sg209
((lp897
F40.099999999998545
tp898
sg254
((lp899
F40.089999999996508
tp900
sg296
((lp901
F40.060000000004948
tp902
sg343
((lp903
F40.07999999999447
tp904
ssba(imeasure_core
ProblemSetSolution
p905
(dp906
g3
g409
sg147
g879
sg150
(dp907
g412
((lp908
F40.489999999997963
tp909
sg448
((lp910
F41.120000000002619
tp911
sg489
((lp912
F41.139999999999418
tp913
sg534
((lp914
F43.630000000004657
tp915
sg573
((lp916
F41.349999999998545
tp917
ssba(imeasure_core
ProblemSetSolution
p918
(dp919
g3
g4
sg147
S'AnytimeBest-d80_with_LinearHeuristic'
p920
sg150
(dp921
g8
((lp922
(F0.010000000002037268
I20
tp923
aF10.190000000002328
tp924
sg39
((lp925
(F2.0999999999985448
I7
tp926
aF40.169999999998254
tp927
sg92
((lp928
F40.080000000001746
tp929
sg66
((lp930
(F1.3899999999994179
I47
tp931
a(F1.569999999999709
I46
tp932
a(F3.6399999999994179
I45
tp933
a(F5.0800000000017462
I44
tp934
a(F7.1200000000026193
I43
tp935
a(F7.8500000000058208
I42
tp936
a(F9.1900000000023283
I41
tp937
a(F12.870000000002619
I39
tp938
a(F13.620000000002619
I37
tp939
a(F16.290000000000873
I36
tp940
a(F17.220000000001164
I35
tp941
a(F22.440000000002328
I34
tp942
a(F27.080000000001746
I33
tp943
a(F29.540000000000873
I32
tp944
a(F32.760000000002037
I31
tp945
a(F33.819999999999709
I30
tp946
a(F36.350000000005821
I29
tp947
aF40.069999999999709
tp948
sg117
((lp949
F40.05000000000291
tp950
ssba(imeasure_core
ProblemSetSolution
p951
(dp952
g3
g167
sg147
g920
sg150
(dp953
g170
((lp954
(F0.18999999999505235
I12
tp955
aF40.029999999998836
tp956
sg209
((lp957
F40.059999999997672
tp958
sg254
((lp959
F40.020000000004075
tp960
sg296
((lp961
(F0.57999999999447027
I38
tp962
aF40.019999999996799
tp963
sg343
((lp964
(F1.2600000000020373
I31
tp965
a(F2.1200000000026193
I30
tp966
a(F2.9400000000023283
I29
tp967
a(F4.4000000000014552
I28
tp968
a(F5.8400000000037835
I27
tp969
a(F6.9000000000014552
I26
tp970
aF40.05000000000291
tp971
ssba(imeasure_core
ProblemSetSolution
p972
(dp973
g3
g409
sg147
g920
sg150
(dp974
g412
((lp975
F40.150000000001455
tp976
sg448
((lp977
F41.310000000004948
tp978
sg489
((lp979
F40.979999999995925
tp980
sg534
((lp981
F43.5
tp982
sg573
((lp983
F41.470000000001164
tp984
ssba(imeasure_core
ProblemSetSolution
p985
(dp986
g3
g4
sg147
S'AnytimeBest-d150_with_LinearHeuristic'
p987
sg150
(dp988
g8
((lp989
(F0.010000000002037268
I20
tp990
aF10.169999999998254
tp991
sg39
((lp992
(F2.0800000000017462
I7
tp993
aF40.380000000004657
tp994
sg92
((lp995
F40.069999999999709
tp996
sg66
((lp997
(F1.3999999999941792
I47
tp998
a(F1.5799999999944703
I46
tp999
a(F3.6299999999973807
I45
tp1000
a(F5.0599999999976717
I44
tp1001
a(F7.0799999999944703
I43
tp1002
a(F7.7999999999956344
I42
tp1003
a(F9.1499999999941792
I41
tp1004
a(F12.769999999996799
I39
tp1005
a(F13.519999999996799
I37
tp1006
a(F16.180000000000291
I36
tp1007
a(F17.109999999993306
I35
tp1008
a(F22.289999999993597
I34
tp1009
a(F27.0
I33
tp1010
a(F29.44999999999709
I32
tp1011
a(F32.569999999999709
I31
tp1012
a(F33.629999999997381
I30
tp1013
a(F36.229999999995925
I29
tp1014
aF40.069999999999709
tp1015
sg117
((lp1016
F40.059999999997672
tp1017
ssba(imeasure_core
ProblemSetSolution
p1018
(dp1019
g3
g167
sg147
g987
sg150
(dp1020
g170
((lp1021
(F0.19000000000232831
I12
tp1022
aF40.040000000000873
tp1023
sg209
((lp1024
F40.040000000000873
tp1025
sg254
((lp1026
F40.019999999996799
tp1027
sg296
((lp1028
(F0.5900000000037835
I38
tp1029
aF40.029999999998836
tp1030
sg343
((lp1031
(F1.25
I31
tp1032
a(F2.1100000000005821
I30
tp1033
a(F2.930000000000291
I29
tp1034
a(F4.3800000000046566
I28
tp1035
a(F5.819999999999709
I27
tp1036
a(F6.8800000000046566
I26
tp1037
aF40.120000000002619
tp1038
ssba(imeasure_core
ProblemSetSolution
p1039
(dp1040
g3
g409
sg147
g987
sg150
(dp1041
g412
((lp1042
F40.669999999998254
tp1043
sg448
((lp1044
F41.160000000003492
tp1045
sg489
((lp1046
F41.139999999999418
tp1047
sg534
((lp1048
F43.889999999999418
tp1049
sg573
((lp1050
F41.709999999999127
tp1051
ssba(imeasure_core
ProblemSetSolution
p1052
(dp1053
g3
g4
sg147
S'AnytimeBest-d250_with_LinearHeuristic'
p1054
sg150
(dp1055
g8
((lp1056
(F0.010000000002037268
I20
tp1057
aF10.19999999999709
tp1058
sg39
((lp1059
(F2.0900000000037835
I7
tp1060
aF40.160000000003492
tp1061
sg92
((lp1062
F40.080000000001746
tp1063
sg66
((lp1064
(F1.3799999999973807
I47
tp1065
a(F1.5599999999976717
I46
tp1066
a(F3.5899999999965075
I45
tp1067
a(F5.0199999999967986
I44
tp1068
a(F7.069999999999709
I43
tp1069
a(F7.7900000000008731
I42
tp1070
a(F9.1200000000026193
I41
tp1071
a(F12.75
I39
tp1072
a(F13.5
I37
tp1073
a(F16.209999999999127
I36
tp1074
a(F17.129999999997381
I35
tp1075
a(F22.279999999998836
I34
tp1076
a(F26.979999999995925
I33
tp1077
a(F29.440000000002328
I32
tp1078
a(F32.610000000000582
I31
tp1079
a(F33.760000000002037
I30
tp1080
a(F36.319999999999709
I29
tp1081
aF40.059999999997672
tp1082
sg117
((lp1083
F40.5
tp1084
ssba(imeasure_core
ProblemSetSolution
p1085
(dp1086
g3
g167
sg147
g1054
sg150
(dp1087
g170
((lp1088
(F0.18000000000029104
I12
tp1089
aF40.029999999998836
tp1090
sg209
((lp1091
F40.319999999999709
tp1092
sg254
((lp1093
F40.25
tp1094
sg296
((lp1095
(F0.58000000000174623
I38
tp1096
aF40.05000000000291
tp1097
sg343
((lp1098
(F1.2799999999988358
I31
tp1099
a(F2.1499999999941792
I30
tp1100
a(F2.9599999999991269
I29
tp1101
a(F4.4099999999962165
I28
tp1102
a(F5.8499999999985448
I27
tp1103
a(F6.9399999999950523
I26
tp1104
aF40.049999999995634
tp1105
ssba(imeasure_core
ProblemSetSolution
p1106
(dp1107
g3
g409
sg147
g1054
sg150
(dp1108
g412
((lp1109
F41.020000000004075
tp1110
sg448
((lp1111
F41.419999999998254
tp1112
sg489
((lp1113
F41.080000000001746
tp1114
sg534
((lp1115
F43.629999999997381
tp1116
sg573
((lp1117
F41.529999999998836
tp1118
ssba(imeasure_core
ProblemSetSolution
p1119
(dp1120
g3
g4
sg147
S'AnytimeBest-d400_with_LinearHeuristic'
p1121
sg150
(dp1122
g8
((lp1123
(F0.010000000002037268
I20
tp1124
aF10.279999999998836
tp1125
sg39
((lp1126
(F2.0999999999985448
I7
tp1127
aF40.160000000003492
tp1128
sg92
((lp1129
F40.260000000002037
tp1130
sg66
((lp1131
(F1.3799999999973807
I47
tp1132
a(F1.5599999999976717
I46
tp1133
a(F3.5999999999985448
I45
tp1134
a(F5.0299999999988358
I44
tp1135
a(F7.069999999999709
I43
tp1136
a(F7.7799999999988358
I42
tp1137
a(F9.1100000000005821
I41
tp1138
a(F12.769999999996799
I39
tp1139
a(F13.529999999998836
I37
tp1140
a(F16.209999999999127
I36
tp1141
a(F17.139999999999418
I35
tp1142
a(F22.330000000001746
I34
tp1143
a(F26.939999999995052
I33
tp1144
a(F29.44999999999709
I32
tp1145
a(F32.569999999999709
I31
tp1146
a(F33.619999999995343
I30
tp1147
a(F36.129999999997381
I29
tp1148
aF40.049999999995634
tp1149
sg117
((lp1150
F40.540000000000873
tp1151
ssba(imeasure_core
ProblemSetSolution
p1152
(dp1153
g3
g167
sg147
g1121
sg150
(dp1154
g170
((lp1155
(F0.18000000000029104
I12
tp1156
aF40.029999999998836
tp1157
sg209
((lp1158
F40.049999999995634
tp1159
sg254
((lp1160
F40.260000000002037
tp1161
sg296
((lp1162
(F0.56999999999970896
I38
tp1163
aF40.020000000004075
tp1164
sg343
((lp1165
(F1.2699999999967986
I31
tp1166
a(F2.1299999999973807
I30
tp1167
a(F2.9499999999970896
I29
tp1168
a(F4.4199999999982538
I28
tp1169
a(F5.8799999999973807
I27
tp1170
a(F6.9499999999970896
I26
tp1171
aF40.119999999995343
tp1172
ssba(imeasure_core
ProblemSetSolution
p1173
(dp1174
g3
g409
sg147
g1121
sg150
(dp1175
g412
((lp1176
F40.220000000001164
tp1177
sg448
((lp1178
F41.360000000000582
tp1179
sg489
((lp1180
F41.25
tp1181
sg534
((lp1182
F44.019999999996799
tp1183
sg573
((lp1184
F41.720000000001164
tp1185
ssba.