(lp0
(imeasure_core
ProblemSetSolution
p1
(dp2
S'roomset'
p3
(imeasure_core
RoomSet
p4
(dp5
S'rooms'
p6
(dp7
(iproblems
RoomID
p8
(dp9
S'dusts'
p10
I7
sS'obstacles'
p11
(I3
I5
tp12
sS'robots'
p13
I5
sS'height'
p14
I7
sS'width'
p15
I9
sS'seed'
p16
I6924344268699531175
sb(imulti_robot_problem
MultiRobotState
p17
(dp18
S'obstacle_locations'
p19
c__builtin__
frozenset
p20
((lp21
(I2
I6
tp22
a(I1
I6
tp23
a(I3
I6
tp24
ag12
atp25
Rp26
sg15
I9
sS'dirt_locations'
p27
g20
((lp28
(I1
I2
tp29
a(I0
I0
tp30
a(I5
I0
tp31
a(I7
I1
tp32
a(I8
I6
tp33
a(I3
I4
tp34
a(I6
I5
tp35
atp36
Rp37
sg13
((I4
I0
tp38
(I7
I2
tp39
(I1
I1
tp40
(I6
I1
tp41
(I8
I4
tp42
tp43
sg14
I7
sbs(iproblems
RoomID
p44
(dp45
g10
I6
sg11
(I3
I1
tp46
sg13
I4
sg14
I8
sg15
I7
sg16
I807570059310326234
sb(imulti_robot_problem
MultiRobotState
p47
(dp48
g19
g20
((lp49
(I6
I3
tp50
a(I4
I2
tp51
ag46
a(I5
I3
tp52
atp53
Rp54
sg15
I7
sg27
g20
((lp55
(I3
I2
tp56
a(I6
I7
tp57
a(I4
I6
tp58
a(I0
I4
tp59
a(I1
I0
tp60
a(I5
I2
tp61
atp62
Rp63
sg13
((I1
I2
tp64
(I0
I1
tp65
(I3
I7
tp66
(I2
I4
tp67
tp68
sg14
I8
sbs(iproblems
RoomID
p69
(dp70
g10
I6
sg11
(I3
I2
tp71
sg13
I1
sg14
I9
sg15
I10
sg16
I6832892905590973747
sb(imulti_robot_problem
MultiRobotState
p72
(dp73
g19
g20
((lp74
(I3
I0
tp75
a(I2
I0
tp76
ag71
a(I3
I1
tp77
atp78
Rp79
sg15
I10
sg27
g20
((lp80
(I1
I2
tp81
a(I2
I7
tp82
a(I0
I0
tp83
a(I0
I5
tp84
a(I5
I6
tp85
a(I0
I2
tp86
atp87
Rp88
sg13
((I8
I4
tp89
tp90
sg14
I9
sbs(iproblems
RoomID
p91
(dp92
g10
I5
sg11
(I4
I7
tp93
sg13
I3
sg14
I9
sg15
I7
sg16
I2524308075868763041
sb(imulti_robot_problem
MultiRobotState
p94
(dp95
g19
g20
((lp96
(I1
I2
tp97
a(I3
I8
tp98
ag93
a(I4
I6
tp99
a(I4
I1
tp100
a(I2
I4
tp101
a(I3
I5
tp102
atp103
Rp104
sg15
I7
sg27
g20
((lp105
(I2
I6
tp106
a(I5
I2
tp107
a(I3
I3
tp108
a(I0
I7
tp109
a(I3
I6
tp110
atp111
Rp112
sg13
((I0
I6
tp113
(I3
I1
tp114
(I4
I8
tp115
tp116
sg14
I9
sbs(iproblems
RoomID
p117
(dp118
g10
I8
sg11
(I5
I0
tp119
sg13
I4
sg14
I10
sg15
I10
sg16
I3562373307524659409
sb(imulti_robot_problem
MultiRobotState
p120
(dp121
g19
g20
((lp122
(I6
I3
tp123
a(I6
I7
tp124
ag119
a(I3
I6
tp125
a(I8
I1
tp126
a(I7
I0
tp127
a(I6
I0
tp128
atp129
Rp130
sg15
I10
sg27
g20
((lp131
(I1
I3
tp132
a(I2
I9
tp133
a(I7
I6
tp134
a(I7
I7
tp135
a(I8
I9
tp136
a(I1
I8
tp137
a(I1
I6
tp138
a(I2
I2
tp139
atp140
Rp141
sg13
((I9
I8
tp142
(I6
I5
tp143
(I5
I1
tp144
(I8
I8
tp145
tp146
sg14
I10
sbssS'name'
p147
S'easy_roomset'
p148
sbsg147
S"AnytimeBeam-w5-gf(1.5, 'exp')_with_PowerHeuristic2"
p149
sS'solutions'
p150
(dp151
g69
((lp152
(F0.27999999999883585
I44
tp153
a(F1.1999999999970896
I43
tp154
a(F2.099999999998545
I42
tp155
a(F2.9899999999979627
I38
tp156
a(F4.57999999999447
I37
tp157
a(F6.119999999995343
I35
tp158
a(F7.360000000000582
I33
tp159
a(F8.32999999999447
I31
tp160
a(F10.089999999996508
I29
tp161
a(F12.619999999995343
I27
tp162
a(F16.039999999993597
I25
tp163
a(F20.39999999999418
I22
tp164
a(F22.939999999995052
I20
tp165
aF40.0
tp166
sg44
((lp167
F40.53000000000611
tp168
sg8
((lp169
(F1.4199999999982538
I7
tp170
aF40.919999999998254
tp171
sg91
((lp172
(F0.07999999999447027
I7
tp173
aF40.00999999999476
tp174
sg117
((lp175
(F1.4800000000032014
I10
tp176
aF40.09000000000378
tp177
ssba(imeasure_core
ProblemSetSolution
p178
(dp179
g3
(imeasure_core
RoomSet
p180
(dp181
g6
(dp182
(iproblems
RoomID
p183
(dp184
g10
I10
sg11
(I6
I8
tp185
sg13
I3
sg14
I11
sg15
I10
sg16
I7391799147228763464
sb(imulti_robot_problem
MultiRobotState
p186
(dp187
g19
g20
((lp188
(I5
I9
tp189
a(I4
I7
tp190
a(I4
I6
tp191
a(I4
I8
tp192
a(I4
I5
tp193
a(I6
I9
tp194
a(I0
I7
tp195
a(I1
I4
tp196
a(I3
I7
tp197
a(I5
I8
tp198
ag185
a(I2
I7
tp199
a(I3
I8
tp200
a(I4
I9
tp201
a(I3
I3
tp202
a(I9
I2
tp203
a(I6
I3
tp204
a(I3
I6
tp205
a(I1
I7
tp206
a(I0
I9
tp207
a(I7
I8
tp208
a(I0
I2
tp209
a(I1
I9
tp210
atp211
Rp212
sg15
I10
sg27
g20
((lp213
(I8
I3
tp214
a(I5
I10
tp215
a(I5
I5
tp216
a(I2
I8
tp217
a(I7
I6
tp218
a(I6
I0
tp219
a(I2
I10
tp220
a(I9
I4
tp221
a(I1
I10
tp222
a(I0
I3
tp223
atp224
Rp225
sg13
((I3
I10
tp226
(I7
I1
tp227
(I1
I5
tp228
tp229
sg14
I11
sbs(iproblems
RoomID
p230
(dp231
g10
I6
sg11
(I6
I2
tp232
sg13
I3
sg14
I11
sg15
I12
sg16
I6832892905590973747
sb(imulti_robot_problem
MultiRobotState
p233
(dp234
g19
g20
((lp235
(I6
I4
tp236
a(I2
I6
tp237
a(I4
I3
tp238
a(I3
I0
tp239
a(I2
I8
tp240
a(I7
I7
tp241
a(I7
I5
tp242
a(I4
I2
tp243
a(I5
I3
tp244
a(I4
I1
tp245
a(I7
I6
tp246
a(I6
I3
tp247
a(I4
I5
tp248
ag232
a(I3
I6
tp249
a(I8
I6
tp250
a(I4
I0
tp251
a(I5
I2
tp252
a(I2
I4
tp253
atp254
Rp255
sg15
I12
sg27
g20
((lp256
(I1
I6
tp257
a(I6
I8
tp258
a(I2
I9
tp259
a(I0
I3
tp260
a(I0
I2
tp261
a(I7
I9
tp262
atp263
Rp264
sg13
((I10
I6
tp265
(I1
I2
tp266
(I0
I0
tp267
tp268
sg14
I11
sbs(iproblems
RoomID
p269
(dp270
g10
I6
sg11
(I2
I5
tp271
sg13
I4
sg14
I10
sg15
I9
sg16
I807570059310326234
sb(imulti_robot_problem
MultiRobotState
p272
(dp273
g19
g20
((lp274
(I6
I4
tp275
a(I3
I2
tp276
a(I1
I3
tp277
a(I8
I2
tp278
a(I2
I3
tp279
a(I3
I8
tp280
ag271
a(I1
I0
tp281
a(I1
I2
tp282
a(I7
I4
tp283
a(I4
I1
tp284
a(I3
I3
tp285
a(I3
I4
tp286
a(I1
I1
tp287
a(I6
I3
tp288
a(I2
I0
tp289
a(I1
I8
tp290
a(I2
I2
tp291
a(I5
I2
tp292
a(I0
I2
tp293
a(I8
I4
tp294
atp295
Rp296
sg15
I9
sg27
g20
((lp297
(I7
I3
tp298
a(I2
I6
tp299
a(I1
I6
tp300
a(I4
I2
tp301
a(I5
I8
tp302
a(I7
I9
tp303
atp304
Rp305
sg13
((I6
I2
tp306
(I0
I1
tp307
(I3
I9
tp308
(I3
I5
tp309
tp310
sg14
I10
sbs(iproblems
RoomID
p311
(dp312
g10
I8
sg11
(I11
I7
tp313
sg13
I4
sg14
I12
sg15
I12
sg16
I3562373307524659409
sb(imulti_robot_problem
MultiRobotState
p314
(dp315
g19
g20
((lp316
(I6
I4
tp317
a(I6
I9
tp318
a(I3
I2
tp319
a(I9
I1
tp320
a(I6
I6
tp321
a(I5
I6
tp322
a(I9
I8
tp323
a(I3
I11
tp324
a(I7
I1
tp325
ag313
a(I8
I9
tp326
a(I3
I9
tp327
a(I11
I8
tp328
a(I10
I2
tp329
a(I4
I2
tp330
a(I7
I2
tp331
a(I10
I8
tp332
a(I8
I3
tp333
a(I8
I1
tp334
a(I3
I10
tp335
a(I5
I11
tp336
a(I6
I3
tp337
a(I6
I11
tp338
a(I6
I5
tp339
a(I7
I10
tp340
a(I4
I8
tp341
a(I11
I6
tp342
a(I4
I11
tp343
atp344
Rp345
sg15
I12
sg27
g20
((lp346
(I7
I3
tp347
a(I1
I3
tp348
a(I10
I11
tp349
a(I1
I7
tp350
a(I8
I8
tp351
a(I2
I2
tp352
a(I3
I7
tp353
a(I7
I9
tp354
atp355
Rp356
sg13
((I11
I10
tp357
(I7
I6
tp358
(I10
I10
tp359
(I2
I10
tp360
tp361
sg14
I12
sbs(iproblems
RoomID
p362
(dp363
g10
I7
sg11
(I3
I1
tp364
sg13
I4
sg14
I9
sg15
I11
sg16
I6924344268699531175
sb(imulti_robot_problem
MultiRobotState
p365
(dp366
g19
g20
((lp367
(I4
I7
tp368
ag364
a(I6
I6
tp369
a(I5
I6
tp370
a(I2
I8
tp371
a(I9
I8
tp372
a(I7
I7
tp373
a(I0
I7
tp374
a(I7
I5
tp375
a(I8
I7
tp376
a(I0
I3
tp377
a(I0
I8
tp378
a(I8
I5
tp379
a(I6
I3
tp380
a(I5
I2
tp381
a(I7
I6
tp382
a(I4
I8
tp383
a(I7
I4
tp384
a(I3
I8
tp385
a(I0
I6
tp386
a(I8
I8
tp387
a(I4
I1
tp388
a(I9
I7
tp389
atp390
Rp391
sg15
I11
sg27
g20
((lp392
(I8
I3
tp393
a(I1
I3
tp394
a(I4
I6
tp395
a(I4
I3
tp396
a(I0
I4
tp397
a(I10
I5
tp398
a(I0
I0
tp399
atp400
Rp401
sg13
((I6
I0
tp402
(I9
I3
tp403
(I1
I1
tp404
(I8
I1
tp405
tp406
sg14
I9
sbssg147
S'mild_roomset'
p407
sbsg147
g149
sg150
(dp408
g183
((lp409
(F1.7099999999991269
I36
tp410
aF40.0199999999968
tp411
sg230
((lp412
(F0.25
I10
tp413
aF40.04000000000087
tp414
sg269
((lp415
(F26.400000000001455
I108
tp416
aF40.150000000001455
tp417
sg311
((lp418
(F12.519999999996799
I75
tp419
aF40.080000000001746
tp420
sg362
((lp421
F40.07999999999447
tp422
ssba(imeasure_core
ProblemSetSolution
p423
(dp424
g3
(imeasure_core
RoomSet
p425
(dp426
g6
(dp427
(iproblems
RoomID
p428
(dp429
g10
I11
sg11
(I5
I1
tp430
sg13
I7
sg14
I11
sg15
I10
sg16
I807570059310326234
sb(imulti_robot_problem
MultiRobotState
p431
(dp432
g19
g20
((lp433
(I7
I3
tp434
a(I4
I6
tp435
a(I7
I4
tp436
a(I6
I2
tp437
a(I1
I9
tp438
a(I9
I4
tp439
ag430
a(I0
I3
tp440
a(I5
I2
tp441
a(I8
I4
tp442
atp443
Rp444
sg15
I10
sg27
g20
((lp445
(I5
I9
tp446
a(I6
I9
tp447
a(I2
I9
tp448
a(I4
I8
tp449
a(I9
I2
tp450
a(I2
I0
tp451
a(I1
I6
tp452
a(I9
I5
tp453
a(I4
I2
tp454
a(I1
I0
tp455
a(I3
I5
tp456
atp457
Rp458
sg13
((I1
I3
tp459
(I0
I2
tp460
(I4
I10
tp461
(I4
I5
tp462
(I8
I10
tp463
(I8
I3
tp464
(I2
I6
tp465
tp466
sg14
I11
sbs(iproblems
RoomID
p467
(dp468
g10
I12
sg11
(I6
I7
tp469
sg13
I7
sg14
I10
sg15
I12
sg16
I6924344268699531175
sb(imulti_robot_problem
MultiRobotState
p470
(dp471
g19
g20
((lp472
(I4
I7
tp473
ag469
a(I2
I9
tp474
a(I4
I8
tp475
a(I9
I6
tp476
a(I5
I7
tp477
a(I0
I6
tp478
a(I3
I9
tp479
a(I0
I9
tp480
a(I4
I9
tp481
a(I4
I1
tp482
atp483
Rp484
sg15
I12
sg27
g20
((lp485
(I7
I3
tp486
a(I5
I4
tp487
a(I1
I3
tp488
a(I9
I1
tp489
a(I8
I3
tp490
a(I0
I7
tp491
a(I8
I8
tp492
a(I0
I0
tp493
a(I0
I4
tp494
a(I0
I8
tp495
a(I11
I6
tp496
a(I9
I7
tp497
atp498
Rp499
sg13
((I6
I0
tp500
(I10
I4
tp501
(I1
I1
tp502
(I8
I2
tp503
(I11
I5
tp504
(I5
I6
tp505
(I10
I9
tp506
tp507
sg14
I10
sbs(iproblems
RoomID
p508
(dp509
g10
I13
sg11
(I7
I4
tp510
sg13
I6
sg14
I13
sg15
I13
sg16
I3562373307524659409
sb(imulti_robot_problem
MultiRobotState
p511
(dp512
g19
g20
((lp513
(I7
I3
tp514
a(I5
I4
tp515
a(I4
I9
tp516
a(I9
I1
tp517
a(I5
I9
tp518
a(I8
I1
tp519
a(I11
I2
tp520
a(I9
I3
tp521
a(I3
I11
tp522
a(I11
I7
tp523
ag510
a(I10
I1
tp524
a(I3
I10
tp525
a(I10
I5
tp526
a(I8
I2
tp527
atp528
Rp529
sg15
I13
sg27
g20
((lp530
(I8
I3
tp531
a(I3
I12
tp532
a(I4
I8
tp533
a(I6
I10
tp534
a(I9
I9
tp535
a(I12
I6
tp536
a(I8
I9
tp537
a(I1
I8
tp538
a(I4
I3
tp539
a(I2
I2
tp540
a(I4
I2
tp541
a(I11
I12
tp542
a(I2
I4
tp543
atp544
Rp545
sg13
((I12
I11
tp546
(I7
I6
tp547
(I7
I1
tp548
(I10
I11
tp549
(I2
I11
tp550
(I9
I8
tp551
tp552
sg14
I13
sbs(iproblems
RoomID
p553
(dp554
g10
I15
sg11
(I4
I8
tp555
sg13
I6
sg14
I12
sg15
I11
sg16
I7391799147228763464
sb(imulti_robot_problem
MultiRobotState
p556
(dp557
g19
g20
((lp558
(I6
I4
tp559
a(I4
I7
tp560
ag555
a(I5
I6
tp561
a(I2
I8
tp562
a(I5
I7
tp563
a(I6
I9
tp564
a(I4
I2
tp565
a(I9
I2
tp566
a(I1
I6
tp567
a(I10
I7
tp568
a(I8
I6
tp569
a(I2
I4
tp570
atp571
Rp572
sg15
I11
sg27
g20
((lp573
(I7
I0
tp574
a(I10
I4
tp575
a(I6
I11
tp576
a(I7
I6
tp577
a(I1
I4
tp578
a(I8
I9
tp579
a(I1
I8
tp580
a(I3
I9
tp581
a(I0
I10
tp582
a(I9
I4
tp583
a(I7
I10
tp584
a(I1
I10
tp585
a(I4
I3
tp586
a(I0
I3
tp587
a(I0
I2
tp588
atp589
Rp590
sg13
((I4
I6
tp591
(I3
I11
tp592
(I7
I1
tp593
(I2
I5
tp594
(I5
I9
tp595
(I2
I11
tp596
tp597
sg14
I12
sbs(iproblems
RoomID
p598
(dp599
g10
I11
sg11
(I4
I2
tp600
sg13
I5
sg14
I12
sg15
I13
sg16
I6832892905590973747
sb(imulti_robot_problem
MultiRobotState
p601
(dp602
g19
g20
((lp603
(I5
I9
tp604
a(I6
I9
tp605
a(I8
I2
tp606
a(I3
I0
tp607
a(I3
I4
tp608
a(I12
I11
tp609
ag600
a(I4
I1
tp610
a(I4
I0
tp611
atp612
Rp613
sg15
I13
sg27
g20
((lp614
(I2
I7
tp615
a(I9
I0
tp616
a(I6
I8
tp617
a(I4
I5
tp618
a(I2
I8
tp619
a(I8
I10
tp620
a(I2
I10
tp621
a(I1
I7
tp622
a(I3
I7
tp623
a(I2
I5
tp624
a(I0
I8
tp625
atp626
Rp627
sg13
((I11
I6
tp628
(I1
I2
tp629
(I1
I0
tp630
(I0
I3
tp631
(I0
I2
tp632
tp633
sg14
I12
sbssg147
S'heavy_roomset'
p634
sbsg147
g149
sg150
(dp635
g508
((lp636
F40.479999999995925
tp637
sg598
((lp638
(F33.75999999999476
I24
tp639
aF40.65999999999622
tp640
sg553
((lp641
F42.13000000000466
tp642
sg428
((lp643
F48.36000000000058
tp644
sg467
((lp645
F47.41000000000349
tp646
ssba(imeasure_core
ProblemSetSolution
p647
(dp648
g3
g4
sg147
S"AnytimeBeam-w15-gf(1.5, 'exp')_with_PowerHeuristic2"
p649
sg150
(dp650
g69
((lp651
(F0.2900000000008731
I44
tp652
a(F1.2099999999991269
I43
tp653
a(F2.110000000000582
I42
tp654
a(F3.0
I38
tp655
a(F4.5900000000037835
I37
tp656
a(F6.130000000004657
I35
tp657
a(F7.370000000002619
I33
tp658
a(F8.340000000003783
I31
tp659
a(F10.10000000000582
I29
tp660
a(F12.630000000004657
I27
tp661
a(F16.040000000000873
I25
tp662
a(F20.42000000000553
I22
tp663
a(F22.9800000000032
I20
tp664
aF40.0
tp665
sg44
((lp666
F40.12999999999738
tp667
sg8
((lp668
(F1.9399999999950523
I7
tp669
aF40.099999999998545
tp670
sg91
((lp671
(F0.08000000000174623
I7
tp672
aF40.01000000000204
tp673
sg117
((lp674
(F1.4599999999991269
I10
tp675
aF40.01000000000204
tp676
ssba(imeasure_core
ProblemSetSolution
p677
(dp678
g3
g180
sg147
g649
sg150
(dp679
g183
((lp680
(F1.7100000000064028
I36
tp681
aF40.01000000000204
tp682
sg230
((lp683
(F0.25
I10
tp684
aF40.020000000004075
tp685
sg269
((lp686
(F26.589999999996508
I108
tp687
aF40.0
tp688
sg311
((lp689
(F12.559999999997672
I75
tp690
aF40.13999999999942
tp691
sg362
((lp692
F40.11000000000058
tp693
ssba(imeasure_core
ProblemSetSolution
p694
(dp695
g3
g425
sg147
g649
sg150
(dp696
g508
((lp697
F45.78000000000611
tp698
sg598
((lp699
(F33.86000000000058
I24
tp700
aF40.76000000000204
tp701
sg553
((lp702
F42.12999999999738
tp703
sg428
((lp704
F48.56000000000495
tp705
sg467
((lp706
F47.18999999999505
tp707
ssba(imeasure_core
ProblemSetSolution
p708
(dp709
g3
g4
sg147
S"AnytimeBeam-w25-gf(1.5, 'exp')_with_PowerHeuristic2"
p710
sg150
(dp711
g69
((lp712
(F0.2900000000008731
I44
tp713
a(F1.1999999999970896
I43
tp714
a(F2.0899999999965075
I42
tp715
a(F2.970000000001164
I38
tp716
a(F4.540000000000873
I37
tp717
a(F6.059999999997672
I35
tp718
a(F7.290000000000873
I33
tp719
a(F8.25
I31
tp720
a(F9.979999999995925
I29
tp721
a(F12.5
I27
tp722
a(F15.87999999999738
I25
tp723
a(F20.220000000001164
I22
tp724
a(F22.7699999999968
I20
tp725
aF40.0
tp726
sg44
((lp727
F40.220000000001164
tp728
sg8
((lp729
(F2.0099999999947613
I7
tp730
aF40.55999999999767
tp731
sg91
((lp732
(F0.08000000000174623
I7
tp733
aF40.00999999999476
tp734
sg117
((lp735
(F1.4600000000064028
I10
tp736
aF40.150000000001455
tp737
ssba(imeasure_core
ProblemSetSolution
p738
(dp739
g3
g180
sg147
g710
sg150
(dp740
g183
((lp741
(F1.7099999999991269
I36
tp742
aF40.04000000000087
tp743
sg230
((lp744
(F0.25
I10
tp745
aF40.06999999999971
tp746
sg269
((lp747
(F26.580000000001746
I108
tp748
aF40.349999999998545
tp749
sg311
((lp750
(F12.710000000006403
I75
tp751
aF40.26000000000204
tp752
sg362
((lp753
F40.18000000000029
tp754
ssba(imeasure_core
ProblemSetSolution
p755
(dp756
g3
g425
sg147
g710
sg150
(dp757
g508
((lp758
F40.38000000000466
tp759
sg598
((lp760
(F34.11000000000058
I24
tp761
aF40.099999999998545
tp762
sg553
((lp763
F42.0
tp764
sg428
((lp765
F48.69000000000233
tp766
sg467
((lp767
F47.36999999999534
tp768
ssba(imeasure_core
ProblemSetSolution
p769
(dp770
g3
g4
sg147
S"AnytimeBeam-w35-gf(1.5, 'exp')_with_PowerHeuristic2"
p771
sg150
(dp772
g69
((lp773
(F0.27999999999883585
I44
tp774
a(F1.1999999999970896
I43
tp775
a(F2.099999999998545
I42
tp776
a(F2.9899999999979627
I38
tp777
a(F4.569999999999709
I37
tp778
a(F6.110000000000582
I35
tp779
a(F7.349999999998545
I33
tp780
a(F8.309999999997672
I31
tp781
a(F10.049999999995634
I29
tp782
a(F12.589999999996508
I27
tp783
a(F16.0
I25
tp784
a(F20.37999999999738
I22
tp785
a(F22.94000000000233
I20
tp786
aF40.0
tp787
sg44
((lp788
F40.020000000004075
tp789
sg8
((lp790
(F2.290000000000873
I7
tp791
aF40.75999999999476
tp792
sg91
((lp793
(F0.08000000000174623
I7
tp794
aF40.029999999998836
tp795
sg117
((lp796
(F1.4599999999991269
I10
tp797
aF40.080000000001746
tp798
ssba(imeasure_core
ProblemSetSolution
p799
(dp800
g3
g180
sg147
g771
sg150
(dp801
g183
((lp802
(F1.7000000000043656
I36
tp803
aF40.03000000000611
tp804
sg230
((lp805
(F0.25
I10
tp806
aF40.05999999999767
tp807
sg269
((lp808
(F26.68000000000029
I108
tp809
aF40.330000000001746
tp810
sg311
((lp811
(F12.589999999996508
I75
tp812
aF40.169999999998254
tp813
sg362
((lp814
F40.169999999998254
tp815
ssba(imeasure_core
ProblemSetSolution
p816
(dp817
g3
g425
sg147
g771
sg150
(dp818
g508
((lp819
F45.770000000004075
tp820
sg598
((lp821
(F33.86000000000058
I24
tp822
aF40.75999999999476
tp823
sg553
((lp824
F42.099999999998545
tp825
sg428
((lp826
F48.66000000000349
tp827
sg467
((lp828
F47.37999999999738
tp829
ssba(imeasure_core
ProblemSetSolution
p830
(dp831
g3
g4
sg147
S"AnytimeBeam-w45-gf(1.5, 'exp')_with_PowerHeuristic2"
p832
sg150
(dp833
g69
((lp834
(F0.27999999999883585
I44
tp835
a(F1.1900000000023283
I43
tp836
a(F2.0800000000017462
I42
tp837
a(F2.970000000001164
I38
tp838
a(F4.540000000000873
I37
tp839
a(F6.069999999999709
I35
tp840
a(F7.30000000000291
I33
tp841
a(F8.260000000002037
I31
tp842
a(F10.0
I29
tp843
a(F12.520000000004075
I27
tp844
a(F15.900000000001455
I25
tp845
a(F20.260000000002037
I22
tp846
a(F22.80000000000291
I20
tp847
aF40.0
tp848
sg44
((lp849
F40.15999999999622
tp850
sg8
((lp851
(F2.360000000000582
I7
tp852
aF40.35000000000582
tp853
sg91
((lp854
(F0.08000000000174623
I7
tp855
aF40.01000000000204
tp856
sg117
((lp857
(F1.4499999999970896
I10
tp858
aF40.029999999998836
tp859
ssba(imeasure_core
ProblemSetSolution
p860
(dp861
g3
g180
sg147
g832
sg150
(dp862
g183
((lp863
(F1.7099999999991269
I36
tp864
aF40.04000000000087
tp865
sg230
((lp866
(F0.25
I10
tp867
aF40.04000000000087
tp868
sg269
((lp869
(F26.220000000001164
I108
tp870
aF40.23999999999796
tp871
sg311
((lp872
(F12.569999999999709
I75
tp873
aF40.18000000000029
tp874
sg362
((lp875
F40.169999999998254
tp876
ssba(imeasure_core
ProblemSetSolution
p877
(dp878
g3
g425
sg147
g832
sg150
(dp879
g508
((lp880
F40.28000000000611
tp881
sg598
((lp882
(F33.86999999999534
I24
tp883
aF40.7699999999968
tp884
sg553
((lp885
F42.11000000000058
tp886
sg428
((lp887
F48.470000000001164
tp888
sg467
((lp889
F47.299999999995634
tp890
ssba(imeasure_core
ProblemSetSolution
p891
(dp892
g3
g4
sg147
S"AnytimeBeam-w5-gf(1.5, 'exp')_with_LinearHeuristic"
p893
sg150
(dp894
g69
((lp895
(F0.01999999999679858
I20
tp896
aF40.0
tp897
sg44
((lp898
F40.099999999998545
tp899
sg8
((lp900
(F1.1999999999970896
I7
tp901
aF40.69000000000233
tp902
sg91
((lp903
(F4.529999999998836
I47
tp904
a(F9.909999999996217
I46
tp905
a(F21.209999999999127
I45
tp906
a(F32.69999999999709
I44
tp907
aF40.12999999999738
tp908
sg117
((lp909
F40.29000000000087
tp910
ssba(imeasure_core
ProblemSetSolution
p911
(dp912
g3
g180
sg147
g893
sg150
(dp913
g183
((lp914
(F1.7399999999979627
I38
tp915
aF40.049999999995634
tp916
sg230
((lp917
(F0.5
I12
tp918
aF40.06000000000495
tp919
sg269
((lp920
F40.25999999999476
tp921
sg311
((lp922
(F4.630000000004657
I31
tp923
a(F12.980000000003201
I30
tp924
a(F22.210000000006403
I29
tp925
a(F34.700000000004366
I28
tp926
aF40.10000000000582
tp927
sg362
((lp928
F40.25999999999476
tp929
ssba(imeasure_core
ProblemSetSolution
p930
(dp931
g3
g425
sg147
g893
sg150
(dp932
g508
((lp933
F43.51000000000204
tp934
sg598
((lp935
F40.83999999999651
tp936
sg553
((lp937
F46.04000000000087
tp938
sg428
((lp939
F61.12000000000262
tp940
sg467
((lp941
F74.05999999999767
tp942
ssba(imeasure_core
ProblemSetSolution
p943
(dp944
g3
g4
sg147
S"AnytimeBeam-w15-gf(1.5, 'exp')_with_LinearHeuristic"
p945
sg150
(dp946
g69
((lp947
(F0.010000000002037268
I20
tp948
aF40.0
tp949
sg44
((lp950
F40.2899999999936
tp951
sg8
((lp952
(F1.5199999999967986
I7
tp953
aF40.830000000001746
tp954
sg91
((lp955
(F4.67000000000553
I47
tp956
a(F10.130000000004657
I46
tp957
a(F21.42000000000553
I45
tp958
a(F32.87000000000262
I44
tp959
aF40.11000000000058
tp960
sg117
((lp961
F40.24000000000524
tp962
ssba(imeasure_core
ProblemSetSolution
p963
(dp964
g3
g180
sg147
g945
sg150
(dp965
g183
((lp966
(F1.7399999999979627
I38
tp967
aF40.14999999999418
tp968
sg230
((lp969
(F0.5
I12
tp970
aF40.09000000000378
tp971
sg269
((lp972
F40.06999999999971
tp973
sg311
((lp974
(F4.650000000001455
I31
tp975
a(F13.059999999997672
I30
tp976
a(F22.290000000000873
I29
tp977
a(F34.79000000000087
I28
tp978
aF40.0
tp979
sg362
((lp980
F40.36000000000058
tp981
ssba(imeasure_core
ProblemSetSolution
p982
(dp983
g3
g425
sg147
g945
sg150
(dp984
g508
((lp985
F43.599999999998545
tp986
sg598
((lp987
F40.859999999993306
tp988
sg553
((lp989
F45.78000000000611
tp990
sg428
((lp991
F61.04000000000087
tp992
sg467
((lp993
F73.94999999999709
tp994
ssba(imeasure_core
ProblemSetSolution
p995
(dp996
g3
g4
sg147
S"AnytimeBeam-w25-gf(1.5, 'exp')_with_LinearHeuristic"
p997
sg150
(dp998
g69
((lp999
(F0.00999999999476131
I20
tp1000
aF40.0
tp1001
sg44
((lp1002
F40.270000000004075
tp1003
sg8
((lp1004
(F1.6500000000014552
I7
tp1005
aF41.01000000000204
tp1006
sg91
((lp1007
(F4.540000000000873
I47
tp1008
a(F9.89999999999418
I46
tp1009
a(F21.169999999998254
I45
tp1010
a(F32.61000000000058
I44
tp1011
aF40.00999999999476
tp1012
sg117
((lp1013
F40.150000000001455
tp1014
ssba(imeasure_core
ProblemSetSolution
p1015
(dp1016
g3
g180
sg147
g997
sg150
(dp1017
g183
((lp1018
(F1.7399999999979627
I38
tp1019
aF40.049999999995634
tp1020
sg230
((lp1021
(F0.5
I12
tp1022
aF40.10000000000582
tp1023
sg269
((lp1024
F40.14999999999418
tp1025
sg311
((lp1026
(F4.650000000001455
I31
tp1027
a(F13.05000000000291
I30
tp1028
a(F22.290000000000873
I29
tp1029
a(F35.070000000006985
I28
tp1030
aF40.03000000000611
tp1031
sg362
((lp1032
F40.25
tp1033
ssba(imeasure_core
ProblemSetSolution
p1034
(dp1035
g3
g425
sg147
g997
sg150
(dp1036
g508
((lp1037
F43.5
tp1038
sg598
((lp1039
F40.88999999999942
tp1040
sg553
((lp1041
F45.56000000000495
tp1042
sg428
((lp1043
F60.79000000000087
tp1044
sg467
((lp1045
F74.20999999999913
tp1046
ssba(imeasure_core
ProblemSetSolution
p1047
(dp1048
g3
g4
sg147
S"AnytimeBeam-w35-gf(1.5, 'exp')_with_LinearHeuristic"
p1049
sg150
(dp1050
g69
((lp1051
(F0.00999999999476131
I20
tp1052
aF40.0
tp1053
sg44
((lp1054
F40.04000000000087
tp1055
sg8
((lp1056
(F1.9600000000064028
I7
tp1057
aF40.56000000000495
tp1058
sg91
((lp1059
(F4.549999999995634
I47
tp1060
a(F9.889999999999418
I46
tp1061
a(F21.159999999996217
I45
tp1062
a(F32.599999999998545
I44
tp1063
aF40.029999999998836
tp1064
sg117
((lp1065
F40.18000000000029
tp1066
ssba(imeasure_core
ProblemSetSolution
p1067
(dp1068
g3
g180
sg147
g1049
sg150
(dp1069
g183
((lp1070
(F1.7299999999959255
I38
tp1071
aF40.06999999999971
tp1072
sg230
((lp1073
(F0.48999999999796273
I12
tp1074
aF40.109999999993306
tp1075
sg269
((lp1076
F40.2300000000032
tp1077
sg311
((lp1078
(F4.669999999998254
I31
tp1079
a(F13.019999999996799
I30
tp1080
a(F22.239999999997963
I29
tp1081
a(F34.75
I28
tp1082
aF40.13999999999942
tp1083
sg362
((lp1084
F40.20999999999913
tp1085
ssba(imeasure_core
ProblemSetSolution
p1086
(dp1087
g3
g425
sg147
g1049
sg150
(dp1088
g508
((lp1089
F43.36000000000058
tp1090
sg598
((lp1091
F40.73999999999796
tp1092
sg553
((lp1093
F45.63000000000466
tp1094
sg428
((lp1095
F61.349999999998545
tp1096
sg467
((lp1097
F74.54000000000087
tp1098
ssba(imeasure_core
ProblemSetSolution
p1099
(dp1100
g3
g4
sg147
S"AnytimeBeam-w45-gf(1.5, 'exp')_with_LinearHeuristic"
p1101
sg150
(dp1102
g69
((lp1103
(F0.010000000002037268
I20
tp1104
aF40.0
tp1105
sg44
((lp1106
F40.34000000000378
tp1107
sg8
((lp1108
(F2.0899999999965075
I7
tp1109
aF40.0399999999936
tp1110
sg91
((lp1111
(F4.529999999998836
I47
tp1112
a(F9.900000000001455
I46
tp1113
a(F21.18000000000029
I45
tp1114
a(F32.65999999999622
I44
tp1115
aF40.08999999999651
tp1116
sg117
((lp1117
F40.31000000000495
tp1118
ssba(imeasure_core
ProblemSetSolution
p1119
(dp1120
g3
g180
sg147
g1101
sg150
(dp1121
g183
((lp1122
(F1.7399999999979627
I38
tp1123
aF40.150000000001455
tp1124
sg230
((lp1125
(F0.48999999999796273
I12
tp1126
aF40.05999999999767
tp1127
sg269
((lp1128
F40.0199999999968
tp1129
sg311
((lp1130
(F4.639999999999418
I31
tp1131
a(F13.020000000004075
I30
tp1132
a(F22.220000000001164
I29
tp1133
a(F34.76000000000204
I28
tp1134
aF40.16000000000349
tp1135
sg362
((lp1136
F40.48999999999796
tp1137
ssba(imeasure_core
ProblemSetSolution
p1138
(dp1139
g3
g425
sg147
g1101
sg150
(dp1140
g508
((lp1141
F43.65999999999622
tp1142
sg598
((lp1143
F40.86000000000058
tp1144
sg553
((lp1145
F45.84000000000378
tp1146
sg428
((lp1147
F60.94000000000233
tp1148
sg467
((lp1149
F74.16999999999825
tp1150
ssba.