(lp0
(imeasure_core
ProblemSetSolution
p1
(dp2
S'roomset'
p3
(imeasure_core
RoomSet
p4
(dp5
S'rooms'
p6
(dp7
(iproblems
RoomID
p8
(dp9
S'width'
p10
I10
sS'dusts'
p11
I6
sS'seed'
p12
I6832892905590973747
sS'obstacles'
p13
(I3
I2
tp14
sS'robots'
p15
I1
sS'height'
p16
I9
sb(imulti_robot_problem
MultiRobotState
p17
(dp18
S'obstacle_locations'
p19
c__builtin__
frozenset
p20
((lp21
(I3
I0
tp22
a(I2
I0
tp23
ag14
a(I3
I1
tp24
atp25
Rp26
sg10
I10
sS'dirt_locations'
p27
g20
((lp28
(I1
I2
tp29
a(I2
I7
tp30
a(I0
I0
tp31
a(I5
I6
tp32
a(I0
I5
tp33
a(I0
I2
tp34
atp35
Rp36
sg15
((I8
I4
tp37
tp38
sg16
I9
sbs(iproblems
RoomID
p39
(dp40
g10
I9
sg11
I7
sg12
I6924344268699531175
sg13
(I3
I5
tp41
sg15
I5
sg16
I7
sb(imulti_robot_problem
MultiRobotState
p42
(dp43
g19
g20
((lp44
(I2
I6
tp45
a(I1
I6
tp46
a(I3
I6
tp47
ag41
atp48
Rp49
sg10
I9
sg27
g20
((lp50
(I1
I2
tp51
a(I0
I0
tp52
a(I7
I1
tp53
a(I5
I0
tp54
a(I8
I6
tp55
a(I3
I4
tp56
a(I6
I5
tp57
atp58
Rp59
sg15
((I4
I0
tp60
(I7
I2
tp61
(I1
I1
tp62
(I6
I1
tp63
(I8
I4
tp64
tp65
sg16
I7
sbs(iproblems
RoomID
p66
(dp67
g10
I7
sg11
I6
sg12
I807570059310326234
sg13
(I3
I1
tp68
sg15
I4
sg16
I8
sb(imulti_robot_problem
MultiRobotState
p69
(dp70
g19
g20
((lp71
(I6
I3
tp72
a(I4
I2
tp73
ag68
a(I5
I3
tp74
atp75
Rp76
sg10
I7
sg27
g20
((lp77
(I3
I2
tp78
a(I6
I7
tp79
a(I4
I6
tp80
a(I0
I4
tp81
a(I1
I0
tp82
a(I5
I2
tp83
atp84
Rp85
sg15
((I1
I2
tp86
(I0
I1
tp87
(I3
I7
tp88
(I2
I4
tp89
tp90
sg16
I8
sbs(iproblems
RoomID
p91
(dp92
g10
I7
sg11
I5
sg12
I2524308075868763041
sg13
(I4
I7
tp93
sg15
I3
sg16
I9
sb(imulti_robot_problem
MultiRobotState
p94
(dp95
g19
g20
((lp96
(I1
I2
tp97
ag93
a(I4
I6
tp98
a(I3
I8
tp99
a(I4
I1
tp100
a(I2
I4
tp101
a(I3
I5
tp102
atp103
Rp104
sg10
I7
sg27
g20
((lp105
(I2
I6
tp106
a(I5
I2
tp107
a(I3
I3
tp108
a(I0
I7
tp109
a(I3
I6
tp110
atp111
Rp112
sg15
((I0
I6
tp113
(I3
I1
tp114
(I4
I8
tp115
tp116
sg16
I9
sbs(iproblems
RoomID
p117
(dp118
g10
I10
sg11
I8
sg12
I3562373307524659409
sg13
(I5
I0
tp119
sg15
I4
sg16
I10
sb(imulti_robot_problem
MultiRobotState
p120
(dp121
g19
g20
((lp122
(I7
I0
tp123
ag119
a(I8
I1
tp124
a(I6
I0
tp125
a(I6
I3
tp126
a(I3
I6
tp127
a(I6
I7
tp128
atp129
Rp130
sg10
I10
sg27
g20
((lp131
(I1
I3
tp132
a(I2
I9
tp133
a(I7
I6
tp134
a(I7
I7
tp135
a(I8
I9
tp136
a(I1
I8
tp137
a(I1
I6
tp138
a(I2
I2
tp139
atp140
Rp141
sg15
((I9
I8
tp142
(I6
I5
tp143
(I5
I1
tp144
(I8
I8
tp145
tp146
sg16
I10
sbssS'name'
p147
S'easy_roomset'
p148
sbsS'name'
p149
S"AnytimeBeam-w5-gf(1.3, 'exp')_with_PowerHeuristic2"
p150
sS'solutions'
p151
(dp152
g8
((lp153
(F0.060000000004947651
I62
tp154
a(F0.12000000000261934
I42
tp155
a(F3.1900000000023283
I38
tp156
a(F6.1500000000014552
I37
tp157
a(F7.7400000000052387
I35
tp158
a(F9.0200000000040745
I33
tp159
a(F10.010000000002037
I31
tp160
a(F11.819999999999709
I29
tp161
a(F14.430000000000291
I27
tp162
a(F17.940000000002328
I25
tp163
a(F22.440000000002328
I22
tp164
a(F25.060000000004948
I20
tp165
aF40.0
tp166
sg39
((lp167
(F1.4400000000023283
I7
tp168
aF40.260000000002037
tp169
sg66
((lp170
F40.230000000003201
tp171
sg91
((lp172
(F0.019999999996798579
I7
tp173
aF40.019999999996799
tp174
sg117
((lp175
(F0.34999999999854481
I10
tp176
aF40.19999999999709
tp177
ssba(imeasure_core
ProblemSetSolution
p178
(dp179
g3
(imeasure_core
RoomSet
p180
(dp181
S'rooms'
p182
(dp183
(iproblems
RoomID
p184
(dp185
S'width'
p186
I12
sS'dusts'
p187
I6
sS'seed'
p188
I6832892905590973747
sS'obstacles'
p189
(I6
I2
tp190
sS'robots'
p191
I3
sS'height'
p192
I11
sb(imulti_robot_problem
MultiRobotState
p193
(dp194
S'obstacle_locations'
p195
g20
((lp196
(I6
I4
tp197
a(I2
I6
tp198
a(I3
I6
tp199
a(I3
I0
tp200
a(I2
I8
tp201
a(I7
I6
tp202
a(I5
I2
tp203
a(I7
I7
tp204
a(I6
I3
tp205
a(I4
I5
tp206
a(I7
I5
tp207
a(I4
I3
tp208
a(I8
I6
tp209
ag190
a(I4
I2
tp210
a(I4
I0
tp211
a(I4
I1
tp212
a(I2
I4
tp213
a(I5
I3
tp214
atp215
Rp216
sg186
I12
sS'dirt_locations'
p217
g20
((lp218
(I6
I8
tp219
a(I2
I9
tp220
a(I1
I6
tp221
a(I0
I3
tp222
a(I0
I2
tp223
a(I7
I9
tp224
atp225
Rp226
sg191
((I10
I6
tp227
(I1
I2
tp228
(I0
I0
tp229
tp230
sg192
I11
sbs(iproblems
RoomID
p231
(dp232
g186
I11
sg187
I7
sg188
I6924344268699531175
sg189
(I3
I1
tp233
sg191
I4
sg192
I9
sb(imulti_robot_problem
MultiRobotState
p234
(dp235
g195
g20
((lp236
(I4
I7
tp237
a(I6
I6
tp238
a(I5
I6
tp239
a(I2
I8
tp240
a(I9
I8
tp241
a(I7
I7
tp242
a(I0
I7
tp243
a(I0
I3
tp244
a(I8
I5
tp245
a(I3
I8
tp246
a(I7
I6
tp247
a(I4
I8
tp248
a(I6
I3
tp249
a(I4
I1
tp250
a(I9
I7
tp251
a(I7
I5
tp252
a(I8
I7
tp253
a(I0
I8
tp254
ag233
a(I7
I4
tp255
a(I0
I6
tp256
a(I8
I8
tp257
a(I5
I2
tp258
atp259
Rp260
sg186
I11
sg217
g20
((lp261
(I10
I5
tp262
a(I1
I3
tp263
a(I4
I6
tp264
a(I8
I3
tp265
a(I0
I0
tp266
a(I4
I3
tp267
a(I0
I4
tp268
atp269
Rp270
sg191
((I6
I0
tp271
(I9
I3
tp272
(I1
I1
tp273
(I8
I1
tp274
tp275
sg192
I9
sbs(iproblems
RoomID
p276
(dp277
g186
I9
sg187
I6
sg188
I807570059310326234
sg189
(I2
I5
tp278
sg191
I4
sg192
I10
sb(imulti_robot_problem
MultiRobotState
p279
(dp280
g195
g20
((lp281
(I1
I2
tp282
a(I6
I4
tp283
a(I3
I2
tp284
a(I1
I3
tp285
a(I0
I2
tp286
a(I8
I2
tp287
a(I6
I3
tp288
a(I3
I4
tp289
a(I5
I2
tp290
a(I7
I4
tp291
a(I1
I1
tp292
a(I3
I8
tp293
a(I2
I0
tp294
a(I1
I8
tp295
a(I2
I3
tp296
a(I2
I2
tp297
ag278
a(I8
I4
tp298
a(I4
I1
tp299
a(I1
I0
tp300
a(I3
I3
tp301
atp302
Rp303
sg186
I9
sg217
g20
((lp304
(I7
I3
tp305
a(I2
I6
tp306
a(I1
I6
tp307
a(I4
I2
tp308
a(I5
I8
tp309
a(I7
I9
tp310
atp311
Rp312
sg191
((I6
I2
tp313
(I0
I1
tp314
(I3
I9
tp315
(I3
I5
tp316
tp317
sg192
I10
sbs(iproblems
RoomID
p318
(dp319
g186
I12
sg187
I8
sg188
I3562373307524659409
sg189
(I11
I7
tp320
sg191
I4
sg192
I12
sb(imulti_robot_problem
MultiRobotState
p321
(dp322
g195
g20
((lp323
(I6
I9
tp324
a(I9
I1
tp325
a(I6
I6
tp326
a(I5
I6
tp327
a(I9
I8
tp328
a(I3
I11
tp329
a(I8
I9
tp330
a(I7
I2
tp331
a(I10
I8
tp332
a(I8
I1
tp333
a(I3
I10
tp334
a(I5
I11
tp335
a(I6
I3
tp336
a(I4
I11
tp337
a(I7
I10
tp338
a(I6
I4
tp339
a(I3
I2
tp340
a(I7
I1
tp341
a(I6
I11
tp342
a(I3
I9
tp343
a(I4
I2
tp344
a(I6
I5
tp345
ag320
a(I8
I3
tp346
a(I11
I8
tp347
a(I4
I8
tp348
a(I11
I6
tp349
a(I10
I2
tp350
atp351
Rp352
sg186
I12
sg217
g20
((lp353
(I7
I3
tp354
a(I1
I3
tp355
a(I10
I11
tp356
a(I1
I7
tp357
a(I8
I8
tp358
a(I2
I2
tp359
a(I3
I7
tp360
a(I7
I9
tp361
atp362
Rp363
sg191
((I11
I10
tp364
(I7
I6
tp365
(I10
I10
tp366
(I2
I10
tp367
tp368
sg192
I12
sbs(iproblems
RoomID
p369
(dp370
g186
I10
sg187
I10
sg188
I7391799147228763464
sg189
(I6
I8
tp371
sg191
I3
sg192
I11
sb(imulti_robot_problem
MultiRobotState
p372
(dp373
g195
g20
((lp374
(I5
I9
tp375
a(I4
I7
tp376
a(I4
I8
tp377
a(I6
I9
tp378
a(I0
I7
tp379
a(I3
I7
tp380
a(I5
I8
tp381
a(I4
I9
tp382
a(I3
I3
tp383
a(I6
I3
tp384
a(I3
I6
tp385
a(I4
I5
tp386
a(I1
I4
tp387
a(I1
I9
tp388
ag371
a(I2
I7
tp389
a(I4
I6
tp390
a(I9
I2
tp391
a(I3
I8
tp392
a(I1
I7
tp393
a(I0
I9
tp394
a(I7
I8
tp395
a(I0
I2
tp396
atp397
Rp398
sg186
I10
sg217
g20
((lp399
(I8
I3
tp400
a(I5
I10
tp401
a(I5
I5
tp402
a(I2
I8
tp403
a(I7
I6
tp404
a(I6
I0
tp405
a(I2
I10
tp406
a(I9
I4
tp407
a(I1
I10
tp408
a(I0
I3
tp409
atp410
Rp411
sg191
((I3
I10
tp412
(I7
I1
tp413
(I1
I5
tp414
tp415
sg192
I11
sbssS'name'
p416
S'mild_roomset'
p417
sbsg149
g150
sg151
(dp418
g184
((lp419
(F0.069999999999708962
I10
tp420
aF40.0
tp421
sg231
((lp422
(F7.1600000000034925
I106
tp423
a(F11.950000000004366
I79
tp424
aF40.130000000004657
tp425
sg276
((lp426
(F6.4599999999991269
I108
tp427
aF40.080000000001746
tp428
sg318
((lp429
(F4.9599999999991269
I75
tp430
aF40.069999999999709
tp431
sg369
((lp432
(F0.36999999999534339
I36
tp433
aF40.049999999995634
tp434
ssba(imeasure_core
ProblemSetSolution
p435
(dp436
g3
(imeasure_core
RoomSet
p437
(dp438
S'rooms'
p439
(dp440
(iproblems
RoomID
p441
(dp442
S'width'
p443
I13
sS'dusts'
p444
I11
sS'seed'
p445
I6832892905590973747
sS'obstacles'
p446
(I4
I2
tp447
sS'robots'
p448
I5
sS'height'
p449
I12
sb(imulti_robot_problem
MultiRobotState
p450
(dp451
S'obstacle_locations'
p452
g20
((lp453
(I5
I9
tp454
a(I6
I9
tp455
a(I8
I2
tp456
a(I3
I0
tp457
a(I4
I1
tp458
a(I12
I11
tp459
ag447
a(I3
I4
tp460
a(I4
I0
tp461
atp462
Rp463
sg443
I13
sS'dirt_locations'
p464
g20
((lp465
(I2
I7
tp466
a(I9
I0
tp467
a(I6
I8
tp468
a(I4
I5
tp469
a(I2
I8
tp470
a(I8
I10
tp471
a(I2
I10
tp472
a(I1
I7
tp473
a(I3
I7
tp474
a(I2
I5
tp475
a(I0
I8
tp476
atp477
Rp478
sg448
((I11
I6
tp479
(I1
I2
tp480
(I1
I0
tp481
(I0
I3
tp482
(I0
I2
tp483
tp484
sg449
I12
sbs(iproblems
RoomID
p485
(dp486
g443
I12
sg444
I12
sg445
I6924344268699531175
sg446
(I6
I7
tp487
sg448
I7
sg449
I10
sb(imulti_robot_problem
MultiRobotState
p488
(dp489
g452
g20
((lp490
(I4
I7
tp491
ag487
a(I2
I9
tp492
a(I4
I8
tp493
a(I4
I1
tp494
a(I5
I7
tp495
a(I0
I6
tp496
a(I3
I9
tp497
a(I0
I9
tp498
a(I4
I9
tp499
a(I9
I6
tp500
atp501
Rp502
sg443
I12
sg464
g20
((lp503
(I7
I3
tp504
a(I5
I4
tp505
a(I1
I3
tp506
a(I9
I1
tp507
a(I8
I3
tp508
a(I0
I7
tp509
a(I8
I8
tp510
a(I0
I4
tp511
a(I0
I0
tp512
a(I0
I8
tp513
a(I11
I6
tp514
a(I9
I7
tp515
atp516
Rp517
sg448
((I6
I0
tp518
(I10
I4
tp519
(I1
I1
tp520
(I8
I2
tp521
(I11
I5
tp522
(I5
I6
tp523
(I10
I9
tp524
tp525
sg449
I10
sbs(iproblems
RoomID
p526
(dp527
g443
I10
sg444
I11
sg445
I807570059310326234
sg446
(I5
I1
tp528
sg448
I7
sg449
I11
sb(imulti_robot_problem
MultiRobotState
p529
(dp530
g452
g20
((lp531
(I7
I3
tp532
a(I4
I6
tp533
a(I7
I4
tp534
a(I6
I2
tp535
a(I1
I9
tp536
a(I9
I4
tp537
ag528
a(I0
I3
tp538
a(I5
I2
tp539
a(I8
I4
tp540
atp541
Rp542
sg443
I10
sg464
g20
((lp543
(I5
I9
tp544
a(I6
I9
tp545
a(I2
I9
tp546
a(I4
I8
tp547
a(I9
I2
tp548
a(I2
I0
tp549
a(I1
I6
tp550
a(I4
I2
tp551
a(I9
I5
tp552
a(I1
I0
tp553
a(I3
I5
tp554
atp555
Rp556
sg448
((I1
I3
tp557
(I0
I2
tp558
(I4
I10
tp559
(I4
I5
tp560
(I8
I10
tp561
(I8
I3
tp562
(I2
I6
tp563
tp564
sg449
I11
sbs(iproblems
RoomID
p565
(dp566
g443
I13
sg444
I13
sg445
I3562373307524659409
sg446
(I7
I4
tp567
sg448
I6
sg449
I13
sb(imulti_robot_problem
MultiRobotState
p568
(dp569
g452
g20
((lp570
(I7
I3
tp571
a(I5
I4
tp572
a(I4
I9
tp573
a(I9
I1
tp574
a(I5
I9
tp575
a(I8
I1
tp576
a(I11
I2
tp577
a(I9
I3
tp578
a(I3
I11
tp579
a(I11
I7
tp580
ag567
a(I10
I1
tp581
a(I10
I5
tp582
a(I3
I10
tp583
a(I8
I2
tp584
atp585
Rp586
sg443
I13
sg464
g20
((lp587
(I8
I3
tp588
a(I3
I12
tp589
a(I4
I8
tp590
a(I6
I10
tp591
a(I9
I9
tp592
a(I12
I6
tp593
a(I8
I9
tp594
a(I1
I8
tp595
a(I4
I3
tp596
a(I2
I2
tp597
a(I4
I2
tp598
a(I11
I12
tp599
a(I2
I4
tp600
atp601
Rp602
sg448
((I12
I11
tp603
(I7
I6
tp604
(I7
I1
tp605
(I10
I11
tp606
(I2
I11
tp607
(I9
I8
tp608
tp609
sg449
I13
sbs(iproblems
RoomID
p610
(dp611
g443
I11
sg444
I15
sg445
I7391799147228763464
sg446
(I4
I8
tp612
sg448
I6
sg449
I12
sb(imulti_robot_problem
MultiRobotState
p613
(dp614
g452
g20
((lp615
(I6
I4
tp616
a(I4
I7
tp617
ag612
a(I5
I6
tp618
a(I2
I8
tp619
a(I5
I7
tp620
a(I6
I9
tp621
a(I9
I2
tp622
a(I1
I6
tp623
a(I10
I7
tp624
a(I8
I6
tp625
a(I4
I2
tp626
a(I2
I4
tp627
atp628
Rp629
sg443
I11
sg464
g20
((lp630
(I7
I0
tp631
a(I10
I4
tp632
a(I6
I11
tp633
a(I7
I6
tp634
a(I1
I4
tp635
a(I8
I9
tp636
a(I1
I8
tp637
a(I3
I9
tp638
a(I0
I10
tp639
a(I9
I4
tp640
a(I7
I10
tp641
a(I1
I10
tp642
a(I4
I3
tp643
a(I0
I3
tp644
a(I0
I2
tp645
atp646
Rp647
sg448
((I4
I6
tp648
(I3
I11
tp649
(I7
I1
tp650
(I2
I5
tp651
(I5
I9
tp652
(I2
I11
tp653
tp654
sg449
I12
sbssS'name'
p655
S'heavy_roomset'
p656
sbsg149
g150
sg151
(dp657
g441
((lp658
(F5.930000000000291
I24
tp659
aF40.269999999996799
tp660
sg485
((lp661
F55.910000000003492
tp662
sg526
((lp663
F40.580000000001746
tp664
sg565
((lp665
(F19.489999999997963
I15
tp666
aF40.290000000000873
tp667
sg610
((lp668
F40.009999999994761
tp669
ssba(imeasure_core
ProblemSetSolution
p670
(dp671
g3
g4
sg149
S"AnytimeBeam-w15-gf(1.3, 'exp')_with_PowerHeuristic2"
p672
sg151
(dp673
g8
((lp674
(F0.12000000000261934
I54
tp675
a(F0.27999999999883585
I50
tp676
a(F0.86000000000058208
I44
tp677
a(F3.2699999999967986
I43
tp678
a(F4.180000000000291
I42
tp679
a(F5.1100000000005821
I38
tp680
a(F6.7399999999979627
I37
tp681
a(F8.3000000000029104
I35
tp682
a(F9.569999999999709
I33
tp683
a(F10.569999999999709
I31
tp684
a(F12.370000000002619
I29
tp685
a(F15.0
I27
tp686
a(F18.529999999998836
I25
tp687
a(F23.069999999999709
I22
tp688
a(F25.720000000001164
I20
tp689
aF40.0
tp690
sg39
((lp691
(F2.0
I7
tp692
aF40.230000000003201
tp693
sg66
((lp694
F40.169999999998254
tp695
sg91
((lp696
(F0.059999999997671694
I7
tp697
aF40.029999999998836
tp698
sg117
((lp699
(F0.45999999999912689
I10
tp700
aF40.370000000002619
tp701
ssba(imeasure_core
ProblemSetSolution
p702
(dp703
g3
g180
sg149
g672
sg151
(dp704
g184
((lp705
(F0.11000000000058208
I10
tp706
aF40.0
tp707
sg231
((lp708
(F3.9900000000052387
I78
tp709
aF40.040000000000873
tp710
sg276
((lp711
(F4.8600000000005821
I108
tp712
aF40.020000000004075
tp713
sg318
((lp714
(F2.7899999999935972
I75
tp715
aF40.099999999998545
tp716
sg369
((lp717
(F0.5
I36
tp718
aF40.029999999998836
tp719
ssba(imeasure_core
ProblemSetSolution
p720
(dp721
g3
g437
sg149
g672
sg151
(dp722
g441
((lp723
(F7.1299999999973807
I24
tp724
aF40.869999999995343
tp725
sg485
((lp726
F55.819999999999709
tp727
sg526
((lp728
F40.660000000003492
tp729
sg565
((lp730
(F21.260000000002037
I15
tp731
aF40.720000000001164
tp732
sg610
((lp733
(F35.779999999998836
I40
tp734
aF40.839999999996508
tp735
ssba(imeasure_core
ProblemSetSolution
p736
(dp737
g3
g4
sg149
S"AnytimeBeam-w25-gf(1.3, 'exp')_with_PowerHeuristic2"
p738
sg151
(dp739
g8
((lp740
(F0.19000000000232831
I50
tp741
a(F0.44000000000232831
I44
tp742
a(F2.8799999999973807
I43
tp743
a(F3.8099999999976717
I42
tp744
a(F4.7299999999959255
I38
tp745
a(F6.3700000000026193
I37
tp746
a(F7.9499999999970896
I35
tp747
a(F9.2299999999959255
I33
tp748
a(F10.229999999995925
I31
tp749
a(F12.029999999998836
I29
tp750
a(F14.659999999996217
I27
tp751
a(F18.180000000000291
I25
tp752
a(F22.709999999999127
I22
tp753
a(F25.339999999996508
I20
tp754
aF40.0
tp755
sg39
((lp756
(F2.069999999999709
I7
tp757
aF40.360000000000582
tp758
sg66
((lp759
F40.290000000000873
tp760
sg91
((lp761
(F0.059999999997671694
I7
tp762
aF40.019999999996799
tp763
sg117
((lp764
(F0.52000000000407454
I10
tp765
aF40.290000000000873
tp766
ssba(imeasure_core
ProblemSetSolution
p767
(dp768
g3
g180
sg149
g738
sg151
(dp769
g184
((lp770
(F0.13999999999941792
I10
tp771
aF40.009999999994761
tp772
sg231
((lp773
(F5.9800000000032014
I79
tp774
aF40.0
tp775
sg276
((lp776
(F5.5500000000029104
I108
tp777
aF40.020000000004075
tp778
sg318
((lp779
(F3.2399999999979627
I75
tp780
aF40.099999999998545
tp781
sg369
((lp782
(F0.56999999999970896
I36
tp783
aF40.040000000000873
tp784
ssba(imeasure_core
ProblemSetSolution
p785
(dp786
g3
g437
sg149
g738
sg151
(dp787
g441
((lp788
(F7.2999999999956344
I24
tp789
aF40.110000000000582
tp790
sg485
((lp791
F55.909999999996217
tp792
sg526
((lp793
F40.809999999997672
tp794
sg565
((lp795
(F21.430000000000291
I15
tp796
aF41.560000000004948
tp797
sg610
((lp798
(F36.169999999998254
I40
tp799
aF41.220000000001164
tp800
ssba(imeasure_core
ProblemSetSolution
p801
(dp802
g3
g4
sg149
S"AnytimeBeam-w35-gf(1.3, 'exp')_with_PowerHeuristic2"
p803
sg151
(dp804
g8
((lp805
(F0.25999999999476131
I44
tp806
a(F2.7699999999967986
I43
tp807
a(F3.6899999999950523
I42
tp808
a(F4.6299999999973807
I38
tp809
a(F6.2599999999947613
I37
tp810
a(F7.8399999999965075
I35
tp811
a(F9.1100000000005821
I33
tp812
a(F10.110000000000582
I31
tp813
a(F11.909999999996217
I29
tp814
a(F14.5
I27
tp815
a(F17.989999999997963
I25
tp816
a(F22.5
I22
tp817
a(F25.139999999999418
I20
tp818
aF40.0
tp819
sg39
((lp820
(F2.3399999999965075
I7
tp821
aF40.269999999996799
tp822
sg66
((lp823
F40.270000000004075
tp824
sg91
((lp825
(F0.069999999999708962
I7
tp826
aF40.029999999998836
tp827
sg117
((lp828
(F0.61999999999534339
I10
tp829
aF40.279999999998836
tp830
ssba(imeasure_core
ProblemSetSolution
p831
(dp832
g3
g180
sg149
g803
sg151
(dp833
g184
((lp834
(F0.18000000000029104
I10
tp835
aF40.010000000002037
tp836
sg231
((lp837
(F7.2799999999988358
I79
tp838
aF40.019999999996799
tp839
sg276
((lp840
(F6.0100000000020373
I108
tp841
aF40.029999999998836
tp842
sg318
((lp843
(F3.5800000000017462
I75
tp844
aF40.010000000002037
tp845
sg369
((lp846
(F0.65000000000145519
I36
tp847
aF40.059999999997672
tp848
ssba(imeasure_core
ProblemSetSolution
p849
(dp850
g3
g437
sg149
g803
sg151
(dp851
g441
((lp852
(F7.930000000000291
I24
tp853
aF40.19999999999709
tp854
sg485
((lp855
F55.940000000002328
tp856
sg526
((lp857
F40.099999999998545
tp858
sg565
((lp859
(F22.419999999998254
I15
tp860
aF42.669999999998254
tp861
sg610
((lp862
(F37.400000000001455
I40
tp863
aF42.480000000003201
tp864
ssba(imeasure_core
ProblemSetSolution
p865
(dp866
g3
g4
sg149
S"AnytimeBeam-w45-gf(1.3, 'exp')_with_PowerHeuristic2"
p867
sg151
(dp868
g8
((lp869
(F0.26999999999679858
I44
tp870
a(F2.0
I43
tp871
a(F2.9199999999982538
I42
tp872
a(F3.8499999999985448
I38
tp873
a(F5.4799999999959255
I37
tp874
a(F7.0499999999956344
I35
tp875
a(F8.319999999999709
I33
tp876
a(F9.2999999999956344
I31
tp877
a(F11.099999999998545
I29
tp878
a(F13.689999999995052
I27
tp879
a(F17.19999999999709
I25
tp880
a(F21.689999999995052
I22
tp881
a(F24.319999999999709
I20
tp882
aF40.0
tp883
sg39
((lp884
(F2.4399999999950523
I7
tp885
aF40.659999999996217
tp886
sg66
((lp887
F40.180000000000291
tp888
sg91
((lp889
(F0.08000000000174623
I7
tp890
aF40.060000000004948
tp891
sg117
((lp892
(F0.66999999999825377
I10
tp893
aF40.219999999993888
tp894
ssba(imeasure_core
ProblemSetSolution
p895
(dp896
g3
g180
sg149
g867
sg151
(dp897
g184
((lp898
(F0.20000000000436557
I10
tp899
aF40.080000000001746
tp900
sg231
((lp901
(F7.569999999999709
I79
tp902
aF40.010000000002037
tp903
sg276
((lp904
(F6.3600000000005821
I108
tp905
aF40.180000000000291
tp906
sg318
((lp907
(F3.8499999999985448
I75
tp908
aF40.040000000000873
tp909
sg369
((lp910
(F0.68999999999505235
I36
tp911
aF40.0
tp912
ssba(imeasure_core
ProblemSetSolution
p913
(dp914
g3
g437
sg149
g867
sg151
(dp915
g441
((lp916
(F8.1499999999941792
I24
tp917
aF40.209999999999127
tp918
sg485
((lp919
F55.989999999997963
tp920
sg526
((lp921
F40.090000000003783
tp922
sg565
((lp923
(F22.479999999995925
I15
tp924
aF40.139999999999418
tp925
sg610
((lp926
(F37.709999999999127
I40
tp927
aF42.769999999996799
tp928
ssba(imeasure_core
ProblemSetSolution
p929
(dp930
g3
g4
sg149
S"AnytimeBeam-w5-gf(1.3, 'exp')_with_LinearHeuristic"
p931
sg151
(dp932
g8
((lp933
(F0.020000000004074536
I20
tp934
aF40.0
tp935
sg39
((lp936
(F1.2399999999979627
I7
tp937
aF40.349999999998545
tp938
sg66
((lp939
F40.099999999998545
tp940
sg91
((lp941
(F2.9600000000064028
I47
tp942
a(F12.490000000005239
I46
tp943
a(F17.640000000006694
I45
tp944
a(F23.220000000001164
I44
tp945
a(F30.240000000005239
I43
tp946
a(F36.430000000000291
I42
tp947
aF40.040000000000873
tp948
sg117
((lp949
F40.090000000003783
tp950
ssba(imeasure_core
ProblemSetSolution
p951
(dp952
g3
g180
sg149
g931
sg151
(dp953
g184
((lp954
(F0.11999999999534339
I12
tp955
aF40.029999999998836
tp956
sg231
((lp957
F40.019999999996799
tp958
sg276
((lp959
F40.060000000004948
tp960
sg318
((lp961
(F0.58999999999650754
I31
tp962
a(F26.139999999999418
I30
tp963
a(F32.75
I29
tp964
aF40.049999999995634
tp965
sg369
((lp966
(F0.36000000000058208
I38
tp967
aF40.069999999999709
tp968
ssba(imeasure_core
ProblemSetSolution
p969
(dp970
g3
g437
sg149
g931
sg151
(dp971
g441
((lp972
F40.030000000006112
tp973
sg485
((lp974
F47.459999999999127
tp975
sg526
((lp976
F42.309999999997672
tp977
sg565
((lp978
F40.339999999996508
tp979
sg610
((lp980
F40.25
tp981
ssba(imeasure_core
ProblemSetSolution
p982
(dp983
g3
g4
sg149
S"AnytimeBeam-w15-gf(1.3, 'exp')_with_LinearHeuristic"
p984
sg151
(dp985
g8
((lp986
(F0.010000000002037268
I20
tp987
aF40.0
tp988
sg39
((lp989
(F1.5800000000017462
I7
tp990
aF40.040000000000873
tp991
sg66
((lp992
F40.0
tp993
sg91
((lp994
(F0.91999999999825377
I47
tp995
a(F10.889999999999418
I46
tp996
a(F16.559999999997672
I45
tp997
a(F22.069999999999709
I44
tp998
a(F29.419999999998254
I43
tp999
a(F36.169999999998254
I42
tp1000
aF40.020000000004075
tp1001
sg117
((lp1002
F40.059999999997672
tp1003
ssba(imeasure_core
ProblemSetSolution
p1004
(dp1005
g3
g180
sg149
g984
sg151
(dp1006
g184
((lp1007
(F0.20999999999912689
I12
tp1008
aF40.010000000002037
tp1009
sg231
((lp1010
F40.009999999994761
tp1011
sg276
((lp1012
F40.05000000000291
tp1013
sg318
((lp1014
(F0.88999999999941792
I31
tp1015
a(F21.540000000000873
I30
tp1016
a(F27.94999999999709
I29
tp1017
a(F37.299999999995634
I28
tp1018
aF40.069999999999709
tp1019
sg369
((lp1020
(F0.61000000000058208
I38
tp1021
aF40.029999999998836
tp1022
ssba(imeasure_core
ProblemSetSolution
p1023
(dp1024
g3
g437
sg149
g984
sg151
(dp1025
g441
((lp1026
F40.139999999999418
tp1027
sg485
((lp1028
F40.519999999996799
tp1029
sg526
((lp1030
F40.580000000001746
tp1031
sg565
((lp1032
F40.44999999999709
tp1033
sg610
((lp1034
F40.80000000000291
tp1035
ssba(imeasure_core
ProblemSetSolution
p1036
(dp1037
g3
g4
sg149
S"AnytimeBeam-w25-gf(1.3, 'exp')_with_LinearHeuristic"
p1038
sg151
(dp1039
g8
((lp1040
(F0.010000000002037268
I20
tp1041
aF40.0
tp1042
sg39
((lp1043
(F1.6999999999970896
I7
tp1044
aF40.169999999998254
tp1045
sg66
((lp1046
F40.040000000000873
tp1047
sg91
((lp1048
(F1.0
I47
tp1049
a(F8.7399999999979627
I46
tp1050
a(F13.970000000001164
I45
tp1051
a(F19.569999999999709
I44
tp1052
a(F26.860000000000582
I43
tp1053
a(F33.629999999997381
I42
tp1054
aF40.069999999999709
tp1055
sg117
((lp1056
F40.190000000002328
tp1057
ssba(imeasure_core
ProblemSetSolution
p1058
(dp1059
g3
g180
sg149
g1038
sg151
(dp1060
g184
((lp1061
(F0.26999999999679858
I12
tp1062
aF40.009999999994761
tp1063
sg231
((lp1064
F40.180000000000291
tp1065
sg276
((lp1066
F40.120000000002619
tp1067
sg318
((lp1068
(F1.069999999999709
I31
tp1069
a(F24.44999999999709
I30
tp1070
a(F31.489999999997963
I29
tp1071
aF40.110000000000582
tp1072
sg369
((lp1073
(F0.70999999999912689
I38
tp1074
aF40.059999999997672
tp1075
ssba(imeasure_core
ProblemSetSolution
p1076
(dp1077
g3
g437
sg149
g1038
sg151
(dp1078
g441
((lp1079
F40.160000000003492
tp1080
sg485
((lp1081
F40.309999999997672
tp1082
sg526
((lp1083
F41.220000000001164
tp1084
sg565
((lp1085
F40.180000000000291
tp1086
sg610
((lp1087
F40.790000000000873
tp1088
ssba(imeasure_core
ProblemSetSolution
p1089
(dp1090
g3
g4
sg149
S"AnytimeBeam-w35-gf(1.3, 'exp')_with_LinearHeuristic"
p1091
sg151
(dp1092
g8
((lp1093
(F0.010000000002037268
I20
tp1094
aF40.0
tp1095
sg39
((lp1096
(F2.0400000000008731
I7
tp1097
aF40.950000000004366
tp1098
sg66
((lp1099
F40.119999999995343
tp1100
sg91
((lp1101
(F1.1400000000066939
I47
tp1102
a(F7.9800000000032014
I46
tp1103
a(F13.650000000001455
I45
tp1104
a(F19.150000000001455
I44
tp1105
a(F26.5
I43
tp1106
a(F33.240000000005239
I42
tp1107
aF40.020000000004075
tp1108
sg117
((lp1109
F40.129999999997381
tp1110
ssba(imeasure_core
ProblemSetSolution
p1111
(dp1112
g3
g180
sg149
g1091
sg151
(dp1113
g184
((lp1114
(F0.33999999999650754
I12
tp1115
aF40.029999999998836
tp1116
sg231
((lp1117
F40.180000000000291
tp1118
sg276
((lp1119
F40.020000000004075
tp1120
sg318
((lp1121
(F1.319999999999709
I31
tp1122
a(F18.5
I30
tp1123
a(F24.979999999995925
I29
tp1124
a(F34.32999999999447
I28
tp1125
aF40.059999999997672
tp1126
sg369
((lp1127
(F0.83000000000174623
I38
tp1128
aF40.0
tp1129
ssba(imeasure_core
ProblemSetSolution
p1130
(dp1131
g3
g437
sg149
g1091
sg151
(dp1132
g441
((lp1133
F40.629999999997381
tp1134
sg485
((lp1135
F40.779999999998836
tp1136
sg526
((lp1137
F42.139999999999418
tp1138
sg565
((lp1139
F40.150000000001455
tp1140
sg610
((lp1141
F41.05000000000291
tp1142
ssba(imeasure_core
ProblemSetSolution
p1143
(dp1144
g3
g4
sg149
S"AnytimeBeam-w45-gf(1.3, 'exp')_with_LinearHeuristic"
p1145
sg151
(dp1146
g8
((lp1147
(F0.019999999996798579
I20
tp1148
aF40.0
tp1149
sg39
((lp1150
(F2.1699999999982538
I7
tp1151
aF40.279999999998836
tp1152
sg66
((lp1153
F40.069999999999709
tp1154
sg91
((lp1155
(F1.2200000000011642
I47
tp1156
a(F6.6500000000014552
I46
tp1157
a(F12.319999999999709
I45
tp1158
a(F17.809999999997672
I44
tp1159
a(F25.160000000003492
I43
tp1160
a(F31.900000000001455
I42
tp1161
a(F38.989999999997963
I41
tp1162
aF40.029999999998836
tp1163
sg117
((lp1164
F40.020000000004075
tp1165
ssba(imeasure_core
ProblemSetSolution
p1166
(dp1167
g3
g180
sg149
g1145
sg151
(dp1168
g184
((lp1169
(F0.37999999999738066
I12
tp1170
aF40.029999999998836
tp1171
sg231
((lp1172
F40.040000000000873
tp1173
sg276
((lp1174
F40.069999999999709
tp1175
sg318
((lp1176
(F1.5
I31
tp1177
a(F17.029999999998836
I30
tp1178
a(F23.529999999998836
I29
tp1179
a(F32.889999999999418
I28
tp1180
aF40.059999999997672
tp1181
sg369
((lp1182
(F0.91000000000349246
I38
tp1183
aF40.059999999997672
tp1184
ssba(imeasure_core
ProblemSetSolution
p1185
(dp1186
g3
g437
sg149
g1145
sg151
(dp1187
g441
((lp1188
F40.55000000000291
tp1189
sg485
((lp1190
F40.94999999999709
tp1191
sg526
((lp1192
F43.0
tp1193
sg565
((lp1194
F40.040000000000873
tp1195
sg610
((lp1196
F41.310000000004948
tp1197
ssba.