(lp0
(imeasure_core
ProblemSetSolution
p1
(dp2
S'roomset'
p3
(imeasure_core
RoomSet
p4
(dp5
S'rooms'
p6
(dp7
(iproblems
RoomID
p8
(dp9
S'dusts'
p10
I10
sS'obstacles'
p11
(I0
I8
tp12
sS'robots'
p13
I4
sS'height'
p14
I10
sS'width'
p15
I9
sS'seed'
p16
I4712128852136459333
sb(imulti_robot_problem
MultiRobotState
p17
(dp18
S'obstacle_locations'
p19
c__builtin__
frozenset
p20
((lp21
(I0
I6
tp22
ag12
a(I2
I3
tp23
a(I1
I5
tp24
a(I8
I0
tp25
a(I1
I1
tp26
a(I0
I7
tp27
atp28
Rp29
sg15
I9
sS'dirt_locations'
p30
g20
((lp31
(I4
I7
tp32
a(I1
I3
tp33
a(I4
I9
tp34
a(I8
I1
tp35
a(I7
I6
tp36
a(I2
I6
tp37
a(I8
I7
tp38
a(I2
I2
tp39
a(I4
I1
tp40
a(I2
I4
tp41
atp42
Rp43
sg13
((I5
I8
tp44
(I6
I9
tp45
(I5
I0
tp46
(I3
I1
tp47
tp48
sg14
I10
sbs(iproblems
RoomID
p49
(dp50
g10
I9
sg11
(I3
I4
tp51
sg13
I1
sg14
I7
sg15
I8
sg16
I6613812840851947673
sb(imulti_robot_problem
MultiRobotState
p52
(dp53
g19
g20
((lp54
(I3
I5
tp55
ag51
a(I2
I4
tp56
a(I2
I1
tp57
a(I1
I4
tp58
atp59
Rp60
sg15
I8
sg30
g20
((lp61
(I6
I4
tp62
a(I5
I4
tp63
a(I6
I0
tp64
a(I7
I5
tp65
a(I1
I6
tp66
a(I2
I2
tp67
a(I0
I5
tp68
a(I4
I1
tp69
a(I4
I0
tp70
atp71
Rp72
sg13
((I3
I1
tp73
tp74
sg14
I7
sbs(iproblems
RoomID
p75
(dp76
g10
I10
sg11
(I4
I8
tp77
sg13
I4
sg14
I10
sg15
I7
sg16
I956523682424107605
sb(imulti_robot_problem
MultiRobotState
p78
(dp79
g19
g20
((lp80
(I2
I8
tp81
ag77
a(I3
I7
tp82
a(I2
I9
tp83
a(I4
I2
tp84
atp85
Rp86
sg15
I7
sg30
g20
((lp87
(I5
I9
tp88
a(I4
I7
tp89
a(I1
I3
tp90
a(I3
I3
tp91
a(I5
I5
tp92
a(I6
I1
tp93
a(I5
I4
tp94
a(I0
I4
tp95
a(I5
I2
tp96
a(I5
I3
tp97
atp98
Rp99
sg13
((I1
I9
tp100
(I4
I9
tp101
(I1
I8
tp102
(I0
I3
tp103
tp104
sg14
I10
sbs(iproblems
RoomID
p105
(dp106
g10
I9
sg11
(I5
I3
tp107
sg13
I3
sg14
I7
sg15
I8
sg16
I4594210616595436404
sb(imulti_robot_problem
MultiRobotState
p108
(dp109
g19
g20
((lp110
(I0
I1
tp111
a(I3
I3
tp112
a(I4
I3
tp113
a(I4
I2
tp114
a(I6
I1
tp115
ag107
atp116
Rp117
sg15
I8
sg30
g20
((lp118
(I6
I6
tp119
a(I5
I6
tp120
a(I4
I4
tp121
a(I1
I4
tp122
a(I0
I6
tp123
a(I5
I1
tp124
a(I1
I0
tp125
a(I0
I3
tp126
a(I1
I1
tp127
atp128
Rp129
sg13
((I2
I1
tp130
(I3
I4
tp131
(I3
I6
tp132
tp133
sg14
I7
sbs(iproblems
RoomID
p134
(dp135
g10
I10
sg11
(I4
I5
tp136
sg13
I1
sg14
I8
sg15
I8
sg16
I2893396244277848635
sb(imulti_robot_problem
MultiRobotState
p137
(dp138
g19
g20
((lp139
g136
a(I3
I7
tp140
a(I2
I6
tp141
a(I4
I6
tp142
atp143
Rp144
sg15
I8
sg30
g20
((lp145
(I6
I4
tp146
a(I0
I0
tp147
a(I6
I7
tp148
a(I3
I0
tp149
a(I2
I1
tp150
a(I0
I6
tp151
a(I7
I2
tp152
a(I2
I4
tp153
a(I6
I5
tp154
a(I5
I3
tp155
atp156
Rp157
sg13
((I2
I3
tp158
tp159
sg14
I8
sbssS'name'
p160
S'easy_roomset'
p161
sbsg160
S"AnytimeBeam-w5-gf(1.5, 'exp')_with_PowerHeuristic2"
p162
sS'solutions'
p163
(dp164
g8
((lp165
(F1.8299999999981083
I51
tp166
aF40.0
tp167
sg49
((lp168
(F0.090000000000145519
I36
tp169
a(F0.90999999999985448
I30
tp170
a(F1.6300000000010186
I29
tp171
a(F6.5
I28
tp172
a(F12.819999999999709
I27
tp173
a(F25.040000000000873
I26
tp174
a(F35.469999999997526
I25
tp175
aF40.0
tp176
sg75
((lp177
(F1.0499999999992724
I10
tp178
aF40.049999999999272
tp179
sg105
((lp180
(F7.4000000000014552
I26
tp181
aF40.159999999999854
tp182
sg134
((lp183
(F0.36000000000058208
I61
tp184
a(F1.3499999999985448
I57
tp185
a(F2.2599999999983993
I56
tp186
a(F3.4700000000011642
I54
tp187
a(F4.6100000000005821
I52
tp188
a(F6.5800000000017462
I51
tp189
a(F9.4599999999991269
I50
tp190
a(F12.330000000001746
I48
tp191
a(F15.340000000000146
I46
tp192
a(F18.43999999999869
I44
tp193
a(F27.170000000001892
I43
tp194
a(F35.369999999998981
I42
tp195
aF40.0
tp196
ssba(imeasure_core
ProblemSetSolution
p197
(dp198
g3
(imeasure_core
RoomSet
p199
(dp200
g6
(dp201
(iproblems
RoomID
p202
(dp203
g10
I10
sg11
(I8
I7
tp204
sg13
I4
sg14
I12
sg15
I11
sg16
I4712128852136459333
sb(imulti_robot_problem
MultiRobotState
p205
(dp206
g19
g20
((lp207
(I6
I4
tp208
a(I4
I7
tp209
ag204
a(I4
I5
tp210
a(I3
I11
tp211
a(I0
I7
tp212
a(I7
I7
tp213
a(I1
I6
tp214
a(I1
I9
tp215
a(I2
I10
tp216
a(I4
I2
tp217
a(I1
I11
tp218
a(I6
I5
tp219
a(I5
I3
tp220
a(I9
I0
tp221
a(I0
I8
tp222
a(I5
I5
tp223
a(I7
I6
tp224
a(I3
I1
tp225
a(I2
I11
tp226
a(I0
I9
tp227
a(I2
I3
tp228
a(I4
I1
tp229
a(I1
I1
tp230
atp231
Rp232
sg15
I11
sg30
g20
((lp233
(I2
I7
tp234
a(I9
I1
tp235
a(I9
I8
tp236
a(I5
I1
tp237
a(I2
I5
tp238
a(I9
I7
tp239
a(I3
I4
tp240
a(I2
I4
tp241
a(I5
I8
tp242
a(I3
I3
tp243
atp244
Rp245
sg13
((I6
I10
tp246
(I8
I10
tp247
(I7
I0
tp248
(I5
I11
tp249
tp250
sg14
I12
sbs(iproblems
RoomID
p251
(dp252
g10
I9
sg11
(I4
I4
tp253
sg13
I3
sg14
I9
sg15
I10
sg16
I4594210616595436404
sb(imulti_robot_problem
MultiRobotState
p254
(dp255
g19
g20
((lp256
(I1
I3
tp257
a(I3
I0
tp258
a(I2
I1
tp259
a(I1
I6
tp260
a(I9
I4
tp261
a(I3
I7
tp262
a(I0
I3
tp263
a(I1
I2
tp264
a(I5
I5
tp265
a(I1
I5
tp266
a(I7
I6
tp267
ag253
a(I6
I3
tp268
a(I5
I6
tp269
a(I3
I6
tp270
a(I0
I4
tp271
a(I8
I6
tp272
a(I3
I5
tp273
a(I1
I1
tp274
a(I5
I4
tp275
a(I4
I5
tp276
a(I0
I5
tp277
a(I5
I3
tp278
a(I0
I1
tp279
a(I5
I2
tp280
a(I0
I6
tp281
a(I2
I0
tp282
a(I1
I8
tp283
a(I2
I3
tp284
a(I9
I5
tp285
a(I3
I4
tp286
a(I0
I2
tp287
atp288
Rp289
sg15
I10
sg30
g20
((lp290
(I7
I8
tp291
a(I7
I0
tp292
a(I6
I8
tp293
a(I2
I8
tp294
a(I8
I8
tp295
a(I0
I8
tp296
a(I8
I5
tp297
a(I5
I8
tp298
a(I8
I2
tp299
atp300
Rp301
sg13
((I4
I6
tp302
(I2
I5
tp303
(I6
I1
tp304
tp305
sg14
I9
sbs(iproblems
RoomID
p306
(dp307
g10
I6
sg11
(I8
I8
tp308
sg13
I4
sg14
I11
sg15
I12
sg16
I7529058068588108450
sb(imulti_robot_problem
MultiRobotState
p309
(dp310
g19
g20
((lp311
(I5
I9
tp312
a(I6
I9
tp313
a(I2
I6
tp314
a(I3
I2
tp315
a(I9
I1
tp316
a(I4
I10
tp317
a(I6
I6
tp318
a(I7
I7
tp319
a(I7
I1
tp320
a(I4
I6
tp321
a(I10
I4
tp322
a(I7
I5
tp323
a(I6
I8
tp324
a(I3
I7
tp325
a(I5
I8
tp326
a(I8
I2
tp327
a(I5
I5
tp328
a(I7
I6
tp329
a(I4
I4
tp330
a(I7
I4
tp331
a(I1
I5
tp332
ag308
a(I7
I2
tp333
a(I3
I6
tp334
a(I2
I2
tp335
a(I1
I10
tp336
a(I7
I8
tp337
a(I3
I10
tp338
atp339
Rp340
sg15
I12
sg30
g20
((lp341
(I7
I3
tp342
a(I0
I5
tp343
a(I4
I0
tp344
a(I11
I3
tp345
a(I11
I6
tp346
a(I6
I0
tp347
atp348
Rp349
sg13
((I11
I7
tp350
(I6
I2
tp351
(I11
I5
tp352
(I6
I7
tp353
tp354
sg14
I11
sbs(iproblems
RoomID
p355
(dp356
g10
I8
sg11
(I5
I0
tp357
sg13
I4
sg14
I9
sg15
I9
sg16
I6858376947525423350
sb(imulti_robot_problem
MultiRobotState
p358
(dp359
g19
g20
((lp360
(I6
I4
tp361
a(I4
I7
tp362
a(I1
I3
tp363
a(I4
I3
tp364
a(I7
I1
tp365
a(I3
I0
tp366
a(I2
I8
tp367
a(I6
I0
tp368
a(I2
I1
tp369
a(I1
I6
tp370
a(I5
I1
tp371
a(I2
I5
tp372
a(I0
I8
tp373
a(I7
I2
tp374
a(I2
I7
tp375
a(I3
I8
tp376
a(I5
I5
tp377
a(I6
I1
tp378
a(I5
I7
tp379
a(I6
I3
tp380
a(I1
I8
tp381
ag357
a(I2
I2
tp382
a(I2
I3
tp383
a(I3
I4
tp384
a(I2
I4
tp385
atp386
Rp387
sg15
I9
sg30
g20
((lp388
(I8
I3
tp389
a(I7
I0
tp390
a(I4
I6
tp391
a(I6
I6
tp392
a(I7
I5
tp393
a(I8
I0
tp394
a(I8
I8
tp395
a(I8
I4
tp396
atp397
Rp398
sg13
((I1
I1
tp399
(I6
I5
tp400
(I8
I2
tp401
(I1
I5
tp402
tp403
sg14
I9
sbs(iproblems
RoomID
p404
(dp405
g10
I5
sg11
(I4
I9
tp406
sg13
I4
sg14
I11
sg15
I11
sg16
I1881095652490078568
sb(imulti_robot_problem
MultiRobotState
p407
(dp408
g19
g20
((lp409
(I6
I9
tp410
a(I6
I6
tp411
a(I4
I5
tp412
a(I2
I8
tp413
a(I9
I3
tp414
a(I4
I7
tp415
a(I7
I5
tp416
a(I5
I4
tp417
ag406
a(I6
I5
tp418
a(I3
I5
tp419
a(I7
I4
tp420
a(I1
I7
tp421
a(I6
I7
tp422
a(I4
I6
tp423
a(I7
I6
tp424
a(I4
I4
tp425
a(I8
I10
tp426
a(I6
I3
tp427
a(I7
I10
tp428
a(I2
I2
tp429
a(I4
I8
tp430
a(I7
I8
tp431
a(I1
I1
tp432
a(I8
I4
tp433
atp434
Rp435
sg15
I11
sg30
g20
((lp436
(I1
I10
tp437
a(I5
I9
tp438
a(I0
I0
tp439
a(I10
I2
tp440
a(I9
I7
tp441
atp442
Rp443
sg13
((I5
I7
tp444
(I8
I1
tp445
(I3
I1
tp446
(I8
I8
tp447
tp448
sg14
I11
sbssg160
S'mild_roomset'
p449
sbsg160
g162
sg163
(dp450
g202
((lp451
(F3.8499999999985448
I23
tp452
aF40.450000000000728
tp453
sg251
((lp454
F40.239999999997963
tp455
sg404
((lp456
(F0.56000000000130967
I7
tp457
aF40.030000000002474
tp458
sg355
((lp459
(F0.75999999999839929
I16
tp460
aF40.099999999998545
tp461
sg306
((lp462
(F2.930000000000291
I33
tp463
aF40.150000000001455
tp464
ssba(imeasure_core
ProblemSetSolution
p465
(dp466
g3
(imeasure_core
RoomSet
p467
(dp468
g6
(dp469
(iproblems
RoomID
p470
(dp471
g10
I15
sg11
(I5
I9
tp472
sg13
I7
sg14
I13
sg15
I12
sg16
I4712128852136459333
sb(imulti_robot_problem
MultiRobotState
p473
(dp474
g19
g20
((lp475
g472
a(I4
I9
tp476
a(I5
I5
tp477
a(I4
I12
tp478
a(I2
I8
tp479
a(I3
I1
tp480
a(I3
I9
tp481
a(I9
I4
tp482
a(I1
I7
tp483
a(I1
I10
tp484
a(I3
I12
tp485
a(I0
I8
tp486
a(I5
I2
tp487
atp488
Rp489
sg15
I12
sg30
g20
((lp490
(I6
I9
tp491
a(I3
I3
tp492
a(I1
I12
tp493
a(I5
I6
tp494
a(I7
I7
tp495
a(I3
I5
tp496
a(I3
I8
tp497
a(I8
I8
tp498
a(I10
I0
tp499
a(I2
I5
tp500
a(I10
I2
tp501
a(I3
I4
tp502
a(I1
I1
tp503
a(I5
I8
tp504
a(I9
I7
tp505
atp506
Rp507
sg13
((I6
I11
tp508
(I8
I11
tp509
(I7
I0
tp510
(I4
I1
tp511
(I6
I12
tp512
(I10
I9
tp513
(I6
I1
tp514
tp515
sg14
I13
sbs(iproblems
RoomID
p516
(dp517
g10
I14
sg11
(I5
I5
tp518
sg13
I5
sg14
I10
sg15
I11
sg16
I6613812840851947673
sb(imulti_robot_problem
MultiRobotState
p519
(dp520
g19
g20
((lp521
(I4
I7
tp522
a(I2
I6
tp523
a(I6
I6
tp524
a(I4
I5
tp525
a(I7
I5
tp526
a(I1
I6
tp527
a(I8
I7
tp528
a(I3
I7
tp529
a(I10
I3
tp530
a(I3
I5
tp531
a(I10
I8
tp532
a(I6
I3
tp533
ag518
a(I8
I5
tp534
a(I7
I4
tp535
a(I3
I8
tp536
a(I0
I6
tp537
a(I3
I6
tp538
a(I1
I3
tp539
a(I8
I6
tp540
a(I2
I4
tp541
atp542
Rp543
sg15
I11
sg30
g20
((lp544
(I6
I4
tp545
a(I3
I2
tp546
a(I4
I6
tp547
a(I4
I9
tp548
a(I3
I3
tp549
a(I9
I8
tp550
a(I8
I0
tp551
a(I8
I8
tp552
a(I5
I0
tp553
a(I1
I0
tp554
a(I8
I4
tp555
a(I5
I2
tp556
a(I6
I1
tp557
a(I9
I7
tp558
atp559
Rp560
sg13
((I5
I1
tp561
(I0
I8
tp562
(I2
I9
tp563
(I4
I1
tp564
(I7
I6
tp565
tp566
sg14
I10
sbs(iproblems
RoomID
p567
(dp568
g10
I15
sg11
(I4
I8
tp569
sg13
I6
sg14
I13
sg15
I10
sg16
I956523682424107605
sb(imulti_robot_problem
MultiRobotState
p570
(dp571
g19
g20
((lp572
(I5
I9
tp573
a(I6
I9
tp574
a(I7
I10
tp575
ag569
a(I5
I6
tp576
a(I3
I11
tp577
a(I9
I4
tp578
a(I4
I9
tp579
a(I5
I8
tp580
a(I2
I7
tp581
a(I5
I10
tp582
a(I5
I5
tp583
a(I3
I10
tp584
a(I5
I7
tp585
a(I9
I9
tp586
a(I5
I0
tp587
a(I7
I8
tp588
a(I1
I1
tp589
atp590
Rp591
sg15
I10
sg30
g20
((lp592
(I6
I10
tp593
a(I8
I3
tp594
a(I1
I3
tp595
a(I6
I6
tp596
a(I7
I6
tp597
a(I8
I12
tp598
a(I5
I4
tp599
a(I1
I4
tp600
a(I2
I10
tp601
a(I7
I4
tp602
a(I1
I5
tp603
a(I7
I5
tp604
a(I0
I9
tp605
a(I7
I11
tp606
a(I6
I2
tp607
atp608
Rp609
sg13
((I1
I12
tp610
(I6
I12
tp611
(I2
I11
tp612
(I0
I4
tp613
(I9
I1
tp614
(I7
I7
tp615
tp616
sg14
I13
sbs(iproblems
RoomID
p617
(dp618
g10
I13
sg11
(I1
I6
tp619
sg13
I7
sg14
I10
sg15
I10
sg16
I6858376947525423350
sb(imulti_robot_problem
MultiRobotState
p620
(dp621
g19
g20
((lp622
(I4
I7
tp623
a(I1
I3
tp624
a(I2
I8
tp625
a(I2
I2
tp626
a(I2
I1
tp627
a(I2
I3
tp628
a(I9
I5
tp629
a(I2
I5
tp630
a(I2
I7
tp631
a(I2
I9
tp632
a(I8
I1
tp633
ag619
a(I1
I7
tp634
a(I0
I9
tp635
a(I8
I6
tp636
a(I2
I4
tp637
atp638
Rp639
sg15
I10
sg30
g20
((lp640
(I8
I0
tp641
a(I4
I9
tp642
a(I3
I3
tp643
a(I3
I0
tp644
a(I7
I6
tp645
a(I5
I7
tp646
a(I9
I9
tp647
a(I4
I4
tp648
a(I6
I2
tp649
a(I9
I4
tp650
a(I8
I5
tp651
a(I5
I8
tp652
a(I5
I3
tp653
atp654
Rp655
sg13
((I1
I2
tp656
(I7
I5
tp657
(I7
I2
tp658
(I9
I2
tp659
(I1
I5
tp660
(I9
I0
tp661
(I6
I6
tp662
tp663
sg14
I10
sbs(iproblems
RoomID
p664
(dp665
g10
I15
sg11
(I6
I6
tp666
sg13
I5
sg14
I11
sg15
I11
sg16
I2893396244277848635
sb(imulti_robot_problem
MultiRobotState
p667
(dp668
g19
g20
((lp669
(I7
I3
tp670
a(I4
I7
tp671
a(I5
I5
tp672
a(I4
I8
tp673
a(I5
I6
tp674
a(I2
I8
tp675
ag666
a(I3
I2
tp676
a(I3
I9
tp677
a(I4
I3
tp678
a(I1
I7
tp679
a(I6
I9
tp680
atp681
Rp682
sg15
I11
sg30
g20
((lp683
(I2
I6
tp684
a(I8
I7
tp685
a(I3
I10
tp686
a(I3
I1
tp687
a(I2
I10
tp688
a(I0
I5
tp689
a(I6
I5
tp690
a(I3
I6
tp691
a(I8
I6
tp692
a(I4
I0
tp693
a(I3
I7
tp694
a(I7
I9
tp695
a(I4
I1
tp696
a(I5
I8
tp697
a(I5
I3
tp698
atp699
Rp700
sg13
((I4
I5
tp701
(I0
I9
tp702
(I0
I1
tp703
(I9
I2
tp704
(I8
I10
tp705
tp706
sg14
I11
sbssg160
S'heavy_roomset'
p707
sbsg160
g162
sg163
(dp708
g470
((lp709
F40.400000000001455
tp710
sg516
((lp711
F40.559999999997672
tp712
sg567
((lp713
F40.480000000003201
tp714
sg664
((lp715
(F30.75
I27
tp716
aF41.099999999998545
tp717
sg617
((lp718
F41.819999999999709
tp719
ssba(imeasure_core
ProblemSetSolution
p720
(dp721
g3
g4
sg160
S"AnytimeBeam-w15-gf(1.5, 'exp')_with_PowerHeuristic2"
p722
sg163
(dp723
g8
((lp724
(F2.6899999999986903
I51
tp725
aF40.490000000001601
tp726
sg49
((lp727
(F0.090000000000145519
I36
tp728
a(F0.90999999999985448
I30
tp729
a(F1.6299999999973807
I29
tp730
a(F6.5099999999983993
I28
tp731
a(F12.829999999998108
I27
tp732
a(F25.029999999998836
I26
tp733
a(F35.44999999999709
I25
tp734
aF40.0
tp735
sg75
((lp736
(F1.0399999999972351
I10
tp737
aF40.009999999998399
tp738
sg105
((lp739
(F7.4700000000011642
I26
tp740
aF40.06000000000131
tp741
sg134
((lp742
(F0.3599999999969441
I61
tp743
a(F1.3400000000001455
I57
tp744
a(F2.25
I56
tp745
a(F3.4699999999975262
I54
tp746
a(F4.5999999999985448
I52
tp747
a(F6.5599999999976717
I51
tp748
a(F9.4399999999986903
I50
tp749
a(F12.299999999999272
I48
tp750
a(F15.299999999999272
I46
tp751
a(F18.380000000001019
I44
tp752
a(F27.109999999996944
I43
tp753
a(F35.289999999997235
I42
tp754
aF39.999999999996362
tp755
ssba(imeasure_core
ProblemSetSolution
p756
(dp757
g3
g199
sg160
g722
sg163
(dp758
g202
((lp759
(F3.8600000000005821
I23
tp760
aF40.5
tp761
sg251
((lp762
F40.220000000001164
tp763
sg404
((lp764
(F0.55000000000291038
I7
tp765
aF40.020000000004075
tp766
sg355
((lp767
(F0.75999999999476131
I16
tp768
aF40.019999999996799
tp769
sg306
((lp770
(F2.9199999999982538
I33
tp771
aF40.090000000003783
tp772
ssba(imeasure_core
ProblemSetSolution
p773
(dp774
g3
g467
sg160
g722
sg163
(dp775
g470
((lp776
F40.589999999996508
tp777
sg516
((lp778
F40.129999999997381
tp779
sg567
((lp780
F40.55000000000291
tp781
sg664
((lp782
(F30.899999999994179
I27
tp783
aF41.289999999993597
tp784
sg617
((lp785
F41.370000000002619
tp786
ssba(imeasure_core
ProblemSetSolution
p787
(dp788
g3
g4
sg160
S"AnytimeBeam-w25-gf(1.5, 'exp')_with_PowerHeuristic2"
p789
sg163
(dp790
g8
((lp791
(F2.9700000000011642
I51
tp792
aF40.05000000000291
tp793
sg49
((lp794
(F0.08999999999650754
I36
tp795
a(F0.9099999999962165
I30
tp796
a(F1.6299999999973807
I29
tp797
a(F6.5100000000020373
I28
tp798
a(F12.809999999997672
I27
tp799
a(F25.010000000002037
I26
tp800
a(F35.409999999996217
I25
tp801
aF40.0
tp802
sg75
((lp803
(F1.0400000000008731
I10
tp804
aF40.010000000002037
tp805
sg105
((lp806
(F7.4399999999950523
I26
tp807
aF40.039999999993597
tp808
sg134
((lp809
(F0.35000000000582077
I61
tp810
a(F1.3300000000017462
I57
tp811
a(F2.25
I56
tp812
a(F3.4600000000064028
I54
tp813
a(F4.5900000000037835
I52
tp814
a(F6.5500000000029104
I51
tp815
a(F9.4100000000034925
I50
tp816
a(F12.270000000004075
I48
tp817
a(F15.270000000004075
I46
tp818
a(F18.360000000000582
I44
tp819
a(F27.060000000004948
I43
tp820
a(F35.230000000003201
I42
tp821
aF40.0
tp822
ssba(imeasure_core
ProblemSetSolution
p823
(dp824
g3
g199
sg160
g789
sg163
(dp825
g202
((lp826
(F3.8499999999985448
I23
tp827
aF40.090000000003783
tp828
sg251
((lp829
F40.019999999996799
tp830
sg404
((lp831
(F0.55999999999767169
I7
tp832
aF40.120000000002619
tp833
sg355
((lp834
(F0.75
I16
tp835
aF40.05000000000291
tp836
sg306
((lp837
(F2.9499999999970896
I33
tp838
aF40.19999999999709
tp839
ssba(imeasure_core
ProblemSetSolution
p840
(dp841
g3
g467
sg160
g789
sg163
(dp842
g470
((lp843
F40.629999999997381
tp844
sg516
((lp845
F40.69999999999709
tp846
sg567
((lp847
F40.590000000003783
tp848
sg664
((lp849
(F30.790000000000873
I27
tp850
aF41.140000000006694
tp851
sg617
((lp852
F41.659999999996217
tp853
ssba(imeasure_core
ProblemSetSolution
p854
(dp855
g3
g4
sg160
S"AnytimeBeam-w35-gf(1.5, 'exp')_with_PowerHeuristic2"
p856
sg163
(dp857
g8
((lp858
(F3.3000000000029104
I51
tp859
aF40.010000000002037
tp860
sg49
((lp861
(F0.08999999999650754
I36
tp862
a(F0.9099999999962165
I30
tp863
a(F1.6399999999994179
I29
tp864
a(F6.5199999999967986
I28
tp865
a(F12.849999999998545
I27
tp866
a(F25.069999999999709
I26
tp867
a(F35.510000000002037
I25
tp868
aF40.0
tp869
sg75
((lp870
(F1.0500000000029104
I10
tp871
aF40.040000000000873
tp872
sg105
((lp873
(F7.4000000000014552
I26
tp874
aF40.080000000001746
tp875
sg134
((lp876
(F0.34999999999854481
I61
tp877
a(F1.3299999999944703
I57
tp878
a(F2.25
I56
tp879
a(F3.4599999999991269
I54
tp880
a(F4.5899999999965075
I52
tp881
a(F6.5499999999956344
I51
tp882
a(F9.4199999999982538
I50
tp883
a(F12.279999999998836
I48
tp884
a(F15.279999999998836
I46
tp885
a(F18.369999999995343
I44
tp886
a(F27.07999999999447
I43
tp887
a(F35.269999999996799
I42
tp888
aF40.0
tp889
ssba(imeasure_core
ProblemSetSolution
p890
(dp891
g3
g199
sg160
g856
sg163
(dp892
g202
((lp893
(F3.819999999999709
I23
tp894
aF40.309999999997672
tp895
sg251
((lp896
F40.099999999998545
tp897
sg404
((lp898
(F0.54999999999563443
I7
tp899
aF40.129999999997381
tp900
sg355
((lp901
(F0.75
I16
tp902
aF40.069999999999709
tp903
sg306
((lp904
(F2.9199999999982538
I33
tp905
aF40.020000000004075
tp906
ssba(imeasure_core
ProblemSetSolution
p907
(dp908
g3
g467
sg160
g856
sg163
(dp909
g470
((lp910
F40.849999999998545
tp911
sg516
((lp912
F40.529999999998836
tp913
sg567
((lp914
F40.360000000000582
tp915
sg664
((lp916
(F30.720000000001164
I27
tp917
aF41.100000000005821
tp918
sg617
((lp919
F41.44999999999709
tp920
ssba(imeasure_core
ProblemSetSolution
p921
(dp922
g3
g4
sg160
S"AnytimeBeam-w45-gf(1.5, 'exp')_with_PowerHeuristic2"
p923
sg163
(dp924
g8
((lp925
(F3.5399999999935972
I51
tp926
aF40.019999999996799
tp927
sg49
((lp928
(F0.08999999999650754
I36
tp929
a(F0.91000000000349246
I30
tp930
a(F1.6299999999973807
I29
tp931
a(F6.5
I28
tp932
a(F12.80000000000291
I27
tp933
a(F25.019999999996799
I26
tp934
a(F35.44999999999709
I25
tp935
aF40.0
tp936
sg75
((lp937
(F1.0500000000029104
I10
tp938
aF40.139999999999418
tp939
sg105
((lp940
(F7.4000000000014552
I26
tp941
aF40.180000000000291
tp942
sg134
((lp943
(F0.36000000000058208
I61
tp944
a(F1.3400000000037835
I57
tp945
a(F2.25
I56
tp946
a(F3.4599999999991269
I54
tp947
a(F4.5900000000037835
I52
tp948
a(F6.5400000000008731
I51
tp949
a(F9.4000000000014552
I50
tp950
a(F12.25
I48
tp951
a(F15.239999999997963
I46
tp952
a(F18.330000000001746
I44
tp953
a(F27.010000000002037
I43
tp954
a(F35.190000000002328
I42
tp955
aF40.0
tp956
ssba(imeasure_core
ProblemSetSolution
p957
(dp958
g3
g199
sg160
g923
sg163
(dp959
g202
((lp960
(F3.8300000000017462
I23
tp961
aF40.319999999999709
tp962
sg251
((lp963
F40.120000000002619
tp964
sg404
((lp965
(F0.55000000000291038
I7
tp966
aF40.230000000003201
tp967
sg355
((lp968
(F0.76000000000203727
I16
tp969
aF40.069999999999709
tp970
sg306
((lp971
(F2.9099999999962165
I33
tp972
aF40.059999999997672
tp973
ssba(imeasure_core
ProblemSetSolution
p974
(dp975
g3
g467
sg160
g923
sg163
(dp976
g470
((lp977
F40.610000000000582
tp978
sg516
((lp979
F40.649999999994179
tp980
sg567
((lp981
F40.530000000006112
tp982
sg664
((lp983
(F30.629999999997381
I27
tp984
aF40.970000000001164
tp985
sg617
((lp986
F41.519999999996799
tp987
ssba(imeasure_core
ProblemSetSolution
p988
(dp989
g3
g4
sg160
S"AnytimeBeam-w5-gf(1.5, 'exp')_with_LinearHeuristic"
p990
sg163
(dp991
g8
((lp992
F40.029999999998836
tp993
sg49
((lp994
(F0.019999999996798579
I25
tp995
aF40.0
tp996
sg75
((lp997
F40.189999999995052
tp998
sg105
((lp999
(F0.3400000000037835
I8
tp1000
aF40.05000000000291
tp1001
sg134
((lp1002
(F0.029999999998835847
I32
tp1003
a(F0.63999999999941792
I30
tp1004
aF40.010000000002037
tp1005
ssba(imeasure_core
ProblemSetSolution
p1006
(dp1007
g3
g199
sg160
g990
sg163
(dp1008
g202
((lp1009
F40.459999999999127
tp1010
sg251
((lp1011
(F30.430000000000291
I14
tp1012
aF40.010000000002037
tp1013
sg404
((lp1014
(F1.1299999999973807
I7
tp1015
aF40.409999999996217
tp1016
sg355
((lp1017
F40.239999999997963
tp1018
sg306
((lp1019
F40.209999999999127
tp1020
ssba(imeasure_core
ProblemSetSolution
p1021
(dp1022
g3
g467
sg160
g990
sg163
(dp1023
g470
((lp1024
F40.100000000005821
tp1025
sg516
((lp1026
F43.519999999996799
tp1027
sg567
((lp1028
F48.730000000003201
tp1029
sg664
((lp1030
F41.440000000002328
tp1031
sg617
((lp1032
F61.799999999995634
tp1033
ssba(imeasure_core
ProblemSetSolution
p1034
(dp1035
g3
g4
sg160
S"AnytimeBeam-w15-gf(1.5, 'exp')_with_LinearHeuristic"
p1036
sg163
(dp1037
g8
((lp1038
F40.080000000001746
tp1039
sg49
((lp1040
(F0.0099999999947613105
I25
tp1041
aF40.0
tp1042
sg75
((lp1043
F40.349999999998545
tp1044
sg105
((lp1045
(F0.34999999999854481
I8
tp1046
aF40.019999999996799
tp1047
sg134
((lp1048
(F0.029999999998835847
I32
tp1049
a(F0.63999999999941792
I30
tp1050
aF40.010000000002037
tp1051
ssba(imeasure_core
ProblemSetSolution
p1052
(dp1053
g3
g199
sg160
g1036
sg163
(dp1054
g202
((lp1055
F40.379999999997381
tp1056
sg251
((lp1057
(F30.389999999999418
I14
tp1058
aF40.040000000000873
tp1059
sg404
((lp1060
(F1.1300000000046566
I7
tp1061
aF40.440000000002328
tp1062
sg355
((lp1063
F40.029999999998836
tp1064
sg306
((lp1065
F40.180000000000291
tp1066
ssba(imeasure_core
ProblemSetSolution
p1067
(dp1068
g3
g467
sg160
g1036
sg163
(dp1069
g470
((lp1070
F40.220000000001164
tp1071
sg516
((lp1072
F40.099999999998545
tp1073
sg567
((lp1074
F48.989999999997963
tp1075
sg664
((lp1076
F41.470000000001164
tp1077
sg617
((lp1078
F61.80000000000291
tp1079
ssba(imeasure_core
ProblemSetSolution
p1080
(dp1081
g3
g4
sg160
S"AnytimeBeam-w25-gf(1.5, 'exp')_with_LinearHeuristic"
p1082
sg163
(dp1083
g8
((lp1084
F40.19999999999709
tp1085
sg49
((lp1086
(F0.020000000004074536
I25
tp1087
aF40.0
tp1088
sg75
((lp1089
F40.150000000001455
tp1090
sg105
((lp1091
(F0.34999999999854481
I8
tp1092
aF40.010000000002037
tp1093
sg134
((lp1094
(F0.029999999998835847
I32
tp1095
a(F0.63999999999941792
I30
tp1096
aF40.009999999994761
tp1097
ssba(imeasure_core
ProblemSetSolution
p1098
(dp1099
g3
g199
sg160
g1082
sg163
(dp1100
g202
((lp1101
F40.110000000000582
tp1102
sg251
((lp1103
(F30.430000000000291
I14
tp1104
aF40.040000000000873
tp1105
sg404
((lp1106
(F1.1299999999973807
I7
tp1107
aF40.489999999997963
tp1108
sg355
((lp1109
F40.120000000002619
tp1110
sg306
((lp1111
F40.220000000001164
tp1112
ssba(imeasure_core
ProblemSetSolution
p1113
(dp1114
g3
g467
sg160
g1082
sg163
(dp1115
g470
((lp1116
F40.069999999999709
tp1117
sg516
((lp1118
F40.110000000000582
tp1119
sg567
((lp1120
F48.879999999997381
tp1121
sg664
((lp1122
F41.509999999994761
tp1123
sg617
((lp1124
F62.030000000006112
tp1125
ssba(imeasure_core
ProblemSetSolution
p1126
(dp1127
g3
g4
sg160
S"AnytimeBeam-w35-gf(1.5, 'exp')_with_LinearHeuristic"
p1128
sg163
(dp1129
g8
((lp1130
F40.139999999999418
tp1131
sg49
((lp1132
(F0.020000000004074536
I25
tp1133
aF40.0
tp1134
sg75
((lp1135
F40.529999999998836
tp1136
sg105
((lp1137
(F0.3400000000037835
I8
tp1138
aF40.030000000006112
tp1139
sg134
((lp1140
(F0.029999999998835847
I32
tp1141
a(F0.63999999999941792
I30
tp1142
aF40.009999999994761
tp1143
ssba(imeasure_core
ProblemSetSolution
p1144
(dp1145
g3
g199
sg160
g1128
sg163
(dp1146
g202
((lp1147
F40.080000000001746
tp1148
sg251
((lp1149
(F30.410000000003492
I14
tp1150
aF40.010000000002037
tp1151
sg404
((lp1152
(F1.1300000000046566
I7
tp1153
aF40.380000000004657
tp1154
sg355
((lp1155
F40.159999999996217
tp1156
sg306
((lp1157
F40.25
tp1158
ssba(imeasure_core
ProblemSetSolution
p1159
(dp1160
g3
g467
sg160
g1128
sg163
(dp1161
g470
((lp1162
F40.240000000005239
tp1163
sg516
((lp1164
F43.569999999999709
tp1165
sg567
((lp1166
F48.75
tp1167
sg664
((lp1168
F41.599999999998545
tp1169
sg617
((lp1170
F62.089999999996508
tp1171
ssba(imeasure_core
ProblemSetSolution
p1172
(dp1173
g3
g4
sg160
S"AnytimeBeam-w45-gf(1.5, 'exp')_with_LinearHeuristic"
p1174
sg163
(dp1175
g8
((lp1176
F40.100000000005821
tp1177
sg49
((lp1178
(F0.019999999996798579
I25
tp1179
aF40.0
tp1180
sg75
((lp1181
F40.610000000000582
tp1182
sg105
((lp1183
(F0.33999999999650754
I8
tp1184
aF40.049999999995634
tp1185
sg134
((lp1186
(F0.029999999998835847
I32
tp1187
a(F0.63999999999941792
I30
tp1188
aF40.010000000002037
tp1189
ssba(imeasure_core
ProblemSetSolution
p1190
(dp1191
g3
g199
sg160
g1174
sg163
(dp1192
g202
((lp1193
F41.150000000001455
tp1194
sg251
((lp1195
(F30.239999999997963
I14
tp1196
aF40.029999999998836
tp1197
sg404
((lp1198
(F1.1299999999973807
I7
tp1199
aF40.430000000000291
tp1200
sg355
((lp1201
F40.040000000000873
tp1202
sg306
((lp1203
F40.129999999997381
tp1204
ssba(imeasure_core
ProblemSetSolution
p1205
(dp1206
g3
g467
sg160
g1174
sg163
(dp1207
g470
((lp1208
F40.180000000000291
tp1209
sg516
((lp1210
F40.139999999999418
tp1211
sg567
((lp1212
F48.889999999999418
tp1213
sg664
((lp1214
F41.709999999999127
tp1215
sg617
((lp1216
F62.260000000002037
tp1217
ssba.