(lp0
(imeasure_core
ProblemSetSolution
p1
(dp2
S'roomset'
p3
(imeasure_core
RoomSet
p4
(dp5
S'rooms'
p6
(dp7
(iproblems
RoomID
p8
(dp9
S'dusts'
p10
I8
sS'obstacles'
p11
(I2
I8
tp12
sS'robots'
p13
I4
sS'height'
p14
I10
sS'width'
p15
I7
sS'seed'
p16
I7106521602475165645
sb(imulti_robot_problem
MultiRobotState
p17
(dp18
S'obstacle_locations'
p19
c__builtin__
frozenset
p20
((lp21
(I3
I8
tp22
a(I5
I9
tp23
a(I4
I9
tp24
ag12
a(I5
I2
tp25
a(I5
I8
tp26
atp27
Rp28
sg15
I7
sS'dirt_locations'
p29
g20
((lp30
(I1
I2
tp31
a(I2
I7
tp32
a(I0
I0
tp33
a(I3
I1
tp34
a(I6
I0
tp35
a(I2
I1
tp36
a(I2
I3
tp37
a(I2
I5
tp38
atp39
Rp40
sg13
((I0
I8
tp41
(I4
I5
tp42
(I3
I9
tp43
(I1
I8
tp44
tp45
sg14
I10
sbs(iproblems
RoomID
p46
(dp47
g10
I10
sg11
(I3
I3
tp48
sg13
I4
sg14
I10
sg15
I8
sg16
I746805015404516437
sb(imulti_robot_problem
MultiRobotState
p49
(dp50
g19
g20
((lp51
(I7
I4
tp52
ag48
a(I4
I2
tp53
a(I6
I1
tp54
a(I3
I1
tp55
a(I4
I1
tp56
a(I1
I4
tp57
atp58
Rp59
sg15
I8
sg29
g20
((lp60
(I4
I6
tp61
a(I6
I3
tp62
a(I2
I0
tp63
a(I3
I9
tp64
a(I2
I3
tp65
a(I3
I6
tp66
a(I5
I1
tp67
a(I1
I0
tp68
a(I0
I8
tp69
a(I5
I8
tp70
atp71
Rp72
sg13
((I3
I8
tp73
(I4
I8
tp74
(I4
I9
tp75
(I0
I3
tp76
tp77
sg14
I10
sbs(iproblems
RoomID
p78
(dp79
g10
I5
sg11
(I4
I5
tp80
sg13
I1
sg14
I9
sg15
I8
sg16
I6604845167042249220
sb(imulti_robot_problem
MultiRobotState
p81
(dp82
g19
g20
((lp83
(I7
I4
tp84
ag80
a(I5
I4
tp85
a(I6
I1
tp86
a(I6
I5
tp87
atp88
Rp89
sg15
I8
sg29
g20
((lp90
(I2
I8
tp91
a(I1
I0
tp92
a(I1
I1
tp93
a(I4
I3
tp94
a(I4
I8
tp95
atp96
Rp97
sg13
((I3
I6
tp98
tp99
sg14
I9
sbs(iproblems
RoomID
p100
(dp101
g10
I6
sg11
(I7
I4
tp102
sg13
I2
sg14
I7
sg15
I9
sg16
I4029557120079369747
sb(imulti_robot_problem
MultiRobotState
p103
(dp104
g19
g20
((lp105
g102
a(I7
I5
tp106
a(I4
I1
tp107
a(I6
I1
tp108
a(I8
I5
tp109
a(I8
I4
tp110
atp111
Rp112
sg15
I9
sg29
g20
((lp113
(I2
I6
tp114
a(I6
I6
tp115
a(I3
I0
tp116
a(I2
I5
tp117
a(I1
I1
tp118
a(I5
I3
tp119
atp120
Rp121
sg13
((I6
I0
tp122
(I3
I1
tp123
tp124
sg14
I7
sbs(iproblems
RoomID
p125
(dp126
g10
I9
sg11
(I7
I6
tp127
sg13
I5
sg14
I9
sg15
I9
sg16
I8963783824838420066
sb(imulti_robot_problem
MultiRobotState
p128
(dp129
g19
g20
((lp130
(I2
I7
tp131
a(I5
I5
tp132
a(I6
I6
tp133
ag127
a(I4
I4
tp134
a(I7
I1
tp135
a(I7
I5
tp136
a(I2
I2
tp137
a(I6
I5
tp138
atp139
Rp140
sg15
I9
sg29
g20
((lp141
(I3
I0
tp142
a(I2
I1
tp143
a(I6
I3
tp144
a(I0
I7
tp145
a(I3
I7
tp146
a(I8
I6
tp147
a(I0
I8
tp148
a(I8
I5
tp149
a(I7
I2
tp150
atp151
Rp152
sg13
((I7
I7
tp153
(I2
I4
tp154
(I3
I2
tp155
(I4
I7
tp156
(I5
I0
tp157
tp158
sg14
I9
sbssS'name'
p159
S'easy_roomset'
p160
sbsg159
S'LimitedTimeAStar_with_PowerHeuristic2'
p161
sS'solutions'
p162
(dp163
g8
((lp164
F2.1999999999999997
tp165
sg46
((lp166
F1.4300000000000002
tp167
sg78
((lp168
F0.06999999999999984
tp169
sg125
((lp170
F1.3699999999999997
tp171
sg100
((lp172
F0.030000000000000249
tp173
ssba(imeasure_core
ProblemSetSolution
p174
(dp175
g3
(imeasure_core
RoomSet
p176
(dp177
g6
(dp178
(iproblems
RoomID
p179
(dp180
g10
I6
sg11
(I5
I8
tp181
sg13
I3
sg14
I9
sg15
I11
sg16
I4029557120079369747
sb(imulti_robot_problem
MultiRobotState
p182
(dp183
g19
g20
((lp184
(I7
I3
tp185
a(I1
I3
tp186
a(I4
I8
tp187
a(I10
I6
tp188
a(I7
I1
tp189
a(I1
I4
tp190
a(I3
I7
tp191
a(I5
I1
tp192
a(I2
I5
tp193
a(I8
I5
tp194
ag181
a(I10
I5
tp195
a(I4
I6
tp196
a(I10
I7
tp197
a(I9
I6
tp198
a(I6
I1
tp199
a(I4
I4
tp200
a(I6
I3
tp201
a(I3
I6
tp202
a(I1
I7
tp203
a(I9
I5
tp204
a(I2
I4
tp205
a(I8
I4
tp206
atp207
Rp208
sg15
I11
sg29
g20
((lp209
(I3
I8
tp210
a(I8
I8
tp211
a(I7
I2
tp212
a(I5
I2
tp213
a(I1
I1
tp214
a(I2
I1
tp215
atp216
Rp217
sg13
((I8
I0
tp218
(I3
I1
tp219
(I4
I0
tp220
tp221
sg14
I9
sbs(iproblems
RoomID
p222
(dp223
g10
I10
sg11
(I4
I4
tp224
sg13
I4
sg14
I12
sg15
I12
sg16
I2569146471088859254
sb(imulti_robot_problem
MultiRobotState
p225
(dp226
g19
g20
((lp227
(I5
I4
tp228
a(I4
I8
tp229
a(I4
I5
tp230
a(I11
I2
tp231
a(I4
I7
tp232
a(I1
I9
tp233
a(I10
I3
tp234
a(I5
I8
tp235
a(I5
I5
tp236
a(I3
I3
tp237
ag224
a(I2
I11
tp238
a(I5
I6
tp239
a(I7
I2
tp240
a(I4
I3
tp241
a(I2
I2
tp242
a(I10
I0
tp243
a(I5
I11
tp244
a(I1
I1
tp245
atp246
Rp247
sg15
I12
sg29
g20
((lp248
(I2
I7
tp249
a(I10
I10
tp250
a(I3
I0
tp251
a(I3
I11
tp252
a(I0
I2
tp253
a(I1
I5
tp254
a(I9
I4
tp255
a(I0
I8
tp256
a(I2
I4
tp257
a(I11
I6
tp258
atp259
Rp260
sg13
((I9
I11
tp261
(I7
I10
tp262
(I6
I0
tp263
(I10
I1
tp264
tp265
sg14
I12
sbs(iproblems
RoomID
p266
(dp267
g10
I6
sg11
(I4
I5
tp268
sg13
I3
sg14
I12
sg15
I12
sg16
I1360307757430227195
sb(imulti_robot_problem
MultiRobotState
p269
(dp270
g19
g20
((lp271
(I6
I4
tp272
a(I3
I2
tp273
a(I10
I4
tp274
a(I3
I0
tp275
a(I5
I4
tp276
a(I7
I5
tp277
a(I5
I1
tp278
a(I8
I5
tp279
a(I6
I5
tp280
a(I4
I0
tp281
a(I7
I4
tp282
a(I8
I3
tp283
a(I6
I7
tp284
a(I5
I5
tp285
a(I8
I10
tp286
a(I6
I3
tp287
a(I5
I6
tp288
a(I6
I2
tp289
ag268
a(I9
I5
tp290
a(I5
I3
tp291
atp292
Rp293
sg15
I12
sg29
g20
((lp294
(I3
I3
tp295
a(I4
I3
tp296
a(I9
I2
tp297
a(I5
I7
tp298
a(I0
I2
tp299
a(I11
I6
tp300
atp301
Rp302
sg13
((I11
I11
tp303
(I1
I3
tp304
(I0
I1
tp305
tp306
sg14
I12
sbs(iproblems
RoomID
p307
(dp308
g10
I6
sg11
(I2
I4
tp309
sg13
I3
sg14
I10
sg15
I10
sg16
I1821862095355237593
sb(imulti_robot_problem
MultiRobotState
p310
(dp311
g19
g20
((lp312
(I6
I4
tp313
a(I4
I7
tp314
a(I2
I6
tp315
a(I5
I6
tp316
a(I6
I0
tp317
a(I1
I9
tp318
a(I8
I5
tp319
a(I7
I2
tp320
a(I7
I9
tp321
a(I5
I3
tp322
a(I6
I7
tp323
a(I3
I3
tp324
a(I5
I5
tp325
a(I4
I4
tp326
a(I6
I3
tp327
a(I4
I5
tp328
a(I6
I5
tp329
a(I4
I3
tp330
a(I0
I4
tp331
a(I8
I6
tp332
a(I3
I5
tp333
a(I3
I4
tp334
ag309
atp335
Rp336
sg15
I10
sg29
g20
((lp337
(I0
I6
tp338
a(I7
I0
tp339
a(I5
I1
tp340
a(I2
I3
tp341
a(I2
I8
tp342
a(I9
I6
tp343
atp344
Rp345
sg13
((I2
I2
tp346
(I4
I2
tp347
(I0
I7
tp348
tp349
sg14
I10
sbs(iproblems
RoomID
p350
(dp351
g10
I7
sg11
(I5
I4
tp352
sg13
I3
sg14
I11
sg15
I12
sg16
I2577854692418029171
sb(imulti_robot_problem
MultiRobotState
p353
(dp354
g19
g20
((lp355
(I4
I7
tp356
a(I3
I0
tp357
a(I8
I0
tp358
a(I2
I1
tp359
a(I6
I2
tp360
a(I1
I6
tp361
a(I5
I1
tp362
a(I4
I0
tp363
a(I1
I2
tp364
a(I4
I9
tp365
a(I3
I3
tp366
a(I8
I1
tp367
a(I3
I10
tp368
a(I6
I3
tp369
a(I3
I6
tp370
a(I1
I10
tp371
a(I8
I6
tp372
a(I3
I5
tp373
ag352
a(I2
I6
tp374
a(I7
I1
tp375
a(I6
I0
tp376
a(I1
I9
tp377
a(I4
I2
tp378
a(I0
I8
tp379
a(I5
I3
tp380
a(I0
I1
tp381
a(I7
I0
tp382
a(I5
I2
tp383
a(I6
I1
tp384
a(I3
I1
tp385
a(I3
I8
tp386
a(I3
I4
tp387
a(I2
I4
tp388
atp389
Rp390
sg15
I12
sg29
g20
((lp391
(I4
I10
tp392
a(I10
I5
tp393
a(I10
I1
tp394
a(I2
I8
tp395
a(I7
I6
tp396
a(I4
I4
tp397
a(I9
I7
tp398
atp399
Rp400
sg13
((I10
I6
tp401
(I1
I4
tp402
(I11
I8
tp403
tp404
sg14
I11
sbssg159
S'mild_roomset'
p405
sbsg159
g161
sg162
(dp406
g179
((lp407
F0.19999999999999929
tp408
sg222
((lp409
F7.2800000000000002
tp410
sg350
((lp411
F0.39000000000010004
tp412
sg307
((lp413
F0.12000000000000455
tp414
sg266
((lp415
F600.50999999999999
tp416
ssba(imeasure_core
ProblemSetSolution
p417
(dp418
g3
(imeasure_core
RoomSet
p419
(dp420
g6
(dp421
(iproblems
RoomID
p422
(dp423
g10
I13
sg11
(I5
I3
tp424
sg13
I6
sg14
I13
sg15
I10
sg16
I7106521602475165645
sb(imulti_robot_problem
MultiRobotState
p425
(dp426
g19
g20
((lp427
(I5
I6
tp428
a(I5
I11
tp429
a(I7
I12
tp430
a(I0
I12
tp431
a(I2
I3
tp432
a(I6
I12
tp433
a(I7
I2
tp434
ag424
a(I1
I2
tp435
a(I4
I5
tp436
a(I8
I12
tp437
a(I7
I1
tp438
a(I2
I11
tp439
a(I6
I3
tp440
a(I6
I11
tp441
a(I0
I4
tp442
a(I0
I9
tp443
a(I0
I5
tp444
a(I3
I4
tp445
atp446
Rp447
sg15
I10
sg29
g20
((lp448
(I0
I1
tp449
a(I8
I3
tp450
a(I4
I6
tp451
a(I7
I11
tp452
a(I6
I9
tp453
a(I0
I11
tp454
a(I3
I9
tp455
a(I2
I12
tp456
a(I8
I6
tp457
a(I5
I1
tp458
a(I3
I7
tp459
a(I0
I3
tp460
a(I3
I5
tp461
atp462
Rp463
sg13
((I0
I10
tp464
(I6
I7
tp465
(I4
I11
tp466
(I1
I11
tp467
(I9
I0
tp468
(I3
I1
tp469
tp470
sg14
I13
sbs(iproblems
RoomID
p471
(dp472
g10
I15
sg11
(I9
I4
tp473
sg13
I6
sg14
I13
sg15
I11
sg16
I746805015404516437
sb(imulti_robot_problem
MultiRobotState
p474
(dp475
g19
g20
((lp476
(I8
I0
tp477
a(I4
I8
tp478
a(I4
I5
tp479
a(I10
I6
tp480
a(I6
I0
tp481
a(I3
I5
tp482
a(I3
I9
tp483
ag473
a(I4
I2
tp484
a(I7
I2
tp485
a(I7
I9
tp486
a(I10
I5
tp487
a(I5
I5
tp488
a(I4
I4
tp489
a(I1
I8
tp490
a(I8
I6
tp491
a(I5
I3
tp492
a(I5
I2
tp493
a(I2
I4
tp494
a(I9
I7
tp495
atp496
Rp497
sg15
I11
sg29
g20
((lp498
(I3
I12
tp499
a(I9
I1
tp500
a(I7
I1
tp501
a(I8
I1
tp502
a(I6
I10
tp503
a(I8
I9
tp504
a(I2
I0
tp505
a(I2
I3
tp506
a(I0
I10
tp507
a(I2
I2
tp508
a(I7
I11
tp509
a(I2
I5
tp510
a(I8
I5
tp511
a(I5
I8
tp512
a(I4
I11
tp513
atp514
Rp515
sg13
((I4
I10
tp516
(I6
I11
tp517
(I5
I12
tp518
(I0
I5
tp519
(I1
I0
tp520
(I7
I10
tp521
tp522
sg14
I13
sbs(iproblems
RoomID
p523
(dp524
g10
I15
sg11
(I5
I5
tp525
sg13
I6
sg14
I13
sg15
I13
sg16
I2569146471088859254
sb(imulti_robot_problem
MultiRobotState
p526
(dp527
g19
g20
((lp528
(I12
I2
tp529
a(I5
I4
tp530
a(I3
I3
tp531
a(I5
I9
tp532
a(I4
I5
tp533
a(I6
I1
tp534
a(I10
I10
tp535
a(I8
I8
tp536
a(I4
I3
tp537
a(I2
I2
tp538
a(I9
I11
tp539
a(I8
I12
tp540
a(I1
I1
tp541
a(I12
I3
tp542
ag525
atp543
Rp544
sg15
I13
sg29
g20
((lp545
(I10
I5
tp546
a(I3
I12
tp547
a(I8
I2
tp548
a(I5
I6
tp549
a(I12
I7
tp550
a(I11
I3
tp551
a(I0
I2
tp552
a(I11
I0
tp553
a(I0
I9
tp554
a(I2
I12
tp555
a(I1
I10
tp556
a(I3
I7
tp557
a(I10
I11
tp558
a(I2
I4
tp559
a(I5
I12
tp560
atp561
Rp562
sg13
((I9
I12
tp563
(I7
I11
tp564
(I7
I0
tp565
(I10
I1
tp566
(I1
I5
tp567
(I4
I0
tp568
tp569
sg14
I13
sbs(iproblems
RoomID
p570
(dp571
g10
I10
sg11
(I6
I7
tp572
sg13
I5
sg14
I12
sg15
I11
sg16
I6604845167042249220
sb(imulti_robot_problem
MultiRobotState
p573
(dp574
g19
g20
((lp575
(I9
I0
tp576
ag572
a(I7
I1
tp577
a(I2
I8
tp578
a(I10
I6
tp579
a(I7
I7
tp580
a(I8
I8
tp581
a(I9
I4
tp582
a(I8
I6
tp583
a(I7
I11
tp584
a(I9
I7
tp585
atp586
Rp587
sg15
I11
sg29
g20
((lp588
(I10
I5
tp589
a(I3
I3
tp590
a(I5
I11
tp591
a(I8
I1
tp592
a(I9
I8
tp593
a(I6
I9
tp594
a(I0
I7
tp595
a(I0
I10
tp596
a(I4
I1
tp597
a(I8
I4
tp598
atp599
Rp600
sg13
((I4
I8
tp601
(I1
I0
tp602
(I2
I2
tp603
(I3
I11
tp604
(I6
I5
tp605
tp606
sg14
I12
sbs(iproblems
RoomID
p607
(dp608
g10
I11
sg11
(I9
I6
tp609
sg13
I6
sg14
I10
sg15
I12
sg16
I4029557120079369747
sb(imulti_robot_problem
MultiRobotState
p610
(dp611
g19
g20
((lp612
(I11
I7
tp613
a(I10
I6
tp614
a(I5
I5
tp615
a(I7
I1
tp616
a(I10
I7
tp617
a(I9
I8
tp618
a(I4
I4
tp619
a(I1
I6
tp620
a(I3
I6
tp621
a(I1
I7
tp622
ag609
a(I11
I6
tp623
atp624
Rp625
sg15
I12
sg29
g20
((lp626
(I1
I2
tp627
a(I1
I3
tp628
a(I4
I9
tp629
a(I8
I2
tp630
a(I8
I1
tp631
a(I6
I1
tp632
a(I2
I1
tp633
a(I7
I4
tp634
a(I1
I8
tp635
a(I5
I2
tp636
a(I1
I1
tp637
atp638
Rp639
sg13
((I8
I0
tp640
(I4
I1
tp641
(I4
I0
tp642
(I3
I9
tp643
(I8
I9
tp644
(I3
I8
tp645
tp646
sg14
I10
sbssg159
S'heavy_roomset'
p647
sbsg159
g161
sg162
(dp648
g422
((lp649
F511.57999999999993
tp650
sg471
((lp651
F405.56999999999994
tp652
sg523
((lp653
F439.43000000000006
tp654
sg570
((lp655
F5.1200000000001182
tp656
sg607
((lp657
F7.4800000000000182
tp658
ssba.