(lp0
(imeasure_core
ProblemSetSolution
p1
(dp2
S'roomset'
p3
(imeasure_core
RoomSet
p4
(dp5
S'rooms'
p6
(dp7
(iproblems
RoomID
p8
(dp9
S'dusts'
p10
I6
sS'obstacles'
p11
(I0
I4
tp12
sS'robots'
p13
I1
sS'height'
p14
I9
sS'width'
p15
I9
sS'seed'
p16
I1164115433906158532
sb(imulti_robot_problem
MultiRobotState
p17
(dp18
S'obstacle_locations'
p19
c__builtin__
frozenset
p20
((lp21
(I0
I1
tp22
a(I1
I2
tp23
a(I1
I3
tp24
a(I1
I4
tp25
ag12
atp26
Rp27
sg15
I9
sS'dirt_locations'
p28
g20
((lp29
(I6
I4
tp30
a(I1
I8
tp31
a(I1
I6
tp32
a(I1
I0
tp33
a(I8
I5
tp34
a(I3
I5
tp35
atp36
Rp37
sg13
((I4
I5
tp38
tp39
sg14
I9
sbs(iproblems
RoomID
p40
(dp41
g10
I8
sg11
(I6
I5
tp42
sg13
I5
sg14
I8
sg15
I7
sg16
I2175216119781798972
sb(imulti_robot_problem
MultiRobotState
p43
(dp44
g19
g20
((lp45
(I1
I2
tp46
a(I2
I6
tp47
a(I6
I7
tp48
a(I6
I6
tp49
a(I5
I7
tp50
a(I2
I3
tp51
a(I0
I4
tp52
a(I1
I0
tp53
ag42
atp54
Rp55
sg15
I7
sg28
g20
((lp56
(I5
I4
tp57
a(I5
I5
tp58
a(I4
I4
tp59
a(I0
I6
tp60
a(I0
I5
tp61
a(I1
I7
tp62
a(I4
I2
tp63
a(I0
I2
tp64
atp65
Rp66
sg13
((I1
I3
tp67
(I6
I4
tp68
(I3
I7
tp69
(I6
I0
tp70
(I2
I1
tp71
tp72
sg14
I8
sbs(iproblems
RoomID
p73
(dp74
g10
I9
sg11
(I6
I3
tp75
sg13
I4
sg14
I9
sg15
I10
sg16
I7002664860023442459
sb(imulti_robot_problem
MultiRobotState
p76
(dp77
g19
g20
((lp78
(I7
I4
tp79
a(I7
I3
tp80
ag75
a(I6
I5
tp81
a(I9
I7
tp82
atp83
Rp84
sg15
I10
sg28
g20
((lp85
(I0
I0
tp86
a(I6
I8
tp87
a(I2
I8
tp88
a(I5
I7
tp89
a(I2
I6
tp90
a(I4
I2
tp91
a(I5
I1
tp92
a(I8
I6
tp93
a(I8
I4
tp94
atp95
Rp96
sg13
((I7
I5
tp97
(I7
I6
tp98
(I1
I7
tp99
(I1
I6
tp100
tp101
sg14
I9
sbs(iproblems
RoomID
p102
(dp103
g10
I9
sg11
(I2
I2
tp104
sg13
I2
sg14
I9
sg15
I7
sg16
I3872982626502034966
sb(imulti_robot_problem
MultiRobotState
p105
(dp106
g19
g20
((lp107
(I4
I1
tp108
a(I2
I6
tp109
a(I3
I1
tp110
a(I5
I0
tp111
ag104
atp112
Rp113
sg15
I7
sg28
g20
((lp114
(I4
I7
tp115
a(I2
I8
tp116
a(I4
I4
tp117
a(I3
I2
tp118
a(I2
I1
tp119
a(I1
I4
tp120
a(I4
I2
tp121
a(I0
I3
tp122
a(I5
I8
tp123
atp124
Rp125
sg13
((I1
I6
tp126
(I1
I7
tp127
tp128
sg14
I9
sbs(iproblems
RoomID
p129
(dp130
g10
I5
sg11
(I0
I4
tp131
sg13
I5
sg14
I7
sg15
I7
sg16
I8711387064946514083
sb(imulti_robot_problem
MultiRobotState
p132
(dp133
g19
g20
((lp134
(I0
I1
tp135
a(I2
I2
tp136
a(I0
I2
tp137
a(I1
I5
tp138
ag131
a(I0
I3
tp139
a(I2
I4
tp140
a(I6
I5
tp141
atp142
Rp143
sg15
I7
sg28
g20
((lp144
(I5
I6
tp145
a(I6
I4
tp146
a(I3
I2
tp147
a(I6
I1
tp148
a(I6
I6
tp149
atp150
Rp151
sg13
((I1
I1
tp152
(I6
I0
tp153
(I5
I0
tp154
(I1
I3
tp155
(I4
I5
tp156
tp157
sg14
I7
sbssS'name'
p158
S'easy_roomset'
p159
sbsg158
S"AnytimeBeam-w20-gf(1.3, 'exp')_with_PowerHeuristic2"
p160
sS'solutions'
p161
(dp162
g8
((lp163
(F0.1500000000005457
I42
tp164
a(F4.0100000000002183
I40
tp165
a(F5.3900000000003274
I34
tp166
a(F6.5799999999999272
I30
tp167
a(F7.6599999999998545
I28
tp168
a(F13.470000000000255
I26
tp169
aF40.0
tp170
sg40
((lp171
(F0.5
I5
tp172
aF40.390000000000327
tp173
sg73
((lp174
(F0.55999999999949068
I11
tp175
aF40.260000000000218
tp176
sg129
((lp177
(F0.22999999999956344
I4
tp178
aF40.0
tp179
sg102
((lp180
(F0.5
I66
tp181
a(F28.4399999999996
I65
tp182
a(F37.829999999999927
I64
tp183
aF40.0
tp184
ssba(imeasure_core
ProblemSetSolution
p185
(dp186
g3
(imeasure_core
RoomSet
p187
(dp188
g6
(dp189
(iproblems
RoomID
p190
(dp191
g10
I6
sg11
(I5
I5
tp192
sg13
I3
sg14
I11
sg15
I11
sg16
I1164115433906158532
sb(imulti_robot_problem
MultiRobotState
p193
(dp194
g19
g20
((lp195
(I5
I4
tp196
a(I1
I3
tp197
a(I4
I3
tp198
a(I4
I8
tp199
a(I3
I0
tp200
a(I8
I0
tp201
a(I3
I2
tp202
a(I0
I7
tp203
a(I2
I1
tp204
a(I3
I9
tp205
a(I0
I5
tp206
a(I1
I4
tp207
a(I3
I7
tp208
a(I2
I5
tp209
a(I5
I3
tp210
a(I8
I3
tp211
a(I3
I1
tp212
ag192
a(I2
I0
tp213
a(I3
I10
tp214
a(I6
I10
tp215
a(I0
I6
tp216
a(I1
I8
tp217
a(I3
I6
tp218
a(I4
I5
tp219
a(I0
I2
tp220
atp221
Rp222
sg15
I11
sg28
g20
((lp223
(I7
I5
tp224
a(I8
I8
tp225
a(I4
I9
tp226
a(I4
I6
tp227
a(I10
I6
tp228
a(I8
I2
tp229
atp230
Rp231
sg13
((I5
I7
tp232
(I2
I10
tp233
(I2
I8
tp234
tp235
sg14
I11
sbs(iproblems
RoomID
p236
(dp237
g10
I8
sg11
(I5
I4
tp238
sg13
I4
sg14
I10
sg15
I9
sg16
I2175216119781798972
sb(imulti_robot_problem
MultiRobotState
p239
(dp240
g19
g20
((lp241
(I6
I6
tp242
a(I2
I8
tp243
a(I0
I7
tp244
a(I6
I2
tp245
a(I1
I6
tp246
a(I2
I5
tp247
a(I5
I5
tp248
a(I8
I1
tp249
a(I7
I6
tp250
a(I6
I3
tp251
a(I2
I2
tp252
a(I8
I6
tp253
a(I6
I4
tp254
ag238
a(I8
I2
tp255
a(I7
I1
tp256
a(I1
I4
tp257
a(I7
I5
tp258
a(I8
I7
tp259
a(I1
I0
tp260
a(I6
I5
tp261
a(I3
I3
tp262
a(I8
I3
tp263
a(I7
I0
tp264
a(I6
I8
tp265
a(I3
I4
tp266
a(I7
I4
tp267
a(I0
I6
tp268
a(I1
I8
tp269
a(I8
I8
tp270
a(I4
I3
tp271
a(I1
I7
tp272
a(I7
I8
tp273
a(I0
I2
tp274
atp275
Rp276
sg15
I9
sg28
g20
((lp277
(I6
I7
tp278
a(I2
I9
tp279
a(I5
I6
tp280
a(I3
I1
tp281
a(I8
I9
tp282
a(I0
I5
tp283
a(I0
I3
tp284
a(I5
I2
tp285
atp286
Rp287
sg13
((I2
I4
tp288
(I8
I5
tp289
(I4
I9
tp290
(I7
I7
tp291
tp292
sg14
I10
sbs(iproblems
RoomID
p293
(dp294
g10
I9
sg11
(I5
I3
tp295
sg13
I3
sg14
I9
sg15
I9
sg16
I1885758236351349410
sb(imulti_robot_problem
MultiRobotState
p296
(dp297
g19
g20
((lp298
(I4
I7
tp299
a(I5
I7
tp300
a(I7
I1
tp301
a(I5
I6
tp302
a(I5
I4
tp303
a(I0
I0
tp304
a(I2
I3
tp305
a(I4
I2
tp306
a(I8
I5
tp307
ag295
a(I6
I7
tp308
a(I5
I5
tp309
a(I4
I4
tp310
a(I1
I5
tp311
a(I4
I3
tp312
a(I0
I4
tp313
a(I1
I6
tp314
a(I3
I4
tp315
a(I2
I4
tp316
atp317
Rp318
sg15
I9
sg28
g20
((lp319
(I7
I3
tp320
a(I7
I0
tp321
a(I3
I0
tp322
a(I6
I1
tp323
a(I1
I4
tp324
a(I0
I5
tp325
a(I5
I0
tp326
a(I1
I1
tp327
a(I8
I4
tp328
atp329
Rp330
sg13
((I0
I1
tp331
(I2
I6
tp332
(I0
I2
tp333
tp334
sg14
I9
sbs(iproblems
RoomID
p335
(dp336
g10
I9
sg11
(I3
I0
tp337
sg13
I3
sg14
I9
sg15
I12
sg16
I4912931603392816429
sb(imulti_robot_problem
MultiRobotState
p338
(dp339
g19
g20
((lp340
(I6
I4
tp341
a(I4
I7
tp342
a(I0
I0
tp343
a(I4
I8
tp344
a(I5
I6
tp345
a(I2
I8
tp346
a(I0
I7
tp347
a(I4
I6
tp348
a(I7
I5
tp349
a(I4
I2
tp350
a(I0
I3
tp351
a(I7
I2
tp352
a(I6
I8
tp353
a(I10
I5
tp354
a(I5
I5
tp355
a(I7
I8
tp356
a(I4
I4
tp357
a(I5
I2
tp358
ag337
a(I8
I8
tp359
a(I5
I8
tp360
a(I1
I7
tp361
a(I4
I5
tp362
a(I8
I6
tp363
a(I5
I3
tp364
a(I4
I1
tp365
atp366
Rp367
sg15
I12
sg28
g20
((lp368
(I7
I3
tp369
a(I7
I1
tp370
a(I8
I1
tp371
a(I6
I3
tp372
a(I11
I8
tp373
a(I8
I7
tp374
a(I3
I7
tp375
a(I2
I5
tp376
a(I3
I4
tp377
atp378
Rp379
sg13
((I9
I1
tp380
(I1
I6
tp381
(I8
I4
tp382
tp383
sg14
I9
sbs(iproblems
RoomID
p384
(dp385
g10
I9
sg11
(I4
I3
tp386
sg13
I4
sg14
I11
sg15
I12
sg16
I7002664860023442459
sb(imulti_robot_problem
MultiRobotState
p387
(dp388
g19
g20
((lp389
(I11
I8
tp390
a(I0
I0
tp391
a(I10
I4
tp392
a(I3
I0
tp393
a(I9
I3
tp394
a(I6
I0
tp395
a(I2
I1
tp396
a(I8
I9
tp397
a(I9
I4
tp398
a(I5
I1
tp399
a(I8
I5
tp400
a(I5
I8
tp401
a(I8
I2
tp402
a(I7
I0
tp403
a(I8
I7
tp404
a(I3
I3
tp405
a(I1
I5
tp406
a(I8
I1
tp407
a(I9
I6
tp408
a(I3
I1
tp409
a(I9
I2
tp410
a(I2
I0
tp411
ag386
a(I2
I2
tp412
a(I9
I5
tp413
a(I5
I2
tp414
a(I2
I4
tp415
atp416
Rp417
sg15
I12
sg28
g20
((lp418
(I0
I1
tp419
a(I10
I8
tp420
a(I2
I8
tp421
a(I3
I10
tp422
a(I10
I6
tp423
a(I6
I2
tp424
a(I3
I7
tp425
a(I7
I8
tp426
a(I7
I9
tp427
atp428
Rp429
sg13
((I9
I7
tp430
(I8
I8
tp431
(I2
I9
tp432
(I1
I7
tp433
tp434
sg14
I11
sbssg158
S'mild_roomset'
p435
sbsg158
g160
sg161
(dp436
g190
((lp437
(F10.139999999999418
I154
tp438
a(F28.869999999999891
I146
tp439
aF40.069999999999709
tp440
sg236
((lp441
(F7.4700000000002547
I169
tp442
aF40.0
tp443
sg384
((lp444
(F0.44000000000050932
I11
tp445
aF40.289999999999964
tp446
sg335
((lp447
(F0.12000000000080036
I11
tp448
aF40.0
tp449
sg293
((lp450
(F1.0900000000001455
I65
tp451
aF40.059999999999491
tp452
ssba(imeasure_core
ProblemSetSolution
p453
(dp454
g3
(imeasure_core
RoomSet
p455
(dp456
g6
(dp457
(iproblems
RoomID
p458
(dp459
g10
I11
sg11
(I7
I9
tp460
sg13
I5
sg14
I12
sg15
I12
sg16
I1164115433906158532
sb(imulti_robot_problem
MultiRobotState
p461
(dp462
g19
g20
((lp463
(I4
I7
tp464
a(I1
I3
tp465
a(I5
I6
tp466
a(I9
I3
tp467
a(I1
I4
tp468
a(I0
I5
tp469
a(I7
I11
tp470
a(I1
I0
tp471
a(I5
I8
tp472
a(I3
I3
tp473
a(I3
I1
tp474
a(I6
I7
tp475
a(I6
I8
tp476
a(I7
I8
tp477
a(I5
I7
tp478
ag460
a(I4
I1
tp479
a(I0
I2
tp480
atp481
Rp482
sg15
I12
sg28
g20
((lp483
(I4
I10
tp484
a(I9
I0
tp485
a(I2
I6
tp486
a(I5
I10
tp487
a(I9
I2
tp488
a(I0
I7
tp489
a(I8
I9
tp490
a(I1
I6
tp491
a(I8
I5
tp492
a(I4
I11
tp493
a(I5
I3
tp494
atp495
Rp496
sg13
((I1
I2
tp497
(I2
I11
tp498
(I2
I0
tp499
(I2
I9
tp500
(I11
I7
tp501
tp502
sg14
I12
sbs(iproblems
RoomID
p503
(dp504
g10
I10
sg11
(I0
I7
tp505
sg13
I7
sg14
I10
sg15
I10
sg16
I8711387064946514083
sb(imulti_robot_problem
MultiRobotState
p506
(dp507
g19
g20
((lp508
(I5
I9
tp509
a(I6
I9
tp510
a(I2
I6
tp511
a(I2
I9
tp512
a(I0
I6
tp513
ag505
a(I1
I5
tp514
a(I8
I8
tp515
a(I0
I5
tp516
a(I4
I3
tp517
a(I0
I4
tp518
a(I0
I3
tp519
a(I9
I7
tp520
a(I0
I2
tp521
a(I7
I9
tp522
atp523
Rp524
sg15
I10
sg28
g20
((lp525
(I9
I0
tp526
a(I3
I3
tp527
a(I7
I1
tp528
a(I8
I1
tp529
a(I9
I8
tp530
a(I4
I4
tp531
a(I9
I9
tp532
a(I3
I6
tp533
a(I1
I7
tp534
a(I8
I6
tp535
atp536
Rp537
sg13
((I1
I1
tp538
(I8
I0
tp539
(I7
I0
tp540
(I2
I5
tp541
(I6
I7
tp542
(I8
I9
tp543
(I5
I8
tp544
tp545
sg14
I10
sbs(iproblems
RoomID
p546
(dp547
g10
I14
sg11
(I5
I10
tp548
sg13
I5
sg14
I12
sg15
I10
sg16
I3872982626502034966
sb(imulti_robot_problem
MultiRobotState
p549
(dp550
g19
g20
((lp551
(I5
I9
tp552
a(I6
I9
tp553
a(I5
I7
tp554
a(I3
I2
tp555
ag548
a(I4
I10
tp556
a(I4
I8
tp557
a(I3
I11
tp558
a(I2
I1
tp559
a(I6
I2
tp560
a(I1
I4
tp561
a(I8
I7
tp562
a(I6
I8
tp563
a(I6
I7
tp564
a(I5
I8
tp565
a(I3
I5
tp566
a(I4
I9
tp567
a(I4
I6
tp568
a(I8
I1
tp569
a(I7
I1
tp570
a(I3
I8
tp571
a(I4
I3
tp572
a(I5
I2
tp573
a(I1
I1
tp574
atp575
Rp576
sg15
I10
sg28
g20
((lp577
(I5
I3
tp578
a(I3
I1
tp579
a(I8
I11
tp580
a(I9
I3
tp581
a(I0
I2
tp582
a(I6
I3
tp583
a(I3
I9
tp584
a(I2
I3
tp585
a(I9
I5
tp586
a(I7
I11
tp587
a(I0
I8
tp588
a(I3
I10
tp589
a(I7
I2
tp590
a(I9
I7
tp591
atp592
Rp593
sg13
((I1
I8
tp594
(I2
I9
tp595
(I1
I9
tp596
(I1
I5
tp597
(I6
I5
tp598
tp599
sg14
I12
sbs(iproblems
RoomID
p600
(dp601
g10
I14
sg11
(I0
I3
tp602
sg13
I7
sg14
I12
sg15
I13
sg16
I7002664860023442459
sb(imulti_robot_problem
MultiRobotState
p603
(dp604
g19
g20
((lp605
(I1
I2
tp606
a(I11
I4
tp607
a(I9
I8
tp608
a(I10
I6
tp609
ag602
a(I0
I8
tp610
a(I10
I3
tp611
a(I0
I1
tp612
a(I10
I5
tp613
a(I10
I7
tp614
a(I7
I8
tp615
a(I9
I9
tp616
a(I0
I9
tp617
a(I9
I5
tp618
a(I3
I4
tp619
a(I0
I2
tp620
a(I11
I6
tp621
a(I9
I7
tp622
atp623
Rp624
sg15
I13
sg28
g20
((lp625
(I6
I4
tp626
a(I11
I9
tp627
a(I4
I6
tp628
a(I2
I9
tp629
a(I5
I9
tp630
a(I12
I2
tp631
a(I3
I1
tp632
a(I3
I11
tp633
a(I10
I10
tp634
a(I7
I4
tp635
a(I0
I0
tp636
a(I11
I5
tp637
a(I2
I5
tp638
a(I12
I9
tp639
atp640
Rp641
sg13
((I2
I10
tp642
(I1
I8
tp643
(I8
I10
tp644
(I7
I2
tp645
(I3
I8
tp646
(I6
I2
tp647
(I7
I9
tp648
tp649
sg14
I12
sbs(iproblems
RoomID
p650
(dp651
g10
I10
sg11
(I6
I7
tp652
sg13
I6
sg14
I10
sg15
I13
sg16
I8999366892653588108
sb(imulti_robot_problem
MultiRobotState
p653
(dp654
g19
g20
((lp655
(I5
I4
tp656
ag652
a(I5
I5
tp657
a(I5
I6
tp658
a(I7
I6
tp659
a(I4
I2
tp660
a(I2
I3
tp661
a(I8
I6
tp662
a(I12
I1
tp663
a(I5
I3
tp664
a(I6
I5
tp665
a(I3
I3
tp666
atp667
Rp668
sg15
I13
sg28
g20
((lp669
(I6
I9
tp670
a(I7
I0
tp671
a(I5
I7
tp672
a(I12
I6
tp673
a(I2
I1
tp674
a(I0
I5
tp675
a(I10
I1
tp676
a(I0
I3
tp677
a(I7
I9
tp678
a(I3
I5
tp679
atp680
Rp681
sg13
((I12
I0
tp682
(I6
I1
tp683
(I2
I2
tp684
(I6
I4
tp685
(I4
I6
tp686
(I7
I1
tp687
tp688
sg14
I10
sbssg158
S'heavy_roomset'
p689
sbsg158
g160
sg161
(dp690
g458
((lp691
(F2.9700000000002547
I20
tp692
aF40.0
tp693
sg503
((lp694
(F13.180000000000291
I7
tp695
aF41.930000000000291
tp696
sg600
((lp697
F45.690000000000509
tp698
sg546
((lp699
F40.149999999999636
tp700
sg650
((lp701
(F9.4099999999998545
I20
tp702
aF40.679999999999382
tp703
ssba(imeasure_core
ProblemSetSolution
p704
(dp705
g3
g4
sg158
S"AnytimeBeam-w20-gf(1.5, 'exp')_with_PowerHeuristic2"
p706
sg161
(dp707
g8
((lp708
(F0.14000000000032742
I42
tp709
a(F3.2200000000002547
I40
tp710
a(F4.6100000000005821
I34
tp711
a(F5.8100000000004002
I30
tp712
a(F6.8900000000003274
I28
tp713
a(F12.75
I26
tp714
aF40.0
tp715
sg40
((lp716
(F0.5
I5
tp717
aF40.480000000000473
tp718
sg73
((lp719
(F0.55999999999949068
I11
tp720
aF40.079999999999927
tp721
sg129
((lp722
(F0.21000000000003638
I4
tp723
aF40.090000000000146
tp724
sg102
((lp725
(F0.5
I66
tp726
a(F21.840000000000146
I65
tp727
a(F31.300000000000182
I64
tp728
aF40.029999999999745
tp729
ssba(imeasure_core
ProblemSetSolution
p730
(dp731
g3
g187
sg158
g706
sg161
(dp732
g190
((lp733
(F11.149999999999636
I154
tp734
a(F21.029999999999745
I146
tp735
aF40.119999999999891
tp736
sg236
((lp737
(F7.5199999999995271
I169
tp738
aF40.109999999999673
tp739
sg384
((lp740
(F0.43000000000029104
I11
tp741
aF40.010000000000218
tp742
sg335
((lp743
(F0.11999999999989086
I11
tp744
aF40.029999999999745
tp745
sg293
((lp746
(F1.0900000000001455
I65
tp747
aF40.100000000000364
tp748
ssba(imeasure_core
ProblemSetSolution
p749
(dp750
g3
g455
sg158
g706
sg161
(dp751
g458
((lp752
(F3.0
I20
tp753
aF40.059999999999491
tp754
sg503
((lp755
(F13.130000000000109
I7
tp756
aF41.990000000000691
tp757
sg600
((lp758
F45.889999999999418
tp759
sg546
((lp760
F40.079999999999927
tp761
sg650
((lp762
(F9.3600000000005821
I20
tp763
aF40.590000000000146
tp764
ssba(imeasure_core
ProblemSetSolution
p765
(dp766
g3
g4
sg158
S"AnytimeBeam-w20-gf(1.7, 'exp')_with_PowerHeuristic2"
p767
sg161
(dp768
g8
((lp769
(F0.14000000000032742
I42
tp770
a(F2.4700000000002547
I40
tp771
a(F3.8599999999996726
I34
tp772
a(F5.0599999999994907
I30
tp773
a(F6.1400000000003274
I28
tp774
a(F11.9399999999996
I26
tp775
aF40.0
tp776
sg40
((lp777
(F0.5
I5
tp778
aF40.260000000000218
tp779
sg73
((lp780
(F0.55999999999949068
I11
tp781
aF40.219999999999345
tp782
sg129
((lp783
(F0.22999999999956344
I4
tp784
aF40.099999999999454
tp785
sg102
((lp786
(F0.5
I66
tp787
a(F21.220000000000255
I65
tp788
a(F30.890000000000327
I64
tp789
aF40.020000000000437
tp790
ssba(imeasure_core
ProblemSetSolution
p791
(dp792
g3
g187
sg158
g767
sg161
(dp793
g190
((lp794
(F8.7800000000006548
I154
tp795
a(F17.550000000000182
I146
tp796
aF40.070000000000618
tp797
sg236
((lp798
(F7.4799999999995634
I169
tp799
aF40.039999999999964
tp800
sg384
((lp801
(F0.44000000000050932
I11
tp802
aF40.079999999999927
tp803
sg335
((lp804
(F0.11999999999989086
I11
tp805
aF40.029999999999745
tp806
sg293
((lp807
(F1.089999999999236
I65
tp808
aF40.149999999999636
tp809
ssba(imeasure_core
ProblemSetSolution
p810
(dp811
g3
g455
sg158
g767
sg161
(dp812
g458
((lp813
(F2.9700000000002547
I20
tp814
aF40.449999999999818
tp815
sg503
((lp816
(F13.119999999999891
I7
tp817
aF40.900000000000546
tp818
sg600
((lp819
F45.659999999999854
tp820
sg546
((lp821
F40.090000000000146
tp822
sg650
((lp823
(F9.3800000000001091
I20
tp824
aF40.029999999999745
tp825
ssba(imeasure_core
ProblemSetSolution
p826
(dp827
g3
g4
sg158
S"AnytimeBeam-w20-gf(1.8999999999999999, 'exp')_with_PowerHeuristic2"
p828
sg161
(dp829
g8
((lp830
(F0.1499999999996362
I42
tp831
a(F2.8500000000003638
I40
tp832
a(F4.2299999999995634
I34
tp833
a(F5.4200000000000728
I30
tp834
a(F6.4899999999997817
I28
tp835
a(F12.270000000000437
I26
tp836
aF40.0
tp837
sg40
((lp838
(F0.5
I5
tp839
aF40.170000000000073
tp840
sg73
((lp841
(F0.55999999999949068
I11
tp842
aF40.350000000000364
tp843
sg129
((lp844
(F0.22000000000025466
I4
tp845
aF40.190000000000509
tp846
sg102
((lp847
(F0.5
I66
tp848
a(F18.609999999999673
I65
tp849
a(F28.389999999999418
I64
tp850
aF40.059999999999491
tp851
ssba(imeasure_core
ProblemSetSolution
p852
(dp853
g3
g187
sg158
g828
sg161
(dp854
g190
((lp855
(F9.6300000000001091
I158
tp856
a(F20.190000000000509
I149
tp857
aF40.070000000000618
tp858
sg236
((lp859
(F7.4600000000000364
I169
tp860
aF40.009999999999309
tp861
sg384
((lp862
(F0.43000000000029104
I11
tp863
aF40.180000000000291
tp864
sg335
((lp865
(F0.11999999999989086
I11
tp866
aF40.010000000000218
tp867
sg293
((lp868
(F1.0900000000001455
I65
tp869
aF40.010000000000218
tp870
ssba(imeasure_core
ProblemSetSolution
p871
(dp872
g3
g455
sg158
g828
sg161
(dp873
g458
((lp874
(F2.9899999999997817
I20
tp875
aF40.049999999999272
tp876
sg503
((lp877
(F13.180000000000291
I7
tp878
aF41.020000000000437
tp879
sg600
((lp880
F45.729999999999563
tp881
sg546
((lp882
F40.050000000000182
tp883
sg650
((lp884
(F9.430000000000291
I20
tp885
aF40.230000000000473
tp886
ssba(imeasure_core
ProblemSetSolution
p887
(dp888
g3
g4
sg158
S"AnytimeBeam-w20-gf(1.3, 'exp')_with_LinearHeuristic"
p889
sg161
(dp890
g8
((lp891
(F0.019999999999527063
I28
tp892
aF40.0
tp893
sg40
((lp894
F40.329999999999927
tp895
sg73
((lp896
(F2.0
I27
tp897
aF40.0
tp898
sg129
((lp899
(F0.71999999999934516
I10
tp900
aF40.569999999999709
tp901
sg102
((lp902
(F0.63999999999941792
I25
tp903
a(F31.75
I24
tp904
aF40.0
tp905
ssba(imeasure_core
ProblemSetSolution
p906
(dp907
g3
g187
sg158
g889
sg161
(dp908
g190
((lp909
F40.010000000000218
tp910
sg236
((lp911
F40.010000000000218
tp912
sg384
((lp913
F40.210000000000036
tp914
sg335
((lp915
(F15.109999999999673
I282
tp916
aF40.019999999999527
tp917
sg293
((lp918
(F8.2599999999993088
I226
tp919
aF40.0
tp920
ssba(imeasure_core
ProblemSetSolution
p921
(dp922
g3
g455
sg158
g889
sg161
(dp923
g458
((lp924
F40.239999999999782
tp925
sg503
((lp926
(F22.710000000000036
I7
tp927
aF45.530000000000655
tp928
sg600
((lp929
F51.930000000000291
tp930
sg546
((lp931
F40.1899999999996
tp932
sg650
((lp933
F40.269999999999527
tp934
ssba(imeasure_core
ProblemSetSolution
p935
(dp936
g3
g4
sg158
S"AnytimeBeam-w20-gf(1.5, 'exp')_with_LinearHeuristic"
p937
sg161
(dp938
g8
((lp939
(F0.029999999999745341
I28
tp940
a(F26.949999999999818
I26
tp941
aF40.0
tp942
sg40
((lp943
F40.180000000000291
tp944
sg73
((lp945
(F2.0100000000002183
I27
tp946
aF40.039999999999964
tp947
sg129
((lp948
(F0.72000000000025466
I10
tp949
aF40.010000000000218
tp950
sg102
((lp951
(F0.64000000000032742
I25
tp952
a(F26.9399999999996
I24
tp953
a(F36.729999999999563
I23
tp954
aF40.029999999999745
tp955
ssba(imeasure_core
ProblemSetSolution
p956
(dp957
g3
g187
sg158
g937
sg161
(dp958
g190
((lp959
F40.100000000000364
tp960
sg236
((lp961
F40.049999999999272
tp962
sg384
((lp963
F40.100000000000364
tp964
sg335
((lp965
(F15.350000000000364
I282
tp966
aF40.090000000000146
tp967
sg293
((lp968
(F8.3699999999998909
I226
tp969
aF40.359999999999673
tp970
ssba(imeasure_core
ProblemSetSolution
p971
(dp972
g3
g455
sg158
g937
sg161
(dp973
g458
((lp974
F40.3799999999992
tp975
sg503
((lp976
(F22.5
I7
tp977
aF45.170000000000073
tp978
sg600
((lp979
F51.969999999999345
tp980
sg546
((lp981
F40.070000000001528
tp982
sg650
((lp983
F40.340000000000146
tp984
ssba(imeasure_core
ProblemSetSolution
p985
(dp986
g3
g4
sg158
S"AnytimeBeam-w20-gf(1.7, 'exp')_with_LinearHeuristic"
p987
sg161
(dp988
g8
((lp989
(F0.019999999998617568
I28
tp990
a(F28.079999999999927
I26
tp991
aF40.0
tp992
sg40
((lp993
F40.1299999999992
tp994
sg73
((lp995
(F1.9899999999997817
I27
tp996
aF40.260000000000218
tp997
sg129
((lp998
(F0.71999999999934516
I10
tp999
aF40.299999999999272
tp1000
sg102
((lp1001
(F0.62999999999919964
I25
tp1002
a(F22.149999999999636
I24
tp1003
a(F31.649999999999636
I23
tp1004
aF40.010000000000218
tp1005
ssba(imeasure_core
ProblemSetSolution
p1006
(dp1007
g3
g187
sg158
g987
sg161
(dp1008
g190
((lp1009
F40.069999999999709
tp1010
sg236
((lp1011
F40.020000000000437
tp1012
sg384
((lp1013
F40.239999999999782
tp1014
sg335
((lp1015
(F15.210000000000946
I282
tp1016
aF40.070000000001528
tp1017
sg293
((lp1018
(F8.2900000000008731
I226
tp1019
aF40.059999999999491
tp1020
ssba(imeasure_core
ProblemSetSolution
p1021
(dp1022
g3
g455
sg158
g987
sg161
(dp1023
g458
((lp1024
F40.139999999999418
tp1025
sg503
((lp1026
(F22.729999999999563
I7
tp1027
aF46.719999999999345
tp1028
sg600
((lp1029
F51.899999999999636
tp1030
sg546
((lp1031
F40.090000000000146
tp1032
sg650
((lp1033
F40.210000000000946
tp1034
ssba(imeasure_core
ProblemSetSolution
p1035
(dp1036
g3
g4
sg158
S"AnytimeBeam-w20-gf(1.8999999999999999, 'exp')_with_LinearHeuristic"
p1037
sg161
(dp1038
g8
((lp1039
(F0.020000000000436557
I28
tp1040
a(F24.469999999999345
I26
tp1041
aF40.0
tp1042
sg40
((lp1043
F40.449999999998909
tp1044
sg73
((lp1045
(F2.0100000000002183
I27
tp1046
aF40.280000000000655
tp1047
sg129
((lp1048
(F0.71999999999934516
I10
tp1049
aF40.569999999999709
tp1050
sg102
((lp1051
(F0.63999999999941792
I25
tp1052
a(F20.239999999999782
I24
tp1053
a(F29.6299999999992
I23
tp1054
aF40.020000000000437
tp1055
ssba(imeasure_core
ProblemSetSolution
p1056
(dp1057
g3
g187
sg158
g1037
sg161
(dp1058
g190
((lp1059
F40.020000000000437
tp1060
sg236
((lp1061
F40.029999999998836
tp1062
sg384
((lp1063
F40.090000000000146
tp1064
sg335
((lp1065
(F15.119999999998981
I282
tp1066
aF40.069999999999709
tp1067
sg293
((lp1068
(F8.2700000000004366
I226
tp1069
aF40.030000000000655
tp1070
ssba(imeasure_core
ProblemSetSolution
p1071
(dp1072
g3
g455
sg158
g1037
sg161
(dp1073
g458
((lp1074
F40.049999999999272
tp1075
sg503
((lp1076
(F22.670000000000073
I7
tp1077
aF46.840000000000146
tp1078
sg600
((lp1079
F51.769999999998618
tp1080
sg546
((lp1081
F40.230000000001382
tp1082
sg650
((lp1083
F40.239999999999782
tp1084
ssba.