(lp0
(imeasure_core
ProblemSetSolution
p1
(dp2
S'roomset'
p3
(imeasure_core
RoomSet
p4
(dp5
S'rooms'
p6
(dp7
(iproblems
RoomID
p8
(dp9
S'dusts'
p10
I10
sS'obstacles'
p11
(I0
I8
tp12
sS'robots'
p13
I4
sS'height'
p14
I10
sS'width'
p15
I9
sS'seed'
p16
I4712128852136459333
sb(imulti_robot_problem
MultiRobotState
p17
(dp18
S'obstacle_locations'
p19
c__builtin__
frozenset
p20
((lp21
(I0
I6
tp22
ag12
a(I2
I3
tp23
a(I1
I5
tp24
a(I8
I0
tp25
a(I1
I1
tp26
a(I0
I7
tp27
atp28
Rp29
sg15
I9
sS'dirt_locations'
p30
g20
((lp31
(I4
I7
tp32
a(I1
I3
tp33
a(I4
I9
tp34
a(I8
I1
tp35
a(I7
I6
tp36
a(I2
I6
tp37
a(I8
I7
tp38
a(I2
I2
tp39
a(I4
I1
tp40
a(I2
I4
tp41
atp42
Rp43
sg13
((I5
I8
tp44
(I6
I9
tp45
(I5
I0
tp46
(I3
I1
tp47
tp48
sg14
I10
sbs(iproblems
RoomID
p49
(dp50
g10
I9
sg11
(I3
I4
tp51
sg13
I1
sg14
I7
sg15
I8
sg16
I6613812840851947673
sb(imulti_robot_problem
MultiRobotState
p52
(dp53
g19
g20
((lp54
(I3
I5
tp55
ag51
a(I2
I4
tp56
a(I2
I1
tp57
a(I1
I4
tp58
atp59
Rp60
sg15
I8
sg30
g20
((lp61
(I6
I4
tp62
a(I5
I4
tp63
a(I6
I0
tp64
a(I7
I5
tp65
a(I1
I6
tp66
a(I2
I2
tp67
a(I0
I5
tp68
a(I4
I1
tp69
a(I4
I0
tp70
atp71
Rp72
sg13
((I3
I1
tp73
tp74
sg14
I7
sbs(iproblems
RoomID
p75
(dp76
g10
I9
sg11
(I5
I3
tp77
sg13
I3
sg14
I7
sg15
I8
sg16
I4594210616595436404
sb(imulti_robot_problem
MultiRobotState
p78
(dp79
g19
g20
((lp80
(I0
I1
tp81
a(I3
I3
tp82
a(I4
I3
tp83
a(I4
I2
tp84
a(I6
I1
tp85
ag77
atp86
Rp87
sg15
I8
sg30
g20
((lp88
(I6
I6
tp89
a(I5
I6
tp90
a(I4
I4
tp91
a(I1
I4
tp92
a(I0
I6
tp93
a(I5
I1
tp94
a(I1
I0
tp95
a(I0
I3
tp96
a(I1
I1
tp97
atp98
Rp99
sg13
((I2
I1
tp100
(I3
I4
tp101
(I3
I6
tp102
tp103
sg14
I7
sbs(iproblems
RoomID
p104
(dp105
g10
I10
sg11
(I4
I8
tp106
sg13
I4
sg14
I10
sg15
I7
sg16
I956523682424107605
sb(imulti_robot_problem
MultiRobotState
p107
(dp108
g19
g20
((lp109
(I2
I8
tp110
ag106
a(I3
I7
tp111
a(I2
I9
tp112
a(I4
I2
tp113
atp114
Rp115
sg15
I7
sg30
g20
((lp116
(I5
I9
tp117
a(I4
I7
tp118
a(I1
I3
tp119
a(I3
I3
tp120
a(I5
I5
tp121
a(I6
I1
tp122
a(I5
I4
tp123
a(I0
I4
tp124
a(I5
I2
tp125
a(I5
I3
tp126
atp127
Rp128
sg13
((I1
I9
tp129
(I4
I9
tp130
(I1
I8
tp131
(I0
I3
tp132
tp133
sg14
I10
sbs(iproblems
RoomID
p134
(dp135
g10
I10
sg11
(I4
I5
tp136
sg13
I1
sg14
I8
sg15
I8
sg16
I2893396244277848635
sb(imulti_robot_problem
MultiRobotState
p137
(dp138
g19
g20
((lp139
g136
a(I3
I7
tp140
a(I2
I6
tp141
a(I4
I6
tp142
atp143
Rp144
sg15
I8
sg30
g20
((lp145
(I6
I4
tp146
a(I0
I0
tp147
a(I6
I7
tp148
a(I3
I0
tp149
a(I2
I1
tp150
a(I0
I6
tp151
a(I7
I2
tp152
a(I2
I4
tp153
a(I6
I5
tp154
a(I5
I3
tp155
atp156
Rp157
sg13
((I2
I3
tp158
tp159
sg14
I8
sbssS'name'
p160
S'easy_roomset'
p161
sbsg160
S"AnytimeBeam-w20-gf(2, 'lin')_with_PowerHeuristic2"
p162
sS'solutions'
p163
(dp164
g8
((lp165
(F2.8500000000021828
I51
tp166
aF40.049999999999272
tp167
sg49
((lp168
(F0.069999999999708962
I36
tp169
a(F14.340000000000146
I30
tp170
a(F15.06000000000131
I29
tp171
aF40.0
tp172
sg75
((lp173
(F1.2200000000011642
I31
tp174
a(F19.970000000001164
I29
tp175
aF40.0
tp176
sg104
((lp177
(F0.34000000000014552
I10
tp178
aF40.0
tp179
sg134
((lp180
(F0.36000000000058208
I76
tp181
a(F0.61000000000058208
I63
tp182
a(F6.2100000000027649
I61
tp183
a(F20.640000000003056
I59
tp184
a(F21.450000000000728
I57
tp185
a(F22.350000000002183
I56
tp186
a(F23.56000000000131
I54
tp187
a(F24.680000000000291
I52
tp188
a(F32.530000000002474
I51
tp189
aF40.0
tp190
ssba(imeasure_core
ProblemSetSolution
p191
(dp192
g3
(imeasure_core
RoomSet
p193
(dp194
g6
(dp195
(iproblems
RoomID
p196
(dp197
g10
I10
sg11
(I8
I7
tp198
sg13
I4
sg14
I12
sg15
I11
sg16
I4712128852136459333
sb(imulti_robot_problem
MultiRobotState
p199
(dp200
g19
g20
((lp201
(I6
I4
tp202
a(I4
I7
tp203
ag198
a(I4
I5
tp204
a(I3
I11
tp205
a(I0
I7
tp206
a(I7
I7
tp207
a(I1
I6
tp208
a(I1
I9
tp209
a(I2
I10
tp210
a(I4
I2
tp211
a(I1
I11
tp212
a(I6
I5
tp213
a(I5
I3
tp214
a(I9
I0
tp215
a(I0
I8
tp216
a(I5
I5
tp217
a(I7
I6
tp218
a(I3
I1
tp219
a(I2
I11
tp220
a(I0
I9
tp221
a(I2
I3
tp222
a(I4
I1
tp223
a(I1
I1
tp224
atp225
Rp226
sg15
I11
sg30
g20
((lp227
(I2
I7
tp228
a(I9
I1
tp229
a(I9
I8
tp230
a(I5
I1
tp231
a(I2
I5
tp232
a(I9
I7
tp233
a(I3
I4
tp234
a(I2
I4
tp235
a(I5
I8
tp236
a(I3
I3
tp237
atp238
Rp239
sg13
((I6
I10
tp240
(I8
I10
tp241
(I7
I0
tp242
(I5
I11
tp243
tp244
sg14
I12
sbs(iproblems
RoomID
p245
(dp246
g10
I9
sg11
(I4
I4
tp247
sg13
I3
sg14
I9
sg15
I10
sg16
I4594210616595436404
sb(imulti_robot_problem
MultiRobotState
p248
(dp249
g19
g20
((lp250
(I1
I3
tp251
a(I3
I0
tp252
a(I2
I1
tp253
a(I1
I6
tp254
a(I9
I4
tp255
a(I3
I7
tp256
a(I0
I3
tp257
a(I1
I2
tp258
a(I5
I5
tp259
a(I1
I5
tp260
a(I7
I6
tp261
ag247
a(I6
I3
tp262
a(I5
I6
tp263
a(I3
I6
tp264
a(I0
I4
tp265
a(I8
I6
tp266
a(I3
I5
tp267
a(I1
I1
tp268
a(I5
I4
tp269
a(I4
I5
tp270
a(I0
I5
tp271
a(I5
I3
tp272
a(I0
I1
tp273
a(I5
I2
tp274
a(I0
I6
tp275
a(I2
I0
tp276
a(I1
I8
tp277
a(I2
I3
tp278
a(I9
I5
tp279
a(I3
I4
tp280
a(I0
I2
tp281
atp282
Rp283
sg15
I10
sg30
g20
((lp284
(I7
I8
tp285
a(I7
I0
tp286
a(I6
I8
tp287
a(I2
I8
tp288
a(I8
I8
tp289
a(I0
I8
tp290
a(I8
I5
tp291
a(I5
I8
tp292
a(I8
I2
tp293
atp294
Rp295
sg13
((I4
I6
tp296
(I2
I5
tp297
(I6
I1
tp298
tp299
sg14
I9
sbs(iproblems
RoomID
p300
(dp301
g10
I8
sg11
(I5
I0
tp302
sg13
I4
sg14
I9
sg15
I9
sg16
I6858376947525423350
sb(imulti_robot_problem
MultiRobotState
p303
(dp304
g19
g20
((lp305
(I6
I4
tp306
a(I4
I7
tp307
a(I1
I3
tp308
a(I4
I3
tp309
a(I7
I1
tp310
a(I3
I0
tp311
a(I2
I8
tp312
a(I6
I0
tp313
a(I2
I1
tp314
a(I1
I6
tp315
a(I5
I1
tp316
a(I2
I5
tp317
a(I0
I8
tp318
a(I7
I2
tp319
a(I2
I7
tp320
a(I3
I8
tp321
a(I5
I5
tp322
a(I6
I1
tp323
a(I5
I7
tp324
a(I6
I3
tp325
a(I1
I8
tp326
ag302
a(I2
I2
tp327
a(I2
I3
tp328
a(I3
I4
tp329
a(I2
I4
tp330
atp331
Rp332
sg15
I9
sg30
g20
((lp333
(I8
I3
tp334
a(I7
I0
tp335
a(I4
I6
tp336
a(I6
I6
tp337
a(I7
I5
tp338
a(I8
I0
tp339
a(I8
I8
tp340
a(I8
I4
tp341
atp342
Rp343
sg13
((I1
I1
tp344
(I6
I5
tp345
(I8
I2
tp346
(I1
I5
tp347
tp348
sg14
I9
sbs(iproblems
RoomID
p349
(dp350
g10
I6
sg11
(I8
I8
tp351
sg13
I4
sg14
I11
sg15
I12
sg16
I7529058068588108450
sb(imulti_robot_problem
MultiRobotState
p352
(dp353
g19
g20
((lp354
(I5
I9
tp355
a(I6
I9
tp356
a(I2
I6
tp357
a(I3
I2
tp358
a(I9
I1
tp359
a(I4
I10
tp360
a(I6
I6
tp361
a(I7
I7
tp362
a(I7
I1
tp363
a(I4
I6
tp364
a(I10
I4
tp365
a(I7
I5
tp366
a(I6
I8
tp367
a(I3
I7
tp368
a(I5
I8
tp369
a(I8
I2
tp370
a(I5
I5
tp371
a(I7
I6
tp372
a(I4
I4
tp373
a(I7
I4
tp374
a(I1
I5
tp375
ag351
a(I7
I2
tp376
a(I3
I6
tp377
a(I2
I2
tp378
a(I1
I10
tp379
a(I7
I8
tp380
a(I3
I10
tp381
atp382
Rp383
sg15
I12
sg30
g20
((lp384
(I7
I3
tp385
a(I0
I5
tp386
a(I4
I0
tp387
a(I11
I3
tp388
a(I11
I6
tp389
a(I6
I0
tp390
atp391
Rp392
sg13
((I11
I7
tp393
(I6
I2
tp394
(I11
I5
tp395
(I6
I7
tp396
tp397
sg14
I11
sbs(iproblems
RoomID
p398
(dp399
g10
I5
sg11
(I4
I9
tp400
sg13
I4
sg14
I11
sg15
I11
sg16
I1881095652490078568
sb(imulti_robot_problem
MultiRobotState
p401
(dp402
g19
g20
((lp403
(I6
I9
tp404
a(I6
I6
tp405
a(I4
I5
tp406
a(I2
I8
tp407
a(I9
I3
tp408
a(I4
I7
tp409
a(I7
I5
tp410
a(I5
I4
tp411
ag400
a(I6
I5
tp412
a(I3
I5
tp413
a(I7
I4
tp414
a(I1
I7
tp415
a(I6
I7
tp416
a(I4
I6
tp417
a(I7
I6
tp418
a(I4
I4
tp419
a(I8
I10
tp420
a(I6
I3
tp421
a(I7
I10
tp422
a(I2
I2
tp423
a(I4
I8
tp424
a(I7
I8
tp425
a(I1
I1
tp426
a(I8
I4
tp427
atp428
Rp429
sg15
I11
sg30
g20
((lp430
(I1
I10
tp431
a(I5
I9
tp432
a(I0
I0
tp433
a(I10
I2
tp434
a(I9
I7
tp435
atp436
Rp437
sg13
((I5
I7
tp438
(I8
I1
tp439
(I3
I1
tp440
(I8
I8
tp441
tp442
sg14
I11
sbssg160
S'mild_roomset'
p443
sbsg160
g162
sg163
(dp444
g196
((lp445
(F1.2000000000007276
I23
tp446
aF40.040000000000873
tp447
sg245
((lp448
F40.170000000001892
tp449
sg300
((lp450
(F0.2999999999992724
I16
tp451
aF40.099999999998545
tp452
sg398
((lp453
(F0.17000000000189175
I7
tp454
aF40.05000000000291
tp455
sg349
((lp456
(F0.81000000000130967
I33
tp457
aF40.009999999998399
tp458
ssba(imeasure_core
ProblemSetSolution
p459
(dp460
g3
(imeasure_core
RoomSet
p461
(dp462
g6
(dp463
(iproblems
RoomID
p464
(dp465
g10
I15
sg11
(I5
I9
tp466
sg13
I7
sg14
I13
sg15
I12
sg16
I4712128852136459333
sb(imulti_robot_problem
MultiRobotState
p467
(dp468
g19
g20
((lp469
g466
a(I4
I9
tp470
a(I5
I5
tp471
a(I4
I12
tp472
a(I2
I8
tp473
a(I3
I1
tp474
a(I3
I9
tp475
a(I9
I4
tp476
a(I1
I7
tp477
a(I1
I10
tp478
a(I3
I12
tp479
a(I0
I8
tp480
a(I5
I2
tp481
atp482
Rp483
sg15
I12
sg30
g20
((lp484
(I6
I9
tp485
a(I3
I3
tp486
a(I1
I12
tp487
a(I5
I6
tp488
a(I7
I7
tp489
a(I3
I5
tp490
a(I3
I8
tp491
a(I8
I8
tp492
a(I10
I0
tp493
a(I2
I5
tp494
a(I10
I2
tp495
a(I3
I4
tp496
a(I1
I1
tp497
a(I5
I8
tp498
a(I9
I7
tp499
atp500
Rp501
sg13
((I6
I11
tp502
(I8
I11
tp503
(I7
I0
tp504
(I4
I1
tp505
(I6
I12
tp506
(I10
I9
tp507
(I6
I1
tp508
tp509
sg14
I13
sbs(iproblems
RoomID
p510
(dp511
g10
I14
sg11
(I5
I5
tp512
sg13
I5
sg14
I10
sg15
I11
sg16
I6613812840851947673
sb(imulti_robot_problem
MultiRobotState
p513
(dp514
g19
g20
((lp515
(I4
I7
tp516
a(I2
I6
tp517
a(I6
I6
tp518
a(I4
I5
tp519
a(I7
I5
tp520
a(I1
I6
tp521
a(I8
I7
tp522
a(I3
I7
tp523
a(I10
I3
tp524
a(I3
I5
tp525
a(I10
I8
tp526
a(I6
I3
tp527
ag512
a(I8
I5
tp528
a(I7
I4
tp529
a(I3
I8
tp530
a(I0
I6
tp531
a(I3
I6
tp532
a(I1
I3
tp533
a(I8
I6
tp534
a(I2
I4
tp535
atp536
Rp537
sg15
I11
sg30
g20
((lp538
(I6
I4
tp539
a(I3
I2
tp540
a(I4
I6
tp541
a(I4
I9
tp542
a(I3
I3
tp543
a(I9
I8
tp544
a(I8
I0
tp545
a(I8
I8
tp546
a(I5
I0
tp547
a(I1
I0
tp548
a(I8
I4
tp549
a(I5
I2
tp550
a(I6
I1
tp551
a(I9
I7
tp552
atp553
Rp554
sg13
((I5
I1
tp555
(I0
I8
tp556
(I2
I9
tp557
(I4
I1
tp558
(I7
I6
tp559
tp560
sg14
I10
sbs(iproblems
RoomID
p561
(dp562
g10
I15
sg11
(I6
I6
tp563
sg13
I5
sg14
I11
sg15
I11
sg16
I2893396244277848635
sb(imulti_robot_problem
MultiRobotState
p564
(dp565
g19
g20
((lp566
(I7
I3
tp567
a(I4
I7
tp568
a(I5
I5
tp569
a(I4
I8
tp570
a(I5
I6
tp571
a(I2
I8
tp572
ag563
a(I3
I2
tp573
a(I3
I9
tp574
a(I4
I3
tp575
a(I1
I7
tp576
a(I6
I9
tp577
atp578
Rp579
sg15
I11
sg30
g20
((lp580
(I2
I6
tp581
a(I8
I7
tp582
a(I3
I10
tp583
a(I3
I1
tp584
a(I2
I10
tp585
a(I0
I5
tp586
a(I6
I5
tp587
a(I3
I6
tp588
a(I8
I6
tp589
a(I4
I0
tp590
a(I3
I7
tp591
a(I7
I9
tp592
a(I4
I1
tp593
a(I5
I8
tp594
a(I5
I3
tp595
atp596
Rp597
sg13
((I4
I5
tp598
(I0
I9
tp599
(I0
I1
tp600
(I9
I2
tp601
(I8
I10
tp602
tp603
sg14
I11
sbs(iproblems
RoomID
p604
(dp605
g10
I15
sg11
(I4
I8
tp606
sg13
I6
sg14
I13
sg15
I10
sg16
I956523682424107605
sb(imulti_robot_problem
MultiRobotState
p607
(dp608
g19
g20
((lp609
(I5
I9
tp610
a(I6
I9
tp611
a(I7
I10
tp612
ag606
a(I5
I6
tp613
a(I3
I11
tp614
a(I9
I4
tp615
a(I4
I9
tp616
a(I5
I8
tp617
a(I2
I7
tp618
a(I5
I10
tp619
a(I5
I5
tp620
a(I3
I10
tp621
a(I5
I7
tp622
a(I9
I9
tp623
a(I5
I0
tp624
a(I7
I8
tp625
a(I1
I1
tp626
atp627
Rp628
sg15
I10
sg30
g20
((lp629
(I6
I10
tp630
a(I8
I3
tp631
a(I1
I3
tp632
a(I6
I6
tp633
a(I7
I6
tp634
a(I8
I12
tp635
a(I5
I4
tp636
a(I1
I4
tp637
a(I2
I10
tp638
a(I7
I4
tp639
a(I1
I5
tp640
a(I7
I5
tp641
a(I0
I9
tp642
a(I7
I11
tp643
a(I6
I2
tp644
atp645
Rp646
sg13
((I1
I12
tp647
(I6
I12
tp648
(I2
I11
tp649
(I0
I4
tp650
(I9
I1
tp651
(I7
I7
tp652
tp653
sg14
I13
sbs(iproblems
RoomID
p654
(dp655
g10
I13
sg11
(I1
I6
tp656
sg13
I7
sg14
I10
sg15
I10
sg16
I6858376947525423350
sb(imulti_robot_problem
MultiRobotState
p657
(dp658
g19
g20
((lp659
(I4
I7
tp660
a(I1
I3
tp661
a(I2
I8
tp662
a(I2
I2
tp663
a(I2
I1
tp664
a(I2
I3
tp665
a(I9
I5
tp666
a(I2
I5
tp667
a(I2
I7
tp668
a(I2
I9
tp669
a(I8
I1
tp670
ag656
a(I1
I7
tp671
a(I0
I9
tp672
a(I8
I6
tp673
a(I2
I4
tp674
atp675
Rp676
sg15
I10
sg30
g20
((lp677
(I8
I0
tp678
a(I4
I9
tp679
a(I3
I3
tp680
a(I3
I0
tp681
a(I7
I6
tp682
a(I5
I7
tp683
a(I9
I9
tp684
a(I4
I4
tp685
a(I6
I2
tp686
a(I9
I4
tp687
a(I8
I5
tp688
a(I5
I8
tp689
a(I5
I3
tp690
atp691
Rp692
sg13
((I1
I2
tp693
(I7
I5
tp694
(I7
I2
tp695
(I9
I2
tp696
(I1
I5
tp697
(I9
I0
tp698
(I6
I6
tp699
tp700
sg14
I10
sbssg160
S'heavy_roomset'
p701
sbsg160
g162
sg163
(dp702
g464
((lp703
F44.5
tp704
sg510
((lp705
F40.149999999997817
tp706
sg561
((lp707
(F7.9500000000007276
I27
tp708
aF40.190000000002328
tp709
sg604
((lp710
(F11.469999999997526
I10
tp711
aF40.94999999999709
tp712
sg654
((lp713
(F31.659999999999854
I14
tp714
aF44.55000000000291
tp715
ssba(imeasure_core
ProblemSetSolution
p716
(dp717
g3
g4
sg160
S"AnytimeBeam-w20-gf(4, 'lin')_with_PowerHeuristic2"
p718
sg163
(dp719
g8
((lp720
(F2.8800000000010186
I51
tp721
aF40.020000000000437
tp722
sg49
((lp723
(F0.079999999998108251
I36
tp724
a(F7.9900000000016007
I30
tp725
a(F8.6899999999986903
I29
tp726
a(F26.5
I28
tp727
aF40.0
tp728
sg75
((lp729
(F1.2200000000011642
I31
tp730
a(F13.349999999998545
I29
tp731
a(F21.159999999999854
I26
tp732
aF40.0
tp733
sg104
((lp734
(F0.34000000000014552
I10
tp735
aF40.110000000000582
tp736
sg134
((lp737
(F0.38000000000101863
I63
tp738
a(F3.0599999999976717
I61
tp739
a(F10.880000000001019
I59
tp740
a(F11.669999999998254
I57
tp741
a(F12.569999999999709
I56
tp742
a(F13.739999999997963
I54
tp743
a(F14.849999999998545
I52
tp744
a(F16.779999999998836
I51
tp745
a(F27.419999999998254
I50
tp746
a(F32.889999999999418
I48
tp747
a(F35.889999999999418
I46
tp748
a(F38.969999999997526
I44
tp749
aF40.0
tp750
ssba(imeasure_core
ProblemSetSolution
p751
(dp752
g3
g193
sg160
g718
sg163
(dp753
g196
((lp754
(F1.2000000000007276
I23
tp755
aF40.239999999997963
tp756
sg245
((lp757
F40.06000000000131
tp758
sg300
((lp759
(F0.2999999999992724
I16
tp760
aF40.0
tp761
sg398
((lp762
(F0.16999999999825377
I7
tp763
aF40.049999999999272
tp764
sg349
((lp765
(F0.81999999999970896
I33
tp766
aF40.080000000001746
tp767
ssba(imeasure_core
ProblemSetSolution
p768
(dp769
g3
g461
sg160
g718
sg163
(dp770
g464
((lp771
F44.409999999999854
tp772
sg510
((lp773
F40.150000000001455
tp774
sg561
((lp775
(F7.9399999999986903
I27
tp776
aF40.009999999998399
tp777
sg604
((lp778
(F11.490000000001601
I10
tp779
aF41.090000000000146
tp780
sg654
((lp781
(F31.760000000002037
I14
tp782
aF44.650000000001455
tp783
ssba(imeasure_core
ProblemSetSolution
p784
(dp785
g3
g4
sg160
S"AnytimeBeam-w20-gf(8, 'lin')_with_PowerHeuristic2"
p786
sg163
(dp787
g8
((lp788
(F2.8699999999989814
I51
tp789
aF40.049999999999272
tp790
sg49
((lp791
(F0.069999999999708962
I36
tp792
a(F4.1500000000014552
I30
tp793
a(F4.8499999999985448
I29
tp794
a(F12.459999999999127
I28
tp795
aF40.0
tp796
sg75
((lp797
(F1.2200000000011642
I31
tp798
a(F7.3100000000013097
I29
tp799
a(F11.06000000000131
I26
tp800
aF40.009999999998399
tp801
sg104
((lp802
(F0.34000000000014552
I10
tp803
aF40.020000000000437
tp804
sg134
((lp805
(F0.40000000000145519
I63
tp806
a(F1.4099999999998545
I61
tp807
a(F5.3700000000026193
I59
tp808
a(F6.1500000000014552
I57
tp809
a(F7.0400000000008731
I56
tp810
a(F8.2200000000011642
I54
tp811
a(F9.3400000000001455
I52
tp812
a(F11.280000000002474
I51
tp813
a(F14.159999999999854
I50
tp814
a(F17.030000000002474
I48
tp815
a(F20.05000000000291
I46
tp816
a(F23.159999999999854
I44
tp817
a(F31.889999999999418
I43
tp818
aF40.0
tp819
ssba(imeasure_core
ProblemSetSolution
p820
(dp821
g3
g193
sg160
g786
sg163
(dp822
g196
((lp823
(F1.2100000000027649
I23
tp824
aF40.030000000002474
tp825
sg245
((lp826
F40.149999999997817
tp827
sg300
((lp828
(F0.2999999999992724
I16
tp829
aF40.010000000002037
tp830
sg398
((lp831
(F0.16999999999825377
I7
tp832
aF40.069999999999709
tp833
sg349
((lp834
(F0.7999999999992724
I33
tp835
aF40.229999999999563
tp836
ssba(imeasure_core
ProblemSetSolution
p837
(dp838
g3
g461
sg160
g786
sg163
(dp839
g464
((lp840
F44.599999999998545
tp841
sg510
((lp842
F40.600000000002183
tp843
sg561
((lp844
(F7.9499999999970896
I27
tp845
aF40.059999999997672
tp846
sg604
((lp847
(F11.470000000001164
I10
tp848
aF41.860000000000582
tp849
sg654
((lp850
(F31.830000000001746
I14
tp851
aF44.799999999999272
tp852
ssba(imeasure_core
ProblemSetSolution
p853
(dp854
g3
g4
sg160
S"AnytimeBeam-w20-gf(16, 'lin')_with_PowerHeuristic2"
p855
sg163
(dp856
g8
((lp857
(F2.8899999999994179
I51
tp858
aF40.029999999998836
tp859
sg49
((lp860
(F0.08000000000174623
I36
tp861
a(F2.319999999999709
I30
tp862
a(F3.0400000000008731
I29
tp863
a(F7.9200000000018917
I28
tp864
a(F39.279999999998836
I27
tp865
aF40.0
tp866
sg75
((lp867
(F1.2200000000011642
I31
tp868
a(F4.3699999999989814
I29
tp869
a(F6.0900000000001455
I26
tp870
aF40.0
tp871
sg104
((lp872
(F0.34000000000014552
I10
tp873
aF40.020000000000437
tp874
sg134
((lp875
(F0.5
I63
tp876
a(F0.84000000000014552
I61
tp877
a(F2.5999999999985448
I59
tp878
a(F3.3800000000010186
I57
tp879
a(F4.2799999999988358
I56
tp880
a(F5.5
I54
tp881
a(F6.6500000000014552
I52
tp882
a(F8.6100000000005821
I51
tp883
a(F11.459999999999127
I50
tp884
a(F14.290000000000873
I48
tp885
a(F17.299999999999272
I46
tp886
a(F20.380000000001019
I44
tp887
a(F29.029999999998836
I43
tp888
a(F37.150000000001455
I42
tp889
aF40.0
tp890
ssba(imeasure_core
ProblemSetSolution
p891
(dp892
g3
g193
sg160
g855
sg163
(dp893
g196
((lp894
(F1.2099999999991269
I23
tp895
aF40.009999999998399
tp896
sg245
((lp897
F40.030000000002474
tp898
sg300
((lp899
(F0.2999999999992724
I16
tp900
aF40.029999999998836
tp901
sg398
((lp902
(F0.16999999999825377
I7
tp903
aF40.169999999998254
tp904
sg349
((lp905
(F0.7999999999992724
I33
tp906
aF40.040000000000873
tp907
ssba(imeasure_core
ProblemSetSolution
p908
(dp909
g3
g461
sg160
g855
sg163
(dp910
g464
((lp911
F44.460000000002765
tp912
sg510
((lp913
F40.099999999998545
tp914
sg561
((lp915
(F7.930000000000291
I27
tp916
aF40.099999999998545
tp917
sg604
((lp918
(F11.430000000000291
I10
tp919
aF40.830000000001746
tp920
sg654
((lp921
(F31.759999999998399
I14
tp922
aF44.720000000001164
tp923
ssba(imeasure_core
ProblemSetSolution
p924
(dp925
g3
g4
sg160
S"AnytimeBeam-w20-gf(2, 'lin')_with_LinearHeuristic"
p926
sg163
(dp927
g8
((lp928
F40.080000000001746
tp929
sg49
((lp930
(F0.0099999999983992893
I25
tp931
aF40.0
tp932
sg75
((lp933
(F0.16999999999825377
I8
tp934
aF40.0
tp935
sg104
((lp936
(F37.379999999997381
I286
tp937
aF40.049999999999272
tp938
sg134
((lp939
(F0.029999999998835847
I32
tp940
a(F4.2199999999975262
I30
tp941
aF40.0
tp942
ssba(imeasure_core
ProblemSetSolution
p943
(dp944
g3
g193
sg160
g926
sg163
(dp945
g196
((lp946
F40.659999999999854
tp947
sg245
((lp948
(F1.6599999999998545
I50
tp949
aF40.009999999998399
tp950
sg300
((lp951
F40.020000000000437
tp952
sg398
((lp953
(F0.47999999999956344
I7
tp954
aF40.019999999996799
tp955
sg349
((lp956
F40.170000000001892
tp957
ssba(imeasure_core
ProblemSetSolution
p958
(dp959
g3
g461
sg160
g926
sg163
(dp960
g464
((lp961
F41.690000000002328
tp962
sg510
((lp963
F40.020000000000437
tp964
sg561
((lp965
F40.75
tp966
sg604
((lp967
F40.219999999997526
tp968
sg654
((lp969
F40.490000000001601
tp970
ssba(imeasure_core
ProblemSetSolution
p971
(dp972
g3
g4
sg160
S"AnytimeBeam-w20-gf(4, 'lin')_with_LinearHeuristic"
p973
sg163
(dp974
g8
((lp975
F40.06000000000131
tp976
sg49
((lp977
(F0.020000000000436557
I25
tp978
aF40.0
tp979
sg75
((lp980
(F0.16999999999825377
I8
tp981
aF40.06000000000131
tp982
sg104
((lp983
(F37.19999999999709
I286
tp984
aF40.039999999997235
tp985
sg134
((lp986
(F0.030000000002473826
I32
tp987
a(F2.3400000000001455
I30
tp988
aF40.0
tp989
ssba(imeasure_core
ProblemSetSolution
p990
(dp991
g3
g193
sg160
g973
sg163
(dp992
g196
((lp993
F40.630000000001019
tp994
sg245
((lp995
(F1.6399999999994179
I50
tp996
a(F31.5
I49
tp997
a(F38.430000000000291
I48
tp998
aF40.029999999998836
tp999
sg300
((lp1000
F40.05000000000291
tp1001
sg398
((lp1002
(F0.47000000000116415
I7
tp1003
aF40.029999999998836
tp1004
sg349
((lp1005
F40.009999999998399
tp1006
ssba(imeasure_core
ProblemSetSolution
p1007
(dp1008
g3
g461
sg160
g973
sg163
(dp1009
g464
((lp1010
F41.549999999999272
tp1011
sg510
((lp1012
F40.069999999999709
tp1013
sg561
((lp1014
F40.770000000000437
tp1015
sg604
((lp1016
F40.220000000001164
tp1017
sg654
((lp1018
F40.389999999999418
tp1019
ssba(imeasure_core
ProblemSetSolution
p1020
(dp1021
g3
g4
sg160
S"AnytimeBeam-w20-gf(8, 'lin')_with_LinearHeuristic"
p1022
sg163
(dp1023
g8
((lp1024
F40.299999999999272
tp1025
sg49
((lp1026
(F0.020000000000436557
I25
tp1027
aF40.0
tp1028
sg75
((lp1029
(F0.17000000000189175
I8
tp1030
aF40.0
tp1031
sg104
((lp1032
(F37.280000000002474
I286
tp1033
aF40.0
tp1034
sg134
((lp1035
(F0.030000000002473826
I32
tp1036
a(F1.2800000000024738
I30
tp1037
aF40.0
tp1038
ssba(imeasure_core
ProblemSetSolution
p1039
(dp1040
g3
g193
sg160
g1022
sg163
(dp1041
g196
((lp1042
F40.100000000002183
tp1043
sg245
((lp1044
(F1.6599999999998545
I50
tp1045
a(F18.279999999998836
I49
tp1046
a(F25.759999999998399
I48
tp1047
a(F36.229999999999563
I47
tp1048
aF40.029999999998836
tp1049
sg300
((lp1050
F40.010000000002037
tp1051
sg398
((lp1052
(F0.47999999999956344
I7
tp1053
aF40.049999999999272
tp1054
sg349
((lp1055
F40.079999999998108
tp1056
ssba(imeasure_core
ProblemSetSolution
p1057
(dp1058
g3
g461
sg160
g1022
sg163
(dp1059
g464
((lp1060
F41.479999999999563
tp1061
sg510
((lp1062
F40.079999999998108
tp1063
sg561
((lp1064
F40.770000000000437
tp1065
sg604
((lp1066
F40.220000000001164
tp1067
sg654
((lp1068
F40.470000000001164
tp1069
ssba(imeasure_core
ProblemSetSolution
p1070
(dp1071
g3
g4
sg160
S"AnytimeBeam-w20-gf(16, 'lin')_with_LinearHeuristic"
p1072
sg163
(dp1073
g8
((lp1074
F40.309999999997672
tp1075
sg49
((lp1076
(F0.020000000000436557
I25
tp1077
aF40.0
tp1078
sg75
((lp1079
(F0.17000000000189175
I8
tp1080
aF40.010000000002037
tp1081
sg104
((lp1082
(F37.25
I286
tp1083
aF40.009999999998399
tp1084
sg134
((lp1085
(F0.030000000002473826
I32
tp1086
a(F0.75
I30
tp1087
aF40.0
tp1088
ssba(imeasure_core
ProblemSetSolution
p1089
(dp1090
g3
g193
sg160
g1072
sg163
(dp1091
g196
((lp1092
F40.020000000000437
tp1093
sg245
((lp1094
(F1.6599999999998545
I50
tp1095
a(F11.869999999998981
I49
tp1096
a(F21.990000000001601
I48
tp1097
a(F35.930000000000291
I47
tp1098
aF40.010000000002037
tp1099
sg300
((lp1100
F40.009999999998399
tp1101
sg398
((lp1102
(F0.47000000000116415
I7
tp1103
aF40.030000000002474
tp1104
sg349
((lp1105
F40.029999999998836
tp1106
ssba(imeasure_core
ProblemSetSolution
p1107
(dp1108
g3
g461
sg160
g1072
sg163
(dp1109
g464
((lp1110
F41.44999999999709
tp1111
sg510
((lp1112
F40.0
tp1113
sg561
((lp1114
F40.690000000002328
tp1115
sg604
((lp1116
F40.18999999999869
tp1117
sg654
((lp1118
F40.360000000000582
tp1119
ssba.