(lp0
(imeasure_core
ProblemSetSolution
p1
(dp2
S'roomset'
p3
(imeasure_core
RoomSet
p4
(dp5
S'rooms'
p6
(dp7
(iproblems
RoomID
p8
(dp9
S'dusts'
p10
I8
sS'obstacles'
p11
(I1
I6
tp12
sS'robots'
p13
I4
sS'height'
p14
I10
sS'width'
p15
I9
sS'seed'
p16
I3433768247134474666
sb(imulti_robot_problem
MultiRobotState
p17
(dp18
S'obstacle_locations'
p19
c__builtin__
frozenset
p20
((lp21
(I4
I9
tp22
a(I4
I6
tp23
a(I0
I7
tp24
ag12
a(I0
I9
tp25
a(I8
I6
tp26
a(I0
I8
tp27
a(I3
I3
tp28
atp29
Rp30
sg15
I9
sS'dirt_locations'
p31
g20
((lp32
(I3
I2
tp33
a(I7
I7
tp34
a(I1
I9
tp35
a(I8
I7
tp36
a(I5
I4
tp37
a(I1
I1
tp38
a(I5
I8
tp39
a(I7
I9
tp40
atp41
Rp42
sg13
((I5
I9
tp43
(I5
I5
tp44
(I6
I9
tp45
(I2
I0
tp46
tp47
sg14
I10
sbs(iproblems
RoomID
p48
(dp49
g10
I7
sg11
(I2
I2
tp50
sg13
I3
sg14
I9
sg15
I9
sg16
I6241004153072892496
sb(imulti_robot_problem
MultiRobotState
p51
(dp52
g19
g20
((lp53
(I7
I3
tp54
a(I3
I2
tp55
a(I7
I1
tp56
a(I5
I1
tp57
ag50
a(I4
I1
tp58
a(I7
I7
tp59
atp60
Rp61
sg15
I9
sg31
g20
((lp62
(I3
I8
tp63
a(I1
I5
tp64
a(I4
I8
tp65
a(I3
I7
tp66
a(I5
I7
tp67
a(I3
I4
tp68
a(I6
I0
tp69
atp70
Rp71
sg13
((I6
I5
tp72
(I4
I3
tp73
(I3
I5
tp74
tp75
sg14
I9
sbs(iproblems
RoomID
p76
(dp77
g10
I6
sg11
(I7
I4
tp78
sg13
I4
sg14
I8
sg15
I9
sg16
I8554152435637441414
sb(imulti_robot_problem
MultiRobotState
p79
(dp80
g19
g20
((lp81
(I6
I6
tp82
a(I5
I7
tp83
ag78
a(I2
I0
tp84
a(I7
I5
tp85
a(I3
I7
tp86
a(I0
I3
tp87
a(I4
I1
tp88
atp89
Rp90
sg15
I9
sg31
g20
((lp91
(I7
I3
tp92
a(I1
I6
tp93
a(I5
I1
tp94
a(I8
I6
tp95
a(I0
I2
tp96
a(I4
I0
tp97
atp98
Rp99
sg13
((I5
I3
tp100
(I6
I2
tp101
(I6
I3
tp102
(I6
I4
tp103
tp104
sg14
I8
sbs(iproblems
RoomID
p105
(dp106
g10
I10
sg11
(I6
I4
tp107
sg13
I4
sg14
I7
sg15
I10
sg16
I3125140389427113411
sb(imulti_robot_problem
MultiRobotState
p108
(dp109
g19
g20
((lp110
(I6
I3
tp111
a(I5
I1
tp112
a(I5
I2
tp113
ag107
atp114
Rp115
sg15
I10
sg31
g20
((lp116
(I1
I2
tp117
a(I7
I3
tp118
a(I0
I0
tp119
a(I3
I3
tp120
a(I6
I2
tp121
a(I1
I6
tp122
a(I9
I4
tp123
a(I2
I5
tp124
a(I0
I2
tp125
a(I7
I2
tp126
atp127
Rp128
sg13
((I9
I0
tp129
(I6
I5
tp130
(I1
I4
tp131
(I1
I3
tp132
tp133
sg14
I7
sbs(iproblems
RoomID
p134
(dp135
g10
I9
sg11
(I4
I3
tp136
sg13
I3
sg14
I9
sg15
I8
sg16
I6161655336973386967
sb(imulti_robot_problem
MultiRobotState
p137
(dp138
g19
g20
((lp139
(I6
I3
tp140
a(I7
I3
tp141
a(I5
I4
tp142
ag136
a(I6
I6
tp143
a(I5
I2
tp144
a(I2
I1
tp145
atp146
Rp147
sg15
I8
sg31
g20
((lp148
(I6
I4
tp149
a(I6
I8
tp150
a(I2
I0
tp151
a(I5
I7
tp152
a(I1
I4
tp153
a(I1
I5
tp154
a(I0
I5
tp155
a(I2
I5
tp156
a(I4
I1
tp157
atp158
Rp159
sg13
((I3
I5
tp160
(I4
I6
tp161
(I4
I5
tp162
tp163
sg14
I9
sbssS'name'
p164
S'easy_roomset'
p165
sbsg164
S"AnytimeBeam-w20-gf(1.3, 'exp')_with_PowerHeuristic2"
p166
sS'solutions'
p167
(dp168
g8
((lp169
(F0.42000000000552973
I10
tp170
aF40.110000000000582
tp171
sg48
((lp172
(F0.099999999998544808
I8
tp173
aF40.020000000004075
tp174
sg76
((lp175
(F0.27999999999883585
I8
tp176
aF40.110000000000582
tp177
sg105
((lp178
(F0.56999999999970896
I13
tp179
aF40.289999999993597
tp180
sg134
((lp181
(F0.72000000000116415
I48
tp182
aF40.0
tp183
ssba(imeasure_core
ProblemSetSolution
p184
(dp185
g3
(imeasure_core
RoomSet
p186
(dp187
g6
(dp188
(iproblems
RoomID
p189
(dp190
g10
I10
sg11
(I1
I6
tp191
sg13
I3
sg14
I12
sg15
I9
sg16
I4927760411464392432
sb(imulti_robot_problem
MultiRobotState
p192
(dp193
g19
g20
((lp194
(I5
I9
tp195
a(I1
I3
tp196
a(I4
I5
tp197
a(I7
I7
tp198
a(I6
I0
tp199
a(I3
I9
tp200
ag191
a(I8
I7
tp201
a(I3
I7
tp202
a(I2
I5
tp203
a(I7
I9
tp204
a(I3
I1
tp205
a(I4
I6
tp206
a(I2
I9
tp207
a(I3
I10
tp208
a(I6
I10
tp209
a(I2
I11
tp210
a(I3
I8
tp211
a(I0
I6
tp212
a(I3
I6
tp213
a(I2
I2
tp214
a(I2
I3
tp215
a(I3
I4
tp216
a(I7
I6
tp217
atp218
Rp219
sg15
I9
sg31
g20
((lp220
(I1
I2
tp221
a(I6
I4
tp222
a(I6
I9
tp223
a(I8
I2
tp224
a(I8
I0
tp225
a(I1
I10
tp226
a(I0
I9
tp227
a(I1
I0
tp228
a(I0
I2
tp229
a(I4
I11
tp230
atp231
Rp232
sg13
((I1
I11
tp233
(I0
I11
tp234
(I7
I5
tp235
tp236
sg14
I12
sbs(iproblems
RoomID
p237
(dp238
g10
I8
sg11
(I1
I11
tp239
sg13
I4
sg14
I12
sg15
I11
sg16
I3433768247134474666
sb(imulti_robot_problem
MultiRobotState
p240
(dp241
g19
g20
((lp242
(I9
I3
tp243
a(I3
I6
tp244
a(I4
I8
tp245
a(I4
I5
tp246
a(I2
I8
tp247
a(I10
I6
tp248
a(I2
I10
tp249
a(I8
I7
tp250
a(I2
I3
tp251
a(I0
I10
tp252
a(I9
I4
tp253
a(I3
I7
tp254
ag239
a(I10
I3
tp255
a(I5
I8
tp256
a(I10
I4
tp257
a(I2
I7
tp258
a(I10
I5
tp259
a(I6
I7
tp260
a(I2
I9
tp261
a(I9
I6
tp262
a(I1
I8
tp263
a(I3
I8
tp264
a(I0
I11
tp265
a(I8
I8
tp266
a(I4
I11
tp267
a(I5
I0
tp268
a(I0
I9
tp269
a(I4
I9
tp270
a(I7
I8
tp271
atp272
Rp273
sg15
I11
sg31
g20
((lp274
(I4
I3
tp275
a(I5
I11
tp276
a(I9
I8
tp277
a(I2
I11
tp278
a(I9
I11
tp279
a(I7
I10
tp280
a(I1
I1
tp281
a(I6
I5
tp282
atp283
Rp284
sg13
((I7
I11
tp285
(I7
I7
tp286
(I2
I0
tp287
(I10
I9
tp288
tp289
sg14
I12
sbs(iproblems
RoomID
p290
(dp291
g10
I6
sg11
(I5
I4
tp292
sg13
I4
sg14
I10
sg15
I11
sg16
I8554152435637441414
sb(imulti_robot_problem
MultiRobotState
p293
(dp294
g19
g20
((lp295
(I6
I4
tp296
ag292
a(I4
I5
tp297
a(I2
I8
tp298
a(I9
I3
tp299
a(I7
I7
tp300
a(I0
I7
tp301
a(I6
I2
tp302
a(I2
I1
tp303
a(I3
I7
tp304
a(I5
I1
tp305
a(I0
I3
tp306
a(I8
I5
tp307
a(I5
I3
tp308
a(I3
I8
tp309
a(I8
I3
tp310
a(I4
I9
tp311
a(I6
I8
tp312
a(I7
I0
tp313
a(I6
I3
tp314
a(I7
I5
tp315
a(I3
I6
tp316
a(I8
I6
tp317
a(I7
I8
tp318
a(I10
I9
tp319
atp320
Rp321
sg15
I11
sg31
g20
((lp322
(I1
I3
tp323
a(I9
I4
tp324
a(I5
I0
tp325
a(I3
I0
tp326
a(I4
I2
tp327
a(I7
I2
tp328
atp329
Rp330
sg13
((I8
I2
tp331
(I8
I4
tp332
(I9
I7
tp333
(I0
I2
tp334
tp335
sg14
I10
sbs(iproblems
RoomID
p336
(dp337
g10
I10
sg11
(I5
I4
tp338
sg13
I4
sg14
I9
sg15
I12
sg16
I3125140389427113411
sb(imulti_robot_problem
MultiRobotState
p339
(dp340
g19
g20
((lp341
(I7
I3
tp342
a(I4
I7
tp343
a(I2
I6
tp344
a(I2
I7
tp345
a(I6
I6
tp346
a(I5
I6
tp347
ag338
a(I1
I4
tp348
a(I6
I2
tp349
a(I10
I1
tp350
a(I3
I7
tp351
a(I5
I1
tp352
a(I2
I5
tp353
a(I6
I5
tp354
a(I3
I3
tp355
a(I6
I4
tp356
a(I9
I5
tp357
a(I6
I7
tp358
a(I5
I5
tp359
a(I10
I7
tp360
a(I6
I1
tp361
a(I7
I4
tp362
a(I8
I6
tp363
a(I5
I3
tp364
a(I5
I2
tp365
a(I8
I4
tp366
atp367
Rp368
sg15
I12
sg31
g20
((lp369
(I0
I0
tp370
a(I11
I4
tp371
a(I8
I2
tp372
a(I3
I0
tp373
a(I6
I0
tp374
a(I1
I8
tp375
a(I2
I3
tp376
a(I0
I3
tp377
a(I11
I6
tp378
a(I3
I5
tp379
atp380
Rp381
sg13
((I11
I0
tp382
(I7
I7
tp383
(I1
I5
tp384
(I2
I4
tp385
tp386
sg14
I9
sbs(iproblems
RoomID
p387
(dp388
g10
I7
sg11
(I10
I3
tp389
sg13
I3
sg14
I11
sg15
I11
sg16
I6241004153072892496
sb(imulti_robot_problem
MultiRobotState
p390
(dp391
g19
g20
((lp392
(I3
I2
tp393
a(I0
I0
tp394
a(I9
I8
tp395
a(I7
I7
tp396
a(I8
I9
tp397
a(I6
I2
tp398
a(I2
I3
tp399
a(I9
I4
tp400
a(I4
I2
tp401
a(I5
I1
tp402
a(I0
I3
tp403
ag389
a(I1
I2
tp404
a(I9
I5
tp405
a(I5
I5
tp406
a(I10
I7
tp407
a(I8
I5
tp408
a(I6
I1
tp409
a(I1
I8
tp410
a(I8
I8
tp411
a(I8
I6
tp412
a(I7
I8
tp413
a(I2
I4
tp414
atp415
Rp416
sg15
I11
sg31
g20
((lp417
(I4
I10
tp418
a(I6
I9
tp419
a(I4
I9
tp420
a(I9
I1
tp421
a(I5
I10
tp422
a(I3
I10
tp423
a(I8
I0
tp424
atp425
Rp426
sg13
((I5
I4
tp427
(I4
I6
tp428
(I1
I6
tp429
tp430
sg14
I11
sbssg164
S'mild_roomset'
p431
sbsg164
g166
sg167
(dp432
g189
((lp433
F40.010000000002037
tp434
sg237
((lp435
(F1.0299999999988358
I30
tp436
aF40.029999999998836
tp437
sg387
((lp438
(F0.23999999999796273
I13
tp439
aF40.049999999995634
tp440
sg290
((lp441
(F2.4700000000011642
I55
tp442
aF40.180000000000291
tp443
sg336
((lp444
(F32.120000000002619
I288
tp445
aF40.010000000002037
tp446
ssba(imeasure_core
ProblemSetSolution
p447
(dp448
g3
(imeasure_core
RoomSet
p449
(dp450
g6
(dp451
(iproblems
RoomID
p452
(dp453
g10
I15
sg11
(I3
I3
tp454
sg13
I5
sg14
I13
sg15
I10
sg16
I4927760411464392432
sb(imulti_robot_problem
MultiRobotState
p455
(dp456
g19
g20
((lp457
(I6
I10
tp458
a(I6
I11
tp459
a(I3
I11
tp460
a(I2
I1
tp461
a(I2
I10
tp462
a(I3
I9
tp463
a(I2
I3
tp464
a(I1
I0
tp465
a(I4
I0
tp466
a(I1
I2
tp467
ag454
a(I7
I6
tp468
a(I3
I1
tp469
a(I1
I1
tp470
a(I1
I7
tp471
a(I1
I3
tp472
a(I3
I10
tp473
a(I9
I12
tp474
atp475
Rp476
sg15
I10
sg31
g20
((lp477
(I9
I0
tp478
a(I9
I7
tp479
a(I7
I0
tp480
a(I8
I2
tp481
a(I5
I5
tp482
a(I8
I10
tp483
a(I1
I4
tp484
a(I8
I8
tp485
a(I2
I12
tp486
a(I8
I7
tp487
a(I1
I10
tp488
a(I7
I11
tp489
a(I4
I12
tp490
a(I0
I2
tp491
a(I0
I10
tp492
atp493
Rp494
sg13
((I1
I12
tp495
(I0
I12
tp496
(I8
I5
tp497
(I7
I9
tp498
(I7
I4
tp499
tp500
sg14
I13
sbs(iproblems
RoomID
p501
(dp502
g10
I13
sg11
(I4
I11
tp503
sg13
I6
sg14
I13
sg15
I12
sg16
I3433768247134474666
sb(imulti_robot_problem
MultiRobotState
p504
(dp505
g19
g20
((lp506
(I4
I10
tp507
a(I5
I11
tp508
a(I6
I11
tp509
a(I9
I8
tp510
a(I6
I0
tp511
a(I0
I12
tp512
a(I4
I12
tp513
a(I2
I3
tp514
a(I2
I12
tp515
a(I10
I3
tp516
ag503
a(I11
I7
tp517
a(I3
I12
tp518
a(I3
I10
tp519
a(I11
I3
tp520
a(I0
I11
tp521
a(I8
I8
tp522
a(I1
I9
tp523
a(I1
I6
tp524
a(I1
I1
tp525
a(I0
I10
tp526
atp527
Rp528
sg15
I12
sg31
g20
((lp529
(I10
I8
tp530
a(I10
I5
tp531
a(I6
I7
tp532
a(I6
I8
tp533
a(I4
I4
tp534
a(I10
I12
tp535
a(I9
I9
tp536
a(I8
I10
tp537
a(I7
I5
tp538
a(I7
I10
tp539
a(I6
I12
tp540
a(I5
I10
tp541
a(I5
I3
tp542
atp543
Rp544
sg13
((I7
I12
tp545
(I7
I7
tp546
(I8
I12
tp547
(I2
I0
tp548
(I11
I9
tp549
(I1
I2
tp550
tp551
sg14
I13
sbs(iproblems
RoomID
p552
(dp553
g10
I15
sg11
(I1
I6
tp554
sg13
I6
sg14
I10
sg15
I13
sg16
I3125140389427113411
sb(imulti_robot_problem
MultiRobotState
p555
(dp556
g19
g20
((lp557
(I7
I3
tp558
a(I3
I3
tp559
a(I1
I5
tp560
a(I6
I1
tp561
a(I1
I4
tp562
a(I7
I4
tp563
a(I2
I0
tp564
a(I11
I1
tp565
a(I2
I3
tp566
a(I0
I7
tp567
a(I8
I7
tp568
a(I6
I2
tp569
ag554
atp570
Rp571
sg15
I13
sg31
g20
((lp572
(I0
I1
tp573
a(I2
I6
tp574
a(I2
I9
tp575
a(I11
I8
tp576
a(I2
I8
tp577
a(I9
I3
tp578
a(I6
I0
tp579
a(I3
I0
tp580
a(I7
I7
tp581
a(I6
I3
tp582
a(I9
I2
tp583
a(I12
I4
tp584
a(I0
I4
tp585
a(I2
I4
tp586
a(I9
I7
tp587
atp588
Rp589
sg13
((I12
I0
tp590
(I7
I8
tp591
(I2
I5
tp592
(I4
I5
tp593
(I12
I7
tp594
(I9
I4
tp595
tp596
sg14
I10
sbs(iproblems
RoomID
p597
(dp598
g10
I11
sg11
(I3
I6
tp599
sg13
I7
sg14
I11
sg15
I12
sg16
I8554152435637441414
sb(imulti_robot_problem
MultiRobotState
p600
(dp601
g19
g20
((lp602
(I3
I1
tp603
a(I3
I8
tp604
a(I4
I5
tp605
a(I2
I8
tp606
a(I11
I2
tp607
a(I1
I7
tp608
a(I7
I5
tp609
a(I9
I4
tp610
a(I3
I7
tp611
a(I5
I1
tp612
a(I9
I6
tp613
a(I7
I9
tp614
a(I6
I3
tp615
a(I7
I6
tp616
a(I4
I4
tp617
a(I7
I4
tp618
a(I1
I8
tp619
a(I8
I8
tp620
ag599
a(I0
I4
tp621
a(I0
I9
tp622
a(I8
I6
tp623
a(I9
I7
tp624
atp625
Rp626
sg15
I12
sg31
g20
((lp627
(I11
I10
tp628
a(I4
I9
tp629
a(I2
I9
tp630
a(I3
I0
tp631
a(I8
I0
tp632
a(I4
I7
tp633
a(I1
I4
tp634
a(I0
I3
tp635
a(I0
I8
tp636
a(I5
I2
tp637
a(I7
I2
tp638
atp639
Rp640
sg13
((I6
I4
tp641
(I8
I2
tp642
(I8
I5
tp643
(I10
I8
tp644
(I1
I2
tp645
(I6
I0
tp646
(I10
I4
tp647
tp648
sg14
I11
sbs(iproblems
RoomID
p649
(dp650
g10
I12
sg11
(I3
I3
tp651
sg13
I6
sg14
I12
sg15
I12
sg16
I6241004153072892496
sb(imulti_robot_problem
MultiRobotState
p652
(dp653
g19
g20
((lp654
(I9
I3
tp655
ag651
a(I2
I9
tp656
a(I7
I1
tp657
a(I11
I8
tp658
a(I3
I4
tp659
a(I6
I1
tp660
a(I3
I1
tp661
a(I5
I2
tp662
a(I4
I3
tp663
a(I4
I2
tp664
a(I8
I5
tp665
a(I11
I6
tp666
atp667
Rp668
sg15
I12
sg31
g20
((lp669
(I4
I10
tp670
a(I0
I0
tp671
a(I7
I10
tp672
a(I5
I11
tp673
a(I8
I0
tp674
a(I9
I10
tp675
a(I8
I7
tp676
a(I10
I1
tp677
a(I2
I5
tp678
a(I8
I9
tp679
a(I4
I11
tp680
a(I10
I4
tp681
atp682
Rp683
sg13
((I8
I6
tp684
(I5
I4
tp685
(I7
I2
tp686
(I4
I7
tp687
(I1
I7
tp688
(I5
I6
tp689
tp690
sg14
I12
sbssg164
S'heavy_roomset'
p691
sbsg164
g166
sg167
(dp692
g452
((lp693
F40.019999999996799
tp694
sg501
((lp695
(F18.340000000003783
I17
tp696
aF41.410000000003492
tp697
sg552
((lp698
(F18.309999999997672
I29
tp699
aF40.900000000001455
tp700
sg597
((lp701
(F38.029999999998836
I14
tp702
aF44.819999999999709
tp703
sg649
((lp704
F40.389999999999418
tp705
ssba(imeasure_core
ProblemSetSolution
p706
(dp707
g3
g4
sg164
S"AnytimeBeam-w20-gf(1.5, 'exp')_with_PowerHeuristic2"
p708
sg167
(dp709
g8
((lp710
(F0.41999999999825377
I10
tp711
aF40.209999999999127
tp712
sg48
((lp713
(F0.099999999998544808
I8
tp714
aF40.099999999998545
tp715
sg76
((lp716
(F0.27999999999883585
I8
tp717
aF40.389999999999418
tp718
sg105
((lp719
(F0.56999999999970896
I13
tp720
aF40.069999999999709
tp721
sg134
((lp722
(F0.73000000000320142
I48
tp723
aF40.030000000006112
tp724
ssba(imeasure_core
ProblemSetSolution
p725
(dp726
g3
g186
sg164
g708
sg167
(dp727
g189
((lp728
F40.039999999993597
tp729
sg237
((lp730
(F1.0300000000061118
I30
tp731
aF40.100000000005821
tp732
sg387
((lp733
(F0.23999999999796273
I13
tp734
aF40.009999999994761
tp735
sg290
((lp736
(F2.4599999999991269
I55
tp737
aF40.139999999999418
tp738
sg336
((lp739
(F34.309999999997672
I288
tp740
aF40.0
tp741
ssba(imeasure_core
ProblemSetSolution
p742
(dp743
g3
g449
sg164
g708
sg167
(dp744
g452
((lp745
F40.139999999999418
tp746
sg501
((lp747
(F18.370000000002619
I17
tp748
aF41.580000000001746
tp749
sg552
((lp750
(F18.30000000000291
I29
tp751
aF41.059999999997672
tp752
sg597
((lp753
(F37.990000000005239
I14
tp754
aF44.790000000000873
tp755
sg649
((lp756
F40.340000000003783
tp757
ssba(imeasure_core
ProblemSetSolution
p758
(dp759
g3
g4
sg164
S"AnytimeBeam-w20-gf(1.7, 'exp')_with_PowerHeuristic2"
p760
sg167
(dp761
g8
((lp762
(F0.41999999999825377
I10
tp763
aF40.189999999995052
tp764
sg48
((lp765
(F0.11000000000058208
I8
tp766
aF40.0
tp767
sg76
((lp768
(F0.27999999999883585
I8
tp769
aF40.310000000004948
tp770
sg105
((lp771
(F0.56999999999970896
I13
tp772
aF40.149999999994179
tp773
sg134
((lp774
(F0.73000000000320142
I48
tp775
aF40.080000000001746
tp776
ssba(imeasure_core
ProblemSetSolution
p777
(dp778
g3
g186
sg164
g760
sg167
(dp779
g189
((lp780
F40.0
tp781
sg237
((lp782
(F1.0400000000008731
I30
tp783
aF40.120000000002619
tp784
sg387
((lp785
(F0.25
I13
tp786
aF40.010000000002037
tp787
sg290
((lp788
(F2.4499999999970896
I55
tp789
aF40.059999999997672
tp790
sg336
((lp791
(F38.319999999999709
I281
tp792
aF40.019999999996799
tp793
ssba(imeasure_core
ProblemSetSolution
p794
(dp795
g3
g449
sg164
g760
sg167
(dp796
g452
((lp797
F40.319999999999709
tp798
sg501
((lp799
(F18.319999999999709
I17
tp800
aF41.970000000001164
tp801
sg552
((lp802
(F18.360000000000582
I29
tp803
aF42.110000000000582
tp804
sg597
((lp805
(F38.119999999995343
I14
tp806
aF44.930000000000291
tp807
sg649
((lp808
F40.400000000001455
tp809
ssba(imeasure_core
ProblemSetSolution
p810
(dp811
g3
g4
sg164
S"AnytimeBeam-w20-gf(1.8999999999999999, 'exp')_with_PowerHeuristic2"
p812
sg167
(dp813
g8
((lp814
(F0.41999999999825377
I10
tp815
aF40.07999999999447
tp816
sg48
((lp817
(F0.10000000000582077
I8
tp818
aF40.040000000000873
tp819
sg76
((lp820
(F0.27999999999883585
I8
tp821
aF40.520000000004075
tp822
sg105
((lp823
(F0.56999999999970896
I13
tp824
aF40.069999999999709
tp825
sg134
((lp826
(F0.72999999999592546
I48
tp827
aF40.059999999997672
tp828
ssba(imeasure_core
ProblemSetSolution
p829
(dp830
g3
g186
sg164
g812
sg167
(dp831
g189
((lp832
F40.0
tp833
sg237
((lp834
(F1.0400000000008731
I30
tp835
aF40.260000000002037
tp836
sg387
((lp837
(F0.24000000000523869
I13
tp838
aF40.080000000001746
tp839
sg290
((lp840
(F2.4700000000011642
I55
tp841
aF40.049999999995634
tp842
sg336
((lp843
F40.0
tp844
ssba(imeasure_core
ProblemSetSolution
p845
(dp846
g3
g449
sg164
g812
sg167
(dp847
g452
((lp848
F40.229999999995925
tp849
sg501
((lp850
(F18.330000000001746
I17
tp851
aF42.090000000003783
tp852
sg552
((lp853
(F18.279999999998836
I29
tp854
aF42.150000000001455
tp855
sg597
((lp856
(F37.989999999997963
I14
tp857
aF44.799999999995634
tp858
sg649
((lp859
F40.310000000004948
tp860
ssba(imeasure_core
ProblemSetSolution
p861
(dp862
g3
g4
sg164
S"AnytimeBeam-w20-gf(1.3, 'exp')_with_LinearHeuristic"
p863
sg167
(dp864
g8
((lp865
(F1.2399999999979627
I29
tp866
aF40.309999999997672
tp867
sg48
((lp868
(F0.12999999999738066
I7
tp869
aF40.0
tp870
sg76
((lp871
F40.099999999998545
tp872
sg105
((lp873
F40.150000000001455
tp874
sg134
((lp875
(F32.110000000000582
I256
tp876
aF40.019999999996799
tp877
ssba(imeasure_core
ProblemSetSolution
p878
(dp879
g3
g186
sg164
g863
sg167
(dp880
g189
((lp881
F40.05000000000291
tp882
sg237
((lp883
F40.040000000000873
tp884
sg387
((lp885
(F0.51999999999679858
I27
tp886
aF40.019999999996799
tp887
sg290
((lp888
(F0.31999999999970896
I8
tp889
aF40.0
tp890
sg336
((lp891
F40.0
tp892
ssba(imeasure_core
ProblemSetSolution
p893
(dp894
g3
g449
sg164
g863
sg167
(dp895
g452
((lp896
F40.319999999999709
tp897
sg501
((lp898
F40.010000000002037
tp899
sg552
((lp900
F40.360000000000582
tp901
sg597
((lp902
F40.409999999996217
tp903
sg649
((lp904
(F18.690000000002328
I10
tp905
aF41.220000000001164
tp906
ssba(imeasure_core
ProblemSetSolution
p907
(dp908
g3
g4
sg164
S"AnytimeBeam-w20-gf(1.5, 'exp')_with_LinearHeuristic"
p909
sg167
(dp910
g8
((lp911
(F1.2399999999979627
I29
tp912
aF40.309999999997672
tp913
sg48
((lp914
(F0.12999999999738066
I7
tp915
aF40.0
tp916
sg76
((lp917
F40.090000000003783
tp918
sg105
((lp919
F40.07999999999447
tp920
sg134
((lp921
(F31.360000000000582
I256
tp922
aF40.080000000001746
tp923
ssba(imeasure_core
ProblemSetSolution
p924
(dp925
g3
g186
sg164
g909
sg167
(dp926
g189
((lp927
F40.059999999997672
tp928
sg237
((lp929
F40.110000000000582
tp930
sg387
((lp931
(F0.51999999999679858
I27
tp932
aF40.029999999998836
tp933
sg290
((lp934
(F0.31999999999970896
I8
tp935
aF40.040000000000873
tp936
sg336
((lp937
F40.040000000000873
tp938
ssba(imeasure_core
ProblemSetSolution
p939
(dp940
g3
g449
sg164
g909
sg167
(dp941
g452
((lp942
F40.430000000000291
tp943
sg501
((lp944
F40.099999999998545
tp945
sg552
((lp946
F40.389999999999418
tp947
sg597
((lp948
F40.400000000001455
tp949
sg649
((lp950
(F18.629999999997381
I10
tp951
aF41.290000000000873
tp952
ssba(imeasure_core
ProblemSetSolution
p953
(dp954
g3
g4
sg164
S"AnytimeBeam-w20-gf(1.7, 'exp')_with_LinearHeuristic"
p955
sg167
(dp956
g8
((lp957
(F1.2399999999979627
I29
tp958
aF40.0
tp959
sg48
((lp960
(F0.12999999999738066
I7
tp961
aF40.049999999995634
tp962
sg76
((lp963
F40.090000000003783
tp964
sg105
((lp965
F40.129999999997381
tp966
sg134
((lp967
(F31.709999999999127
I256
tp968
aF40.040000000000873
tp969
ssba(imeasure_core
ProblemSetSolution
p970
(dp971
g3
g186
sg164
g955
sg167
(dp972
g189
((lp973
F40.009999999994761
tp974
sg237
((lp975
F40.010000000002037
tp976
sg387
((lp977
(F0.51000000000203727
I27
tp978
aF40.120000000002619
tp979
sg290
((lp980
(F0.31999999999970896
I8
tp981
aF40.040000000000873
tp982
sg336
((lp983
F40.279999999998836
tp984
ssba(imeasure_core
ProblemSetSolution
p985
(dp986
g3
g449
sg164
g955
sg167
(dp987
g452
((lp988
F40.409999999996217
tp989
sg501
((lp990
F40.040000000000873
tp991
sg552
((lp992
F40.389999999999418
tp993
sg597
((lp994
F40.410000000003492
tp995
sg649
((lp996
(F18.599999999998545
I10
tp997
aF42.830000000001746
tp998
ssba(imeasure_core
ProblemSetSolution
p999
(dp1000
g3
g4
sg164
S"AnytimeBeam-w20-gf(1.8999999999999999, 'exp')_with_LinearHeuristic"
p1001
sg167
(dp1002
g8
((lp1003
(F1.2400000000052387
I29
tp1004
aF40.090000000003783
tp1005
sg48
((lp1006
(F0.12999999999738066
I7
tp1007
aF40.0
tp1008
sg76
((lp1009
F40.049999999995634
tp1010
sg105
((lp1011
F40.180000000000291
tp1012
sg134
((lp1013
(F31.430000000000291
I256
tp1014
aF40.040000000000873
tp1015
ssba(imeasure_core
ProblemSetSolution
p1016
(dp1017
g3
g186
sg164
g1001
sg167
(dp1018
g189
((lp1019
F40.139999999999418
tp1020
sg237
((lp1021
F40.029999999998836
tp1022
sg387
((lp1023
(F0.52000000000407454
I27
tp1024
aF40.010000000002037
tp1025
sg290
((lp1026
(F0.31999999999970896
I8
tp1027
aF40.090000000003783
tp1028
sg336
((lp1029
F40.219999999993888
tp1030
ssba(imeasure_core
ProblemSetSolution
p1031
(dp1032
g3
g449
sg164
g1001
sg167
(dp1033
g452
((lp1034
F40.25
tp1035
sg501
((lp1036
F40.069999999999709
tp1037
sg552
((lp1038
F40.209999999999127
tp1039
sg597
((lp1040
F40.340000000003783
tp1041
sg649
((lp1042
(F18.559999999997672
I10
tp1043
aF42.819999999999709
tp1044
ssba.