(lp0
(imeasure_core
ProblemSetSolution
p1
(dp2
S'roomset'
p3
(imeasure_core
RoomSet
p4
(dp5
S'rooms'
p6
(dp7
(iproblems
RoomID
p8
(dp9
S'dusts'
p10
I8
sS'obstacles'
p11
(I0
I4
tp12
sS'robots'
p13
I4
sS'height'
p14
I7
sS'width'
p15
I9
sS'seed'
p16
I1689441204489037471
sb(imulti_robot_problem
MultiRobotState
p17
(dp18
S'obstacle_locations'
p19
c__builtin__
frozenset
p20
((lp21
(I0
I1
tp22
a(I1
I2
tp23
a(I3
I2
tp24
a(I8
I1
tp25
a(I4
I3
tp26
ag12
a(I0
I3
tp27
a(I4
I0
tp28
atp29
Rp30
sg15
I9
sS'dirt_locations'
p31
g20
((lp32
(I0
I0
tp33
a(I7
I0
tp34
a(I7
I6
tp35
a(I1
I4
tp36
a(I6
I2
tp37
a(I2
I3
tp38
a(I5
I1
tp39
a(I3
I5
tp40
atp41
Rp42
sg13
((I6
I0
tp43
(I5
I4
tp44
(I6
I6
tp45
(I5
I0
tp46
tp47
sg14
I7
sbs(iproblems
RoomID
p48
(dp49
g10
I10
sg11
(I4
I5
tp50
sg13
I3
sg14
I8
sg15
I10
sg16
I6660334802794327005
sb(imulti_robot_problem
MultiRobotState
p51
(dp52
g19
g20
((lp53
(I9
I0
tp54
a(I2
I6
tp55
a(I1
I6
tp56
a(I3
I6
tp57
ag50
a(I8
I4
tp58
atp59
Rp60
sg15
I10
sg31
g20
((lp61
(I9
I1
tp62
a(I5
I6
tp63
a(I9
I6
tp64
a(I1
I5
tp65
a(I7
I5
tp66
a(I9
I4
tp67
a(I1
I7
tp68
a(I4
I1
tp69
a(I7
I2
tp70
a(I8
I2
tp71
atp72
Rp73
sg13
((I7
I3
tp74
(I4
I7
tp75
(I4
I2
tp76
tp77
sg14
I8
sbs(iproblems
RoomID
p78
(dp79
g10
I6
sg11
(I3
I0
tp80
sg13
I4
sg14
I10
sg15
I7
sg16
I3914746131789064238
sb(imulti_robot_problem
MultiRobotState
p81
(dp82
g19
g20
((lp83
g80
a(I6
I1
tp84
a(I2
I3
tp85
a(I5
I0
tp86
a(I2
I2
tp87
a(I0
I3
tp88
a(I0
I8
tp89
a(I4
I1
tp90
a(I3
I5
tp91
atp92
Rp93
sg15
I7
sg31
g20
((lp94
(I6
I5
tp95
a(I3
I3
tp96
a(I1
I7
tp97
a(I0
I4
tp98
a(I3
I4
tp99
a(I0
I7
tp100
atp101
Rp102
sg13
((I1
I8
tp103
(I5
I1
tp104
(I5
I3
tp105
(I1
I9
tp106
tp107
sg14
I10
sbs(iproblems
RoomID
p108
(dp109
g10
I6
sg11
(I8
I4
tp110
sg13
I4
sg14
I10
sg15
I9
sg16
I3119042104763040036
sb(imulti_robot_problem
MultiRobotState
p111
(dp112
g19
g20
((lp113
(I1
I2
tp114
a(I6
I7
tp115
a(I4
I8
tp116
a(I7
I6
tp117
a(I8
I5
tp118
ag110
atp119
Rp120
sg15
I9
sg31
g20
((lp121
(I6
I8
tp122
a(I8
I7
tp123
a(I6
I6
tp124
a(I3
I0
tp125
a(I7
I2
tp126
a(I6
I5
tp127
atp128
Rp129
sg13
((I5
I9
tp130
(I6
I1
tp131
(I3
I4
tp132
(I2
I7
tp133
tp134
sg14
I10
sbs(iproblems
RoomID
p135
(dp136
g10
I7
sg11
(I2
I5
tp137
sg13
I5
sg14
I9
sg15
I9
sg16
I4640892725076559864
sb(imulti_robot_problem
MultiRobotState
p138
(dp139
g19
g20
((lp140
(I2
I6
tp141
a(I6
I7
tp142
a(I0
I6
tp143
a(I3
I1
tp144
a(I1
I5
tp145
a(I1
I6
tp146
a(I0
I4
tp147
ag137
a(I3
I4
tp148
atp149
Rp150
sg15
I9
sg31
g20
((lp151
(I3
I8
tp152
a(I7
I3
tp153
a(I7
I1
tp154
a(I8
I1
tp155
a(I8
I6
tp156
a(I4
I2
tp157
a(I5
I3
tp158
atp159
Rp160
sg13
((I6
I5
tp161
(I8
I4
tp162
(I7
I6
tp163
(I6
I0
tp164
(I6
I3
tp165
tp166
sg14
I9
sbssS'name'
p167
S'easy_roomset'
p168
sbsg167
S"AnytimeBeam-w20-gf(2, 'lin')_with_PowerHeuristic2"
p169
sS'solutions'
p170
(dp171
g8
((lp172
(F0.34000000000014552
I8
tp173
aF40.06000000000131
tp174
sg48
((lp175
(F0.26000000000021828
I23
tp176
aF40.029999999998836
tp177
sg78
((lp178
(F0.22000000000116415
I7
tp179
aF40.069999999999709
tp180
sg108
((lp181
(F0.48000000000138243
I11
tp182
aF40.079999999999927
tp183
sg135
((lp184
(F1.3800000000010186
I6
tp185
aF40.150000000001455
tp186
ssba(imeasure_core
ProblemSetSolution
p187
(dp188
g3
(imeasure_core
RoomSet
p189
(dp190
g6
(dp191
(iproblems
RoomID
p192
(dp193
g10
I6
sg11
(I5
I5
tp194
sg13
I4
sg14
I12
sg15
I11
sg16
I3119042104763040036
sb(imulti_robot_problem
MultiRobotState
p195
(dp196
g19
g20
((lp197
(I4
I6
tp198
a(I10
I4
tp199
a(I3
I0
tp200
a(I9
I8
tp201
a(I10
I6
tp202
a(I2
I1
tp203
a(I8
I9
tp204
a(I2
I3
tp205
a(I0
I10
tp206
a(I9
I5
tp207
a(I10
I3
tp208
a(I7
I9
tp209
ag194
a(I10
I7
tp210
a(I7
I8
tp211
a(I4
I4
tp212
a(I9
I2
tp213
a(I2
I4
tp214
a(I4
I5
tp215
a(I2
I2
tp216
a(I3
I3
tp217
a(I3
I4
tp218
a(I1
I1
tp219
atp220
Rp221
sg15
I11
sg31
g20
((lp222
(I8
I3
tp223
a(I8
I8
tp224
a(I5
I10
tp225
a(I9
I4
tp226
a(I8
I6
tp227
a(I10
I9
tp228
atp229
Rp230
sg13
((I6
I11
tp231
(I7
I2
tp232
(I2
I8
tp233
(I8
I10
tp234
tp235
sg14
I12
sbs(iproblems
RoomID
p236
(dp237
g10
I6
sg11
(I4
I8
tp238
sg13
I4
sg14
I12
sg15
I9
sg16
I3914746131789064238
sb(imulti_robot_problem
MultiRobotState
p239
(dp240
g19
g20
((lp241
(I4
I6
tp242
a(I6
I6
tp243
a(I4
I5
tp244
a(I5
I7
tp245
a(I0
I5
tp246
a(I0
I10
tp247
a(I8
I7
tp248
a(I7
I0
tp249
a(I0
I3
tp250
a(I8
I5
tp251
a(I4
I0
tp252
a(I2
I3
tp253
a(I6
I7
tp254
a(I3
I3
tp255
a(I8
I1
tp256
a(I7
I6
tp257
a(I3
I1
tp258
ag238
a(I5
I0
tp259
a(I2
I2
tp260
a(I0
I9
tp261
a(I8
I6
tp262
a(I5
I3
tp263
a(I6
I1
tp264
atp265
Rp266
sg15
I9
sg31
g20
((lp267
(I1
I8
tp268
a(I1
I9
tp269
a(I4
I3
tp270
a(I4
I4
tp271
a(I2
I11
tp272
a(I2
I10
tp273
atp274
Rp275
sg13
((I1
I10
tp276
(I6
I2
tp277
(I7
I3
tp278
(I1
I11
tp279
tp280
sg14
I12
sbs(iproblems
RoomID
p281
(dp282
g10
I9
sg11
(I9
I9
tp283
sg13
I3
sg14
I10
sg15
I10
sg16
I3273124617966689144
sb(imulti_robot_problem
MultiRobotState
p284
(dp285
g19
g20
((lp286
(I7
I3
tp287
a(I5
I4
tp288
a(I1
I3
tp289
a(I6
I4
tp290
a(I4
I5
tp291
a(I9
I8
tp292
a(I3
I2
tp293
a(I7
I5
tp294
a(I1
I6
tp295
a(I2
I5
tp296
a(I0
I8
tp297
a(I9
I6
tp298
a(I6
I5
tp299
a(I5
I3
tp300
a(I3
I3
tp301
a(I5
I5
tp302
a(I7
I6
tp303
ag283
a(I6
I3
tp304
a(I4
I3
tp305
a(I2
I3
tp306
a(I8
I6
tp307
a(I2
I4
tp308
a(I9
I7
tp309
atp310
Rp311
sg15
I10
sg31
g20
((lp312
(I7
I0
tp313
a(I3
I0
tp314
a(I6
I1
tp315
a(I3
I1
tp316
a(I5
I0
tp317
a(I2
I2
tp318
a(I3
I4
tp319
a(I1
I1
tp320
a(I8
I4
tp321
atp322
Rp323
sg13
((I0
I7
tp324
(I2
I1
tp325
(I6
I6
tp326
tp327
sg14
I10
sbs(iproblems
RoomID
p328
(dp329
g10
I5
sg11
(I5
I7
tp330
sg13
I4
sg14
I9
sg15
I12
sg16
I659184109953178577
sb(imulti_robot_problem
MultiRobotState
p331
(dp332
g19
g20
((lp333
(I7
I3
tp334
a(I4
I7
tp335
a(I8
I2
tp336
a(I6
I6
tp337
a(I4
I5
tp338
a(I7
I7
tp339
a(I11
I0
tp340
a(I7
I5
tp341
a(I9
I4
tp342
a(I2
I5
tp343
a(I0
I8
tp344
a(I10
I3
tp345
a(I7
I2
tp346
a(I4
I6
tp347
a(I6
I4
tp348
a(I4
I3
tp349
a(I3
I3
tp350
a(I6
I1
tp351
ag330
a(I6
I5
tp352
a(I3
I6
tp353
a(I8
I6
tp354
a(I3
I4
tp355
atp356
Rp357
sg15
I12
sg31
g20
((lp358
(I10
I8
tp359
a(I4
I1
tp360
a(I0
I2
tp361
a(I1
I6
tp362
a(I10
I4
tp363
atp364
Rp365
sg13
((I10
I0
tp366
(I7
I0
tp367
(I2
I6
tp368
(I8
I3
tp369
tp370
sg14
I9
sbs(iproblems
RoomID
p371
(dp372
g10
I9
sg11
(I9
I10
tp373
sg13
I3
sg14
I11
sg15
I10
sg16
I4253868527325451640
sb(imulti_robot_problem
MultiRobotState
p374
(dp375
g19
g20
((lp376
(I7
I3
tp377
a(I4
I7
tp378
a(I2
I6
tp379
a(I7
I10
tp380
a(I4
I8
tp381
a(I6
I9
tp382
ag373
a(I3
I9
tp383
a(I1
I6
tp384
a(I3
I7
tp385
a(I2
I5
tp386
a(I8
I5
tp387
a(I5
I8
tp388
a(I7
I9
tp389
a(I7
I1
tp390
a(I8
I10
tp391
a(I5
I0
tp392
a(I2
I3
tp393
a(I3
I5
tp394
a(I3
I4
tp395
a(I2
I4
tp396
atp397
Rp398
sg15
I10
sg31
g20
((lp399
(I8
I9
tp400
a(I5
I10
tp401
a(I6
I8
tp402
a(I7
I6
tp403
a(I3
I8
tp404
a(I0
I10
tp405
a(I9
I4
tp406
a(I0
I9
tp407
a(I5
I3
tp408
atp409
Rp410
sg13
((I3
I6
tp411
(I0
I8
tp412
(I2
I1
tp413
tp414
sg14
I11
sbssg167
S'mild_roomset'
p415
sbsg167
g169
sg170
(dp416
g192
((lp417
(F6.8999999999996362
I164
tp418
aF40.010000000000218
tp419
sg236
((lp420
(F0.22999999999956344
I6
tp421
aF40.159999999999854
tp422
sg281
((lp423
(F2.0900000000001455
I89
tp424
a(F3.9200000000000728
I67
tp425
a(F8.5299999999988358
I52
tp426
aF40.0
tp427
sg328
((lp428
(F1.2699999999986176
I18
tp429
aF40.0
tp430
sg371
((lp431
(F0.37999999999919964
I32
tp432
aF40.0
tp433
ssba(imeasure_core
ProblemSetSolution
p434
(dp435
g3
(imeasure_core
RoomSet
p436
(dp437
g6
(dp438
(iproblems
RoomID
p439
(dp440
g10
I13
sg11
(I3
I4
tp441
sg13
I6
sg14
I10
sg15
I12
sg16
I1689441204489037471
sb(imulti_robot_problem
MultiRobotState
p442
(dp443
g19
g20
((lp444
(I7
I3
tp445
a(I1
I3
tp446
a(I8
I7
tp447
a(I10
I6
tp448
a(I7
I7
tp449
a(I6
I2
tp450
a(I1
I6
tp451
a(I9
I4
tp452
a(I4
I2
tp453
a(I5
I1
tp454
a(I10
I3
tp455
a(I2
I7
tp456
a(I9
I3
tp457
a(I9
I5
tp458
a(I0
I5
tp459
a(I11
I5
tp460
a(I8
I5
tp461
a(I5
I2
tp462
a(I0
I2
tp463
a(I3
I8
tp464
a(I4
I3
tp465
a(I0
I4
tp466
ag441
a(I8
I6
tp467
a(I4
I1
tp468
a(I1
I1
tp469
a(I8
I4
tp470
atp471
Rp472
sg15
I12
sg31
g20
((lp473
(I8
I9
tp474
a(I9
I0
tp475
a(I0
I0
tp476
a(I10
I4
tp477
a(I4
I8
tp478
a(I8
I1
tp479
a(I11
I2
tp480
a(I5
I4
tp481
a(I7
I4
tp482
a(I11
I8
tp483
a(I2
I6
tp484
a(I2
I3
tp485
a(I1
I5
tp486
atp487
Rp488
sg13
((I8
I0
tp489
(I7
I6
tp490
(I8
I8
tp491
(I7
I0
tp492
(I2
I4
tp493
(I9
I9
tp494
tp495
sg14
I10
sbs(iproblems
RoomID
p496
(dp497
g10
I15
sg11
(I10
I7
tp498
sg13
I6
sg14
I11
sg15
I13
sg16
I6660334802794327005
sb(imulti_robot_problem
MultiRobotState
p499
(dp500
g19
g20
((lp501
(I4
I7
tp502
a(I11
I7
tp503
a(I5
I6
tp504
a(I2
I8
tp505
a(I9
I9
tp506
a(I9
I10
tp507
a(I10
I8
tp508
a(I9
I0
tp509
ag498
a(I5
I7
tp510
a(I8
I10
tp511
a(I3
I8
tp512
a(I1
I5
tp513
a(I1
I8
tp514
a(I1
I10
tp515
a(I10
I0
tp516
a(I2
I4
tp517
atp518
Rp519
sg15
I13
sg31
g20
((lp520
(I2
I7
tp521
a(I12
I2
tp522
a(I6
I9
tp523
a(I6
I10
tp524
a(I12
I1
tp525
a(I2
I9
tp526
a(I12
I0
tp527
a(I12
I9
tp528
a(I11
I2
tp529
a(I10
I6
tp530
a(I1
I7
tp531
a(I12
I5
tp532
a(I6
I3
tp533
a(I10
I3
tp534
a(I12
I8
tp535
atp536
Rp537
sg13
((I9
I5
tp538
(I5
I10
tp539
(I5
I3
tp540
(I5
I1
tp541
(I9
I3
tp542
(I7
I8
tp543
tp544
sg14
I11
sbs(iproblems
RoomID
p545
(dp546
g10
I11
sg11
(I7
I6
tp547
sg13
I7
sg14
I13
sg15
I12
sg16
I3119042104763040036
sb(imulti_robot_problem
MultiRobotState
p548
(dp549
g19
g20
((lp550
(I5
I4
tp551
a(I4
I5
tp552
a(I9
I8
tp553
a(I10
I6
tp554
a(I9
I0
tp555
a(I6
I0
tp556
a(I8
I9
tp557
a(I2
I12
tp558
a(I9
I6
tp559
a(I10
I5
tp560
a(I5
I10
tp561
a(I10
I7
tp562
ag547
a(I9
I9
tp563
a(I8
I6
tp564
a(I11
I6
tp565
a(I9
I7
tp566
atp567
Rp568
sg15
I12
sg31
g20
((lp569
(I1
I2
tp570
a(I4
I4
tp571
a(I5
I11
tp572
a(I5
I6
tp573
a(I3
I4
tp574
a(I8
I0
tp575
a(I8
I10
tp576
a(I0
I11
tp577
a(I2
I3
tp578
a(I7
I8
tp579
a(I4
I0
tp580
atp581
Rp582
sg13
((I7
I12
tp583
(I8
I2
tp584
(I4
I6
tp585
(I3
I9
tp586
(I9
I11
tp587
(I11
I9
tp588
(I9
I3
tp589
tp590
sg14
I13
sbs(iproblems
RoomID
p591
(dp592
g10
I12
sg11
(I8
I7
tp593
sg13
I7
sg14
I12
sg15
I12
sg16
I4640892725076559864
sb(imulti_robot_problem
MultiRobotState
p594
(dp595
g19
g20
((lp596
(I5
I9
tp597
a(I6
I9
tp598
a(I4
I8
tp599
a(I5
I6
tp600
a(I2
I8
tp601
a(I6
I0
tp602
a(I2
I10
tp603
a(I0
I9
tp604
a(I6
I2
tp605
ag593
a(I3
I7
tp606
a(I5
I1
tp607
a(I1
I0
tp608
a(I8
I5
tp609
a(I7
I9
tp610
a(I7
I4
tp611
a(I7
I0
tp612
a(I6
I8
tp613
a(I2
I9
tp614
a(I0
I6
tp615
a(I7
I6
tp616
a(I5
I7
tp617
a(I8
I10
tp618
a(I0
I2
tp619
a(I6
I3
tp620
a(I2
I0
tp621
a(I1
I8
tp622
a(I4
I5
tp623
a(I5
I2
tp624
a(I1
I1
tp625
a(I9
I7
tp626
atp627
Rp628
sg15
I12
sg31
g20
((lp629
(I2
I7
tp630
a(I6
I4
tp631
a(I11
I10
tp632
a(I4
I6
tp633
a(I11
I8
tp634
a(I11
I2
tp635
a(I9
I3
tp636
a(I3
I2
tp637
a(I8
I8
tp638
a(I0
I5
tp639
a(I10
I3
tp640
a(I5
I3
tp641
atp642
Rp643
sg13
((I8
I6
tp644
(I11
I5
tp645
(I10
I8
tp646
(I9
I0
tp647
(I9
I4
tp648
(I9
I2
tp649
(I4
I11
tp650
tp651
sg14
I12
sbs(iproblems
RoomID
p652
(dp653
g10
I11
sg11
(I6
I1
tp654
sg13
I7
sg14
I13
sg15
I10
sg16
I3914746131789064238
sb(imulti_robot_problem
MultiRobotState
p655
(dp656
g19
g20
((lp657
(I0
I0
tp658
a(I7
I0
tp659
a(I9
I1
tp660
a(I2
I9
tp661
a(I7
I1
tp662
a(I9
I2
tp663
ag654
a(I6
I3
tp664
a(I8
I1
tp665
a(I7
I2
tp666
a(I5
I1
tp667
a(I7
I8
tp668
a(I6
I5
tp669
a(I5
I5
tp670
atp671
Rp672
sg15
I10
sg31
g20
((lp673
(I4
I7
tp674
a(I3
I3
tp675
a(I4
I5
tp676
a(I4
I4
tp677
a(I1
I4
tp678
a(I0
I11
tp679
a(I0
I5
tp680
a(I0
I10
tp681
a(I8
I7
tp682
a(I9
I5
tp683
a(I5
I3
tp684
atp685
Rp686
sg13
((I1
I11
tp687
(I8
I4
tp688
(I2
I12
tp689
(I1
I9
tp690
(I2
I11
tp691
(I5
I4
tp692
(I5
I0
tp693
tp694
sg14
I13
sbssg167
S'heavy_roomset'
p695
sbsg167
g169
sg170
(dp696
g439
((lp697
F40.429999999998472
tp698
sg496
((lp699
(F16.270000000000437
I11
tp700
aF42.300000000001091
tp701
sg545
((lp702
F45.319999999999709
tp703
sg591
((lp704
F40.139999999999418
tp705
sg652
((lp706
F41.380000000001019
tp707
ssba(imeasure_core
ProblemSetSolution
p708
(dp709
g3
g4
sg167
S"AnytimeBeam-w20-gf(4, 'lin')_with_PowerHeuristic2"
p710
sg170
(dp711
g8
((lp712
(F0.34999999999854481
I8
tp713
aF40.069999999999709
tp714
sg48
((lp715
(F0.25
I23
tp716
aF40.0
tp717
sg78
((lp718
(F0.20999999999912689
I7
tp719
aF40.039999999999054
tp720
sg108
((lp721
(F0.48000000000138243
I11
tp722
aF40.079999999999927
tp723
sg135
((lp724
(F1.4000000000014552
I6
tp725
aF40.659999999999854
tp726
ssba(imeasure_core
ProblemSetSolution
p727
(dp728
g3
g189
sg167
g710
sg170
(dp729
g192
((lp730
(F6.7700000000004366
I164
tp731
aF40.030000000000655
tp732
sg236
((lp733
(F0.23999999999978172
I6
tp734
aF40.050000000001091
tp735
sg281
((lp736
(F2.0799999999999272
I89
tp737
a(F3.9599999999991269
I67
tp738
a(F6.6399999999994179
I52
tp739
aF40.069999999999709
tp740
sg328
((lp741
(F1.2600000000002183
I18
tp742
aF40.109999999998763
tp743
sg371
((lp744
(F0.38000000000101863
I32
tp745
aF40.020000000000437
tp746
ssba(imeasure_core
ProblemSetSolution
p747
(dp748
g3
g436
sg167
g710
sg170
(dp749
g439
((lp750
F40.409999999999854
tp751
sg496
((lp752
(F16.260000000000218
I11
tp753
aF42.440000000000509
tp754
sg545
((lp755
F45.579999999999927
tp756
sg591
((lp757
F40.170000000000073
tp758
sg652
((lp759
F41.260000000000218
tp760
ssba(imeasure_core
ProblemSetSolution
p761
(dp762
g3
g4
sg167
S"AnytimeBeam-w20-gf(8, 'lin')_with_PowerHeuristic2"
p763
sg170
(dp764
g8
((lp765
(F0.3500000000003638
I8
tp766
aF40.039999999999054
tp767
sg48
((lp768
(F0.25
I23
tp769
aF40.030000000000655
tp770
sg78
((lp771
(F0.20999999999912689
I7
tp772
aF40.059999999999491
tp773
sg108
((lp774
(F0.47999999999956344
I11
tp775
aF40.050000000001091
tp776
sg135
((lp777
(F1.3999999999996362
I6
tp778
aF40.269999999998618
tp779
ssba(imeasure_core
ProblemSetSolution
p780
(dp781
g3
g189
sg167
g763
sg170
(dp782
g192
((lp783
(F6.8400000000001455
I164
tp784
aF40.0
tp785
sg236
((lp786
(F0.23000000000138243
I6
tp787
aF40.06000000000131
tp788
sg281
((lp789
(F2.0999999999985448
I89
tp790
a(F4.7899999999990541
I52
tp791
aF40.1299999999992
tp792
sg328
((lp793
(F1.2600000000002183
I18
tp794
aF40.020000000000437
tp795
sg371
((lp796
(F0.37999999999919964
I32
tp797
aF40.029999999998836
tp798
ssba(imeasure_core
ProblemSetSolution
p799
(dp800
g3
g436
sg167
g763
sg170
(dp801
g439
((lp802
F40.110000000000582
tp803
sg496
((lp804
(F16.190000000000509
I11
tp805
aF42.229999999999563
tp806
sg545
((lp807
F45.25
tp808
sg591
((lp809
F40.030000000000655
tp810
sg652
((lp811
F41.180000000000291
tp812
ssba(imeasure_core
ProblemSetSolution
p813
(dp814
g3
g4
sg167
S"AnytimeBeam-w20-gf(16, 'lin')_with_PowerHeuristic2"
p815
sg170
(dp816
g8
((lp817
(F0.33999999999832653
I8
tp818
aF40.289999999999054
tp819
sg48
((lp820
(F0.25
I23
tp821
aF40.040000000000873
tp822
sg78
((lp823
(F0.20999999999912689
I7
tp824
aF40.139999999999418
tp825
sg108
((lp826
(F0.46999999999934516
I11
tp827
aF40.069999999999709
tp828
sg135
((lp829
(F1.3700000000008004
I6
tp830
aF40.229999999999563
tp831
ssba(imeasure_core
ProblemSetSolution
p832
(dp833
g3
g189
sg167
g815
sg170
(dp834
g192
((lp835
(F6.75
I164
tp836
aF40.0
tp837
sg236
((lp838
(F0.23000000000138243
I6
tp839
aF40.0
tp840
sg281
((lp841
(F2.069999999999709
I89
tp842
a(F5.0600000000013097
I52
tp843
aF40.040000000000873
tp844
sg328
((lp845
(F1.25
I18
tp846
aF40.0
tp847
sg371
((lp848
(F0.37999999999919964
I32
tp849
aF40.079999999999927
tp850
ssba(imeasure_core
ProblemSetSolution
p851
(dp852
g3
g436
sg167
g815
sg170
(dp853
g439
((lp854
F40.059999999999491
tp855
sg496
((lp856
(F16.260000000000218
I11
tp857
aF42.720000000001164
tp858
sg545
((lp859
F45.25
tp860
sg591
((lp861
F40.039999999999054
tp862
sg652
((lp863
F41.219999999999345
tp864
ssba(imeasure_core
ProblemSetSolution
p865
(dp866
g3
g4
sg167
S"AnytimeBeam-w20-gf(2, 'lin')_with_LinearHeuristic"
p867
sg170
(dp868
g8
((lp869
(F32.8700000000008
I223
tp870
aF40.100000000000364
tp871
sg48
((lp872
(F2.1599999999998545
I49
tp873
aF40.010000000000218
tp874
sg78
((lp875
F40.020000000000437
tp876
sg108
((lp877
(F17.549999999999272
I165
tp878
aF40.049999999999272
tp879
sg135
((lp880
(F1.6399999999994179
I6
tp881
aF40.389999999999418
tp882
ssba(imeasure_core
ProblemSetSolution
p883
(dp884
g3
g189
sg167
g867
sg170
(dp885
g192
((lp886
F40.329999999999927
tp887
sg236
((lp888
(F0.36000000000058208
I12
tp889
aF40.070000000001528
tp890
sg281
((lp891
F40.039999999999054
tp892
sg328
((lp893
F40.309999999999491
tp894
sg371
((lp895
(F6.4200000000000728
I92
tp896
aF40.020000000000437
tp897
ssba(imeasure_core
ProblemSetSolution
p898
(dp899
g3
g436
sg167
g867
sg170
(dp900
g439
((lp901
F40.190000000000509
tp902
sg496
((lp903
F41.529999999998836
tp904
sg545
((lp905
F43.319999999999709
tp906
sg591
((lp907
F40.340000000000146
tp908
sg652
((lp909
F42.210000000000946
tp910
ssba(imeasure_core
ProblemSetSolution
p911
(dp912
g3
g4
sg167
S"AnytimeBeam-w20-gf(4, 'lin')_with_LinearHeuristic"
p913
sg170
(dp914
g8
((lp915
(F32.869999999998981
I223
tp916
aF40.029999999998836
tp917
sg48
((lp918
(F2.1500000000014552
I49
tp919
aF40.0
tp920
sg78
((lp921
F40.040000000000873
tp922
sg108
((lp923
(F17.600000000000364
I165
tp924
aF40.030000000000655
tp925
sg135
((lp926
(F1.6399999999994179
I6
tp927
aF40.119999999998981
tp928
ssba(imeasure_core
ProblemSetSolution
p929
(dp930
g3
g189
sg167
g913
sg170
(dp931
g192
((lp932
F40.190000000000509
tp933
sg236
((lp934
(F0.3500000000003638
I12
tp935
aF40.020000000000437
tp936
sg281
((lp937
F40.059999999999491
tp938
sg328
((lp939
F40.100000000000364
tp940
sg371
((lp941
(F6.4499999999989086
I92
tp942
aF40.059999999999491
tp943
ssba(imeasure_core
ProblemSetSolution
p944
(dp945
g3
g436
sg167
g913
sg170
(dp946
g439
((lp947
F40.029999999998836
tp948
sg496
((lp949
F40.020000000000437
tp950
sg545
((lp951
F43.280000000000655
tp952
sg591
((lp953
F40.239999999999782
tp954
sg652
((lp955
F42.170000000000073
tp956
ssba(imeasure_core
ProblemSetSolution
p957
(dp958
g3
g4
sg167
S"AnytimeBeam-w20-gf(8, 'lin')_with_LinearHeuristic"
p959
sg170
(dp960
g8
((lp961
(F32.950000000000728
I223
tp962
aF40.059999999999491
tp963
sg48
((lp964
(F2.1499999999996362
I49
tp965
aF40.06000000000131
tp966
sg78
((lp967
F40.079999999999927
tp968
sg108
((lp969
(F17.619999999998981
I165
tp970
aF40.019999999998618
tp971
sg135
((lp972
(F1.6500000000014552
I6
tp973
aF40.850000000000364
tp974
ssba(imeasure_core
ProblemSetSolution
p975
(dp976
g3
g189
sg167
g959
sg170
(dp977
g192
((lp978
F40.229999999999563
tp979
sg236
((lp980
(F0.36000000000058208
I12
tp981
aF40.1200000000008
tp982
sg281
((lp983
F40.020000000000437
tp984
sg328
((lp985
F40.010000000000218
tp986
sg371
((lp987
(F6.4499999999989086
I92
tp988
aF40.039999999999054
tp989
ssba(imeasure_core
ProblemSetSolution
p990
(dp991
g3
g436
sg167
g959
sg170
(dp992
g439
((lp993
F40.209999999999127
tp994
sg496
((lp995
F41.430000000000291
tp996
sg545
((lp997
F43.450000000000728
tp998
sg591
((lp999
F40.229999999999563
tp1000
sg652
((lp1001
F42.059999999999491
tp1002
ssba(imeasure_core
ProblemSetSolution
p1003
(dp1004
g3
g4
sg167
S"AnytimeBeam-w20-gf(16, 'lin')_with_LinearHeuristic"
p1005
sg170
(dp1006
g8
((lp1007
(F33.210000000000946
I223
tp1008
aF40.010000000000218
tp1009
sg48
((lp1010
(F2.1399999999994179
I49
tp1011
aF40.010000000000218
tp1012
sg78
((lp1013
F40.219999999999345
tp1014
sg108
((lp1015
(F17.590000000000146
I165
tp1016
aF40.06000000000131
tp1017
sg135
((lp1018
(F1.6299999999991996
I6
tp1019
aF40.449999999998909
tp1020
ssba(imeasure_core
ProblemSetSolution
p1021
(dp1022
g3
g189
sg167
g1005
sg170
(dp1023
g192
((lp1024
F40.010000000000218
tp1025
sg236
((lp1026
(F0.36000000000058208
I12
tp1027
aF40.040000000000873
tp1028
sg281
((lp1029
F40.0
tp1030
sg328
((lp1031
F40.199999999998909
tp1032
sg371
((lp1033
(F6.4200000000000728
I92
tp1034
aF40.050000000001091
tp1035
ssba(imeasure_core
ProblemSetSolution
p1036
(dp1037
g3
g436
sg167
g1005
sg170
(dp1038
g439
((lp1039
F40.009999999998399
tp1040
sg496
((lp1041
F41.550000000001091
tp1042
sg545
((lp1043
F43.600000000000364
tp1044
sg591
((lp1045
F40.25
tp1046
sg652
((lp1047
F42.090000000000146
tp1048
ssba.