(lp0
(imeasure_core
ProblemSetSolution
p1
(dp2
S'roomset'
p3
(imeasure_core
RoomSet
p4
(dp5
S'rooms'
p6
(dp7
(iproblems
RoomID
p8
(dp9
S'dusts'
p10
I8
sS'obstacles'
p11
(I0
I4
tp12
sS'robots'
p13
I4
sS'height'
p14
I7
sS'width'
p15
I9
sS'seed'
p16
I1689441204489037471
sb(imulti_robot_problem
MultiRobotState
p17
(dp18
S'obstacle_locations'
p19
c__builtin__
frozenset
p20
((lp21
(I0
I1
tp22
a(I1
I2
tp23
a(I3
I2
tp24
a(I8
I1
tp25
a(I4
I3
tp26
ag12
a(I0
I3
tp27
a(I4
I0
tp28
atp29
Rp30
sg15
I9
sS'dirt_locations'
p31
g20
((lp32
(I0
I0
tp33
a(I7
I0
tp34
a(I7
I6
tp35
a(I1
I4
tp36
a(I6
I2
tp37
a(I2
I3
tp38
a(I5
I1
tp39
a(I3
I5
tp40
atp41
Rp42
sg13
((I6
I0
tp43
(I5
I4
tp44
(I6
I6
tp45
(I5
I0
tp46
tp47
sg14
I7
sbs(iproblems
RoomID
p48
(dp49
g10
I10
sg11
(I4
I5
tp50
sg13
I3
sg14
I8
sg15
I10
sg16
I6660334802794327005
sb(imulti_robot_problem
MultiRobotState
p51
(dp52
g19
g20
((lp53
(I9
I0
tp54
a(I2
I6
tp55
a(I1
I6
tp56
a(I3
I6
tp57
ag50
a(I8
I4
tp58
atp59
Rp60
sg15
I10
sg31
g20
((lp61
(I9
I1
tp62
a(I5
I6
tp63
a(I9
I6
tp64
a(I1
I5
tp65
a(I7
I5
tp66
a(I9
I4
tp67
a(I1
I7
tp68
a(I4
I1
tp69
a(I7
I2
tp70
a(I8
I2
tp71
atp72
Rp73
sg13
((I7
I3
tp74
(I4
I7
tp75
(I4
I2
tp76
tp77
sg14
I8
sbs(iproblems
RoomID
p78
(dp79
g10
I6
sg11
(I8
I4
tp80
sg13
I4
sg14
I10
sg15
I9
sg16
I3119042104763040036
sb(imulti_robot_problem
MultiRobotState
p81
(dp82
g19
g20
((lp83
(I1
I2
tp84
a(I6
I7
tp85
a(I4
I8
tp86
a(I7
I6
tp87
a(I8
I5
tp88
ag80
atp89
Rp90
sg15
I9
sg31
g20
((lp91
(I6
I8
tp92
a(I8
I7
tp93
a(I6
I6
tp94
a(I3
I0
tp95
a(I7
I2
tp96
a(I6
I5
tp97
atp98
Rp99
sg13
((I5
I9
tp100
(I6
I1
tp101
(I3
I4
tp102
(I2
I7
tp103
tp104
sg14
I10
sbs(iproblems
RoomID
p105
(dp106
g10
I7
sg11
(I2
I5
tp107
sg13
I5
sg14
I9
sg15
I9
sg16
I4640892725076559864
sb(imulti_robot_problem
MultiRobotState
p108
(dp109
g19
g20
((lp110
(I2
I6
tp111
a(I6
I7
tp112
a(I0
I6
tp113
a(I3
I1
tp114
a(I1
I5
tp115
a(I1
I6
tp116
a(I0
I4
tp117
ag107
a(I3
I4
tp118
atp119
Rp120
sg15
I9
sg31
g20
((lp121
(I3
I8
tp122
a(I7
I3
tp123
a(I7
I1
tp124
a(I8
I1
tp125
a(I8
I6
tp126
a(I4
I2
tp127
a(I5
I3
tp128
atp129
Rp130
sg13
((I6
I5
tp131
(I8
I4
tp132
(I7
I6
tp133
(I6
I0
tp134
(I6
I3
tp135
tp136
sg14
I9
sbssS'name'
p137
S'easy_roomset'
p138
sbsg137
S'AnytimeBest-d10_with_PowerHeuristic2'
p139
sS'solutions'
p140
(dp141
g8
((lp142
(F0.22377991676330566
I8
tp143
a(F0.22475600242614746
I8
tp144
a(F0.22551894187927246
I8
tp145
a(F0.22640085220336914
I8
tp146
a(F0.22731494903564453
I8
tp147
a(F0.22792387008666992
I8
tp148
a(F0.22828388214111328
I8
tp149
a(F0.22942996025085449
I8
tp150
a(F0.23026490211486816
I8
tp151
a(F0.23059391975402832
I8
tp152
a(F0.2311089038848877
I8
tp153
a(F0.23146986961364746
I8
tp154
a(F0.23235082626342773
I8
tp155
a(F0.2328789234161377
I8
tp156
a(F0.23376083374023438
I8
tp157
a(F0.23442792892456055
I8
tp158
a(F0.23524904251098633
I8
tp159
a(F0.23613500595092773
I8
tp160
a(F0.23689699172973633
I8
tp161
a(F0.23771882057189941
I8
tp162
a(F0.23859882354736328
I8
tp163
a(F0.23923492431640625
I8
tp164
a(F0.23996305465698242
I8
tp165
a(F0.24041604995727539
I8
tp166
a(F0.24092888832092285
I8
tp167
a(F0.24159884452819824
I8
tp168
a(F0.24186897277832031
I8
tp169
a(F0.2422938346862793
I8
tp170
a(F0.24277591705322266
I8
tp171
a(F0.2431490421295166
I8
tp172
a(F0.24422097206115723
I8
tp173
a(F0.24492287635803223
I8
tp174
a(F0.24509787559509277
I8
tp175
a(F0.24542689323425293
I8
tp176
a(F0.24600100517272949
I8
tp177
a(F0.24667000770568848
I8
tp178
a(F0.24718499183654785
I8
tp179
a(F0.24788689613342285
I8
tp180
a(F0.24855589866638184
I8
tp181
a(F0.24955105781555176
I8
tp182
a(F7.338407039642334
I8
tp183
a(F7.3393599987030029
I8
tp184
a(F7.3405940532684326
I8
tp185
a(F7.3413889408111572
I8
tp186
a(F7.3422849178314209
I8
tp187
a(F7.3430418968200684
I8
tp188
a(F7.3440170288085938
I8
tp189
a(F7.3450419902801514
I8
tp190
a(F7.3454070091247559
I8
tp191
a(F7.3460149765014648
I8
tp192
a(F7.3469460010528564
I8
tp193
a(F7.3477530479431152
I8
tp194
a(F7.3489899635314941
I8
tp195
a(F7.3496520519256592
I8
tp196
a(F7.3506479263305664
I8
tp197
a(F7.3517570495605469
I8
tp198
a(F7.3525738716125488
I8
tp199
a(F7.3532979488372803
I8
tp200
a(F7.353708028793335
I8
tp201
a(F7.3548140525817871
I8
tp202
a(F7.3558099269866943
I8
tp203
a(F7.3564300537109375
I8
tp204
a(F7.3572938442230225
I8
tp205
a(F7.3582248687744141
I8
tp206
a(F7.359138011932373
I8
tp207
a(F7.359853982925415
I8
tp208
a(F7.3606288433074951
I8
tp209
a(F7.3616719245910645
I8
tp210
a(F7.3627269268035889
I8
tp211
a(F7.3638930320739746
I8
tp212
a(F7.3645508289337158
I8
tp213
a(F7.3652629852294922
I8
tp214
a(F7.3658699989318848
I8
tp215
a(F7.3667080402374268
I8
tp216
a(F7.3672399520874023
I8
tp217
a(F7.3684179782867432
I8
tp218
a(F7.3692560195922852
I8
tp219
a(F7.3702938556671143
I8
tp220
a(F7.3712048530578613
I8
tp221
a(F7.3722200393676758
I8
tp222
a(F12.314043998718262
I8
tp223
a(F12.315115928649902
I8
tp224
a(F12.31601095199585
I8
tp225
a(F12.31687593460083
I8
tp226
a(F12.317759990692139
I8
tp227
a(F12.318977832794189
I8
tp228
a(F12.319655895233154
I8
tp229
a(F12.320567846298218
I8
tp230
a(F12.321801900863647
I8
tp231
a(F12.322924852371216
I8
tp232
a(F12.323868036270142
I8
tp233
a(F12.324498891830444
I8
tp234
a(F12.325166940689087
I8
tp235
a(F12.326254844665527
I8
tp236
a(F12.327056884765625
I8
tp237
a(F12.328012943267822
I8
tp238
a(F12.328836917877197
I8
tp239
a(F12.329790830612183
I8
tp240
a(F12.330373048782349
I8
tp241
a(F12.331256866455078
I8
tp242
a(F12.331871032714844
I8
tp243
a(F12.332463026046753
I8
tp244
a(F12.33296799659729
I8
tp245
a(F12.333699941635132
I8
tp246
a(F12.334009885787964
I8
tp247
a(F12.334697008132935
I8
tp248
a(F12.335580825805664
I8
tp249
a(F12.336246967315674
I8
tp250
a(F12.337201833724976
I8
tp251
a(F12.338191032409668
I8
tp252
a(F12.338942050933838
I8
tp253
a(F12.340023040771484
I8
tp254
a(F12.340594053268433
I8
tp255
a(F12.341464042663574
I8
tp256
a(F12.342023849487305
I8
tp257
a(F12.343145847320557
I8
tp258
a(F12.343984842300415
I8
tp259
a(F12.34498405456543
I8
tp260
a(F12.346000909805298
I8
tp261
a(F12.347054958343506
I8
tp262
a(F16.992509841918945
I8
tp263
a(F16.993475914001465
I8
tp264
a(F16.994340896606445
I8
tp265
a(F16.995517015457153
I8
tp266
a(F16.996448040008545
I8
tp267
a(F16.99723482131958
I8
tp268
a(F16.998124837875366
I8
tp269
a(F16.999013900756836
I8
tp270
a(F17.000078916549683
I8
tp271
a(F17.00085186958313
I8
tp272
a(F17.001986980438232
I8
tp273
a(F17.002974033355713
I8
tp274
a(F17.003594875335693
I8
tp275
a(F17.004694938659668
I8
tp276
a(F17.005769968032837
I8
tp277
a(F17.006794929504395
I8
tp278
a(F17.007621049880981
I8
tp279
a(F17.008597850799561
I8
tp280
a(F17.009476900100708
I8
tp281
a(F17.010211944580078
I8
tp282
a(F17.011190891265869
I8
tp283
a(F17.012279033660889
I8
tp284
a(F17.013069868087769
I8
tp285
a(F17.014101982116699
I8
tp286
a(F17.015095949172974
I8
tp287
a(F17.016162872314453
I8
tp288
a(F17.017009973526001
I8
tp289
a(F17.017845869064331
I8
tp290
a(F17.019089937210083
I8
tp291
a(F17.020298004150391
I8
tp292
a(F17.021381855010986
I8
tp293
a(F17.022362947463989
I8
tp294
a(F17.023269891738892
I8
tp295
a(F17.024270057678223
I8
tp296
a(F17.025490999221802
I8
tp297
a(F17.026396036148071
I8
tp298
a(F17.027572870254517
I8
tp299
a(F17.028482913970947
I8
tp300
a(F17.029114961624146
I8
tp301
a(F17.030025959014893
I8
tp302
a(F17.030829906463623
I8
tp303
a(F17.031353950500488
I8
tp304
a(F17.032235860824585
I8
tp305
a(F17.033103942871094
I8
tp306
a(F17.033723831176758
I8
tp307
a(F17.034436941146851
I8
tp308
a(F17.035315036773682
I8
tp309
a(F17.036211013793945
I8
tp310
a(F17.036890029907227
I8
tp311
a(F17.037696838378906
I8
tp312
a(F26.379576921463013
I8
tp313
a(F26.380481004714966
I8
tp314
a(F26.380750894546509
I8
tp315
a(F26.38174295425415
I8
tp316
a(F26.382807970046997
I8
tp317
a(F26.383344888687134
I8
tp318
a(F26.384289026260376
I8
tp319
a(F26.384821891784668
I8
tp320
a(F26.385316848754883
I8
tp321
a(F26.386055946350098
I8
tp322
a(F26.386818885803223
I8
tp323
a(F26.387509822845459
I8
tp324
a(F26.387971878051758
I8
tp325
a(F26.388946056365967
I8
tp326
a(F26.389832019805908
I8
tp327
a(F26.391016006469727
I8
tp328
a(F26.391857862472534
I8
tp329
a(F26.392583847045898
I8
tp330
a(F26.393677949905396
I8
tp331
a(F26.394373893737793
I8
tp332
a(F26.395664930343628
I8
tp333
a(F26.396186828613281
I8
tp334
a(F26.396952867507935
I8
tp335
a(F26.397485971450806
I8
tp336
a(F26.398131847381592
I8
tp337
a(F26.399075984954834
I8
tp338
a(F26.399407863616943
I8
tp339
a(F26.400024890899658
I8
tp340
a(F26.400473833084106
I8
tp341
a(F26.401363849639893
I8
tp342
a(F26.402251005172729
I8
tp343
a(F26.403233051300049
I8
tp344
a(F26.404055833816528
I8
tp345
a(F26.404528856277466
I8
tp346
a(F26.405383825302124
I8
tp347
a(F26.405951023101807
I8
tp348
a(F26.406625986099243
I8
tp349
a(F26.407747983932495
I8
tp350
a(F26.408488035202026
I8
tp351
a(F26.409366846084595
I8
tp352
a(F33.290788888931274
I8
tp353
a(F33.291369915008545
I8
tp354
a(F33.291888952255249
I8
tp355
a(F33.292932987213135
I8
tp356
a(F33.294008016586304
I8
tp357
a(F33.295181035995483
I8
tp358
a(F33.295856952667236
I8
tp359
a(F33.29643988609314
I8
tp360
a(F33.297551870346069
I8
tp361
a(F33.298369884490967
I8
tp362
a(F33.299012899398804
I8
tp363
a(F33.299912929534912
I8
tp364
a(F33.300374984741211
I8
tp365
a(F33.301568031311035
I8
tp366
a(F33.302654027938843
I8
tp367
a(F33.303410053253174
I8
tp368
a(F33.304349899291992
I8
tp369
a(F33.3052659034729
I8
tp370
a(F33.306308031082153
I8
tp371
a(F33.30702805519104
I8
tp372
a(F33.308003902435303
I8
tp373
a(F33.308650016784668
I8
tp374
a(F33.309409856796265
I8
tp375
a(F33.309525966644287
I8
tp376
a(F33.310549974441528
I8
tp377
a(F33.311331033706665
I8
tp378
a(F33.31217098236084
I8
tp379
a(F33.313052892684937
I8
tp380
a(F33.313897848129272
I8
tp381
a(F33.314954996109009
I8
tp382
a(F33.315390825271606
I8
tp383
a(F33.315911054611206
I8
tp384
a(F33.316423892974854
I8
tp385
a(F33.31744384765625
I8
tp386
a(F33.318588018417358
I8
tp387
a(F33.319345951080322
I8
tp388
a(F33.320540904998779
I8
tp389
a(F33.321179866790771
I8
tp390
a(F33.321815013885498
I8
tp391
a(F33.322953939437866
I8
tp392
a(F37.457718849182129
I8
tp393
a(F37.458406925201416
I8
tp394
a(F37.459347009658813
I8
tp395
a(F37.45977783203125
I8
tp396
a(F37.460921049118042
I8
tp397
a(F37.461597919464111
I8
tp398
a(F37.462122917175293
I8
tp399
a(F37.46290397644043
I8
tp400
a(F37.4636390209198
I8
tp401
a(F37.464309930801392
I8
tp402
a(F37.464740037918091
I8
tp403
a(F37.465518951416016
I8
tp404
a(F37.466342926025391
I8
tp405
a(F37.467309951782227
I8
tp406
a(F37.467919826507568
I8
tp407
a(F37.468833923339844
I8
tp408
a(F37.469645023345947
I8
tp409
a(F37.470439910888672
I8
tp410
a(F37.471324920654297
I8
tp411
a(F37.472296953201294
I8
tp412
a(F37.473105907440186
I8
tp413
a(F37.473639965057373
I8
tp414
a(F37.474128007888794
I8
tp415
a(F37.474653959274292
I8
tp416
a(F37.475023031234741
I8
tp417
a(F37.475733995437622
I8
tp418
a(F37.476502895355225
I8
tp419
a(F37.477704048156738
I8
tp420
a(F37.478533983230591
I8
tp421
a(F37.479120969772339
I8
tp422
a(F37.479814052581787
I8
tp423
a(F37.480751991271973
I8
tp424
a(F37.481485843658447
I8
tp425
a(F37.482257843017578
I8
tp426
a(F37.482861042022705
I8
tp427
a(F37.483397960662842
I8
tp428
a(F37.484189033508301
I8
tp429
a(F37.484977960586548
I8
tp430
a(F37.485728979110718
I8
tp431
a(F37.486459016799927
I8
tp432
aF40.079999999999927
tp433
sg48
((lp434
F40.090000000000146
tp435
sg78
((lp436
F40.06000000000131
tp437
sg105
((lp438
(F1.1681859493255615
I6
tp439
a(F1.1693179607391357
I6
tp440
a(F1.1703920364379883
I6
tp441
a(F1.1716110706329346
I6
tp442
a(F1.1728050708770752
I6
tp443
a(F1.1738200187683105
I6
tp444
a(F1.1748349666595459
I6
tp445
a(F1.1758480072021484
I6
tp446
a(F1.1768860816955566
I6
tp447
a(F1.1780459880828857
I6
tp448
a(F1.1792058944702148
I6
tp449
a(F1.1802799701690674
I6
tp450
a(F1.1812319755554199
I6
tp451
a(F1.1822590827941895
I6
tp452
a(F1.1834220886230469
I6
tp453
a(F1.1845200061798096
I6
tp454
a(F1.1854090690612793
I6
tp455
a(F1.1865670680999756
I6
tp456
a(F1.187608003616333
I6
tp457
a(F1.1883509159088135
I6
tp458
a(F1.1893630027770996
I6
tp459
a(F1.1903159618377686
I6
tp460
a(F1.1914749145507812
I6
tp461
a(F1.1924400329589844
I6
tp462
a(F1.1933078765869141
I6
tp463
a(F1.1942589282989502
I6
tp464
a(F1.1952729225158691
I6
tp465
a(F1.1963820457458496
I6
tp466
a(F1.1975600719451904
I6
tp467
a(F1.1986360549926758
I6
tp468
a(F1.1998229026794434
I6
tp469
a(F1.2006270885467529
I6
tp470
a(F1.2017889022827148
I6
tp471
a(F1.202815055847168
I6
tp472
a(F1.203794002532959
I6
tp473
a(F1.2050180435180664
I6
tp474
a(F1.2059688568115234
I6
tp475
a(F1.2067749500274658
I6
tp476
a(F1.2075810432434082
I6
tp477
a(F1.2083868980407715
I6
tp478
a(F1.2094008922576904
I6
tp479
a(F1.2104380130767822
I6
tp480
a(F1.2117328643798828
I6
tp481
a(F1.2126109600067139
I6
tp482
a(F1.2135899066925049
I6
tp483
a(F1.2145040035247803
I6
tp484
a(F1.2155818939208984
I6
tp485
a(F1.2164609432220459
I6
tp486
a(F1.2174079418182373
I6
tp487
a(F1.2185690402984619
I6
tp488
a(F1.2195830345153809
I6
tp489
a(F1.2206809520721436
I6
tp490
a(F1.2214040756225586
I6
tp491
a(F1.2222220897674561
I6
tp492
a(F1.2228829860687256
I6
tp493
a(F1.223923921585083
I6
tp494
a(F1.2250878810882568
I6
tp495
a(F1.2262520790100098
I6
tp496
a(F1.2265670299530029
I6
tp497
a(F1.2276029586791992
I6
tp498
a(F1.2288239002227783
I6
tp499
a(F1.2298650741577148
I6
tp500
a(F1.2308199405670166
I6
tp501
a(F1.2317130565643311
I6
tp502
a(F1.2324678897857666
I6
tp503
a(F1.2334229946136475
I6
tp504
a(F1.2344419956207275
I6
tp505
a(F1.2353088855743408
I6
tp506
a(F1.2365329265594482
I6
tp507
a(F1.2375860214233398
I6
tp508
a(F1.2384769916534424
I6
tp509
a(F1.2394030094146729
I6
tp510
a(F1.2404379844665527
I6
tp511
a(F1.2414538860321045
I6
tp512
a(F1.2422709465026855
I6
tp513
a(F1.2432899475097656
I6
tp514
a(F1.2440969944000244
I6
tp515
a(F1.2453188896179199
I6
tp516
a(F1.246211051940918
I6
tp517
a(F1.2472240924835205
I6
tp518
a(F1.248244047164917
I6
tp519
a(F1.2491350173950195
I6
tp520
a(F1.2500879764556885
I6
tp521
a(F1.250917911529541
I6
tp522
a(F1.2520179748535156
I6
tp523
a(F1.2529830932617188
I6
tp524
a(F1.2540099620819092
I6
tp525
a(F1.2549529075622559
I6
tp526
a(F1.255810022354126
I6
tp527
a(F1.2565200328826904
I6
tp528
a(F1.2572550773620605
I6
tp529
a(F1.2581970691680908
I6
tp530
a(F1.2591609954833984
I6
tp531
a(F1.2598960399627686
I6
tp532
a(F1.2608749866485596
I6
tp533
a(F1.2616958618164062
I6
tp534
a(F1.2627980709075928
I6
tp535
a(F1.2635970115661621
I6
tp536
a(F1.2645409107208252
I6
tp537
a(F1.2654850482940674
I6
tp538
a(F1.265794038772583
I6
tp539
a(F1.2670280933380127
I6
tp540
a(F1.26767897605896
I6
tp541
a(F1.2689740657806396
I6
tp542
a(F1.269834041595459
I6
tp543
a(F1.2706930637359619
I6
tp544
a(F1.2717239856719971
I6
tp545
a(F1.2723019123077393
I6
tp546
a(F1.2733900547027588
I6
tp547
a(F1.2744760513305664
I6
tp548
a(F1.2754828929901123
I6
tp549
a(F1.2764859199523926
I6
tp550
a(F1.2767958641052246
I6
tp551
a(F1.2775919437408447
I6
tp552
a(F1.2786269187927246
I6
tp553
a(F1.2794859409332275
I6
tp554
a(F1.2808668613433838
I6
tp555
a(F1.2818760871887207
I6
tp556
a(F1.2821969985961914
I6
tp557
a(F1.28314208984375
I6
tp558
a(F1.2838549613952637
I6
tp559
a(F1.2845079898834229
I6
tp560
a(F1.2855100631713867
I6
tp561
a(F1.2863080501556396
I6
tp562
a(F1.2872519493103027
I6
tp563
a(F1.2881109714508057
I6
tp564
a(F1.2890360355377197
I6
tp565
a(F1.2900409698486328
I6
tp566
a(F1.2907760143280029
I6
tp567
a(F1.2916610240936279
I6
tp568
a(F1.2925550937652588
I6
tp569
a(F1.2932929992675781
I6
tp570
a(F1.2942960262298584
I6
tp571
a(F1.2951779365539551
I6
tp572
a(F1.2963888645172119
I6
tp573
a(F1.2975380420684814
I6
tp574
a(F1.2986280918121338
I6
tp575
a(F1.2995700836181641
I6
tp576
a(F1.3004269599914551
I6
tp577
a(F1.301224946975708
I6
tp578
a(F1.3020539283752441
I6
tp579
a(F1.3023080825805664
I6
tp580
a(F1.3031659126281738
I6
tp581
a(F1.3039979934692383
I6
tp582
a(F1.304624080657959
I6
tp583
a(F1.3052170276641846
I6
tp584
a(F1.3061959743499756
I6
tp585
a(F1.3071150779724121
I6
tp586
a(F1.3079738616943359
I6
tp587
a(F1.3088300228118896
I6
tp588
a(F1.3098149299621582
I6
tp589
a(F1.3107938766479492
I6
tp590
a(F1.3119468688964844
I6
tp591
a(F1.3126668930053711
I6
tp592
a(F1.3135218620300293
I6
tp593
a(F1.3142960071563721
I6
tp594
a(F1.3150930404663086
I6
tp595
a(F1.3157398700714111
I6
tp596
a(F1.3164529800415039
I6
tp597
a(F1.3175170421600342
I6
tp598
a(F1.3184340000152588
I6
tp599
a(F1.3192088603973389
I6
tp600
a(F1.3198609352111816
I6
tp601
a(F1.3206589221954346
I6
tp602
a(F1.3213739395141602
I6
tp603
a(F1.3222420215606689
I6
tp604
a(F1.3232479095458984
I6
tp605
a(F1.3242080211639404
I6
tp606
a(F1.3250420093536377
I6
tp607
a(F1.3258519172668457
I6
tp608
a(F1.3268570899963379
I6
tp609
a(F1.3276538848876953
I6
tp610
a(F1.328279972076416
I6
tp611
a(F1.3290748596191406
I6
tp612
a(F1.3296408653259277
I6
tp613
a(F1.3304970264434814
I6
tp614
a(F1.3313789367675781
I6
tp615
a(F1.3323960304260254
I6
tp616
a(F1.3333389759063721
I6
tp617
a(F1.3344030380249023
I6
tp618
a(F1.3354430198669434
I6
tp619
a(F1.3362979888916016
I6
tp620
a(F1.3371548652648926
I6
tp621
a(F1.3383030891418457
I6
tp622
a(F1.3392200469970703
I6
tp623
a(F1.3401000499725342
I6
tp624
a(F1.3408970832824707
I6
tp625
a(F1.3416109085083008
I6
tp626
a(F1.3425099849700928
I6
tp627
a(F1.3434128761291504
I6
tp628
a(F1.3442099094390869
I6
tp629
a(F1.3448600769042969
I6
tp630
a(F1.3458619117736816
I6
tp631
a(F1.3468019962310791
I6
tp632
a(F1.3473899364471436
I6
tp633
a(F1.3483080863952637
I6
tp634
a(F1.3497319221496582
I6
tp635
a(F1.3504569530487061
I6
tp636
a(F1.3513119220733643
I6
tp637
a(F1.352154016494751
I6
tp638
a(F1.3532159328460693
I6
tp639
a(F1.3539249897003174
I6
tp640
a(F1.3546969890594482
I6
tp641
a(F1.3556749820709229
I6
tp642
a(F1.356471061706543
I6
tp643
a(F1.3574130535125732
I6
tp644
a(F1.3583619594573975
I6
tp645
a(F1.3592770099639893
I6
tp646
a(F1.3601078987121582
I6
tp647
a(F1.3611140251159668
I6
tp648
a(F1.3618009090423584
I6
tp649
a(F1.3627290725708008
I6
tp650
a(F1.3632330894470215
I6
tp651
a(F1.3640310764312744
I6
tp652
a(F1.3649539947509766
I6
tp653
a(F1.3658120632171631
I6
tp654
a(F1.3664889335632324
I6
tp655
a(F1.3672010898590088
I6
tp656
a(F1.3680589199066162
I6
tp657
a(F1.3688578605651855
I6
tp658
a(F1.3696298599243164
I6
tp659
a(F1.3702549934387207
I6
tp660
a(F1.3711750507354736
I6
tp661
a(F1.3719489574432373
I6
tp662
a(F1.3730869293212891
I6
tp663
a(F1.3740239143371582
I6
tp664
a(F1.3749499320983887
I6
tp665
a(F1.3757879734039307
I6
tp666
a(F1.3762688636779785
I6
tp667
a(F1.3766930103302002
I6
tp668
a(F1.3772828578948975
I6
tp669
a(F1.3780570030212402
I6
tp670
a(F1.3789160251617432
I6
tp671
a(F1.3794839382171631
I6
tp672
a(F1.3802590370178223
I6
tp673
a(F1.3809990882873535
I6
tp674
a(F1.3822720050811768
I6
tp675
a(F1.383296012878418
I6
tp676
a(F1.3844490051269531
I6
tp677
a(F1.3854849338531494
I6
tp678
aF40.049999999999272
tp679
ssba(imeasure_core
ProblemSetSolution
p680
(dp681
g3
(imeasure_core
RoomSet
p682
(dp683
g6
(dp684
(iproblems
RoomID
p685
(dp686
g10
I6
sg11
(I5
I5
tp687
sg13
I4
sg14
I12
sg15
I11
sg16
I3119042104763040036
sb(imulti_robot_problem
MultiRobotState
p688
(dp689
g19
g20
((lp690
(I4
I6
tp691
a(I10
I4
tp692
a(I3
I0
tp693
a(I9
I8
tp694
a(I10
I6
tp695
a(I2
I1
tp696
a(I8
I9
tp697
a(I2
I3
tp698
a(I0
I10
tp699
a(I9
I5
tp700
a(I10
I3
tp701
a(I7
I9
tp702
ag687
a(I10
I7
tp703
a(I7
I8
tp704
a(I4
I4
tp705
a(I9
I2
tp706
a(I2
I4
tp707
a(I4
I5
tp708
a(I2
I2
tp709
a(I3
I3
tp710
a(I3
I4
tp711
a(I1
I1
tp712
atp713
Rp714
sg15
I11
sg31
g20
((lp715
(I8
I3
tp716
a(I8
I8
tp717
a(I5
I10
tp718
a(I9
I4
tp719
a(I8
I6
tp720
a(I10
I9
tp721
atp722
Rp723
sg13
((I6
I11
tp724
(I7
I2
tp725
(I2
I8
tp726
(I8
I10
tp727
tp728
sg14
I12
sbs(iproblems
RoomID
p729
(dp730
g10
I6
sg11
(I4
I8
tp731
sg13
I4
sg14
I12
sg15
I9
sg16
I3914746131789064238
sb(imulti_robot_problem
MultiRobotState
p732
(dp733
g19
g20
((lp734
(I4
I6
tp735
a(I6
I6
tp736
a(I4
I5
tp737
a(I5
I7
tp738
a(I0
I5
tp739
a(I0
I10
tp740
a(I8
I7
tp741
a(I7
I0
tp742
a(I0
I3
tp743
a(I8
I5
tp744
a(I4
I0
tp745
a(I2
I3
tp746
a(I6
I7
tp747
a(I3
I3
tp748
a(I8
I1
tp749
a(I7
I6
tp750
a(I3
I1
tp751
ag731
a(I5
I0
tp752
a(I2
I2
tp753
a(I0
I9
tp754
a(I8
I6
tp755
a(I5
I3
tp756
a(I6
I1
tp757
atp758
Rp759
sg15
I9
sg31
g20
((lp760
(I1
I8
tp761
a(I1
I9
tp762
a(I4
I3
tp763
a(I4
I4
tp764
a(I2
I11
tp765
a(I2
I10
tp766
atp767
Rp768
sg13
((I1
I10
tp769
(I6
I2
tp770
(I7
I3
tp771
(I1
I11
tp772
tp773
sg14
I12
sbs(iproblems
RoomID
p774
(dp775
g10
I5
sg11
(I5
I7
tp776
sg13
I4
sg14
I9
sg15
I12
sg16
I659184109953178577
sb(imulti_robot_problem
MultiRobotState
p777
(dp778
g19
g20
((lp779
(I7
I3
tp780
a(I4
I7
tp781
a(I8
I2
tp782
a(I6
I6
tp783
a(I4
I5
tp784
a(I7
I7
tp785
a(I11
I0
tp786
a(I7
I5
tp787
a(I9
I4
tp788
a(I2
I5
tp789
a(I0
I8
tp790
a(I10
I3
tp791
a(I7
I2
tp792
a(I4
I6
tp793
a(I6
I4
tp794
a(I4
I3
tp795
a(I3
I3
tp796
a(I6
I1
tp797
ag776
a(I6
I5
tp798
a(I3
I6
tp799
a(I8
I6
tp800
a(I3
I4
tp801
atp802
Rp803
sg15
I12
sg31
g20
((lp804
(I10
I8
tp805
a(I4
I1
tp806
a(I0
I2
tp807
a(I1
I6
tp808
a(I10
I4
tp809
atp810
Rp811
sg13
((I10
I0
tp812
(I7
I0
tp813
(I2
I6
tp814
(I8
I3
tp815
tp816
sg14
I9
sbs(iproblems
RoomID
p817
(dp818
g10
I9
sg11
(I9
I9
tp819
sg13
I3
sg14
I10
sg15
I10
sg16
I3273124617966689144
sb(imulti_robot_problem
MultiRobotState
p820
(dp821
g19
g20
((lp822
(I7
I3
tp823
a(I5
I4
tp824
a(I1
I3
tp825
a(I6
I4
tp826
a(I4
I5
tp827
a(I9
I8
tp828
a(I3
I2
tp829
a(I7
I5
tp830
a(I1
I6
tp831
a(I2
I5
tp832
a(I0
I8
tp833
a(I9
I6
tp834
a(I6
I5
tp835
a(I5
I3
tp836
a(I3
I3
tp837
a(I5
I5
tp838
a(I7
I6
tp839
ag819
a(I6
I3
tp840
a(I4
I3
tp841
a(I2
I3
tp842
a(I8
I6
tp843
a(I2
I4
tp844
a(I9
I7
tp845
atp846
Rp847
sg15
I10
sg31
g20
((lp848
(I7
I0
tp849
a(I3
I0
tp850
a(I6
I1
tp851
a(I3
I1
tp852
a(I5
I0
tp853
a(I2
I2
tp854
a(I3
I4
tp855
a(I1
I1
tp856
a(I8
I4
tp857
atp858
Rp859
sg13
((I0
I7
tp860
(I2
I1
tp861
(I6
I6
tp862
tp863
sg14
I10
sbssg137
S'mild_roomset'
p864
sbsg137
g139
sg140
(dp865
g685
((lp866
F40.290000000000873
tp867
sg729
((lp868
(F0.1731569766998291
I5
tp869
a(F0.17392516136169434
I5
tp870
a(F0.17473411560058594
I5
tp871
a(F0.1757049560546875
I5
tp872
a(F0.1765141487121582
I5
tp873
a(F0.1772770881652832
I5
tp874
a(F0.17796707153320312
I5
tp875
a(F0.17871904373168945
I5
tp876
a(F0.17926502227783203
I5
tp877
a(F0.17958807945251465
I5
tp878
a(F0.18056106567382812
I5
tp879
a(F0.18100309371948242
I5
tp880
a(F0.18181610107421875
I5
tp881
a(F0.18265008926391602
I5
tp882
a(F0.18319511413574219
I5
tp883
a(F0.18359994888305664
I5
tp884
a(F0.18435502052307129
I5
tp885
a(F0.1850440502166748
I5
tp886
a(F0.18558907508850098
I5
tp887
a(F0.18619894981384277
I5
tp888
a(F0.18674397468566895
I5
tp889
a(F0.18700408935546875
I5
tp890
a(F0.18782997131347656
I5
tp891
a(F0.18807101249694824
I5
tp892
a(F0.18839097023010254
I5
tp893
a(F0.18938112258911133
I5
tp894
a(F0.18992710113525391
I5
tp895
a(F0.19082403182983398
I5
tp896
a(F0.19122815132141113
I5
tp897
a(F0.19190001487731934
I5
tp898
a(F0.19242501258850098
I5
tp899
a(F0.19317412376403809
I5
tp900
a(F0.19371604919433594
I5
tp901
a(F0.19389510154724121
I5
tp902
a(F0.19472694396972656
I5
tp903
a(F0.19541406631469727
I5
tp904
a(F0.19622397422790527
I5
tp905
a(F0.19714593887329102
I5
tp906
a(F0.19789600372314453
I5
tp907
a(F0.19842195510864258
I5
tp908
a(F0.19916915893554688
I5
tp909
a(F0.19963192939758301
I5
tp910
a(F0.20024013519287109
I5
tp911
a(F0.20078396797180176
I5
tp912
a(F0.20153307914733887
I5
tp913
a(F0.20230293273925781
I5
tp914
a(F0.20305109024047852
I5
tp915
a(F0.20380115509033203
I5
tp916
a(F0.20463109016418457
I5
tp917
a(F0.20525598526000977
I5
tp918
a(F0.20614910125732422
I5
tp919
a(F0.20691800117492676
I5
tp920
a(F0.20756411552429199
I5
tp921
a(F0.20808911323547363
I5
tp922
a(F0.20880794525146484
I5
tp923
a(F0.20969200134277344
I5
tp924
a(F0.21036696434020996
I5
tp925
a(F0.21091294288635254
I5
tp926
a(F0.21158003807067871
I5
tp927
a(F0.21243810653686523
I5
tp928
a(F0.21318793296813965
I5
tp929
a(F0.21402215957641602
I5
tp930
a(F0.21428203582763672
I5
tp931
a(F0.2148890495300293
I5
tp932
a(F0.21549510955810547
I5
tp933
a(F0.21581602096557617
I5
tp934
a(F0.21642494201660156
I5
tp935
a(F0.21718811988830566
I5
tp936
a(F0.21787810325622559
I5
tp937
a(F0.21906208992004395
I5
tp938
a(F10.806393146514893
I5
tp939
a(F10.807126998901367
I5
tp940
a(F10.808207035064697
I5
tp941
a(F10.809075117111206
I5
tp942
a(F10.810310125350952
I5
tp943
a(F10.81116795539856
I5
tp944
a(F10.812061071395874
I5
tp945
a(F10.813004970550537
I5
tp946
a(F10.813661098480225
I5
tp947
a(F10.813758134841919
I5
tp948
a(F10.814597129821777
I5
tp949
a(F10.81572413444519
I5
tp950
a(F10.816694974899292
I5
tp951
a(F10.817523956298828
I5
tp952
a(F10.81852912902832
I5
tp953
a(F10.819415092468262
I5
tp954
a(F10.820220947265625
I5
tp955
a(F10.820899963378906
I5
tp956
a(F10.821717977523804
I5
tp957
a(F10.82259202003479
I5
tp958
a(F10.823806047439575
I5
tp959
a(F10.824164152145386
I5
tp960
a(F10.824759960174561
I5
tp961
a(F10.82583212852478
I5
tp962
a(F10.826481103897095
I5
tp963
a(F10.826936960220337
I5
tp964
a(F10.827774047851562
I5
tp965
a(F10.828788042068481
I5
tp966
a(F10.829657077789307
I5
tp967
a(F10.83043909072876
I5
tp968
a(F10.831447124481201
I5
tp969
a(F10.832087993621826
I5
tp970
a(F10.832704067230225
I5
tp971
a(F10.83354115486145
I5
tp972
a(F10.83415699005127
I5
tp973
a(F10.835222005844116
I5
tp974
a(F10.835880041122437
I5
tp975
a(F10.836725950241089
I5
tp976
a(F10.837696075439453
I5
tp977
a(F10.838719129562378
I5
tp978
a(F10.839524984359741
I5
tp979
a(F10.840469121932983
I5
tp980
a(F10.841388940811157
I5
tp981
a(F10.842126131057739
I5
tp982
a(F10.842916011810303
I5
tp983
a(F10.843739032745361
I5
tp984
a(F10.844570159912109
I5
tp985
a(F10.845602989196777
I5
tp986
a(F10.846565961837769
I5
tp987
a(F10.847327947616577
I5
tp988
a(F10.848268032073975
I5
tp989
a(F10.849030017852783
I5
tp990
a(F10.850160121917725
I5
tp991
a(F10.851010084152222
I5
tp992
a(F10.851907968521118
I5
tp993
a(F10.85279107093811
I5
tp994
a(F10.853500127792358
I5
tp995
a(F10.854314088821411
I5
tp996
a(F10.855324983596802
I5
tp997
a(F10.856475114822388
I5
tp998
a(F10.857495069503784
I5
tp999
a(F10.858022928237915
I5
tp1000
a(F10.858814001083374
I5
tp1001
a(F10.85957407951355
I5
tp1002
a(F10.860547065734863
I5
tp1003
a(F10.861438989639282
I5
tp1004
a(F10.862517118453979
I5
tp1005
a(F10.863534927368164
I5
tp1006
a(F10.864464998245239
I5
tp1007
a(F10.865713119506836
I5
tp1008
a(F18.455282926559448
I5
tp1009
a(F18.456512928009033
I5
tp1010
a(F18.45765495300293
I5
tp1011
a(F18.457953929901123
I5
tp1012
a(F18.458761930465698
I5
tp1013
a(F18.459671020507812
I5
tp1014
a(F18.460725069046021
I5
tp1015
a(F18.461549043655396
I5
tp1016
a(F18.462439060211182
I5
tp1017
a(F18.462980031967163
I5
tp1018
a(F18.463940143585205
I5
tp1019
a(F18.464900016784668
I5
tp1020
a(F18.465633153915405
I5
tp1021
a(F18.46645712852478
I5
tp1022
a(F18.467288017272949
I5
tp1023
a(F18.468213081359863
I5
tp1024
a(F18.468807935714722
I5
tp1025
a(F18.469610929489136
I5
tp1026
a(F18.470539093017578
I5
tp1027
a(F18.471501111984253
I5
tp1028
a(F18.472326993942261
I5
tp1029
a(F18.472564935684204
I5
tp1030
a(F18.473520040512085
I5
tp1031
a(F18.474045038223267
I5
tp1032
a(F18.474744081497192
I5
tp1033
a(F18.475715160369873
I5
tp1034
a(F18.476475954055786
I5
tp1035
a(F18.477031946182251
I5
tp1036
a(F18.477995157241821
I5
tp1037
a(F18.479083061218262
I5
tp1038
a(F18.479954957962036
I5
tp1039
a(F18.480962991714478
I5
tp1040
a(F18.481920003890991
I5
tp1041
a(F18.482800960540771
I5
tp1042
a(F18.483737945556641
I5
tp1043
a(F18.484606981277466
I5
tp1044
a(F18.485723972320557
I5
tp1045
a(F18.48659610748291
I5
tp1046
a(F18.48735499382019
I5
tp1047
a(F18.487986087799072
I5
tp1048
a(F18.488773107528687
I5
tp1049
a(F18.489560127258301
I5
tp1050
a(F18.490564107894897
I5
tp1051
a(F18.491472959518433
I5
tp1052
a(F18.492169141769409
I5
tp1053
a(F18.492408037185669
I5
tp1054
a(F18.493447065353394
I5
tp1055
a(F18.494091987609863
I5
tp1056
a(F18.49490213394165
I5
tp1057
a(F18.495294094085693
I5
tp1058
a(F18.496201038360596
I5
tp1059
a(F18.497200012207031
I5
tp1060
a(F18.497996091842651
I5
tp1061
a(F18.49909496307373
I5
tp1062
a(F18.500051021575928
I5
tp1063
a(F18.501003980636597
I5
tp1064
a(F18.501919031143188
I5
tp1065
a(F18.50266695022583
I5
tp1066
a(F18.503472089767456
I5
tp1067
a(F18.50438404083252
I5
tp1068
a(F18.505171060562134
I5
tp1069
a(F18.506139039993286
I5
tp1070
a(F18.506916999816895
I5
tp1071
a(F18.507740020751953
I5
tp1072
a(F18.50864315032959
I5
tp1073
a(F18.509618043899536
I5
tp1074
a(F18.510327100753784
I5
tp1075
a(F18.511260032653809
I5
tp1076
a(F18.511867046356201
I5
tp1077
a(F18.512665987014771
I5
tp1078
a(F18.513422012329102
I5
tp1079
a(F18.514358043670654
I5
tp1080
a(F18.515113115310669
I5
tp1081
a(F18.516026973724365
I5
tp1082
a(F18.517136096954346
I5
tp1083
a(F18.518461942672729
I5
tp1084
a(F18.519076108932495
I5
tp1085
a(F18.520164012908936
I5
tp1086
a(F18.521188020706177
I5
tp1087
a(F18.522536993026733
I5
tp1088
a(F28.742577075958252
I5
tp1089
a(F28.743741035461426
I5
tp1090
a(F28.744204044342041
I5
tp1091
a(F28.745198965072632
I5
tp1092
a(F28.746451139450073
I5
tp1093
a(F28.747424125671387
I5
tp1094
a(F28.748650074005127
I5
tp1095
a(F28.749413967132568
I5
tp1096
a(F28.750016927719116
I5
tp1097
a(F28.750540971755981
I5
tp1098
a(F28.751520156860352
I5
tp1099
a(F28.75214409828186
I5
tp1100
a(F28.752750158309937
I5
tp1101
a(F28.753929138183594
I5
tp1102
a(F28.754909038543701
I5
tp1103
a(F28.75537109375
I5
tp1104
a(F28.755835056304932
I5
tp1105
a(F28.756654977798462
I5
tp1106
a(F28.757893085479736
I5
tp1107
a(F28.758871078491211
I5
tp1108
a(F28.759597063064575
I5
tp1109
a(F28.760508060455322
I5
tp1110
a(F28.761382102966309
I5
tp1111
a(F28.762210130691528
I5
tp1112
a(F28.763345003128052
I5
tp1113
a(F28.764438152313232
I5
tp1114
a(F28.765393018722534
I5
tp1115
a(F28.766365051269531
I5
tp1116
a(F28.767071008682251
I5
tp1117
a(F28.76731014251709
I5
tp1118
a(F28.768229961395264
I5
tp1119
a(F28.7690589427948
I5
tp1120
a(F28.769870042800903
I5
tp1121
a(F28.770738124847412
I5
tp1122
a(F28.771217107772827
I5
tp1123
a(F28.771919012069702
I5
tp1124
a(F28.772588014602661
I5
tp1125
a(F28.773126125335693
I5
tp1126
a(F28.773555994033813
I5
tp1127
a(F28.774227142333984
I5
tp1128
a(F28.774935007095337
I5
tp1129
a(F28.775689125061035
I5
tp1130
a(F28.776762008666992
I5
tp1131
a(F28.777377128601074
I5
tp1132
a(F28.778146982192993
I5
tp1133
a(F28.779189109802246
I5
tp1134
a(F28.780175924301147
I5
tp1135
a(F28.78057599067688
I5
tp1136
a(F28.781664133071899
I5
tp1137
a(F28.782531023025513
I5
tp1138
a(F28.783136129379272
I5
tp1139
a(F28.78376293182373
I5
tp1140
a(F28.784852027893066
I5
tp1141
a(F28.785728931427002
I5
tp1142
a(F28.786626100540161
I5
tp1143
a(F28.787451028823853
I5
tp1144
a(F28.788573026657104
I5
tp1145
a(F28.788978099822998
I5
tp1146
a(F28.789813041687012
I5
tp1147
a(F28.790485143661499
I5
tp1148
a(F28.791337966918945
I5
tp1149
a(F28.79217004776001
I5
tp1150
a(F28.792819023132324
I5
tp1151
a(F28.793628931045532
I5
tp1152
a(F28.794089078903198
I5
tp1153
a(F28.795041084289551
I5
tp1154
a(F28.79583215713501
I5
tp1155
a(F28.796561002731323
I5
tp1156
a(F28.797667980194092
I5
tp1157
a(F28.798617124557495
I5
tp1158
a(F28.799704074859619
I5
tp1159
a(F28.800395011901855
I5
tp1160
a(F28.801331043243408
I5
tp1161
a(F28.802266120910645
I5
tp1162
a(F28.803182125091553
I5
tp1163
a(F28.8038489818573
I5
tp1164
a(F28.80473804473877
I5
tp1165
a(F28.805768013000488
I5
tp1166
a(F28.806782007217407
I5
tp1167
a(F28.807414054870605
I5
tp1168
a(F28.808576107025146
I5
tp1169
a(F28.809386968612671
I5
tp1170
a(F28.810214042663574
I5
tp1171
a(F28.811268091201782
I5
tp1172
a(F28.811800003051758
I5
tp1173
a(F28.812961101531982
I5
tp1174
a(F28.814089059829712
I5
tp1175
a(F28.815783023834229
I5
tp1176
a(F28.817180156707764
I5
tp1177
a(F28.818762063980103
I5
tp1178
a(F34.153116941452026
I5
tp1179
a(F34.154255151748657
I5
tp1180
a(F34.15499210357666
I5
tp1181
a(F34.155858993530273
I5
tp1182
a(F34.156806945800781
I5
tp1183
a(F34.157618999481201
I5
tp1184
a(F34.158684968948364
I5
tp1185
a(F34.159281015396118
I5
tp1186
a(F34.160090923309326
I5
tp1187
a(F34.161036968231201
I5
tp1188
a(F34.16190505027771
I5
tp1189
a(F34.162851095199585
I5
tp1190
a(F34.163187026977539
I5
tp1191
a(F34.164284944534302
I5
tp1192
a(F34.164772033691406
I5
tp1193
a(F34.165252923965454
I5
tp1194
a(F34.166002035140991
I5
tp1195
a(F34.166491985321045
I5
tp1196
a(F34.167474985122681
I5
tp1197
a(F34.168429136276245
I5
tp1198
a(F34.169094085693359
I5
tp1199
a(F34.169839143753052
I5
tp1200
a(F34.170753955841064
I5
tp1201
a(F34.171508073806763
I5
tp1202
a(F34.172245979309082
I5
tp1203
a(F34.172644138336182
I5
tp1204
a(F34.173356056213379
I5
tp1205
a(F34.174083948135376
I5
tp1206
a(F34.174627065658569
I5
tp1207
a(F34.175423145294189
I5
tp1208
a(F34.17602014541626
I5
tp1209
a(F34.176690101623535
I5
tp1210
a(F34.177515029907227
I5
tp1211
a(F34.178297996520996
I5
tp1212
a(F34.179080009460449
I5
tp1213
a(F34.179994106292725
I5
tp1214
a(F34.180846929550171
I5
tp1215
a(F34.181746006011963
I5
tp1216
a(F34.182655096054077
I5
tp1217
a(F34.183405160903931
I5
tp1218
a(F34.183931112289429
I5
tp1219
a(F34.184777021408081
I5
tp1220
a(F34.185647964477539
I5
tp1221
a(F34.186602115631104
I5
tp1222
a(F34.187283039093018
I5
tp1223
a(F34.188230991363525
I5
tp1224
a(F34.189039945602417
I5
tp1225
a(F34.18983006477356
I5
tp1226
a(F34.190483093261719
I5
tp1227
a(F34.190942049026489
I5
tp1228
a(F34.191924095153809
I5
tp1229
a(F34.192655086517334
I5
tp1230
a(F34.193391084671021
I5
tp1231
a(F34.194216966629028
I5
tp1232
a(F34.195138931274414
I5
tp1233
a(F34.196349143981934
I5
tp1234
a(F39.168465137481689
I5
tp1235
a(F39.169134140014648
I5
tp1236
a(F39.169738054275513
I5
tp1237
a(F39.170702934265137
I5
tp1238
a(F39.171672105789185
I5
tp1239
a(F39.17249608039856
I5
tp1240
a(F39.173367977142334
I5
tp1241
a(F39.174354076385498
I5
tp1242
a(F39.174836158752441
I5
tp1243
a(F39.175688028335571
I5
tp1244
a(F39.176506042480469
I5
tp1245
a(F39.176890134811401
I5
tp1246
a(F39.177474021911621
I5
tp1247
a(F39.178080081939697
I5
tp1248
a(F39.178936958312988
I5
tp1249
a(F39.179340124130249
I5
tp1250
a(F39.179893016815186
I5
tp1251
a(F39.180735111236572
I5
tp1252
a(F39.181534051895142
I5
tp1253
a(F39.182230949401855
I5
tp1254
a(F39.183051109313965
I5
tp1255
a(F39.183716058731079
I5
tp1256
a(F39.184735059738159
I5
tp1257
a(F39.185488939285278
I5
tp1258
a(F39.186460971832275
I5
tp1259
a(F39.187325000762939
I5
tp1260
a(F39.188122034072876
I5
tp1261
a(F39.188861131668091
I5
tp1262
a(F39.189342021942139
I5
tp1263
a(F39.190180063247681
I5
tp1264
a(F39.190989017486572
I5
tp1265
a(F39.191745042800903
I5
tp1266
a(F39.192487001419067
I5
tp1267
a(F39.193243980407715
I5
tp1268
a(F39.194041013717651
I5
tp1269
a(F39.194793939590454
I5
tp1270
a(F39.195553064346313
I5
tp1271
a(F39.196231126785278
I5
tp1272
a(F39.197188138961792
I5
tp1273
a(F39.197862148284912
I5
tp1274
a(F39.198606967926025
I5
tp1275
a(F39.199247121810913
I5
tp1276
a(F39.200060129165649
I5
tp1277
a(F39.20079493522644
I5
tp1278
a(F39.201879978179932
I5
tp1279
a(F39.202837944030762
I5
tp1280
a(F39.203774929046631
I5
tp1281
a(F39.204600095748901
I5
tp1282
a(F39.205888032913208
I5
tp1283
a(F39.206915140151978
I5
tp1284
a(F39.207730054855347
I5
tp1285
a(F39.20887303352356
I5
tp1286
a(F39.209651947021484
I5
tp1287
a(F39.210782051086426
I5
tp1288
a(F39.211652040481567
I5
tp1289
a(F39.212424993515015
I5
tp1290
aF40.029999999998836
tp1291
sg774
((lp1292
F40.300000000001091
tp1293
sg817
((lp1294
F40.069999999999709
tp1295
ssba(imeasure_core
ProblemSetSolution
p1296
(dp1297
g3
(imeasure_core
RoomSet
p1298
(dp1299
g6
(dp1300
(iproblems
RoomID
p1301
(dp1302
g10
I13
sg11
(I3
I4
tp1303
sg13
I6
sg14
I10
sg15
I12
sg16
I1689441204489037471
sb(imulti_robot_problem
MultiRobotState
p1304
(dp1305
g19
g20
((lp1306
(I7
I3
tp1307
a(I1
I3
tp1308
a(I8
I7
tp1309
a(I10
I6
tp1310
a(I7
I7
tp1311
a(I6
I2
tp1312
a(I1
I6
tp1313
a(I9
I4
tp1314
a(I4
I2
tp1315
a(I5
I1
tp1316
a(I10
I3
tp1317
a(I2
I7
tp1318
a(I9
I3
tp1319
a(I9
I5
tp1320
a(I0
I5
tp1321
a(I11
I5
tp1322
a(I8
I5
tp1323
a(I5
I2
tp1324
a(I0
I2
tp1325
a(I3
I8
tp1326
a(I4
I3
tp1327
a(I0
I4
tp1328
ag1303
a(I8
I6
tp1329
a(I4
I1
tp1330
a(I1
I1
tp1331
a(I8
I4
tp1332
atp1333
Rp1334
sg15
I12
sg31
g20
((lp1335
(I8
I9
tp1336
a(I9
I0
tp1337
a(I0
I0
tp1338
a(I10
I4
tp1339
a(I4
I8
tp1340
a(I8
I1
tp1341
a(I11
I2
tp1342
a(I5
I4
tp1343
a(I7
I4
tp1344
a(I11
I8
tp1345
a(I2
I6
tp1346
a(I2
I3
tp1347
a(I1
I5
tp1348
atp1349
Rp1350
sg13
((I8
I0
tp1351
(I7
I6
tp1352
(I8
I8
tp1353
(I7
I0
tp1354
(I2
I4
tp1355
(I9
I9
tp1356
tp1357
sg14
I10
sbs(iproblems
RoomID
p1358
(dp1359
g10
I15
sg11
(I10
I7
tp1360
sg13
I6
sg14
I11
sg15
I13
sg16
I6660334802794327005
sb(imulti_robot_problem
MultiRobotState
p1361
(dp1362
g19
g20
((lp1363
(I4
I7
tp1364
a(I11
I7
tp1365
a(I5
I6
tp1366
a(I2
I8
tp1367
a(I9
I9
tp1368
a(I9
I10
tp1369
a(I10
I8
tp1370
a(I9
I0
tp1371
ag1360
a(I5
I7
tp1372
a(I8
I10
tp1373
a(I3
I8
tp1374
a(I1
I5
tp1375
a(I1
I8
tp1376
a(I1
I10
tp1377
a(I10
I0
tp1378
a(I2
I4
tp1379
atp1380
Rp1381
sg15
I13
sg31
g20
((lp1382
(I2
I7
tp1383
a(I12
I2
tp1384
a(I6
I9
tp1385
a(I6
I10
tp1386
a(I12
I1
tp1387
a(I2
I9
tp1388
a(I12
I0
tp1389
a(I12
I9
tp1390
a(I11
I2
tp1391
a(I10
I6
tp1392
a(I1
I7
tp1393
a(I12
I5
tp1394
a(I6
I3
tp1395
a(I10
I3
tp1396
a(I12
I8
tp1397
atp1398
Rp1399
sg13
((I9
I5
tp1400
(I5
I10
tp1401
(I5
I3
tp1402
(I5
I1
tp1403
(I9
I3
tp1404
(I7
I8
tp1405
tp1406
sg14
I11
sbs(iproblems
RoomID
p1407
(dp1408
g10
I12
sg11
(I8
I7
tp1409
sg13
I7
sg14
I12
sg15
I12
sg16
I4640892725076559864
sb(imulti_robot_problem
MultiRobotState
p1410
(dp1411
g19
g20
((lp1412
(I5
I9
tp1413
a(I6
I9
tp1414
a(I4
I8
tp1415
a(I5
I6
tp1416
a(I2
I8
tp1417
a(I6
I0
tp1418
a(I2
I10
tp1419
a(I0
I9
tp1420
a(I6
I2
tp1421
ag1409
a(I3
I7
tp1422
a(I5
I1
tp1423
a(I1
I0
tp1424
a(I8
I5
tp1425
a(I7
I9
tp1426
a(I7
I4
tp1427
a(I7
I0
tp1428
a(I6
I8
tp1429
a(I2
I9
tp1430
a(I0
I6
tp1431
a(I7
I6
tp1432
a(I5
I7
tp1433
a(I8
I10
tp1434
a(I0
I2
tp1435
a(I6
I3
tp1436
a(I2
I0
tp1437
a(I1
I8
tp1438
a(I4
I5
tp1439
a(I5
I2
tp1440
a(I1
I1
tp1441
a(I9
I7
tp1442
atp1443
Rp1444
sg15
I12
sg31
g20
((lp1445
(I2
I7
tp1446
a(I6
I4
tp1447
a(I11
I10
tp1448
a(I4
I6
tp1449
a(I11
I8
tp1450
a(I11
I2
tp1451
a(I9
I3
tp1452
a(I3
I2
tp1453
a(I8
I8
tp1454
a(I0
I5
tp1455
a(I10
I3
tp1456
a(I5
I3
tp1457
atp1458
Rp1459
sg13
((I8
I6
tp1460
(I11
I5
tp1461
(I10
I8
tp1462
(I9
I0
tp1463
(I9
I4
tp1464
(I9
I2
tp1465
(I4
I11
tp1466
tp1467
sg14
I12
sbs(iproblems
RoomID
p1468
(dp1469
g10
I11
sg11
(I7
I6
tp1470
sg13
I7
sg14
I13
sg15
I12
sg16
I3119042104763040036
sb(imulti_robot_problem
MultiRobotState
p1471
(dp1472
g19
g20
((lp1473
(I5
I4
tp1474
a(I4
I5
tp1475
a(I9
I8
tp1476
a(I10
I6
tp1477
a(I9
I0
tp1478
a(I6
I0
tp1479
a(I8
I9
tp1480
a(I2
I12
tp1481
a(I9
I6
tp1482
a(I10
I5
tp1483
a(I5
I10
tp1484
a(I10
I7
tp1485
ag1470
a(I9
I9
tp1486
a(I8
I6
tp1487
a(I11
I6
tp1488
a(I9
I7
tp1489
atp1490
Rp1491
sg15
I12
sg31
g20
((lp1492
(I1
I2
tp1493
a(I4
I4
tp1494
a(I5
I11
tp1495
a(I5
I6
tp1496
a(I3
I4
tp1497
a(I8
I0
tp1498
a(I8
I10
tp1499
a(I0
I11
tp1500
a(I2
I3
tp1501
a(I7
I8
tp1502
a(I4
I0
tp1503
atp1504
Rp1505
sg13
((I7
I12
tp1506
(I8
I2
tp1507
(I4
I6
tp1508
(I3
I9
tp1509
(I9
I11
tp1510
(I11
I9
tp1511
(I9
I3
tp1512
tp1513
sg14
I13
sbssg137
S'heavy_roomset'
p1514
sbsg137
g139
sg140
(dp1515
g1301
((lp1516
F40.430000000000291
tp1517
sg1358
((lp1518
F40.409999999999854
tp1519
sg1407
((lp1520
F42.209999999999127
tp1521
sg1468
((lp1522
F50.770000000000437
tp1523
ssba(imeasure_core
ProblemSetSolution
p1524
(dp1525
g3
(imeasure_core
RoomSet
p1526
(dp1527
g6
(dp1528
S'complexRoom'
p1529
(imulti_robot_problem
MultiRobotState
p1530
(dp1531
g19
g20
((lp1532
(I2
I7
tp1533
a(I7
I3
tp1534
a(I6
I3
tp1535
a(I3
I3
tp1536
a(I7
I6
tp1537
a(I7
I4
tp1538
a(I7
I5
tp1539
a(I2
I3
tp1540
a(I4
I3
tp1541
a(I2
I5
tp1542
a(I2
I4
tp1543
a(I5
I3
tp1544
atp1545
Rp1546
sg15
I11
sg31
g20
((lp1547
(I1
I0
tp1548
a(I9
I0
tp1549
atp1550
Rp1551
sg13
((I6
I4
tp1552
(I1
I6
tp1553
tp1554
sg14
I8
sbsS'exampleProblem'
p1555
(imulti_robot_problem
MultiRobotState
p1556
(dp1557
g19
g20
((lp1558
tp1559
Rp1560
sg15
I5
sg31
g20
((lp1561
(I1
I3
tp1562
a(I3
I1
tp1563
a(I1
I1
tp1564
a(I3
I3
tp1565
atp1566
Rp1567
sg13
((I2
I2
tp1568
tp1569
sg14
I5
sbsS'linear_test'
p1570
(imulti_robot_problem
MultiRobotState
p1571
(dp1572
g19
g1560
sg15
I12
sg31
g20
((lp1573
(I11
I0
tp1574
a(I1
I0
tp1575
a(I9
I0
tp1576
atp1577
Rp1578
sg13
((I3
I0
tp1579
(I1
I2
tp1580
tp1581
sg14
I7
sbsS'obstacle_Far_CloseTest'
p1582
(imulti_robot_problem
MultiRobotState
p1583
(dp1584
g19
g20
((lp1585
(I0
I1
tp1586
a(I7
I3
tp1587
a(I3
I1
tp1588
a(I7
I1
tp1589
a(I4
I5
tp1590
a(I7
I6
tp1591
a(I4
I4
tp1592
a(I2
I1
tp1593
a(I7
I4
tp1594
a(I7
I5
tp1595
a(I4
I3
tp1596
a(I4
I2
tp1597
a(I4
I1
tp1598
a(I1
I1
tp1599
a(I7
I2
tp1600
atp1601
Rp1602
sg15
I12
sg31
g20
((lp1603
(I3
I2
tp1604
a(I9
I6
tp1605
atp1606
Rp1607
sg13
((I0
I0
tp1608
(I6
I6
tp1609
tp1610
sg14
I7
sbsS'zigzag'
p1611
(imulti_robot_problem
MultiRobotState
p1612
(dp1613
g19
g20
((lp1614
(I1
I2
tp1615
a(I3
I2
tp1616
a(I1
I3
tp1617
a(I3
I0
tp1618
a(I3
I1
tp1619
a(I5
I1
tp1620
a(I5
I2
tp1621
a(I1
I1
tp1622
a(I5
I3
tp1623
atp1624
Rp1625
sg15
I20
sg31
g20
((lp1626
(I6
I3
tp1627
atp1628
Rp1629
sg13
((I0
I3
tp1630
(I19
I3
tp1631
tp1632
sg14
I4
sbsS'room1'
p1633
(imulti_robot_problem
MultiRobotState
p1634
(dp1635
g19
g20
((lp1636
(I6
I3
tp1637
a(I7
I3
tp1638
a(I8
I3
tp1639
a(I2
I3
tp1640
a(I3
I3
tp1641
a(I4
I3
tp1642
a(I5
I3
tp1643
atp1644
Rp1645
sg15
I9
sg31
g20
((lp1646
(I0
I0
tp1647
a(I2
I1
tp1648
atp1649
Rp1650
sg13
((I6
I1
tp1651
(I6
I5
tp1652
tp1653
sg14
I6
sbsS'complexRoom2'
p1654
(imulti_robot_problem
MultiRobotState
p1655
(dp1656
g19
g20
((lp1657
(I7
I3
tp1658
a(I1
I3
tp1659
a(I7
I1
tp1660
a(I4
I5
tp1661
a(I9
I3
tp1662
a(I5
I5
tp1663
a(I2
I6
tp1664
a(I2
I3
tp1665
a(I5
I1
tp1666
a(I0
I3
tp1667
a(I10
I3
tp1668
a(I2
I5
tp1669
a(I6
I5
tp1670
a(I5
I3
tp1671
a(I2
I7
tp1672
a(I8
I3
tp1673
a(I3
I3
tp1674
a(I5
I2
tp1675
a(I7
I6
tp1676
a(I3
I1
tp1677
a(I6
I3
tp1678
a(I7
I5
tp1679
a(I4
I3
tp1680
a(I3
I5
tp1681
a(I4
I1
tp1682
a(I6
I1
tp1683
atp1684
Rp1685
sg15
I11
sg31
g20
((lp1686
(I7
I2
tp1687
a(I0
I7
tp1688
atp1689
Rp1690
sg13
((I1
I2
tp1691
(I3
I6
tp1692
tp1693
sg14
I8
sbsS'zigzagUpright'
p1694
(imulti_robot_problem
MultiRobotState
p1695
(dp1696
g19
g20
((lp1697
(I1
I3
tp1698
a(I3
I1
tp1699
a(I2
I1
tp1700
a(I1
I1
tp1701
a(I1
I5
tp1702
a(I2
I3
tp1703
a(I2
I5
tp1704
a(I0
I3
tp1705
a(I3
I5
tp1706
atp1707
Rp1708
sg15
I4
sg31
g20
((lp1709
(I3
I6
tp1710
atp1711
Rp1712
sg13
((I3
I0
tp1713
(I3
I19
tp1714
tp1715
sg14
I20
sbsS'ivansRevenge'
p1716
(imulti_robot_problem
MultiRobotState
p1717
(dp1718
g19
g1560
sg15
I10
sg31
g20
((lp1719
(I9
I2
tp1720
a(I0
I0
tp1721
atp1722
Rp1723
sg13
((I9
I0
tp1724
(I0
I2
tp1725
tp1726
sg14
I3
sbsS'roomLongWithObstaccle'
p1727
(imulti_robot_problem
MultiRobotState
p1728
(dp1729
g19
g20
((lp1730
(I0
I1
tp1731
a(I12
I1
tp1732
a(I9
I1
tp1733
a(I7
I1
tp1734
a(I8
I1
tp1735
a(I6
I1
tp1736
a(I3
I1
tp1737
a(I2
I1
tp1738
a(I11
I1
tp1739
a(I10
I1
tp1740
a(I5
I1
tp1741
a(I4
I1
tp1742
a(I1
I1
tp1743
atp1744
Rp1745
sg15
I15
sg31
g20
((lp1746
(I0
I2
tp1747
a(I14
I6
tp1748
atp1749
Rp1750
sg13
((I0
I0
tp1751
(I0
I6
tp1752
tp1753
sg14
I7
sbsS'twoRobotsInOpCorners'
p1754
(imulti_robot_problem
MultiRobotState
p1755
(dp1756
g19
g1560
sg15
I5
sg31
g20
((lp1757
(I0
I0
tp1758
a(I4
I4
tp1759
atp1760
Rp1761
sg13
((I3
I0
tp1762
(I0
I3
tp1763
tp1764
sg14
I5
sbsS'split2'
p1765
(imulti_robot_problem
MultiRobotState
p1766
(dp1767
g19
g1560
sg15
I10
sg31
g20
((lp1768
(I0
I9
tp1769
a(I9
I0
tp1770
a(I0
I0
tp1771
a(I9
I9
tp1772
atp1773
Rp1774
sg13
((I1
I1
tp1775
(I8
I1
tp1776
(I4
I5
tp1777
(I5
I5
tp1778
tp1779
sg14
I10
sbsS'split3'
p1780
(imulti_robot_problem
MultiRobotState
p1781
(dp1782
g19
g1560
sg15
I10
sg31
g20
((lp1783
(I0
I9
tp1784
a(I9
I0
tp1785
a(I0
I0
tp1786
a(I9
I9
tp1787
atp1788
Rp1789
sg13
((I1
I1
tp1790
(I8
I1
tp1791
(I1
I7
tp1792
(I7
I7
tp1793
tp1794
sg14
I10
sbsS'gaintRoom'
p1795
(imulti_robot_problem
MultiRobotState
p1796
(dp1797
g19
g1560
sg15
I5
sg31
g20
((lp1798
(I4
I0
tp1799
a(I4
I4
tp1800
a(I0
I4
tp1801
atp1802
Rp1803
sg13
((I0
I0
tp1804
tp1805
sg14
I5
sbsS'gaintRoomWithWall'
p1806
(imulti_robot_problem
MultiRobotState
p1807
(dp1808
g19
g20
((lp1809
(I2
I4
tp1810
atp1811
Rp1812
sg15
I5
sg31
g20
((lp1813
(I4
I0
tp1814
a(I4
I4
tp1815
a(I0
I4
tp1816
atp1817
Rp1818
sg13
((I0
I0
tp1819
tp1820
sg14
I5
sbsS'split'
p1821
(imulti_robot_problem
MultiRobotState
p1822
(dp1823
g19
g1560
sg15
I10
sg31
g20
((lp1824
(I0
I9
tp1825
a(I9
I0
tp1826
a(I0
I0
tp1827
a(I9
I9
tp1828
atp1829
Rp1830
sg13
((I4
I4
tp1831
(I5
I4
tp1832
(I4
I5
tp1833
(I5
I5
tp1834
tp1835
sg14
I10
sbsS'twoRobots'
p1836
(imulti_robot_problem
MultiRobotState
p1837
(dp1838
g19
g1560
sg15
I9
sg31
g20
((lp1839
(I8
I0
tp1840
a(I0
I0
tp1841
atp1842
Rp1843
sg13
((I2
I0
tp1844
(I0
I3
tp1845
tp1846
sg14
I4
sbssg137
S'static_rooms'
p1847
sbsg137
g139
sg140
(dp1848
g1765
((lp1849
F40.020000000000437
tp1850
sg1780
((lp1851
F40.069999999999709
tp1852
sg1529
((lp1853
F5.25
tp1854
sg1795
((lp1855
F0.0
tp1856
sg1555
((lp1857
F0.11999999999898137
tp1858
sg1570
((lp1859
F27.960000000000946
tp1860
sg1582
((lp1861
F0.63999999999941792
tp1862
sg1836
((lp1863
F0.29000000000087311
tp1864
sg1806
((lp1865
F0.0
tp1866
sg1611
((lp1867
F1.930000000000291
tp1868
sg1633
((lp1869
F7.2999999999992724
tp1870
sg1654
((lp1871
F1.6100000000005821
tp1872
sg1694
((lp1873
F1.6700000000000728
tp1874
sg1716
((lp1875
(F0.0024008750915527344
I2
tp1876
aF0.19000000000050932
tp1877
sg1727
((lp1878
F0.039999999999054126
tp1879
sg1754
((lp1880
F0.59000000000014552
tp1881
sg1821
((lp1882
F40.149999999999636
tp1883
ssba(imeasure_core
ProblemSetSolution
p1884
(dp1885
g3
g4
sg137
S'AnytimeBest-d80_with_PowerHeuristic2'
p1886
sg140
(dp1887
g8
((lp1888
(F0.22409510612487793
I8
tp1889
a(F0.22507190704345703
I8
tp1890
a(F0.22583389282226562
I8
tp1891
a(F0.22671604156494141
I8
tp1892
a(F0.2276310920715332
I8
tp1893
a(F0.22824192047119141
I8
tp1894
a(F0.22860407829284668
I8
tp1895
a(F0.22974801063537598
I8
tp1896
a(F0.23057198524475098
I8
tp1897
a(F0.23090004920959473
I8
tp1898
a(F0.23141694068908691
I8
tp1899
a(F0.23177909851074219
I8
tp1900
a(F0.23266196250915527
I8
tp1901
a(F0.23317694664001465
I8
tp1902
a(F0.23406195640563965
I8
tp1903
a(F0.23473191261291504
I8
tp1904
a(F0.23555994033813477
I8
tp1905
a(F0.23644495010375977
I8
tp1906
a(F0.23720908164978027
I8
tp1907
a(F0.23803400993347168
I8
tp1908
a(F0.23891901969909668
I8
tp1909
a(F0.23956704139709473
I8
tp1910
a(F0.24030089378356934
I8
tp1911
a(F0.24075794219970703
I8
tp1912
a(F0.24127411842346191
I8
tp1913
a(F0.24194502830505371
I8
tp1914
a(F0.24221491813659668
I8
tp1915
a(F0.24263596534729004
I8
tp1916
a(F0.24311709403991699
I8
tp1917
a(F0.24347996711730957
I8
tp1918
a(F0.2445530891418457
I8
tp1919
a(F0.2452549934387207
I8
tp1920
a(F0.24542903900146484
I8
tp1921
a(F0.245758056640625
I8
tp1922
a(F0.24633598327636719
I8
tp1923
a(F0.24700689315795898
I8
tp1924
a(F0.24752211570739746
I8
tp1925
a(F0.24822592735290527
I8
tp1926
a(F0.24889302253723145
I8
tp1927
a(F0.24991798400878906
I8
tp1928
a(F7.3172938823699951
I8
tp1929
a(F7.3182480335235596
I8
tp1930
a(F7.3194940090179443
I8
tp1931
a(F7.3202900886535645
I8
tp1932
a(F7.3211879730224609
I8
tp1933
a(F7.3219339847564697
I8
tp1934
a(F7.3229100704193115
I8
tp1935
a(F7.3239340782165527
I8
tp1936
a(F7.3243000507354736
I8
tp1937
a(F7.3249139785766602
I8
tp1938
a(F7.3258481025695801
I8
tp1939
a(F7.3266561031341553
I8
tp1940
a(F7.3278961181640625
I8
tp1941
a(F7.328571081161499
I8
tp1942
a(F7.3295779228210449
I8
tp1943
a(F7.3306920528411865
I8
tp1944
a(F7.331510066986084
I8
tp1945
a(F7.3322219848632812
I8
tp1946
a(F7.3326311111450195
I8
tp1947
a(F7.3337249755859375
I8
tp1948
a(F7.3347089290618896
I8
tp1949
a(F7.3353300094604492
I8
tp1950
a(F7.3361940383911133
I8
tp1951
a(F7.3371260166168213
I8
tp1952
a(F7.3380410671234131
I8
tp1953
a(F7.3387629985809326
I8
tp1954
a(F7.339540958404541
I8
tp1955
a(F7.3405880928039551
I8
tp1956
a(F7.3416469097137451
I8
tp1957
a(F7.3428020477294922
I8
tp1958
a(F7.3434579372406006
I8
tp1959
a(F7.3441729545593262
I8
tp1960
a(F7.3447840213775635
I8
tp1961
a(F7.3456249237060547
I8
tp1962
a(F7.346160888671875
I8
tp1963
a(F7.3473389148712158
I8
tp1964
a(F7.3481769561767578
I8
tp1965
a(F7.3492279052734375
I8
tp1966
a(F7.3501389026641846
I8
tp1967
a(F7.3511519432067871
I8
tp1968
a(F12.24479603767395
I8
tp1969
a(F12.245872974395752
I8
tp1970
a(F12.24677300453186
I8
tp1971
a(F12.247641086578369
I8
tp1972
a(F12.248527050018311
I8
tp1973
a(F12.249768972396851
I8
tp1974
a(F12.250447034835815
I8
tp1975
a(F12.251374006271362
I8
tp1976
a(F12.252613067626953
I8
tp1977
a(F12.253729104995728
I8
tp1978
a(F12.254667997360229
I8
tp1979
a(F12.255295038223267
I8
tp1980
a(F12.255965948104858
I8
tp1981
a(F12.257041931152344
I8
tp1982
a(F12.257841110229492
I8
tp1983
a(F12.258800983428955
I8
tp1984
a(F12.259637117385864
I8
tp1985
a(F12.260591983795166
I8
tp1986
a(F12.26117205619812
I8
tp1987
a(F12.262051105499268
I8
tp1988
a(F12.262664079666138
I8
tp1989
a(F12.263256072998047
I8
tp1990
a(F12.263751029968262
I8
tp1991
a(F12.264482021331787
I8
tp1992
a(F12.264792919158936
I8
tp1993
a(F12.26547908782959
I8
tp1994
a(F12.266362905502319
I8
tp1995
a(F12.267029047012329
I8
tp1996
a(F12.267987966537476
I8
tp1997
a(F12.268979072570801
I8
tp1998
a(F12.269743919372559
I8
tp1999
a(F12.270822048187256
I8
tp2000
a(F12.271392107009888
I8
tp2001
a(F12.272262096405029
I8
tp2002
a(F12.272820949554443
I8
tp2003
a(F12.273933887481689
I8
tp2004
a(F12.274770021438599
I8
tp2005
a(F12.275767087936401
I8
tp2006
a(F12.276789903640747
I8
tp2007
a(F12.277848958969116
I8
tp2008
a(F16.96960711479187
I8
tp2009
a(F16.970558881759644
I8
tp2010
a(F16.97142505645752
I8
tp2011
a(F16.972595930099487
I8
tp2012
a(F16.97352409362793
I8
tp2013
a(F16.974313020706177
I8
tp2014
a(F16.975197076797485
I8
tp2015
a(F16.97608208656311
I8
tp2016
a(F16.977139949798584
I8
tp2017
a(F16.97790789604187
I8
tp2018
a(F16.979043006896973
I8
tp2019
a(F16.980034112930298
I8
tp2020
a(F16.980648994445801
I8
tp2021
a(F16.98173999786377
I8
tp2022
a(F16.982810020446777
I8
tp2023
a(F16.983827114105225
I8
tp2024
a(F16.984649896621704
I8
tp2025
a(F16.985625982284546
I8
tp2026
a(F16.986500978469849
I8
tp2027
a(F16.98723292350769
I8
tp2028
a(F16.988209962844849
I8
tp2029
a(F16.989305019378662
I8
tp2030
a(F16.990083932876587
I8
tp2031
a(F16.991111040115356
I8
tp2032
a(F16.992096900939941
I8
tp2033
a(F16.993159055709839
I8
tp2034
a(F16.994004011154175
I8
tp2035
a(F16.994839906692505
I8
tp2036
a(F16.996081113815308
I8
tp2037
a(F16.997284889221191
I8
tp2038
a(F16.998368978500366
I8
tp2039
a(F16.999372959136963
I8
tp2040
a(F17.00026798248291
I8
tp2041
a(F17.001259088516235
I8
tp2042
a(F17.00247597694397
I8
tp2043
a(F17.003376960754395
I8
tp2044
a(F17.004550933837891
I8
tp2045
a(F17.005453109741211
I8
tp2046
a(F17.006083965301514
I8
tp2047
a(F17.006993055343628
I8
tp2048
a(F17.007795095443726
I8
tp2049
a(F17.008318901062012
I8
tp2050
a(F17.009212017059326
I8
tp2051
a(F17.010066986083984
I8
tp2052
a(F17.010683059692383
I8
tp2053
a(F17.011390924453735
I8
tp2054
a(F17.012264966964722
I8
tp2055
a(F17.013156890869141
I8
tp2056
a(F17.013832092285156
I8
tp2057
a(F17.01463508605957
I8
tp2058
a(F26.299371004104614
I8
tp2059
a(F26.300266981124878
I8
tp2060
a(F26.300537109375
I8
tp2061
a(F26.301517009735107
I8
tp2062
a(F26.302565097808838
I8
tp2063
a(F26.303080081939697
I8
tp2064
a(F26.304008960723877
I8
tp2065
a(F26.304523944854736
I8
tp2066
a(F26.305011034011841
I8
tp2067
a(F26.30574107170105
I8
tp2068
a(F26.306490898132324
I8
tp2069
a(F26.307177066802979
I8
tp2070
a(F26.307632923126221
I8
tp2071
a(F26.308593034744263
I8
tp2072
a(F26.309479951858521
I8
tp2073
a(F26.310656070709229
I8
tp2074
a(F26.311487913131714
I8
tp2075
a(F26.312208890914917
I8
tp2076
a(F26.313277006149292
I8
tp2077
a(F26.313962936401367
I8
tp2078
a(F26.31523609161377
I8
tp2079
a(F26.315752983093262
I8
tp2080
a(F26.316512107849121
I8
tp2081
a(F26.317039012908936
I8
tp2082
a(F26.317682981491089
I8
tp2083
a(F26.318615913391113
I8
tp2084
a(F26.318944931030273
I8
tp2085
a(F26.319566011428833
I8
tp2086
a(F26.320012092590332
I8
tp2087
a(F26.320889949798584
I8
tp2088
a(F26.321768999099731
I8
tp2089
a(F26.322726964950562
I8
tp2090
a(F26.323544025421143
I8
tp2091
a(F26.324012041091919
I8
tp2092
a(F26.324862003326416
I8
tp2093
a(F26.325421094894409
I8
tp2094
a(F26.326092958450317
I8
tp2095
a(F26.327157020568848
I8
tp2096
a(F26.327891111373901
I8
tp2097
a(F26.328763008117676
I8
tp2098
a(F33.074212074279785
I8
tp2099
a(F33.074790000915527
I8
tp2100
a(F33.07530689239502
I8
tp2101
a(F33.076332092285156
I8
tp2102
a(F33.077400922775269
I8
tp2103
a(F33.078568935394287
I8
tp2104
a(F33.079252958297729
I8
tp2105
a(F33.079838037490845
I8
tp2106
a(F33.080950021743774
I8
tp2107
a(F33.081764936447144
I8
tp2108
a(F33.082403898239136
I8
tp2109
a(F33.083302021026611
I8
tp2110
a(F33.083760023117065
I8
tp2111
a(F33.084949016571045
I8
tp2112
a(F33.086023092269897
I8
tp2113
a(F33.086766004562378
I8
tp2114
a(F33.087702035903931
I8
tp2115
a(F33.088613033294678
I8
tp2116
a(F33.089658975601196
I8
tp2117
a(F33.090374946594238
I8
tp2118
a(F33.091351985931396
I8
tp2119
a(F33.092000961303711
I8
tp2120
a(F33.09276294708252
I8
tp2121
a(F33.092879056930542
I8
tp2122
a(F33.093899011611938
I8
tp2123
a(F33.094677925109863
I8
tp2124
a(F33.095516920089722
I8
tp2125
a(F33.096379995346069
I8
tp2126
a(F33.097223997116089
I8
tp2127
a(F33.098284959793091
I8
tp2128
a(F33.098726987838745
I8
tp2129
a(F33.099258899688721
I8
tp2130
a(F33.099771976470947
I8
tp2131
a(F33.100786924362183
I8
tp2132
a(F33.101916074752808
I8
tp2133
a(F33.10266900062561
I8
tp2134
a(F33.103864908218384
I8
tp2135
a(F33.104505062103271
I8
tp2136
a(F33.105138063430786
I8
tp2137
a(F33.106256008148193
I8
tp2138
a(F37.225192070007324
I8
tp2139
a(F37.225871086120605
I8
tp2140
a(F37.22679591178894
I8
tp2141
a(F37.22722601890564
I8
tp2142
a(F37.228362083435059
I8
tp2143
a(F37.229042053222656
I8
tp2144
a(F37.229583978652954
I8
tp2145
a(F37.230346918106079
I8
tp2146
a(F37.231076955795288
I8
tp2147
a(F37.231743097305298
I8
tp2148
a(F37.232171058654785
I8
tp2149
a(F37.232944011688232
I8
tp2150
a(F37.233772039413452
I8
tp2151
a(F37.234736919403076
I8
tp2152
a(F37.235342979431152
I8
tp2153
a(F37.236252069473267
I8
tp2154
a(F37.237061023712158
I8
tp2155
a(F37.237848043441772
I8
tp2156
a(F37.238734006881714
I8
tp2157
a(F37.239712953567505
I8
tp2158
a(F37.240508079528809
I8
tp2159
a(F37.241040945053101
I8
tp2160
a(F37.241534948348999
I8
tp2161
a(F37.242055892944336
I8
tp2162
a(F37.242423057556152
I8
tp2163
a(F37.243130922317505
I8
tp2164
a(F37.243896007537842
I8
tp2165
a(F37.245095014572144
I8
tp2166
a(F37.245922088623047
I8
tp2167
a(F37.246509075164795
I8
tp2168
a(F37.247198104858398
I8
tp2169
a(F37.248131990432739
I8
tp2170
a(F37.248861074447632
I8
tp2171
a(F37.249650001525879
I8
tp2172
a(F37.250240087509155
I8
tp2173
a(F37.250772953033447
I8
tp2174
a(F37.251564025878906
I8
tp2175
a(F37.25235390663147
I8
tp2176
a(F37.253103971481323
I8
tp2177
a(F37.253829956054688
I8
tp2178
aF40.049999999999272
tp2179
sg48
((lp2180
F40.079999999999927
tp2181
sg78
((lp2182
F40.06000000000131
tp2183
sg105
((lp2184
(F1.1893877983093262
I6
tp2185
a(F1.1905198097229004
I6
tp2186
a(F1.1915819644927979
I6
tp2187
a(F1.1927878856658936
I6
tp2188
a(F1.1939358711242676
I6
tp2189
a(F1.1949567794799805
I6
tp2190
a(F1.1959609985351562
I6
tp2191
a(F1.1969599723815918
I6
tp2192
a(F1.1979868412017822
I6
tp2193
a(F1.199131965637207
I6
tp2194
a(F1.2002828121185303
I6
tp2195
a(F1.2013468742370605
I6
tp2196
a(F1.2022898197174072
I6
tp2197
a(F1.2032959461212158
I6
tp2198
a(F1.2044439315795898
I6
tp2199
a(F1.2055478096008301
I6
tp2200
a(F1.2064299583435059
I6
tp2201
a(F1.2075808048248291
I6
tp2202
a(F1.2086098194122314
I6
tp2203
a(F1.209345817565918
I6
tp2204
a(F1.2103569507598877
I6
tp2205
a(F1.2113008499145508
I6
tp2206
a(F1.2124459743499756
I6
tp2207
a(F1.2133879661560059
I6
tp2208
a(F1.2142438888549805
I6
tp2209
a(F1.2151999473571777
I6
tp2210
a(F1.216209888458252
I6
tp2211
a(F1.2172977924346924
I6
tp2212
a(F1.2184457778930664
I6
tp2213
a(F1.219512939453125
I6
tp2214
a(F1.2206859588623047
I6
tp2215
a(F1.2214829921722412
I6
tp2216
a(F1.2226309776306152
I6
tp2217
a(F1.2236340045928955
I6
tp2218
a(F1.2246148586273193
I6
tp2219
a(F1.2258279323577881
I6
tp2220
a(F1.2267699241638184
I6
tp2221
a(F1.2275669574737549
I6
tp2222
a(F1.2283639907836914
I6
tp2223
a(F1.2291598320007324
I6
tp2224
a(F1.2301628589630127
I6
tp2225
a(F1.2311887741088867
I6
tp2226
a(F1.2324779033660889
I6
tp2227
a(F1.2333359718322754
I6
tp2228
a(F1.2343049049377441
I6
tp2229
a(F1.2352240085601807
I6
tp2230
a(F1.2362949848175049
I6
tp2231
a(F1.2371509075164795
I6
tp2232
a(F1.2380678653717041
I6
tp2233
a(F1.2392289638519287
I6
tp2234
a(F1.2402358055114746
I6
tp2235
a(F1.2413268089294434
I6
tp2236
a(F1.2420399188995361
I6
tp2237
a(F1.2428369522094727
I6
tp2238
a(F1.2434899806976318
I6
tp2239
a(F1.2445189952850342
I6
tp2240
a(F1.2456789016723633
I6
tp2241
a(F1.2468287944793701
I6
tp2242
a(F1.2471408843994141
I6
tp2243
a(F1.2481648921966553
I6
tp2244
a(F1.2493720054626465
I6
tp2245
a(F1.2503979206085205
I6
tp2246
a(F1.2513389587402344
I6
tp2247
a(F1.2522218227386475
I6
tp2248
a(F1.2529628276824951
I6
tp2249
a(F1.253903865814209
I6
tp2250
a(F1.2549178600311279
I6
tp2251
a(F1.2557778358459473
I6
tp2252
a(F1.2570068836212158
I6
tp2253
a(F1.2580339908599854
I6
tp2254
a(F1.258915901184082
I6
tp2255
a(F1.2598309516906738
I6
tp2256
a(F1.2608559131622314
I6
tp2257
a(F1.2618567943572998
I6
tp2258
a(F1.2626528739929199
I6
tp2259
a(F1.2636528015136719
I6
tp2260
a(F1.2644498348236084
I6
tp2261
a(F1.2656729221343994
I6
tp2262
a(F1.2665548324584961
I6
tp2263
a(F1.2675578594207764
I6
tp2264
a(F1.2685608863830566
I6
tp2265
a(F1.2694408893585205
I6
tp2266
a(F1.2703828811645508
I6
tp2267
a(F1.2712028026580811
I6
tp2268
a(F1.2722938060760498
I6
tp2269
a(F1.2732489109039307
I6
tp2270
a(F1.2742879390716553
I6
tp2271
a(F1.2752649784088135
I6
tp2272
a(F1.2761228084564209
I6
tp2273
a(F1.2768359184265137
I6
tp2274
a(F1.2775709629058838
I6
tp2275
a(F1.2785208225250244
I6
tp2276
a(F1.2794859409332275
I6
tp2277
a(F1.2802219390869141
I6
tp2278
a(F1.2811989784240723
I6
tp2279
a(F1.2820188999176025
I6
tp2280
a(F1.2831039428710938
I6
tp2281
a(F1.2839028835296631
I6
tp2282
a(F1.284855842590332
I6
tp2283
a(F1.2857987880706787
I6
tp2284
a(F1.2861089706420898
I6
tp2285
a(F1.2873468399047852
I6
tp2286
a(F1.2879958152770996
I6
tp2287
a(F1.2892868518829346
I6
tp2288
a(F1.2901439666748047
I6
tp2289
a(F1.2910008430480957
I6
tp2290
a(F1.2920289039611816
I6
tp2291
a(F1.2925968170166016
I6
tp2292
a(F1.2936840057373047
I6
tp2293
a(F1.2947919368743896
I6
tp2294
a(F1.2957999706268311
I6
tp2295
a(F1.296806812286377
I6
tp2296
a(F1.2971179485321045
I6
tp2297
a(F1.2979137897491455
I6
tp2298
a(F1.2989418506622314
I6
tp2299
a(F1.2998018264770508
I6
tp2300
a(F1.3011817932128906
I6
tp2301
a(F1.3021857738494873
I6
tp2302
a(F1.3024959564208984
I6
tp2303
a(F1.3034408092498779
I6
tp2304
a(F1.3041529655456543
I6
tp2305
a(F1.3048169612884521
I6
tp2306
a(F1.3058218955993652
I6
tp2307
a(F1.3066208362579346
I6
tp2308
a(F1.3075649738311768
I6
tp2309
a(F1.3084249496459961
I6
tp2310
a(F1.309345006942749
I6
tp2311
a(F1.3103508949279785
I6
tp2312
a(F1.3110899925231934
I6
tp2313
a(F1.3119709491729736
I6
tp2314
a(F1.3128519058227539
I6
tp2315
a(F1.3135888576507568
I6
tp2316
a(F1.3146169185638428
I6
tp2317
a(F1.3154988288879395
I6
tp2318
a(F1.3167088031768799
I6
tp2319
a(F1.3178608417510986
I6
tp2320
a(F1.3189499378204346
I6
tp2321
a(F1.3198978900909424
I6
tp2322
a(F1.3207528591156006
I6
tp2323
a(F1.3215489387512207
I6
tp2324
a(F1.3223679065704346
I6
tp2325
a(F1.3226180076599121
I6
tp2326
a(F1.3234767913818359
I6
tp2327
a(F1.3243148326873779
I6
tp2328
a(F1.3249537944793701
I6
tp2329
a(F1.3255448341369629
I6
tp2330
a(F1.3265228271484375
I6
tp2331
a(F1.327441930770874
I6
tp2332
a(F1.3282978534698486
I6
tp2333
a(F1.3291587829589844
I6
tp2334
a(F1.3301408290863037
I6
tp2335
a(F1.331122875213623
I6
tp2336
a(F1.3322758674621582
I6
tp2337
a(F1.3329977989196777
I6
tp2338
a(F1.3338658809661865
I6
tp2339
a(F1.3346519470214844
I6
tp2340
a(F1.3354499340057373
I6
tp2341
a(F1.3361008167266846
I6
tp2342
a(F1.3368158340454102
I6
tp2343
a(F1.3378868103027344
I6
tp2344
a(F1.3388099670410156
I6
tp2345
a(F1.3395838737487793
I6
tp2346
a(F1.3402349948883057
I6
tp2347
a(F1.3410329818725586
I6
tp2348
a(F1.3417468070983887
I6
tp2349
a(F1.3426098823547363
I6
tp2350
a(F1.3436148166656494
I6
tp2351
a(F1.3445758819580078
I6
tp2352
a(F1.3454198837280273
I6
tp2353
a(F1.3462178707122803
I6
tp2354
a(F1.3472199440002441
I6
tp2355
a(F1.3480179309844971
I6
tp2356
a(F1.3486487865447998
I6
tp2357
a(F1.3494479656219482
I6
tp2358
a(F1.3500149250030518
I6
tp2359
a(F1.3508758544921875
I6
tp2360
a(F1.3517599105834961
I6
tp2361
a(F1.3527648448944092
I6
tp2362
a(F1.3537068367004395
I6
tp2363
a(F1.3547878265380859
I6
tp2364
a(F1.3558318614959717
I6
tp2365
a(F1.3566908836364746
I6
tp2366
a(F1.3575508594512939
I6
tp2367
a(F1.3586997985839844
I6
tp2368
a(F1.3596179485321045
I6
tp2369
a(F1.3605020046234131
I6
tp2370
a(F1.3613018989562988
I6
tp2371
a(F1.362015962600708
I6
tp2372
a(F1.3628969192504883
I6
tp2373
a(F1.3638060092926025
I6
tp2374
a(F1.364616870880127
I6
tp2375
a(F1.3652698993682861
I6
tp2376
a(F1.3662757873535156
I6
tp2377
a(F1.3672208786010742
I6
tp2378
a(F1.3678109645843506
I6
tp2379
a(F1.368729829788208
I6
tp2380
a(F1.3701598644256592
I6
tp2381
a(F1.3708767890930176
I6
tp2382
a(F1.3717348575592041
I6
tp2383
a(F1.3725697994232178
I6
tp2384
a(F1.3736388683319092
I6
tp2385
a(F1.3743538856506348
I6
tp2386
a(F1.375140905380249
I6
tp2387
a(F1.376121997833252
I6
tp2388
a(F1.3769218921661377
I6
tp2389
a(F1.3778688907623291
I6
tp2390
a(F1.3788199424743652
I6
tp2391
a(F1.3797409534454346
I6
tp2392
a(F1.3805809020996094
I6
tp2393
a(F1.3815867900848389
I6
tp2394
a(F1.3822758197784424
I6
tp2395
a(F1.3832027912139893
I6
tp2396
a(F1.3837099075317383
I6
tp2397
a(F1.384509801864624
I6
tp2398
a(F1.3854408264160156
I6
tp2399
a(F1.3863029479980469
I6
tp2400
a(F1.3869788646697998
I6
tp2401
a(F1.3876907825469971
I6
tp2402
a(F1.3885488510131836
I6
tp2403
a(F1.3893477916717529
I6
tp2404
a(F1.3901247978210449
I6
tp2405
a(F1.3907549381256104
I6
tp2406
a(F1.3916759490966797
I6
tp2407
a(F1.3924539089202881
I6
tp2408
a(F1.3935859203338623
I6
tp2409
a(F1.394521951675415
I6
tp2410
a(F1.3954517841339111
I6
tp2411
a(F1.3962888717651367
I6
tp2412
a(F1.3967728614807129
I6
tp2413
a(F1.3971958160400391
I6
tp2414
a(F1.3977878093719482
I6
tp2415
a(F1.398561954498291
I6
tp2416
a(F1.3994269371032715
I6
tp2417
a(F1.399993896484375
I6
tp2418
a(F1.4007678031921387
I6
tp2419
a(F1.4015028476715088
I6
tp2420
a(F1.402763843536377
I6
tp2421
a(F1.4037849903106689
I6
tp2422
a(F1.4049530029296875
I6
tp2423
a(F1.4059898853302002
I6
tp2424
aF40.229999999999563
tp2425
ssba(imeasure_core
ProblemSetSolution
p2426
(dp2427
g3
g682
sg137
g1886
sg140
(dp2428
g685
((lp2429
F40.090000000000146
tp2430
sg729
((lp2431
(F0.17301797866821289
I5
tp2432
a(F0.17377686500549316
I5
tp2433
a(F0.1745758056640625
I5
tp2434
a(F0.17553591728210449
I5
tp2435
a(F0.17633700370788574
I5
tp2436
a(F0.17707586288452148
I5
tp2437
a(F0.17776989936828613
I5
tp2438
a(F0.1785128116607666
I5
tp2439
a(F0.17905282974243164
I5
tp2440
a(F0.17937088012695312
I5
tp2441
a(F0.18033385276794434
I5
tp2442
a(F0.1807708740234375
I5
tp2443
a(F0.18157291412353516
I5
tp2444
a(F0.18239092826843262
I5
tp2445
a(F0.18292689323425293
I5
tp2446
a(F0.18332695960998535
I5
tp2447
a(F0.18407082557678223
I5
tp2448
a(F0.18475198745727539
I5
tp2449
a(F0.18529796600341797
I5
tp2450
a(F0.18590879440307617
I5
tp2451
a(F0.18644881248474121
I5
tp2452
a(F0.1867058277130127
I5
tp2453
a(F0.18751096725463867
I5
tp2454
a(F0.1877748966217041
I5
tp2455
a(F0.1880948543548584
I5
tp2456
a(F0.18907380104064941
I5
tp2457
a(F0.18961381912231445
I5
tp2458
a(F0.19049286842346191
I5
tp2459
a(F0.19089293479919434
I5
tp2460
a(F0.19155788421630859
I5
tp2461
a(F0.1920769214630127
I5
tp2462
a(F0.19281697273254395
I5
tp2463
a(F0.19335579872131348
I5
tp2464
a(F0.19353294372558594
I5
tp2465
a(F0.19435477256774902
I5
tp2466
a(F0.19503879547119141
I5
tp2467
a(F0.19584083557128906
I5
tp2468
a(F0.19674181938171387
I5
tp2469
a(F0.19748282432556152
I5
tp2470
a(F0.19801878929138184
I5
tp2471
a(F0.19876289367675781
I5
tp2472
a(F0.19922590255737305
I5
tp2473
a(F0.19982600212097168
I5
tp2474
a(F0.2003638744354248
I5
tp2475
a(F0.20110392570495605
I5
tp2476
a(F0.20186495780944824
I5
tp2477
a(F0.20260500907897949
I5
tp2478
a(F0.20334792137145996
I5
tp2479
a(F0.20416593551635742
I5
tp2480
a(F0.20478677749633789
I5
tp2481
a(F0.20566678047180176
I5
tp2482
a(F0.20642590522766113
I5
tp2483
a(F0.20704293251037598
I5
tp2484
a(F0.20756196975708008
I5
tp2485
a(F0.20828390121459961
I5
tp2486
a(F0.20915889739990234
I5
tp2487
a(F0.20981884002685547
I5
tp2488
a(F0.21036577224731445
I5
tp2489
a(F0.21103692054748535
I5
tp2490
a(F0.21188783645629883
I5
tp2491
a(F0.21262598037719727
I5
tp2492
a(F0.21344900131225586
I5
tp2493
a(F0.21370577812194824
I5
tp2494
a(F0.21430492401123047
I5
tp2495
a(F0.21490287780761719
I5
tp2496
a(F0.21522188186645508
I5
tp2497
a(F0.21582198143005371
I5
tp2498
a(F0.21656489372253418
I5
tp2499
a(F0.21724987030029297
I5
tp2500
a(F0.21844100952148438
I5
tp2501
a(F10.834124803543091
I5
tp2502
a(F10.8348548412323
I5
tp2503
a(F10.835946798324585
I5
tp2504
a(F10.8368239402771
I5
tp2505
a(F10.838081836700439
I5
tp2506
a(F10.838949918746948
I5
tp2507
a(F10.839831829071045
I5
tp2508
a(F10.840785980224609
I5
tp2509
a(F10.841447830200195
I5
tp2510
a(F10.84154486656189
I5
tp2511
a(F10.842391967773438
I5
tp2512
a(F10.843520879745483
I5
tp2513
a(F10.844500780105591
I5
tp2514
a(F10.845326900482178
I5
tp2515
a(F10.84633994102478
I5
tp2516
a(F10.847230911254883
I5
tp2517
a(F10.848056793212891
I5
tp2518
a(F10.848739862442017
I5
tp2519
a(F10.849563837051392
I5
tp2520
a(F10.8504478931427
I5
tp2521
a(F10.851678848266602
I5
tp2522
a(F10.85204291343689
I5
tp2523
a(F10.852644920349121
I5
tp2524
a(F10.853724002838135
I5
tp2525
a(F10.854376792907715
I5
tp2526
a(F10.854837894439697
I5
tp2527
a(F10.855673789978027
I5
tp2528
a(F10.856700897216797
I5
tp2529
a(F10.857573986053467
I5
tp2530
a(F10.858377933502197
I5
tp2531
a(F10.859394788742065
I5
tp2532
a(F10.860036849975586
I5
tp2533
a(F10.860656976699829
I5
tp2534
a(F10.861498832702637
I5
tp2535
a(F10.862119913101196
I5
tp2536
a(F10.863196849822998
I5
tp2537
a(F10.863861799240112
I5
tp2538
a(F10.864704847335815
I5
tp2539
a(F10.865655899047852
I5
tp2540
a(F10.866686820983887
I5
tp2541
a(F10.867498874664307
I5
tp2542
a(F10.868468999862671
I5
tp2543
a(F10.869398832321167
I5
tp2544
a(F10.870140790939331
I5
tp2545
a(F10.870938777923584
I5
tp2546
a(F10.871767997741699
I5
tp2547
a(F10.872606992721558
I5
tp2548
a(F10.87365984916687
I5
tp2549
a(F10.874627828598022
I5
tp2550
a(F10.875382900238037
I5
tp2551
a(F10.876330852508545
I5
tp2552
a(F10.877099990844727
I5
tp2553
a(F10.878253936767578
I5
tp2554
a(F10.879112958908081
I5
tp2555
a(F10.880019903182983
I5
tp2556
a(F10.88090991973877
I5
tp2557
a(F10.881622791290283
I5
tp2558
a(F10.882440805435181
I5
tp2559
a(F10.883461952209473
I5
tp2560
a(F10.884622812271118
I5
tp2561
a(F10.885634899139404
I5
tp2562
a(F10.88616681098938
I5
tp2563
a(F10.886960983276367
I5
tp2564
a(F10.887736797332764
I5
tp2565
a(F10.888723850250244
I5
tp2566
a(F10.889623880386353
I5
tp2567
a(F10.890710830688477
I5
tp2568
a(F10.89173698425293
I5
tp2569
a(F10.892677783966064
I5
tp2570
a(F10.893931865692139
I5
tp2571
a(F18.482131004333496
I5
tp2572
a(F18.483368873596191
I5
tp2573
a(F18.484492778778076
I5
tp2574
a(F18.484791994094849
I5
tp2575
a(F18.48560094833374
I5
tp2576
a(F18.486525774002075
I5
tp2577
a(F18.48757791519165
I5
tp2578
a(F18.488412857055664
I5
tp2579
a(F18.489299774169922
I5
tp2580
a(F18.489839792251587
I5
tp2581
a(F18.490792989730835
I5
tp2582
a(F18.49175500869751
I5
tp2583
a(F18.492483854293823
I5
tp2584
a(F18.49330997467041
I5
tp2585
a(F18.494133949279785
I5
tp2586
a(F18.495061874389648
I5
tp2587
a(F18.495659828186035
I5
tp2588
a(F18.49646782875061
I5
tp2589
a(F18.497394800186157
I5
tp2590
a(F18.49837589263916
I5
tp2591
a(F18.499201774597168
I5
tp2592
a(F18.499439001083374
I5
tp2593
a(F18.500392913818359
I5
tp2594
a(F18.500919818878174
I5
tp2595
a(F18.501614809036255
I5
tp2596
a(F18.502588987350464
I5
tp2597
a(F18.503348827362061
I5
tp2598
a(F18.503902912139893
I5
tp2599
a(F18.5048508644104
I5
tp2600
a(F18.505936861038208
I5
tp2601
a(F18.506804943084717
I5
tp2602
a(F18.50782299041748
I5
tp2603
a(F18.508782863616943
I5
tp2604
a(F18.509654998779297
I5
tp2605
a(F18.510594844818115
I5
tp2606
a(F18.511459827423096
I5
tp2607
a(F18.512579917907715
I5
tp2608
a(F18.51344895362854
I5
tp2609
a(F18.514198780059814
I5
tp2610
a(F18.51482892036438
I5
tp2611
a(F18.515616893768311
I5
tp2612
a(F18.516400814056396
I5
tp2613
a(F18.517406940460205
I5
tp2614
a(F18.518329858779907
I5
tp2615
a(F18.519024848937988
I5
tp2616
a(F18.519261837005615
I5
tp2617
a(F18.520302772521973
I5
tp2618
a(F18.520949840545654
I5
tp2619
a(F18.521763801574707
I5
tp2620
a(F18.522161960601807
I5
tp2621
a(F18.52307391166687
I5
tp2622
a(F18.524057865142822
I5
tp2623
a(F18.524847984313965
I5
tp2624
a(F18.525940895080566
I5
tp2625
a(F18.526886940002441
I5
tp2626
a(F18.527846813201904
I5
tp2627
a(F18.528761863708496
I5
tp2628
a(F18.529505968093872
I5
tp2629
a(F18.530318975448608
I5
tp2630
a(F18.531232833862305
I5
tp2631
a(F18.532019853591919
I5
tp2632
a(F18.53298282623291
I5
tp2633
a(F18.533750772476196
I5
tp2634
a(F18.534557819366455
I5
tp2635
a(F18.535461902618408
I5
tp2636
a(F18.536435842514038
I5
tp2637
a(F18.537146806716919
I5
tp2638
a(F18.538091897964478
I5
tp2639
a(F18.538700819015503
I5
tp2640
a(F18.539502859115601
I5
tp2641
a(F18.540262937545776
I5
tp2642
a(F18.541196823120117
I5
tp2643
a(F18.541947841644287
I5
tp2644
a(F18.542856931686401
I5
tp2645
a(F18.543949842453003
I5
tp2646
a(F18.545262813568115
I5
tp2647
a(F18.545873880386353
I5
tp2648
a(F18.546957969665527
I5
tp2649
a(F18.547993898391724
I5
tp2650
a(F18.549343824386597
I5
tp2651
a(F28.730268001556396
I5
tp2652
a(F28.73143196105957
I5
tp2653
a(F28.731892824172974
I5
tp2654
a(F28.732886791229248
I5
tp2655
a(F28.734144926071167
I5
tp2656
a(F28.73510479927063
I5
tp2657
a(F28.736326932907104
I5
tp2658
a(F28.737086772918701
I5
tp2659
a(F28.737690925598145
I5
tp2660
a(F28.738224983215332
I5
tp2661
a(F28.739204883575439
I5
tp2662
a(F28.739828824996948
I5
tp2663
a(F28.740433931350708
I5
tp2664
a(F28.741611957550049
I5
tp2665
a(F28.742587804794312
I5
tp2666
a(F28.743048906326294
I5
tp2667
a(F28.743506908416748
I5
tp2668
a(F28.744318008422852
I5
tp2669
a(F28.745538949966431
I5
tp2670
a(F28.746513843536377
I5
tp2671
a(F28.747240781784058
I5
tp2672
a(F28.748161792755127
I5
tp2673
a(F28.749038934707642
I5
tp2674
a(F28.749863862991333
I5
tp2675
a(F28.751019954681396
I5
tp2676
a(F28.752132892608643
I5
tp2677
a(F28.75308895111084
I5
tp2678
a(F28.754064798355103
I5
tp2679
a(F28.754759788513184
I5
tp2680
a(F28.754998922348022
I5
tp2681
a(F28.755928993225098
I5
tp2682
a(F28.756764888763428
I5
tp2683
a(F28.75757884979248
I5
tp2684
a(F28.75846791267395
I5
tp2685
a(F28.758949995040894
I5
tp2686
a(F28.75965690612793
I5
tp2687
a(F28.760331869125366
I5
tp2688
a(F28.760872840881348
I5
tp2689
a(F28.761305809020996
I5
tp2690
a(F28.7619788646698
I5
tp2691
a(F28.76269793510437
I5
tp2692
a(F28.763454914093018
I5
tp2693
a(F28.764534950256348
I5
tp2694
a(F28.76514196395874
I5
tp2695
a(F28.76591682434082
I5
tp2696
a(F28.766963005065918
I5
tp2697
a(F28.767972946166992
I5
tp2698
a(F28.768375873565674
I5
tp2699
a(F28.769476890563965
I5
tp2700
a(F28.770351886749268
I5
tp2701
a(F28.770961999893188
I5
tp2702
a(F28.771593809127808
I5
tp2703
a(F28.772709846496582
I5
tp2704
a(F28.773605823516846
I5
tp2705
a(F28.774509906768799
I5
tp2706
a(F28.775331974029541
I5
tp2707
a(F28.776456832885742
I5
tp2708
a(F28.77686595916748
I5
tp2709
a(F28.777705907821655
I5
tp2710
a(F28.778392791748047
I5
tp2711
a(F28.779250860214233
I5
tp2712
a(F28.780090808868408
I5
tp2713
a(F28.780742883682251
I5
tp2714
a(F28.781556844711304
I5
tp2715
a(F28.78202486038208
I5
tp2716
a(F28.782999992370605
I5
tp2717
a(F28.783757925033569
I5
tp2718
a(F28.784492969512939
I5
tp2719
a(F28.78559684753418
I5
tp2720
a(F28.78655481338501
I5
tp2721
a(F28.787652969360352
I5
tp2722
a(F28.788360834121704
I5
tp2723
a(F28.789304971694946
I5
tp2724
a(F28.790247917175293
I5
tp2725
a(F28.791167974472046
I5
tp2726
a(F28.791836977005005
I5
tp2727
a(F28.792732000350952
I5
tp2728
a(F28.793771982192993
I5
tp2729
a(F28.794790983200073
I5
tp2730
a(F28.795413970947266
I5
tp2731
a(F28.796595811843872
I5
tp2732
a(F28.797408819198608
I5
tp2733
a(F28.798249959945679
I5
tp2734
a(F28.799301862716675
I5
tp2735
a(F28.799836874008179
I5
tp2736
a(F28.80099892616272
I5
tp2737
a(F28.802137851715088
I5
tp2738
a(F28.803845882415771
I5
tp2739
a(F28.805242776870728
I5
tp2740
a(F28.806821823120117
I5
tp2741
a(F34.214031934738159
I5
tp2742
a(F34.215175867080688
I5
tp2743
a(F34.215917825698853
I5
tp2744
a(F34.216784954071045
I5
tp2745
a(F34.217758893966675
I5
tp2746
a(F34.218578815460205
I5
tp2747
a(F34.219656944274902
I5
tp2748
a(F34.220257997512817
I5
tp2749
a(F34.221074819564819
I5
tp2750
a(F34.222025871276855
I5
tp2751
a(F34.222896814346313
I5
tp2752
a(F34.223842859268188
I5
tp2753
a(F34.224178791046143
I5
tp2754
a(F34.225284814834595
I5
tp2755
a(F34.225775957107544
I5
tp2756
a(F34.226262807846069
I5
tp2757
a(F34.227015972137451
I5
tp2758
a(F34.22750997543335
I5
tp2759
a(F34.228503942489624
I5
tp2760
a(F34.22947096824646
I5
tp2761
a(F34.230141878128052
I5
tp2762
a(F34.230892896652222
I5
tp2763
a(F34.231798887252808
I5
tp2764
a(F34.232557773590088
I5
tp2765
a(F34.233304977416992
I5
tp2766
a(F34.233703851699829
I5
tp2767
a(F34.234417915344238
I5
tp2768
a(F34.235150814056396
I5
tp2769
a(F34.235694885253906
I5
tp2770
a(F34.236493825912476
I5
tp2771
a(F34.237093925476074
I5
tp2772
a(F34.237782955169678
I5
tp2773
a(F34.238603830337524
I5
tp2774
a(F34.239396810531616
I5
tp2775
a(F34.240184783935547
I5
tp2776
a(F34.241105794906616
I5
tp2777
a(F34.241963863372803
I5
tp2778
a(F34.242864847183228
I5
tp2779
a(F34.243778944015503
I5
tp2780
a(F34.244532823562622
I5
tp2781
a(F34.24505877494812
I5
tp2782
a(F34.245914936065674
I5
tp2783
a(F34.246790885925293
I5
tp2784
a(F34.247764825820923
I5
tp2785
a(F34.248439788818359
I5
tp2786
a(F34.249384880065918
I5
tp2787
a(F34.250198841094971
I5
tp2788
a(F34.250998973846436
I5
tp2789
a(F34.251658916473389
I5
tp2790
a(F34.252124786376953
I5
tp2791
a(F34.253132820129395
I5
tp2792
a(F34.253872871398926
I5
tp2793
a(F34.25461483001709
I5
tp2794
a(F34.255446910858154
I5
tp2795
a(F34.256379842758179
I5
tp2796
a(F34.257606983184814
I5
tp2797
a(F39.164389848709106
I5
tp2798
a(F39.165054798126221
I5
tp2799
a(F39.165657997131348
I5
tp2800
a(F39.166623830795288
I5
tp2801
a(F39.167578935623169
I5
tp2802
a(F39.168417930603027
I5
tp2803
a(F39.169294834136963
I5
tp2804
a(F39.17028284072876
I5
tp2805
a(F39.17076587677002
I5
tp2806
a(F39.171619892120361
I5
tp2807
a(F39.172441005706787
I5
tp2808
a(F39.172823905944824
I5
tp2809
a(F39.173396825790405
I5
tp2810
a(F39.174001932144165
I5
tp2811
a(F39.17485785484314
I5
tp2812
a(F39.175260782241821
I5
tp2813
a(F39.175820827484131
I5
tp2814
a(F39.176665782928467
I5
tp2815
a(F39.177466869354248
I5
tp2816
a(F39.178178787231445
I5
tp2817
a(F39.178998947143555
I5
tp2818
a(F39.179665803909302
I5
tp2819
a(F39.180683851242065
I5
tp2820
a(F39.181442975997925
I5
tp2821
a(F39.182415008544922
I5
tp2822
a(F39.183264970779419
I5
tp2823
a(F39.184057950973511
I5
tp2824
a(F39.184796810150146
I5
tp2825
a(F39.185279846191406
I5
tp2826
a(F39.18611478805542
I5
tp2827
a(F39.186917781829834
I5
tp2828
a(F39.187674999237061
I5
tp2829
a(F39.188439846038818
I5
tp2830
a(F39.189199924468994
I5
tp2831
a(F39.189998865127563
I5
tp2832
a(F39.190754890441895
I5
tp2833
a(F39.191518783569336
I5
tp2834
a(F39.192197799682617
I5
tp2835
a(F39.193141937255859
I5
tp2836
a(F39.193815946578979
I5
tp2837
a(F39.194562911987305
I5
tp2838
a(F39.19520092010498
I5
tp2839
a(F39.196016788482666
I5
tp2840
a(F39.196753978729248
I5
tp2841
a(F39.197852849960327
I5
tp2842
a(F39.198814868927002
I5
tp2843
a(F39.199756860733032
I5
tp2844
a(F39.200582981109619
I5
tp2845
a(F39.201867818832397
I5
tp2846
a(F39.202897787094116
I5
tp2847
a(F39.20370078086853
I5
tp2848
a(F39.204843997955322
I5
tp2849
a(F39.205623865127563
I5
tp2850
a(F39.20674991607666
I5
tp2851
a(F39.207618951797485
I5
tp2852
a(F39.208404779434204
I5
tp2853
aF40.039999999999054
tp2854
sg774
((lp2855
F40.280000000000655
tp2856
sg817
((lp2857
F40.069999999999709
tp2858
ssba(imeasure_core
ProblemSetSolution
p2859
(dp2860
g3
g1298
sg137
g1886
sg140
(dp2861
g1301
((lp2862
F40.770000000000437
tp2863
sg1358
((lp2864
F40.350000000000364
tp2865
sg1407
((lp2866
F42.589999999998327
tp2867
sg1468
((lp2868
F51.360000000000582
tp2869
ssba(imeasure_core
ProblemSetSolution
p2870
(dp2871
g3
g1526
sg137
g1886
sg140
(dp2872
g1765
((lp2873
F40.020000000000437
tp2874
sg1780
((lp2875
F40.059999999999491
tp2876
sg1529
((lp2877
F5.25
tp2878
sg1795
((lp2879
F0.0
tp2880
sg1555
((lp2881
F0.11000000000058208
tp2882
sg1570
((lp2883
F27.8799999999992
tp2884
sg1582
((lp2885
F0.63999999999941792
tp2886
sg1836
((lp2887
F0.28999999999905413
tp2888
sg1806
((lp2889
F0.010000000000218279
tp2890
sg1611
((lp2891
F1.9100000000016735
tp2892
sg1633
((lp2893
F7.2599999999983993
tp2894
sg1654
((lp2895
F1.6100000000005821
tp2896
sg1694
((lp2897
F1.6499999999996362
tp2898
sg1716
((lp2899
(F0.0024080276489257812
I2
tp2900
aF0.19000000000050932
tp2901
sg1727
((lp2902
F0.040000000000873115
tp2903
sg1754
((lp2904
F0.59999999999854481
tp2905
sg1821
((lp2906
F40.1200000000008
tp2907
ssba(imeasure_core
ProblemSetSolution
p2908
(dp2909
g3
g4
sg137
S'AnytimeBest-d250_with_PowerHeuristic2'
p2910
sg140
(dp2911
g8
((lp2912
(F0.22468304634094238
I8
tp2913
a(F0.22568202018737793
I8
tp2914
a(F0.22644996643066406
I8
tp2915
a(F0.22735691070556641
I8
tp2916
a(F0.22828292846679688
I8
tp2917
a(F0.22889804840087891
I8
tp2918
a(F0.2292640209197998
I8
tp2919
a(F0.2304079532623291
I8
tp2920
a(F0.23124003410339355
I8
tp2921
a(F0.23157191276550293
I8
tp2922
a(F0.23209309577941895
I8
tp2923
a(F0.23245906829833984
I8
tp2924
a(F0.23336195945739746
I8
tp2925
a(F0.2338869571685791
I8
tp2926
a(F0.23478007316589355
I8
tp2927
a(F0.2354590892791748
I8
tp2928
a(F0.23629212379455566
I8
tp2929
a(F0.23719906806945801
I8
tp2930
a(F0.23797202110290527
I8
tp2931
a(F0.23880410194396973
I8
tp2932
a(F0.23969602584838867
I8
tp2933
a(F0.24033999443054199
I8
tp2934
a(F0.24108004570007324
I8
tp2935
a(F0.24154210090637207
I8
tp2936
a(F0.24206209182739258
I8
tp2937
a(F0.24273896217346191
I8
tp2938
a(F0.24301004409790039
I8
tp2939
a(F0.24343705177307129
I8
tp2940
a(F0.24392604827880859
I8
tp2941
a(F0.24429106712341309
I8
tp2942
a(F0.2453761100769043
I8
tp2943
a(F0.24608802795410156
I8
tp2944
a(F0.24626493453979492
I8
tp2945
a(F0.24661111831665039
I8
tp2946
a(F0.24719405174255371
I8
tp2947
a(F0.24787211418151855
I8
tp2948
a(F0.24839305877685547
I8
tp2949
a(F0.24910306930541992
I8
tp2950
a(F0.24978399276733398
I8
tp2951
a(F0.25078797340393066
I8
tp2952
a(F7.3099489212036133
I8
tp2953
a(F7.3108999729156494
I8
tp2954
a(F7.3121280670166016
I8
tp2955
a(F7.312920093536377
I8
tp2956
a(F7.3138160705566406
I8
tp2957
a(F7.3145570755004883
I8
tp2958
a(F7.3155341148376465
I8
tp2959
a(F7.3165519237518311
I8
tp2960
a(F7.3169291019439697
I8
tp2961
a(F7.3175370693206787
I8
tp2962
a(F7.3184640407562256
I8
tp2963
a(F7.3192739486694336
I8
tp2964
a(F7.3205099105834961
I8
tp2965
a(F7.3211719989776611
I8
tp2966
a(F7.3221650123596191
I8
tp2967
a(F7.3232760429382324
I8
tp2968
a(F7.3240900039672852
I8
tp2969
a(F7.324800968170166
I8
tp2970
a(F7.3252089023590088
I8
tp2971
a(F7.3263020515441895
I8
tp2972
a(F7.3272960186004639
I8
tp2973
a(F7.3279180526733398
I8
tp2974
a(F7.3287830352783203
I8
tp2975
a(F7.3297140598297119
I8
tp2976
a(F7.3306279182434082
I8
tp2977
a(F7.3313491344451904
I8
tp2978
a(F7.3321099281311035
I8
tp2979
a(F7.3331480026245117
I8
tp2980
a(F7.3342039585113525
I8
tp2981
a(F7.3353531360626221
I8
tp2982
a(F7.3360040187835693
I8
tp2983
a(F7.3367300033569336
I8
tp2984
a(F7.3373370170593262
I8
tp2985
a(F7.338176965713501
I8
tp2986
a(F7.3387079238891602
I8
tp2987
a(F7.3398849964141846
I8
tp2988
a(F7.340723991394043
I8
tp2989
a(F7.3417620658874512
I8
tp2990
a(F7.3426680564880371
I8
tp2991
a(F7.3436820507049561
I8
tp2992
a(F12.259711980819702
I8
tp2993
a(F12.260786056518555
I8
tp2994
a(F12.261681079864502
I8
tp2995
a(F12.262543916702271
I8
tp2996
a(F12.263423919677734
I8
tp2997
a(F12.264642000198364
I8
tp2998
a(F12.265320062637329
I8
tp2999
a(F12.266235113143921
I8
tp3000
a(F12.267484903335571
I8
tp3001
a(F12.26861310005188
I8
tp3002
a(F12.269561052322388
I8
tp3003
a(F12.270190954208374
I8
tp3004
a(F12.270862102508545
I8
tp3005
a(F12.27193808555603
I8
tp3006
a(F12.272738933563232
I8
tp3007
a(F12.273697137832642
I8
tp3008
a(F12.274519920349121
I8
tp3009
a(F12.275474071502686
I8
tp3010
a(F12.276052951812744
I8
tp3011
a(F12.276948928833008
I8
tp3012
a(F12.277559995651245
I8
tp3013
a(F12.278151988983154
I8
tp3014
a(F12.278645038604736
I8
tp3015
a(F12.279380083084106
I8
tp3016
a(F12.279690027236938
I8
tp3017
a(F12.280375003814697
I8
tp3018
a(F12.281255006790161
I8
tp3019
a(F12.281929016113281
I8
tp3020
a(F12.282885074615479
I8
tp3021
a(F12.283873081207275
I8
tp3022
a(F12.284624099731445
I8
tp3023
a(F12.285699129104614
I8
tp3024
a(F12.286268949508667
I8
tp3025
a(F12.287152051925659
I8
tp3026
a(F12.28770899772644
I8
tp3027
a(F12.288820028305054
I8
tp3028
a(F12.289655923843384
I8
tp3029
a(F12.290656089782715
I8
tp3030
a(F12.291676044464111
I8
tp3031
a(F12.292726993560791
I8
tp3032
a(F16.940546989440918
I8
tp3033
a(F16.941499948501587
I8
tp3034
a(F16.942366123199463
I8
tp3035
a(F16.943542957305908
I8
tp3036
a(F16.944473028182983
I8
tp3037
a(F16.945260047912598
I8
tp3038
a(F16.946146965026855
I8
tp3039
a(F16.947055101394653
I8
tp3040
a(F16.9481201171875
I8
tp3041
a(F16.948890924453735
I8
tp3042
a(F16.95002293586731
I8
tp3043
a(F16.950998067855835
I8
tp3044
a(F16.951612949371338
I8
tp3045
a(F16.952718019485474
I8
tp3046
a(F16.953784942626953
I8
tp3047
a(F16.954805135726929
I8
tp3048
a(F16.955627918243408
I8
tp3049
a(F16.956614017486572
I8
tp3050
a(F16.957490921020508
I8
tp3051
a(F16.958223104476929
I8
tp3052
a(F16.959203004837036
I8
tp3053
a(F16.960289001464844
I8
tp3054
a(F16.961067914962769
I8
tp3055
a(F16.962094068527222
I8
tp3056
a(F16.963081121444702
I8
tp3057
a(F16.964147090911865
I8
tp3058
a(F16.964993000030518
I8
tp3059
a(F16.96583104133606
I8
tp3060
a(F16.967087030410767
I8
tp3061
a(F16.968291997909546
I8
tp3062
a(F16.969372987747192
I8
tp3063
a(F16.970354080200195
I8
tp3064
a(F16.971247911453247
I8
tp3065
a(F16.972242116928101
I8
tp3066
a(F16.973474979400635
I8
tp3067
a(F16.974376916885376
I8
tp3068
a(F16.975548982620239
I8
tp3069
a(F16.976452112197876
I8
tp3070
a(F16.977093935012817
I8
tp3071
a(F16.978004932403564
I8
tp3072
a(F16.978807926177979
I8
tp3073
a(F16.979331970214844
I8
tp3074
a(F16.980226039886475
I8
tp3075
a(F16.981081962585449
I8
tp3076
a(F16.981698989868164
I8
tp3077
a(F16.982409954071045
I8
tp3078
a(F16.983284950256348
I8
tp3079
a(F16.984179019927979
I8
tp3080
a(F16.984856128692627
I8
tp3081
a(F16.985660076141357
I8
tp3082
a(F26.265331029891968
I8
tp3083
a(F26.266228914260864
I8
tp3084
a(F26.266499042510986
I8
tp3085
a(F26.267493963241577
I8
tp3086
a(F26.268551111221313
I8
tp3087
a(F26.269069910049438
I8
tp3088
a(F26.270002126693726
I8
tp3089
a(F26.270523071289062
I8
tp3090
a(F26.271014928817749
I8
tp3091
a(F26.271749973297119
I8
tp3092
a(F26.272505044937134
I8
tp3093
a(F26.273190021514893
I8
tp3094
a(F26.273648977279663
I8
tp3095
a(F26.274614095687866
I8
tp3096
a(F26.275490999221802
I8
tp3097
a(F26.276675939559937
I8
tp3098
a(F26.277512073516846
I8
tp3099
a(F26.278234958648682
I8
tp3100
a(F26.279299974441528
I8
tp3101
a(F26.279985904693604
I8
tp3102
a(F26.281268119812012
I8
tp3103
a(F26.281786918640137
I8
tp3104
a(F26.282548904418945
I8
tp3105
a(F26.283078908920288
I8
tp3106
a(F26.283718109130859
I8
tp3107
a(F26.284652948379517
I8
tp3108
a(F26.284982919692993
I8
tp3109
a(F26.285594940185547
I8
tp3110
a(F26.286041975021362
I8
tp3111
a(F26.28693699836731
I8
tp3112
a(F26.287820100784302
I8
tp3113
a(F26.288787126541138
I8
tp3114
a(F26.289608955383301
I8
tp3115
a(F26.290079116821289
I8
tp3116
a(F26.290930032730103
I8
tp3117
a(F26.291492938995361
I8
tp3118
a(F26.292165040969849
I8
tp3119
a(F26.29323410987854
I8
tp3120
a(F26.293971061706543
I8
tp3121
a(F26.294843912124634
I8
tp3122
a(F33.06215500831604
I8
tp3123
a(F33.062736034393311
I8
tp3124
a(F33.063257932662964
I8
tp3125
a(F33.064288139343262
I8
tp3126
a(F33.065365076065063
I8
tp3127
a(F33.06653904914856
I8
tp3128
a(F33.067229032516479
I8
tp3129
a(F33.067812919616699
I8
tp3130
a(F33.068932056427002
I8
tp3131
a(F33.069747924804688
I8
tp3132
a(F33.070389032363892
I8
tp3133
a(F33.071288108825684
I8
tp3134
a(F33.071752071380615
I8
tp3135
a(F33.072952032089233
I8
tp3136
a(F33.074031114578247
I8
tp3137
a(F33.074774980545044
I8
tp3138
a(F33.075721025466919
I8
tp3139
a(F33.076645135879517
I8
tp3140
a(F33.077685117721558
I8
tp3141
a(F33.078403949737549
I8
tp3142
a(F33.079390048980713
I8
tp3143
a(F33.080037117004395
I8
tp3144
a(F33.080802917480469
I8
tp3145
a(F33.080918073654175
I8
tp3146
a(F33.081942081451416
I8
tp3147
a(F33.082721948623657
I8
tp3148
a(F33.083562135696411
I8
tp3149
a(F33.084429025650024
I8
tp3150
a(F33.085276126861572
I8
tp3151
a(F33.086329936981201
I8
tp3152
a(F33.086777925491333
I8
tp3153
a(F33.087301969528198
I8
tp3154
a(F33.087814092636108
I8
tp3155
a(F33.08882999420166
I8
tp3156
a(F33.089956998825073
I8
tp3157
a(F33.090712070465088
I8
tp3158
a(F33.09191107749939
I8
tp3159
a(F33.092551946640015
I8
tp3160
a(F33.093184947967529
I8
tp3161
a(F33.094308137893677
I8
tp3162
a(F37.27945613861084
I8
tp3163
a(F37.280137062072754
I8
tp3164
a(F37.281058073043823
I8
tp3165
a(F37.281484127044678
I8
tp3166
a(F37.282613039016724
I8
tp3167
a(F37.28328013420105
I8
tp3168
a(F37.283798933029175
I8
tp3169
a(F37.284553050994873
I8
tp3170
a(F37.285277128219604
I8
tp3171
a(F37.285938024520874
I8
tp3172
a(F37.286364078521729
I8
tp3173
a(F37.287145137786865
I8
tp3174
a(F37.287964105606079
I8
tp3175
a(F37.288918018341064
I8
tp3176
a(F37.289521932601929
I8
tp3177
a(F37.290426015853882
I8
tp3178
a(F37.291230916976929
I8
tp3179
a(F37.292011022567749
I8
tp3180
a(F37.29288911819458
I8
tp3181
a(F37.293848037719727
I8
tp3182
a(F37.294641017913818
I8
tp3183
a(F37.295167922973633
I8
tp3184
a(F37.29565691947937
I8
tp3185
a(F37.296179056167603
I8
tp3186
a(F37.296544075012207
I8
tp3187
a(F37.297255992889404
I8
tp3188
a(F37.298017978668213
I8
tp3189
a(F37.299209117889404
I8
tp3190
a(F37.300034046173096
I8
tp3191
a(F37.30061411857605
I8
tp3192
a(F37.301301956176758
I8
tp3193
a(F37.3022301197052
I8
tp3194
a(F37.302954912185669
I8
tp3195
a(F37.303728103637695
I8
tp3196
a(F37.304314136505127
I8
tp3197
a(F37.304843902587891
I8
tp3198
a(F37.305628061294556
I8
tp3199
a(F37.306410074234009
I8
tp3200
a(F37.307168006896973
I8
tp3201
a(F37.307894945144653
I8
tp3202
aF40.030000000000655
tp3203
sg48
((lp3204
F40.079999999999927
tp3205
sg78
((lp3206
F40.059999999999491
tp3207
sg105
((lp3208
(F1.1763319969177246
I6
tp3209
a(F1.1774539947509766
I6
tp3210
a(F1.1785099506378174
I6
tp3211
a(F1.1797118186950684
I6
tp3212
a(F1.1808509826660156
I6
tp3213
a(F1.1818468570709229
I6
tp3214
a(F1.1828420162200928
I6
tp3215
a(F1.1838488578796387
I6
tp3216
a(F1.1848678588867188
I6
tp3217
a(F1.1860098838806152
I6
tp3218
a(F1.18715500831604
I6
tp3219
a(F1.1882109642028809
I6
tp3220
a(F1.1891469955444336
I6
tp3221
a(F1.190140962600708
I6
tp3222
a(F1.1912798881530762
I6
tp3223
a(F1.1923589706420898
I6
tp3224
a(F1.1932439804077148
I6
tp3225
a(F1.1943919658660889
I6
tp3226
a(F1.1954119205474854
I6
tp3227
a(F1.1961419582366943
I6
tp3228
a(F1.197138786315918
I6
tp3229
a(F1.198077917098999
I6
tp3230
a(F1.1992189884185791
I6
tp3231
a(F1.2001528739929199
I6
tp3232
a(F1.2010037899017334
I6
tp3233
a(F1.2019388675689697
I6
tp3234
a(F1.2029387950897217
I6
tp3235
a(F1.2040359973907471
I6
tp3236
a(F1.2051827907562256
I6
tp3237
a(F1.20623779296875
I6
tp3238
a(F1.2074029445648193
I6
tp3239
a(F1.2081940174102783
I6
tp3240
a(F1.2093348503112793
I6
tp3241
a(F1.2103378772735596
I6
tp3242
a(F1.2112967967987061
I6
tp3243
a(F1.2124998569488525
I6
tp3244
a(F1.2134468555450439
I6
tp3245
a(F1.2142407894134521
I6
tp3246
a(F1.2150299549102783
I6
tp3247
a(F1.2158207893371582
I6
tp3248
a(F1.2168169021606445
I6
tp3249
a(F1.2178378105163574
I6
tp3250
a(F1.2191150188446045
I6
tp3251
a(F1.2199649810791016
I6
tp3252
a(F1.2209208011627197
I6
tp3253
a(F1.2218217849731445
I6
tp3254
a(F1.2228829860687256
I6
tp3255
a(F1.2237470149993896
I6
tp3256
a(F1.2246580123901367
I6
tp3257
a(F1.2257988452911377
I6
tp3258
a(F1.2267928123474121
I6
tp3259
a(F1.2278778553009033
I6
tp3260
a(F1.2285869121551514
I6
tp3261
a(F1.2293789386749268
I6
tp3262
a(F1.2300248146057129
I6
tp3263
a(F1.231043815612793
I6
tp3264
a(F1.2321858406066895
I6
tp3265
a(F1.233339786529541
I6
tp3266
a(F1.2336499691009521
I6
tp3267
a(F1.2346668243408203
I6
tp3268
a(F1.2358658313751221
I6
tp3269
a(F1.2368869781494141
I6
tp3270
a(F1.2378349304199219
I6
tp3271
a(F1.2387208938598633
I6
tp3272
a(F1.2394499778747559
I6
tp3273
a(F1.2403838634490967
I6
tp3274
a(F1.2413787841796875
I6
tp3275
a(F1.2422308921813965
I6
tp3276
a(F1.2434608936309814
I6
tp3277
a(F1.2444839477539062
I6
tp3278
a(F1.2453618049621582
I6
tp3279
a(F1.2462759017944336
I6
tp3280
a(F1.2472949028015137
I6
tp3281
a(F1.248291015625
I6
tp3282
a(F1.2490899562835693
I6
tp3283
a(F1.25010085105896
I6
tp3284
a(F1.2508919239044189
I6
tp3285
a(F1.2520918846130371
I6
tp3286
a(F1.252964973449707
I6
tp3287
a(F1.2539708614349365
I6
tp3288
a(F1.2549688816070557
I6
tp3289
a(F1.2558419704437256
I6
tp3290
a(F1.2567768096923828
I6
tp3291
a(F1.2575910091400146
I6
tp3292
a(F1.2586729526519775
I6
tp3293
a(F1.2596108913421631
I6
tp3294
a(F1.260631799697876
I6
tp3295
a(F1.2615659236907959
I6
tp3296
a(F1.262415885925293
I6
tp3297
a(F1.2631239891052246
I6
tp3298
a(F1.2638669013977051
I6
tp3299
a(F1.2648029327392578
I6
tp3300
a(F1.2657649517059326
I6
tp3301
a(F1.266495943069458
I6
tp3302
a(F1.2674679756164551
I6
tp3303
a(F1.2682809829711914
I6
tp3304
a(F1.2693610191345215
I6
tp3305
a(F1.2701599597930908
I6
tp3306
a(F1.2710938453674316
I6
tp3307
a(F1.2720317840576172
I6
tp3308
a(F1.2723398208618164
I6
tp3309
a(F1.2735788822174072
I6
tp3310
a(F1.2742278575897217
I6
tp3311
a(F1.2755129337310791
I6
tp3312
a(F1.276364803314209
I6
tp3313
a(F1.2772159576416016
I6
tp3314
a(F1.2782378196716309
I6
tp3315
a(F1.2788009643554688
I6
tp3316
a(F1.27988600730896
I6
tp3317
a(F1.2809708118438721
I6
tp3318
a(F1.2819697856903076
I6
tp3319
a(F1.2829678058624268
I6
tp3320
a(F1.2832880020141602
I6
tp3321
a(F1.2840847969055176
I6
tp3322
a(F1.2851128578186035
I6
tp3323
a(F1.2859649658203125
I6
tp3324
a(F1.2873389720916748
I6
tp3325
a(F1.2883369922637939
I6
tp3326
a(F1.288646936416626
I6
tp3327
a(F1.2895848751068115
I6
tp3328
a(F1.2902917861938477
I6
tp3329
a(F1.2909388542175293
I6
tp3330
a(F1.2919399738311768
I6
tp3331
a(F1.292733907699585
I6
tp3332
a(F1.2936878204345703
I6
tp3333
a(F1.2945418357849121
I6
tp3334
a(F1.2954587936401367
I6
tp3335
a(F1.2964599132537842
I6
tp3336
a(F1.2971928119659424
I6
tp3337
a(F1.2980718612670898
I6
tp3338
a(F1.298947811126709
I6
tp3339
a(F1.2996759414672852
I6
tp3340
a(F1.3006699085235596
I6
tp3341
a(F1.301555871963501
I6
tp3342
a(F1.3027739524841309
I6
tp3343
a(F1.3039469718933105
I6
tp3344
a(F1.3050320148468018
I6
tp3345
a(F1.3059699535369873
I6
tp3346
a(F1.3068239688873291
I6
tp3347
a(F1.3076159954071045
I6
tp3348
a(F1.30843186378479
I6
tp3349
a(F1.3086810111999512
I6
tp3350
a(F1.3095300197601318
I6
tp3351
a(F1.3103559017181396
I6
tp3352
a(F1.3109798431396484
I6
tp3353
a(F1.3115677833557129
I6
tp3354
a(F1.3125438690185547
I6
tp3355
a(F1.3134729862213135
I6
tp3356
a(F1.3143289089202881
I6
tp3357
a(F1.3151819705963135
I6
tp3358
a(F1.3161578178405762
I6
tp3359
a(F1.3171329498291016
I6
tp3360
a(F1.3182799816131592
I6
tp3361
a(F1.3189888000488281
I6
tp3362
a(F1.3198378086090088
I6
tp3363
a(F1.3206069469451904
I6
tp3364
a(F1.3213989734649658
I6
tp3365
a(F1.322044849395752
I6
tp3366
a(F1.3227519989013672
I6
tp3367
a(F1.3238217830657959
I6
tp3368
a(F1.3247339725494385
I6
tp3369
a(F1.3255019187927246
I6
tp3370
a(F1.3261468410491943
I6
tp3371
a(F1.3269369602203369
I6
tp3372
a(F1.3276448249816895
I6
tp3373
a(F1.328495979309082
I6
tp3374
a(F1.3294928073883057
I6
tp3375
a(F1.3304460048675537
I6
tp3376
a(F1.3312737941741943
I6
tp3377
a(F1.3320658206939697
I6
tp3378
a(F1.3330647945404053
I6
tp3379
a(F1.3338689804077148
I6
tp3380
a(F1.3344898223876953
I6
tp3381
a(F1.3352828025817871
I6
tp3382
a(F1.3358449935913086
I6
tp3383
a(F1.3366990089416504
I6
tp3384
a(F1.3375740051269531
I6
tp3385
a(F1.3385739326477051
I6
tp3386
a(F1.3395090103149414
I6
tp3387
a(F1.340569019317627
I6
tp3388
a(F1.3416018486022949
I6
tp3389
a(F1.3424549102783203
I6
tp3390
a(F1.3433198928833008
I6
tp3391
a(F1.3444650173187256
I6
tp3392
a(F1.3453729152679443
I6
tp3393
a(F1.3462469577789307
I6
tp3394
a(F1.3470377922058105
I6
tp3395
a(F1.3477439880371094
I6
tp3396
a(F1.3486177921295166
I6
tp3397
a(F1.349517822265625
I6
tp3398
a(F1.3503079414367676
I6
tp3399
a(F1.3509550094604492
I6
tp3400
a(F1.3519527912139893
I6
tp3401
a(F1.352888822555542
I6
tp3402
a(F1.3534879684448242
I6
tp3403
a(F1.3544008731842041
I6
tp3404
a(F1.3558239936828613
I6
tp3405
a(F1.3565328121185303
I6
tp3406
a(F1.3573830127716064
I6
tp3407
a(F1.3582148551940918
I6
tp3408
a(F1.3592739105224609
I6
tp3409
a(F1.3599820137023926
I6
tp3410
a(F1.3607499599456787
I6
tp3411
a(F1.3617258071899414
I6
tp3412
a(F1.3625187873840332
I6
tp3413
a(F1.3634669780731201
I6
tp3414
a(F1.3644068241119385
I6
tp3415
a(F1.3653228282928467
I6
tp3416
a(F1.3661599159240723
I6
tp3417
a(F1.3671588897705078
I6
tp3418
a(F1.3678429126739502
I6
tp3419
a(F1.3687608242034912
I6
tp3420
a(F1.3692638874053955
I6
tp3421
a(F1.3700699806213379
I6
tp3422
a(F1.3709869384765625
I6
tp3423
a(F1.3718400001525879
I6
tp3424
a(F1.3725128173828125
I6
tp3425
a(F1.3732240200042725
I6
tp3426
a(F1.3740890026092529
I6
tp3427
a(F1.3748838901519775
I6
tp3428
a(F1.3756539821624756
I6
tp3429
a(F1.3762798309326172
I6
tp3430
a(F1.3771929740905762
I6
tp3431
a(F1.3779618740081787
I6
tp3432
a(F1.3790829181671143
I6
tp3433
a(F1.3800017833709717
I6
tp3434
a(F1.3809168338775635
I6
tp3435
a(F1.3817529678344727
I6
tp3436
a(F1.3822329044342041
I6
tp3437
a(F1.3826498985290527
I6
tp3438
a(F1.3832459449768066
I6
tp3439
a(F1.3840208053588867
I6
tp3440
a(F1.3848819732666016
I6
tp3441
a(F1.3854448795318604
I6
tp3442
a(F1.3862168788909912
I6
tp3443
a(F1.3869509696960449
I6
tp3444
a(F1.3882160186767578
I6
tp3445
a(F1.3892309665679932
I6
tp3446
a(F1.3903768062591553
I6
tp3447
a(F1.3914070129394531
I6
tp3448
aF40.220000000001164
tp3449
ssba(imeasure_core
ProblemSetSolution
p3450
(dp3451
g3
g682
sg137
g2910
sg140
(dp3452
g685
((lp3453
F40.089999999998327
tp3454
sg729
((lp3455
(F0.17470407485961914
I5
tp3456
a(F0.17546510696411133
I5
tp3457
a(F0.17626595497131348
I5
tp3458
a(F0.17722916603088379
I5
tp3459
a(F0.17803406715393066
I5
tp3460
a(F0.17877912521362305
I5
tp3461
a(F0.17946100234985352
I5
tp3462
a(F0.18020510673522949
I5
tp3463
a(F0.18074512481689453
I5
tp3464
a(F0.18106412887573242
I5
tp3465
a(F0.18204212188720703
I5
tp3466
a(F0.1824791431427002
I5
tp3467
a(F0.18328213691711426
I5
tp3468
a(F0.18411898612976074
I5
tp3469
a(F0.18465900421142578
I5
tp3470
a(F0.18505597114562988
I5
tp3471
a(F0.18579816818237305
I5
tp3472
a(F0.18647909164428711
I5
tp3473
a(F0.18701815605163574
I5
tp3474
a(F0.18762111663818359
I5
tp3475
a(F0.18816208839416504
I5
tp3476
a(F0.18842005729675293
I5
tp3477
a(F0.18922114372253418
I5
tp3478
a(F0.18946003913879395
I5
tp3479
a(F0.18977808952331543
I5
tp3480
a(F0.19075798988342285
I5
tp3481
a(F0.1912989616394043
I5
tp3482
a(F0.19218206405639648
I5
tp3483
a(F0.19258213043212891
I5
tp3484
a(F0.19324517250061035
I5
tp3485
a(F0.19377899169921875
I5
tp3486
a(F0.19452309608459473
I5
tp3487
a(F0.19506216049194336
I5
tp3488
a(F0.19524002075195312
I5
tp3489
a(F0.19606614112854004
I5
tp3490
a(F0.19674801826477051
I5
tp3491
a(F0.1975560188293457
I5
tp3492
a(F0.19846415519714355
I5
tp3493
a(F0.19921112060546875
I5
tp3494
a(F0.19973397254943848
I5
tp3495
a(F0.20047712326049805
I5
tp3496
a(F0.2009429931640625
I5
tp3497
a(F0.20155215263366699
I5
tp3498
a(F0.20209097862243652
I5
tp3499
a(F0.20283102989196777
I5
tp3500
a(F0.20359611511230469
I5
tp3501
a(F0.20434999465942383
I5
tp3502
a(F0.2050940990447998
I5
tp3503
a(F0.20591616630554199
I5
tp3504
a(F0.20653796195983887
I5
tp3505
a(F0.20742106437683105
I5
tp3506
a(F0.20818114280700684
I5
tp3507
a(F0.2088010311126709
I5
tp3508
a(F0.20932102203369141
I5
tp3509
a(F0.21003103256225586
I5
tp3510
a(F0.21090602874755859
I5
tp3511
a(F0.21156716346740723
I5
tp3512
a(F0.21210718154907227
I5
tp3513
a(F0.2127690315246582
I5
tp3514
a(F0.21362018585205078
I5
tp3515
a(F0.21438097953796387
I5
tp3516
a(F0.2152099609375
I5
tp3517
a(F0.21546697616577148
I5
tp3518
a(F0.21606898307800293
I5
tp3519
a(F0.21667313575744629
I5
tp3520
a(F0.21698999404907227
I5
tp3521
a(F0.21759295463562012
I5
tp3522
a(F0.21833395957946777
I5
tp3523
a(F0.21901702880859375
I5
tp3524
a(F0.22018718719482422
I5
tp3525
a(F10.826997041702271
I5
tp3526
a(F10.827728986740112
I5
tp3527
a(F10.828828096389771
I5
tp3528
a(F10.829715967178345
I5
tp3529
a(F10.830954074859619
I5
tp3530
a(F10.831815004348755
I5
tp3531
a(F10.83269214630127
I5
tp3532
a(F10.833640098571777
I5
tp3533
a(F10.834316968917847
I5
tp3534
a(F10.834414005279541
I5
tp3535
a(F10.835256099700928
I5
tp3536
a(F10.836383104324341
I5
tp3537
a(F10.837357044219971
I5
tp3538
a(F10.83817195892334
I5
tp3539
a(F10.839179039001465
I5
tp3540
a(F10.840065002441406
I5
tp3541
a(F10.840871095657349
I5
tp3542
a(F10.84155011177063
I5
tp3543
a(F10.842368125915527
I5
tp3544
a(F10.843248128890991
I5
tp3545
a(F10.844480037689209
I5
tp3546
a(F10.844841957092285
I5
tp3547
a(F10.845441102981567
I5
tp3548
a(F10.846512079238892
I5
tp3549
a(F10.847162008285522
I5
tp3550
a(F10.84761905670166
I5
tp3551
a(F10.848446130752563
I5
tp3552
a(F10.849462032318115
I5
tp3553
a(F10.850330114364624
I5
tp3554
a(F10.851113080978394
I5
tp3555
a(F10.852122068405151
I5
tp3556
a(F10.852756023406982
I5
tp3557
a(F10.853373050689697
I5
tp3558
a(F10.854220151901245
I5
tp3559
a(F10.854839086532593
I5
tp3560
a(F10.855911016464233
I5
tp3561
a(F10.856575012207031
I5
tp3562
a(F10.857412099838257
I5
tp3563
a(F10.858352184295654
I5
tp3564
a(F10.859392166137695
I5
tp3565
a(F10.860195159912109
I5
tp3566
a(F10.861138105392456
I5
tp3567
a(F10.862058162689209
I5
tp3568
a(F10.862795114517212
I5
tp3569
a(F10.863584041595459
I5
tp3570
a(F10.864425182342529
I5
tp3571
a(F10.865259170532227
I5
tp3572
a(F10.866295099258423
I5
tp3573
a(F10.867254972457886
I5
tp3574
a(F10.868007183074951
I5
tp3575
a(F10.868949174880981
I5
tp3576
a(F10.869712114334106
I5
tp3577
a(F10.870836019515991
I5
tp3578
a(F10.8716881275177
I5
tp3579
a(F10.872588157653809
I5
tp3580
a(F10.873469114303589
I5
tp3581
a(F10.874189138412476
I5
tp3582
a(F10.875003099441528
I5
tp3583
a(F10.87602710723877
I5
tp3584
a(F10.877178192138672
I5
tp3585
a(F10.878189086914062
I5
tp3586
a(F10.878718137741089
I5
tp3587
a(F10.879508972167969
I5
tp3588
a(F10.880273103713989
I5
tp3589
a(F10.881246089935303
I5
tp3590
a(F10.88214111328125
I5
tp3591
a(F10.883222103118896
I5
tp3592
a(F10.884258031845093
I5
tp3593
a(F10.885189056396484
I5
tp3594
a(F10.886438131332397
I5
tp3595
a(F18.487342119216919
I5
tp3596
a(F18.488574981689453
I5
tp3597
a(F18.489701986312866
I5
tp3598
a(F18.489999055862427
I5
tp3599
a(F18.490807056427002
I5
tp3600
a(F18.491714000701904
I5
tp3601
a(F18.492768049240112
I5
tp3602
a(F18.493590116500854
I5
tp3603
a(F18.494491100311279
I5
tp3604
a(F18.495035171508789
I5
tp3605
a(F18.495994091033936
I5
tp3606
a(F18.496963977813721
I5
tp3607
a(F18.497696161270142
I5
tp3608
a(F18.498522043228149
I5
tp3609
a(F18.499340057373047
I5
tp3610
a(F18.500271081924438
I5
tp3611
a(F18.500871181488037
I5
tp3612
a(F18.501679182052612
I5
tp3613
a(F18.502606153488159
I5
tp3614
a(F18.503576040267944
I5
tp3615
a(F18.504417181015015
I5
tp3616
a(F18.504654169082642
I5
tp3617
a(F18.505607128143311
I5
tp3618
a(F18.506132125854492
I5
tp3619
a(F18.506829977035522
I5
tp3620
a(F18.50780200958252
I5
tp3621
a(F18.508563995361328
I5
tp3622
a(F18.509122133255005
I5
tp3623
a(F18.510069131851196
I5
tp3624
a(F18.51115608215332
I5
tp3625
a(F18.512027025222778
I5
tp3626
a(F18.513036966323853
I5
tp3627
a(F18.514011144638062
I5
tp3628
a(F18.514883995056152
I5
tp3629
a(F18.51582407951355
I5
tp3630
a(F18.51668906211853
I5
tp3631
a(F18.517806053161621
I5
tp3632
a(F18.518671035766602
I5
tp3633
a(F18.519418001174927
I5
tp3634
a(F18.520058155059814
I5
tp3635
a(F18.520861148834229
I5
tp3636
a(F18.52165412902832
I5
tp3637
a(F18.522662162780762
I5
tp3638
a(F18.523571014404297
I5
tp3639
a(F18.524296998977661
I5
tp3640
a(F18.5245361328125
I5
tp3641
a(F18.525578022003174
I5
tp3642
a(F18.526223182678223
I5
tp3643
a(F18.527036190032959
I5
tp3644
a(F18.527428150177002
I5
tp3645
a(F18.52834415435791
I5
tp3646
a(F18.529333114624023
I5
tp3647
a(F18.530121088027954
I5
tp3648
a(F18.531211137771606
I5
tp3649
a(F18.532162189483643
I5
tp3650
a(F18.533109188079834
I5
tp3651
a(F18.534037113189697
I5
tp3652
a(F18.534783124923706
I5
tp3653
a(F18.535595178604126
I5
tp3654
a(F18.536508083343506
I5
tp3655
a(F18.537299156188965
I5
tp3656
a(F18.538266181945801
I5
tp3657
a(F18.53903603553772
I5
tp3658
a(F18.539843082427979
I5
tp3659
a(F18.54074501991272
I5
tp3660
a(F18.541717052459717
I5
tp3661
a(F18.54243016242981
I5
tp3662
a(F18.543370962142944
I5
tp3663
a(F18.543990135192871
I5
tp3664
a(F18.544788122177124
I5
tp3665
a(F18.545546054840088
I5
tp3666
a(F18.546482086181641
I5
tp3667
a(F18.547235012054443
I5
tp3668
a(F18.548145055770874
I5
tp3669
a(F18.549245119094849
I5
tp3670
a(F18.550564050674438
I5
tp3671
a(F18.551177978515625
I5
tp3672
a(F18.552263975143433
I5
tp3673
a(F18.553287982940674
I5
tp3674
a(F18.554649114608765
I5
tp3675
a(F28.747112035751343
I5
tp3676
a(F28.748270988464355
I5
tp3677
a(F28.748730182647705
I5
tp3678
a(F28.749711036682129
I5
tp3679
a(F28.750956058502197
I5
tp3680
a(F28.751911163330078
I5
tp3681
a(F28.753121137619019
I5
tp3682
a(F28.753894090652466
I5
tp3683
a(F28.754496097564697
I5
tp3684
a(F28.755017995834351
I5
tp3685
a(F28.755990982055664
I5
tp3686
a(F28.756610155105591
I5
tp3687
a(F28.757208108901978
I5
tp3688
a(F28.75838303565979
I5
tp3689
a(F28.759356021881104
I5
tp3690
a(F28.759811162948608
I5
tp3691
a(F28.760270118713379
I5
tp3692
a(F28.761075973510742
I5
tp3693
a(F28.762287139892578
I5
tp3694
a(F28.763256072998047
I5
tp3695
a(F28.763988971710205
I5
tp3696
a(F28.764894008636475
I5
tp3697
a(F28.765763998031616
I5
tp3698
a(F28.766581058502197
I5
tp3699
a(F28.767709970474243
I5
tp3700
a(F28.768800020217896
I5
tp3701
a(F28.769744157791138
I5
tp3702
a(F28.770716190338135
I5
tp3703
a(F28.771406173706055
I5
tp3704
a(F28.771644115447998
I5
tp3705
a(F28.772567987442017
I5
tp3706
a(F28.773400068283081
I5
tp3707
a(F28.774227142333984
I5
tp3708
a(F28.775103092193604
I5
tp3709
a(F28.775583028793335
I5
tp3710
a(F28.776287078857422
I5
tp3711
a(F28.776954174041748
I5
tp3712
a(F28.777502059936523
I5
tp3713
a(F28.777930974960327
I5
tp3714
a(F28.778598070144653
I5
tp3715
a(F28.779308080673218
I5
tp3716
a(F28.780061960220337
I5
tp3717
a(F28.781131029129028
I5
tp3718
a(F28.781735181808472
I5
tp3719
a(F28.782508134841919
I5
tp3720
a(F28.783545017242432
I5
tp3721
a(F28.784563064575195
I5
tp3722
a(F28.784968137741089
I5
tp3723
a(F28.786065101623535
I5
tp3724
a(F28.786933183670044
I5
tp3725
a(F28.787539958953857
I5
tp3726
a(F28.788166999816895
I5
tp3727
a(F28.789257049560547
I5
tp3728
a(F28.790134191513062
I5
tp3729
a(F28.791035175323486
I5
tp3730
a(F28.791851043701172
I5
tp3731
a(F28.792971134185791
I5
tp3732
a(F28.793377161026001
I5
tp3733
a(F28.79422402381897
I5
tp3734
a(F28.794890165328979
I5
tp3735
a(F28.795741081237793
I5
tp3736
a(F28.796574115753174
I5
tp3737
a(F28.797222137451172
I5
tp3738
a(F28.798030138015747
I5
tp3739
a(F28.798489093780518
I5
tp3740
a(F28.799442052841187
I5
tp3741
a(F28.80019211769104
I5
tp3742
a(F28.800922155380249
I5
tp3743
a(F28.802016973495483
I5
tp3744
a(F28.802962064743042
I5
tp3745
a(F28.804067134857178
I5
tp3746
a(F28.804757118225098
I5
tp3747
a(F28.805704116821289
I5
tp3748
a(F28.806641101837158
I5
tp3749
a(F28.80755615234375
I5
tp3750
a(F28.808225154876709
I5
tp3751
a(F28.8091139793396
I5
tp3752
a(F28.810158014297485
I5
tp3753
a(F28.811186075210571
I5
tp3754
a(F28.811805963516235
I5
tp3755
a(F28.812963962554932
I5
tp3756
a(F28.813785076141357
I5
tp3757
a(F28.814618110656738
I5
tp3758
a(F28.815673112869263
I5
tp3759
a(F28.81620717048645
I5
tp3760
a(F28.817366123199463
I5
tp3761
a(F28.818499088287354
I5
tp3762
a(F28.820197105407715
I5
tp3763
a(F28.821590185165405
I5
tp3764
a(F28.82318115234375
I5
tp3765
a(F34.167284965515137
I5
tp3766
a(F34.168431997299194
I5
tp3767
a(F34.16917610168457
I5
tp3768
a(F34.170045137405396
I5
tp3769
a(F34.170999050140381
I5
tp3770
a(F34.171802997589111
I5
tp3771
a(F34.17287802696228
I5
tp3772
a(F34.173480033874512
I5
tp3773
a(F34.174312114715576
I5
tp3774
a(F34.175263166427612
I5
tp3775
a(F34.17613410949707
I5
tp3776
a(F34.177083015441895
I5
tp3777
a(F34.177419185638428
I5
tp3778
a(F34.178543090820312
I5
tp3779
a(F34.179033994674683
I5
tp3780
a(F34.179519176483154
I5
tp3781
a(F34.180279016494751
I5
tp3782
a(F34.180778026580811
I5
tp3783
a(F34.181764125823975
I5
tp3784
a(F34.182729959487915
I5
tp3785
a(F34.183403968811035
I5
tp3786
a(F34.184168100357056
I5
tp3787
a(F34.18508505821228
I5
tp3788
a(F34.185846090316772
I5
tp3789
a(F34.18659496307373
I5
tp3790
a(F34.187000036239624
I5
tp3791
a(F34.187716007232666
I5
tp3792
a(F34.188446998596191
I5
tp3793
a(F34.188997983932495
I5
tp3794
a(F34.189800977706909
I5
tp3795
a(F34.190402984619141
I5
tp3796
a(F34.191078186035156
I5
tp3797
a(F34.191900014877319
I5
tp3798
a(F34.192692995071411
I5
tp3799
a(F34.193485021591187
I5
tp3800
a(F34.194421052932739
I5
tp3801
a(F34.195288181304932
I5
tp3802
a(F34.196197032928467
I5
tp3803
a(F34.197116136550903
I5
tp3804
a(F34.197872161865234
I5
tp3805
a(F34.198400974273682
I5
tp3806
a(F34.199254989624023
I5
tp3807
a(F34.200132131576538
I5
tp3808
a(F34.201095104217529
I5
tp3809
a(F34.201771020889282
I5
tp3810
a(F34.202713012695312
I5
tp3811
a(F34.203529119491577
I5
tp3812
a(F34.204339027404785
I5
tp3813
a(F34.204996109008789
I5
tp3814
a(F34.205459117889404
I5
tp3815
a(F34.20645809173584
I5
tp3816
a(F34.207195997238159
I5
tp3817
a(F34.207941055297852
I5
tp3818
a(F34.208779096603394
I5
tp3819
a(F34.209712982177734
I5
tp3820
a(F34.210936069488525
I5
tp3821
a(F39.174538135528564
I5
tp3822
a(F39.175202131271362
I5
tp3823
a(F39.175809144973755
I5
tp3824
a(F39.176774024963379
I5
tp3825
a(F39.17772912979126
I5
tp3826
a(F39.178555011749268
I5
tp3827
a(F39.179428100585938
I5
tp3828
a(F39.180415153503418
I5
tp3829
a(F39.180896997451782
I5
tp3830
a(F39.181746006011963
I5
tp3831
a(F39.182562112808228
I5
tp3832
a(F39.182945013046265
I5
tp3833
a(F39.183515071868896
I5
tp3834
a(F39.184134960174561
I5
tp3835
a(F39.184990167617798
I5
tp3836
a(F39.185389995574951
I5
tp3837
a(F39.185940980911255
I5
tp3838
a(F39.186784029006958
I5
tp3839
a(F39.187579154968262
I5
tp3840
a(F39.188271999359131
I5
tp3841
a(F39.189085960388184
I5
tp3842
a(F39.189752101898193
I5
tp3843
a(F39.190764188766479
I5
tp3844
a(F39.191519975662231
I5
tp3845
a(F39.192481994628906
I5
tp3846
a(F39.193329095840454
I5
tp3847
a(F39.194136142730713
I5
tp3848
a(F39.194872140884399
I5
tp3849
a(F39.195353031158447
I5
tp3850
a(F39.196186065673828
I5
tp3851
a(F39.196988105773926
I5
tp3852
a(F39.197741031646729
I5
tp3853
a(F39.198477029800415
I5
tp3854
a(F39.199242115020752
I5
tp3855
a(F39.200049161911011
I5
tp3856
a(F39.20080304145813
I5
tp3857
a(F39.201560974121094
I5
tp3858
a(F39.202250003814697
I5
tp3859
a(F39.203195095062256
I5
tp3860
a(F39.20387601852417
I5
tp3861
a(F39.204621076583862
I5
tp3862
a(F39.205260038375854
I5
tp3863
a(F39.206082105636597
I5
tp3864
a(F39.206823110580444
I5
tp3865
a(F39.207904100418091
I5
tp3866
a(F39.208858966827393
I5
tp3867
a(F39.209796190261841
I5
tp3868
a(F39.210622072219849
I5
tp3869
a(F39.211902141571045
I5
tp3870
a(F39.212927103042603
I5
tp3871
a(F39.213739156723022
I5
tp3872
a(F39.214876174926758
I5
tp3873
a(F39.215651988983154
I5
tp3874
a(F39.216777086257935
I5
tp3875
a(F39.217642068862915
I5
tp3876
a(F39.218415021896362
I5
tp3877
aF40.040000000000873
tp3878
sg774
((lp3879
F40.270000000000437
tp3880
sg817
((lp3881
F40.069999999999709
tp3882
ssba(imeasure_core
ProblemSetSolution
p3883
(dp3884
g3
g1298
sg137
g2910
sg140
(dp3885
g1301
((lp3886
F40.5
tp3887
sg1358
((lp3888
F40.459999999999127
tp3889
sg1407
((lp3890
F42.270000000000437
tp3891
sg1468
((lp3892
F50.829999999999927
tp3893
ssba(imeasure_core
ProblemSetSolution
p3894
(dp3895
g3
g1526
sg137
g2910
sg140
(dp3896
g1765
((lp3897
F40.020000000000437
tp3898
sg1780
((lp3899
F40.069999999999709
tp3900
sg1529
((lp3901
F5.2399999999997817
tp3902
sg1795
((lp3903
F0.0
tp3904
sg1555
((lp3905
F0.11000000000058208
tp3906
sg1570
((lp3907
F27.840000000000146
tp3908
sg1582
((lp3909
F0.63999999999941792
tp3910
sg1836
((lp3911
F0.29000000000087311
tp3912
sg1806
((lp3913
F0.0
tp3914
sg1611
((lp3915
F1.9200000000000728
tp3916
sg1633
((lp3917
F7.25
tp3918
sg1654
((lp3919
F1.6000000000003638
tp3920
sg1694
((lp3921
F1.6599999999998545
tp3922
sg1716
((lp3923
(F0.0023801326751708984
I2
tp3924
aF0.19000000000050932
tp3925
sg1727
((lp3926
F0.039999999999054126
tp3927
sg1754
((lp3928
F0.59000000000014552
tp3929
sg1821
((lp3930
F40.1299999999992
tp3931
ssba(imeasure_core
ProblemSetSolution
p3932
(dp3933
g3
g4
sg137
S'AnytimeBest-d400_with_PowerHeuristic2'
p3934
sg140
(dp3935
g8
((lp3936
(F0.2275090217590332
I8
tp3937
a(F0.22849488258361816
I8
tp3938
a(F0.22926902770996094
I8
tp3939
a(F0.2301628589630127
I8
tp3940
a(F0.23109102249145508
I8
tp3941
a(F0.23171186447143555
I8
tp3942
a(F0.23207902908325195
I8
tp3943
a(F0.23322892189025879
I8
tp3944
a(F0.23406386375427246
I8
tp3945
a(F0.23439598083496094
I8
tp3946
a(F0.23491883277893066
I8
tp3947
a(F0.23528385162353516
I8
tp3948
a(F0.23618102073669434
I8
tp3949
a(F0.23671889305114746
I8
tp3950
a(F0.23761892318725586
I8
tp3951
a(F0.23830294609069824
I8
tp3952
a(F0.23914289474487305
I8
tp3953
a(F0.24004197120666504
I8
tp3954
a(F0.24081587791442871
I8
tp3955
a(F0.24164795875549316
I8
tp3956
a(F0.24254298210144043
I8
tp3957
a(F0.24318695068359375
I8
tp3958
a(F0.2439420223236084
I8
tp3959
a(F0.24440383911132812
I8
tp3960
a(F0.24492383003234863
I8
tp3961
a(F0.24560093879699707
I8
tp3962
a(F0.24587488174438477
I8
tp3963
a(F0.24630188941955566
I8
tp3964
a(F0.24681901931762695
I8
tp3965
a(F0.24718785285949707
I8
tp3966
a(F0.24827289581298828
I8
tp3967
a(F0.24898386001586914
I8
tp3968
a(F0.2491610050201416
I8
tp3969
a(F0.24949383735656738
I8
tp3970
a(F0.2500770092010498
I8
tp3971
a(F0.25075602531433105
I8
tp3972
a(F0.2512810230255127
I8
tp3973
a(F0.25199389457702637
I8
tp3974
a(F0.25267386436462402
I8
tp3975
a(F0.25368189811706543
I8
tp3976
a(F7.3475069999694824
I8
tp3977
a(F7.3484518527984619
I8
tp3978
a(F7.3496758937835693
I8
tp3979
a(F7.3504669666290283
I8
tp3980
a(F7.351356029510498
I8
tp3981
a(F7.3520958423614502
I8
tp3982
a(F7.3530628681182861
I8
tp3983
a(F7.3540759086608887
I8
tp3984
a(F7.3544399738311768
I8
tp3985
a(F7.3550429344177246
I8
tp3986
a(F7.3559658527374268
I8
tp3987
a(F7.3567969799041748
I8
tp3988
a(F7.358029842376709
I8
tp3989
a(F7.3586928844451904
I8
tp3990
a(F7.359684944152832
I8
tp3991
a(F7.3607919216156006
I8
tp3992
a(F7.3616039752960205
I8
tp3993
a(F7.362311840057373
I8
tp3994
a(F7.3627200126647949
I8
tp3995
a(F7.3638119697570801
I8
tp3996
a(F7.3647840023040771
I8
tp3997
a(F7.3654019832611084
I8
tp3998
a(F7.3662619590759277
I8
tp3999
a(F7.3671979904174805
I8
tp4000
a(F7.3681049346923828
I8
tp4001
a(F7.3688209056854248
I8
tp4002
a(F7.3695809841156006
I8
tp4003
a(F7.3706140518188477
I8
tp4004
a(F7.3716678619384766
I8
tp4005
a(F7.3728108406066895
I8
tp4006
a(F7.373460054397583
I8
tp4007
a(F7.374168872833252
I8
tp4008
a(F7.3747730255126953
I8
tp4009
a(F7.375607967376709
I8
tp4010
a(F7.3761379718780518
I8
tp4011
a(F7.3773379325866699
I8
tp4012
a(F7.3781709671020508
I8
tp4013
a(F7.3792028427124023
I8
tp4014
a(F7.3801038265228271
I8
tp4015
a(F7.3811130523681641
I8
tp4016
a(F12.29082202911377
I8
tp4017
a(F12.291883945465088
I8
tp4018
a(F12.292773962020874
I8
tp4019
a(F12.293632030487061
I8
tp4020
a(F12.294512987136841
I8
tp4021
a(F12.295724868774414
I8
tp4022
a(F12.296396017074585
I8
tp4023
a(F12.297315835952759
I8
tp4024
a(F12.298542976379395
I8
tp4025
a(F12.299649953842163
I8
tp4026
a(F12.300585031509399
I8
tp4027
a(F12.301211833953857
I8
tp4028
a(F12.301877975463867
I8
tp4029
a(F12.302944898605347
I8
tp4030
a(F12.303743839263916
I8
tp4031
a(F12.30469799041748
I8
tp4032
a(F12.305517911911011
I8
tp4033
a(F12.306464910507202
I8
tp4034
a(F12.307054996490479
I8
tp4035
a(F12.307926893234253
I8
tp4036
a(F12.308538913726807
I8
tp4037
a(F12.309128999710083
I8
tp4038
a(F12.309618949890137
I8
tp4039
a(F12.310345888137817
I8
tp4040
a(F12.3106529712677
I8
tp4041
a(F12.311333894729614
I8
tp4042
a(F12.312212944030762
I8
tp4043
a(F12.312871932983398
I8
tp4044
a(F12.313822031021118
I8
tp4045
a(F12.314805030822754
I8
tp4046
a(F12.315552949905396
I8
tp4047
a(F12.316624879837036
I8
tp4048
a(F12.317203998565674
I8
tp4049
a(F12.318070888519287
I8
tp4050
a(F12.318624019622803
I8
tp4051
a(F12.319726943969727
I8
tp4052
a(F12.320559024810791
I8
tp4053
a(F12.321552038192749
I8
tp4054
a(F12.322564840316772
I8
tp4055
a(F12.323611974716187
I8
tp4056
a(F17.029171943664551
I8
tp4057
a(F17.030123949050903
I8
tp4058
a(F17.030990839004517
I8
tp4059
a(F17.032171010971069
I8
tp4060
a(F17.033107042312622
I8
tp4061
a(F17.033898830413818
I8
tp4062
a(F17.034788846969604
I8
tp4063
a(F17.035673856735229
I8
tp4064
a(F17.036756038665771
I8
tp4065
a(F17.037531852722168
I8
tp4066
a(F17.038663864135742
I8
tp4067
a(F17.0396409034729
I8
tp4068
a(F17.040256977081299
I8
tp4069
a(F17.041347980499268
I8
tp4070
a(F17.042419910430908
I8
tp4071
a(F17.043438911437988
I8
tp4072
a(F17.04426383972168
I8
tp4073
a(F17.045253038406372
I8
tp4074
a(F17.046130895614624
I8
tp4075
a(F17.046875953674316
I8
tp4076
a(F17.047858953475952
I8
tp4077
a(F17.048941850662231
I8
tp4078
a(F17.049721002578735
I8
tp4079
a(F17.050750970840454
I8
tp4080
a(F17.051739931106567
I8
tp4081
a(F17.052804946899414
I8
tp4082
a(F17.053647041320801
I8
tp4083
a(F17.054481983184814
I8
tp4084
a(F17.055721044540405
I8
tp4085
a(F17.056933879852295
I8
tp4086
a(F17.058018922805786
I8
tp4087
a(F17.059001922607422
I8
tp4088
a(F17.059897899627686
I8
tp4089
a(F17.060895919799805
I8
tp4090
a(F17.062114000320435
I8
tp4091
a(F17.063017845153809
I8
tp4092
a(F17.064194917678833
I8
tp4093
a(F17.06509804725647
I8
tp4094
a(F17.065728902816772
I8
tp4095
a(F17.066638946533203
I8
tp4096
a(F17.067456007003784
I8
tp4097
a(F17.067981958389282
I8
tp4098
a(F17.068862915039062
I8
tp4099
a(F17.069716930389404
I8
tp4100
a(F17.070333957672119
I8
tp4101
a(F17.071048974990845
I8
tp4102
a(F17.071928024291992
I8
tp4103
a(F17.072818040847778
I8
tp4104
a(F17.07349705696106
I8
tp4105
a(F17.074301958084106
I8
tp4106
a(F26.401808023452759
I8
tp4107
a(F26.402709007263184
I8
tp4108
a(F26.402979850769043
I8
tp4109
a(F26.40396785736084
I8
tp4110
a(F26.405021905899048
I8
tp4111
a(F26.405540943145752
I8
tp4112
a(F26.406470060348511
I8
tp4113
a(F26.40700101852417
I8
tp4114
a(F26.407493829727173
I8
tp4115
a(F26.408231019973755
I8
tp4116
a(F26.408987045288086
I8
tp4117
a(F26.409673929214478
I8
tp4118
a(F26.410130023956299
I8
tp4119
a(F26.411098957061768
I8
tp4120
a(F26.411972045898438
I8
tp4121
a(F26.413149833679199
I8
tp4122
a(F26.413981914520264
I8
tp4123
a(F26.414705038070679
I8
tp4124
a(F26.415773868560791
I8
tp4125
a(F26.416460990905762
I8
tp4126
a(F26.417754888534546
I8
tp4127
a(F26.418274879455566
I8
tp4128
a(F26.419036865234375
I8
tp4129
a(F26.419563055038452
I8
tp4130
a(F26.420202970504761
I8
tp4131
a(F26.421140909194946
I8
tp4132
a(F26.421471834182739
I8
tp4133
a(F26.422086000442505
I8
tp4134
a(F26.42253589630127
I8
tp4135
a(F26.42341685295105
I8
tp4136
a(F26.424296855926514
I8
tp4137
a(F26.425266981124878
I8
tp4138
a(F26.426086902618408
I8
tp4139
a(F26.426553964614868
I8
tp4140
a(F26.42741584777832
I8
tp4141
a(F26.427978038787842
I8
tp4142
a(F26.428648948669434
I8
tp4143
a(F26.429721832275391
I8
tp4144
a(F26.430455923080444
I8
tp4145
a(F26.431330919265747
I8
tp4146
a(F33.211887836456299
I8
tp4147
a(F33.21246600151062
I8
tp4148
a(F33.212985038757324
I8
tp4149
a(F33.214012861251831
I8
tp4150
a(F33.215085983276367
I8
tp4151
a(F33.216256856918335
I8
tp4152
a(F33.216946840286255
I8
tp4153
a(F33.21753191947937
I8
tp4154
a(F33.218642950057983
I8
tp4155
a(F33.219460010528564
I8
tp4156
a(F33.220096826553345
I8
tp4157
a(F33.220993995666504
I8
tp4158
a(F33.221453905105591
I8
tp4159
a(F33.222641944885254
I8
tp4160
a(F33.223717927932739
I8
tp4161
a(F33.224459886550903
I8
tp4162
a(F33.225396871566772
I8
tp4163
a(F33.226306915283203
I8
tp4164
a(F33.227360963821411
I8
tp4165
a(F33.22807788848877
I8
tp4166
a(F33.229053020477295
I8
tp4167
a(F33.229696035385132
I8
tp4168
a(F33.230455875396729
I8
tp4169
a(F33.230572938919067
I8
tp4170
a(F33.231595039367676
I8
tp4171
a(F33.232370853424072
I8
tp4172
a(F33.233206987380981
I8
tp4173
a(F33.234067916870117
I8
tp4174
a(F33.234909057617188
I8
tp4175
a(F33.235960006713867
I8
tp4176
a(F33.236395835876465
I8
tp4177
a(F33.23692798614502
I8
tp4178
a(F33.237437009811401
I8
tp4179
a(F33.238450050354004
I8
tp4180
a(F33.23957085609436
I8
tp4181
a(F33.240325927734375
I8
tp4182
a(F33.241513013839722
I8
tp4183
a(F33.242149829864502
I8
tp4184
a(F33.242784023284912
I8
tp4185
a(F33.243906021118164
I8
tp4186
a(F37.36643385887146
I8
tp4187
a(F37.367126941680908
I8
tp4188
a(F37.368052005767822
I8
tp4189
a(F37.368481874465942
I8
tp4190
a(F37.369621992111206
I8
tp4191
a(F37.370297908782959
I8
tp4192
a(F37.370823860168457
I8
tp4193
a(F37.371587038040161
I8
tp4194
a(F37.372318983078003
I8
tp4195
a(F37.372987985610962
I8
tp4196
a(F37.373417854309082
I8
tp4197
a(F37.374191045761108
I8
tp4198
a(F37.375013828277588
I8
tp4199
a(F37.37597393989563
I8
tp4200
a(F37.376580953598022
I8
tp4201
a(F37.377506971359253
I8
tp4202
a(F37.378316879272461
I8
tp4203
a(F37.37910795211792
I8
tp4204
a(F37.379992008209229
I8
tp4205
a(F37.380959987640381
I8
tp4206
a(F37.381760835647583
I8
tp4207
a(F37.382292985916138
I8
tp4208
a(F37.382786989212036
I8
tp4209
a(F37.383309841156006
I8
tp4210
a(F37.383678913116455
I8
tp4211
a(F37.384387969970703
I8
tp4212
a(F37.385156869888306
I8
tp4213
a(F37.386359930038452
I8
tp4214
a(F37.387203931808472
I8
tp4215
a(F37.38779091835022
I8
tp4216
a(F37.388485908508301
I8
tp4217
a(F37.389423847198486
I8
tp4218
a(F37.390151977539062
I8
tp4219
a(F37.390919923782349
I8
tp4220
a(F37.391512870788574
I8
tp4221
a(F37.392045974731445
I8
tp4222
a(F37.392837047576904
I8
tp4223
a(F37.393623828887939
I8
tp4224
a(F37.394376993179321
I8
tp4225
a(F37.39510703086853
I8
tp4226
aF40.020000000000437
tp4227
sg48
((lp4228
F40.079999999999927
tp4229
sg78
((lp4230
F40.059999999999491
tp4231
sg105
((lp4232
(F1.186694860458374
I6
tp4233
a(F1.187816858291626
I6
tp4234
a(F1.1888809204101562
I6
tp4235
a(F1.1900899410247803
I6
tp4236
a(F1.1912360191345215
I6
tp4237
a(F1.1922399997711182
I6
tp4238
a(F1.1932418346405029
I6
tp4239
a(F1.1942498683929443
I6
tp4240
a(F1.1952929496765137
I6
tp4241
a(F1.1964468955993652
I6
tp4242
a(F1.1975958347320557
I6
tp4243
a(F1.1986558437347412
I6
tp4244
a(F1.1995968818664551
I6
tp4245
a(F1.2005970478057861
I6
tp4246
a(F1.2017459869384766
I6
tp4247
a(F1.202833890914917
I6
tp4248
a(F1.2037129402160645
I6
tp4249
a(F1.2048728466033936
I6
tp4250
a(F1.2058999538421631
I6
tp4251
a(F1.2066318988800049
I6
tp4252
a(F1.2076318264007568
I6
tp4253
a(F1.2085719108581543
I6
tp4254
a(F1.2097179889678955
I6
tp4255
a(F1.2106640338897705
I6
tp4256
a(F1.2115199565887451
I6
tp4257
a(F1.2124619483947754
I6
tp4258
a(F1.2134668827056885
I6
tp4259
a(F1.2145488262176514
I6
tp4260
a(F1.2157080173492432
I6
tp4261
a(F1.2167739868164062
I6
tp4262
a(F1.2179458141326904
I6
tp4263
a(F1.2187409400939941
I6
tp4264
a(F1.2198889255523682
I6
tp4265
a(F1.220890998840332
I6
tp4266
a(F1.2218530178070068
I6
tp4267
a(F1.2230579853057861
I6
tp4268
a(F1.2239968776702881
I6
tp4269
a(F1.2248039245605469
I6
tp4270
a(F1.225600004196167
I6
tp4271
a(F1.2263948917388916
I6
tp4272
a(F1.2273960113525391
I6
tp4273
a(F1.2284219264984131
I6
tp4274
a(F1.2297108173370361
I6
tp4275
a(F1.2305660247802734
I6
tp4276
a(F1.2315330505371094
I6
tp4277
a(F1.2324390411376953
I6
tp4278
a(F1.2335078716278076
I6
tp4279
a(F1.234367847442627
I6
tp4280
a(F1.2352979183197021
I6
tp4281
a(F1.2364499568939209
I6
tp4282
a(F1.2374649047851562
I6
tp4283
a(F1.2385649681091309
I6
tp4284
a(F1.2392818927764893
I6
tp4285
a(F1.2400820255279541
I6
tp4286
a(F1.2407338619232178
I6
tp4287
a(F1.241765022277832
I6
tp4288
a(F1.2429168224334717
I6
tp4289
a(F1.2440650463104248
I6
tp4290
a(F1.2443768978118896
I6
tp4291
a(F1.2454140186309814
I6
tp4292
a(F1.2466280460357666
I6
tp4293
a(F1.2476539611816406
I6
tp4294
a(F1.2485949993133545
I6
tp4295
a(F1.2494750022888184
I6
tp4296
a(F1.2502110004425049
I6
tp4297
a(F1.2511539459228516
I6
tp4298
a(F1.2521548271179199
I6
tp4299
a(F1.2530088424682617
I6
tp4300
a(F1.2542178630828857
I6
tp4301
a(F1.2552568912506104
I6
tp4302
a(F1.2561409473419189
I6
tp4303
a(F1.2570569515228271
I6
tp4304
a(F1.2580838203430176
I6
tp4305
a(F1.2590889930725098
I6
tp4306
a(F1.2598848342895508
I6
tp4307
a(F1.2608888149261475
I6
tp4308
a(F1.2616889476776123
I6
tp4309
a(F1.2628979682922363
I6
tp4310
a(F1.2637820243835449
I6
tp4311
a(F1.2647969722747803
I6
tp4312
a(F1.2658019065856934
I6
tp4313
a(F1.2666819095611572
I6
tp4314
a(F1.2676248550415039
I6
tp4315
a(F1.2684438228607178
I6
tp4316
a(F1.2695338726043701
I6
tp4317
a(F1.270474910736084
I6
tp4318
a(F1.2715089321136475
I6
tp4319
a(F1.2724490165710449
I6
tp4320
a(F1.2733099460601807
I6
tp4321
a(F1.2740199565887451
I6
tp4322
a(F1.274770975112915
I6
tp4323
a(F1.2757129669189453
I6
tp4324
a(F1.2766799926757812
I6
tp4325
a(F1.2774178981781006
I6
tp4326
a(F1.2783968448638916
I6
tp4327
a(F1.2792179584503174
I6
tp4328
a(F1.2803049087524414
I6
tp4329
a(F1.2811019420623779
I6
tp4330
a(F1.282045841217041
I6
tp4331
a(F1.2829878330230713
I6
tp4332
a(F1.2832999229431152
I6
tp4333
a(F1.2845358848571777
I6
tp4334
a(F1.2851979732513428
I6
tp4335
a(F1.2864940166473389
I6
tp4336
a(F1.2873508930206299
I6
tp4337
a(F1.2882080078125
I6
tp4338
a(F1.2892348766326904
I6
tp4339
a(F1.2897989749908447
I6
tp4340
a(F1.2908890247344971
I6
tp4341
a(F1.2919909954071045
I6
tp4342
a(F1.2929978370666504
I6
tp4343
a(F1.294003963470459
I6
tp4344
a(F1.2943170070648193
I6
tp4345
a(F1.295137882232666
I6
tp4346
a(F1.2961678504943848
I6
tp4347
a(F1.2970240116119385
I6
tp4348
a(F1.2984058856964111
I6
tp4349
a(F1.2994098663330078
I6
tp4350
a(F1.2997210025787354
I6
tp4351
a(F1.3006670475006104
I6
tp4352
a(F1.3013818264007568
I6
tp4353
a(F1.302034854888916
I6
tp4354
a(F1.303041934967041
I6
tp4355
a(F1.3038418292999268
I6
tp4356
a(F1.3048009872436523
I6
tp4357
a(F1.305656909942627
I6
tp4358
a(F1.306581974029541
I6
tp4359
a(F1.3075869083404541
I6
tp4360
a(F1.308323860168457
I6
tp4361
a(F1.3092048168182373
I6
tp4362
a(F1.3100860118865967
I6
tp4363
a(F1.310823917388916
I6
tp4364
a(F1.3118288516998291
I6
tp4365
a(F1.3127100467681885
I6
tp4366
a(F1.313917875289917
I6
tp4367
a(F1.3150808811187744
I6
tp4368
a(F1.3161690235137939
I6
tp4369
a(F1.317112922668457
I6
tp4370
a(F1.31797194480896
I6
tp4371
a(F1.3187718391418457
I6
tp4372
a(F1.3195948600769043
I6
tp4373
a(F1.3198440074920654
I6
tp4374
a(F1.3207049369812012
I6
tp4375
a(F1.3215408325195312
I6
tp4376
a(F1.322166919708252
I6
tp4377
a(F1.3227570056915283
I6
tp4378
a(F1.323732852935791
I6
tp4379
a(F1.3246610164642334
I6
tp4380
a(F1.3255188465118408
I6
tp4381
a(F1.3263759613037109
I6
tp4382
a(F1.3273580074310303
I6
tp4383
a(F1.3283398151397705
I6
tp4384
a(F1.3294899463653564
I6
tp4385
a(F1.330204963684082
I6
tp4386
a(F1.3310608863830566
I6
tp4387
a(F1.3318359851837158
I6
tp4388
a(F1.3326330184936523
I6
tp4389
a(F1.3332870006561279
I6
tp4390
a(F1.3340029716491699
I6
tp4391
a(F1.3350858688354492
I6
tp4392
a(F1.3360128402709961
I6
tp4393
a(F1.3367879390716553
I6
tp4394
a(F1.3374409675598145
I6
tp4395
a(F1.338238000869751
I6
tp4396
a(F1.3389499187469482
I6
tp4397
a(F1.3398089408874512
I6
tp4398
a(F1.3408129215240479
I6
tp4399
a(F1.3417758941650391
I6
tp4400
a(F1.3426148891448975
I6
tp4401
a(F1.3434159755706787
I6
tp4402
a(F1.3444249629974365
I6
tp4403
a(F1.3452389240264893
I6
tp4404
a(F1.3458738327026367
I6
tp4405
a(F1.3466730117797852
I6
tp4406
a(F1.3472418785095215
I6
tp4407
a(F1.3481030464172363
I6
tp4408
a(F1.3489899635314941
I6
tp4409
a(F1.3500089645385742
I6
tp4410
a(F1.3509659767150879
I6
tp4411
a(F1.3520309925079346
I6
tp4412
a(F1.3530738353729248
I6
tp4413
a(F1.3539299964904785
I6
tp4414
a(F1.3548028469085693
I6
tp4415
a(F1.35595703125
I6
tp4416
a(F1.356874942779541
I6
tp4417
a(F1.3577558994293213
I6
tp4418
a(F1.3585519790649414
I6
tp4419
a(F1.3592679500579834
I6
tp4420
a(F1.3601539134979248
I6
tp4421
a(F1.3610620498657227
I6
tp4422
a(F1.3618600368499756
I6
tp4423
a(F1.3625109195709229
I6
tp4424
a(F1.3635280132293701
I6
tp4425
a(F1.3644728660583496
I6
tp4426
a(F1.3650789260864258
I6
tp4427
a(F1.3659980297088623
I6
tp4428
a(F1.367426872253418
I6
tp4429
a(F1.3681418895721436
I6
tp4430
a(F1.3690009117126465
I6
tp4431
a(F1.3698399066925049
I6
tp4432
a(F1.3709030151367188
I6
tp4433
a(F1.3716130256652832
I6
tp4434
a(F1.3723878860473633
I6
tp4435
a(F1.3733668327331543
I6
tp4436
a(F1.3741669654846191
I6
tp4437
a(F1.3751239776611328
I6
tp4438
a(F1.3760709762573242
I6
tp4439
a(F1.3769919872283936
I6
tp4440
a(F1.37782883644104
I6
tp4441
a(F1.3788328170776367
I6
tp4442
a(F1.3795199394226074
I6
tp4443
a(F1.3804409503936768
I6
tp4444
a(F1.3809478282928467
I6
tp4445
a(F1.3817498683929443
I6
tp4446
a(F1.3826699256896973
I6
tp4447
a(F1.3835289478302002
I6
tp4448
a(F1.3842089176177979
I6
tp4449
a(F1.3849349021911621
I6
tp4450
a(F1.3857948780059814
I6
tp4451
a(F1.386591911315918
I6
tp4452
a(F1.3873648643493652
I6
tp4453
a(F1.3879909515380859
I6
tp4454
a(F1.3889110088348389
I6
tp4455
a(F1.3896830081939697
I6
tp4456
a(F1.3908109664916992
I6
tp4457
a(F1.3917338848114014
I6
tp4458
a(F1.3926548957824707
I6
tp4459
a(F1.3934979438781738
I6
tp4460
a(F1.3939859867095947
I6
tp4461
a(F1.3944079875946045
I6
tp4462
a(F1.3950119018554688
I6
tp4463
a(F1.3957879543304443
I6
tp4464
a(F1.3966448307037354
I6
tp4465
a(F1.3972129821777344
I6
tp4466
a(F1.3979909420013428
I6
tp4467
a(F1.3987278938293457
I6
tp4468
a(F1.3999869823455811
I6
tp4469
a(F1.4010138511657715
I6
tp4470
a(F1.4021680355072021
I6
tp4471
a(F1.4032049179077148
I6
tp4472
aF40.190000000000509
tp4473
ssba(imeasure_core
ProblemSetSolution
p4474
(dp4475
g3
g682
sg137
g3934
sg140
(dp4476
g685
((lp4477
F40.099999999998545
tp4478
sg729
((lp4479
(F0.17363095283508301
I5
tp4480
a(F0.1743919849395752
I5
tp4481
a(F0.17519593238830566
I5
tp4482
a(F0.17616105079650879
I5
tp4483
a(F0.17696499824523926
I5
tp4484
a(F0.17770791053771973
I5
tp4485
a(F0.17839193344116211
I5
tp4486
a(F0.17913484573364258
I5
tp4487
a(F0.17967700958251953
I5
tp4488
a(F0.17999601364135742
I5
tp4489
a(F0.18096494674682617
I5
tp4490
a(F0.18140387535095215
I5
tp4491
a(F0.18220996856689453
I5
tp4492
a(F0.18305182456970215
I5
tp4493
a(F0.1835939884185791
I5
tp4494
a(F0.18399500846862793
I5
tp4495
a(F0.18473601341247559
I5
tp4496
a(F0.18542003631591797
I5
tp4497
a(F0.18596100807189941
I5
tp4498
a(F0.18656301498413086
I5
tp4499
a(F0.1871039867401123
I5
tp4500
a(F0.1873619556427002
I5
tp4501
a(F0.18817996978759766
I5
tp4502
a(F0.18841886520385742
I5
tp4503
a(F0.18873786926269531
I5
tp4504
a(F0.18972396850585938
I5
tp4505
a(F0.19026684761047363
I5
tp4506
a(F0.19114995002746582
I5
tp4507
a(F0.19155001640319824
I5
tp4508
a(F0.1922149658203125
I5
tp4509
a(F0.19273805618286133
I5
tp4510
a(F0.19349503517150879
I5
tp4511
a(F0.19403386116027832
I5
tp4512
a(F0.19421291351318359
I5
tp4513
a(F0.19503903388977051
I5
tp4514
a(F0.19572091102600098
I5
tp4515
a(F0.19652485847473145
I5
tp4516
a(F0.19742894172668457
I5
tp4517
a(F0.19817090034484863
I5
tp4518
a(F0.19869303703308105
I5
tp4519
a(F0.19943499565124512
I5
tp4520
a(F0.19989705085754395
I5
tp4521
a(F0.2005000114440918
I5
tp4522
a(F0.20103883743286133
I5
tp4523
a(F0.20177984237670898
I5
tp4524
a(F0.20254302024841309
I5
tp4525
a(F0.20330095291137695
I5
tp4526
a(F0.20404696464538574
I5
tp4527
a(F0.20486998558044434
I5
tp4528
a(F0.2054908275604248
I5
tp4529
a(F0.2063748836517334
I5
tp4530
a(F0.20713901519775391
I5
tp4531
a(F0.20775794982910156
I5
tp4532
a(F0.20828104019165039
I5
tp4533
a(F0.20899295806884766
I5
tp4534
a(F0.20986700057983398
I5
tp4535
a(F0.21053290367126465
I5
tp4536
a(F0.2110748291015625
I5
tp4537
a(F0.21173787117004395
I5
tp4538
a(F0.21258997917175293
I5
tp4539
a(F0.21334505081176758
I5
tp4540
a(F0.21417093276977539
I5
tp4541
a(F0.21442890167236328
I5
tp4542
a(F0.21503090858459473
I5
tp4543
a(F0.2156369686126709
I5
tp4544
a(F0.21595501899719238
I5
tp4545
a(F0.21655702590942383
I5
tp4546
a(F0.21729898452758789
I5
tp4547
a(F0.21798205375671387
I5
tp4548
a(F0.21915292739868164
I5
tp4549
a(F10.872239828109741
I5
tp4550
a(F10.872987985610962
I5
tp4551
a(F10.87409496307373
I5
tp4552
a(F10.874977827072144
I5
tp4553
a(F10.876231908798218
I5
tp4554
a(F10.877109050750732
I5
tp4555
a(F10.878000974655151
I5
tp4556
a(F10.878957986831665
I5
tp4557
a(F10.879626035690308
I5
tp4558
a(F10.879724025726318
I5
tp4559
a(F10.880591869354248
I5
tp4560
a(F10.881749868392944
I5
tp4561
a(F10.882738828659058
I5
tp4562
a(F10.883582830429077
I5
tp4563
a(F10.884606838226318
I5
tp4564
a(F10.885509967803955
I5
tp4565
a(F10.886328935623169
I5
tp4566
a(F10.887017965316772
I5
tp4567
a(F10.887848854064941
I5
tp4568
a(F10.888742923736572
I5
tp4569
a(F10.889983892440796
I5
tp4570
a(F10.8903489112854
I5
tp4571
a(F10.890954971313477
I5
tp4572
a(F10.89205002784729
I5
tp4573
a(F10.892707824707031
I5
tp4574
a(F10.893184900283813
I5
tp4575
a(F10.894026041030884
I5
tp4576
a(F10.895059823989868
I5
tp4577
a(F10.895936965942383
I5
tp4578
a(F10.896731853485107
I5
tp4579
a(F10.897754907608032
I5
tp4580
a(F10.898403882980347
I5
tp4581
a(F10.899030923843384
I5
tp4582
a(F10.899879932403564
I5
tp4583
a(F10.900506973266602
I5
tp4584
a(F10.901592016220093
I5
tp4585
a(F10.902261018753052
I5
tp4586
a(F10.903122901916504
I5
tp4587
a(F10.904080867767334
I5
tp4588
a(F10.905122995376587
I5
tp4589
a(F10.905940055847168
I5
tp4590
a(F10.906904935836792
I5
tp4591
a(F10.907841920852661
I5
tp4592
a(F10.908592939376831
I5
tp4593
a(F10.909399032592773
I5
tp4594
a(F10.910238027572632
I5
tp4595
a(F10.911082029342651
I5
tp4596
a(F10.912137985229492
I5
tp4597
a(F10.913127899169922
I5
tp4598
a(F10.913893938064575
I5
tp4599
a(F10.914852857589722
I5
tp4600
a(F10.915629863739014
I5
tp4601
a(F10.916782855987549
I5
tp4602
a(F10.91765284538269
I5
tp4603
a(F10.918567895889282
I5
tp4604
a(F10.919466018676758
I5
tp4605
a(F10.920191049575806
I5
tp4606
a(F10.921015977859497
I5
tp4607
a(F10.922044992446899
I5
tp4608
a(F10.923235893249512
I5
tp4609
a(F10.924274921417236
I5
tp4610
a(F10.92481803894043
I5
tp4611
a(F10.925619840621948
I5
tp4612
a(F10.926391839981079
I5
tp4613
a(F10.927377939224243
I5
tp4614
a(F10.928284883499146
I5
tp4615
a(F10.929379940032959
I5
tp4616
a(F10.930413007736206
I5
tp4617
a(F10.931360006332397
I5
tp4618
a(F10.93262505531311
I5
tp4619
a(F18.534476041793823
I5
tp4620
a(F18.535722017288208
I5
tp4621
a(F18.536860942840576
I5
tp4622
a(F18.537163019180298
I5
tp4623
a(F18.537977933883667
I5
tp4624
a(F18.538892030715942
I5
tp4625
a(F18.539949893951416
I5
tp4626
a(F18.540776968002319
I5
tp4627
a(F18.541668891906738
I5
tp4628
a(F18.54222297668457
I5
tp4629
a(F18.543210029602051
I5
tp4630
a(F18.544173955917358
I5
tp4631
a(F18.544906854629517
I5
tp4632
a(F18.545738935470581
I5
tp4633
a(F18.54656195640564
I5
tp4634
a(F18.547494888305664
I5
tp4635
a(F18.548094987869263
I5
tp4636
a(F18.548909902572632
I5
tp4637
a(F18.549859046936035
I5
tp4638
a(F18.550851821899414
I5
tp4639
a(F18.55168604850769
I5
tp4640
a(F18.55192494392395
I5
tp4641
a(F18.552886009216309
I5
tp4642
a(F18.55342698097229
I5
tp4643
a(F18.554128885269165
I5
tp4644
a(F18.555112838745117
I5
tp4645
a(F18.555881977081299
I5
tp4646
a(F18.556442975997925
I5
tp4647
a(F18.557395935058594
I5
tp4648
a(F18.55849289894104
I5
tp4649
a(F18.559365034103394
I5
tp4650
a(F18.560389041900635
I5
tp4651
a(F18.561352968215942
I5
tp4652
a(F18.562229871749878
I5
tp4653
a(F18.563191890716553
I5
tp4654
a(F18.564066886901855
I5
tp4655
a(F18.565188884735107
I5
tp4656
a(F18.566066980361938
I5
tp4657
a(F18.566819906234741
I5
tp4658
a(F18.567461013793945
I5
tp4659
a(F18.56825590133667
I5
tp4660
a(F18.569047927856445
I5
tp4661
a(F18.570063829421997
I5
tp4662
a(F18.570979833602905
I5
tp4663
a(F18.571679830551147
I5
tp4664
a(F18.571918964385986
I5
tp4665
a(F18.57297682762146
I5
tp4666
a(F18.573628902435303
I5
tp4667
a(F18.574445962905884
I5
tp4668
a(F18.574843883514404
I5
tp4669
a(F18.575760841369629
I5
tp4670
a(F18.576753854751587
I5
tp4671
a(F18.577544927597046
I5
tp4672
a(F18.57864785194397
I5
tp4673
a(F18.579601049423218
I5
tp4674
a(F18.580554008483887
I5
tp4675
a(F18.58148193359375
I5
tp4676
a(F18.582231044769287
I5
tp4677
a(F18.583060026168823
I5
tp4678
a(F18.583979845046997
I5
tp4679
a(F18.584774017333984
I5
tp4680
a(F18.585739850997925
I5
tp4681
a(F18.586514949798584
I5
tp4682
a(F18.587324857711792
I5
tp4683
a(F18.588237047195435
I5
tp4684
a(F18.58922004699707
I5
tp4685
a(F18.589934825897217
I5
tp4686
a(F18.590875864028931
I5
tp4687
a(F18.591485977172852
I5
tp4688
a(F18.592289924621582
I5
tp4689
a(F18.593070983886719
I5
tp4690
a(F18.594012975692749
I5
tp4691
a(F18.59476900100708
I5
tp4692
a(F18.595685958862305
I5
tp4693
a(F18.596792936325073
I5
tp4694
a(F18.598119020462036
I5
tp4695
a(F18.598737955093384
I5
tp4696
a(F18.599841833114624
I5
tp4697
a(F18.600870847702026
I5
tp4698
a(F18.602231025695801
I5
tp4699
a(F28.798050880432129
I5
tp4700
a(F28.799207925796509
I5
tp4701
a(F28.799665927886963
I5
tp4702
a(F28.800644874572754
I5
tp4703
a(F28.801887035369873
I5
tp4704
a(F28.802840948104858
I5
tp4705
a(F28.804061889648438
I5
tp4706
a(F28.804816961288452
I5
tp4707
a(F28.805414915084839
I5
tp4708
a(F28.805932998657227
I5
tp4709
a(F28.806903839111328
I5
tp4710
a(F28.807519912719727
I5
tp4711
a(F28.80811595916748
I5
tp4712
a(F28.809283018112183
I5
tp4713
a(F28.810253858566284
I5
tp4714
a(F28.810709953308105
I5
tp4715
a(F28.811167001724243
I5
tp4716
a(F28.811972856521606
I5
tp4717
a(F28.813192844390869
I5
tp4718
a(F28.814157962799072
I5
tp4719
a(F28.814875841140747
I5
tp4720
a(F28.815778017044067
I5
tp4721
a(F28.816644906997681
I5
tp4722
a(F28.817462921142578
I5
tp4723
a(F28.818589925765991
I5
tp4724
a(F28.819674968719482
I5
tp4725
a(F28.820619821548462
I5
tp4726
a(F28.821589946746826
I5
tp4727
a(F28.822276830673218
I5
tp4728
a(F28.82251501083374
I5
tp4729
a(F28.823446989059448
I5
tp4730
a(F28.824278831481934
I5
tp4731
a(F28.825088024139404
I5
tp4732
a(F28.82595682144165
I5
tp4733
a(F28.826432943344116
I5
tp4734
a(F28.827133893966675
I5
tp4735
a(F28.827798843383789
I5
tp4736
a(F28.828335046768188
I5
tp4737
a(F28.828764915466309
I5
tp4738
a(F28.829432964324951
I5
tp4739
a(F28.830140829086304
I5
tp4740
a(F28.830895900726318
I5
tp4741
a(F28.83196496963501
I5
tp4742
a(F28.832564830780029
I5
tp4743
a(F28.833346843719482
I5
tp4744
a(F28.834379911422729
I5
tp4745
a(F28.835369825363159
I5
tp4746
a(F28.835769891738892
I5
tp4747
a(F28.836858987808228
I5
tp4748
a(F28.837725877761841
I5
tp4749
a(F28.838330030441284
I5
tp4750
a(F28.838955879211426
I5
tp4751
a(F28.840036869049072
I5
tp4752
a(F28.840921878814697
I5
tp4753
a(F28.841816902160645
I5
tp4754
a(F28.842629909515381
I5
tp4755
a(F28.843756914138794
I5
tp4756
a(F28.844159841537476
I5
tp4757
a(F28.844990968704224
I5
tp4758
a(F28.845660924911499
I5
tp4759
a(F28.846511840820312
I5
tp4760
a(F28.847342014312744
I5
tp4761
a(F28.847990036010742
I5
tp4762
a(F28.848796844482422
I5
tp4763
a(F28.849254846572876
I5
tp4764
a(F28.850206851959229
I5
tp4765
a(F28.850954055786133
I5
tp4766
a(F28.85168194770813
I5
tp4767
a(F28.852777004241943
I5
tp4768
a(F28.853760004043579
I5
tp4769
a(F28.854850053787231
I5
tp4770
a(F28.855535984039307
I5
tp4771
a(F28.856475830078125
I5
tp4772
a(F28.857406854629517
I5
tp4773
a(F28.858319997787476
I5
tp4774
a(F28.858986854553223
I5
tp4775
a(F28.859876871109009
I5
tp4776
a(F28.860904932022095
I5
tp4777
a(F28.861915826797485
I5
tp4778
a(F28.862531900405884
I5
tp4779
a(F28.863698959350586
I5
tp4780
a(F28.864506006240845
I5
tp4781
a(F28.86532998085022
I5
tp4782
a(F28.866379022598267
I5
tp4783
a(F28.866909980773926
I5
tp4784
a(F28.86806583404541
I5
tp4785
a(F28.869186878204346
I5
tp4786
a(F28.870874881744385
I5
tp4787
a(F28.872257947921753
I5
tp4788
a(F28.873847007751465
I5
tp4789
a(F34.273787975311279
I5
tp4790
a(F34.274938821792603
I5
tp4791
a(F34.27568793296814
I5
tp4792
a(F34.276566028594971
I5
tp4793
a(F34.277520895004272
I5
tp4794
a(F34.278327941894531
I5
tp4795
a(F34.279400825500488
I5
tp4796
a(F34.28000283241272
I5
tp4797
a(F34.280822038650513
I5
tp4798
a(F34.281774997711182
I5
tp4799
a(F34.282649040222168
I5
tp4800
a(F34.283609867095947
I5
tp4801
a(F34.283946990966797
I5
tp4802
a(F34.285058975219727
I5
tp4803
a(F34.285552024841309
I5
tp4804
a(F34.286038875579834
I5
tp4805
a(F34.286795854568481
I5
tp4806
a(F34.287294864654541
I5
tp4807
a(F34.288280010223389
I5
tp4808
a(F34.289242029190063
I5
tp4809
a(F34.289912939071655
I5
tp4810
a(F34.290665864944458
I5
tp4811
a(F34.291571855545044
I5
tp4812
a(F34.292332887649536
I5
tp4813
a(F34.293087959289551
I5
tp4814
a(F34.293490886688232
I5
tp4815
a(F34.294209003448486
I5
tp4816
a(F34.294944047927856
I5
tp4817
a(F34.295493841171265
I5
tp4818
a(F34.296296834945679
I5
tp4819
a(F34.296900033950806
I5
tp4820
a(F34.297576904296875
I5
tp4821
a(F34.298398017883301
I5
tp4822
a(F34.299192905426025
I5
tp4823
a(F34.299988031387329
I5
tp4824
a(F34.300911903381348
I5
tp4825
a(F34.301772832870483
I5
tp4826
a(F34.302681922912598
I5
tp4827
a(F34.30361795425415
I5
tp4828
a(F34.304375886917114
I5
tp4829
a(F34.304908037185669
I5
tp4830
a(F34.305769920349121
I5
tp4831
a(F34.306651830673218
I5
tp4832
a(F34.307618856430054
I5
tp4833
a(F34.308292865753174
I5
tp4834
a(F34.309234857559204
I5
tp4835
a(F34.310052871704102
I5
tp4836
a(F34.310850858688354
I5
tp4837
a(F34.311511993408203
I5
tp4838
a(F34.311974048614502
I5
tp4839
a(F34.312980890274048
I5
tp4840
a(F34.313724994659424
I5
tp4841
a(F34.314471960067749
I5
tp4842
a(F34.315309047698975
I5
tp4843
a(F34.316242933273315
I5
tp4844
a(F34.317471027374268
I5
tp4845
a(F39.208266019821167
I5
tp4846
a(F39.208927869796753
I5
tp4847
a(F39.20952582359314
I5
tp4848
a(F39.210482835769653
I5
tp4849
a(F39.21143102645874
I5
tp4850
a(F39.212255954742432
I5
tp4851
a(F39.213135004043579
I5
tp4852
a(F39.214117050170898
I5
tp4853
a(F39.214594841003418
I5
tp4854
a(F39.215441942214966
I5
tp4855
a(F39.216259956359863
I5
tp4856
a(F39.2166428565979
I5
tp4857
a(F39.217216968536377
I5
tp4858
a(F39.21782398223877
I5
tp4859
a(F39.218677997589111
I5
tp4860
a(F39.219076871871948
I5
tp4861
a(F39.219625949859619
I5
tp4862
a(F39.220463991165161
I5
tp4863
a(F39.221254825592041
I5
tp4864
a(F39.221946954727173
I5
tp4865
a(F39.222760915756226
I5
tp4866
a(F39.223435878753662
I5
tp4867
a(F39.224447965621948
I5
tp4868
a(F39.225200891494751
I5
tp4869
a(F39.226163864135742
I5
tp4870
a(F39.227011919021606
I5
tp4871
a(F39.227798938751221
I5
tp4872
a(F39.228529930114746
I5
tp4873
a(F39.229014873504639
I5
tp4874
a(F39.229843854904175
I5
tp4875
a(F39.230639934539795
I5
tp4876
a(F39.23140287399292
I5
tp4877
a(F39.232141017913818
I5
tp4878
a(F39.23288893699646
I5
tp4879
a(F39.23369288444519
I5
tp4880
a(F39.234442949295044
I5
tp4881
a(F39.235198974609375
I5
tp4882
a(F39.235877990722656
I5
tp4883
a(F39.236814022064209
I5
tp4884
a(F39.237481832504272
I5
tp4885
a(F39.238220930099487
I5
tp4886
a(F39.238853931427002
I5
tp4887
a(F39.239661931991577
I5
tp4888
a(F39.240391969680786
I5
tp4889
a(F39.241466045379639
I5
tp4890
a(F39.242418050765991
I5
tp4891
a(F39.243372917175293
I5
tp4892
a(F39.244191884994507
I5
tp4893
a(F39.245463848114014
I5
tp4894
a(F39.246484041213989
I5
tp4895
a(F39.24727988243103
I5
tp4896
a(F39.248414039611816
I5
tp4897
a(F39.24918794631958
I5
tp4898
a(F39.250306844711304
I5
tp4899
a(F39.251169919967651
I5
tp4900
a(F39.251938819885254
I5
tp4901
aF40.040000000000873
tp4902
sg774
((lp4903
F40.280000000000655
tp4904
sg817
((lp4905
F40.069999999999709
tp4906
ssba(imeasure_core
ProblemSetSolution
p4907
(dp4908
g3
g1298
sg137
g3934
sg140
(dp4909
g1301
((lp4910
F40.75
tp4911
sg1358
((lp4912
F40.350000000000364
tp4913
sg1407
((lp4914
F42.579999999999927
tp4915
sg1468
((lp4916
F51.319999999999709
tp4917
ssba(imeasure_core
ProblemSetSolution
p4918
(dp4919
g3
g1526
sg137
g3934
sg140
(dp4920
g1765
((lp4921
F40.020000000000437
tp4922
sg1780
((lp4923
F40.069999999999709
tp4924
sg1529
((lp4925
F5.2600000000002183
tp4926
sg1795
((lp4927
F0.010000000000218279
tp4928
sg1555
((lp4929
F0.10999999999876309
tp4930
sg1570
((lp4931
F27.960000000000946
tp4932
sg1582
((lp4933
F0.62999999999919964
tp4934
sg1836
((lp4935
F0.28999999999905413
tp4936
sg1806
((lp4937
F0.0
tp4938
sg1611
((lp4939
F1.930000000000291
tp4940
sg1633
((lp4941
F7.25
tp4942
sg1654
((lp4943
F1.5900000000001455
tp4944
sg1694
((lp4945
F1.6599999999998545
tp4946
sg1716
((lp4947
(F0.00238800048828125
I2
tp4948
aF0.19000000000050932
tp4949
sg1727
((lp4950
F0.039999999999054126
tp4951
sg1754
((lp4952
F0.59000000000014552
tp4953
sg1821
((lp4954
F40.1200000000008
tp4955
ssba(imeasure_core
ProblemSetSolution
p4956
(dp4957
g3
g4
sg137
S'AnytimeBest-d10_with_LinearHeuristic'
p4958
sg140
(dp4959
g8
((lp4960
F40.159999999999854
tp4961
sg48
((lp4962
F40.049999999999272
tp4963
sg78
((lp4964
F40.070000000001528
tp4965
sg105
((lp4966
(F1.9202628135681152
I6
tp4967
a(F1.9209399223327637
I6
tp4968
a(F1.9212508201599121
I6
tp4969
a(F1.9220588207244873
I6
tp4970
a(F1.9233298301696777
I6
tp4971
a(F1.9242980480194092
I6
tp4972
a(F1.9253129959106445
I6
tp4973
aF40.279999999998836
tp4974
ssba(imeasure_core
ProblemSetSolution
p4975
(dp4976
g3
g682
sg137
g4958
sg140
(dp4977
g685
((lp4978
F40.079999999999927
tp4979
sg729
((lp4980
(F2.682826042175293
I6
tp4981
a(F2.6835701465606689
I6
tp4982
a(F2.6845741271972656
I6
tp4983
a(F2.6852810382843018
I6
tp4984
a(F10.389695167541504
I6
tp4985
a(F10.390904188156128
I6
tp4986
a(F10.391921043395996
I6
tp4987
a(F10.392603158950806
I6
tp4988
a(F10.718221187591553
I6
tp4989
a(F10.719561100006104
I6
tp4990
a(F10.720826148986816
I6
tp4991
a(F10.72188401222229
I6
tp4992
a(F13.915877103805542
I6
tp4993
a(F13.917105197906494
I6
tp4994
a(F13.917883157730103
I6
tp4995
a(F13.918797969818115
I6
tp4996
a(F20.652757167816162
I6
tp4997
a(F20.65344500541687
I6
tp4998
a(F20.654592990875244
I6
tp4999
a(F20.65556001663208
I6
tp5000
a(F22.770493030548096
I5
tp5001
a(F22.771221160888672
I5
tp5002
a(F22.772273063659668
I5
tp5003
a(F22.773163080215454
I5
tp5004
a(F23.846256971359253
I5
tp5005
a(F23.847017049789429
I5
tp5006
a(F23.84783411026001
I5
tp5007
a(F23.848841190338135
I5
tp5008
aF40.260000000000218
tp5009
sg774
((lp5010
F40.100000000000364
tp5011
sg817
((lp5012
F40.069999999999709
tp5013
ssba(imeasure_core
ProblemSetSolution
p5014
(dp5015
g3
g1298
sg137
g4958
sg140
(dp5016
g1301
((lp5017
F40.690000000000509
tp5018
sg1358
((lp5019
F40.569999999999709
tp5020
sg1407
((lp5021
F40.270000000000437
tp5022
sg1468
((lp5023
F40.6299999999992
tp5024
ssba(imeasure_core
ProblemSetSolution
p5025
(dp5026
g3
g1526
sg137
g4958
sg140
(dp5027
g1765
((lp5028
F40.059999999999491
tp5029
sg1780
((lp5030
F40.050000000001091
tp5031
sg1529
((lp5032
F12.6200000000008
tp5033
sg1795
((lp5034
F0.010000000000218279
tp5035
sg1555
((lp5036
F0.19999999999890861
tp5037
sg1570
((lp5038
F40.0
tp5039
sg1582
((lp5040
F1.569999999999709
tp5041
sg1836
((lp5042
F0.68000000000029104
tp5043
sg1806
((lp5044
F0.0
tp5045
sg1611
((lp5046
F1.8100000000013097
tp5047
sg1633
((lp5048
F14.179999999998472
tp5049
sg1654
((lp5050
F2.75
tp5051
sg1694
((lp5052
F1.3700000000008004
tp5053
sg1716
((lp5054
(F0.0030801296234130859
I2
tp5055
aF0.32999999999992724
tp5056
sg1727
((lp5057
F0.11000000000058208
tp5058
sg1754
((lp5059
F0.71999999999934516
tp5060
sg1821
((lp5061
F40.079999999999927
tp5062
ssba(imeasure_core
ProblemSetSolution
p5063
(dp5064
g3
g4
sg137
S'AnytimeBest-d80_with_LinearHeuristic'
p5065
sg140
(dp5066
g8
((lp5067
F40.050000000001091
tp5068
sg48
((lp5069
(F39.487938165664673
I12
tp5070
a(F39.51088809967041
I12
tp5071
aF40.069999999999709
tp5072
sg78
((lp5073
F40.069999999999709
tp5074
sg105
((lp5075
(F1.9469399452209473
I6
tp5076
a(F1.9476239681243896
I6
tp5077
a(F1.9479358196258545
I6
tp5078
a(F1.9487488269805908
I6
tp5079
a(F1.9500319957733154
I6
tp5080
a(F1.9510018825531006
I6
tp5081
a(F1.9520249366760254
I6
tp5082
aF40.219999999999345
tp5083
ssba(imeasure_core
ProblemSetSolution
p5084
(dp5085
g3
g682
sg137
g5065
sg140
(dp5086
g685
((lp5087
F40.080000000001746
tp5088
sg729
((lp5089
(F2.6718690395355225
I6
tp5090
a(F2.6726131439208984
I6
tp5091
a(F2.6736149787902832
I6
tp5092
a(F2.6743121147155762
I6
tp5093
a(F10.354990005493164
I6
tp5094
a(F10.356193065643311
I6
tp5095
a(F10.357207059860229
I6
tp5096
a(F10.357897043228149
I6
tp5097
a(F10.682003974914551
I6
tp5098
a(F10.683330059051514
I6
tp5099
a(F10.684590101242065
I6
tp5100
a(F10.685642004013062
I6
tp5101
a(F13.866892099380493
I6
tp5102
a(F13.86813497543335
I6
tp5103
a(F13.868916988372803
I6
tp5104
a(F13.869836091995239
I6
tp5105
a(F20.758100986480713
I6
tp5106
a(F20.758797168731689
I6
tp5107
a(F20.75994610786438
I6
tp5108
a(F20.760899066925049
I6
tp5109
a(F22.882938146591187
I5
tp5110
a(F22.883679151535034
I5
tp5111
a(F22.884752988815308
I5
tp5112
a(F22.885648012161255
I5
tp5113
a(F23.742500066757202
I5
tp5114
a(F23.743252992630005
I5
tp5115
a(F23.744063138961792
I5
tp5116
a(F23.745063066482544
I5
tp5117
aF40.329999999999927
tp5118
sg774
((lp5119
F40.209999999999127
tp5120
sg817
((lp5121
F40.059999999999491
tp5122
ssba(imeasure_core
ProblemSetSolution
p5123
(dp5124
g3
g1298
sg137
g5065
sg140
(dp5125
g1301
((lp5126
F40.610000000000582
tp5127
sg1358
((lp5128
F40.3799999999992
tp5129
sg1407
((lp5130
F40.270000000000437
tp5131
sg1468
((lp5132
F40.489999999999782
tp5133
ssba(imeasure_core
ProblemSetSolution
p5134
(dp5135
g3
g1526
sg137
g5065
sg140
(dp5136
g1765
((lp5137
F40.059999999999491
tp5138
sg1780
((lp5139
F40.049999999999272
tp5140
sg1529
((lp5141
F12.610000000000582
tp5142
sg1795
((lp5143
F0.010000000000218279
tp5144
sg1555
((lp5145
F0.19000000000050932
tp5146
sg1570
((lp5147
F40.019999999998618
tp5148
sg1582
((lp5149
F1.570000000001528
tp5150
sg1836
((lp5151
F0.68000000000029104
tp5152
sg1806
((lp5153
F0.0
tp5154
sg1611
((lp5155
F1.7999999999992724
tp5156
sg1633
((lp5157
F14.170000000000073
tp5158
sg1654
((lp5159
F2.75
tp5160
sg1694
((lp5161
F1.3799999999991996
tp5162
sg1716
((lp5163
(F0.0030779838562011719
I2
tp5164
aF0.32999999999992724
tp5165
sg1727
((lp5166
F0.11000000000058208
tp5167
sg1754
((lp5168
F0.72000000000116415
tp5169
sg1821
((lp5170
F40.079999999999927
tp5171
ssba(imeasure_core
ProblemSetSolution
p5172
(dp5173
g3
g4
sg137
S'AnytimeBest-d250_with_LinearHeuristic'
p5174
sg140
(dp5175
g8
((lp5176
F40.309999999999491
tp5177
sg48
((lp5178
(F39.62247109413147
I12
tp5179
a(F39.645498991012573
I12
tp5180
aF40.090000000000146
tp5181
sg78
((lp5182
F40.069999999999709
tp5183
sg105
((lp5184
(F1.9174809455871582
I6
tp5185
a(F1.9181580543518066
I6
tp5186
a(F1.9184699058532715
I6
tp5187
a(F1.9192759990692139
I6
tp5188
a(F1.9205539226531982
I6
tp5189
a(F1.9215350151062012
I6
tp5190
a(F1.9225430488586426
I6
tp5191
aF40.270000000000437
tp5192
ssba(imeasure_core
ProblemSetSolution
p5193
(dp5194
g3
g682
sg137
g5174
sg140
(dp5195
g685
((lp5196
F40.069999999999709
tp5197
sg729
((lp5198
(F2.6830980777740479
I6
tp5199
a(F2.6838359832763672
I6
tp5200
a(F2.6848320960998535
I6
tp5201
a(F2.6855230331420898
I6
tp5202
a(F10.38984203338623
I6
tp5203
a(F10.391040086746216
I6
tp5204
a(F10.392045974731445
I6
tp5205
a(F10.392719030380249
I6
tp5206
a(F10.71639609336853
I6
tp5207
a(F10.717711925506592
I6
tp5208
a(F10.718961954116821
I6
tp5209
a(F10.720003128051758
I6
tp5210
a(F13.784654140472412
I6
tp5211
a(F13.785891056060791
I6
tp5212
a(F13.786680936813354
I6
tp5213
a(F13.787609100341797
I6
tp5214
a(F20.635322093963623
I6
tp5215
a(F20.636003971099854
I6
tp5216
a(F20.637150049209595
I6
tp5217
a(F20.638092994689941
I6
tp5218
a(F22.746483087539673
I5
tp5219
a(F22.74721097946167
I5
tp5220
a(F22.748263120651245
I5
tp5221
a(F22.749151945114136
I5
tp5222
a(F23.823532104492188
I5
tp5223
a(F23.824290037155151
I5
tp5224
a(F23.825104951858521
I5
tp5225
a(F23.826117992401123
I5
tp5226
aF40.270000000000437
tp5227
sg774
((lp5228
F40.079999999999927
tp5229
sg817
((lp5230
F40.049999999999272
tp5231
ssba(imeasure_core
ProblemSetSolution
p5232
(dp5233
g3
g1298
sg137
g5174
sg140
(dp5234
g1301
((lp5235
F40.670000000000073
tp5236
sg1358
((lp5237
F40.600000000000364
tp5238
sg1407
((lp5239
F40.409999999999854
tp5240
sg1468
((lp5241
F40.690000000000509
tp5242
ssba(imeasure_core
ProblemSetSolution
p5243
(dp5244
g3
g1526
sg137
g5174
sg140
(dp5245
g1765
((lp5246
F40.069999999999709
tp5247
sg1780
((lp5248
F40.049999999999272
tp5249
sg1529
((lp5250
F12.649999999999636
tp5251
sg1795
((lp5252
F0.010000000000218279
tp5253
sg1555
((lp5254
F0.19999999999890861
tp5255
sg1570
((lp5256
F39.989999999999782
tp5257
sg1582
((lp5258
F1.5900000000001455
tp5259
sg1836
((lp5260
F0.68000000000029104
tp5261
sg1806
((lp5262
F0.0
tp5263
sg1611
((lp5264
F1.820000000001528
tp5265
sg1633
((lp5266
F14.259999999998399
tp5267
sg1654
((lp5268
F2.7600000000002183
tp5269
sg1694
((lp5270
F1.3800000000010186
tp5271
sg1716
((lp5272
(F0.0031158924102783203
I2
tp5273
aF0.34000000000014552
tp5274
sg1727
((lp5275
F0.10999999999876309
tp5276
sg1754
((lp5277
F0.72000000000116415
tp5278
sg1821
((lp5279
F40.079999999999927
tp5280
ssba(imeasure_core
ProblemSetSolution
p5281
(dp5282
g3
g4
sg137
S'AnytimeBest-d400_with_LinearHeuristic'
p5283
sg140
(dp5284
g8
((lp5285
F40.170000000000073
tp5286
sg48
((lp5287
(F39.721862077713013
I12
tp5288
a(F39.745198011398315
I12
tp5289
aF40.069999999999709
tp5290
sg78
((lp5291
F40.090000000000146
tp5292
sg105
((lp5293
(F1.926055908203125
I6
tp5294
a(F1.9267239570617676
I6
tp5295
a(F1.9270319938659668
I6
tp5296
a(F1.9278328418731689
I6
tp5297
a(F1.9290928840637207
I6
tp5298
a(F1.9300467967987061
I6
tp5299
a(F1.9310529232025146
I6
tp5300
aF40.309999999999491
tp5301
ssba(imeasure_core
ProblemSetSolution
p5302
(dp5303
g3
g682
sg137
g5283
sg140
(dp5304
g685
((lp5305
F40.069999999999709
tp5306
sg729
((lp5307
(F2.6656599044799805
I6
tp5308
a(F2.6663980484008789
I6
tp5309
a(F2.667396068572998
I6
tp5310
a(F2.6680889129638672
I6
tp5311
a(F10.416827917098999
I6
tp5312
a(F10.418026924133301
I6
tp5313
a(F10.419036865234375
I6
tp5314
a(F10.419715881347656
I6
tp5315
a(F10.743725061416626
I6
tp5316
a(F10.745038986206055
I6
tp5317
a(F10.746284961700439
I6
tp5318
a(F10.747328042984009
I6
tp5319
a(F13.809147834777832
I6
tp5320
a(F13.810361862182617
I6
tp5321
a(F13.811147928237915
I6
tp5322
a(F13.812053918838501
I6
tp5323
a(F20.684736013412476
I6
tp5324
a(F20.685422897338867
I6
tp5325
a(F20.686569929122925
I6
tp5326
a(F20.687520027160645
I6
tp5327
a(F22.802803039550781
I5
tp5328
a(F22.803534030914307
I5
tp5329
a(F22.80459189414978
I5
tp5330
a(F22.805486917495728
I5
tp5331
a(F23.884044885635376
I5
tp5332
a(F23.884806871414185
I5
tp5333
a(F23.885622978210449
I5
tp5334
a(F23.886647939682007
I5
tp5335
aF40.280000000000655
tp5336
sg774
((lp5337
F40.069999999999709
tp5338
sg817
((lp5339
F40.050000000001091
tp5340
ssba(imeasure_core
ProblemSetSolution
p5341
(dp5342
g3
g1298
sg137
g5283
sg140
(dp5343
g1301
((lp5344
F40.770000000000437
tp5345
sg1358
((lp5346
F40.739999999999782
tp5347
sg1407
((lp5348
F40.5
tp5349
sg1468
((lp5350
F57.590000000000146
tp5351
ssba(imeasure_core
ProblemSetSolution
p5352
(dp5353
g3
g1526
sg137
g5283
sg140
(dp5354
g1765
((lp5355
F40.059999999999491
tp5356
sg1780
((lp5357
F40.050000000001091
tp5358
sg1529
((lp5359
F12.5
tp5360
sg1795
((lp5361
F0.010000000000218279
tp5362
sg1555
((lp5363
F0.19000000000050932
tp5364
sg1570
((lp5365
F40.0
tp5366
sg1582
((lp5367
F1.5599999999994907
tp5368
sg1836
((lp5369
F0.68000000000029104
tp5370
sg1806
((lp5371
F0.0
tp5372
sg1611
((lp5373
F1.8000000000010914
tp5374
sg1633
((lp5375
F14.049999999999272
tp5376
sg1654
((lp5377
F2.7299999999995634
tp5378
sg1694
((lp5379
F1.3600000000005821
tp5380
sg1716
((lp5381
(F0.0030589103698730469
I2
tp5382
aF0.32999999999992724
tp5383
sg1727
((lp5384
F0.1000000000003638
tp5385
sg1754
((lp5386
F0.71999999999934516
tp5387
sg1821
((lp5388
F40.079999999999927
tp5389
ssba.