(lp0
(imeasure_core
ProblemSetSolution
p1
(dp2
S'roomset'
p3
(imeasure_core
RoomSet
p4
(dp5
S'rooms'
p6
(dp7
(iproblems
RoomID
p8
(dp9
S'dusts'
p10
I8
sS'obstacles'
p11
(I5
I7
tp12
sS'robots'
p13
I5
sS'height'
p14
I9
sS'width'
p15
I10
sS'seed'
p16
I5594871498841892311
sb(imulti_robot_problem
MultiRobotState
p17
(dp18
S'obstacle_locations'
p19
c__builtin__
frozenset
p20
((lp21
(I4
I7
tp22
a(I3
I6
tp23
a(I5
I1
tp24
a(I1
I0
tp25
ag12
a(I8
I3
tp26
a(I5
I8
tp27
atp28
Rp29
sg15
I10
sS'dirt_locations'
p30
g20
((lp31
(I0
I1
tp32
a(I9
I0
tp33
a(I8
I2
tp34
a(I6
I0
tp35
a(I1
I1
tp36
a(I1
I5
tp37
a(I9
I4
tp38
a(I2
I4
tp39
atp40
Rp41
sg13
((I7
I6
tp42
(I8
I4
tp43
(I5
I4
tp44
(I7
I2
tp45
(I7
I8
tp46
tp47
sg14
I9
sbs(iproblems
RoomID
p48
(dp49
g10
I6
sg11
(I4
I4
tp50
sg13
I5
sg14
I7
sg15
I8
sg16
I8833747186876682921
sb(imulti_robot_problem
MultiRobotState
p51
(dp52
g19
g20
((lp53
(I2
I2
tp54
ag50
a(I3
I4
tp55
a(I3
I3
tp56
a(I3
I5
tp57
atp58
Rp59
sg15
I8
sg30
g20
((lp60
(I6
I4
tp61
a(I5
I4
tp62
a(I1
I3
tp63
a(I5
I1
tp64
a(I0
I3
tp65
a(I5
I3
tp66
atp67
Rp68
sg13
((I2
I1
tp69
(I6
I1
tp70
(I3
I1
tp71
(I5
I0
tp72
(I7
I3
tp73
tp74
sg14
I7
sbs(iproblems
RoomID
p75
(dp76
g10
I5
sg11
(I6
I4
tp77
sg13
I2
sg14
I8
sg15
I10
sg16
I1662056218554549082
sb(imulti_robot_problem
MultiRobotState
p78
(dp79
g19
g20
((lp80
g77
a(I4
I6
tp81
a(I3
I6
tp82
a(I4
I4
tp83
a(I9
I6
tp84
a(I5
I5
tp85
atp86
Rp87
sg15
I10
sg30
g20
((lp88
(I4
I5
tp89
a(I8
I3
tp90
a(I8
I4
tp91
a(I7
I7
tp92
a(I3
I3
tp93
atp94
Rp95
sg13
((I9
I3
tp96
(I2
I0
tp97
tp98
sg14
I8
sbs(iproblems
RoomID
p99
(dp100
g10
I7
sg11
(I5
I2
tp101
sg13
I5
sg14
I8
sg15
I9
sg16
I365562409358139953
sb(imulti_robot_problem
MultiRobotState
p102
(dp103
g19
g20
((lp104
(I6
I4
tp105
a(I5
I5
tp106
a(I2
I1
tp107
a(I3
I7
tp108
a(I2
I5
tp109
ag101
a(I0
I2
tp110
a(I5
I3
tp111
atp112
Rp113
sg15
I9
sg30
g20
((lp114
(I2
I0
tp115
a(I1
I6
tp116
a(I8
I2
tp117
a(I4
I5
tp118
a(I8
I6
tp119
a(I5
I7
tp120
a(I3
I4
tp121
atp122
Rp123
sg13
((I4
I2
tp124
(I8
I3
tp125
(I6
I3
tp126
(I2
I4
tp127
(I6
I7
tp128
tp129
sg14
I8
sbs(iproblems
RoomID
p130
(dp131
g10
I6
sg11
(I2
I3
tp132
sg13
I1
sg14
I8
sg15
I8
sg16
I1085536589165212248
sb(imulti_robot_problem
MultiRobotState
p133
(dp134
g19
g20
((lp135
(I1
I5
tp136
ag132
a(I1
I4
tp137
a(I1
I6
tp138
a(I0
I7
tp139
a(I4
I0
tp140
atp141
Rp142
sg15
I8
sg30
g20
((lp143
(I0
I1
tp144
a(I1
I2
tp145
a(I7
I3
tp146
a(I5
I1
tp147
a(I6
I0
tp148
a(I2
I1
tp149
atp150
Rp151
sg13
((I3
I2
tp152
tp153
sg14
I8
sbssS'name'
p154
S'easy_roomset'
p155
sbsg154
S"AnytimeBeam-w20-gf(2, 'lin')_with_PowerHeuristic2"
p156
sS'solutions'
p157
(dp158
g8
((lp159
(F2.7800000000024738
I13
tp160
aF40.06000000000131
tp161
sg48
((lp162
(F0.65999999999985448
I4
tp163
aF40.150000000001455
tp164
sg75
((lp165
(F0.029999999998835847
I7
tp166
aF40.009999999998399
tp167
sg99
((lp168
F40.159999999999854
tp169
sg130
((lp170
(F0.060000000001309672
I30
tp171
a(F0.34000000000014552
I28
tp172
a(F0.7000000000007276
I27
tp173
a(F1.0800000000017462
I25
tp174
a(F1.4099999999998545
I23
tp175
a(F2.1300000000010186
I21
tp176
a(F3.2000000000007276
I20
tp177
a(F4.6300000000010186
I19
tp178
a(F6.2999999999992724
I17
tp179
a(F7.930000000000291
I15
tp180
aF40.0
tp181
ssba(imeasure_core
ProblemSetSolution
p182
(dp183
g3
(imeasure_core
RoomSet
p184
(dp185
g6
(dp186
(iproblems
RoomID
p187
(dp188
g10
I8
sg11
(I9
I3
tp189
sg13
I4
sg14
I11
sg15
I12
sg16
I5594871498841892311
sb(imulti_robot_problem
MultiRobotState
p190
(dp191
g19
g20
((lp192
(I5
I9
tp193
a(I6
I9
tp194
a(I11
I9
tp195
a(I9
I1
tp196
a(I4
I8
tp197
a(I8
I0
tp198
a(I6
I0
tp199
a(I9
I9
tp200
ag189
a(I9
I4
tp201
a(I4
I2
tp202
a(I3
I7
tp203
a(I5
I8
tp204
a(I7
I9
tp205
a(I10
I8
tp206
a(I9
I0
tp207
a(I7
I0
tp208
a(I6
I8
tp209
a(I9
I2
tp210
a(I5
I7
tp211
a(I8
I10
tp212
a(I2
I0
tp213
a(I5
I0
tp214
a(I0
I9
tp215
a(I10
I0
tp216
a(I10
I2
tp217
atp218
Rp219
sg15
I12
sg30
g20
((lp220
(I2
I6
tp221
a(I11
I5
tp222
a(I6
I1
tp223
a(I11
I1
tp224
a(I2
I1
tp225
a(I8
I8
tp226
a(I0
I2
tp227
a(I3
I5
tp228
atp229
Rp230
sg13
((I9
I7
tp231
(I10
I5
tp232
(I6
I5
tp233
(I8
I3
tp234
tp235
sg14
I11
sbs(iproblems
RoomID
p236
(dp237
g10
I6
sg11
(I9
I4
tp238
sg13
I4
sg14
I9
sg15
I10
sg16
I8833747186876682921
sb(imulti_robot_problem
MultiRobotState
p239
(dp240
g19
g20
((lp241
(I4
I7
tp242
a(I4
I8
tp243
a(I4
I5
tp244
a(I2
I1
tp245
a(I7
I5
tp246
a(I2
I3
tp247
ag238
a(I2
I5
tp248
a(I6
I5
tp249
a(I3
I5
tp250
a(I2
I7
tp251
a(I8
I3
tp252
a(I5
I5
tp253
a(I3
I4
tp254
a(I7
I4
tp255
a(I5
I6
tp256
a(I8
I8
tp257
a(I3
I6
tp258
a(I4
I1
tp259
a(I1
I1
tp260
atp261
Rp262
sg15
I10
sg30
g20
((lp263
(I3
I2
tp264
a(I6
I2
tp265
a(I7
I0
tp266
a(I1
I4
tp267
a(I0
I4
tp268
a(I0
I7
tp269
atp270
Rp271
sg13
((I3
I1
tp272
(I8
I1
tp273
(I3
I3
tp274
(I4
I2
tp275
tp276
sg14
I9
sbs(iproblems
RoomID
p277
(dp278
g10
I8
sg11
(I4
I6
tp279
sg13
I3
sg14
I9
sg15
I12
sg16
I4800841617172907184
sb(imulti_robot_problem
MultiRobotState
p280
(dp281
g19
g20
((lp282
(I5
I4
tp283
ag279
a(I8
I7
tp284
a(I6
I6
tp285
a(I4
I5
tp286
a(I9
I8
tp287
a(I9
I3
tp288
a(I6
I0
tp289
a(I2
I1
tp290
a(I10
I1
tp291
a(I4
I2
tp292
a(I8
I5
tp293
a(I7
I2
tp294
a(I5
I3
tp295
a(I8
I3
tp296
a(I3
I1
tp297
a(I3
I3
tp298
a(I11
I8
tp299
a(I7
I1
tp300
a(I11
I3
tp301
a(I6
I3
tp302
a(I0
I6
tp303
a(I4
I3
tp304
a(I8
I6
tp305
a(I8
I4
tp306
a(I9
I7
tp307
atp308
Rp309
sg15
I12
sg30
g20
((lp310
(I11
I4
tp311
a(I8
I2
tp312
a(I10
I7
tp313
a(I7
I6
tp314
a(I1
I4
tp315
a(I11
I0
tp316
a(I9
I2
tp317
a(I0
I2
tp318
atp319
Rp320
sg13
((I9
I1
tp321
(I0
I4
tp322
(I7
I4
tp323
tp324
sg14
I9
sbs(iproblems
RoomID
p325
(dp326
g10
I7
sg11
(I8
I4
tp327
sg13
I4
sg14
I10
sg15
I11
sg16
I365562409358139953
sb(imulti_robot_problem
MultiRobotState
p328
(dp329
g19
g20
((lp330
(I7
I3
tp331
a(I8
I7
tp332
a(I4
I8
tp333
a(I2
I8
tp334
a(I5
I9
tp335
a(I6
I2
tp336
a(I1
I6
tp337
a(I9
I4
tp338
a(I6
I4
tp339
a(I9
I6
tp340
a(I6
I5
tp341
a(I10
I8
tp342
a(I10
I5
tp343
a(I6
I7
tp344
a(I10
I7
tp345
a(I7
I6
tp346
a(I3
I1
tp347
a(I0
I5
tp348
a(I3
I8
tp349
a(I7
I5
tp350
a(I8
I6
tp351
ag327
a(I5
I2
tp352
a(I6
I1
tp353
a(I9
I7
tp354
atp355
Rp356
sg15
I11
sg30
g20
((lp357
(I5
I6
tp358
a(I6
I9
tp359
a(I1
I7
tp360
a(I4
I5
tp361
a(I10
I3
tp362
a(I0
I2
tp363
a(I2
I1
tp364
atp365
Rp366
sg13
((I10
I4
tp367
(I7
I4
tp368
(I3
I6
tp369
(I8
I9
tp370
tp371
sg14
I10
sbs(iproblems
RoomID
p372
(dp373
g10
I10
sg11
(I4
I8
tp374
sg13
I3
sg14
I11
sg15
I9
sg16
I6645345695289302126
sb(imulti_robot_problem
MultiRobotState
p375
(dp376
g19
g20
((lp377
(I5
I9
tp378
a(I3
I2
tp379
a(I3
I1
tp380
ag374
a(I4
I5
tp381
a(I1
I4
tp382
a(I4
I2
tp383
a(I3
I7
tp384
a(I4
I6
tp385
a(I3
I3
tp386
a(I4
I1
tp387
a(I6
I1
tp388
a(I4
I4
tp389
a(I2
I4
tp390
a(I3
I8
tp391
a(I1
I5
tp392
a(I4
I3
tp393
a(I3
I5
tp394
a(I3
I4
tp395
a(I1
I1
tp396
a(I8
I4
tp397
atp398
Rp399
sg15
I9
sg30
g20
((lp400
(I0
I1
tp401
a(I5
I4
tp402
a(I6
I7
tp403
a(I8
I2
tp404
a(I8
I7
tp405
a(I8
I8
tp406
a(I2
I3
tp407
a(I3
I6
tp408
a(I1
I0
tp409
a(I5
I5
tp410
atp411
Rp412
sg13
((I1
I6
tp413
(I0
I9
tp414
(I0
I5
tp415
tp416
sg14
I11
sbssg154
S'mild_roomset'
p417
sbsg154
g156
sg157
(dp418
g187
((lp419
(F2.4099999999998545
I32
tp420
aF40.069999999999709
tp421
sg236
((lp422
(F3.2400000000016007
I32
tp423
aF40.020000000000437
tp424
sg277
((lp425
(F0.32999999999810825
I17
tp426
aF40.009999999998399
tp427
sg325
((lp428
(F0.73000000000320142
I25
tp429
aF40.040000000000873
tp430
sg372
((lp431
(F25.740000000001601
I84
tp432
aF40.0
tp433
ssba(imeasure_core
ProblemSetSolution
p434
(dp435
g3
(imeasure_core
RoomSet
p436
(dp437
g6
(dp438
(iproblems
RoomID
p439
(dp440
g10
I13
sg11
(I9
I8
tp441
sg13
I7
sg14
I12
sg15
I13
sg16
I5594871498841892311
sb(imulti_robot_problem
MultiRobotState
p442
(dp443
g19
g20
((lp444
(I5
I9
tp445
a(I6
I9
tp446
a(I1
I3
tp447
a(I10
I4
tp448
a(I4
I8
tp449
ag441
a(I1
I4
tp450
a(I11
I3
tp451
a(I8
I6
tp452
a(I9
I6
tp453
a(I5
I5
tp454
a(I9
I5
tp455
a(I6
I7
tp456
a(I6
I8
tp457
a(I6
I10
tp458
a(I8
I10
tp459
a(I5
I0
tp460
a(I10
I0
tp461
a(I7
I9
tp462
a(I9
I7
tp463
atp464
Rp465
sg15
I13
sg30
g20
((lp466
(I2
I7
tp467
a(I10
I5
tp468
a(I11
I5
tp469
a(I6
I1
tp470
a(I8
I0
tp471
a(I2
I1
tp472
a(I2
I0
tp473
a(I0
I10
tp474
a(I7
I10
tp475
a(I12
I10
tp476
a(I5
I2
tp477
a(I0
I2
tp478
a(I3
I5
tp479
atp480
Rp481
sg13
((I10
I8
tp482
(I11
I6
tp483
(I7
I5
tp484
(I9
I3
tp485
(I9
I11
tp486
(I12
I1
tp487
(I9
I9
tp488
tp489
sg14
I12
sbs(iproblems
RoomID
p490
(dp491
g10
I11
sg11
(I8
I7
tp492
sg13
I7
sg14
I10
sg15
I11
sg16
I8833747186876682921
sb(imulti_robot_problem
MultiRobotState
p493
(dp494
g19
g20
((lp495
(I5
I7
tp496
a(I4
I8
tp497
a(I4
I5
tp498
a(I2
I1
tp499
ag492
a(I5
I1
tp500
a(I5
I5
tp501
a(I6
I7
tp502
a(I4
I6
tp503
a(I8
I1
tp504
a(I4
I4
tp505
a(I6
I3
tp506
a(I8
I8
tp507
a(I3
I3
tp508
a(I7
I8
tp509
a(I10
I2
tp510
atp511
Rp512
sg15
I11
sg30
g20
((lp513
(I10
I5
tp514
a(I7
I6
tp515
a(I4
I7
tp516
a(I1
I4
tp517
a(I9
I9
tp518
a(I3
I8
tp519
a(I0
I5
tp520
a(I8
I6
tp521
a(I2
I5
tp522
a(I0
I8
tp523
a(I7
I2
tp524
atp525
Rp526
sg13
((I3
I1
tp527
(I9
I1
tp528
(I5
I2
tp529
(I4
I3
tp530
(I8
I0
tp531
(I10
I4
tp532
(I8
I5
tp533
tp534
sg14
I10
sbs(iproblems
RoomID
p535
(dp536
g10
I12
sg11
(I0
I5
tp537
sg13
I7
sg14
I11
sg15
I12
sg16
I365562409358139953
sb(imulti_robot_problem
MultiRobotState
p538
(dp539
g19
g20
((lp540
(I1
I3
tp541
a(I6
I6
tp542
a(I0
I4
tp543
a(I7
I5
tp544
ag537
a(I8
I7
tp545
a(I4
I2
tp546
a(I2
I9
tp547
a(I10
I7
tp548
a(I7
I8
tp549
a(I7
I6
tp550
a(I3
I1
tp551
a(I4
I8
tp552
a(I3
I9
tp553
a(I2
I2
tp554
a(I8
I6
tp555
a(I5
I2
tp556
a(I11
I6
tp557
a(I8
I4
tp558
atp559
Rp560
sg15
I12
sg30
g20
((lp561
(I3
I2
tp562
a(I11
I9
tp563
a(I4
I9
tp564
a(I10
I4
tp565
a(I5
I7
tp566
a(I2
I1
tp567
a(I0
I6
tp568
a(I1
I6
tp569
a(I7
I10
tp570
a(I3
I7
tp571
a(I5
I10
tp572
a(I0
I2
tp573
atp574
Rp575
sg13
((I6
I3
tp576
(I10
I5
tp577
(I3
I6
tp578
(I8
I10
tp579
(I4
I6
tp580
(I11
I3
tp581
(I1
I8
tp582
tp583
sg14
I11
sbs(iproblems
RoomID
p584
(dp585
g10
I13
sg11
(I3
I8
tp586
sg13
I5
sg14
I10
sg15
I10
sg16
I5338040351619750409
sb(imulti_robot_problem
MultiRobotState
p587
(dp588
g19
g20
((lp589
(I4
I7
tp590
a(I2
I6
tp591
a(I9
I1
tp592
a(I2
I8
tp593
a(I6
I1
tp594
a(I1
I4
tp595
ag586
a(I1
I6
tp596
a(I4
I3
tp597
a(I1
I7
tp598
a(I2
I5
tp599
a(I9
I7
tp600
a(I2
I4
tp601
a(I6
I8
tp602
atp603
Rp604
sg15
I10
sg30
g20
((lp605
(I6
I9
tp606
a(I1
I3
tp607
a(I4
I9
tp608
a(I4
I6
tp609
a(I6
I6
tp610
a(I8
I3
tp611
a(I2
I1
tp612
a(I8
I9
tp613
a(I1
I8
tp614
a(I7
I5
tp615
a(I3
I6
tp616
a(I9
I6
tp617
a(I4
I0
tp618
atp619
Rp620
sg13
((I2
I0
tp621
(I3
I5
tp622
(I5
I0
tp623
(I5
I2
tp624
(I4
I5
tp625
tp626
sg14
I10
sbs(iproblems
RoomID
p627
(dp628
g10
I11
sg11
(I4
I6
tp629
sg13
I5
sg14
I11
sg15
I11
sg16
I1085536589165212248
sb(imulti_robot_problem
MultiRobotState
p630
(dp631
g19
g20
((lp632
(I10
I5
tp633
a(I2
I6
tp634
ag629
a(I9
I3
tp635
a(I3
I2
tp636
a(I9
I9
tp637
a(I1
I8
tp638
a(I1
I9
tp639
a(I1
I7
tp640
a(I3
I7
tp641
a(I6
I9
tp642
a(I5
I8
tp643
a(I3
I3
tp644
atp645
Rp646
sg15
I11
sg30
g20
((lp647
(I0
I1
tp648
a(I4
I9
tp649
a(I10
I4
tp650
a(I10
I7
tp651
a(I6
I0
tp652
a(I0
I7
tp653
a(I2
I3
tp654
a(I1
I4
tp655
a(I2
I2
tp656
a(I10
I0
tp657
a(I0
I10
tp658
atp659
Rp660
sg13
((I5
I3
tp661
(I0
I2
tp662
(I3
I1
tp663
(I7
I1
tp664
(I9
I0
tp665
tp666
sg14
I11
sbssg154
S'heavy_roomset'
p667
sbsg154
g156
sg157
(dp668
g439
((lp669
F41.069999999999709
tp670
sg490
((lp671
(F31.219999999997526
I19
tp672
aF43.599999999998545
tp673
sg535
((lp674
F40.740000000001601
tp675
sg584
((lp676
(F5.1499999999978172
I16
tp677
aF40.219999999997526
tp678
sg627
((lp679
(F5.1399999999994179
I15
tp680
aF40.210000000002765
tp681
ssba(imeasure_core
ProblemSetSolution
p682
(dp683
g3
g4
sg154
S"AnytimeBeam-w20-gf(4, 'lin')_with_PowerHeuristic2"
p684
sg157
(dp685
g8
((lp686
(F2.7700000000004366
I13
tp687
aF40.099999999998545
tp688
sg48
((lp689
(F0.78000000000247383
I4
tp690
aF40.180000000000291
tp691
sg75
((lp692
(F0.030000000002473826
I7
tp693
aF40.0
tp694
sg99
((lp695
F41.120000000002619
tp696
sg130
((lp697
(F0.069999999999708962
I30
tp698
a(F0.34000000000014552
I28
tp699
a(F0.69999999999708962
I27
tp700
a(F1.0799999999981083
I25
tp701
a(F1.4099999999998545
I23
tp702
a(F2.1299999999973807
I21
tp703
a(F3.1999999999970896
I20
tp704
a(F4.6299999999973807
I19
tp705
a(F6.3099999999976717
I17
tp706
a(F7.930000000000291
I15
tp707
aF40.0
tp708
ssba(imeasure_core
ProblemSetSolution
p709
(dp710
g3
g184
sg154
g684
sg157
(dp711
g187
((lp712
(F2.8400000000001455
I32
tp713
aF40.169999999998254
tp714
sg236
((lp715
(F3.7099999999991269
I32
tp716
aF40.040000000000873
tp717
sg277
((lp718
(F0.38999999999941792
I17
tp719
aF40.009999999998399
tp720
sg325
((lp721
(F0.74000000000160071
I25
tp722
aF40.030000000002474
tp723
sg372
((lp724
(F34.859999999996944
I99
tp725
aF40.0
tp726
ssba(imeasure_core
ProblemSetSolution
p727
(dp728
g3
g436
sg154
g684
sg157
(dp729
g439
((lp730
F42.519999999996799
tp731
sg490
((lp732
(F34.780000000002474
I19
tp733
aF42.260000000002037
tp734
sg535
((lp735
F40.779999999998836
tp736
sg584
((lp737
(F5.819999999999709
I16
tp738
aF40.5
tp739
sg627
((lp740
(F6.1900000000023283
I15
tp741
aF40.360000000000582
tp742
ssba(imeasure_core
ProblemSetSolution
p743
(dp744
g3
g4
sg154
S"AnytimeBeam-w20-gf(8, 'lin')_with_PowerHeuristic2"
p745
sg157
(dp746
g8
((lp747
(F2.7799999999988358
I13
tp748
aF40.349999999998545
tp749
sg48
((lp750
(F0.90999999999985448
I4
tp751
aF40.220000000001164
tp752
sg75
((lp753
(F0.039999999997235136
I7
tp754
aF40.009999999998399
tp755
sg99
((lp756
F40.240000000001601
tp757
sg130
((lp758
(F0.069999999999708962
I30
tp759
a(F0.34999999999854481
I28
tp760
a(F0.69999999999708962
I27
tp761
a(F1.0799999999981083
I25
tp762
a(F1.4099999999998545
I23
tp763
a(F2.1299999999973807
I21
tp764
a(F3.2099999999991269
I20
tp765
a(F4.6399999999994179
I19
tp766
a(F6.3299999999981083
I17
tp767
a(F7.9499999999970896
I15
tp768
aF40.0
tp769
ssba(imeasure_core
ProblemSetSolution
p770
(dp771
g3
g184
sg154
g745
sg157
(dp772
g187
((lp773
(F3.6199999999989814
I32
tp774
aF40.099999999998545
tp775
sg236
((lp776
(F4.4399999999986903
I32
tp777
aF40.130000000001019
tp778
sg277
((lp779
(F0.40999999999985448
I17
tp780
aF40.099999999998545
tp781
sg325
((lp782
(F0.72999999999956344
I25
tp783
aF40.119999999998981
tp784
sg372
((lp785
F40.040000000000873
tp786
ssba(imeasure_core
ProblemSetSolution
p787
(dp788
g3
g436
sg154
g745
sg157
(dp789
g439
((lp790
F42.420000000001892
tp791
sg490
((lp792
F40.819999999999709
tp793
sg535
((lp794
F40.919999999998254
tp795
sg584
((lp796
(F6.5300000000024738
I16
tp797
aF40.409999999999854
tp798
sg627
((lp799
(F7.1300000000010186
I15
tp800
aF41.010000000002037
tp801
ssba(imeasure_core
ProblemSetSolution
p802
(dp803
g3
g4
sg154
S"AnytimeBeam-w20-gf(16, 'lin')_with_PowerHeuristic2"
p804
sg157
(dp805
g8
((lp806
(F2.7900000000008731
I13
tp807
aF40.049999999999272
tp808
sg48
((lp809
(F1.1200000000026193
I4
tp810
aF40.340000000000146
tp811
sg75
((lp812
(F0.030000000002473826
I7
tp813
aF40.0
tp814
sg99
((lp815
F40.409999999999854
tp816
sg130
((lp817
(F0.060000000001309672
I30
tp818
a(F0.34000000000014552
I28
tp819
a(F0.69000000000232831
I27
tp820
a(F1.069999999999709
I25
tp821
a(F1.4000000000014552
I23
tp822
a(F2.1200000000026193
I21
tp823
a(F3.2000000000007276
I20
tp824
a(F4.6200000000026193
I19
tp825
a(F6.3000000000029104
I17
tp826
a(F7.9000000000014552
I15
tp827
aF40.0
tp828
ssba(imeasure_core
ProblemSetSolution
p829
(dp830
g3
g184
sg154
g804
sg157
(dp831
g187
((lp832
(F4.6599999999998545
I32
tp833
aF40.080000000001746
tp834
sg236
((lp835
(F4.7200000000011642
I32
tp836
aF40.229999999999563
tp837
sg277
((lp838
(F0.40999999999985448
I17
tp839
aF40.009999999998399
tp840
sg325
((lp841
(F0.73000000000320142
I25
tp842
aF40.040000000000873
tp843
sg372
((lp844
F40.010000000002037
tp845
ssba(imeasure_core
ProblemSetSolution
p846
(dp847
g3
g436
sg154
g804
sg157
(dp848
g439
((lp849
F40.43999999999869
tp850
sg490
((lp851
F41.490000000001601
tp852
sg535
((lp853
F41.75
tp854
sg584
((lp855
(F6.9199999999982538
I16
tp856
aF40.130000000001019
tp857
sg627
((lp858
(F7.6699999999982538
I15
tp859
aF40.159999999999854
tp860
ssba(imeasure_core
ProblemSetSolution
p861
(dp862
g3
g4
sg154
S"AnytimeBeam-w20-gf(2, 'lin')_with_LinearHeuristic"
p863
sg157
(dp864
g8
((lp865
F40.100000000002183
tp866
sg48
((lp867
(F0.93999999999869033
I4
tp868
aF40.009999999998399
tp869
sg75
((lp870
(F0.040000000000873115
I7
tp871
aF40.0
tp872
sg99
((lp873
(F4.9099999999998545
I17
tp874
aF40.630000000001019
tp875
sg130
((lp876
(F0.0099999999983992893
I15
tp877
aF40.0
tp878
ssba(imeasure_core
ProblemSetSolution
p879
(dp880
g3
g184
sg154
g863
sg157
(dp881
g187
((lp882
F40.209999999999127
tp883
sg236
((lp884
F40.069999999999709
tp885
sg277
((lp886
F40.06000000000131
tp887
sg325
((lp888
F40.200000000000728
tp889
sg372
((lp890
F40.020000000000437
tp891
ssba(imeasure_core
ProblemSetSolution
p892
(dp893
g3
g436
sg154
g863
sg157
(dp894
g439
((lp895
F42.059999999997672
tp896
sg490
((lp897
F41.070000000003347
tp898
sg535
((lp899
F40.179999999996653
tp900
sg584
((lp901
F40.150000000001455
tp902
sg627
((lp903
F40.040000000000873
tp904
ssba(imeasure_core
ProblemSetSolution
p905
(dp906
g3
g4
sg154
S"AnytimeBeam-w20-gf(4, 'lin')_with_LinearHeuristic"
p907
sg157
(dp908
g8
((lp909
F41.009999999998399
tp910
sg48
((lp911
(F0.9500000000007276
I4
tp912
aF40.229999999999563
tp913
sg75
((lp914
(F0.050000000002910383
I7
tp915
aF40.0
tp916
sg99
((lp917
(F5.819999999999709
I17
tp918
aF40.780000000002474
tp919
sg130
((lp920
(F0.0099999999983992893
I15
tp921
aF40.0
tp922
ssba(imeasure_core
ProblemSetSolution
p923
(dp924
g3
g184
sg154
g907
sg157
(dp925
g187
((lp926
F40.180000000000291
tp927
sg236
((lp928
F40.43999999999869
tp929
sg277
((lp930
F40.110000000000582
tp931
sg325
((lp932
F40.209999999999127
tp933
sg372
((lp934
F40.130000000001019
tp935
ssba(imeasure_core
ProblemSetSolution
p936
(dp937
g3
g436
sg154
g907
sg157
(dp938
g439
((lp939
F43.81000000000131
tp940
sg490
((lp941
F40.450000000000728
tp942
sg535
((lp943
F40.229999999999563
tp944
sg584
((lp945
F40.129999999997381
tp946
sg627
((lp947
F40.140000000003056
tp948
ssba(imeasure_core
ProblemSetSolution
p949
(dp950
g3
g4
sg154
S"AnytimeBeam-w20-gf(8, 'lin')_with_LinearHeuristic"
p951
sg157
(dp952
g8
((lp953
F40.909999999999854
tp954
sg48
((lp955
(F0.97000000000116415
I4
tp956
aF40.100000000002183
tp957
sg75
((lp958
(F0.049999999999272404
I7
tp959
aF40.0
tp960
sg99
((lp961
(F6.6799999999966531
I17
tp962
aF40.119999999998981
tp963
sg130
((lp964
(F0.0099999999983992893
I15
tp965
aF40.0
tp966
ssba(imeasure_core
ProblemSetSolution
p967
(dp968
g3
g184
sg154
g951
sg157
(dp969
g187
((lp970
F40.069999999999709
tp971
sg236
((lp972
F40.270000000000437
tp973
sg277
((lp974
F40.079999999998108
tp975
sg325
((lp976
F40.049999999999272
tp977
sg372
((lp978
F40.010000000002037
tp979
ssba(imeasure_core
ProblemSetSolution
p980
(dp981
g3
g436
sg154
g951
sg157
(dp982
g439
((lp983
F45.630000000001019
tp984
sg490
((lp985
F40.649999999997817
tp986
sg535
((lp987
F40.220000000001164
tp988
sg584
((lp989
F40.150000000001455
tp990
sg627
((lp991
F40.329999999998108
tp992
ssba(imeasure_core
ProblemSetSolution
p993
(dp994
g3
g4
sg154
S"AnytimeBeam-w20-gf(16, 'lin')_with_LinearHeuristic"
p995
sg157
(dp996
g8
((lp997
F40.920000000001892
tp998
sg48
((lp999
(F1.0799999999981083
I4
tp1000
aF40.409999999999854
tp1001
sg75
((lp1002
(F0.039999999997235136
I7
tp1003
aF40.0
tp1004
sg99
((lp1005
(F7.5099999999983993
I17
tp1006
aF40.299999999999272
tp1007
sg130
((lp1008
(F0.0099999999983992893
I15
tp1009
aF40.0
tp1010
ssba(imeasure_core
ProblemSetSolution
p1011
(dp1012
g3
g184
sg154
g995
sg157
(dp1013
g187
((lp1014
F40.139999999999418
tp1015
sg236
((lp1016
F40.360000000000582
tp1017
sg277
((lp1018
F40.0
tp1019
sg325
((lp1020
F40.020000000000437
tp1021
sg372
((lp1022
F40.0
tp1023
ssba(imeasure_core
ProblemSetSolution
p1024
(dp1025
g3
g436
sg154
g995
sg157
(dp1026
g439
((lp1027
F47.319999999999709
tp1028
sg490
((lp1029
F42.159999999999854
tp1030
sg535
((lp1031
F42.759999999998399
tp1032
sg584
((lp1033
F40.150000000001455
tp1034
sg627
((lp1035
F40.369999999998981
tp1036
ssba.