(lp0
(imeasure_core
ProblemSetSolution
p1
(dp2
S'roomset'
p3
(imeasure_core
RoomSet
p4
(dp5
S'rooms'
p6
(dp7
(iproblems
RoomID
p8
(dp9
S'dusts'
p10
I6
sS'obstacles'
p11
(I0
I4
tp12
sS'robots'
p13
I1
sS'height'
p14
I9
sS'width'
p15
I9
sS'seed'
p16
I1164115433906158532
sb(imulti_robot_problem
MultiRobotState
p17
(dp18
S'obstacle_locations'
p19
c__builtin__
frozenset
p20
((lp21
(I0
I1
tp22
a(I1
I2
tp23
a(I1
I3
tp24
a(I1
I4
tp25
ag12
atp26
Rp27
sg15
I9
sS'dirt_locations'
p28
g20
((lp29
(I6
I4
tp30
a(I1
I8
tp31
a(I1
I6
tp32
a(I1
I0
tp33
a(I8
I5
tp34
a(I3
I5
tp35
atp36
Rp37
sg13
((I4
I5
tp38
tp39
sg14
I9
sbs(iproblems
RoomID
p40
(dp41
g10
I8
sg11
(I6
I5
tp42
sg13
I5
sg14
I8
sg15
I7
sg16
I2175216119781798972
sb(imulti_robot_problem
MultiRobotState
p43
(dp44
g19
g20
((lp45
(I1
I2
tp46
a(I2
I6
tp47
a(I6
I7
tp48
a(I6
I6
tp49
a(I5
I7
tp50
a(I2
I3
tp51
a(I0
I4
tp52
a(I1
I0
tp53
ag42
atp54
Rp55
sg15
I7
sg28
g20
((lp56
(I5
I4
tp57
a(I5
I5
tp58
a(I4
I4
tp59
a(I0
I6
tp60
a(I0
I5
tp61
a(I1
I7
tp62
a(I4
I2
tp63
a(I0
I2
tp64
atp65
Rp66
sg13
((I1
I3
tp67
(I6
I4
tp68
(I3
I7
tp69
(I6
I0
tp70
(I2
I1
tp71
tp72
sg14
I8
sbs(iproblems
RoomID
p73
(dp74
g10
I9
sg11
(I6
I3
tp75
sg13
I4
sg14
I9
sg15
I10
sg16
I7002664860023442459
sb(imulti_robot_problem
MultiRobotState
p76
(dp77
g19
g20
((lp78
(I7
I4
tp79
a(I7
I3
tp80
ag75
a(I6
I5
tp81
a(I9
I7
tp82
atp83
Rp84
sg15
I10
sg28
g20
((lp85
(I0
I0
tp86
a(I6
I8
tp87
a(I2
I8
tp88
a(I5
I7
tp89
a(I2
I6
tp90
a(I4
I2
tp91
a(I5
I1
tp92
a(I8
I6
tp93
a(I8
I4
tp94
atp95
Rp96
sg13
((I7
I5
tp97
(I7
I6
tp98
(I1
I7
tp99
(I1
I6
tp100
tp101
sg14
I9
sbs(iproblems
RoomID
p102
(dp103
g10
I5
sg11
(I0
I4
tp104
sg13
I5
sg14
I7
sg15
I7
sg16
I8711387064946514083
sb(imulti_robot_problem
MultiRobotState
p105
(dp106
g19
g20
((lp107
(I0
I1
tp108
a(I2
I2
tp109
a(I0
I2
tp110
a(I1
I5
tp111
ag104
a(I0
I3
tp112
a(I2
I4
tp113
a(I6
I5
tp114
atp115
Rp116
sg15
I7
sg28
g20
((lp117
(I5
I6
tp118
a(I6
I4
tp119
a(I3
I2
tp120
a(I6
I1
tp121
a(I6
I6
tp122
atp123
Rp124
sg13
((I1
I1
tp125
(I6
I0
tp126
(I5
I0
tp127
(I1
I3
tp128
(I4
I5
tp129
tp130
sg14
I7
sbs(iproblems
RoomID
p131
(dp132
g10
I9
sg11
(I2
I2
tp133
sg13
I2
sg14
I9
sg15
I7
sg16
I3872982626502034966
sb(imulti_robot_problem
MultiRobotState
p134
(dp135
g19
g20
((lp136
(I4
I1
tp137
a(I2
I6
tp138
a(I3
I1
tp139
a(I5
I0
tp140
ag133
atp141
Rp142
sg15
I7
sg28
g20
((lp143
(I4
I7
tp144
a(I2
I8
tp145
a(I4
I4
tp146
a(I3
I2
tp147
a(I2
I1
tp148
a(I1
I4
tp149
a(I4
I2
tp150
a(I0
I3
tp151
a(I5
I8
tp152
atp153
Rp154
sg13
((I1
I6
tp155
(I1
I7
tp156
tp157
sg14
I9
sbssS'name'
p158
S'easy_roomset'
p159
sbsg158
S"AnytimeBeam-w5-gf(1.5, 'exp')_with_PowerHeuristic2"
p160
sS'solutions'
p161
(dp162
g8
((lp163
(F0.31000000000040018
I42
tp164
a(F4.5800000000008367
I40
tp165
a(F5.930000000000291
I34
tp166
a(F7.1100000000005821
I30
tp167
a(F8.1700000000000728
I28
tp168
a(F13.960000000000036
I26
tp169
aF40.0
tp170
sg40
((lp171
(F2.0500000000001819
I5
tp172
aF40.040000000000873
tp173
sg73
((lp174
(F1.4699999999993452
I11
tp175
aF40.319999999999709
tp176
sg102
((lp177
(F0.8499999999994543
I4
tp178
aF40.159999999999854
tp179
sg131
((lp180
(F1.5900000000001455
I66
tp181
a(F14.0600000000004
I65
tp182
a(F24.260000000000218
I64
tp183
aF40.010000000000218
tp184
ssba(imeasure_core
ProblemSetSolution
p185
(dp186
g3
(imeasure_core
RoomSet
p187
(dp188
g6
(dp189
(iproblems
RoomID
p190
(dp191
g10
I6
sg11
(I5
I5
tp192
sg13
I3
sg14
I11
sg15
I11
sg16
I1164115433906158532
sb(imulti_robot_problem
MultiRobotState
p193
(dp194
g19
g20
((lp195
(I5
I4
tp196
a(I1
I3
tp197
a(I4
I3
tp198
a(I4
I8
tp199
a(I3
I0
tp200
a(I8
I0
tp201
a(I3
I2
tp202
a(I0
I7
tp203
a(I2
I1
tp204
a(I3
I9
tp205
a(I0
I5
tp206
a(I1
I4
tp207
a(I3
I7
tp208
a(I2
I5
tp209
a(I5
I3
tp210
a(I8
I3
tp211
a(I3
I1
tp212
ag192
a(I2
I0
tp213
a(I3
I10
tp214
a(I6
I10
tp215
a(I0
I6
tp216
a(I1
I8
tp217
a(I3
I6
tp218
a(I4
I5
tp219
a(I0
I2
tp220
atp221
Rp222
sg15
I11
sg28
g20
((lp223
(I7
I5
tp224
a(I8
I8
tp225
a(I4
I9
tp226
a(I4
I6
tp227
a(I10
I6
tp228
a(I8
I2
tp229
atp230
Rp231
sg13
((I5
I7
tp232
(I2
I10
tp233
(I2
I8
tp234
tp235
sg14
I11
sbs(iproblems
RoomID
p236
(dp237
g10
I8
sg11
(I5
I4
tp238
sg13
I4
sg14
I10
sg15
I9
sg16
I2175216119781798972
sb(imulti_robot_problem
MultiRobotState
p239
(dp240
g19
g20
((lp241
(I6
I6
tp242
a(I2
I8
tp243
a(I0
I7
tp244
a(I6
I2
tp245
a(I1
I6
tp246
a(I2
I5
tp247
a(I5
I5
tp248
a(I8
I1
tp249
a(I7
I6
tp250
a(I6
I3
tp251
a(I2
I2
tp252
a(I8
I6
tp253
a(I6
I4
tp254
ag238
a(I8
I2
tp255
a(I7
I1
tp256
a(I1
I4
tp257
a(I7
I5
tp258
a(I8
I7
tp259
a(I1
I0
tp260
a(I6
I5
tp261
a(I3
I3
tp262
a(I8
I3
tp263
a(I7
I0
tp264
a(I6
I8
tp265
a(I3
I4
tp266
a(I7
I4
tp267
a(I0
I6
tp268
a(I1
I8
tp269
a(I8
I8
tp270
a(I4
I3
tp271
a(I1
I7
tp272
a(I7
I8
tp273
a(I0
I2
tp274
atp275
Rp276
sg15
I9
sg28
g20
((lp277
(I6
I7
tp278
a(I2
I9
tp279
a(I5
I6
tp280
a(I3
I1
tp281
a(I8
I9
tp282
a(I0
I5
tp283
a(I0
I3
tp284
a(I5
I2
tp285
atp286
Rp287
sg13
((I2
I4
tp288
(I8
I5
tp289
(I4
I9
tp290
(I7
I7
tp291
tp292
sg14
I10
sbs(iproblems
RoomID
p293
(dp294
g10
I9
sg11
(I4
I3
tp295
sg13
I4
sg14
I11
sg15
I12
sg16
I7002664860023442459
sb(imulti_robot_problem
MultiRobotState
p296
(dp297
g19
g20
((lp298
(I11
I8
tp299
a(I0
I0
tp300
a(I10
I4
tp301
a(I3
I0
tp302
a(I9
I3
tp303
a(I6
I0
tp304
a(I2
I1
tp305
a(I8
I9
tp306
a(I9
I4
tp307
a(I5
I1
tp308
a(I8
I5
tp309
a(I5
I8
tp310
a(I8
I2
tp311
a(I7
I0
tp312
a(I8
I7
tp313
a(I3
I3
tp314
a(I1
I5
tp315
a(I8
I1
tp316
a(I9
I6
tp317
a(I3
I1
tp318
a(I9
I2
tp319
a(I2
I0
tp320
ag295
a(I2
I2
tp321
a(I9
I5
tp322
a(I5
I2
tp323
a(I2
I4
tp324
atp325
Rp326
sg15
I12
sg28
g20
((lp327
(I0
I1
tp328
a(I10
I8
tp329
a(I2
I8
tp330
a(I3
I10
tp331
a(I10
I6
tp332
a(I6
I2
tp333
a(I3
I7
tp334
a(I7
I8
tp335
a(I7
I9
tp336
atp337
Rp338
sg13
((I9
I7
tp339
(I8
I8
tp340
(I2
I9
tp341
(I1
I7
tp342
tp343
sg14
I11
sbs(iproblems
RoomID
p344
(dp345
g10
I9
sg11
(I5
I3
tp346
sg13
I3
sg14
I9
sg15
I9
sg16
I1885758236351349410
sb(imulti_robot_problem
MultiRobotState
p347
(dp348
g19
g20
((lp349
(I4
I7
tp350
a(I5
I7
tp351
a(I7
I1
tp352
a(I5
I6
tp353
a(I5
I4
tp354
a(I0
I0
tp355
a(I2
I3
tp356
a(I4
I2
tp357
a(I8
I5
tp358
ag346
a(I6
I7
tp359
a(I5
I5
tp360
a(I4
I4
tp361
a(I1
I5
tp362
a(I4
I3
tp363
a(I0
I4
tp364
a(I1
I6
tp365
a(I3
I4
tp366
a(I2
I4
tp367
atp368
Rp369
sg15
I9
sg28
g20
((lp370
(I7
I3
tp371
a(I7
I0
tp372
a(I3
I0
tp373
a(I6
I1
tp374
a(I1
I4
tp375
a(I0
I5
tp376
a(I5
I0
tp377
a(I1
I1
tp378
a(I8
I4
tp379
atp380
Rp381
sg13
((I0
I1
tp382
(I2
I6
tp383
(I0
I2
tp384
tp385
sg14
I9
sbs(iproblems
RoomID
p386
(dp387
g10
I9
sg11
(I3
I0
tp388
sg13
I3
sg14
I9
sg15
I12
sg16
I4912931603392816429
sb(imulti_robot_problem
MultiRobotState
p389
(dp390
g19
g20
((lp391
(I6
I4
tp392
a(I4
I7
tp393
a(I0
I0
tp394
a(I4
I8
tp395
a(I5
I6
tp396
a(I2
I8
tp397
a(I0
I7
tp398
a(I4
I6
tp399
a(I7
I5
tp400
a(I4
I2
tp401
a(I0
I3
tp402
a(I7
I2
tp403
a(I6
I8
tp404
a(I10
I5
tp405
a(I5
I5
tp406
a(I7
I8
tp407
a(I4
I4
tp408
a(I5
I2
tp409
ag388
a(I8
I8
tp410
a(I5
I8
tp411
a(I1
I7
tp412
a(I4
I5
tp413
a(I8
I6
tp414
a(I5
I3
tp415
a(I4
I1
tp416
atp417
Rp418
sg15
I12
sg28
g20
((lp419
(I7
I3
tp420
a(I7
I1
tp421
a(I8
I1
tp422
a(I6
I3
tp423
a(I11
I8
tp424
a(I8
I7
tp425
a(I3
I7
tp426
a(I2
I5
tp427
a(I3
I4
tp428
atp429
Rp430
sg13
((I9
I1
tp431
(I1
I6
tp432
(I8
I4
tp433
tp434
sg14
I9
sbssg158
S'mild_roomset'
p435
sbsg158
g160
sg161
(dp436
g190
((lp437
(F38.479999999999563
I136
tp438
aF40.0
tp439
sg236
((lp440
F40.119999999999891
tp441
sg293
((lp442
(F1.6499999999996362
I11
tp443
aF40.259999999999309
tp444
sg344
((lp445
(F2.8299999999999272
I65
tp446
aF40.1200000000008
tp447
sg386
((lp448
(F0.18999999999959982
I11
tp449
aF40.059999999999491
tp450
ssba(imeasure_core
ProblemSetSolution
p451
(dp452
g3
(imeasure_core
RoomSet
p453
(dp454
g6
(dp455
(iproblems
RoomID
p456
(dp457
g10
I11
sg11
(I7
I9
tp458
sg13
I5
sg14
I12
sg15
I12
sg16
I1164115433906158532
sb(imulti_robot_problem
MultiRobotState
p459
(dp460
g19
g20
((lp461
(I4
I7
tp462
a(I1
I3
tp463
a(I5
I6
tp464
a(I9
I3
tp465
a(I1
I4
tp466
a(I0
I5
tp467
a(I7
I11
tp468
a(I1
I0
tp469
a(I5
I8
tp470
a(I3
I3
tp471
a(I3
I1
tp472
a(I6
I7
tp473
a(I6
I8
tp474
a(I7
I8
tp475
a(I5
I7
tp476
ag458
a(I4
I1
tp477
a(I0
I2
tp478
atp479
Rp480
sg15
I12
sg28
g20
((lp481
(I4
I10
tp482
a(I9
I0
tp483
a(I2
I6
tp484
a(I5
I10
tp485
a(I9
I2
tp486
a(I0
I7
tp487
a(I8
I9
tp488
a(I1
I6
tp489
a(I8
I5
tp490
a(I4
I11
tp491
a(I5
I3
tp492
atp493
Rp494
sg13
((I1
I2
tp495
(I2
I11
tp496
(I2
I0
tp497
(I2
I9
tp498
(I11
I7
tp499
tp500
sg14
I12
sbs(iproblems
RoomID
p501
(dp502
g10
I10
sg11
(I0
I7
tp503
sg13
I7
sg14
I10
sg15
I10
sg16
I8711387064946514083
sb(imulti_robot_problem
MultiRobotState
p504
(dp505
g19
g20
((lp506
(I5
I9
tp507
a(I6
I9
tp508
a(I2
I6
tp509
a(I2
I9
tp510
a(I0
I6
tp511
ag503
a(I1
I5
tp512
a(I8
I8
tp513
a(I0
I5
tp514
a(I4
I3
tp515
a(I0
I4
tp516
a(I0
I3
tp517
a(I9
I7
tp518
a(I0
I2
tp519
a(I7
I9
tp520
atp521
Rp522
sg15
I10
sg28
g20
((lp523
(I9
I0
tp524
a(I3
I3
tp525
a(I7
I1
tp526
a(I8
I1
tp527
a(I9
I8
tp528
a(I4
I4
tp529
a(I9
I9
tp530
a(I3
I6
tp531
a(I1
I7
tp532
a(I8
I6
tp533
atp534
Rp535
sg13
((I1
I1
tp536
(I8
I0
tp537
(I7
I0
tp538
(I2
I5
tp539
(I6
I7
tp540
(I8
I9
tp541
(I5
I8
tp542
tp543
sg14
I10
sbs(iproblems
RoomID
p544
(dp545
g10
I14
sg11
(I5
I10
tp546
sg13
I5
sg14
I12
sg15
I10
sg16
I3872982626502034966
sb(imulti_robot_problem
MultiRobotState
p547
(dp548
g19
g20
((lp549
(I5
I9
tp550
a(I6
I9
tp551
a(I5
I7
tp552
a(I3
I2
tp553
ag546
a(I4
I10
tp554
a(I4
I8
tp555
a(I3
I11
tp556
a(I2
I1
tp557
a(I6
I2
tp558
a(I1
I4
tp559
a(I8
I7
tp560
a(I6
I8
tp561
a(I6
I7
tp562
a(I5
I8
tp563
a(I3
I5
tp564
a(I4
I9
tp565
a(I4
I6
tp566
a(I8
I1
tp567
a(I7
I1
tp568
a(I3
I8
tp569
a(I4
I3
tp570
a(I5
I2
tp571
a(I1
I1
tp572
atp573
Rp574
sg15
I10
sg28
g20
((lp575
(I5
I3
tp576
a(I3
I1
tp577
a(I8
I11
tp578
a(I9
I3
tp579
a(I0
I2
tp580
a(I6
I3
tp581
a(I3
I9
tp582
a(I2
I3
tp583
a(I9
I5
tp584
a(I7
I11
tp585
a(I0
I8
tp586
a(I3
I10
tp587
a(I7
I2
tp588
a(I9
I7
tp589
atp590
Rp591
sg13
((I1
I8
tp592
(I2
I9
tp593
(I1
I9
tp594
(I1
I5
tp595
(I6
I5
tp596
tp597
sg14
I12
sbs(iproblems
RoomID
p598
(dp599
g10
I14
sg11
(I0
I3
tp600
sg13
I7
sg14
I12
sg15
I13
sg16
I7002664860023442459
sb(imulti_robot_problem
MultiRobotState
p601
(dp602
g19
g20
((lp603
(I1
I2
tp604
a(I11
I4
tp605
a(I9
I8
tp606
a(I10
I6
tp607
ag600
a(I0
I8
tp608
a(I10
I3
tp609
a(I0
I1
tp610
a(I10
I5
tp611
a(I10
I7
tp612
a(I7
I8
tp613
a(I9
I9
tp614
a(I0
I9
tp615
a(I9
I5
tp616
a(I3
I4
tp617
a(I0
I2
tp618
a(I11
I6
tp619
a(I9
I7
tp620
atp621
Rp622
sg15
I13
sg28
g20
((lp623
(I6
I4
tp624
a(I11
I9
tp625
a(I4
I6
tp626
a(I2
I9
tp627
a(I5
I9
tp628
a(I12
I2
tp629
a(I3
I1
tp630
a(I3
I11
tp631
a(I10
I10
tp632
a(I7
I4
tp633
a(I0
I0
tp634
a(I11
I5
tp635
a(I2
I5
tp636
a(I12
I9
tp637
atp638
Rp639
sg13
((I2
I10
tp640
(I1
I8
tp641
(I8
I10
tp642
(I7
I2
tp643
(I3
I8
tp644
(I6
I2
tp645
(I7
I9
tp646
tp647
sg14
I12
sbs(iproblems
RoomID
p648
(dp649
g10
I10
sg11
(I6
I7
tp650
sg13
I6
sg14
I10
sg15
I13
sg16
I8999366892653588108
sb(imulti_robot_problem
MultiRobotState
p651
(dp652
g19
g20
((lp653
(I5
I4
tp654
ag650
a(I5
I5
tp655
a(I5
I6
tp656
a(I7
I6
tp657
a(I4
I2
tp658
a(I2
I3
tp659
a(I8
I6
tp660
a(I12
I1
tp661
a(I5
I3
tp662
a(I6
I5
tp663
a(I3
I3
tp664
atp665
Rp666
sg15
I13
sg28
g20
((lp667
(I6
I9
tp668
a(I7
I0
tp669
a(I5
I7
tp670
a(I12
I6
tp671
a(I2
I1
tp672
a(I0
I5
tp673
a(I10
I1
tp674
a(I0
I3
tp675
a(I7
I9
tp676
a(I3
I5
tp677
atp678
Rp679
sg13
((I12
I0
tp680
(I6
I1
tp681
(I2
I2
tp682
(I6
I4
tp683
(I4
I6
tp684
(I7
I1
tp685
tp686
sg14
I10
sbssg158
S'heavy_roomset'
p687
sbsg158
g160
sg161
(dp688
g456
((lp689
(F9.8599999999996726
I20
tp690
aF40.770000000000437
tp691
sg501
((lp692
F47.949999999999818
tp693
sg544
((lp694
F40.579999999999927
tp695
sg598
((lp696
F64.529999999999745
tp697
sg648
((lp698
F40.730000000000473
tp699
ssba(imeasure_core
ProblemSetSolution
p700
(dp701
g3
g4
sg158
S"AnytimeBeam-w15-gf(1.5, 'exp')_with_PowerHeuristic2"
p702
sg161
(dp703
g8
((lp704
(F0.13999999999941792
I50
tp705
a(F0.28999999999996362
I42
tp706
a(F3.3599999999996726
I40
tp707
a(F4.7299999999995634
I34
tp708
a(F5.8999999999996362
I30
tp709
a(F6.9699999999993452
I28
tp710
a(F12.729999999999563
I26
tp711
aF40.0
tp712
sg40
((lp713
(F2.0299999999997453
I5
tp714
aF40.019999999999527
tp715
sg73
((lp716
(F1.4600000000000364
I11
tp717
aF40.170000000000073
tp718
sg102
((lp719
(F0.8500000000003638
I4
tp720
aF40.020000000000437
tp721
sg131
((lp722
(F1.589999999999236
I66
tp723
a(F14.1299999999992
I65
tp724
a(F24.359999999999673
I64
tp725
aF40.059999999999491
tp726
ssba(imeasure_core
ProblemSetSolution
p727
(dp728
g3
g187
sg158
g702
sg161
(dp729
g190
((lp730
(F38.590000000000146
I136
tp731
aF40.029999999999745
tp732
sg236
((lp733
F40.080000000000837
tp734
sg293
((lp735
(F1.6499999999996362
I11
tp736
aF40.5
tp737
sg344
((lp738
(F2.7999999999992724
I65
tp739
aF40.079999999999927
tp740
sg386
((lp741
(F0.17999999999938154
I11
tp742
aF40.159999999999854
tp743
ssba(imeasure_core
ProblemSetSolution
p744
(dp745
g3
g453
sg158
g702
sg161
(dp746
g456
((lp747
(F9.8000000000001819
I20
tp748
aF40.75
tp749
sg501
((lp750
F48.179999999999382
tp751
sg544
((lp752
F40.490000000000691
tp753
sg598
((lp754
F64.139999999999418
tp755
sg648
((lp756
F40.980000000000473
tp757
ssba(imeasure_core
ProblemSetSolution
p758
(dp759
g3
g4
sg158
S"AnytimeBeam-w25-gf(1.5, 'exp')_with_PowerHeuristic2"
p760
sg161
(dp761
g8
((lp762
(F0.15999999999985448
I42
tp763
a(F1.819999999999709
I36
tp764
a(F2.5900000000001455
I34
tp765
a(F3.7699999999995271
I30
tp766
a(F4.8400000000001455
I28
tp767
a(F10.619999999999891
I26
tp768
aF40.0
tp769
sg40
((lp770
(F2.069999999999709
I5
tp771
aF40.309999999999491
tp772
sg73
((lp773
(F1.4800000000004729
I11
tp774
aF40.510000000000218
tp775
sg102
((lp776
(F0.85999999999967258
I4
tp777
aF40.190000000000509
tp778
sg131
((lp779
(F1.5799999999999272
I66
tp780
a(F14.159999999999854
I65
tp781
a(F24.369999999999891
I64
tp782
aF40.009999999999309
tp783
ssba(imeasure_core
ProblemSetSolution
p784
(dp785
g3
g187
sg158
g760
sg161
(dp786
g190
((lp787
(F38.570000000000618
I136
tp788
aF40.010000000000218
tp789
sg236
((lp790
F40.25
tp791
sg293
((lp792
(F1.6599999999998545
I11
tp793
aF40.239999999999782
tp794
sg344
((lp795
(F2.8000000000001819
I65
tp796
aF40.070000000000618
tp797
sg386
((lp798
(F0.18999999999959982
I11
tp799
aF40.029999999999745
tp800
ssba(imeasure_core
ProblemSetSolution
p801
(dp802
g3
g453
sg158
g760
sg161
(dp803
g456
((lp804
(F9.7799999999997453
I20
tp805
aF40.510000000000218
tp806
sg501
((lp807
F47.739999999999782
tp808
sg544
((lp809
F40.390000000000327
tp810
sg598
((lp811
F64.159999999999854
tp812
sg648
((lp813
F40.889999999999418
tp814
ssba(imeasure_core
ProblemSetSolution
p815
(dp816
g3
g4
sg158
S"AnytimeBeam-w35-gf(1.5, 'exp')_with_PowerHeuristic2"
p817
sg161
(dp818
g8
((lp819
(F0.1500000000005457
I42
tp820
a(F2.8699999999998909
I40
tp821
a(F4.25
I34
tp822
a(F5.430000000000291
I30
tp823
a(F6.5
I28
tp824
a(F12.329999999999927
I26
tp825
aF40.000000000000909
tp826
sg40
((lp827
(F2.0499999999992724
I5
tp828
aF40.079999999999927
tp829
sg73
((lp830
(F1.4699999999993452
I11
tp831
aF40.519999999998618
tp832
sg102
((lp833
(F0.87000000000080036
I4
tp834
aF40.070000000001528
tp835
sg131
((lp836
(F1.5799999999999272
I66
tp837
a(F14.079999999999927
I65
tp838
a(F24.309999999999491
I64
tp839
aF40.049999999999272
tp840
ssba(imeasure_core
ProblemSetSolution
p841
(dp842
g3
g187
sg158
g817
sg161
(dp843
g190
((lp844
(F38.559999999999491
I136
tp845
aF40.0
tp846
sg236
((lp847
F40.039999999999054
tp848
sg293
((lp849
(F1.6500000000014552
I11
tp850
aF40.270000000000437
tp851
sg344
((lp852
(F2.7900000000008731
I65
tp853
aF40.079999999999927
tp854
sg386
((lp855
(F0.19000000000050932
I11
tp856
aF40.079999999999927
tp857
ssba(imeasure_core
ProblemSetSolution
p858
(dp859
g3
g453
sg158
g817
sg161
(dp860
g456
((lp861
(F9.8400000000001455
I20
tp862
aF40.899999999999636
tp863
sg501
((lp864
F48.130000000001019
tp865
sg544
((lp866
F40.430000000000291
tp867
sg598
((lp868
F63.93999999999869
tp869
sg648
((lp870
F40.820000000001528
tp871
ssba(imeasure_core
ProblemSetSolution
p872
(dp873
g3
g4
sg158
S"AnytimeBeam-w45-gf(1.5, 'exp')_with_PowerHeuristic2"
p874
sg161
(dp875
g8
((lp876
(F0.15999999999985448
I42
tp877
a(F2.4099999999998545
I40
tp878
a(F3.7699999999986176
I34
tp879
a(F4.9499999999989086
I30
tp880
a(F6.0099999999983993
I28
tp881
a(F11.789999999999054
I26
tp882
aF40.0
tp883
sg40
((lp884
(F2.0599999999994907
I5
tp885
aF40.159999999999854
tp886
sg73
((lp887
(F1.4799999999995634
I11
tp888
aF40.449999999998909
tp889
sg102
((lp890
(F0.8500000000003638
I4
tp891
aF40.200000000000728
tp892
sg131
((lp893
(F1.5900000000001455
I66
tp894
a(F14.149999999999636
I65
tp895
a(F24.430000000000291
I64
tp896
aF40.069999999999709
tp897
ssba(imeasure_core
ProblemSetSolution
p898
(dp899
g3
g187
sg158
g874
sg161
(dp900
g190
((lp901
(F38.649999999999636
I136
tp902
aF40.0
tp903
sg236
((lp904
F40.239999999999782
tp905
sg293
((lp906
(F1.6499999999996362
I11
tp907
aF40.239999999999782
tp908
sg344
((lp909
(F2.8299999999999272
I65
tp910
aF40.020000000000437
tp911
sg386
((lp912
(F0.18000000000029104
I11
tp913
aF40.1200000000008
tp914
ssba(imeasure_core
ProblemSetSolution
p915
(dp916
g3
g453
sg158
g874
sg161
(dp917
g456
((lp918
(F9.7800000000006548
I20
tp919
aF40.680000000000291
tp920
sg501
((lp921
F47.720000000001164
tp922
sg544
((lp923
F40.329999999999927
tp924
sg598
((lp925
F64.039999999999054
tp926
sg648
((lp927
F40.6200000000008
tp928
ssba(imeasure_core
ProblemSetSolution
p929
(dp930
g3
g4
sg158
S"AnytimeBeam-w5-gf(1.5, 'exp')_with_LinearHeuristic"
p931
sg161
(dp932
g8
((lp933
(F0.039999999999054126
I28
tp934
a(F35.100000000000364
I26
tp935
aF40.0
tp936
sg40
((lp937
F40.199999999998909
tp938
sg73
((lp939
(F8.1300000000010186
I27
tp940
aF40.280000000000655
tp941
sg102
((lp942
(F4.9099999999998545
I10
tp943
aF40.1200000000008
tp944
sg131
((lp945
(F1.2999999999992724
I25
tp946
a(F20.279999999998836
I24
tp947
a(F33.179999999998472
I23
tp948
aF40.009999999998399
tp949
ssba(imeasure_core
ProblemSetSolution
p950
(dp951
g3
g187
sg158
g931
sg161
(dp952
g190
((lp953
F40.230000000001382
tp954
sg236
((lp955
F40.340000000000146
tp956
sg293
((lp957
F40.219999999999345
tp958
sg344
((lp959
(F37.409999999999854
I226
tp960
aF40.030000000000655
tp961
sg386
((lp962
F40.149999999999636
tp963
ssba(imeasure_core
ProblemSetSolution
p964
(dp965
g3
g453
sg158
g931
sg161
(dp966
g456
((lp967
F40.239999999999782
tp968
sg501
((lp969
F51.739999999999782
tp970
sg544
((lp971
F40.159999999999854
tp972
sg598
((lp973
F54.139999999999418
tp974
sg648
((lp975
F41.31000000000131
tp976
ssba(imeasure_core
ProblemSetSolution
p977
(dp978
g3
g4
sg158
S"AnytimeBeam-w15-gf(1.5, 'exp')_with_LinearHeuristic"
p979
sg161
(dp980
g8
((lp981
(F0.019999999998617568
I28
tp982
a(F31.399999999999636
I26
tp983
aF40.0
tp984
sg40
((lp985
F40.259999999998399
tp986
sg73
((lp987
(F7.4800000000013824
I27
tp988
aF40.070000000001528
tp989
sg102
((lp990
(F4.8899999999994179
I10
tp991
aF41.219999999999345
tp992
sg131
((lp993
(F1.2999999999992724
I25
tp994
a(F20.270000000000437
I24
tp995
a(F33.270000000000437
I23
tp996
aF40.0
tp997
ssba(imeasure_core
ProblemSetSolution
p998
(dp999
g3
g187
sg158
g979
sg161
(dp1000
g190
((lp1001
F40.159999999999854
tp1002
sg236
((lp1003
F40.360000000000582
tp1004
sg293
((lp1005
F40.350000000000364
tp1006
sg344
((lp1007
(F37.539999999999054
I226
tp1008
aF40.049999999999272
tp1009
sg386
((lp1010
F40.079999999999927
tp1011
ssba(imeasure_core
ProblemSetSolution
p1012
(dp1013
g3
g453
sg158
g979
sg161
(dp1014
g456
((lp1015
F40.090000000000146
tp1016
sg501
((lp1017
F51.719999999999345
tp1018
sg544
((lp1019
F40.220000000001164
tp1020
sg598
((lp1021
F54.639999999999418
tp1022
sg648
((lp1023
F41.719999999999345
tp1024
ssba(imeasure_core
ProblemSetSolution
p1025
(dp1026
g3
g4
sg158
S"AnytimeBeam-w25-gf(1.5, 'exp')_with_LinearHeuristic"
p1027
sg161
(dp1028
g8
((lp1029
(F0.020000000000436557
I28
tp1030
a(F34.340000000000146
I26
tp1031
aF40.0
tp1032
sg40
((lp1033
F40.180000000000291
tp1034
sg73
((lp1035
(F7.7900000000008731
I27
tp1036
aF40.030000000000655
tp1037
sg102
((lp1038
(F4.9099999999998545
I10
tp1039
aF40.170000000000073
tp1040
sg131
((lp1041
(F1.3099999999994907
I25
tp1042
a(F20.329999999999927
I24
tp1043
a(F33.369999999998981
I23
tp1044
aF40.029999999998836
tp1045
ssba(imeasure_core
ProblemSetSolution
p1046
(dp1047
g3
g187
sg158
g1027
sg161
(dp1048
g190
((lp1049
F40.130000000001019
tp1050
sg236
((lp1051
F40.510000000000218
tp1052
sg293
((lp1053
F40.340000000000146
tp1054
sg344
((lp1055
(F37.819999999999709
I226
tp1056
aF40.049999999999272
tp1057
sg386
((lp1058
F40.030000000000655
tp1059
ssba(imeasure_core
ProblemSetSolution
p1060
(dp1061
g3
g453
sg158
g1027
sg161
(dp1062
g456
((lp1063
F42.399999999999636
tp1064
sg501
((lp1065
F51.860000000000582
tp1066
sg544
((lp1067
F41.329999999999927
tp1068
sg598
((lp1069
F54.3799999999992
tp1070
sg648
((lp1071
F41.559999999999491
tp1072
ssba(imeasure_core
ProblemSetSolution
p1073
(dp1074
g3
g4
sg158
S"AnytimeBeam-w35-gf(1.5, 'exp')_with_LinearHeuristic"
p1075
sg161
(dp1076
g8
((lp1077
(F0.010000000000218279
I28
tp1078
a(F30.960000000000946
I26
tp1079
aF40.0
tp1080
sg40
((lp1081
F40.180000000000291
tp1082
sg73
((lp1083
(F7.4699999999993452
I27
tp1084
aF40.209999999999127
tp1085
sg102
((lp1086
(F4.8900000000012369
I10
tp1087
aF41.150000000001455
tp1088
sg131
((lp1089
(F1.2899999999990541
I25
tp1090
a(F20.369999999998981
I24
tp1091
a(F33.510000000000218
I23
tp1092
aF40.029999999998836
tp1093
ssba(imeasure_core
ProblemSetSolution
p1094
(dp1095
g3
g187
sg158
g1075
sg161
(dp1096
g190
((lp1097
F40.220000000001164
tp1098
sg236
((lp1099
F40.589999999998327
tp1100
sg293
((lp1101
F40.090000000000146
tp1102
sg344
((lp1103
(F37.980000000001382
I226
tp1104
aF40.040000000000873
tp1105
sg386
((lp1106
F40.119999999998981
tp1107
ssba(imeasure_core
ProblemSetSolution
p1108
(dp1109
g3
g453
sg158
g1075
sg161
(dp1110
g456
((lp1111
F42.25
tp1112
sg501
((lp1113
F51.680000000000291
tp1114
sg544
((lp1115
F41.150000000001455
tp1116
sg598
((lp1117
F54.25
tp1118
sg648
((lp1119
F41.539999999999054
tp1120
ssba(imeasure_core
ProblemSetSolution
p1121
(dp1122
g3
g4
sg158
S"AnytimeBeam-w45-gf(1.5, 'exp')_with_LinearHeuristic"
p1123
sg161
(dp1124
g8
((lp1125
(F0.020000000000436557
I28
tp1126
a(F26.289999999999054
I26
tp1127
aF40.0
tp1128
sg40
((lp1129
F40.049999999999272
tp1130
sg73
((lp1131
(F7.0400000000008731
I27
tp1132
aF40.420000000000073
tp1133
sg102
((lp1134
(F4.8700000000008004
I10
tp1135
aF41.1200000000008
tp1136
sg131
((lp1137
(F1.2899999999990541
I25
tp1138
a(F20.180000000000291
I24
tp1139
a(F33.119999999998981
I23
tp1140
aF40.010000000000218
tp1141
ssba(imeasure_core
ProblemSetSolution
p1142
(dp1143
g3
g187
sg158
g1123
sg161
(dp1144
g190
((lp1145
F40.090000000000146
tp1146
sg236
((lp1147
F40.079999999999927
tp1148
sg293
((lp1149
F40.170000000000073
tp1150
sg344
((lp1151
(F37.369999999998981
I226
tp1152
aF40.0
tp1153
sg386
((lp1154
F40.019999999998618
tp1155
ssba(imeasure_core
ProblemSetSolution
p1156
(dp1157
g3
g453
sg158
g1123
sg161
(dp1158
g456
((lp1159
F42.329999999999927
tp1160
sg501
((lp1161
F51.640000000001237
tp1162
sg544
((lp1163
F41.25
tp1164
sg598
((lp1165
F54.449999999998909
tp1166
sg648
((lp1167
F41.650000000001455
tp1168
ssba.