(lp0
(imeasure_core
ProblemSetSolution
p1
(dp2
S'roomset'
p3
(imeasure_core
RoomSet
p4
(dp5
S'rooms'
p6
(dp7
(iproblems
RoomID
p8
(dp9
S'dusts'
p10
I8
sS'obstacles'
p11
(I2
I8
tp12
sS'robots'
p13
I4
sS'height'
p14
I10
sS'width'
p15
I7
sS'seed'
p16
I7106521602475165645
sb(imulti_robot_problem
MultiRobotState
p17
(dp18
S'obstacle_locations'
p19
c__builtin__
frozenset
p20
((lp21
(I3
I8
tp22
a(I5
I9
tp23
a(I4
I9
tp24
ag12
a(I5
I2
tp25
a(I5
I8
tp26
atp27
Rp28
sg15
I7
sS'dirt_locations'
p29
g20
((lp30
(I1
I2
tp31
a(I2
I7
tp32
a(I0
I0
tp33
a(I3
I1
tp34
a(I6
I0
tp35
a(I2
I1
tp36
a(I2
I3
tp37
a(I2
I5
tp38
atp39
Rp40
sg13
((I0
I8
tp41
(I4
I5
tp42
(I3
I9
tp43
(I1
I8
tp44
tp45
sg14
I10
sbs(iproblems
RoomID
p46
(dp47
g10
I10
sg11
(I3
I3
tp48
sg13
I4
sg14
I10
sg15
I8
sg16
I746805015404516437
sb(imulti_robot_problem
MultiRobotState
p49
(dp50
g19
g20
((lp51
(I7
I4
tp52
ag48
a(I4
I2
tp53
a(I6
I1
tp54
a(I3
I1
tp55
a(I4
I1
tp56
a(I1
I4
tp57
atp58
Rp59
sg15
I8
sg29
g20
((lp60
(I4
I6
tp61
a(I6
I3
tp62
a(I2
I0
tp63
a(I3
I9
tp64
a(I2
I3
tp65
a(I3
I6
tp66
a(I5
I1
tp67
a(I1
I0
tp68
a(I0
I8
tp69
a(I5
I8
tp70
atp71
Rp72
sg13
((I3
I8
tp73
(I4
I8
tp74
(I4
I9
tp75
(I0
I3
tp76
tp77
sg14
I10
sbs(iproblems
RoomID
p78
(dp79
g10
I6
sg11
(I7
I4
tp80
sg13
I2
sg14
I7
sg15
I9
sg16
I4029557120079369747
sb(imulti_robot_problem
MultiRobotState
p81
(dp82
g19
g20
((lp83
g80
a(I7
I5
tp84
a(I4
I1
tp85
a(I6
I1
tp86
a(I8
I5
tp87
a(I8
I4
tp88
atp89
Rp90
sg15
I9
sg29
g20
((lp91
(I2
I6
tp92
a(I6
I6
tp93
a(I3
I0
tp94
a(I2
I5
tp95
a(I1
I1
tp96
a(I5
I3
tp97
atp98
Rp99
sg13
((I6
I0
tp100
(I3
I1
tp101
tp102
sg14
I7
sbs(iproblems
RoomID
p103
(dp104
g10
I5
sg11
(I4
I5
tp105
sg13
I1
sg14
I9
sg15
I8
sg16
I6604845167042249220
sb(imulti_robot_problem
MultiRobotState
p106
(dp107
g19
g20
((lp108
(I7
I4
tp109
ag105
a(I5
I4
tp110
a(I6
I1
tp111
a(I6
I5
tp112
atp113
Rp114
sg15
I8
sg29
g20
((lp115
(I2
I8
tp116
a(I1
I0
tp117
a(I1
I1
tp118
a(I4
I3
tp119
a(I4
I8
tp120
atp121
Rp122
sg13
((I3
I6
tp123
tp124
sg14
I9
sbs(iproblems
RoomID
p125
(dp126
g10
I9
sg11
(I7
I6
tp127
sg13
I5
sg14
I9
sg15
I9
sg16
I8963783824838420066
sb(imulti_robot_problem
MultiRobotState
p128
(dp129
g19
g20
((lp130
(I2
I7
tp131
a(I5
I5
tp132
a(I6
I6
tp133
ag127
a(I4
I4
tp134
a(I7
I1
tp135
a(I7
I5
tp136
a(I2
I2
tp137
a(I6
I5
tp138
atp139
Rp140
sg15
I9
sg29
g20
((lp141
(I3
I0
tp142
a(I2
I1
tp143
a(I6
I3
tp144
a(I0
I7
tp145
a(I3
I7
tp146
a(I8
I6
tp147
a(I0
I8
tp148
a(I8
I5
tp149
a(I7
I2
tp150
atp151
Rp152
sg13
((I7
I7
tp153
(I2
I4
tp154
(I3
I2
tp155
(I4
I7
tp156
(I5
I0
tp157
tp158
sg14
I9
sbssS'name'
p159
S'easy_roomset'
p160
sbsg159
S"AnytimeBeam-w20-gf(1.3, 'exp')_with_PowerHeuristic2"
p161
sS'solutions'
p162
(dp163
g8
((lp164
(F0.58000000000000007
I15
tp165
aF40.189999999999998
tp166
sg46
((lp167
(F4.2700000000000031
I20
tp168
aF40.050000000000004
tp169
sg78
((lp170
(F0.10999999999999943
I18
tp171
aF40.0
tp172
sg103
((lp173
(F0.099999999999994316
I35
tp174
a(F0.79999999999999716
I33
tp175
a(F1.6599999999999966
I30
tp176
a(F2.3599999999999994
I26
tp177
a(F3.1499999999999915
I25
tp178
a(F3.9200000000000017
I23
tp179
a(F4.6700000000000017
I21
tp180
a(F6.0099999999999909
I20
tp181
a(F7.25
I18
tp182
aF40.0
tp183
sg125
((lp184
(F3.9799999999999898
I7
tp185
aF40.620000000000005
tp186
ssba(imeasure_core
ProblemSetSolution
p187
(dp188
g3
(imeasure_core
RoomSet
p189
(dp190
g6
(dp191
(iproblems
RoomID
p192
(dp193
g10
I6
sg11
(I5
I8
tp194
sg13
I3
sg14
I9
sg15
I11
sg16
I4029557120079369747
sb(imulti_robot_problem
MultiRobotState
p195
(dp196
g19
g20
((lp197
(I7
I3
tp198
a(I1
I3
tp199
a(I4
I8
tp200
a(I10
I6
tp201
a(I7
I1
tp202
a(I1
I4
tp203
a(I3
I7
tp204
a(I5
I1
tp205
a(I2
I5
tp206
a(I8
I5
tp207
ag194
a(I10
I5
tp208
a(I4
I6
tp209
a(I10
I7
tp210
a(I9
I6
tp211
a(I6
I1
tp212
a(I4
I4
tp213
a(I6
I3
tp214
a(I3
I6
tp215
a(I1
I7
tp216
a(I9
I5
tp217
a(I2
I4
tp218
a(I8
I4
tp219
atp220
Rp221
sg15
I11
sg29
g20
((lp222
(I3
I8
tp223
a(I8
I8
tp224
a(I7
I2
tp225
a(I5
I2
tp226
a(I1
I1
tp227
a(I2
I1
tp228
atp229
Rp230
sg13
((I8
I0
tp231
(I3
I1
tp232
(I4
I0
tp233
tp234
sg14
I9
sbs(iproblems
RoomID
p235
(dp236
g10
I10
sg11
(I4
I4
tp237
sg13
I4
sg14
I12
sg15
I12
sg16
I2569146471088859254
sb(imulti_robot_problem
MultiRobotState
p238
(dp239
g19
g20
((lp240
(I5
I4
tp241
a(I4
I8
tp242
a(I4
I5
tp243
a(I11
I2
tp244
a(I4
I7
tp245
a(I1
I9
tp246
a(I10
I3
tp247
a(I5
I8
tp248
a(I5
I5
tp249
a(I3
I3
tp250
ag237
a(I2
I11
tp251
a(I5
I6
tp252
a(I7
I2
tp253
a(I4
I3
tp254
a(I2
I2
tp255
a(I10
I0
tp256
a(I5
I11
tp257
a(I1
I1
tp258
atp259
Rp260
sg15
I12
sg29
g20
((lp261
(I2
I7
tp262
a(I10
I10
tp263
a(I3
I0
tp264
a(I3
I11
tp265
a(I0
I2
tp266
a(I1
I5
tp267
a(I9
I4
tp268
a(I0
I8
tp269
a(I2
I4
tp270
a(I11
I6
tp271
atp272
Rp273
sg13
((I9
I11
tp274
(I7
I10
tp275
(I6
I0
tp276
(I10
I1
tp277
tp278
sg14
I12
sbs(iproblems
RoomID
p279
(dp280
g10
I7
sg11
(I5
I4
tp281
sg13
I3
sg14
I11
sg15
I12
sg16
I2577854692418029171
sb(imulti_robot_problem
MultiRobotState
p282
(dp283
g19
g20
((lp284
(I4
I7
tp285
a(I3
I0
tp286
a(I8
I0
tp287
a(I2
I1
tp288
a(I6
I2
tp289
a(I1
I6
tp290
a(I5
I1
tp291
a(I4
I0
tp292
a(I1
I2
tp293
a(I4
I9
tp294
a(I3
I3
tp295
a(I8
I1
tp296
a(I3
I10
tp297
a(I6
I3
tp298
a(I3
I6
tp299
a(I1
I10
tp300
a(I8
I6
tp301
a(I3
I5
tp302
ag281
a(I2
I6
tp303
a(I7
I1
tp304
a(I6
I0
tp305
a(I1
I9
tp306
a(I4
I2
tp307
a(I0
I8
tp308
a(I5
I3
tp309
a(I0
I1
tp310
a(I7
I0
tp311
a(I5
I2
tp312
a(I6
I1
tp313
a(I3
I1
tp314
a(I3
I8
tp315
a(I3
I4
tp316
a(I2
I4
tp317
atp318
Rp319
sg15
I12
sg29
g20
((lp320
(I4
I10
tp321
a(I10
I5
tp322
a(I10
I1
tp323
a(I2
I8
tp324
a(I7
I6
tp325
a(I4
I4
tp326
a(I9
I7
tp327
atp328
Rp329
sg13
((I10
I6
tp330
(I1
I4
tp331
(I11
I8
tp332
tp333
sg14
I11
sbs(iproblems
RoomID
p334
(dp335
g10
I6
sg11
(I4
I5
tp336
sg13
I3
sg14
I12
sg15
I12
sg16
I1360307757430227195
sb(imulti_robot_problem
MultiRobotState
p337
(dp338
g19
g20
((lp339
(I6
I4
tp340
a(I3
I2
tp341
a(I10
I4
tp342
a(I3
I0
tp343
a(I5
I4
tp344
a(I7
I5
tp345
a(I5
I1
tp346
a(I8
I5
tp347
a(I6
I5
tp348
a(I4
I0
tp349
a(I7
I4
tp350
a(I8
I3
tp351
a(I6
I7
tp352
a(I5
I5
tp353
a(I8
I10
tp354
a(I6
I3
tp355
a(I5
I6
tp356
a(I6
I2
tp357
ag336
a(I9
I5
tp358
a(I5
I3
tp359
atp360
Rp361
sg15
I12
sg29
g20
((lp362
(I3
I3
tp363
a(I4
I3
tp364
a(I9
I2
tp365
a(I5
I7
tp366
a(I0
I2
tp367
a(I11
I6
tp368
atp369
Rp370
sg13
((I11
I11
tp371
(I1
I3
tp372
(I0
I1
tp373
tp374
sg14
I12
sbs(iproblems
RoomID
p375
(dp376
g10
I6
sg11
(I2
I4
tp377
sg13
I3
sg14
I10
sg15
I10
sg16
I1821862095355237593
sb(imulti_robot_problem
MultiRobotState
p378
(dp379
g19
g20
((lp380
(I6
I4
tp381
a(I4
I7
tp382
a(I2
I6
tp383
a(I5
I6
tp384
a(I6
I0
tp385
a(I1
I9
tp386
a(I8
I5
tp387
a(I7
I2
tp388
a(I7
I9
tp389
a(I5
I3
tp390
a(I6
I7
tp391
a(I3
I3
tp392
a(I5
I5
tp393
a(I4
I4
tp394
a(I6
I3
tp395
a(I4
I5
tp396
a(I6
I5
tp397
a(I4
I3
tp398
a(I0
I4
tp399
a(I8
I6
tp400
a(I3
I5
tp401
a(I3
I4
tp402
ag377
atp403
Rp404
sg15
I10
sg29
g20
((lp405
(I0
I6
tp406
a(I7
I0
tp407
a(I5
I1
tp408
a(I2
I3
tp409
a(I2
I8
tp410
a(I9
I6
tp411
atp412
Rp413
sg13
((I2
I2
tp414
(I4
I2
tp415
(I0
I7
tp416
tp417
sg14
I10
sbssg159
S'mild_roomset'
p418
sbsg159
g161
sg162
(dp419
g192
((lp420
(F0.28999999999999204
I15
tp421
aF40.030000000000001
tp422
sg235
((lp423
F40.559999999999974
tp424
sg279
((lp425
(F2.2200000000000273
I29
tp426
aF40.090000000000032
tp427
sg375
((lp428
(F0.27999999999997272
I13
tp429
aF40.029999999999973
tp430
sg334
((lp431
F40.110000000000014
tp432
ssba(imeasure_core
ProblemSetSolution
p433
(dp434
g3
(imeasure_core
RoomSet
p435
(dp436
g6
(dp437
(iproblems
RoomID
p438
(dp439
g10
I13
sg11
(I5
I3
tp440
sg13
I6
sg14
I13
sg15
I10
sg16
I7106521602475165645
sb(imulti_robot_problem
MultiRobotState
p441
(dp442
g19
g20
((lp443
(I5
I6
tp444
a(I5
I11
tp445
a(I7
I12
tp446
a(I0
I12
tp447
a(I2
I3
tp448
a(I6
I12
tp449
a(I7
I2
tp450
ag440
a(I1
I2
tp451
a(I4
I5
tp452
a(I8
I12
tp453
a(I7
I1
tp454
a(I2
I11
tp455
a(I6
I3
tp456
a(I6
I11
tp457
a(I0
I4
tp458
a(I0
I9
tp459
a(I0
I5
tp460
a(I3
I4
tp461
atp462
Rp463
sg15
I10
sg29
g20
((lp464
(I0
I1
tp465
a(I8
I3
tp466
a(I4
I6
tp467
a(I7
I11
tp468
a(I6
I9
tp469
a(I0
I11
tp470
a(I3
I9
tp471
a(I2
I12
tp472
a(I8
I6
tp473
a(I5
I1
tp474
a(I3
I7
tp475
a(I0
I3
tp476
a(I3
I5
tp477
atp478
Rp479
sg13
((I0
I10
tp480
(I6
I7
tp481
(I4
I11
tp482
(I1
I11
tp483
(I9
I0
tp484
(I3
I1
tp485
tp486
sg14
I13
sbs(iproblems
RoomID
p487
(dp488
g10
I15
sg11
(I9
I4
tp489
sg13
I6
sg14
I13
sg15
I11
sg16
I746805015404516437
sb(imulti_robot_problem
MultiRobotState
p490
(dp491
g19
g20
((lp492
(I8
I0
tp493
a(I4
I8
tp494
a(I4
I5
tp495
a(I10
I6
tp496
a(I6
I0
tp497
a(I3
I5
tp498
a(I3
I9
tp499
ag489
a(I4
I2
tp500
a(I7
I2
tp501
a(I7
I9
tp502
a(I10
I5
tp503
a(I5
I5
tp504
a(I4
I4
tp505
a(I1
I8
tp506
a(I8
I6
tp507
a(I5
I3
tp508
a(I5
I2
tp509
a(I2
I4
tp510
a(I9
I7
tp511
atp512
Rp513
sg15
I11
sg29
g20
((lp514
(I3
I12
tp515
a(I9
I1
tp516
a(I7
I1
tp517
a(I8
I1
tp518
a(I6
I10
tp519
a(I8
I9
tp520
a(I2
I0
tp521
a(I2
I3
tp522
a(I0
I10
tp523
a(I2
I2
tp524
a(I7
I11
tp525
a(I2
I5
tp526
a(I8
I5
tp527
a(I5
I8
tp528
a(I4
I11
tp529
atp530
Rp531
sg13
((I4
I10
tp532
(I6
I11
tp533
(I5
I12
tp534
(I0
I5
tp535
(I1
I0
tp536
(I7
I10
tp537
tp538
sg14
I13
sbs(iproblems
RoomID
p539
(dp540
g10
I11
sg11
(I9
I6
tp541
sg13
I6
sg14
I10
sg15
I12
sg16
I4029557120079369747
sb(imulti_robot_problem
MultiRobotState
p542
(dp543
g19
g20
((lp544
(I11
I7
tp545
a(I10
I6
tp546
a(I5
I5
tp547
a(I7
I1
tp548
a(I10
I7
tp549
a(I9
I8
tp550
a(I4
I4
tp551
a(I1
I6
tp552
a(I3
I6
tp553
a(I1
I7
tp554
ag541
a(I11
I6
tp555
atp556
Rp557
sg15
I12
sg29
g20
((lp558
(I1
I2
tp559
a(I1
I3
tp560
a(I4
I9
tp561
a(I8
I2
tp562
a(I8
I1
tp563
a(I6
I1
tp564
a(I2
I1
tp565
a(I7
I4
tp566
a(I1
I8
tp567
a(I5
I2
tp568
a(I1
I1
tp569
atp570
Rp571
sg13
((I8
I0
tp572
(I4
I1
tp573
(I4
I0
tp574
(I3
I9
tp575
(I8
I9
tp576
(I3
I8
tp577
tp578
sg14
I10
sbs(iproblems
RoomID
p579
(dp580
g10
I15
sg11
(I5
I5
tp581
sg13
I6
sg14
I13
sg15
I13
sg16
I2569146471088859254
sb(imulti_robot_problem
MultiRobotState
p582
(dp583
g19
g20
((lp584
(I12
I2
tp585
a(I5
I4
tp586
a(I3
I3
tp587
a(I5
I9
tp588
a(I4
I5
tp589
a(I6
I1
tp590
a(I10
I10
tp591
a(I8
I8
tp592
a(I4
I3
tp593
a(I2
I2
tp594
a(I9
I11
tp595
a(I8
I12
tp596
a(I1
I1
tp597
a(I12
I3
tp598
ag581
atp599
Rp600
sg15
I13
sg29
g20
((lp601
(I10
I5
tp602
a(I3
I12
tp603
a(I8
I2
tp604
a(I5
I6
tp605
a(I12
I7
tp606
a(I11
I3
tp607
a(I0
I2
tp608
a(I11
I0
tp609
a(I0
I9
tp610
a(I2
I12
tp611
a(I1
I10
tp612
a(I3
I7
tp613
a(I10
I11
tp614
a(I2
I4
tp615
a(I5
I12
tp616
atp617
Rp618
sg13
((I9
I12
tp619
(I7
I11
tp620
(I7
I0
tp621
(I10
I1
tp622
(I1
I5
tp623
(I4
I0
tp624
tp625
sg14
I13
sbs(iproblems
RoomID
p626
(dp627
g10
I10
sg11
(I6
I7
tp628
sg13
I5
sg14
I12
sg15
I11
sg16
I6604845167042249220
sb(imulti_robot_problem
MultiRobotState
p629
(dp630
g19
g20
((lp631
(I9
I0
tp632
ag628
a(I7
I1
tp633
a(I2
I8
tp634
a(I10
I6
tp635
a(I7
I7
tp636
a(I8
I8
tp637
a(I9
I4
tp638
a(I8
I6
tp639
a(I7
I11
tp640
a(I9
I7
tp641
atp642
Rp643
sg15
I11
sg29
g20
((lp644
(I10
I5
tp645
a(I3
I3
tp646
a(I5
I11
tp647
a(I8
I1
tp648
a(I9
I8
tp649
a(I6
I9
tp650
a(I0
I7
tp651
a(I0
I10
tp652
a(I4
I1
tp653
a(I8
I4
tp654
atp655
Rp656
sg13
((I4
I8
tp657
(I1
I0
tp658
(I2
I2
tp659
(I3
I11
tp660
(I6
I5
tp661
tp662
sg14
I12
sbssg159
S'heavy_roomset'
p663
sbsg159
g161
sg162
(dp664
g438
((lp665
F42.449999999999989
tp666
sg487
((lp667
F40.680000000000007
tp668
sg539
((lp669
(F31.450000000000045
I6
tp670
aF41.950000000000045
tp671
sg579
((lp672
F51.519999999999982
tp673
sg626
((lp674
(F23.720000000000027
I21
tp675
aF41.909999999999968
tp676
ssba(imeasure_core
ProblemSetSolution
p677
(dp678
g3
g4
sg159
S"AnytimeBeam-w20-gf(1.5, 'exp')_with_PowerHeuristic2"
p679
sg162
(dp680
g8
((lp681
(F0.59000000000003183
I15
tp682
aF40.180000000000064
tp683
sg46
((lp684
(F4.92999999999995
I20
tp685
aF40.089999999999918
tp686
sg78
((lp687
(F0.11000000000001364
I18
tp688
aF40.0
tp689
sg103
((lp690
(F0.10000000000002274
I35
tp691
a(F0.79000000000007731
I33
tp692
a(F1.6500000000000909
I30
tp693
a(F2.3400000000000318
I26
tp694
a(F3.1299999999999955
I25
tp695
a(F3.8899999999999864
I23
tp696
a(F4.6399999999999864
I21
tp697
a(F5.9700000000000273
I20
tp698
a(F7.2100000000000364
I18
tp699
aF40.0
tp700
sg125
((lp701
(F3.9300000000000637
I7
tp702
aF40.310000000000059
tp703
ssba(imeasure_core
ProblemSetSolution
p704
(dp705
g3
g189
sg159
g679
sg162
(dp706
g192
((lp707
(F0.27999999999997272
I15
tp708
aF40.019999999999982
tp709
sg235
((lp710
F40.269999999999982
tp711
sg279
((lp712
(F2.2000000000000455
I29
tp713
aF40.100000000000023
tp714
sg375
((lp715
(F0.27999999999997272
I13
tp716
aF40.009999999999991
tp717
sg334
((lp718
F40.100000000000023
tp719
ssba(imeasure_core
ProblemSetSolution
p720
(dp721
g3
g435
sg159
g679
sg162
(dp722
g438
((lp723
F42.580000000000041
tp724
sg487
((lp725
F40.490000000000009
tp726
sg539
((lp727
(F31.189999999999827
I6
tp728
aF41.599999999999909
tp729
sg579
((lp730
F51.420000000000073
tp731
sg626
((lp732
(F23.669999999999845
I21
tp733
aF41.690000000000055
tp734
ssba(imeasure_core
ProblemSetSolution
p735
(dp736
g3
g4
sg159
S"AnytimeBeam-w20-gf(1.7, 'exp')_with_PowerHeuristic2"
p737
sg162
(dp738
g8
((lp739
(F0.58999999999991815
I15
tp740
aF40.289999999999964
tp741
sg46
((lp742
(F4.9700000000000273
I20
tp743
aF40.139999999999873
tp744
sg78
((lp745
(F0.11000000000012733
I18
tp746
aF40.009999999999991
tp747
sg103
((lp748
(F0.10000000000013642
I35
tp749
a(F0.79000000000019099
I33
tp750
a(F1.6600000000000819
I30
tp751
a(F2.3500000000001364
I26
tp752
a(F3.1400000000001
I25
tp753
a(F3.9000000000000909
I23
tp754
a(F4.6600000000000819
I21
tp755
a(F5.9900000000000091
I20
tp756
a(F7.2300000000000182
I18
tp757
aF40.0
tp758
sg125
((lp759
(F3.9600000000000364
I7
tp760
aF40.5
tp761
ssba(imeasure_core
ProblemSetSolution
p762
(dp763
g3
g189
sg159
g737
sg162
(dp764
g192
((lp765
(F0.28000000000020009
I15
tp766
aF40.040000000000191
tp767
sg235
((lp768
F40.529999999999973
tp769
sg279
((lp770
(F2.1999999999998181
I29
tp771
aF40.119999999999891
tp772
sg375
((lp773
(F0.27999999999997272
I13
tp774
aF40.019999999999982
tp775
sg334
((lp776
F40.120000000000118
tp777
ssba(imeasure_core
ProblemSetSolution
p778
(dp779
g3
g435
sg159
g737
sg162
(dp780
g438
((lp781
F42.599999999999909
tp782
sg487
((lp783
F40.559999999999945
tp784
sg539
((lp785
(F31.120000000000118
I6
tp786
aF41.490000000000009
tp787
sg579
((lp788
F51.110000000000127
tp789
sg626
((lp790
(F23.629999999999882
I21
tp791
aF41.599999999999909
tp792
ssba(imeasure_core
ProblemSetSolution
p793
(dp794
g3
g4
sg159
S"AnytimeBeam-w20-gf(1.8999999999999999, 'exp')_with_PowerHeuristic2"
p795
sg162
(dp796
g8
((lp797
(F0.58000000000015461
I15
tp798
aF40.289999999999964
tp799
sg46
((lp800
(F5.1800000000000637
I20
tp801
aF40.620000000000118
tp802
sg78
((lp803
(F0.10999999999989996
I18
tp804
aF40.009999999999991
tp805
sg103
((lp806
(F0.099999999999909051
I35
tp807
a(F0.78999999999996362
I33
tp808
a(F1.6499999999998636
I30
tp809
a(F2.3399999999999181
I26
tp810
a(F3.1299999999998818
I25
tp811
a(F3.8899999999998727
I23
tp812
a(F4.6499999999998636
I21
tp813
a(F5.9800000000000182
I20
tp814
a(F7.2100000000000364
I18
tp815
aF40.0
tp816
sg125
((lp817
(F3.9600000000000364
I7
tp818
aF40.479999999999791
tp819
ssba(imeasure_core
ProblemSetSolution
p820
(dp821
g3
g189
sg159
g795
sg162
(dp822
g192
((lp823
(F0.27999999999974534
I15
tp824
aF40.029999999999745
tp825
sg235
((lp826
F40.380000000000109
tp827
sg279
((lp828
(F2.2000000000002728
I29
tp829
aF40.039999999999964
tp830
sg375
((lp831
(F0.28999999999996362
I13
tp832
aF40.0300000000002
tp833
sg334
((lp834
F40.190000000000055
tp835
ssba(imeasure_core
ProblemSetSolution
p836
(dp837
g3
g435
sg159
g795
sg162
(dp838
g438
((lp839
F42.640000000000327
tp840
sg487
((lp841
F40.589999999999691
tp842
sg539
((lp843
(F31.269999999999982
I6
tp844
aF41.740000000000236
tp845
sg579
((lp846
F51.659999999999854
tp847
sg626
((lp848
(F23.699999999999818
I21
tp849
aF41.900000000000091
tp850
ssba(imeasure_core
ProblemSetSolution
p851
(dp852
g3
g4
sg159
S"AnytimeBeam-w20-gf(1.3, 'exp')_with_LinearHeuristic"
p853
sg162
(dp854
g8
((lp855
(F11.920000000000073
I155
tp856
aF40.009999999999764
tp857
sg46
((lp858
(F2.1500000000000909
I24
tp859
aF40.450000000000273
tp860
sg78
((lp861
(F0.069999999999708962
I10
tp862
aF40.009999999999764
tp863
sg103
((lp864
(F0.010000000000218279
I18
tp865
aF40.0
tp866
sg125
((lp867
F40.849999999999909
tp868
ssba(imeasure_core
ProblemSetSolution
p869
(dp870
g3
g189
sg159
g853
sg162
(dp871
g192
((lp872
F40.210000000000036
tp873
sg235
((lp874
F40.130000000000109
tp875
sg279
((lp876
F40.300000000000182
tp877
sg375
((lp878
(F34.679999999999836
I134
tp879
aF40.199999999999818
tp880
sg334
((lp881
F40.269999999999982
tp882
ssba(imeasure_core
ProblemSetSolution
p883
(dp884
g3
g435
sg159
g853
sg162
(dp885
g438
((lp886
F42.319999999999709
tp887
sg487
((lp888
F52.460000000000036
tp889
sg539
((lp890
F46.110000000000127
tp891
sg579
((lp892
F45.460000000000036
tp893
sg626
((lp894
F40.75
tp895
ssba(imeasure_core
ProblemSetSolution
p896
(dp897
g3
g4
sg159
S"AnytimeBeam-w20-gf(1.5, 'exp')_with_LinearHeuristic"
p898
sg162
(dp899
g8
((lp900
(F11.940000000000055
I155
tp901
aF40.0
tp902
sg46
((lp903
(F2.6399999999998727
I24
tp904
aF40.4699999999998
tp905
sg78
((lp906
(F0.070000000000163709
I10
tp907
aF40.0
tp908
sg103
((lp909
(F0.01999999999998181
I18
tp910
aF40.0
tp911
sg125
((lp912
F41.070000000000164
tp913
ssba(imeasure_core
ProblemSetSolution
p914
(dp915
g3
g189
sg159
g898
sg162
(dp916
g192
((lp917
F40.2199999999998
tp918
sg235
((lp919
F40.510000000000218
tp920
sg279
((lp921
F40.380000000000109
tp922
sg375
((lp923
(F34.5300000000002
I134
tp924
aF40.059999999999945
tp925
sg334
((lp926
F40.049999999999727
tp927
ssba(imeasure_core
ProblemSetSolution
p928
(dp929
g3
g435
sg159
g898
sg162
(dp930
g438
((lp931
F42.200000000000273
tp932
sg487
((lp933
F52.619999999999891
tp934
sg539
((lp935
F46.0300000000002
tp936
sg579
((lp937
F45.359999999999673
tp938
sg626
((lp939
F41.0300000000002
tp940
ssba(imeasure_core
ProblemSetSolution
p941
(dp942
g3
g4
sg159
S"AnytimeBeam-w20-gf(1.7, 'exp')_with_LinearHeuristic"
p943
sg162
(dp944
g8
((lp945
(F11.870000000000346
I155
tp946
aF40.070000000000164
tp947
sg46
((lp948
(F2.6300000000001091
I24
tp949
aF40.240000000000236
tp950
sg78
((lp951
(F0.069999999999708962
I10
tp952
aF40.0
tp953
sg103
((lp954
(F0.0099999999997635314
I18
tp955
aF40.0
tp956
sg125
((lp957
F41.029999999999745
tp958
ssba(imeasure_core
ProblemSetSolution
p959
(dp960
g3
g189
sg159
g943
sg162
(dp961
g192
((lp962
F40.159999999999854
tp963
sg235
((lp964
F40.120000000000346
tp965
sg279
((lp966
F40.2199999999998
tp967
sg375
((lp968
(F34.359999999999673
I134
tp969
aF40.149999999999636
tp970
sg334
((lp971
F40.110000000000127
tp972
ssba(imeasure_core
ProblemSetSolution
p973
(dp974
g3
g435
sg159
g943
sg162
(dp975
g438
((lp976
F42.390000000000327
tp977
sg487
((lp978
F52.529999999999745
tp979
sg539
((lp980
F46.180000000000291
tp981
sg579
((lp982
F45.350000000000364
tp983
sg626
((lp984
F40.739999999999782
tp985
ssba(imeasure_core
ProblemSetSolution
p986
(dp987
g3
g4
sg159
S"AnytimeBeam-w20-gf(1.8999999999999999, 'exp')_with_LinearHeuristic"
p988
sg162
(dp989
g8
((lp990
(F11.899999999999636
I155
tp991
aF40.0
tp992
sg46
((lp993
(F2.9699999999993452
I24
tp994
aF40.169999999999163
tp995
sg78
((lp996
(F0.070000000000618456
I10
tp997
aF40.0
tp998
sg103
((lp999
(F0.020000000000436557
I18
tp1000
aF40.0
tp1001
sg125
((lp1002
F40.890000000000327
tp1003
ssba(imeasure_core
ProblemSetSolution
p1004
(dp1005
g3
g189
sg159
g988
sg162
(dp1006
g192
((lp1007
F40.279999999999745
tp1008
sg235
((lp1009
F40.329999999999927
tp1010
sg279
((lp1011
F40.180000000000291
tp1012
sg375
((lp1013
(F34.6299999999992
I134
tp1014
aF40.199999999999818
tp1015
sg334
((lp1016
F40.150000000000546
tp1017
ssba(imeasure_core
ProblemSetSolution
p1018
(dp1019
g3
g435
sg159
g988
sg162
(dp1020
g438
((lp1021
F42.300000000000182
tp1022
sg487
((lp1023
F52.3799999999992
tp1024
sg539
((lp1025
F46.079999999999927
tp1026
sg579
((lp1027
F45.410000000000764
tp1028
sg626
((lp1029
F41.059999999999491
tp1030
ssba.