(lp0
(imeasure_core
ProblemSetSolution
p1
(dp2
S'roomset'
p3
(imeasure_core
RoomSet
p4
(dp5
S'rooms'
p6
(dp7
(iproblems
RoomID
p8
(dp9
S'width'
p10
I10
sS'dusts'
p11
I6
sS'seed'
p12
I2405875930906139466
sS'obstacles'
p13
(I5
I1
tp14
sS'robots'
p15
I4
sS'height'
p16
I9
sb(imulti_robot_problem
MultiRobotState
p17
(dp18
S'obstacle_locations'
p19
c__builtin__
frozenset
p20
((lp21
(I7
I0
tp22
a(I7
I1
tp23
a(I6
I1
tp24
a(I6
I0
tp25
ag14
a(I7
I2
tp26
atp27
Rp28
sg10
I10
sS'dirt_locations'
p29
g20
((lp30
(I7
I3
tp31
a(I6
I4
tp32
a(I5
I6
tp33
a(I0
I7
tp34
a(I2
I1
tp35
a(I5
I2
tp36
atp37
Rp38
sg15
((I7
I6
tp39
(I3
I3
tp40
(I8
I6
tp41
(I0
I2
tp42
tp43
sg16
I9
sbs(iproblems
RoomID
p44
(dp45
g10
I7
sg11
I6
sg12
I8744744311366254845
sg13
(I6
I7
tp46
sg15
I4
sg16
I10
sb(imulti_robot_problem
MultiRobotState
p47
(dp48
g19
g20
((lp49
g46
a(I4
I6
tp50
a(I5
I7
tp51
a(I0
I6
tp52
a(I1
I9
tp53
a(I3
I7
tp54
atp55
Rp56
sg10
I7
sg29
g20
((lp57
(I2
I7
tp58
a(I0
I1
tp59
a(I5
I4
tp60
a(I6
I0
tp61
a(I5
I8
tp62
a(I5
I3
tp63
atp64
Rp65
sg15
((I0
I8
tp66
(I4
I2
tp67
(I3
I0
tp68
(I1
I4
tp69
tp70
sg16
I10
sbs(iproblems
RoomID
p71
(dp72
g10
I8
sg11
I10
sg12
I8655808914197340073
sg13
(I4
I7
tp73
sg15
I5
sg16
I10
sb(imulti_robot_problem
MultiRobotState
p74
(dp75
g19
g20
((lp76
(I2
I7
tp77
ag73
a(I4
I8
tp78
a(I6
I3
tp79
a(I7
I5
tp80
a(I3
I7
tp81
a(I1
I0
tp82
a(I5
I3
tp83
atp84
Rp85
sg10
I8
sg29
g20
((lp86
(I7
I3
tp87
a(I5
I4
tp88
a(I7
I0
tp89
a(I5
I7
tp90
a(I1
I5
tp91
a(I1
I9
tp92
a(I3
I6
tp93
a(I1
I7
tp94
a(I3
I4
tp95
a(I5
I8
tp96
atp97
Rp98
sg15
((I3
I8
tp99
(I7
I9
tp100
(I6
I1
tp101
(I2
I3
tp102
(I5
I5
tp103
tp104
sg16
I10
sbs(iproblems
RoomID
p105
(dp106
g10
I7
sg11
I6
sg12
I3537054308274871603
sg13
(I4
I6
tp107
sg15
I1
sg16
I8
sb(imulti_robot_problem
MultiRobotState
p108
(dp109
g19
g20
((lp110
(I4
I7
tp111
ag107
a(I4
I5
tp112
a(I6
I0
tp113
a(I2
I5
tp114
a(I2
I4
tp115
a(I3
I5
tp116
atp117
Rp118
sg10
I7
sg29
g20
((lp119
(I5
I6
tp120
a(I0
I6
tp121
a(I6
I2
tp122
a(I4
I1
tp123
a(I1
I1
tp124
a(I5
I3
tp125
atp126
Rp127
sg15
((I0
I3
tp128
tp129
sg16
I8
sbs(iproblems
RoomID
p130
(dp131
g10
I7
sg11
I8
sg12
I7325839828077136048
sg13
(I5
I3
tp132
sg15
I3
sg16
I7
sb(imulti_robot_problem
MultiRobotState
p133
(dp134
g19
g20
((lp135
(I6
I4
tp136
a(I5
I4
tp137
a(I5
I5
tp138
a(I6
I6
tp139
a(I3
I1
tp140
a(I6
I0
tp141
a(I2
I0
tp142
a(I0
I4
tp143
ag132
atp144
Rp145
sg10
I7
sg29
g20
((lp146
(I1
I5
tp147
a(I3
I0
tp148
a(I1
I1
tp149
a(I0
I6
tp150
a(I4
I3
tp151
a(I2
I2
tp152
a(I2
I4
tp153
a(I3
I5
tp154
atp155
Rp156
sg15
((I1
I0
tp157
(I3
I3
tp158
(I6
I2
tp159
tp160
sg16
I7
sbssS'name'
p161
S'easy_roomset'
p162
sbsS'name'
p163
S'LimitedTimeAStar_with_PowerHeuristic2'
p164
sS'solutions'
p165
(dp166
g8
((lp167
(F0.44000000000005457
I10
tp168
aF0.45000000000027285
tp169
sg44
((lp170
(F0.63999999999987267
I13
tp171
aF0.6499999999996362
tp172
sg71
((lp173
(F7.5500000000001819
I9
tp174
aF7.6400000000003274
tp175
sg105
((lp176
(F0.069999999999708962
I37
tp177
aF0.069999999999708962
tp178
sg130
((lp179
(F0.70000000000027285
I15
tp180
aF0.70000000000027285
tp181
ssba(imeasure_core
ProblemSetSolution
p182
(dp183
g3
(imeasure_core
RoomSet
p184
(dp185
S'rooms'
p186
(dp187
(iproblems
RoomID
p188
(dp189
S'width'
p190
I12
sS'dusts'
p191
I6
sS'seed'
p192
I2405875930906139466
sS'obstacles'
p193
(I1
I8
tp194
sS'robots'
p195
I4
sS'height'
p196
I11
sb(imulti_robot_problem
MultiRobotState
p197
(dp198
S'obstacle_locations'
p199
g20
((lp200
(I6
I6
tp201
a(I2
I8
tp202
a(I8
I0
tp203
a(I6
I2
tp204
a(I3
I7
tp205
a(I5
I5
tp206
a(I2
I9
tp207
a(I11
I5
tp208
a(I8
I1
tp209
a(I6
I3
tp210
a(I3
I6
tp211
a(I5
I3
tp212
a(I6
I4
tp213
a(I8
I2
tp214
a(I9
I10
tp215
a(I7
I5
tp216
a(I2
I3
tp217
a(I6
I5
tp218
a(I3
I3
tp219
a(I7
I0
tp220
a(I4
I6
tp221
a(I6
I1
tp222
a(I3
I1
tp223
a(I2
I0
tp224
ag194
a(I4
I3
tp225
a(I3
I4
tp226
atp227
Rp228
sg190
I12
sS'dirt_locations'
p229
g20
((lp230
(I7
I1
tp231
a(I9
I3
tp232
a(I7
I7
tp233
a(I2
I1
tp234
a(I9
I4
tp235
a(I0
I9
tp236
atp237
Rp238
sg195
((I9
I7
tp239
(I4
I4
tp240
(I10
I8
tp241
(I0
I2
tp242
tp243
sg196
I11
sbs(iproblems
RoomID
p244
(dp245
g190
I10
sg191
I10
sg192
I8655808914197340073
sg193
(I0
I5
tp246
sg195
I4
sg196
I12
sb(imulti_robot_problem
MultiRobotState
p247
(dp248
g199
g20
((lp249
(I5
I9
tp250
a(I4
I4
tp251
a(I6
I6
tp252
a(I8
I0
tp253
a(I0
I7
tp254
a(I1
I11
tp255
a(I5
I8
tp256
a(I6
I7
tp257
a(I5
I5
tp258
a(I4
I8
tp259
a(I6
I3
tp260
a(I5
I4
tp261
a(I1
I4
tp262
a(I7
I5
tp263
a(I2
I3
tp264
a(I9
I6
tp265
a(I6
I5
tp266
a(I4
I6
tp267
a(I6
I8
tp268
a(I7
I8
tp269
a(I5
I7
tp270
a(I3
I8
tp271
a(I2
I0
tp272
ag246
a(I3
I4
tp273
atp274
Rp275
sg190
I10
sg229
g20
((lp276
(I8
I3
tp277
a(I9
I0
tp278
a(I2
I9
tp279
a(I2
I11
tp280
a(I6
I9
tp281
a(I7
I7
tp282
a(I1
I7
tp283
a(I8
I6
tp284
a(I3
I5
tp285
a(I8
I4
tp286
atp287
Rp288
sg195
((I4
I9
tp289
(I8
I11
tp290
(I7
I1
tp291
(I3
I3
tp292
tp293
sg196
I12
sbs(iproblems
RoomID
p294
(dp295
g190
I11
sg191
I10
sg192
I4278205817407065157
sg193
(I3
I6
tp296
sg195
I4
sg196
I12
sb(imulti_robot_problem
MultiRobotState
p297
(dp298
g199
g20
((lp299
(I0
I1
tp300
a(I2
I7
tp301
a(I4
I7
tp302
a(I4
I6
tp303
a(I6
I7
tp304
a(I3
I3
tp305
a(I5
I6
tp306
a(I2
I8
tp307
a(I1
I10
tp308
a(I4
I4
tp309
a(I3
I8
tp310
a(I10
I7
tp311
a(I1
I9
tp312
a(I0
I10
tp313
ag296
a(I7
I11
tp314
a(I4
I5
tp315
a(I3
I7
tp316
a(I3
I5
tp317
a(I5
I3
tp318
atp319
Rp320
sg190
I11
sg229
g20
((lp321
(I1
I2
tp322
a(I8
I1
tp323
a(I6
I1
tp324
a(I5
I7
tp325
a(I3
I0
tp326
a(I8
I9
tp327
a(I9
I2
tp328
a(I9
I4
tp329
a(I0
I2
tp330
a(I4
I0
tp331
atp332
Rp333
sg195
((I6
I10
tp334
(I5
I11
tp335
(I2
I0
tp336
(I9
I1
tp337
tp338
sg196
I12
sbs(iproblems
RoomID
p339
(dp340
g190
I12
sg191
I10
sg192
I2796939073032698495
sg193
(I11
I0
tp341
sg195
I4
sg196
I9
sb(imulti_robot_problem
MultiRobotState
p342
(dp343
g199
g20
((lp344
(I7
I3
tp345
a(I3
I1
tp346
a(I9
I1
tp347
a(I6
I6
tp348
a(I8
I0
tp349
a(I7
I7
tp350
a(I7
I2
tp351
a(I3
I3
tp352
a(I8
I1
tp353
a(I4
I8
tp354
a(I6
I3
tp355
a(I5
I8
tp356
a(I3
I6
tp357
a(I6
I4
tp358
a(I5
I4
tp359
a(I2
I6
tp360
a(I7
I1
tp361
a(I4
I5
tp362
ag341
a(I2
I3
tp363
a(I10
I1
tp364
a(I1
I0
tp365
a(I6
I5
tp366
a(I5
I3
tp367
a(I8
I3
tp368
a(I7
I0
tp369
a(I6
I8
tp370
a(I9
I2
tp371
a(I6
I1
tp372
a(I5
I7
tp373
a(I8
I8
tp374
a(I4
I3
tp375
a(I5
I2
tp376
a(I10
I2
tp377
atp378
Rp379
sg190
I12
sg229
g20
((lp380
(I1
I2
tp381
a(I11
I7
tp382
a(I3
I2
tp383
a(I2
I8
tp384
a(I9
I3
tp385
a(I1
I6
tp386
a(I5
I0
tp387
a(I0
I3
tp388
a(I0
I8
tp389
a(I4
I1
tp390
atp391
Rp392
sg195
((I10
I8
tp393
(I4
I6
tp394
(I11
I4
tp395
(I7
I8
tp396
tp397
sg196
I9
sbs(iproblems
RoomID
p398
(dp399
g190
I12
sg191
I6
sg192
I7193062864237573168
sg193
(I3
I3
tp400
sg195
I4
sg196
I12
sb(imulti_robot_problem
MultiRobotState
p401
(dp402
g199
g20
((lp403
(I1
I3
tp404
a(I6
I6
tp405
a(I0
I7
tp406
a(I1
I6
tp407
a(I2
I5
tp408
a(I10
I3
tp409
a(I3
I1
tp410
ag400
a(I9
I7
tp411
a(I6
I4
tp412
a(I5
I4
tp413
a(I7
I1
tp414
a(I9
I3
tp415
a(I2
I3
tp416
a(I0
I8
tp417
a(I8
I3
tp418
a(I5
I7
tp419
a(I11
I3
tp420
a(I7
I4
tp421
a(I0
I9
tp422
a(I3
I4
tp423
a(I2
I4
tp424
a(I8
I4
tp425
atp426
Rp427
sg190
I12
sg229
g20
((lp428
(I2
I6
tp429
a(I6
I8
tp430
a(I0
I6
tp431
a(I4
I4
tp432
a(I7
I7
tp433
a(I2
I0
tp434
atp435
Rp436
sg195
((I11
I9
tp437
(I11
I2
tp438
(I4
I11
tp439
(I3
I6
tp440
tp441
sg196
I12
sbssS'name'
p442
S'mild_roomset'
p443
sbsg163
g164
sg165
(dp444
g188
((lp445
(F1.5599999999999454
I22
tp446
aF1.5799999999999272
tp447
sg244
((lp448
(F71.230000000000018
I23
tp449
aF71.549999999999727
tp450
sg339
((lp451
F300.40999999999985
tp452
sg294
((lp453
(F13.400000000000091
I22
tp454
aF13.550000000000182
tp455
sg398
((lp456
F300.86000000000013
tp457
ssba(imeasure_core
ProblemSetSolution
p458
(dp459
g3
(imeasure_core
RoomSet
p460
(dp461
S'rooms'
p462
(dp463
(iproblems
RoomID
p464
(dp465
S'width'
p466
I13
sS'dusts'
p467
I11
sS'seed'
p468
I2405875930906139466
sS'obstacles'
p469
(I10
I1
tp470
sS'robots'
p471
I7
sS'height'
p472
I12
sb(imulti_robot_problem
MultiRobotState
p473
(dp474
S'obstacle_locations'
p475
g20
((lp476
(I7
I3
tp477
a(I9
I0
tp478
a(I8
I4
tp479
a(I9
I1
tp480
a(I7
I1
tp481
a(I5
I6
tp482
a(I8
I11
tp483
a(I8
I0
tp484
a(I1
I4
tp485
a(I11
I7
tp486
a(I7
I4
tp487
a(I1
I5
tp488
a(I6
I2
tp489
a(I0
I7
tp490
ag470
a(I11
I6
tp491
a(I11
I5
tp492
a(I10
I2
tp493
a(I10
I3
tp494
a(I7
I2
tp495
a(I10
I4
tp496
atp497
Rp498
sg466
I13
sS'dirt_locations'
p499
g20
((lp500
(I6
I3
tp501
a(I10
I11
tp502
a(I8
I1
tp503
a(I3
I4
tp504
a(I10
I0
tp505
a(I12
I5
tp506
a(I2
I0
tp507
a(I2
I3
tp508
a(I5
I1
tp509
a(I8
I6
tp510
a(I7
I8
tp511
atp512
Rp513
sg471
((I10
I8
tp514
(I9
I2
tp515
(I4
I5
tp516
(I11
I8
tp517
(I1
I2
tp518
(I3
I1
tp519
(I0
I10
tp520
tp521
sg472
I12
sbs(iproblems
RoomID
p522
(dp523
g466
I10
sg467
I11
sg468
I8744744311366254845
sg469
(I7
I9
tp524
sg471
I6
sg472
I13
sb(imulti_robot_problem
MultiRobotState
p525
(dp526
g475
g20
((lp527
(I6
I9
tp528
a(I1
I3
tp529
a(I4
I9
tp530
a(I5
I6
tp531
a(I9
I8
tp532
a(I1
I8
tp533
a(I1
I0
tp534
a(I9
I7
tp535
a(I3
I4
tp536
a(I5
I8
tp537
ag524
atp538
Rp539
sg466
I10
sg499
g20
((lp540
(I0
I1
tp541
a(I7
I3
tp542
a(I9
I0
tp543
a(I1
I12
tp544
a(I5
I11
tp545
a(I4
I10
tp546
a(I9
I10
tp547
a(I3
I7
tp548
a(I7
I11
tp549
a(I0
I8
tp550
a(I9
I6
tp551
atp552
Rp553
sg471
((I0
I10
tp554
(I6
I3
tp555
(I4
I0
tp556
(I1
I6
tp557
(I7
I5
tp558
(I9
I9
tp559
tp560
sg472
I13
sbs(iproblems
RoomID
p561
(dp562
g466
I12
sg467
I15
sg468
I4278205817407065157
sg469
(I4
I8
tp563
sg471
I6
sg472
I13
sb(imulti_robot_problem
MultiRobotState
p564
(dp565
g475
g20
((lp566
(I11
I7
tp567
a(I2
I9
tp568
ag563
a(I5
I6
tp569
a(I2
I8
tp570
a(I6
I10
tp571
a(I3
I8
tp572
a(I11
I8
tp573
a(I3
I9
tp574
a(I1
I10
tp575
a(I1
I11
tp576
a(I7
I8
tp577
a(I2
I4
tp578
atp579
Rp580
sg466
I12
sg499
g20
((lp581
(I1
I2
tp582
a(I0
I1
tp583
a(I5
I4
tp584
a(I3
I1
tp585
a(I10
I4
tp586
a(I7
I1
tp587
a(I5
I7
tp588
a(I10
I5
tp589
a(I4
I7
tp590
a(I9
I9
tp591
a(I0
I10
tp592
a(I4
I3
tp593
a(I8
I12
tp594
a(I4
I1
tp595
a(I0
I2
tp596
atp597
Rp598
sg471
((I7
I10
tp599
(I6
I12
tp600
(I2
I0
tp601
(I9
I1
tp602
(I10
I3
tp603
(I4
I0
tp604
tp605
sg472
I13
sbs(iproblems
RoomID
p606
(dp607
g466
I11
sg467
I15
sg468
I8655808914197340073
sg469
(I5
I8
tp608
sg471
I7
sg472
I13
sb(imulti_robot_problem
MultiRobotState
p609
(dp610
g475
g20
((lp611
(I5
I9
tp612
a(I6
I7
tp613
a(I6
I11
tp614
a(I1
I4
tp615
a(I0
I12
tp616
a(I0
I11
tp617
a(I7
I5
tp618
a(I1
I6
tp619
a(I0
I4
tp620
a(I5
I10
tp621
a(I3
I9
tp622
a(I4
I9
tp623
a(I10
I3
tp624
ag608
atp625
Rp626
sg466
I11
sg499
g20
((lp627
(I2
I7
tp628
a(I7
I3
tp629
a(I9
I7
tp630
a(I4
I6
tp631
a(I1
I12
tp632
a(I5
I6
tp633
a(I9
I6
tp634
a(I7
I7
tp635
a(I2
I0
tp636
a(I9
I4
tp637
a(I7
I10
tp638
a(I0
I8
tp639
a(I8
I5
tp640
a(I6
I5
tp641
a(I7
I9
tp642
atp643
Rp644
sg471
((I9
I11
tp645
(I8
I1
tp646
(I3
I4
tp647
(I8
I7
tp648
(I9
I1
tp649
(I2
I10
tp650
(I2
I12
tp651
tp652
sg472
I13
sbs(iproblems
RoomID
p653
(dp654
g466
I13
sg467
I15
sg468
I2796939073032698495
sg469
(I3
I6
tp655
sg471
I7
sg472
I10
sb(imulti_robot_problem
MultiRobotState
p656
(dp657
g475
g20
((lp658
(I5
I9
tp659
a(I6
I9
tp660
a(I5
I7
tp661
a(I6
I6
tp662
a(I6
I2
tp663
a(I5
I1
tp664
a(I12
I9
tp665
a(I5
I8
tp666
a(I6
I7
tp667
a(I5
I5
tp668
a(I4
I8
tp669
a(I5
I0
tp670
a(I6
I4
tp671
a(I5
I4
tp672
ag655
a(I4
I5
tp673
a(I3
I9
tp674
a(I0
I5
tp675
a(I8
I7
tp676
a(I4
I9
tp677
a(I6
I5
tp678
a(I5
I3
tp679
a(I2
I7
tp680
a(I4
I6
tp681
a(I3
I1
tp682
a(I2
I0
tp683
a(I7
I8
tp684
atp685
Rp686
sg466
I13
sg499
g20
((lp687
(I1
I2
tp688
a(I8
I2
tp689
a(I2
I9
tp690
a(I12
I0
tp691
a(I3
I4
tp692
a(I6
I0
tp693
a(I9
I9
tp694
a(I2
I3
tp695
a(I9
I4
tp696
a(I1
I7
tp697
a(I0
I9
tp698
a(I3
I3
tp699
a(I7
I9
tp700
a(I4
I1
tp701
a(I12
I8
tp702
atp703
Rp704
sg471
((I10
I2
tp705
(I11
I8
tp706
(I12
I5
tp707
(I8
I9
tp708
(I10
I3
tp709
(I0
I3
tp710
(I11
I2
tp711
tp712
sg472
I10
sbssS'name'
p713
S'heavy_roomset'
p714
sbsg163
g164
sg165
(dp715
g464
((lp716
F308.5
tp717
sg522
((lp718
(F12.460000000000036
I13
tp719
aF12.590000000000146
tp720
sg561
((lp721
F304.55999999999949
tp722
sg606
((lp723
(F127.63000000000011
I12
tp724
aF128.46000000000004
tp725
sg653
((lp726
F302.0600000000004
tp727
ssba.