(lp0
(imeasure_core
ProblemSetSolution
p1
(dp2
S'roomset'
p3
(imeasure_core
RoomSet
p4
(dp5
S'rooms'
p6
(dp7
(iproblems
RoomID
p8
(dp9
S'dusts'
p10
I8
sS'obstacles'
p11
(I2
I4
tp12
sS'robots'
p13
I4
sS'height'
p14
I9
sS'width'
p15
I7
sS'seed'
p16
I7283207964119141687
sb(imulti_robot_problem
MultiRobotState
p17
(dp18
S'obstacle_locations'
p19
c__builtin__
frozenset
p20
((lp21
(I4
I6
tp22
a(I4
I3
tp23
a(I3
I0
tp24
a(I4
I2
tp25
a(I3
I4
tp26
ag12
a(I3
I3
tp27
atp28
Rp29
sg15
I7
sS'dirt_locations'
p30
g20
((lp31
(I4
I5
tp32
a(I5
I7
tp33
a(I0
I6
tp34
a(I1
I6
tp35
a(I5
I0
tp36
a(I5
I1
tp37
a(I5
I2
tp38
a(I1
I1
tp39
atp40
Rp41
sg13
((I1
I5
tp42
(I5
I5
tp43
(I3
I1
tp44
(I3
I5
tp45
tp46
sg14
I9
sbs(iproblems
RoomID
p47
(dp48
g10
I8
sg11
(I4
I6
tp49
sg13
I2
sg14
I10
sg15
I8
sg16
I890727360438182992
sb(imulti_robot_problem
MultiRobotState
p50
(dp51
g19
g20
((lp52
(I0
I0
tp53
ag49
a(I6
I6
tp54
a(I5
I6
tp55
a(I7
I6
tp56
a(I7
I4
tp57
a(I4
I2
tp58
a(I2
I4
tp59
atp60
Rp61
sg15
I8
sg30
g20
((lp62
(I7
I0
tp63
a(I7
I1
tp64
a(I6
I3
tp65
a(I1
I8
tp66
a(I0
I5
tp67
a(I5
I1
tp68
a(I1
I0
tp69
a(I0
I3
tp70
atp71
Rp72
sg13
((I2
I8
tp73
(I2
I5
tp74
tp75
sg14
I10
sbs(iproblems
RoomID
p76
(dp77
g10
I10
sg11
(I6
I5
tp78
sg13
I5
sg14
I8
sg15
I9
sg16
I3960482443532127989
sb(imulti_robot_problem
MultiRobotState
p79
(dp80
g19
g20
((lp81
(I4
I5
tp82
a(I5
I5
tp83
ag78
a(I6
I6
tp84
atp85
Rp86
sg15
I9
sg30
g20
((lp87
(I2
I7
tp88
a(I2
I6
tp89
a(I5
I0
tp90
a(I5
I7
tp91
a(I1
I4
tp92
a(I1
I5
tp93
a(I3
I6
tp94
a(I8
I0
tp95
a(I8
I5
tp96
a(I5
I3
tp97
atp98
Rp99
sg13
((I4
I3
tp100
(I8
I7
tp101
(I1
I6
tp102
(I7
I3
tp103
(I6
I4
tp104
tp105
sg14
I8
sbs(iproblems
RoomID
p106
(dp107
g10
I7
sg11
(I4
I1
tp108
sg13
I3
sg14
I10
sg15
I10
sg16
I1585446675937841368
sb(imulti_robot_problem
MultiRobotState
p109
(dp110
g19
g20
((lp111
(I3
I2
tp112
a(I2
I6
tp113
a(I6
I7
tp114
a(I6
I1
tp115
a(I7
I2
tp116
a(I5
I0
tp117
ag108
a(I2
I4
tp118
a(I5
I8
tp119
atp120
Rp121
sg15
I10
sg30
g20
((lp122
(I7
I3
tp123
a(I9
I4
tp124
a(I2
I9
tp125
a(I1
I7
tp126
a(I2
I2
tp127
a(I5
I2
tp128
a(I9
I7
tp129
atp130
Rp131
sg13
((I8
I9
tp132
(I4
I4
tp133
(I9
I8
tp134
tp135
sg14
I10
sbs(iproblems
RoomID
p136
(dp137
g10
I5
sg11
(I7
I3
tp138
sg13
I1
sg14
I7
sg15
I8
sg16
I1736392818365009963
sb(imulti_robot_problem
MultiRobotState
p139
(dp140
g19
g20
((lp141
g138
a(I2
I6
tp142
a(I7
I0
tp143
a(I7
I1
tp144
a(I2
I1
tp145
a(I6
I3
tp146
a(I0
I4
tp147
a(I7
I2
tp148
atp149
Rp150
sg15
I8
sg30
g20
((lp151
(I0
I1
tp152
a(I6
I2
tp153
a(I1
I6
tp154
a(I4
I4
tp155
a(I0
I0
tp156
atp157
Rp158
sg13
((I3
I1
tp159
tp160
sg14
I7
sbssS'name'
p161
S'easy_roomset'
p162
sbsg161
S"AnytimeBeam-w5-gf(1.3, 'exp')_with_PowerHeuristic2"
p163
sS'solutions'
p164
(dp165
g8
((lp166
(F1.0600000000049477
I28
tp167
aF40.05000000000291
tp168
sg47
((lp169
(F0.050000000002910383
I19
tp170
aF40.0
tp171
sg76
((lp172
(F1.5299999999988358
I10
tp173
aF40.080000000001746
tp174
sg106
((lp175
(F0.12999999999738066
I14
tp176
aF40.040000000000873
tp177
sg136
((lp178
(F0.069999999999708962
I30
tp179
a(F0.14999999999417923
I28
tp180
a(F1.0099999999947613
I27
tp181
a(F1.7299999999959255
I25
tp182
a(F2.0799999999944703
I23
tp183
a(F2.3799999999973807
I22
tp184
a(F3.5999999999985448
I21
tp185
a(F4.680000000000291
I20
tp186
aF40.0
tp187
ssba(imeasure_core
ProblemSetSolution
p188
(dp189
g3
(imeasure_core
RoomSet
p190
(dp191
g6
(dp192
(iproblems
RoomID
p193
(dp194
g10
I8
sg11
(I2
I6
tp195
sg13
I4
sg14
I11
sg15
I9
sg16
I7283207964119141687
sb(imulti_robot_problem
MultiRobotState
p196
(dp197
g19
g20
((lp198
(I4
I7
tp199
a(I1
I3
tp200
a(I4
I3
tp201
a(I4
I5
tp202
a(I5
I4
tp203
a(I1
I4
tp204
a(I8
I9
tp205
a(I6
I2
tp206
a(I0
I10
tp207
a(I3
I7
tp208
a(I0
I3
tp209
a(I8
I5
tp210
a(I4
I0
tp211
a(I5
I3
tp212
a(I5
I5
tp213
a(I5
I2
tp214
a(I6
I1
tp215
a(I6
I10
tp216
ag195
a(I6
I3
tp217
a(I3
I6
tp218
a(I3
I5
tp219
a(I3
I4
tp220
a(I2
I4
tp221
atp222
Rp223
sg15
I9
sg30
g20
((lp224
(I7
I0
tp225
a(I6
I8
tp226
a(I7
I1
tp227
a(I5
I6
tp228
a(I1
I8
tp229
a(I0
I8
tp230
a(I4
I1
tp231
a(I5
I8
tp232
atp233
Rp234
sg13
((I1
I7
tp235
(I6
I6
tp236
(I4
I6
tp237
(I2
I1
tp238
tp239
sg14
I11
sbs(iproblems
RoomID
p240
(dp241
g10
I8
sg11
(I3
I5
tp242
sg13
I3
sg14
I12
sg15
I10
sg16
I890727360438182992
sb(imulti_robot_problem
MultiRobotState
p243
(dp244
g19
g20
((lp245
(I4
I7
tp246
a(I0
I0
tp247
a(I3
I0
tp248
a(I3
I2
tp249
a(I1
I4
tp250
a(I8
I9
tp251
a(I7
I5
tp252
a(I2
I3
tp253
a(I3
I4
tp254
a(I5
I8
tp255
ag242
a(I3
I1
tp256
a(I6
I7
tp257
a(I6
I8
tp258
a(I5
I2
tp259
a(I5
I7
tp260
a(I8
I8
tp261
a(I3
I9
tp262
a(I4
I11
tp263
a(I7
I10
tp264
a(I2
I2
tp265
a(I0
I9
tp266
a(I7
I8
tp267
atp268
Rp269
sg15
I10
sg30
g20
((lp270
(I9
I2
tp271
a(I6
I1
tp272
a(I8
I0
tp273
a(I2
I10
tp274
a(I0
I6
tp275
a(I0
I4
tp276
a(I9
I5
tp277
a(I1
I1
tp278
atp279
Rp280
sg13
((I2
I9
tp281
(I2
I6
tp282
(I8
I4
tp283
tp284
sg14
I12
sbs(iproblems
RoomID
p285
(dp286
g10
I7
sg11
(I6
I3
tp287
sg13
I3
sg14
I12
sg15
I12
sg16
I1585446675937841368
sb(imulti_robot_problem
MultiRobotState
p288
(dp289
g19
g20
((lp290
(I5
I9
tp291
a(I4
I3
tp292
a(I5
I7
tp293
a(I8
I2
tp294
a(I4
I10
tp295
a(I7
I3
tp296
a(I2
I8
tp297
a(I9
I3
tp298
a(I3
I11
tp299
a(I7
I1
tp300
a(I7
I7
tp301
a(I6
I2
tp302
a(I5
I1
tp303
a(I1
I11
tp304
a(I8
I5
tp305
a(I7
I2
tp306
a(I2
I7
tp307
a(I6
I7
tp308
a(I6
I8
tp309
a(I2
I9
tp310
a(I5
I2
tp311
a(I7
I6
tp312
a(I6
I6
tp313
a(I2
I11
tp314
ag287
a(I4
I11
tp315
a(I7
I10
tp316
a(I3
I4
tp317
a(I8
I6
tp318
a(I7
I8
tp319
a(I8
I4
tp320
atp321
Rp322
sg15
I12
sg30
g20
((lp323
(I3
I2
tp324
a(I1
I9
tp325
a(I9
I4
tp326
a(I11
I5
tp327
a(I11
I8
tp328
a(I2
I5
tp329
a(I6
I10
tp330
atp331
Rp332
sg13
((I10
I10
tp333
(I5
I5
tp334
(I11
I10
tp335
tp336
sg14
I12
sbs(iproblems
RoomID
p337
(dp338
g10
I5
sg11
(I7
I6
tp339
sg13
I3
sg14
I9
sg15
I10
sg16
I1736392818365009963
sb(imulti_robot_problem
MultiRobotState
p340
(dp341
g19
g20
((lp342
(I7
I3
tp343
a(I9
I1
tp344
a(I4
I8
tp345
a(I9
I3
tp346
a(I7
I7
tp347
a(I6
I2
tp348
a(I0
I5
tp349
a(I0
I4
tp350
a(I8
I5
tp351
a(I7
I2
tp352
a(I1
I2
tp353
a(I3
I8
tp354
a(I9
I0
tp355
a(I9
I2
tp356
ag339
a(I7
I4
tp357
a(I7
I5
tp358
a(I6
I5
tp359
a(I4
I3
tp360
a(I2
I2
tp361
a(I0
I1
tp362
a(I5
I2
tp363
a(I8
I4
tp364
atp365
Rp366
sg15
I10
sg30
g20
((lp367
(I1
I8
tp368
a(I3
I1
tp369
a(I4
I1
tp370
a(I0
I2
tp371
a(I5
I5
tp372
atp373
Rp374
sg13
((I4
I2
tp375
(I1
I0
tp376
(I8
I2
tp377
tp378
sg14
I9
sbs(iproblems
RoomID
p379
(dp380
g10
I9
sg11
(I1
I3
tp381
sg13
I4
sg14
I9
sg15
I10
sg16
I7713914763314685786
sb(imulti_robot_problem
MultiRobotState
p382
(dp383
g19
g20
((lp384
(I3
I2
tp385
ag381
a(I7
I1
tp386
a(I9
I3
tp387
a(I6
I0
tp388
a(I2
I1
tp389
a(I4
I2
tp390
a(I5
I1
tp391
a(I9
I6
tp392
a(I7
I2
tp393
a(I4
I0
tp394
a(I1
I2
tp395
a(I7
I0
tp396
a(I5
I2
tp397
a(I6
I1
tp398
a(I3
I1
tp399
a(I1
I5
tp400
a(I1
I8
tp401
a(I2
I2
tp402
a(I3
I5
tp403
a(I4
I1
tp404
a(I1
I1
tp405
atp406
Rp407
sg15
I10
sg30
g20
((lp408
(I7
I3
tp409
a(I5
I4
tp410
a(I7
I6
tp411
a(I7
I5
tp412
a(I0
I5
tp413
a(I8
I7
tp414
a(I8
I6
tp415
a(I8
I5
tp416
a(I9
I7
tp417
atp418
Rp419
sg13
((I3
I0
tp420
(I7
I7
tp421
(I2
I0
tp422
(I4
I6
tp423
tp424
sg14
I9
sbssg161
S'mild_roomset'
p425
sbsg161
g163
sg164
(dp426
g193
((lp427
(F0.08999999999650754
I7
tp428
aF40.059999999997672
tp429
sg240
((lp430
F40.010000000002037
tp431
sg285
((lp432
(F0.1599999999962165
I20
tp433
aF40.009999999994761
tp434
sg337
((lp435
(F1.319999999999709
I66
tp436
aF40.030000000006112
tp437
sg379
((lp438
(F0.34999999999854481
I15
tp439
aF40.099999999998545
tp440
ssba(imeasure_core
ProblemSetSolution
p441
(dp442
g3
(imeasure_core
RoomSet
p443
(dp444
g6
(dp445
(iproblems
RoomID
p446
(dp447
g10
I13
sg11
(I8
I4
tp448
sg13
I7
sg14
I12
sg15
I10
sg16
I7283207964119141687
sb(imulti_robot_problem
MultiRobotState
p449
(dp450
g19
g20
((lp451
(I6
I3
tp452
a(I5
I2
tp453
a(I6
I10
tp454
a(I6
I0
tp455
a(I7
I4
tp456
a(I0
I11
tp457
a(I6
I2
tp458
a(I3
I6
tp459
a(I2
I2
tp460
a(I0
I4
tp461
a(I3
I4
tp462
a(I5
I8
tp463
ag448
atp464
Rp465
sg15
I10
sg30
g20
((lp466
(I7
I3
tp467
a(I6
I7
tp468
a(I6
I8
tp469
a(I7
I1
tp470
a(I8
I1
tp471
a(I4
I4
tp472
a(I6
I6
tp473
a(I5
I6
tp474
a(I1
I9
tp475
a(I5
I0
tp476
a(I9
I10
tp477
a(I9
I6
tp478
a(I7
I9
tp479
atp480
Rp481
sg13
((I1
I7
tp482
(I7
I6
tp483
(I4
I6
tp484
(I2
I1
tp485
(I6
I4
tp486
(I0
I9
tp487
(I8
I0
tp488
tp489
sg14
I12
sbs(iproblems
RoomID
p490
(dp491
g10
I13
sg11
(I8
I3
tp492
sg13
I5
sg14
I13
sg15
I11
sg16
I890727360438182992
sb(imulti_robot_problem
MultiRobotState
p493
(dp494
g19
g20
((lp495
(I4
I10
tp496
a(I6
I9
tp497
a(I8
I2
tp498
a(I5
I9
tp499
a(I9
I8
tp500
ag492
a(I4
I12
tp501
a(I0
I10
tp502
a(I8
I7
tp503
a(I9
I1
tp504
a(I9
I0
tp505
a(I6
I8
tp506
a(I6
I10
tp507
a(I8
I8
tp508
a(I8
I6
tp509
a(I7
I8
tp510
a(I0
I2
tp511
atp512
Rp513
sg15
I11
sg30
g20
((lp514
(I10
I5
tp515
a(I0
I0
tp516
a(I4
I6
tp517
a(I0
I6
tp518
a(I9
I2
tp519
a(I8
I11
tp520
a(I2
I1
tp521
a(I9
I10
tp522
a(I1
I5
tp523
a(I0
I4
tp524
a(I0
I9
tp525
a(I5
I2
tp526
a(I4
I11
tp527
atp528
Rp529
sg13
((I3
I10
tp530
(I2
I7
tp531
(I9
I4
tp532
(I2
I11
tp533
(I7
I1
tp534
tp535
sg14
I13
sbs(iproblems
RoomID
p536
(dp537
g10
I12
sg11
(I6
I9
tp538
sg13
I6
sg14
I13
sg15
I13
sg16
I1585446675937841368
sb(imulti_robot_problem
MultiRobotState
p539
(dp540
g19
g20
((lp541
(I7
I3
tp542
ag538
a(I8
I11
tp543
a(I7
I7
tp544
a(I4
I12
tp545
a(I10
I3
tp546
a(I5
I8
tp547
a(I7
I4
tp548
a(I1
I12
tp549
a(I2
I9
tp550
a(I8
I1
tp551
a(I7
I6
tp552
a(I6
I3
tp553
a(I9
I2
tp554
a(I7
I5
tp555
a(I7
I2
tp556
a(I7
I10
tp557
a(I8
I4
tp558
a(I3
I4
tp559
a(I2
I4
tp560
a(I9
I12
tp561
a(I9
I7
tp562
atp563
Rp564
sg15
I13
sg30
g20
((lp565
(I3
I3
tp566
a(I2
I8
tp567
a(I12
I9
tp568
a(I6
I10
tp569
a(I8
I10
tp570
a(I2
I10
tp571
a(I12
I5
tp572
a(I4
I3
tp573
a(I5
I1
tp574
a(I7
I9
tp575
a(I5
I2
tp576
a(I3
I5
tp577
atp578
Rp579
sg13
((I10
I11
tp580
(I5
I5
tp581
(I12
I11
tp582
(I1
I10
tp583
(I3
I12
tp584
(I10
I4
tp585
tp586
sg14
I13
sbs(iproblems
RoomID
p587
(dp588
g10
I10
sg11
(I10
I4
tp589
sg13
I5
sg14
I10
sg15
I11
sg16
I1736392818365009963
sb(imulti_robot_problem
MultiRobotState
p590
(dp591
g19
g20
((lp592
(I0
I1
tp593
a(I1
I2
tp594
a(I3
I2
tp595
ag589
a(I4
I5
tp596
a(I7
I4
tp597
a(I6
I2
tp598
a(I2
I3
tp599
a(I10
I1
tp600
a(I3
I8
tp601
a(I10
I0
tp602
a(I10
I3
tp603
a(I10
I2
tp604
atp605
Rp606
sg15
I11
sg30
g20
((lp607
(I5
I9
tp608
a(I5
I5
tp609
a(I3
I1
tp610
a(I8
I8
tp611
a(I0
I5
tp612
a(I3
I9
tp613
a(I8
I4
tp614
a(I4
I1
tp615
a(I6
I5
tp616
a(I5
I3
tp617
atp618
Rp619
sg13
((I4
I2
tp620
(I1
I0
tp621
(I9
I3
tp622
(I1
I9
tp623
(I0
I2
tp624
tp625
sg14
I10
sbs(iproblems
RoomID
p626
(dp627
g10
I15
sg11
(I6
I9
tp628
sg13
I7
sg14
I11
sg15
I12
sg16
I3960482443532127989
sb(imulti_robot_problem
MultiRobotState
p629
(dp630
g19
g20
((lp631
(I5
I9
tp632
ag628
a(I9
I1
tp633
a(I4
I10
tp634
a(I5
I6
tp635
a(I7
I7
tp636
a(I2
I10
tp637
a(I3
I9
tp638
a(I9
I4
tp639
a(I5
I10
tp640
a(I6
I4
tp641
a(I6
I5
tp642
a(I1
I2
tp643
a(I7
I4
tp644
a(I8
I3
tp645
a(I6
I7
tp646
a(I2
I9
tp647
a(I10
I7
tp648
a(I5
I7
tp649
a(I6
I3
tp650
a(I8
I1
tp651
a(I0
I9
tp652
a(I8
I6
tp653
a(I7
I8
tp654
a(I11
I6
tp655
a(I9
I7
tp656
atp657
Rp658
sg15
I12
sg30
g20
((lp659
(I7
I3
tp660
a(I2
I6
tp661
a(I5
I5
tp662
a(I3
I0
tp663
a(I3
I8
tp664
a(I0
I6
tp665
a(I11
I1
tp666
a(I1
I6
tp667
a(I4
I3
tp668
a(I1
I7
tp669
a(I1
I3
tp670
a(I1
I0
tp671
a(I10
I1
tp672
a(I1
I1
tp673
a(I10
I2
tp674
atp675
Rp676
sg13
((I11
I10
tp677
(I1
I8
tp678
(I10
I5
tp679
(I11
I0
tp680
(I4
I8
tp681
(I7
I9
tp682
(I7
I1
tp683
tp684
sg14
I11
sbssg161
S'heavy_roomset'
p685
sbsg161
g163
sg164
(dp686
g446
((lp687
(F33.200000000004366
I10
tp688
aF41.55000000000291
tp689
sg490
((lp690
F40.19999999999709
tp691
sg536
((lp692
F40.010000000002037
tp693
sg587
((lp694
(F0.98999999999796273
I9
tp695
aF40.200000000004366
tp696
sg626
((lp697
F45.180000000000291
tp698
ssba(imeasure_core
ProblemSetSolution
p699
(dp700
g3
g4
sg161
S"AnytimeBeam-w15-gf(1.3, 'exp')_with_PowerHeuristic2"
p701
sg164
(dp702
g8
((lp703
(F1.680000000000291
I28
tp704
aF40.029999999998836
tp705
sg47
((lp706
(F0.08000000000174623
I19
tp707
aF40.0
tp708
sg76
((lp709
(F1.75
I10
tp710
aF40.270000000004075
tp711
sg106
((lp712
(F0.19999999999708962
I14
tp713
aF40.069999999999709
tp714
sg136
((lp715
(F0.059999999997671694
I30
tp716
a(F0.13999999999941792
I28
tp717
a(F1.0899999999965075
I27
tp718
a(F1.5100000000020373
I25
tp719
a(F1.8600000000005821
I23
tp720
a(F2.1599999999962165
I22
tp721
a(F3.3799999999973807
I21
tp722
a(F4.4599999999991269
I20
tp723
aF40.0
tp724
ssba(imeasure_core
ProblemSetSolution
p725
(dp726
g3
g190
sg161
g701
sg164
(dp727
g193
((lp728
(F0.12999999999738066
I7
tp729
aF40.30000000000291
tp730
sg240
((lp731
F40.129999999997381
tp732
sg285
((lp733
(F0.25
I20
tp734
aF40.0
tp735
sg337
((lp736
(F1.1500000000014552
I66
tp737
aF40.0
tp738
sg379
((lp739
(F0.47999999999592546
I15
tp740
aF40.319999999999709
tp741
ssba(imeasure_core
ProblemSetSolution
p742
(dp743
g3
g443
sg161
g701
sg164
(dp744
g446
((lp745
(F35.55000000000291
I10
tp746
aF43.919999999998254
tp747
sg490
((lp748
F40.389999999999418
tp749
sg536
((lp750
F40.080000000001746
tp751
sg587
((lp752
(F1.1900000000023283
I9
tp753
aF40.44999999999709
tp754
sg626
((lp755
F40.080000000001746
tp756
ssba(imeasure_core
ProblemSetSolution
p757
(dp758
g3
g4
sg161
S"AnytimeBeam-w25-gf(1.3, 'exp')_with_PowerHeuristic2"
p759
sg164
(dp760
g8
((lp761
(F1.8399999999965075
I28
tp762
aF40.269999999996799
tp763
sg47
((lp764
(F0.090000000003783498
I19
tp765
aF40.0
tp766
sg76
((lp767
(F1.8400000000037835
I10
tp768
aF40.270000000004075
tp769
sg106
((lp770
(F0.23999999999796273
I14
tp771
aF40.049999999995634
tp772
sg136
((lp773
(F0.069999999999708962
I30
tp774
a(F0.16000000000349246
I28
tp775
a(F0.66000000000349246
I27
tp776
a(F1.0
I25
tp777
a(F1.3500000000058208
I23
tp778
a(F1.6500000000014552
I22
tp779
a(F2.8700000000026193
I21
tp780
a(F3.9599999999991269
I20
tp781
aF40.0
tp782
ssba(imeasure_core
ProblemSetSolution
p783
(dp784
g3
g190
sg161
g759
sg164
(dp785
g193
((lp786
(F0.15000000000145519
I7
tp787
aF40.120000000002619
tp788
sg240
((lp789
F40.25
tp790
sg285
((lp791
(F0.31999999999970896
I20
tp792
aF40.0
tp793
sg337
((lp794
(F1.3399999999965075
I66
tp795
aF40.0
tp796
sg379
((lp797
(F0.58000000000174623
I15
tp798
aF40.029999999998836
tp799
ssba(imeasure_core
ProblemSetSolution
p800
(dp801
g3
g443
sg161
g759
sg164
(dp802
g446
((lp803
(F35.510000000002037
I10
tp804
aF43.870000000002619
tp805
sg490
((lp806
F40.049999999995634
tp807
sg536
((lp808
F40.460000000006403
tp809
sg587
((lp810
(F1.25
I9
tp811
aF40.339999999996508
tp812
sg626
((lp813
F40.059999999997672
tp814
ssba(imeasure_core
ProblemSetSolution
p815
(dp816
g3
g4
sg161
S"AnytimeBeam-w35-gf(1.3, 'exp')_with_PowerHeuristic2"
p817
sg164
(dp818
g8
((lp819
(F2.0800000000017462
I28
tp820
aF40.380000000004657
tp821
sg47
((lp822
(F0.099999999998544808
I19
tp823
aF40.0
tp824
sg76
((lp825
(F1.9599999999991269
I10
tp826
aF40.529999999998836
tp827
sg106
((lp828
(F0.26999999999679858
I14
tp829
aF40.059999999997672
tp830
sg136
((lp831
(F0.08000000000174623
I30
tp832
a(F0.16000000000349246
I28
tp833
a(F0.48999999999796273
I27
tp834
a(F0.90000000000145519
I25
tp835
a(F1.2600000000020373
I23
tp836
a(F1.5599999999976717
I22
tp837
a(F2.7900000000008731
I21
tp838
a(F3.8800000000046566
I20
tp839
aF40.0
tp840
ssba(imeasure_core
ProblemSetSolution
p841
(dp842
g3
g190
sg161
g817
sg164
(dp843
g193
((lp844
(F0.16999999999825377
I7
tp845
aF40.209999999999127
tp846
sg240
((lp847
F40.019999999996799
tp848
sg285
((lp849
(F0.37000000000261934
I20
tp850
aF40.030000000006112
tp851
sg337
((lp852
(F1.5499999999956344
I66
tp853
aF40.029999999998836
tp854
sg379
((lp855
(F0.68999999999505235
I15
tp856
aF40.089999999996508
tp857
ssba(imeasure_core
ProblemSetSolution
p858
(dp859
g3
g443
sg161
g817
sg164
(dp860
g446
((lp861
(F36.610000000000582
I10
tp862
aF44.989999999997963
tp863
sg490
((lp864
F40.029999999998836
tp865
sg536
((lp866
F40.350000000005821
tp867
sg587
((lp868
(F1.3499999999985448
I9
tp869
aF40.539999999993597
tp870
sg626
((lp871
F40.150000000001455
tp872
ssba(imeasure_core
ProblemSetSolution
p873
(dp874
g3
g4
sg161
S"AnytimeBeam-w45-gf(1.3, 'exp')_with_PowerHeuristic2"
p875
sg164
(dp876
g8
((lp877
(F2.2200000000011642
I28
tp878
aF40.220000000001164
tp879
sg47
((lp880
(F0.099999999998544808
I19
tp881
aF40.0
tp882
sg76
((lp883
(F2.0299999999988358
I10
tp884
aF40.220000000001164
tp885
sg106
((lp886
(F0.30000000000291038
I14
tp887
aF40.069999999999709
tp888
sg136
((lp889
(F0.08000000000174623
I30
tp890
a(F0.16000000000349246
I28
tp891
a(F0.48000000000320142
I27
tp892
a(F0.88999999999941792
I25
tp893
a(F1.2399999999979627
I23
tp894
a(F1.5400000000008731
I22
tp895
a(F2.7600000000020373
I21
tp896
a(F3.8499999999985448
I20
tp897
aF40.0
tp898
ssba(imeasure_core
ProblemSetSolution
p899
(dp900
g3
g190
sg161
g875
sg164
(dp901
g193
((lp902
(F0.20999999999912689
I7
tp903
aF40.220000000001164
tp904
sg240
((lp905
F40.059999999997672
tp906
sg285
((lp907
(F0.43000000000029104
I20
tp908
aF40.0
tp909
sg337
((lp910
(F1.7099999999991269
I66
tp911
aF40.010000000002037
tp912
sg379
((lp913
(F0.76000000000203727
I15
tp914
aF40.089999999996508
tp915
ssba(imeasure_core
ProblemSetSolution
p916
(dp917
g3
g443
sg161
g875
sg164
(dp918
g446
((lp919
(F36.680000000000291
I10
tp920
aF45.020000000004075
tp921
sg490
((lp922
F40.569999999999709
tp923
sg536
((lp924
F40.360000000000582
tp925
sg587
((lp926
(F1.4000000000014552
I9
tp927
aF40.049999999995634
tp928
sg626
((lp929
F40.230000000003201
tp930
ssba(imeasure_core
ProblemSetSolution
p931
(dp932
g3
g4
sg161
S"AnytimeBeam-w5-gf(1.3, 'exp')_with_LinearHeuristic"
p933
sg164
(dp934
g8
((lp935
(F0.26999999999679858
I5
tp936
aF40.099999999998545
tp937
sg47
((lp938
(F0.090000000003783498
I22
tp939
aF40.0
tp940
sg76
((lp941
(F1.5599999999976717
I10
tp942
aF40.0
tp943
sg106
((lp944
(F2.069999999999709
I67
tp945
aF40.0
tp946
sg136
((lp947
(F0.020000000004074536
I20
tp948
aF40.0
tp949
ssba(imeasure_core
ProblemSetSolution
p950
(dp951
g3
g190
sg161
g933
sg164
(dp952
g193
((lp953
(F23.139999999999418
I177
tp954
aF40.069999999999709
tp955
sg240
((lp956
F40.080000000001746
tp957
sg285
((lp958
F40.05000000000291
tp959
sg337
((lp960
(F0.18999999999505235
I23
tp961
a(F16.169999999998254
I21
tp962
a(F21.489999999997963
I20
tp963
a(F30.159999999996217
I19
tp964
aF40.039999999993597
tp965
sg379
((lp966
F40.160000000003492
tp967
ssba(imeasure_core
ProblemSetSolution
p968
(dp969
g3
g443
sg161
g933
sg164
(dp970
g446
((lp971
F41.559999999997672
tp972
sg490
((lp973
F40.200000000004366
tp974
sg536
((lp975
F40.029999999998836
tp976
sg587
((lp977
(F34.900000000001455
I95
tp978
aF40.010000000002037
tp979
sg626
((lp980
F44.349999999998545
tp981
ssba(imeasure_core
ProblemSetSolution
p982
(dp983
g3
g4
sg161
S"AnytimeBeam-w15-gf(1.3, 'exp')_with_LinearHeuristic"
p984
sg164
(dp985
g8
((lp986
(F0.36000000000058208
I5
tp987
aF40.060000000004948
tp988
sg47
((lp989
(F0.16999999999825377
I22
tp990
aF40.0
tp991
sg76
((lp992
(F2.0400000000008731
I10
tp993
aF40.309999999997672
tp994
sg106
((lp995
(F2.3000000000029104
I67
tp996
aF40.129999999997381
tp997
sg136
((lp998
(F0.010000000002037268
I20
tp999
aF40.0
tp1000
ssba(imeasure_core
ProblemSetSolution
p1001
(dp1002
g3
g190
sg161
g984
sg164
(dp1003
g193
((lp1004
(F16.850000000005821
I177
tp1005
aF40.0
tp1006
sg240
((lp1007
F40.060000000004948
tp1008
sg285
((lp1009
F40.159999999996217
tp1010
sg337
((lp1011
(F0.27000000000407454
I23
tp1012
a(F25.0
I21
tp1013
a(F30.370000000002619
I20
tp1014
a(F39.92000000000553
I19
tp1015
aF40.010000000002037
tp1016
sg379
((lp1017
F40.010000000002037
tp1018
ssba(imeasure_core
ProblemSetSolution
p1019
(dp1020
g3
g443
sg161
g984
sg164
(dp1021
g446
((lp1022
F42.639999999999418
tp1023
sg490
((lp1024
F40.180000000000291
tp1025
sg536
((lp1026
F40.279999999998836
tp1027
sg587
((lp1028
(F17.940000000002328
I95
tp1029
aF40.169999999998254
tp1030
sg626
((lp1031
F40.239999999997963
tp1032
ssba(imeasure_core
ProblemSetSolution
p1033
(dp1034
g3
g4
sg161
S"AnytimeBeam-w25-gf(1.3, 'exp')_with_LinearHeuristic"
p1035
sg164
(dp1036
g8
((lp1037
(F0.40000000000145519
I5
tp1038
aF40.140000000006694
tp1039
sg47
((lp1040
(F0.17999999999301508
I22
tp1041
aF40.0
tp1042
sg76
((lp1043
(F2.1999999999970896
I10
tp1044
aF40.099999999998545
tp1045
sg106
((lp1046
(F3.4000000000014552
I67
tp1047
aF40.019999999996799
tp1048
sg136
((lp1049
(F0.010000000002037268
I20
tp1050
aF40.0
tp1051
ssba(imeasure_core
ProblemSetSolution
p1052
(dp1053
g3
g190
sg161
g1035
sg164
(dp1054
g193
((lp1055
(F13.200000000004366
I177
tp1056
aF40.029999999998836
tp1057
sg240
((lp1058
(F36.510000000002037
I338
tp1059
aF40.05000000000291
tp1060
sg285
((lp1061
F40.069999999999709
tp1062
sg337
((lp1063
(F0.31999999999970896
I23
tp1064
a(F19.80000000000291
I21
tp1065
a(F25.129999999997381
I20
tp1066
a(F33.900000000001455
I19
tp1067
aF40.029999999998836
tp1068
sg379
((lp1069
F40.349999999998545
tp1070
ssba(imeasure_core
ProblemSetSolution
p1071
(dp1072
g3
g443
sg161
g1035
sg164
(dp1073
g446
((lp1074
F43.30000000000291
tp1075
sg490
((lp1076
F40.040000000000873
tp1077
sg536
((lp1078
F40.429999999993015
tp1079
sg587
((lp1080
(F18.700000000004366
I95
tp1081
aF43.5
tp1082
sg626
((lp1083
F40.150000000001455
tp1084
ssba(imeasure_core
ProblemSetSolution
p1085
(dp1086
g3
g4
sg161
S"AnytimeBeam-w35-gf(1.3, 'exp')_with_LinearHeuristic"
p1087
sg164
(dp1088
g8
((lp1089
(F0.45999999999912689
I5
tp1090
aF40.330000000001746
tp1091
sg47
((lp1092
(F0.19999999999708962
I22
tp1093
aF40.0
tp1094
sg76
((lp1095
(F2.5
I10
tp1096
aF40.220000000001164
tp1097
sg106
((lp1098
(F4.8899999999994179
I67
tp1099
aF40.099999999998545
tp1100
sg136
((lp1101
(F0.010000000002037268
I20
tp1102
aF40.0
tp1103
ssba(imeasure_core
ProblemSetSolution
p1104
(dp1105
g3
g190
sg161
g1087
sg164
(dp1106
g193
((lp1107
(F14.429999999993015
I177
tp1108
aF40.0
tp1109
sg240
((lp1110
F40.129999999997381
tp1111
sg285
((lp1112
F40.0
tp1113
sg337
((lp1114
(F0.40000000000145519
I23
tp1115
a(F11.790000000000873
I21
tp1116
a(F17.129999999997381
I20
tp1117
a(F25.650000000001455
I19
tp1118
aF40.010000000002037
tp1119
sg379
((lp1120
F40.069999999999709
tp1121
ssba(imeasure_core
ProblemSetSolution
p1122
(dp1123
g3
g443
sg161
g1087
sg164
(dp1124
g446
((lp1125
F40.379999999997381
tp1126
sg490
((lp1127
F40.080000000001746
tp1128
sg536
((lp1129
F40.279999999998836
tp1130
sg587
((lp1131
(F20.809999999997672
I95
tp1132
aF40.110000000000582
tp1133
sg626
((lp1134
F40.25
tp1135
ssba(imeasure_core
ProblemSetSolution
p1136
(dp1137
g3
g4
sg161
S"AnytimeBeam-w45-gf(1.3, 'exp')_with_LinearHeuristic"
p1138
sg164
(dp1139
g8
((lp1140
(F0.47000000000116415
I5
tp1141
aF40.110000000000582
tp1142
sg47
((lp1143
(F0.18999999999505235
I22
tp1144
aF40.019999999996799
tp1145
sg76
((lp1146
(F2.6399999999994179
I10
tp1147
aF40.450000000004366
tp1148
sg106
((lp1149
(F7.7299999999959255
I67
tp1150
aF40.099999999998545
tp1151
sg136
((lp1152
(F0.010000000002037268
I20
tp1153
aF40.0
tp1154
ssba(imeasure_core
ProblemSetSolution
p1155
(dp1156
g3
g190
sg161
g1138
sg164
(dp1157
g193
((lp1158
(F14.970000000001164
I177
tp1159
aF40.010000000002037
tp1160
sg240
((lp1161
F40.119999999995343
tp1162
sg285
((lp1163
F40.150000000001455
tp1164
sg337
((lp1165
(F0.45999999999912689
I23
tp1166
a(F23.470000000001164
I21
tp1167
a(F28.849999999998545
I20
tp1168
a(F38.440000000002328
I19
tp1169
aF40.069999999999709
tp1170
sg379
((lp1171
F40.180000000000291
tp1172
ssba(imeasure_core
ProblemSetSolution
p1173
(dp1174
g3
g443
sg161
g1138
sg164
(dp1175
g446
((lp1176
F40.790000000000873
tp1177
sg490
((lp1178
F40.07999999999447
tp1179
sg536
((lp1180
F40.010000000002037
tp1181
sg587
((lp1182
(F21.870000000002619
I95
tp1183
aF40.269999999996799
tp1184
sg626
((lp1185
F40.640000000006694
tp1186
ssba.