(lp0
(imeasure_core
ProblemSetSolution
p1
(dp2
S'roomset'
p3
(imeasure_core
RoomSet
p4
(dp5
S'rooms'
p6
(dp7
(iproblems
RoomID
p8
(dp9
S'dusts'
p10
I10
sS'obstacles'
p11
(I0
I8
tp12
sS'robots'
p13
I4
sS'height'
p14
I10
sS'width'
p15
I9
sS'seed'
p16
I4712128852136459333
sb(imulti_robot_problem
MultiRobotState
p17
(dp18
S'obstacle_locations'
p19
c__builtin__
frozenset
p20
((lp21
(I0
I6
tp22
ag12
a(I2
I3
tp23
a(I1
I5
tp24
a(I8
I0
tp25
a(I1
I1
tp26
a(I0
I7
tp27
atp28
Rp29
sg15
I9
sS'dirt_locations'
p30
g20
((lp31
(I4
I7
tp32
a(I1
I3
tp33
a(I4
I9
tp34
a(I8
I1
tp35
a(I7
I6
tp36
a(I2
I6
tp37
a(I8
I7
tp38
a(I2
I2
tp39
a(I4
I1
tp40
a(I2
I4
tp41
atp42
Rp43
sg13
((I5
I8
tp44
(I6
I9
tp45
(I5
I0
tp46
(I3
I1
tp47
tp48
sg14
I10
sbs(iproblems
RoomID
p49
(dp50
g10
I9
sg11
(I3
I4
tp51
sg13
I1
sg14
I7
sg15
I8
sg16
I6613812840851947673
sb(imulti_robot_problem
MultiRobotState
p52
(dp53
g19
g20
((lp54
(I3
I5
tp55
ag51
a(I2
I4
tp56
a(I2
I1
tp57
a(I1
I4
tp58
atp59
Rp60
sg15
I8
sg30
g20
((lp61
(I6
I4
tp62
a(I5
I4
tp63
a(I6
I0
tp64
a(I7
I5
tp65
a(I1
I6
tp66
a(I2
I2
tp67
a(I0
I5
tp68
a(I4
I1
tp69
a(I4
I0
tp70
atp71
Rp72
sg13
((I3
I1
tp73
tp74
sg14
I7
sbs(iproblems
RoomID
p75
(dp76
g10
I10
sg11
(I4
I5
tp77
sg13
I1
sg14
I8
sg15
I8
sg16
I2893396244277848635
sb(imulti_robot_problem
MultiRobotState
p78
(dp79
g19
g20
((lp80
g77
a(I3
I7
tp81
a(I2
I6
tp82
a(I4
I6
tp83
atp84
Rp85
sg15
I8
sg30
g20
((lp86
(I6
I4
tp87
a(I0
I0
tp88
a(I6
I7
tp89
a(I3
I0
tp90
a(I2
I1
tp91
a(I0
I6
tp92
a(I7
I2
tp93
a(I2
I4
tp94
a(I6
I5
tp95
a(I5
I3
tp96
atp97
Rp98
sg13
((I2
I3
tp99
tp100
sg14
I8
sbs(iproblems
RoomID
p101
(dp102
g10
I10
sg11
(I4
I8
tp103
sg13
I4
sg14
I10
sg15
I7
sg16
I956523682424107605
sb(imulti_robot_problem
MultiRobotState
p104
(dp105
g19
g20
((lp106
(I2
I8
tp107
ag103
a(I3
I7
tp108
a(I2
I9
tp109
a(I4
I2
tp110
atp111
Rp112
sg15
I7
sg30
g20
((lp113
(I5
I9
tp114
a(I4
I7
tp115
a(I1
I3
tp116
a(I3
I3
tp117
a(I5
I5
tp118
a(I6
I1
tp119
a(I5
I4
tp120
a(I0
I4
tp121
a(I5
I2
tp122
a(I5
I3
tp123
atp124
Rp125
sg13
((I1
I9
tp126
(I4
I9
tp127
(I1
I8
tp128
(I0
I3
tp129
tp130
sg14
I10
sbs(iproblems
RoomID
p131
(dp132
g10
I9
sg11
(I5
I3
tp133
sg13
I3
sg14
I7
sg15
I8
sg16
I4594210616595436404
sb(imulti_robot_problem
MultiRobotState
p134
(dp135
g19
g20
((lp136
(I0
I1
tp137
a(I3
I3
tp138
a(I4
I3
tp139
a(I4
I2
tp140
a(I6
I1
tp141
ag133
atp142
Rp143
sg15
I8
sg30
g20
((lp144
(I6
I6
tp145
a(I5
I6
tp146
a(I4
I4
tp147
a(I1
I4
tp148
a(I0
I6
tp149
a(I5
I1
tp150
a(I1
I0
tp151
a(I0
I3
tp152
a(I1
I1
tp153
atp154
Rp155
sg13
((I2
I1
tp156
(I3
I4
tp157
(I3
I6
tp158
tp159
sg14
I7
sbssS'name'
p160
S'easy_roomset'
p161
sbsg160
S'AnytimeBest-d10_with_PowerHeuristic2'
p162
sS'solutions'
p163
(dp164
g8
((lp165
F40.18999999999869
tp166
sg49
((lp167
F0.7000000000007276
tp168
sg75
((lp169
F0.86000000000058208
tp170
sg101
((lp171
(F0.34000000000014552
I10
tp172
aF40.049999999999272
tp173
sg131
((lp174
F40.119999999998981
tp175
ssba(imeasure_core
ProblemSetSolution
p176
(dp177
g3
(imeasure_core
RoomSet
p178
(dp179
g6
(dp180
(iproblems
RoomID
p181
(dp182
g10
I10
sg11
(I8
I7
tp183
sg13
I4
sg14
I12
sg15
I11
sg16
I4712128852136459333
sb(imulti_robot_problem
MultiRobotState
p184
(dp185
g19
g20
((lp186
(I6
I4
tp187
a(I4
I7
tp188
ag183
a(I4
I5
tp189
a(I3
I11
tp190
a(I0
I7
tp191
a(I7
I7
tp192
a(I1
I6
tp193
a(I1
I9
tp194
a(I2
I10
tp195
a(I4
I2
tp196
a(I1
I11
tp197
a(I6
I5
tp198
a(I5
I3
tp199
a(I9
I0
tp200
a(I0
I8
tp201
a(I5
I5
tp202
a(I7
I6
tp203
a(I3
I1
tp204
a(I2
I11
tp205
a(I0
I9
tp206
a(I2
I3
tp207
a(I4
I1
tp208
a(I1
I1
tp209
atp210
Rp211
sg15
I11
sg30
g20
((lp212
(I2
I7
tp213
a(I9
I1
tp214
a(I9
I8
tp215
a(I5
I1
tp216
a(I2
I5
tp217
a(I9
I7
tp218
a(I3
I4
tp219
a(I2
I4
tp220
a(I5
I8
tp221
a(I3
I3
tp222
atp223
Rp224
sg13
((I6
I10
tp225
(I8
I10
tp226
(I7
I0
tp227
(I5
I11
tp228
tp229
sg14
I12
sbs(iproblems
RoomID
p230
(dp231
g10
I9
sg11
(I4
I4
tp232
sg13
I3
sg14
I9
sg15
I10
sg16
I4594210616595436404
sb(imulti_robot_problem
MultiRobotState
p233
(dp234
g19
g20
((lp235
(I1
I3
tp236
a(I3
I0
tp237
a(I2
I1
tp238
a(I1
I6
tp239
a(I9
I4
tp240
a(I3
I7
tp241
a(I0
I3
tp242
a(I1
I2
tp243
a(I5
I5
tp244
a(I1
I5
tp245
a(I7
I6
tp246
ag232
a(I6
I3
tp247
a(I5
I6
tp248
a(I3
I6
tp249
a(I0
I4
tp250
a(I8
I6
tp251
a(I3
I5
tp252
a(I1
I1
tp253
a(I5
I4
tp254
a(I4
I5
tp255
a(I0
I5
tp256
a(I5
I3
tp257
a(I0
I1
tp258
a(I5
I2
tp259
a(I0
I6
tp260
a(I2
I0
tp261
a(I1
I8
tp262
a(I2
I3
tp263
a(I9
I5
tp264
a(I3
I4
tp265
a(I0
I2
tp266
atp267
Rp268
sg15
I10
sg30
g20
((lp269
(I7
I8
tp270
a(I7
I0
tp271
a(I6
I8
tp272
a(I2
I8
tp273
a(I8
I8
tp274
a(I0
I8
tp275
a(I8
I5
tp276
a(I5
I8
tp277
a(I8
I2
tp278
atp279
Rp280
sg13
((I4
I6
tp281
(I2
I5
tp282
(I6
I1
tp283
tp284
sg14
I9
sbs(iproblems
RoomID
p285
(dp286
g10
I6
sg11
(I8
I8
tp287
sg13
I4
sg14
I11
sg15
I12
sg16
I7529058068588108450
sb(imulti_robot_problem
MultiRobotState
p288
(dp289
g19
g20
((lp290
(I5
I9
tp291
a(I6
I9
tp292
a(I2
I6
tp293
a(I3
I2
tp294
a(I9
I1
tp295
a(I4
I10
tp296
a(I6
I6
tp297
a(I7
I7
tp298
a(I7
I1
tp299
a(I4
I6
tp300
a(I10
I4
tp301
a(I7
I5
tp302
a(I6
I8
tp303
a(I3
I7
tp304
a(I5
I8
tp305
a(I8
I2
tp306
a(I5
I5
tp307
a(I7
I6
tp308
a(I4
I4
tp309
a(I7
I4
tp310
a(I1
I5
tp311
ag287
a(I7
I2
tp312
a(I3
I6
tp313
a(I2
I2
tp314
a(I1
I10
tp315
a(I7
I8
tp316
a(I3
I10
tp317
atp318
Rp319
sg15
I12
sg30
g20
((lp320
(I7
I3
tp321
a(I0
I5
tp322
a(I4
I0
tp323
a(I11
I3
tp324
a(I11
I6
tp325
a(I6
I0
tp326
atp327
Rp328
sg13
((I11
I7
tp329
(I6
I2
tp330
(I11
I5
tp331
(I6
I7
tp332
tp333
sg14
I11
sbs(iproblems
RoomID
p334
(dp335
g10
I5
sg11
(I4
I9
tp336
sg13
I4
sg14
I11
sg15
I11
sg16
I1881095652490078568
sb(imulti_robot_problem
MultiRobotState
p337
(dp338
g19
g20
((lp339
(I6
I9
tp340
a(I6
I6
tp341
a(I4
I5
tp342
a(I2
I8
tp343
a(I9
I3
tp344
a(I4
I7
tp345
a(I7
I5
tp346
a(I5
I4
tp347
ag336
a(I6
I5
tp348
a(I3
I5
tp349
a(I7
I4
tp350
a(I1
I7
tp351
a(I6
I7
tp352
a(I4
I6
tp353
a(I7
I6
tp354
a(I4
I4
tp355
a(I8
I10
tp356
a(I6
I3
tp357
a(I7
I10
tp358
a(I2
I2
tp359
a(I4
I8
tp360
a(I7
I8
tp361
a(I1
I1
tp362
a(I8
I4
tp363
atp364
Rp365
sg15
I11
sg30
g20
((lp366
(I1
I10
tp367
a(I5
I9
tp368
a(I0
I0
tp369
a(I10
I2
tp370
a(I9
I7
tp371
atp372
Rp373
sg13
((I5
I7
tp374
(I8
I1
tp375
(I3
I1
tp376
(I8
I8
tp377
tp378
sg14
I11
sbs(iproblems
RoomID
p379
(dp380
g10
I8
sg11
(I5
I0
tp381
sg13
I4
sg14
I9
sg15
I9
sg16
I6858376947525423350
sb(imulti_robot_problem
MultiRobotState
p382
(dp383
g19
g20
((lp384
(I6
I4
tp385
a(I4
I7
tp386
a(I1
I3
tp387
a(I4
I3
tp388
a(I7
I1
tp389
a(I3
I0
tp390
a(I2
I8
tp391
a(I6
I0
tp392
a(I2
I1
tp393
a(I1
I6
tp394
a(I5
I1
tp395
a(I2
I5
tp396
a(I0
I8
tp397
a(I7
I2
tp398
a(I2
I7
tp399
a(I3
I8
tp400
a(I5
I5
tp401
a(I6
I1
tp402
a(I5
I7
tp403
a(I6
I3
tp404
a(I1
I8
tp405
ag381
a(I2
I2
tp406
a(I2
I3
tp407
a(I3
I4
tp408
a(I2
I4
tp409
atp410
Rp411
sg15
I9
sg30
g20
((lp412
(I8
I3
tp413
a(I7
I0
tp414
a(I4
I6
tp415
a(I6
I6
tp416
a(I7
I5
tp417
a(I8
I0
tp418
a(I8
I8
tp419
a(I8
I4
tp420
atp421
Rp422
sg13
((I1
I1
tp423
(I6
I5
tp424
(I8
I2
tp425
(I1
I5
tp426
tp427
sg14
I9
sbssg160
S'mild_roomset'
p428
sbsg160
g162
sg163
(dp429
g181
((lp430
F40.280000000002474
tp431
sg230
((lp432
F40.020000000000437
tp433
sg285
((lp434
F40.029999999998836
tp435
sg334
((lp436
(F0.14999999999781721
I7
tp437
aF40.0
tp438
sg379
((lp439
F40.029999999998836
tp440
ssba(imeasure_core
ProblemSetSolution
p441
(dp442
g3
(imeasure_core
RoomSet
p443
(dp444
g6
(dp445
(iproblems
RoomID
p446
(dp447
g10
I15
sg11
(I5
I9
tp448
sg13
I7
sg14
I13
sg15
I12
sg16
I4712128852136459333
sb(imulti_robot_problem
MultiRobotState
p449
(dp450
g19
g20
((lp451
g448
a(I4
I9
tp452
a(I5
I5
tp453
a(I4
I12
tp454
a(I2
I8
tp455
a(I3
I1
tp456
a(I3
I9
tp457
a(I9
I4
tp458
a(I1
I7
tp459
a(I1
I10
tp460
a(I3
I12
tp461
a(I0
I8
tp462
a(I5
I2
tp463
atp464
Rp465
sg15
I12
sg30
g20
((lp466
(I6
I9
tp467
a(I3
I3
tp468
a(I1
I12
tp469
a(I5
I6
tp470
a(I7
I7
tp471
a(I3
I5
tp472
a(I3
I8
tp473
a(I8
I8
tp474
a(I10
I0
tp475
a(I2
I5
tp476
a(I10
I2
tp477
a(I3
I4
tp478
a(I1
I1
tp479
a(I5
I8
tp480
a(I9
I7
tp481
atp482
Rp483
sg13
((I6
I11
tp484
(I8
I11
tp485
(I7
I0
tp486
(I4
I1
tp487
(I6
I12
tp488
(I10
I9
tp489
(I6
I1
tp490
tp491
sg14
I13
sbs(iproblems
RoomID
p492
(dp493
g10
I14
sg11
(I5
I5
tp494
sg13
I5
sg14
I10
sg15
I11
sg16
I6613812840851947673
sb(imulti_robot_problem
MultiRobotState
p495
(dp496
g19
g20
((lp497
(I4
I7
tp498
a(I2
I6
tp499
a(I6
I6
tp500
a(I4
I5
tp501
a(I7
I5
tp502
a(I1
I6
tp503
a(I8
I7
tp504
a(I3
I7
tp505
a(I10
I3
tp506
a(I3
I5
tp507
a(I10
I8
tp508
a(I6
I3
tp509
ag494
a(I8
I5
tp510
a(I7
I4
tp511
a(I3
I8
tp512
a(I0
I6
tp513
a(I3
I6
tp514
a(I1
I3
tp515
a(I8
I6
tp516
a(I2
I4
tp517
atp518
Rp519
sg15
I11
sg30
g20
((lp520
(I6
I4
tp521
a(I3
I2
tp522
a(I4
I6
tp523
a(I4
I9
tp524
a(I3
I3
tp525
a(I9
I8
tp526
a(I8
I0
tp527
a(I8
I8
tp528
a(I5
I0
tp529
a(I1
I0
tp530
a(I8
I4
tp531
a(I5
I2
tp532
a(I6
I1
tp533
a(I9
I7
tp534
atp535
Rp536
sg13
((I5
I1
tp537
(I0
I8
tp538
(I2
I9
tp539
(I4
I1
tp540
(I7
I6
tp541
tp542
sg14
I10
sbs(iproblems
RoomID
p543
(dp544
g10
I15
sg11
(I6
I6
tp545
sg13
I5
sg14
I11
sg15
I11
sg16
I2893396244277848635
sb(imulti_robot_problem
MultiRobotState
p546
(dp547
g19
g20
((lp548
(I7
I3
tp549
a(I4
I7
tp550
a(I5
I5
tp551
a(I4
I8
tp552
a(I5
I6
tp553
a(I2
I8
tp554
ag545
a(I3
I2
tp555
a(I3
I9
tp556
a(I4
I3
tp557
a(I1
I7
tp558
a(I6
I9
tp559
atp560
Rp561
sg15
I11
sg30
g20
((lp562
(I2
I6
tp563
a(I8
I7
tp564
a(I3
I10
tp565
a(I3
I1
tp566
a(I2
I10
tp567
a(I0
I5
tp568
a(I6
I5
tp569
a(I3
I6
tp570
a(I8
I6
tp571
a(I4
I0
tp572
a(I3
I7
tp573
a(I7
I9
tp574
a(I4
I1
tp575
a(I5
I8
tp576
a(I5
I3
tp577
atp578
Rp579
sg13
((I4
I5
tp580
(I0
I9
tp581
(I0
I1
tp582
(I9
I2
tp583
(I8
I10
tp584
tp585
sg14
I11
sbs(iproblems
RoomID
p586
(dp587
g10
I13
sg11
(I1
I6
tp588
sg13
I7
sg14
I10
sg15
I10
sg16
I6858376947525423350
sb(imulti_robot_problem
MultiRobotState
p589
(dp590
g19
g20
((lp591
(I4
I7
tp592
a(I1
I3
tp593
a(I2
I8
tp594
a(I2
I2
tp595
a(I2
I1
tp596
a(I2
I3
tp597
a(I9
I5
tp598
a(I2
I5
tp599
a(I2
I7
tp600
a(I2
I9
tp601
a(I8
I1
tp602
ag588
a(I1
I7
tp603
a(I0
I9
tp604
a(I8
I6
tp605
a(I2
I4
tp606
atp607
Rp608
sg15
I10
sg30
g20
((lp609
(I8
I0
tp610
a(I4
I9
tp611
a(I3
I3
tp612
a(I3
I0
tp613
a(I7
I6
tp614
a(I5
I7
tp615
a(I9
I9
tp616
a(I4
I4
tp617
a(I6
I2
tp618
a(I9
I4
tp619
a(I8
I5
tp620
a(I5
I8
tp621
a(I5
I3
tp622
atp623
Rp624
sg13
((I1
I2
tp625
(I7
I5
tp626
(I7
I2
tp627
(I9
I2
tp628
(I1
I5
tp629
(I9
I0
tp630
(I6
I6
tp631
tp632
sg14
I10
sbs(iproblems
RoomID
p633
(dp634
g10
I15
sg11
(I4
I8
tp635
sg13
I6
sg14
I13
sg15
I10
sg16
I956523682424107605
sb(imulti_robot_problem
MultiRobotState
p636
(dp637
g19
g20
((lp638
(I5
I9
tp639
a(I6
I9
tp640
a(I7
I10
tp641
ag635
a(I5
I6
tp642
a(I3
I11
tp643
a(I9
I4
tp644
a(I4
I9
tp645
a(I5
I8
tp646
a(I2
I7
tp647
a(I5
I10
tp648
a(I5
I5
tp649
a(I3
I10
tp650
a(I5
I7
tp651
a(I9
I9
tp652
a(I5
I0
tp653
a(I7
I8
tp654
a(I1
I1
tp655
atp656
Rp657
sg15
I10
sg30
g20
((lp658
(I6
I10
tp659
a(I8
I3
tp660
a(I1
I3
tp661
a(I6
I6
tp662
a(I7
I6
tp663
a(I8
I12
tp664
a(I5
I4
tp665
a(I1
I4
tp666
a(I2
I10
tp667
a(I7
I4
tp668
a(I1
I5
tp669
a(I7
I5
tp670
a(I0
I9
tp671
a(I7
I11
tp672
a(I6
I2
tp673
atp674
Rp675
sg13
((I1
I12
tp676
(I6
I12
tp677
(I2
I11
tp678
(I0
I4
tp679
(I9
I1
tp680
(I7
I7
tp681
tp682
sg14
I13
sbssg160
S'heavy_roomset'
p683
sbsg160
g162
sg163
(dp684
g446
((lp685
F46.240000000001601
tp686
sg492
((lp687
F41.039999999997235
tp688
sg543
((lp689
F40.390000000003056
tp690
sg633
((lp691
(F12.759999999998399
I10
tp692
aF40.169999999998254
tp693
sg586
((lp694
F40.319999999999709
tp695
ssba(imeasure_core
ProblemSetSolution
p696
(dp697
g3
g4
sg160
S'AnytimeBest-d80_with_PowerHeuristic2'
p698
sg163
(dp699
g8
((lp700
(F3.3300000000017462
I51
tp701
aF40.040000000000873
tp702
sg49
((lp703
(F0.13999999999941792
I36
tp704
a(F1.569999999999709
I30
tp705
a(F2.3600000000005821
I29
tp706
a(F9.4599999999991269
I28
tp707
a(F13.159999999999854
I27
tp708
a(F24.18999999999869
I26
tp709
a(F24.270000000000437
I25
tp710
aF40.009999999998399
tp711
sg75
((lp712
(F0.7000000000007276
I61
tp713
a(F2.069999999999709
I57
tp714
a(F2.6200000000026193
I56
tp715
a(F3.3800000000010186
I54
tp716
a(F3.6100000000005821
I52
tp717
a(F5.6599999999998545
I51
tp718
a(F7.9000000000014552
I50
tp719
a(F8.4700000000011642
I48
tp720
a(F9.7600000000020373
I46
tp721
a(F10.990000000001601
I44
tp722
a(F22.100000000002183
I43
tp723
a(F22.710000000002765
I42
tp724
a(F23.460000000002765
I41
tp725
a(F24.680000000000291
I40
tp726
a(F26.130000000001019
I39
tp727
a(F29.630000000001019
I37
tp728
a(F30.05000000000291
I35
tp729
a(F31.020000000000437
I33
tp730
aF40.0
tp731
sg101
((lp732
(F0.34000000000014552
I10
tp733
aF40.080000000001746
tp734
sg131
((lp735
(F2.1599999999998545
I26
tp736
aF40.029999999998836
tp737
ssba(imeasure_core
ProblemSetSolution
p738
(dp739
g3
g178
sg160
g698
sg163
(dp740
g181
((lp741
(F1.2599999999983993
I23
tp742
aF40.099999999998545
tp743
sg230
((lp744
F40.010000000002037
tp745
sg285
((lp746
(F0.94999999999708962
I33
tp747
aF40.019999999996799
tp748
sg334
((lp749
(F0.15000000000145519
I7
tp750
aF40.0
tp751
sg379
((lp752
(F0.27000000000043656
I16
tp753
aF40.020000000000437
tp754
ssba(imeasure_core
ProblemSetSolution
p755
(dp756
g3
g443
sg160
g698
sg163
(dp757
g446
((lp758
F46.130000000001019
tp759
sg492
((lp760
F40.119999999998981
tp761
sg543
((lp762
(F8.4099999999998545
I27
tp763
aF40.139999999999418
tp764
sg633
((lp765
(F12.819999999999709
I10
tp766
aF41.290000000000873
tp767
sg586
((lp768
(F36.220000000001164
I14
tp769
aF40.350000000002183
tp770
ssba(imeasure_core
ProblemSetSolution
p771
(dp772
g3
g4
sg160
S'AnytimeBest-d150_with_PowerHeuristic2'
p773
sg163
(dp774
g8
((lp775
(F3.3499999999985448
I51
tp776
aF40.079999999998108
tp777
sg49
((lp778
(F0.13999999999941792
I36
tp779
a(F1.5499999999992724
I30
tp780
a(F2.3400000000001455
I29
tp781
a(F9.430000000000291
I28
tp782
a(F13.180000000000291
I27
tp783
a(F24.25
I26
tp784
a(F24.330000000001746
I25
tp785
aF40.010000000002037
tp786
sg75
((lp787
(F0.69999999999708962
I61
tp788
a(F2.0599999999976717
I57
tp789
a(F2.6099999999969441
I56
tp790
a(F3.3699999999989814
I54
tp791
a(F3.6099999999969441
I52
tp792
a(F5.6699999999982538
I51
tp793
a(F7.8899999999994179
I50
tp794
a(F8.4699999999975262
I48
tp795
a(F9.7599999999983993
I46
tp796
a(F10.979999999999563
I44
tp797
a(F21.959999999999127
I43
tp798
a(F22.569999999999709
I42
tp799
a(F23.309999999997672
I41
tp800
a(F24.509999999998399
I40
tp801
a(F25.94999999999709
I39
tp802
a(F29.459999999999127
I37
tp803
a(F29.879999999997381
I35
tp804
a(F30.859999999996944
I33
tp805
aF40.0
tp806
sg101
((lp807
(F0.34000000000014552
I10
tp808
aF40.049999999999272
tp809
sg131
((lp810
(F2.1599999999998545
I26
tp811
aF40.029999999998836
tp812
ssba(imeasure_core
ProblemSetSolution
p813
(dp814
g3
g178
sg160
g773
sg163
(dp815
g181
((lp816
(F1.2700000000004366
I23
tp817
aF40.049999999999272
tp818
sg230
((lp819
F40.020000000000437
tp820
sg285
((lp821
(F0.94000000000232831
I33
tp822
aF40.020000000000437
tp823
sg334
((lp824
(F0.15000000000145519
I7
tp825
aF40.0
tp826
sg379
((lp827
(F0.27000000000043656
I16
tp828
aF40.020000000000437
tp829
ssba(imeasure_core
ProblemSetSolution
p830
(dp831
g3
g443
sg160
g773
sg163
(dp832
g446
((lp833
F46.43999999999869
tp834
sg492
((lp835
F40.360000000000582
tp836
sg543
((lp837
(F8.4599999999991269
I27
tp838
aF40.220000000001164
tp839
sg633
((lp840
(F12.650000000001455
I10
tp841
aF40.170000000001892
tp842
sg586
((lp843
(F35.790000000000873
I14
tp844
aF40.329999999998108
tp845
ssba(imeasure_core
ProblemSetSolution
p846
(dp847
g3
g4
sg160
S'AnytimeBest-d250_with_PowerHeuristic2'
p848
sg163
(dp849
g8
((lp850
(F3.3300000000017462
I51
tp851
aF40.040000000000873
tp852
sg49
((lp853
(F0.13999999999941792
I36
tp854
a(F1.5499999999992724
I30
tp855
a(F2.3400000000001455
I29
tp856
a(F9.4900000000016007
I28
tp857
a(F13.220000000001164
I27
tp858
a(F24.330000000001746
I26
tp859
a(F24.409999999999854
I25
tp860
aF40.009999999998399
tp861
sg75
((lp862
(F0.7000000000007276
I61
tp863
a(F2.0700000000033469
I57
tp864
a(F2.6300000000010186
I56
tp865
a(F3.3900000000030559
I54
tp866
a(F3.6400000000030559
I52
tp867
a(F5.7200000000011642
I51
tp868
a(F7.9700000000011642
I50
tp869
a(F8.5500000000029104
I48
tp870
a(F9.8600000000005821
I46
tp871
a(F11.090000000000146
I44
tp872
a(F22.200000000000728
I43
tp873
a(F22.820000000003347
I42
tp874
a(F23.580000000001746
I41
tp875
a(F24.80000000000291
I40
tp876
a(F26.25
I39
tp877
a(F29.770000000000437
I37
tp878
a(F30.190000000002328
I35
tp879
a(F31.170000000001892
I33
tp880
aF40.0
tp881
sg101
((lp882
(F0.34000000000014552
I10
tp883
aF40.070000000003347
tp884
sg131
((lp885
(F2.1699999999982538
I26
tp886
aF40.019999999996799
tp887
ssba(imeasure_core
ProblemSetSolution
p888
(dp889
g3
g178
sg160
g848
sg163
(dp890
g181
((lp891
(F1.2599999999983993
I23
tp892
aF40.049999999999272
tp893
sg230
((lp894
F40.119999999998981
tp895
sg285
((lp896
(F0.94000000000232831
I33
tp897
aF40.020000000000437
tp898
sg334
((lp899
(F0.15000000000145519
I7
tp900
aF40.0
tp901
sg379
((lp902
(F0.27000000000043656
I16
tp903
aF40.020000000000437
tp904
ssba(imeasure_core
ProblemSetSolution
p905
(dp906
g3
g443
sg160
g848
sg163
(dp907
g446
((lp908
F46.25
tp909
sg492
((lp910
F40.590000000000146
tp911
sg543
((lp912
(F8.5099999999983993
I27
tp913
aF40.240000000001601
tp914
sg633
((lp915
(F12.830000000001746
I10
tp916
aF40.950000000000728
tp917
sg586
((lp918
(F35.769999999996799
I14
tp919
aF40.329999999998108
tp920
ssba(imeasure_core
ProblemSetSolution
p921
(dp922
g3
g4
sg160
S'AnytimeBest-d400_with_PowerHeuristic2'
p923
sg163
(dp924
g8
((lp925
(F3.319999999999709
I51
tp926
aF40.150000000001455
tp927
sg49
((lp928
(F0.13999999999941792
I36
tp929
a(F1.5600000000013097
I30
tp930
a(F2.3499999999985448
I29
tp931
a(F9.4900000000016007
I28
tp932
a(F13.229999999999563
I27
tp933
a(F24.279999999998836
I26
tp934
a(F24.360000000000582
I25
tp935
aF40.009999999998399
tp936
sg75
((lp937
(F0.71000000000276486
I61
tp938
a(F2.069999999999709
I57
tp939
a(F2.6200000000026193
I56
tp940
a(F3.3800000000010186
I54
tp941
a(F3.6100000000005821
I52
tp942
a(F5.6700000000018917
I51
tp943
a(F7.8900000000030559
I50
tp944
a(F8.4500000000007276
I48
tp945
a(F9.7400000000016007
I46
tp946
a(F10.950000000000728
I44
tp947
a(F22.06000000000131
I43
tp948
a(F22.670000000001892
I42
tp949
a(F23.430000000000291
I41
tp950
a(F24.640000000003056
I40
tp951
a(F26.090000000000146
I39
tp952
a(F29.640000000003056
I37
tp953
a(F30.06000000000131
I35
tp954
a(F31.05000000000291
I33
tp955
aF40.0
tp956
sg101
((lp957
(F0.34000000000014552
I10
tp958
aF40.05000000000291
tp959
sg131
((lp960
(F2.1499999999978172
I26
tp961
aF40.029999999998836
tp962
ssba(imeasure_core
ProblemSetSolution
p963
(dp964
g3
g178
sg160
g923
sg163
(dp965
g181
((lp966
(F1.2700000000004366
I23
tp967
aF40.099999999998545
tp968
sg230
((lp969
F40.090000000000146
tp970
sg285
((lp971
(F0.9500000000007276
I33
tp972
aF40.020000000000437
tp973
sg334
((lp974
(F0.15000000000145519
I7
tp975
aF40.010000000002037
tp976
sg379
((lp977
(F0.25999999999839929
I16
tp978
aF40.019999999996799
tp979
ssba(imeasure_core
ProblemSetSolution
p980
(dp981
g3
g443
sg160
g923
sg163
(dp982
g446
((lp983
F46.130000000001019
tp984
sg492
((lp985
F40.569999999999709
tp986
sg543
((lp987
(F8.4900000000016007
I27
tp988
aF40.110000000000582
tp989
sg633
((lp990
(F12.719999999997526
I10
tp991
aF40.180000000000291
tp992
sg586
((lp993
(F35.930000000000291
I14
tp994
aF40.330000000001746
tp995
ssba(imeasure_core
ProblemSetSolution
p996
(dp997
g3
g4
sg160
S'AnytimeBest-d10_with_LinearHeuristic'
p998
sg163
(dp999
g8
((lp1000
F40.18999999999869
tp1001
sg49
((lp1002
F2.2800000000024738
tp1003
sg75
((lp1004
F2.7399999999979627
tp1005
sg101
((lp1006
F40.100000000002183
tp1007
sg131
((lp1008
(F0.1099999999969441
I8
tp1009
aF40.059999999997672
tp1010
ssba(imeasure_core
ProblemSetSolution
p1011
(dp1012
g3
g178
sg160
g998
sg163
(dp1013
g181
((lp1014
F40.090000000000146
tp1015
sg230
((lp1016
(F20.870000000002619
I10
tp1017
aF40.030000000002474
tp1018
sg285
((lp1019
F40.129999999997381
tp1020
sg334
((lp1021
(F0.35000000000218279
I7
tp1022
aF40.180000000000291
tp1023
sg379
((lp1024
F40.130000000001019
tp1025
ssba(imeasure_core
ProblemSetSolution
p1026
(dp1027
g3
g443
sg160
g998
sg163
(dp1028
g446
((lp1029
F49.370000000002619
tp1030
sg492
((lp1031
F40.340000000000146
tp1032
sg543
((lp1033
F40.319999999999709
tp1034
sg633
((lp1035
F42.190000000002328
tp1036
sg586
((lp1037
F42.919999999998254
tp1038
ssba(imeasure_core
ProblemSetSolution
p1039
(dp1040
g3
g4
sg160
S'AnytimeBest-d80_with_LinearHeuristic'
p1041
sg163
(dp1042
g8
((lp1043
F40.099999999998545
tp1044
sg49
((lp1045
(F0.019999999996798579
I25
tp1046
aF40.0
tp1047
sg75
((lp1048
(F0.029999999998835847
I32
tp1049
a(F1.0999999999985448
I30
tp1050
aF40.0
tp1051
sg101
((lp1052
F40.19999999999709
tp1053
sg131
((lp1054
(F0.11000000000058208
I8
tp1055
aF40.080000000001746
tp1056
ssba(imeasure_core
ProblemSetSolution
p1057
(dp1058
g3
g178
sg160
g1041
sg163
(dp1059
g181
((lp1060
F40.059999999997672
tp1061
sg230
((lp1062
(F13.160000000003492
I14
tp1063
aF40.030000000006112
tp1064
sg285
((lp1065
F40.059999999997672
tp1066
sg334
((lp1067
(F0.34999999999854481
I7
tp1068
aF40.180000000000291
tp1069
sg379
((lp1070
F40.080000000001746
tp1071
ssba(imeasure_core
ProblemSetSolution
p1072
(dp1073
g3
g443
sg160
g1041
sg163
(dp1074
g446
((lp1075
F48.880000000004657
tp1076
sg492
((lp1077
F40.389999999999418
tp1078
sg543
((lp1079
F40.519999999996799
tp1080
sg633
((lp1081
F41.029999999998836
tp1082
sg586
((lp1083
F42.730000000003201
tp1084
ssba(imeasure_core
ProblemSetSolution
p1085
(dp1086
g3
g4
sg160
S'AnytimeBest-d150_with_LinearHeuristic'
p1087
sg163
(dp1088
g8
((lp1089
F40.110000000000582
tp1090
sg49
((lp1091
(F0.019999999996798579
I25
tp1092
aF40.0
tp1093
sg75
((lp1094
(F0.029999999998835847
I32
tp1095
a(F1.1199999999953434
I30
tp1096
aF40.0
tp1097
sg101
((lp1098
F40.069999999999709
tp1099
sg131
((lp1100
(F0.11000000000058208
I8
tp1101
aF40.089999999996508
tp1102
ssba(imeasure_core
ProblemSetSolution
p1103
(dp1104
g3
g178
sg160
g1087
sg163
(dp1105
g181
((lp1106
F40.05000000000291
tp1107
sg230
((lp1108
(F13.110000000000582
I14
tp1109
aF40.029999999998836
tp1110
sg285
((lp1111
F40.049999999995634
tp1112
sg334
((lp1113
(F0.35000000000582077
I7
tp1114
aF40.110000000000582
tp1115
sg379
((lp1116
F40.040000000000873
tp1117
ssba(imeasure_core
ProblemSetSolution
p1118
(dp1119
g3
g443
sg160
g1087
sg163
(dp1120
g446
((lp1121
F49.290000000000873
tp1122
sg492
((lp1123
F40.809999999997672
tp1124
sg543
((lp1125
F40.320000000006985
tp1126
sg633
((lp1127
F41.200000000004366
tp1128
sg586
((lp1129
F42.759999999994761
tp1130
ssba(imeasure_core
ProblemSetSolution
p1131
(dp1132
g3
g4
sg160
S'AnytimeBest-d250_with_LinearHeuristic'
p1133
sg163
(dp1134
g8
((lp1135
F40.339999999996508
tp1136
sg49
((lp1137
(F0.020000000004074536
I25
tp1138
aF40.0
tp1139
sg75
((lp1140
(F0.029999999998835847
I32
tp1141
a(F1.1100000000005821
I30
tp1142
aF40.0
tp1143
sg101
((lp1144
F40.25
tp1145
sg131
((lp1146
(F0.11000000000058208
I8
tp1147
aF40.059999999997672
tp1148
ssba(imeasure_core
ProblemSetSolution
p1149
(dp1150
g3
g178
sg160
g1133
sg163
(dp1151
g181
((lp1152
F40.290000000000873
tp1153
sg230
((lp1154
(F13.040000000000873
I14
tp1155
aF40.029999999998836
tp1156
sg285
((lp1157
F40.520000000004075
tp1158
sg334
((lp1159
(F0.34999999999854481
I7
tp1160
aF40.080000000001746
tp1161
sg379
((lp1162
F40.430000000000291
tp1163
ssba(imeasure_core
ProblemSetSolution
p1164
(dp1165
g3
g443
sg160
g1133
sg163
(dp1166
g446
((lp1167
F49.180000000000291
tp1168
sg492
((lp1169
F40.57999999999447
tp1170
sg543
((lp1171
F40.389999999999418
tp1172
sg633
((lp1173
F40.589999999996508
tp1174
sg586
((lp1175
F42.630000000004657
tp1176
ssba(imeasure_core
ProblemSetSolution
p1177
(dp1178
g3
g4
sg160
S'AnytimeBest-d400_with_LinearHeuristic'
p1179
sg163
(dp1180
g8
((lp1181
F40.110000000000582
tp1182
sg49
((lp1183
(F0.019999999996798579
I25
tp1184
aF40.0
tp1185
sg75
((lp1186
(F0.029999999998835847
I32
tp1187
a(F1.0999999999985448
I30
tp1188
aF40.0
tp1189
sg101
((lp1190
F40.309999999997672
tp1191
sg131
((lp1192
(F0.12000000000261934
I8
tp1193
aF40.060000000004948
tp1194
ssba(imeasure_core
ProblemSetSolution
p1195
(dp1196
g3
g178
sg160
g1179
sg163
(dp1197
g181
((lp1198
F40.229999999995925
tp1199
sg230
((lp1200
(F13.069999999999709
I14
tp1201
aF40.040000000000873
tp1202
sg285
((lp1203
F40.5
tp1204
sg334
((lp1205
(F0.34999999999854481
I7
tp1206
aF40.080000000001746
tp1207
sg379
((lp1208
F40.029999999998836
tp1209
ssba(imeasure_core
ProblemSetSolution
p1210
(dp1211
g3
g443
sg160
g1179
sg163
(dp1212
g446
((lp1213
F49.19999999999709
tp1214
sg492
((lp1215
F40.480000000003201
tp1216
sg543
((lp1217
F40.489999999997963
tp1218
sg633
((lp1219
F40.639999999999418
tp1220
sg586
((lp1221
F42.709999999999127
tp1222
ssba.