(lp0
(imeasure_core
ProblemSetSolution
p1
(dp2
S'roomset'
p3
(imeasure_core
RoomSet
p4
(dp5
S'rooms'
p6
(dp7
(iproblems
RoomID
p8
(dp9
S'dusts'
p10
I8
sS'obstacles'
p11
(I2
I4
tp12
sS'robots'
p13
I4
sS'height'
p14
I9
sS'width'
p15
I7
sS'seed'
p16
I7283207964119141687
sb(imulti_robot_problem
MultiRobotState
p17
(dp18
S'obstacle_locations'
p19
c__builtin__
frozenset
p20
((lp21
(I4
I6
tp22
a(I4
I3
tp23
a(I3
I0
tp24
a(I4
I2
tp25
a(I3
I4
tp26
ag12
a(I3
I3
tp27
atp28
Rp29
sg15
I7
sS'dirt_locations'
p30
g20
((lp31
(I4
I5
tp32
a(I5
I7
tp33
a(I0
I6
tp34
a(I1
I6
tp35
a(I5
I0
tp36
a(I5
I1
tp37
a(I5
I2
tp38
a(I1
I1
tp39
atp40
Rp41
sg13
((I1
I5
tp42
(I5
I5
tp43
(I3
I1
tp44
(I3
I5
tp45
tp46
sg14
I9
sbs(iproblems
RoomID
p47
(dp48
g10
I5
sg11
(I7
I3
tp49
sg13
I1
sg14
I7
sg15
I8
sg16
I1736392818365009963
sb(imulti_robot_problem
MultiRobotState
p50
(dp51
g19
g20
((lp52
g49
a(I2
I6
tp53
a(I7
I0
tp54
a(I7
I1
tp55
a(I2
I1
tp56
a(I6
I3
tp57
a(I0
I4
tp58
a(I7
I2
tp59
atp60
Rp61
sg15
I8
sg30
g20
((lp62
(I0
I1
tp63
a(I6
I2
tp64
a(I1
I6
tp65
a(I4
I4
tp66
a(I0
I0
tp67
atp68
Rp69
sg13
((I3
I1
tp70
tp71
sg14
I7
sbs(iproblems
RoomID
p72
(dp73
g10
I10
sg11
(I6
I5
tp74
sg13
I5
sg14
I8
sg15
I9
sg16
I3960482443532127989
sb(imulti_robot_problem
MultiRobotState
p75
(dp76
g19
g20
((lp77
(I4
I5
tp78
a(I5
I5
tp79
ag74
a(I6
I6
tp80
atp81
Rp82
sg15
I9
sg30
g20
((lp83
(I2
I7
tp84
a(I2
I6
tp85
a(I5
I0
tp86
a(I5
I7
tp87
a(I1
I4
tp88
a(I1
I5
tp89
a(I3
I6
tp90
a(I8
I0
tp91
a(I8
I5
tp92
a(I5
I3
tp93
atp94
Rp95
sg13
((I4
I3
tp96
(I8
I7
tp97
(I1
I6
tp98
(I7
I3
tp99
(I6
I4
tp100
tp101
sg14
I8
sbs(iproblems
RoomID
p102
(dp103
g10
I8
sg11
(I4
I6
tp104
sg13
I2
sg14
I10
sg15
I8
sg16
I890727360438182992
sb(imulti_robot_problem
MultiRobotState
p105
(dp106
g19
g20
((lp107
(I0
I0
tp108
ag104
a(I6
I6
tp109
a(I5
I6
tp110
a(I7
I6
tp111
a(I7
I4
tp112
a(I4
I2
tp113
a(I2
I4
tp114
atp115
Rp116
sg15
I8
sg30
g20
((lp117
(I7
I0
tp118
a(I7
I1
tp119
a(I6
I3
tp120
a(I1
I8
tp121
a(I0
I5
tp122
a(I5
I1
tp123
a(I1
I0
tp124
a(I0
I3
tp125
atp126
Rp127
sg13
((I2
I8
tp128
(I2
I5
tp129
tp130
sg14
I10
sbs(iproblems
RoomID
p131
(dp132
g10
I7
sg11
(I4
I1
tp133
sg13
I3
sg14
I10
sg15
I10
sg16
I1585446675937841368
sb(imulti_robot_problem
MultiRobotState
p134
(dp135
g19
g20
((lp136
(I3
I2
tp137
a(I2
I6
tp138
a(I6
I7
tp139
a(I6
I1
tp140
a(I7
I2
tp141
a(I5
I0
tp142
ag133
a(I2
I4
tp143
a(I5
I8
tp144
atp145
Rp146
sg15
I10
sg30
g20
((lp147
(I7
I3
tp148
a(I9
I4
tp149
a(I2
I9
tp150
a(I1
I7
tp151
a(I2
I2
tp152
a(I5
I2
tp153
a(I9
I7
tp154
atp155
Rp156
sg13
((I8
I9
tp157
(I4
I4
tp158
(I9
I8
tp159
tp160
sg14
I10
sbssS'name'
p161
S'easy_roomset'
p162
sbsg161
S"AnytimeBeam-w5-gf(1.5, 'exp')_with_PowerHeuristic2"
p163
sS'solutions'
p164
(dp165
g8
((lp166
(F1.0200000000040745
I28
tp167
aF40.270000000004075
tp168
sg47
((lp169
(F0.06999999999970896
I30
tp170
a(F0.1599999999962165
I28
tp171
a(F0.47000000000116415
I27
tp172
a(F0.8699999999953434
I25
tp173
a(F1.2099999999991269
I23
tp174
a(F1.5
I22
tp175
a(F2.6699999999982538
I21
tp176
a(F3.720000000001164
I20
tp177
aF40.0
tp178
sg102
((lp179
(F0.09999999999854481
I19
tp180
a(F14.220000000001164
I18
tp181
aF40.0
tp182
sg72
((lp183
(F8.720000000001164
I10
tp184
aF40.029999999998836
tp185
sg131
((lp186
(F0.4499999999970896
I14
tp187
aF40.04000000000087
tp188
ssba(imeasure_core
ProblemSetSolution
p189
(dp190
g3
(imeasure_core
RoomSet
p191
(dp192
g6
(dp193
(iproblems
RoomID
p194
(dp195
g10
I7
sg11
(I6
I3
tp196
sg13
I3
sg14
I12
sg15
I12
sg16
I1585446675937841368
sb(imulti_robot_problem
MultiRobotState
p197
(dp198
g19
g20
((lp199
(I5
I9
tp200
a(I4
I3
tp201
a(I5
I7
tp202
a(I8
I2
tp203
a(I4
I10
tp204
a(I7
I3
tp205
a(I2
I8
tp206
a(I9
I3
tp207
a(I3
I11
tp208
a(I7
I1
tp209
a(I7
I7
tp210
a(I6
I2
tp211
a(I5
I1
tp212
a(I1
I11
tp213
a(I8
I5
tp214
a(I7
I2
tp215
a(I2
I7
tp216
a(I6
I7
tp217
a(I6
I8
tp218
a(I2
I9
tp219
a(I5
I2
tp220
a(I7
I6
tp221
a(I6
I6
tp222
a(I2
I11
tp223
ag196
a(I4
I11
tp224
a(I7
I10
tp225
a(I3
I4
tp226
a(I8
I6
tp227
a(I7
I8
tp228
a(I8
I4
tp229
atp230
Rp231
sg15
I12
sg30
g20
((lp232
(I3
I2
tp233
a(I1
I9
tp234
a(I9
I4
tp235
a(I11
I5
tp236
a(I11
I8
tp237
a(I2
I5
tp238
a(I6
I10
tp239
atp240
Rp241
sg13
((I10
I10
tp242
(I5
I5
tp243
(I11
I10
tp244
tp245
sg14
I12
sbs(iproblems
RoomID
p246
(dp247
g10
I9
sg11
(I1
I3
tp248
sg13
I4
sg14
I9
sg15
I10
sg16
I7713914763314685786
sb(imulti_robot_problem
MultiRobotState
p249
(dp250
g19
g20
((lp251
(I3
I2
tp252
ag248
a(I7
I1
tp253
a(I9
I3
tp254
a(I6
I0
tp255
a(I2
I1
tp256
a(I4
I2
tp257
a(I5
I1
tp258
a(I9
I6
tp259
a(I7
I2
tp260
a(I4
I0
tp261
a(I1
I2
tp262
a(I7
I0
tp263
a(I5
I2
tp264
a(I6
I1
tp265
a(I3
I1
tp266
a(I1
I5
tp267
a(I1
I8
tp268
a(I2
I2
tp269
a(I3
I5
tp270
a(I4
I1
tp271
a(I1
I1
tp272
atp273
Rp274
sg15
I10
sg30
g20
((lp275
(I7
I3
tp276
a(I5
I4
tp277
a(I7
I6
tp278
a(I7
I5
tp279
a(I0
I5
tp280
a(I8
I7
tp281
a(I8
I6
tp282
a(I8
I5
tp283
a(I9
I7
tp284
atp285
Rp286
sg13
((I3
I0
tp287
(I7
I7
tp288
(I2
I0
tp289
(I4
I6
tp290
tp291
sg14
I9
sbs(iproblems
RoomID
p292
(dp293
g10
I8
sg11
(I2
I6
tp294
sg13
I4
sg14
I11
sg15
I9
sg16
I7283207964119141687
sb(imulti_robot_problem
MultiRobotState
p295
(dp296
g19
g20
((lp297
(I4
I7
tp298
a(I1
I3
tp299
a(I4
I3
tp300
a(I4
I5
tp301
a(I5
I4
tp302
a(I1
I4
tp303
a(I8
I9
tp304
a(I6
I2
tp305
a(I0
I10
tp306
a(I3
I7
tp307
a(I0
I3
tp308
a(I8
I5
tp309
a(I4
I0
tp310
a(I5
I3
tp311
a(I5
I5
tp312
a(I5
I2
tp313
a(I6
I1
tp314
a(I6
I10
tp315
ag294
a(I6
I3
tp316
a(I3
I6
tp317
a(I3
I5
tp318
a(I3
I4
tp319
a(I2
I4
tp320
atp321
Rp322
sg15
I9
sg30
g20
((lp323
(I7
I0
tp324
a(I6
I8
tp325
a(I7
I1
tp326
a(I5
I6
tp327
a(I1
I8
tp328
a(I0
I8
tp329
a(I4
I1
tp330
a(I5
I8
tp331
atp332
Rp333
sg13
((I1
I7
tp334
(I6
I6
tp335
(I4
I6
tp336
(I2
I1
tp337
tp338
sg14
I11
sbs(iproblems
RoomID
p339
(dp340
g10
I8
sg11
(I3
I5
tp341
sg13
I3
sg14
I12
sg15
I10
sg16
I890727360438182992
sb(imulti_robot_problem
MultiRobotState
p342
(dp343
g19
g20
((lp344
(I4
I7
tp345
a(I0
I0
tp346
a(I3
I0
tp347
a(I3
I2
tp348
a(I1
I4
tp349
a(I8
I9
tp350
a(I7
I5
tp351
a(I2
I3
tp352
a(I3
I4
tp353
a(I5
I8
tp354
ag341
a(I3
I1
tp355
a(I6
I7
tp356
a(I6
I8
tp357
a(I5
I2
tp358
a(I5
I7
tp359
a(I8
I8
tp360
a(I3
I9
tp361
a(I4
I11
tp362
a(I7
I10
tp363
a(I2
I2
tp364
a(I0
I9
tp365
a(I7
I8
tp366
atp367
Rp368
sg15
I10
sg30
g20
((lp369
(I9
I2
tp370
a(I6
I1
tp371
a(I8
I0
tp372
a(I2
I10
tp373
a(I0
I6
tp374
a(I0
I4
tp375
a(I9
I5
tp376
a(I1
I1
tp377
atp378
Rp379
sg13
((I2
I9
tp380
(I2
I6
tp381
(I8
I4
tp382
tp383
sg14
I12
sbs(iproblems
RoomID
p384
(dp385
g10
I5
sg11
(I7
I6
tp386
sg13
I3
sg14
I9
sg15
I10
sg16
I1736392818365009963
sb(imulti_robot_problem
MultiRobotState
p387
(dp388
g19
g20
((lp389
(I7
I3
tp390
a(I9
I1
tp391
a(I4
I8
tp392
a(I9
I3
tp393
a(I7
I7
tp394
a(I6
I2
tp395
a(I0
I5
tp396
a(I0
I4
tp397
a(I8
I5
tp398
a(I7
I2
tp399
a(I1
I2
tp400
a(I3
I8
tp401
a(I9
I0
tp402
a(I9
I2
tp403
ag386
a(I7
I4
tp404
a(I7
I5
tp405
a(I6
I5
tp406
a(I4
I3
tp407
a(I2
I2
tp408
a(I0
I1
tp409
a(I5
I2
tp410
a(I8
I4
tp411
atp412
Rp413
sg15
I10
sg30
g20
((lp414
(I1
I8
tp415
a(I3
I1
tp416
a(I4
I1
tp417
a(I0
I2
tp418
a(I5
I5
tp419
atp420
Rp421
sg13
((I4
I2
tp422
(I1
I0
tp423
(I8
I2
tp424
tp425
sg14
I9
sbssg161
S'mild_roomset'
p426
sbsg161
g163
sg164
(dp427
g339
((lp428
F40.080000000001746
tp429
sg194
((lp430
(F0.5599999999976717
I20
tp431
aF40.029999999998836
tp432
sg246
((lp433
(F2.25
I15
tp434
aF40.330000000001746
tp435
sg292
((lp436
(F0.3099999999976717
I7
tp437
aF40.06999999999971
tp438
sg384
((lp439
(F6.139999999999418
I66
tp440
aF40.18999999999505
tp441
ssba(imeasure_core
ProblemSetSolution
p442
(dp443
g3
(imeasure_core
RoomSet
p444
(dp445
g6
(dp446
(iproblems
RoomID
p447
(dp448
g10
I13
sg11
(I8
I4
tp449
sg13
I7
sg14
I12
sg15
I10
sg16
I7283207964119141687
sb(imulti_robot_problem
MultiRobotState
p450
(dp451
g19
g20
((lp452
(I6
I3
tp453
a(I5
I2
tp454
a(I6
I10
tp455
a(I6
I0
tp456
a(I7
I4
tp457
a(I0
I11
tp458
a(I6
I2
tp459
a(I3
I6
tp460
a(I2
I2
tp461
a(I0
I4
tp462
a(I3
I4
tp463
a(I5
I8
tp464
ag449
atp465
Rp466
sg15
I10
sg30
g20
((lp467
(I7
I3
tp468
a(I6
I7
tp469
a(I6
I8
tp470
a(I7
I1
tp471
a(I8
I1
tp472
a(I4
I4
tp473
a(I6
I6
tp474
a(I5
I6
tp475
a(I1
I9
tp476
a(I5
I0
tp477
a(I9
I10
tp478
a(I9
I6
tp479
a(I7
I9
tp480
atp481
Rp482
sg13
((I1
I7
tp483
(I7
I6
tp484
(I4
I6
tp485
(I2
I1
tp486
(I6
I4
tp487
(I0
I9
tp488
(I8
I0
tp489
tp490
sg14
I12
sbs(iproblems
RoomID
p491
(dp492
g10
I12
sg11
(I6
I9
tp493
sg13
I6
sg14
I13
sg15
I13
sg16
I1585446675937841368
sb(imulti_robot_problem
MultiRobotState
p494
(dp495
g19
g20
((lp496
(I7
I3
tp497
ag493
a(I8
I11
tp498
a(I7
I7
tp499
a(I4
I12
tp500
a(I10
I3
tp501
a(I5
I8
tp502
a(I7
I4
tp503
a(I1
I12
tp504
a(I2
I9
tp505
a(I8
I1
tp506
a(I7
I6
tp507
a(I6
I3
tp508
a(I9
I2
tp509
a(I7
I5
tp510
a(I7
I2
tp511
a(I7
I10
tp512
a(I8
I4
tp513
a(I3
I4
tp514
a(I2
I4
tp515
a(I9
I12
tp516
a(I9
I7
tp517
atp518
Rp519
sg15
I13
sg30
g20
((lp520
(I3
I3
tp521
a(I2
I8
tp522
a(I12
I9
tp523
a(I6
I10
tp524
a(I8
I10
tp525
a(I2
I10
tp526
a(I12
I5
tp527
a(I4
I3
tp528
a(I5
I1
tp529
a(I7
I9
tp530
a(I5
I2
tp531
a(I3
I5
tp532
atp533
Rp534
sg13
((I10
I11
tp535
(I5
I5
tp536
(I12
I11
tp537
(I1
I10
tp538
(I3
I12
tp539
(I10
I4
tp540
tp541
sg14
I13
sbs(iproblems
RoomID
p542
(dp543
g10
I15
sg11
(I6
I9
tp544
sg13
I7
sg14
I11
sg15
I12
sg16
I3960482443532127989
sb(imulti_robot_problem
MultiRobotState
p545
(dp546
g19
g20
((lp547
(I5
I9
tp548
ag544
a(I9
I1
tp549
a(I4
I10
tp550
a(I5
I6
tp551
a(I7
I7
tp552
a(I2
I10
tp553
a(I3
I9
tp554
a(I9
I4
tp555
a(I5
I10
tp556
a(I6
I4
tp557
a(I6
I5
tp558
a(I1
I2
tp559
a(I7
I4
tp560
a(I8
I3
tp561
a(I6
I7
tp562
a(I2
I9
tp563
a(I10
I7
tp564
a(I5
I7
tp565
a(I6
I3
tp566
a(I8
I1
tp567
a(I0
I9
tp568
a(I8
I6
tp569
a(I7
I8
tp570
a(I11
I6
tp571
a(I9
I7
tp572
atp573
Rp574
sg15
I12
sg30
g20
((lp575
(I7
I3
tp576
a(I2
I6
tp577
a(I5
I5
tp578
a(I3
I0
tp579
a(I3
I8
tp580
a(I0
I6
tp581
a(I11
I1
tp582
a(I1
I6
tp583
a(I4
I3
tp584
a(I1
I7
tp585
a(I1
I3
tp586
a(I1
I0
tp587
a(I10
I1
tp588
a(I1
I1
tp589
a(I10
I2
tp590
atp591
Rp592
sg13
((I11
I10
tp593
(I1
I8
tp594
(I10
I5
tp595
(I11
I0
tp596
(I4
I8
tp597
(I7
I9
tp598
(I7
I1
tp599
tp600
sg14
I11
sbs(iproblems
RoomID
p601
(dp602
g10
I13
sg11
(I8
I3
tp603
sg13
I5
sg14
I13
sg15
I11
sg16
I890727360438182992
sb(imulti_robot_problem
MultiRobotState
p604
(dp605
g19
g20
((lp606
(I4
I10
tp607
a(I6
I9
tp608
a(I8
I2
tp609
a(I5
I9
tp610
a(I9
I8
tp611
ag603
a(I4
I12
tp612
a(I0
I10
tp613
a(I8
I7
tp614
a(I9
I1
tp615
a(I9
I0
tp616
a(I6
I8
tp617
a(I6
I10
tp618
a(I8
I8
tp619
a(I8
I6
tp620
a(I7
I8
tp621
a(I0
I2
tp622
atp623
Rp624
sg15
I11
sg30
g20
((lp625
(I10
I5
tp626
a(I0
I0
tp627
a(I4
I6
tp628
a(I0
I6
tp629
a(I9
I2
tp630
a(I8
I11
tp631
a(I2
I1
tp632
a(I9
I10
tp633
a(I1
I5
tp634
a(I0
I4
tp635
a(I0
I9
tp636
a(I5
I2
tp637
a(I4
I11
tp638
atp639
Rp640
sg13
((I3
I10
tp641
(I2
I7
tp642
(I9
I4
tp643
(I2
I11
tp644
(I7
I1
tp645
tp646
sg14
I13
sbs(iproblems
RoomID
p647
(dp648
g10
I10
sg11
(I10
I4
tp649
sg13
I5
sg14
I10
sg15
I11
sg16
I1736392818365009963
sb(imulti_robot_problem
MultiRobotState
p650
(dp651
g19
g20
((lp652
(I0
I1
tp653
a(I1
I2
tp654
a(I3
I2
tp655
ag649
a(I4
I5
tp656
a(I7
I4
tp657
a(I6
I2
tp658
a(I2
I3
tp659
a(I10
I1
tp660
a(I3
I8
tp661
a(I10
I0
tp662
a(I10
I3
tp663
a(I10
I2
tp664
atp665
Rp666
sg15
I11
sg30
g20
((lp667
(I5
I9
tp668
a(I5
I5
tp669
a(I3
I1
tp670
a(I8
I8
tp671
a(I0
I5
tp672
a(I3
I9
tp673
a(I8
I4
tp674
a(I4
I1
tp675
a(I6
I5
tp676
a(I5
I3
tp677
atp678
Rp679
sg13
((I4
I2
tp680
(I1
I0
tp681
(I9
I3
tp682
(I1
I9
tp683
(I0
I2
tp684
tp685
sg14
I10
sbssg161
S'heavy_roomset'
p686
sbsg161
g163
sg164
(dp687
g447
((lp688
F51.0
tp689
sg647
((lp690
(F4.759999999994761
I9
tp691
aF40.049999999995634
tp692
sg542
((lp693
F40.87000000000262
tp694
sg601
((lp695
F40.44000000000233
tp696
sg491
((lp697
F40.95999999999913
tp698
ssba(imeasure_core
ProblemSetSolution
p699
(dp700
g3
g4
sg161
S"AnytimeBeam-w15-gf(1.5, 'exp')_with_PowerHeuristic2"
p701
sg164
(dp702
g8
((lp703
(F1.6200000000026193
I28
tp704
aF40.31999999999971
tp705
sg47
((lp706
(F0.08000000000174623
I30
tp707
a(F0.16000000000349246
I28
tp708
a(F0.47000000000116415
I27
tp709
a(F0.8600000000005821
I25
tp710
a(F1.1999999999970896
I23
tp711
a(F1.4899999999979627
I22
tp712
a(F2.650000000001455
I21
tp713
a(F3.6900000000023283
I20
tp714
aF40.0
tp715
sg102
((lp716
(F0.0900000000037835
I19
tp717
a(F14.080000000001746
I18
tp718
aF40.01000000000204
tp719
sg72
((lp720
(F8.730000000003201
I10
tp721
aF40.0199999999968
tp722
sg131
((lp723
(F0.4400000000023283
I14
tp724
aF40.04000000000087
tp725
ssba(imeasure_core
ProblemSetSolution
p726
(dp727
g3
g191
sg161
g701
sg164
(dp728
g339
((lp729
F40.12000000000262
tp730
sg194
((lp731
(F0.5599999999976717
I20
tp732
aF40.0
tp733
sg246
((lp734
(F2.2600000000020373
I15
tp735
aF40.19999999999709
tp736
sg292
((lp737
(F0.31000000000494765
I7
tp738
aF40.05000000000291
tp739
sg384
((lp740
(F6.309999999997672
I66
tp741
aF40.220000000001164
tp742
ssba(imeasure_core
ProblemSetSolution
p743
(dp744
g3
g444
sg161
g701
sg164
(dp745
g447
((lp746
F40.21999999999389
tp747
sg647
((lp748
(F4.700000000004366
I9
tp749
aF40.2300000000032
tp750
sg542
((lp751
F40.68999999999505
tp752
sg601
((lp753
F40.400000000001455
tp754
sg491
((lp755
F41.06000000000495
tp756
ssba(imeasure_core
ProblemSetSolution
p757
(dp758
g3
g4
sg161
S"AnytimeBeam-w25-gf(1.5, 'exp')_with_PowerHeuristic2"
p759
sg164
(dp760
g8
((lp761
(F1.7600000000020373
I28
tp762
aF40.13000000000466
tp763
sg47
((lp764
(F0.08000000000174623
I30
tp765
a(F0.1599999999962165
I28
tp766
a(F0.47000000000116415
I27
tp767
a(F0.8600000000005821
I25
tp768
a(F1.1999999999970896
I23
tp769
a(F1.4899999999979627
I22
tp770
a(F2.650000000001455
I21
tp771
a(F3.6999999999970896
I20
tp772
aF40.0
tp773
sg102
((lp774
(F0.09999999999854481
I19
tp775
a(F14.119999999995343
I18
tp776
aF40.0199999999968
tp777
sg72
((lp778
(F8.69999999999709
I10
tp779
aF40.01000000000204
tp780
sg131
((lp781
(F0.4400000000023283
I14
tp782
aF40.06999999999971
tp783
ssba(imeasure_core
ProblemSetSolution
p784
(dp785
g3
g191
sg161
g759
sg164
(dp786
g339
((lp787
F40.12000000000262
tp788
sg194
((lp789
(F0.5599999999976717
I20
tp790
aF40.029999999998836
tp791
sg246
((lp792
(F2.25
I15
tp793
aF40.06999999999971
tp794
sg292
((lp795
(F0.3099999999976717
I7
tp796
aF40.19999999999709
tp797
sg384
((lp798
(F6.120000000002619
I66
tp799
aF40.11000000000058
tp800
ssba(imeasure_core
ProblemSetSolution
p801
(dp802
g3
g444
sg161
g759
sg164
(dp803
g447
((lp804
F51.06999999999971
tp805
sg647
((lp806
(F4.760000000002037
I9
tp807
aF40.36000000000058
tp808
sg542
((lp809
F40.849999999998545
tp810
sg601
((lp811
F40.76000000000204
tp812
sg491
((lp813
F41.049999999995634
tp814
ssba(imeasure_core
ProblemSetSolution
p815
(dp816
g3
g4
sg161
S"AnytimeBeam-w35-gf(1.5, 'exp')_with_PowerHeuristic2"
p817
sg164
(dp818
g8
((lp819
(F2.0
I28
tp820
aF40.18999999999505
tp821
sg47
((lp822
(F0.07000000000698492
I30
tp823
a(F0.16000000000349246
I28
tp824
a(F0.47000000000116415
I27
tp825
a(F0.8700000000026193
I25
tp826
a(F1.2100000000064028
I23
tp827
a(F1.5
I22
tp828
a(F2.6700000000055297
I21
tp829
a(F3.720000000001164
I20
tp830
aF40.0
tp831
sg102
((lp832
(F0.09999999999854481
I19
tp833
a(F14.14999999999418
I18
tp834
aF40.0
tp835
sg72
((lp836
(F8.700000000004366
I10
tp837
aF40.10000000000582
tp838
sg131
((lp839
(F0.4499999999970896
I14
tp840
aF40.05999999999767
tp841
ssba(imeasure_core
ProblemSetSolution
p842
(dp843
g3
g191
sg161
g817
sg164
(dp844
g339
((lp845
F40.18000000000029
tp846
sg194
((lp847
(F0.5599999999976717
I20
tp848
aF40.0199999999968
tp849
sg246
((lp850
(F2.25
I15
tp851
aF40.35000000000582
tp852
sg292
((lp853
(F0.3099999999976717
I7
tp854
aF40.299999999995634
tp855
sg384
((lp856
(F6.130000000004657
I66
tp857
aF40.04000000000087
tp858
ssba(imeasure_core
ProblemSetSolution
p859
(dp860
g3
g444
sg161
g817
sg164
(dp861
g447
((lp862
F40.25
tp863
sg647
((lp864
(F4.739999999997963
I9
tp865
aF40.06999999999971
tp866
sg542
((lp867
F40.66000000000349
tp868
sg601
((lp869
F40.61000000000058
tp870
sg491
((lp871
F40.81999999999971
tp872
ssba(imeasure_core
ProblemSetSolution
p873
(dp874
g3
g4
sg161
S"AnytimeBeam-w45-gf(1.5, 'exp')_with_PowerHeuristic2"
p875
sg164
(dp876
g8
((lp877
(F2.1299999999973807
I28
tp878
aF40.279999999998836
tp879
sg47
((lp880
(F0.08000000000174623
I30
tp881
a(F0.1599999999962165
I28
tp882
a(F0.47000000000116415
I27
tp883
a(F0.8600000000005821
I25
tp884
a(F1.1999999999970896
I23
tp885
a(F1.4899999999979627
I22
tp886
a(F2.650000000001455
I21
tp887
a(F3.6899999999950523
I20
tp888
aF40.0
tp889
sg102
((lp890
(F0.0900000000037835
I19
tp891
a(F14.080000000001746
I18
tp892
aF40.01000000000204
tp893
sg72
((lp894
(F8.720000000001164
I10
tp895
aF40.0199999999968
tp896
sg131
((lp897
(F0.4499999999970896
I14
tp898
aF40.04000000000087
tp899
ssba(imeasure_core
ProblemSetSolution
p900
(dp901
g3
g191
sg161
g875
sg164
(dp902
g339
((lp903
F40.18000000000029
tp904
sg194
((lp905
(F0.569999999999709
I20
tp906
aF40.05999999999767
tp907
sg246
((lp908
(F2.279999999998836
I15
tp909
aF40.37000000000262
tp910
sg292
((lp911
(F0.3099999999976717
I7
tp912
aF40.049999999995634
tp913
sg384
((lp914
(F6.120000000002619
I66
tp915
aF40.200000000004366
tp916
ssba(imeasure_core
ProblemSetSolution
p917
(dp918
g3
g444
sg161
g875
sg164
(dp919
g447
((lp920
F50.91000000000349
tp921
sg647
((lp922
(F4.75
I9
tp923
aF40.270000000004075
tp924
sg542
((lp925
F40.63999999999942
tp926
sg601
((lp927
F40.69999999999709
tp928
sg491
((lp929
F40.970000000001164
tp930
ssba(imeasure_core
ProblemSetSolution
p931
(dp932
g3
g4
sg161
S"AnytimeBeam-w5-gf(1.5, 'exp')_with_LinearHeuristic"
p933
sg164
(dp934
g8
((lp935
(F0.2599999999947613
I5
tp936
aF40.169999999998254
tp937
sg47
((lp938
(F0.010000000002037268
I20
tp939
aF40.0
tp940
sg102
((lp941
(F0.25
I22
tp942
aF40.04000000000087
tp943
sg72
((lp944
(F9.650000000001455
I10
tp945
aF42.06999999999971
tp946
sg131
((lp947
F40.06999999999971
tp948
ssba(imeasure_core
ProblemSetSolution
p949
(dp950
g3
g191
sg161
g933
sg164
(dp951
g339
((lp952
F40.12999999999738
tp953
sg194
((lp954
F40.48999999999796
tp955
sg246
((lp956
F40.04000000000087
tp957
sg292
((lp958
F41.0
tp959
sg384
((lp960
(F0.9899999999979627
I23
tp961
a(F21.62000000000262
I21
tp962
a(F30.9800000000032
I20
tp963
aF40.04000000000087
tp964
ssba(imeasure_core
ProblemSetSolution
p965
(dp966
g3
g444
sg161
g933
sg164
(dp967
g447
((lp968
F83.81999999999971
tp969
sg647
((lp970
F40.81999999999971
tp971
sg542
((lp972
F45.06999999999971
tp973
sg601
((lp974
F41.669999999998254
tp975
sg491
((lp976
F43.11000000000058
tp977
ssba(imeasure_core
ProblemSetSolution
p978
(dp979
g3
g4
sg161
S"AnytimeBeam-w15-gf(1.5, 'exp')_with_LinearHeuristic"
p980
sg164
(dp981
g8
((lp982
(F0.3600000000005821
I5
tp983
aF40.04000000000087
tp984
sg47
((lp985
(F0.010000000002037268
I20
tp986
aF40.0
tp987
sg102
((lp988
(F0.25
I22
tp989
aF40.04000000000087
tp990
sg72
((lp991
(F9.69999999999709
I10
tp992
aF42.31999999999971
tp993
sg131
((lp994
F40.2699999999968
tp995
ssba(imeasure_core
ProblemSetSolution
p996
(dp997
g3
g191
sg161
g980
sg164
(dp998
g339
((lp999
F40.23999999999796
tp1000
sg194
((lp1001
F40.450000000004366
tp1002
sg246
((lp1003
F40.0199999999968
tp1004
sg292
((lp1005
F41.09000000000378
tp1006
sg384
((lp1007
(F0.9899999999979627
I23
tp1008
a(F21.549999999995634
I21
tp1009
a(F30.900000000001455
I20
tp1010
aF40.080000000001746
tp1011
ssba(imeasure_core
ProblemSetSolution
p1012
(dp1013
g3
g444
sg161
g980
sg164
(dp1014
g447
((lp1015
F83.34000000000378
tp1016
sg647
((lp1017
F40.82999999999447
tp1018
sg542
((lp1019
F45.25999999999476
tp1020
sg601
((lp1021
F41.63000000000466
tp1022
sg491
((lp1023
F42.830000000001746
tp1024
ssba(imeasure_core
ProblemSetSolution
p1025
(dp1026
g3
g4
sg161
S"AnytimeBeam-w25-gf(1.5, 'exp')_with_LinearHeuristic"
p1027
sg164
(dp1028
g8
((lp1029
(F0.3800000000046566
I5
tp1030
aF40.17000000000553
tp1031
sg47
((lp1032
(F0.00999999999476131
I20
tp1033
aF40.0
tp1034
sg102
((lp1035
(F0.25
I22
tp1036
aF40.029999999998836
tp1037
sg72
((lp1038
(F9.709999999999127
I10
tp1039
aF42.299999999995634
tp1040
sg131
((lp1041
F40.25
tp1042
ssba(imeasure_core
ProblemSetSolution
p1043
(dp1044
g3
g191
sg161
g1027
sg164
(dp1045
g339
((lp1046
F40.11000000000058
tp1047
sg194
((lp1048
F40.4800000000032
tp1049
sg246
((lp1050
F40.37999999999738
tp1051
sg292
((lp1052
F41.16000000000349
tp1053
sg384
((lp1054
(F0.9899999999979627
I23
tp1055
a(F21.5199999999968
I21
tp1056
a(F30.839999999996508
I20
tp1057
aF40.05999999999767
tp1058
ssba(imeasure_core
ProblemSetSolution
p1059
(dp1060
g3
g444
sg161
g1027
sg164
(dp1061
g447
((lp1062
F82.86999999999534
tp1063
sg647
((lp1064
F40.78000000000611
tp1065
sg542
((lp1066
F45.37999999999738
tp1067
sg601
((lp1068
F41.75
tp1069
sg491
((lp1070
F43.05000000000291
tp1071
ssba(imeasure_core
ProblemSetSolution
p1072
(dp1073
g3
g4
sg161
S"AnytimeBeam-w35-gf(1.5, 'exp')_with_LinearHeuristic"
p1074
sg164
(dp1075
g8
((lp1076
(F0.4400000000023283
I5
tp1077
aF40.09000000000378
tp1078
sg47
((lp1079
(F0.010000000002037268
I20
tp1080
aF40.0
tp1081
sg102
((lp1082
(F0.25
I22
tp1083
aF40.03000000000611
tp1084
sg72
((lp1085
(F9.689999999995052
I10
tp1086
aF42.229999999995925
tp1087
sg131
((lp1088
F40.0199999999968
tp1089
ssba(imeasure_core
ProblemSetSolution
p1090
(dp1091
g3
g191
sg161
g1074
sg164
(dp1092
g339
((lp1093
F40.13000000000466
tp1094
sg194
((lp1095
F40.54000000000087
tp1096
sg246
((lp1097
F40.330000000001746
tp1098
sg292
((lp1099
F40.18999999999505
tp1100
sg384
((lp1101
(F0.9799999999959255
I23
tp1102
a(F21.5199999999968
I21
tp1103
a(F30.860000000000582
I20
tp1104
aF40.029999999998836
tp1105
ssba(imeasure_core
ProblemSetSolution
p1106
(dp1107
g3
g444
sg161
g1074
sg164
(dp1108
g447
((lp1109
F82.69999999999709
tp1110
sg647
((lp1111
F40.68000000000029
tp1112
sg542
((lp1113
F45.2699999999968
tp1114
sg601
((lp1115
F41.66000000000349
tp1116
sg491
((lp1117
F43.080000000001746
tp1118
ssba(imeasure_core
ProblemSetSolution
p1119
(dp1120
g3
g4
sg161
S"AnytimeBeam-w45-gf(1.5, 'exp')_with_LinearHeuristic"
p1121
sg164
(dp1122
g8
((lp1123
(F0.4499999999970896
I5
tp1124
aF40.14999999999418
tp1125
sg47
((lp1126
(F0.010000000002037268
I20
tp1127
aF40.0
tp1128
sg102
((lp1129
(F0.25
I22
tp1130
aF40.020000000004075
tp1131
sg72
((lp1132
(F9.660000000003492
I10
tp1133
aF42.080000000001746
tp1134
sg131
((lp1135
F40.279999999998836
tp1136
ssba(imeasure_core
ProblemSetSolution
p1137
(dp1138
g3
g191
sg161
g1121
sg164
(dp1139
g339
((lp1140
F40.19999999999709
tp1141
sg194
((lp1142
F40.48999999999796
tp1143
sg246
((lp1144
F40.029999999998836
tp1145
sg292
((lp1146
F41.05000000000291
tp1147
sg384
((lp1148
(F1.0
I23
tp1149
a(F21.56999999999971
I21
tp1150
a(F30.900000000001455
I20
tp1151
aF40.099999999998545
tp1152
ssba(imeasure_core
ProblemSetSolution
p1153
(dp1154
g3
g444
sg161
g1121
sg164
(dp1155
g447
((lp1156
F82.80999999999767
tp1157
sg647
((lp1158
F40.88000000000466
tp1159
sg542
((lp1160
F45.029999999998836
tp1161
sg601
((lp1162
F41.729999999995925
tp1163
sg491
((lp1164
F42.890000000006694
tp1165
ssba.