(lp0
(imeasure_core
ProblemSetSolution
p1
(dp2
S'roomset'
p3
(imeasure_core
RoomSet
p4
(dp5
S'rooms'
p6
(dp7
(iproblems
RoomID
p8
(dp9
S'width'
p10
I9
sS'dusts'
p11
I6
sS'seed'
p12
I1164115433906158532
sS'obstacles'
p13
(I0
I4
tp14
sS'robots'
p15
I1
sS'height'
p16
I9
sb(imulti_robot_problem
MultiRobotState
p17
(dp18
S'obstacle_locations'
p19
c__builtin__
frozenset
p20
((lp21
(I0
I1
tp22
a(I1
I2
tp23
a(I1
I3
tp24
a(I1
I4
tp25
ag14
atp26
Rp27
sg10
I9
sS'dirt_locations'
p28
g20
((lp29
(I6
I4
tp30
a(I1
I8
tp31
a(I1
I6
tp32
a(I1
I0
tp33
a(I8
I5
tp34
a(I3
I5
tp35
atp36
Rp37
sg15
((I4
I5
tp38
tp39
sg16
I9
sbs(iproblems
RoomID
p40
(dp41
g10
I7
sg11
I8
sg12
I2175216119781798972
sg13
(I6
I5
tp42
sg15
I5
sg16
I8
sb(imulti_robot_problem
MultiRobotState
p43
(dp44
g19
g20
((lp45
(I1
I2
tp46
a(I2
I6
tp47
a(I6
I7
tp48
a(I6
I6
tp49
a(I5
I7
tp50
a(I2
I3
tp51
a(I0
I4
tp52
a(I1
I0
tp53
ag42
atp54
Rp55
sg10
I7
sg28
g20
((lp56
(I5
I4
tp57
a(I5
I5
tp58
a(I4
I4
tp59
a(I0
I6
tp60
a(I0
I5
tp61
a(I1
I7
tp62
a(I4
I2
tp63
a(I0
I2
tp64
atp65
Rp66
sg15
((I1
I3
tp67
(I6
I4
tp68
(I3
I7
tp69
(I6
I0
tp70
(I2
I1
tp71
tp72
sg16
I8
sbs(iproblems
RoomID
p73
(dp74
g10
I7
sg11
I9
sg12
I3872982626502034966
sg13
(I2
I2
tp75
sg15
I2
sg16
I9
sb(imulti_robot_problem
MultiRobotState
p76
(dp77
g19
g20
((lp78
(I2
I6
tp79
a(I4
I1
tp80
ag75
a(I5
I0
tp81
a(I3
I1
tp82
atp83
Rp84
sg10
I7
sg28
g20
((lp85
(I4
I7
tp86
a(I2
I8
tp87
a(I4
I4
tp88
a(I3
I2
tp89
a(I1
I4
tp90
a(I2
I1
tp91
a(I4
I2
tp92
a(I0
I3
tp93
a(I5
I8
tp94
atp95
Rp96
sg15
((I1
I6
tp97
(I1
I7
tp98
tp99
sg16
I9
sbs(iproblems
RoomID
p100
(dp101
g10
I10
sg11
I9
sg12
I7002664860023442459
sg13
(I6
I3
tp102
sg15
I4
sg16
I9
sb(imulti_robot_problem
MultiRobotState
p103
(dp104
g19
g20
((lp105
(I7
I4
tp106
a(I7
I3
tp107
ag102
a(I6
I5
tp108
a(I9
I7
tp109
atp110
Rp111
sg10
I10
sg28
g20
((lp112
(I8
I6
tp113
a(I2
I6
tp114
a(I6
I8
tp115
a(I2
I8
tp116
a(I5
I7
tp117
a(I0
I0
tp118
a(I5
I1
tp119
a(I4
I2
tp120
a(I8
I4
tp121
atp122
Rp123
sg15
((I7
I5
tp124
(I7
I6
tp125
(I1
I7
tp126
(I1
I6
tp127
tp128
sg16
I9
sbs(iproblems
RoomID
p129
(dp130
g10
I7
sg11
I5
sg12
I8711387064946514083
sg13
(I0
I4
tp131
sg15
I5
sg16
I7
sb(imulti_robot_problem
MultiRobotState
p132
(dp133
g19
g20
((lp134
(I0
I1
tp135
a(I2
I2
tp136
a(I2
I4
tp137
a(I1
I5
tp138
ag131
a(I0
I3
tp139
a(I0
I2
tp140
a(I6
I5
tp141
atp142
Rp143
sg10
I7
sg28
g20
((lp144
(I5
I6
tp145
a(I6
I4
tp146
a(I3
I2
tp147
a(I6
I1
tp148
a(I6
I6
tp149
atp150
Rp151
sg15
((I1
I1
tp152
(I6
I0
tp153
(I5
I0
tp154
(I1
I3
tp155
(I4
I5
tp156
tp157
sg16
I7
sbssS'name'
p158
S'easy_roomset'
p159
sbsS'name'
p160
S"AnytimeBeam-w20-gf(1.3, 'exp')_with_PowerHeuristic2"
p161
sS'solutions'
p162
(dp163
g8
((lp164
(F0.15999999999985448
I42
tp165
a(F3.9899999999997817
I40
tp166
a(F5.3699999999998909
I34
tp167
a(F6.5599999999994907
I30
tp168
a(F7.6300000000001091
I28
tp169
a(F13.4399999999996
I26
tp170
aF40.0
tp171
sg40
((lp172
(F0.5
I5
tp173
aF40.429999999999382
tp174
sg73
((lp175
(F0.5
I66
tp176
a(F28.230000000000473
I65
tp177
a(F37.430000000000291
I64
tp178
aF40.010000000000218
tp179
sg100
((lp180
(F0.56000000000040018
I11
tp181
aF40.039999999999964
tp182
sg129
((lp183
(F0.23000000000047294
I4
tp184
aF40.050000000000182
tp185
ssba(imeasure_core
ProblemSetSolution
p186
(dp187
g3
(imeasure_core
RoomSet
p188
(dp189
S'rooms'
p190
(dp191
(iproblems
RoomID
p192
(dp193
S'width'
p194
I11
sS'dusts'
p195
I6
sS'seed'
p196
I1164115433906158532
sS'obstacles'
p197
(I5
I5
tp198
sS'robots'
p199
I3
sS'height'
p200
I11
sb(imulti_robot_problem
MultiRobotState
p201
(dp202
S'obstacle_locations'
p203
g20
((lp204
(I1
I3
tp205
a(I4
I8
tp206
a(I3
I0
tp207
a(I8
I0
tp208
a(I3
I2
tp209
a(I0
I7
tp210
a(I3
I7
tp211
a(I2
I5
tp212
ag198
a(I2
I0
tp213
a(I3
I10
tp214
a(I6
I10
tp215
a(I3
I6
tp216
a(I5
I4
tp217
a(I4
I5
tp218
a(I1
I4
tp219
a(I3
I9
tp220
a(I0
I5
tp221
a(I2
I1
tp222
a(I5
I3
tp223
a(I8
I3
tp224
a(I3
I1
tp225
a(I0
I6
tp226
a(I1
I8
tp227
a(I4
I3
tp228
a(I0
I2
tp229
atp230
Rp231
sg194
I11
sS'dirt_locations'
p232
g20
((lp233
(I4
I9
tp234
a(I4
I6
tp235
a(I10
I6
tp236
a(I8
I8
tp237
a(I7
I5
tp238
a(I8
I2
tp239
atp240
Rp241
sg199
((I5
I7
tp242
(I2
I10
tp243
(I2
I8
tp244
tp245
sg200
I11
sbs(iproblems
RoomID
p246
(dp247
g194
I9
sg195
I8
sg196
I2175216119781798972
sg197
(I5
I4
tp248
sg199
I4
sg200
I10
sb(imulti_robot_problem
MultiRobotState
p249
(dp250
g203
g20
((lp251
(I6
I6
tp252
a(I2
I8
tp253
a(I0
I7
tp254
a(I6
I2
tp255
a(I1
I6
tp256
a(I2
I5
tp257
a(I5
I5
tp258
a(I8
I1
tp259
a(I7
I6
tp260
a(I6
I3
tp261
a(I2
I2
tp262
a(I8
I6
tp263
a(I6
I4
tp264
ag248
a(I8
I2
tp265
a(I7
I1
tp266
a(I1
I4
tp267
a(I7
I5
tp268
a(I8
I7
tp269
a(I1
I0
tp270
a(I6
I5
tp271
a(I3
I3
tp272
a(I8
I3
tp273
a(I7
I0
tp274
a(I6
I8
tp275
a(I7
I8
tp276
a(I7
I4
tp277
a(I0
I6
tp278
a(I1
I8
tp279
a(I8
I8
tp280
a(I4
I3
tp281
a(I1
I7
tp282
a(I3
I4
tp283
a(I0
I2
tp284
atp285
Rp286
sg194
I9
sg232
g20
((lp287
(I6
I7
tp288
a(I2
I9
tp289
a(I5
I6
tp290
a(I3
I1
tp291
a(I8
I9
tp292
a(I0
I5
tp293
a(I0
I3
tp294
a(I5
I2
tp295
atp296
Rp297
sg199
((I2
I4
tp298
(I8
I5
tp299
(I4
I9
tp300
(I7
I7
tp301
tp302
sg200
I10
sbs(iproblems
RoomID
p303
(dp304
g194
I12
sg195
I9
sg196
I4912931603392816429
sg197
(I3
I0
tp305
sg199
I3
sg200
I9
sb(imulti_robot_problem
MultiRobotState
p306
(dp307
g203
g20
((lp308
(I4
I7
tp309
a(I4
I8
tp310
a(I5
I6
tp311
a(I2
I8
tp312
a(I0
I7
tp313
a(I0
I3
tp314
a(I5
I8
tp315
a(I5
I5
tp316
a(I4
I4
tp317
ag305
a(I7
I2
tp318
a(I8
I6
tp319
a(I5
I3
tp320
a(I4
I1
tp321
a(I6
I4
tp322
a(I0
I0
tp323
a(I4
I5
tp324
a(I7
I5
tp325
a(I4
I2
tp326
a(I6
I8
tp327
a(I10
I5
tp328
a(I4
I6
tp329
a(I7
I8
tp330
a(I8
I8
tp331
a(I1
I7
tp332
a(I5
I2
tp333
atp334
Rp335
sg194
I12
sg232
g20
((lp336
(I7
I3
tp337
a(I7
I1
tp338
a(I8
I1
tp339
a(I6
I3
tp340
a(I11
I8
tp341
a(I8
I7
tp342
a(I3
I7
tp343
a(I2
I5
tp344
a(I3
I4
tp345
atp346
Rp347
sg199
((I9
I1
tp348
(I1
I6
tp349
(I8
I4
tp350
tp351
sg200
I9
sbs(iproblems
RoomID
p352
(dp353
g194
I12
sg195
I9
sg196
I7002664860023442459
sg197
(I4
I3
tp354
sg199
I4
sg200
I11
sb(imulti_robot_problem
MultiRobotState
p355
(dp356
g203
g20
((lp357
(I3
I0
tp358
a(I2
I1
tp359
a(I8
I9
tp360
a(I9
I4
tp361
a(I5
I1
tp362
a(I8
I5
tp363
a(I5
I8
tp364
a(I8
I2
tp365
a(I3
I3
tp366
a(I8
I1
tp367
a(I1
I5
tp368
a(I2
I2
tp369
a(I0
I0
tp370
a(I10
I4
tp371
a(I9
I3
tp372
a(I6
I0
tp373
a(I8
I7
tp374
a(I9
I6
tp375
a(I7
I0
tp376
a(I11
I8
tp377
a(I3
I1
tp378
a(I9
I2
tp379
a(I2
I0
tp380
ag354
a(I9
I5
tp381
a(I5
I2
tp382
a(I2
I4
tp383
atp384
Rp385
sg194
I12
sg232
g20
((lp386
(I0
I1
tp387
a(I10
I8
tp388
a(I2
I8
tp389
a(I3
I10
tp390
a(I10
I6
tp391
a(I6
I2
tp392
a(I3
I7
tp393
a(I7
I8
tp394
a(I7
I9
tp395
atp396
Rp397
sg199
((I9
I7
tp398
(I8
I8
tp399
(I2
I9
tp400
(I1
I7
tp401
tp402
sg200
I11
sbs(iproblems
RoomID
p403
(dp404
g194
I9
sg195
I9
sg196
I1885758236351349410
sg197
(I5
I3
tp405
sg199
I3
sg200
I9
sb(imulti_robot_problem
MultiRobotState
p406
(dp407
g203
g20
((lp408
(I4
I7
tp409
a(I0
I0
tp410
a(I6
I7
tp411
a(I5
I5
tp412
a(I7
I1
tp413
a(I5
I6
tp414
a(I3
I4
tp415
a(I5
I7
tp416
a(I5
I4
tp417
a(I1
I6
tp418
a(I1
I5
tp419
a(I2
I3
tp420
a(I4
I3
tp421
a(I0
I4
tp422
a(I4
I2
tp423
a(I8
I5
tp424
a(I2
I4
tp425
a(I4
I4
tp426
ag405
atp427
Rp428
sg194
I9
sg232
g20
((lp429
(I7
I3
tp430
a(I7
I0
tp431
a(I3
I0
tp432
a(I6
I1
tp433
a(I1
I4
tp434
a(I0
I5
tp435
a(I5
I0
tp436
a(I1
I1
tp437
a(I8
I4
tp438
atp439
Rp440
sg199
((I0
I1
tp441
(I2
I6
tp442
(I0
I2
tp443
tp444
sg200
I9
sbssS'name'
p445
S'mild_roomset'
p446
sbsg160
g161
sg162
(dp447
g192
((lp448
(F10.079999999999927
I154
tp449
a(F28.619999999999891
I146
tp450
aF40.069999999999709
tp451
sg246
((lp452
(F7.430000000000291
I169
tp453
aF40.010000000000218
tp454
sg303
((lp455
(F0.11999999999989086
I11
tp456
aF40.039999999999964
tp457
sg352
((lp458
(F0.43999999999959982
I11
tp459
aF40.1899999999996
tp460
sg403
((lp461
(F1.0900000000001455
I65
tp462
aF40.159999999999854
tp463
ssba(imeasure_core
ProblemSetSolution
p464
(dp465
g3
(imeasure_core
RoomSet
p466
(dp467
S'rooms'
p468
(dp469
(iproblems
RoomID
p470
(dp471
S'width'
p472
I12
sS'dusts'
p473
I11
sS'seed'
p474
I1164115433906158532
sS'obstacles'
p475
(I7
I9
tp476
sS'robots'
p477
I5
sS'height'
p478
I12
sb(imulti_robot_problem
MultiRobotState
p479
(dp480
S'obstacle_locations'
p481
g20
((lp482
(I4
I7
tp483
a(I1
I3
tp484
a(I3
I1
tp485
a(I3
I3
tp486
a(I5
I6
tp487
a(I4
I1
tp488
a(I9
I3
tp489
a(I1
I4
tp490
a(I6
I7
tp491
a(I0
I5
tp492
a(I5
I7
tp493
a(I7
I11
tp494
a(I1
I0
tp495
ag476
a(I7
I8
tp496
a(I0
I2
tp497
a(I5
I8
tp498
a(I6
I8
tp499
atp500
Rp501
sg472
I12
sS'dirt_locations'
p502
g20
((lp503
(I4
I10
tp504
a(I9
I0
tp505
a(I2
I6
tp506
a(I5
I10
tp507
a(I9
I2
tp508
a(I0
I7
tp509
a(I8
I9
tp510
a(I1
I6
tp511
a(I8
I5
tp512
a(I4
I11
tp513
a(I5
I3
tp514
atp515
Rp516
sg477
((I1
I2
tp517
(I2
I11
tp518
(I2
I0
tp519
(I2
I9
tp520
(I11
I7
tp521
tp522
sg478
I12
sbs(iproblems
RoomID
p523
(dp524
g472
I10
sg473
I10
sg474
I8711387064946514083
sg475
(I0
I7
tp525
sg477
I7
sg478
I10
sb(imulti_robot_problem
MultiRobotState
p526
(dp527
g481
g20
((lp528
(I5
I9
tp529
a(I6
I9
tp530
a(I2
I6
tp531
a(I2
I9
tp532
a(I1
I5
tp533
ag525
a(I0
I6
tp534
a(I8
I8
tp535
a(I0
I5
tp536
a(I4
I3
tp537
a(I0
I4
tp538
a(I0
I3
tp539
a(I7
I9
tp540
a(I0
I2
tp541
a(I9
I7
tp542
atp543
Rp544
sg472
I10
sg502
g20
((lp545
(I9
I0
tp546
a(I3
I3
tp547
a(I7
I1
tp548
a(I8
I1
tp549
a(I9
I8
tp550
a(I4
I4
tp551
a(I9
I9
tp552
a(I3
I6
tp553
a(I1
I7
tp554
a(I8
I6
tp555
atp556
Rp557
sg477
((I1
I1
tp558
(I8
I0
tp559
(I7
I0
tp560
(I2
I5
tp561
(I6
I7
tp562
(I8
I9
tp563
(I5
I8
tp564
tp565
sg478
I10
sbs(iproblems
RoomID
p566
(dp567
g472
I13
sg473
I10
sg474
I8999366892653588108
sg475
(I6
I7
tp568
sg477
I6
sg478
I10
sb(imulti_robot_problem
MultiRobotState
p569
(dp570
g481
g20
((lp571
(I5
I4
tp572
ag568
a(I5
I5
tp573
a(I5
I6
tp574
a(I7
I6
tp575
a(I12
I1
tp576
a(I2
I3
tp577
a(I3
I3
tp578
a(I8
I6
tp579
a(I4
I2
tp580
a(I6
I5
tp581
a(I5
I3
tp582
atp583
Rp584
sg472
I13
sg502
g20
((lp585
(I6
I9
tp586
a(I7
I0
tp587
a(I5
I7
tp588
a(I12
I6
tp589
a(I2
I1
tp590
a(I0
I5
tp591
a(I10
I1
tp592
a(I0
I3
tp593
a(I3
I5
tp594
a(I7
I9
tp595
atp596
Rp597
sg477
((I12
I0
tp598
(I6
I1
tp599
(I2
I2
tp600
(I6
I4
tp601
(I4
I6
tp602
(I7
I1
tp603
tp604
sg478
I10
sbs(iproblems
RoomID
p605
(dp606
g472
I10
sg473
I14
sg474
I3872982626502034966
sg475
(I5
I10
tp607
sg477
I5
sg478
I12
sb(imulti_robot_problem
MultiRobotState
p608
(dp609
g481
g20
((lp610
(I5
I9
tp611
a(I6
I9
tp612
a(I4
I8
tp613
a(I3
I11
tp614
a(I2
I1
tp615
a(I6
I2
tp616
a(I5
I8
tp617
a(I6
I7
tp618
a(I8
I1
tp619
a(I3
I5
tp620
a(I1
I1
tp621
a(I4
I10
tp622
a(I3
I2
tp623
a(I7
I1
tp624
a(I1
I4
tp625
a(I8
I7
tp626
a(I4
I9
tp627
a(I6
I8
tp628
ag607
a(I4
I6
tp629
a(I5
I7
tp630
a(I3
I8
tp631
a(I4
I3
tp632
a(I5
I2
tp633
atp634
Rp635
sg472
I10
sg502
g20
((lp636
(I9
I3
tp637
a(I3
I10
tp638
a(I8
I11
tp639
a(I3
I1
tp640
a(I9
I7
tp641
a(I6
I3
tp642
a(I3
I9
tp643
a(I2
I3
tp644
a(I7
I11
tp645
a(I9
I5
tp646
a(I0
I8
tp647
a(I0
I2
tp648
a(I7
I2
tp649
a(I5
I3
tp650
atp651
Rp652
sg477
((I1
I8
tp653
(I2
I9
tp654
(I1
I9
tp655
(I1
I5
tp656
(I6
I5
tp657
tp658
sg478
I12
sbs(iproblems
RoomID
p659
(dp660
g472
I13
sg473
I14
sg474
I7002664860023442459
sg475
(I0
I3
tp661
sg477
I7
sg478
I12
sb(imulti_robot_problem
MultiRobotState
p662
(dp663
g481
g20
((lp664
(I1
I2
tp665
a(I0
I1
tp666
a(I10
I5
tp667
a(I11
I4
tp668
a(I10
I7
tp669
a(I7
I8
tp670
a(I9
I8
tp671
a(I10
I6
tp672
a(I3
I4
tp673
a(I9
I9
tp674
a(I0
I9
tp675
a(I9
I5
tp676
ag661
a(I0
I8
tp677
a(I10
I3
tp678
a(I0
I2
tp679
a(I11
I6
tp680
a(I9
I7
tp681
atp682
Rp683
sg472
I13
sg502
g20
((lp684
(I6
I4
tp685
a(I7
I4
tp686
a(I3
I1
tp687
a(I4
I6
tp688
a(I2
I9
tp689
a(I12
I2
tp690
a(I11
I9
tp691
a(I3
I11
tp692
a(I10
I10
tp693
a(I5
I9
tp694
a(I0
I0
tp695
a(I11
I5
tp696
a(I2
I5
tp697
a(I12
I9
tp698
atp699
Rp700
sg477
((I2
I10
tp701
(I1
I8
tp702
(I8
I10
tp703
(I7
I2
tp704
(I3
I8
tp705
(I6
I2
tp706
(I7
I9
tp707
tp708
sg478
I12
sbssS'name'
p709
S'heavy_roomset'
p710
sbsg160
g161
sg162
(dp711
g470
((lp712
(F3.0
I20
tp713
aF40.1200000000008
tp714
sg523
((lp715
(F13.229999999999563
I7
tp716
aF42.009999999999309
tp717
sg566
((lp718
(F9.3800000000001091
I20
tp719
aF40.010000000000218
tp720
sg605
((lp721
F40.149999999999636
tp722
sg659
((lp723
F46.300000000000182
tp724
ssba(imeasure_core
ProblemSetSolution
p725
(dp726
g3
g4
sg160
S"AnytimeBeam-w20-gf(1.5, 'exp')_with_PowerHeuristic2"
p727
sg162
(dp728
g8
((lp729
(F0.14000000000032742
I42
tp730
a(F3.1899999999995998
I40
tp731
a(F4.5600000000004002
I34
tp732
a(F5.75
I30
tp733
a(F6.819999999999709
I28
tp734
a(F12.600000000000364
I26
tp735
aF40.0
tp736
sg40
((lp737
(F0.5
I5
tp738
aF40.520000000000437
tp739
sg73
((lp740
(F0.48999999999978172
I66
tp741
a(F21.459999999999127
I65
tp742
a(F30.779999999999745
I64
tp743
aF40.009999999999309
tp744
sg100
((lp745
(F0.5500000000001819
I11
tp746
aF40.070000000000618
tp747
sg129
((lp748
(F0.22999999999956344
I4
tp749
aF40.019999999999527
tp750
ssba(imeasure_core
ProblemSetSolution
p751
(dp752
g3
g188
sg160
g727
sg162
(dp753
g192
((lp754
(F11.0
I154
tp755
a(F20.729999999999563
I146
tp756
aF40.25
tp757
sg246
((lp758
(F7.4099999999998545
I169
tp759
aF40.039999999999964
tp760
sg303
((lp761
(F0.11999999999989086
I11
tp762
aF40.019999999999527
tp763
sg352
((lp764
(F0.43000000000029104
I11
tp765
aF40.1200000000008
tp766
sg403
((lp767
(F1.089999999999236
I65
tp768
aF40.069999999999709
tp769
ssba(imeasure_core
ProblemSetSolution
p770
(dp771
g3
g466
sg160
g727
sg162
(dp772
g470
((lp773
(F2.9899999999997817
I20
tp774
aF40.180000000000291
tp775
sg523
((lp776
(F13.199999999999818
I7
tp777
aF42.109999999999673
tp778
sg566
((lp779
(F9.3699999999998909
I20
tp780
aF40.010000000000218
tp781
sg605
((lp782
F40.099999999999454
tp783
sg659
((lp784
F45.960000000000036
tp785
ssba(imeasure_core
ProblemSetSolution
p786
(dp787
g3
g4
sg160
S"AnytimeBeam-w20-gf(1.7, 'exp')_with_PowerHeuristic2"
p788
sg162
(dp789
g8
((lp790
(F0.1500000000005457
I42
tp791
a(F2.4499999999998181
I40
tp792
a(F3.8100000000004002
I34
tp793
a(F4.9899999999997817
I30
tp794
a(F6.0500000000001819
I28
tp795
a(F11.8100000000004
I26
tp796
aF40.0
tp797
sg40
((lp798
(F0.5
I5
tp799
aF40.180000000000291
tp800
sg73
((lp801
(F0.5
I66
tp802
a(F20.970000000000255
I65
tp803
a(F30.550000000000182
I64
tp804
aF40.029999999999745
tp805
sg100
((lp806
(F0.56000000000040018
I11
tp807
aF40.220000000000255
tp808
sg129
((lp809
(F0.22000000000025466
I4
tp810
aF40.140000000000327
tp811
ssba(imeasure_core
ProblemSetSolution
p812
(dp813
g3
g188
sg160
g788
sg162
(dp814
g192
((lp815
(F8.7100000000000364
I154
tp816
a(F17.390000000000327
I146
tp817
aF40.100000000000364
tp818
sg246
((lp819
(F7.4200000000000728
I169
tp820
aF40.029999999999745
tp821
sg303
((lp822
(F0.11999999999989086
I11
tp823
aF40.029999999999745
tp824
sg352
((lp825
(F0.44000000000050932
I11
tp826
aF40.040000000000873
tp827
sg403
((lp828
(F1.089999999999236
I65
tp829
aF40.039999999999964
tp830
ssba(imeasure_core
ProblemSetSolution
p831
(dp832
g3
g466
sg160
g788
sg162
(dp833
g470
((lp834
(F3.0
I20
tp835
aF40.139999999999418
tp836
sg523
((lp837
(F13.130000000000109
I7
tp838
aF40.760000000000218
tp839
sg566
((lp840
(F9.3599999999996726
I20
tp841
aF40.050000000000182
tp842
sg605
((lp843
F40.010000000000218
tp844
sg659
((lp845
F46.259999999999309
tp846
ssba(imeasure_core
ProblemSetSolution
p847
(dp848
g3
g4
sg160
S"AnytimeBeam-w20-gf(1.8999999999999999, 'exp')_with_PowerHeuristic2"
p849
sg162
(dp850
g8
((lp851
(F0.14000000000032742
I42
tp852
a(F2.8699999999998909
I40
tp853
a(F4.2399999999997817
I34
tp854
a(F5.4200000000000728
I30
tp855
a(F6.4800000000004729
I28
tp856
a(F12.279999999999745
I26
tp857
aF40.0
tp858
sg40
((lp859
(F0.5
I5
tp860
aF40.210000000000036
tp861
sg73
((lp862
(F0.5
I66
tp863
a(F18.329999999999927
I65
tp864
a(F27.930000000000291
I64
tp865
aF40.0
tp866
sg100
((lp867
(F0.5500000000001819
I11
tp868
aF40.220000000000255
tp869
sg129
((lp870
(F0.21999999999934516
I4
tp871
aF40.019999999999527
tp872
ssba(imeasure_core
ProblemSetSolution
p873
(dp874
g3
g188
sg160
g849
sg162
(dp875
g192
((lp876
(F9.5600000000004002
I158
tp877
a(F20.020000000000437
I149
tp878
aF40.079999999999927
tp879
sg246
((lp880
(F7.4200000000000728
I169
tp881
aF40.0
tp882
sg303
((lp883
(F0.11999999999989086
I11
tp884
aF40.010000000000218
tp885
sg352
((lp886
(F0.44000000000050932
I11
tp887
aF40.050000000000182
tp888
sg403
((lp889
(F1.0999999999994543
I65
tp890
aF40.059999999999491
tp891
ssba(imeasure_core
ProblemSetSolution
p892
(dp893
g3
g466
sg160
g849
sg162
(dp894
g470
((lp895
(F2.9700000000002547
I20
tp896
aF40.529999999999745
tp897
sg523
((lp898
(F13.150000000000546
I7
tp899
aF41.030000000000655
tp900
sg566
((lp901
(F9.3699999999998909
I20
tp902
aF40.210000000000036
tp903
sg605
((lp904
F40.0
tp905
sg659
((lp906
F45.960000000000036
tp907
ssba(imeasure_core
ProblemSetSolution
p908
(dp909
g3
g4
sg160
S"AnytimeBeam-w20-gf(1.3, 'exp')_with_LinearHeuristic"
p910
sg162
(dp911
g8
((lp912
(F0.029999999999745341
I28
tp913
aF40.0
tp914
sg40
((lp915
F40.159999999999854
tp916
sg73
((lp917
(F0.63999999999941792
I25
tp918
a(F31.510000000000218
I24
tp919
aF40.0
tp920
sg100
((lp921
(F1.9899999999997817
I27
tp922
aF40.099999999999454
tp923
sg129
((lp924
(F0.73000000000047294
I10
tp925
aF40.610000000000582
tp926
ssba(imeasure_core
ProblemSetSolution
p927
(dp928
g3
g188
sg160
g910
sg162
(dp929
g192
((lp930
F40.049999999999272
tp931
sg246
((lp932
F40.030000000000655
tp933
sg303
((lp934
(F15.039999999999964
I282
tp935
aF40.0
tp936
sg352
((lp937
F40.009999999999309
tp938
sg403
((lp939
(F8.2700000000004366
I226
tp940
aF40.010000000000218
tp941
ssba(imeasure_core
ProblemSetSolution
p942
(dp943
g3
g466
sg160
g910
sg162
(dp944
g470
((lp945
F40.400000000000546
tp946
sg523
((lp947
(F22.3799999999992
I7
tp948
aF44.9399999999996
tp949
sg566
((lp950
F40.300000000000182
tp951
sg605
((lp952
F40.139999999999418
tp953
sg659
((lp954
F51.600000000000364
tp955
ssba(imeasure_core
ProblemSetSolution
p956
(dp957
g3
g4
sg160
S"AnytimeBeam-w20-gf(1.5, 'exp')_with_LinearHeuristic"
p958
sg162
(dp959
g8
((lp960
(F0.020000000000436557
I28
tp961
a(F27.109999999999673
I26
tp962
aF40.0
tp963
sg40
((lp964
F40.210000000000036
tp965
sg73
((lp966
(F0.63000000000010914
I25
tp967
a(F26.619999999999891
I24
tp968
a(F36.3100000000004
I23
tp969
aF40.029999999999745
tp970
sg100
((lp971
(F1.9800000000004729
I27
tp972
aF40.199999999999818
tp973
sg129
((lp974
(F0.73000000000047294
I10
tp975
aF40.130000000000109
tp976
ssba(imeasure_core
ProblemSetSolution
p977
(dp978
g3
g188
sg160
g958
sg162
(dp979
g192
((lp980
F40.039999999999964
tp981
sg246
((lp982
F40.020000000000437
tp983
sg303
((lp984
(F15.229999999999563
I282
tp985
aF40.049999999999272
tp986
sg352
((lp987
F40.100000000000364
tp988
sg403
((lp989
(F8.2600000000002183
I226
tp990
aF40.079999999999927
tp991
ssba(imeasure_core
ProblemSetSolution
p992
(dp993
g3
g466
sg160
g958
sg162
(dp994
g470
((lp995
F40.329999999999927
tp996
sg523
((lp997
(F22.399999999999636
I7
tp998
aF45.059999999999491
tp999
sg566
((lp1000
F40.31000000000131
tp1001
sg605
((lp1002
F40.25
tp1003
sg659
((lp1004
F51.599999999998545
tp1005
ssba(imeasure_core
ProblemSetSolution
p1006
(dp1007
g3
g4
sg160
S"AnytimeBeam-w20-gf(1.7, 'exp')_with_LinearHeuristic"
p1008
sg162
(dp1009
g8
((lp1010
(F0.020000000000436557
I28
tp1011
a(F27.920000000000073
I26
tp1012
aF40.0
tp1013
sg40
((lp1014
F40.069999999999709
tp1015
sg73
((lp1016
(F0.63000000000101863
I25
tp1017
a(F21.940000000000509
I24
tp1018
a(F31.3700000000008
I23
tp1019
aF40.020000000000437
tp1020
sg100
((lp1021
(F1.9899999999997817
I27
tp1022
aF40.139999999999418
tp1023
sg129
((lp1024
(F0.74000000000160071
I10
tp1025
aF40.210000000000946
tp1026
ssba(imeasure_core
ProblemSetSolution
p1027
(dp1028
g3
g188
sg160
g1008
sg162
(dp1029
g192
((lp1030
F40.020000000000437
tp1031
sg246
((lp1032
F40.090000000000146
tp1033
sg303
((lp1034
(F15.059999999999491
I282
tp1035
aF40.079999999999927
tp1036
sg352
((lp1037
F40.089999999998327
tp1038
sg403
((lp1039
(F8.180000000000291
I226
tp1040
aF40.030000000000655
tp1041
ssba(imeasure_core
ProblemSetSolution
p1042
(dp1043
g3
g466
sg160
g1008
sg162
(dp1044
g470
((lp1045
F40.050000000001091
tp1046
sg523
((lp1047
(F22.639999999999418
I7
tp1048
aF46.759999999998399
tp1049
sg566
((lp1050
F40.150000000001455
tp1051
sg605
((lp1052
F40.069999999999709
tp1053
sg659
((lp1054
F52.139999999999418
tp1055
ssba(imeasure_core
ProblemSetSolution
p1056
(dp1057
g3
g4
sg160
S"AnytimeBeam-w20-gf(1.8999999999999999, 'exp')_with_LinearHeuristic"
p1058
sg162
(dp1059
g8
((lp1060
(F0.020000000000436557
I28
tp1061
a(F24.180000000000291
I26
tp1062
aF40.0
tp1063
sg40
((lp1064
F40.049999999999272
tp1065
sg73
((lp1066
(F0.63000000000101863
I25
tp1067
a(F20.1200000000008
I24
tp1068
a(F29.490000000001601
I23
tp1069
aF40.010000000000218
tp1070
sg100
((lp1071
(F1.9899999999997817
I27
tp1072
aF40.360000000000582
tp1073
sg129
((lp1074
(F0.73999999999978172
I10
tp1075
aF40.610000000000582
tp1076
ssba(imeasure_core
ProblemSetSolution
p1077
(dp1078
g3
g188
sg160
g1058
sg162
(dp1079
g192
((lp1080
F40.049999999999272
tp1081
sg246
((lp1082
F40.040000000000873
tp1083
sg303
((lp1084
(F15.0
I282
tp1085
aF40.039999999999054
tp1086
sg352
((lp1087
F40.139999999999418
tp1088
sg403
((lp1089
(F8.2100000000009459
I226
tp1090
aF40.0
tp1091
ssba(imeasure_core
ProblemSetSolution
p1092
(dp1093
g3
g466
sg160
g1058
sg162
(dp1094
g470
((lp1095
F40.140000000001237
tp1096
sg523
((lp1097
(F22.489999999999782
I7
tp1098
aF46.409999999999854
tp1099
sg566
((lp1100
F40.119999999998981
tp1101
sg605
((lp1102
F40.220000000001164
tp1103
sg659
((lp1104
F52.049999999999272
tp1105
ssba.