(lp0
(imeasure_core
ProblemSetSolution
p1
(dp2
S'roomset'
p3
(imeasure_core
RoomSet
p4
(dp5
S'rooms'
p6
(dp7
(iproblems
RoomID
p8
(dp9
S'dusts'
p10
I6
sS'obstacles'
p11
(I5
I1
tp12
sS'robots'
p13
I4
sS'height'
p14
I9
sS'width'
p15
I10
sS'seed'
p16
I2405875930906139466
sb(imulti_robot_problem
MultiRobotState
p17
(dp18
S'obstacle_locations'
p19
c__builtin__
frozenset
p20
((lp21
(I7
I0
tp22
a(I7
I1
tp23
ag12
a(I6
I1
tp24
a(I6
I0
tp25
a(I7
I2
tp26
atp27
Rp28
sg15
I10
sS'dirt_locations'
p29
g20
((lp30
(I7
I3
tp31
a(I2
I1
tp32
a(I6
I4
tp33
a(I5
I6
tp34
a(I5
I2
tp35
a(I0
I7
tp36
atp37
Rp38
sg13
((I7
I6
tp39
(I3
I3
tp40
(I8
I6
tp41
(I0
I2
tp42
tp43
sg14
I9
sbs(iproblems
RoomID
p44
(dp45
g10
I6
sg11
(I6
I7
tp46
sg13
I4
sg14
I10
sg15
I7
sg16
I8744744311366254845
sb(imulti_robot_problem
MultiRobotState
p47
(dp48
g19
g20
((lp49
(I0
I6
tp50
ag46
a(I4
I6
tp51
a(I3
I7
tp52
a(I5
I7
tp53
a(I1
I9
tp54
atp55
Rp56
sg15
I7
sg29
g20
((lp57
(I2
I7
tp58
a(I0
I1
tp59
a(I5
I4
tp60
a(I6
I0
tp61
a(I5
I8
tp62
a(I5
I3
tp63
atp64
Rp65
sg13
((I0
I8
tp66
(I4
I2
tp67
(I3
I0
tp68
(I1
I4
tp69
tp70
sg14
I10
sbs(iproblems
RoomID
p71
(dp72
g10
I6
sg11
(I4
I6
tp73
sg13
I1
sg14
I8
sg15
I7
sg16
I3537054308274871603
sb(imulti_robot_problem
MultiRobotState
p74
(dp75
g19
g20
((lp76
(I4
I7
tp77
ag73
a(I4
I5
tp78
a(I2
I5
tp79
a(I3
I5
tp80
a(I6
I0
tp81
a(I2
I4
tp82
atp83
Rp84
sg15
I7
sg29
g20
((lp85
(I0
I6
tp86
a(I6
I2
tp87
a(I5
I6
tp88
a(I4
I1
tp89
a(I1
I1
tp90
a(I5
I3
tp91
atp92
Rp93
sg13
((I0
I3
tp94
tp95
sg14
I8
sbs(iproblems
RoomID
p96
(dp97
g10
I8
sg11
(I5
I3
tp98
sg13
I3
sg14
I7
sg15
I7
sg16
I7325839828077136048
sb(imulti_robot_problem
MultiRobotState
p99
(dp100
g19
g20
((lp101
(I6
I4
tp102
a(I5
I4
tp103
a(I5
I5
tp104
a(I6
I6
tp105
a(I3
I1
tp106
a(I6
I0
tp107
a(I2
I0
tp108
a(I0
I4
tp109
ag98
atp110
Rp111
sg15
I7
sg29
g20
((lp112
(I0
I6
tp113
a(I3
I0
tp114
a(I2
I4
tp115
a(I1
I5
tp116
a(I4
I3
tp117
a(I2
I2
tp118
a(I1
I1
tp119
a(I3
I5
tp120
atp121
Rp122
sg13
((I1
I0
tp123
(I3
I3
tp124
(I6
I2
tp125
tp126
sg14
I7
sbs(iproblems
RoomID
p127
(dp128
g10
I10
sg11
(I4
I7
tp129
sg13
I5
sg14
I10
sg15
I8
sg16
I8655808914197340073
sb(imulti_robot_problem
MultiRobotState
p130
(dp131
g19
g20
((lp132
(I2
I7
tp133
ag129
a(I4
I8
tp134
a(I6
I3
tp135
a(I7
I5
tp136
a(I3
I7
tp137
a(I1
I0
tp138
a(I5
I3
tp139
atp140
Rp141
sg15
I8
sg29
g20
((lp142
(I7
I3
tp143
a(I5
I4
tp144
a(I7
I0
tp145
a(I5
I7
tp146
a(I1
I5
tp147
a(I1
I9
tp148
a(I3
I6
tp149
a(I1
I7
tp150
a(I3
I4
tp151
a(I5
I8
tp152
atp153
Rp154
sg13
((I3
I8
tp155
(I7
I9
tp156
(I6
I1
tp157
(I2
I3
tp158
(I5
I5
tp159
tp160
sg14
I10
sbssS'name'
p161
S'easy_roomset'
p162
sbsg161
S"AnytimeBeam-w5-gf(1.3, 'exp')_with_PowerHeuristic2"
p163
sS'solutions'
p164
(dp165
g8
((lp166
(F0.35000000000218279
I10
tp167
aF40.190000000002328
tp168
sg44
((lp169
(F0.23999999999796273
I14
tp170
aF40.0
tp171
sg71
((lp172
(F0.059999999997671694
I55
tp173
a(F0.21999999999752617
I49
tp174
a(F1.0099999999983993
I47
tp175
a(F1.2299999999995634
I45
tp176
a(F1.5
I43
tp177
a(F2.5900000000001455
I41
tp178
a(F3.0199999999967986
I40
tp179
a(F4.0299999999988358
I39
tp180
a(F4.9199999999982538
I38
tp181
a(F6.180000000000291
I37
tp182
a(F7.3499999999985448
I35
tp183
a(F8.9899999999979627
I33
tp184
a(F11.329999999998108
I31
tp185
a(F13.289999999997235
I29
tp186
a(F14.840000000000146
I27
tp187
a(F16.799999999999272
I25
tp188
a(F21.090000000000146
I24
tp189
a(F24.919999999998254
I22
tp190
a(F28.169999999998254
I20
tp191
aF40.0
tp192
sg96
((lp193
(F4.6299999999973807
I144
tp194
aF40.0
tp195
sg127
((lp196
(F1.3099999999976717
I9
tp197
aF40.029999999998836
tp198
ssba(imeasure_core
ProblemSetSolution
p199
(dp200
g3
(imeasure_core
RoomSet
p201
(dp202
g6
(dp203
(iproblems
RoomID
p204
(dp205
g10
I6
sg11
(I1
I8
tp206
sg13
I4
sg14
I11
sg15
I12
sg16
I2405875930906139466
sb(imulti_robot_problem
MultiRobotState
p207
(dp208
g19
g20
((lp209
(I6
I4
tp210
a(I4
I6
tp211
a(I8
I2
tp212
a(I6
I6
tp213
a(I2
I8
tp214
a(I8
I0
tp215
a(I5
I5
tp216
a(I9
I10
tp217
a(I6
I2
tp218
a(I2
I3
tp219
a(I3
I7
tp220
a(I6
I5
tp221
a(I5
I3
tp222
a(I7
I0
tp223
a(I3
I3
tp224
a(I2
I9
tp225
a(I11
I5
tp226
a(I8
I1
tp227
a(I6
I1
tp228
a(I3
I1
tp229
a(I6
I3
tp230
a(I2
I0
tp231
ag206
a(I7
I5
tp232
a(I3
I6
tp233
a(I4
I3
tp234
a(I3
I4
tp235
atp236
Rp237
sg15
I12
sg29
g20
((lp238
(I9
I4
tp239
a(I7
I1
tp240
a(I0
I9
tp241
a(I9
I3
tp242
a(I7
I7
tp243
a(I2
I1
tp244
atp245
Rp246
sg13
((I9
I7
tp247
(I4
I4
tp248
(I10
I8
tp249
(I0
I2
tp250
tp251
sg14
I11
sbs(iproblems
RoomID
p252
(dp253
g10
I10
sg11
(I0
I5
tp254
sg13
I4
sg14
I12
sg15
I10
sg16
I8655808914197340073
sb(imulti_robot_problem
MultiRobotState
p255
(dp256
g19
g20
((lp257
(I5
I9
tp258
a(I5
I4
tp259
a(I5
I7
tp260
a(I6
I6
tp261
a(I4
I8
tp262
a(I8
I0
tp263
a(I0
I7
tp264
a(I7
I5
tp265
a(I2
I3
tp266
a(I1
I4
tp267
a(I6
I8
tp268
a(I1
I11
tp269
a(I9
I6
tp270
a(I5
I8
tp271
a(I4
I6
tp272
a(I3
I8
tp273
a(I6
I7
tp274
a(I5
I5
tp275
a(I3
I4
tp276
a(I4
I4
tp277
a(I6
I3
tp278
a(I2
I0
tp279
a(I6
I5
tp280
ag254
a(I7
I8
tp281
atp282
Rp283
sg15
I10
sg29
g20
((lp284
(I6
I9
tp285
a(I2
I9
tp286
a(I2
I11
tp287
a(I9
I0
tp288
a(I7
I7
tp289
a(I8
I3
tp290
a(I1
I7
tp291
a(I8
I6
tp292
a(I8
I4
tp293
a(I3
I5
tp294
atp295
Rp296
sg13
((I4
I9
tp297
(I8
I11
tp298
(I7
I1
tp299
(I3
I3
tp300
tp301
sg14
I12
sbs(iproblems
RoomID
p302
(dp303
g10
I6
sg11
(I3
I3
tp304
sg13
I4
sg14
I12
sg15
I12
sg16
I7193062864237573168
sb(imulti_robot_problem
MultiRobotState
p305
(dp306
g19
g20
((lp307
(I6
I4
tp308
a(I5
I4
tp309
a(I1
I3
tp310
a(I6
I6
tp311
a(I7
I1
tp312
a(I9
I3
tp313
a(I0
I7
tp314
a(I1
I6
tp315
a(I2
I5
tp316
a(I0
I8
tp317
a(I10
I3
tp318
a(I8
I3
tp319
a(I3
I1
tp320
ag304
a(I5
I7
tp321
a(I11
I3
tp322
a(I7
I4
tp323
a(I0
I9
tp324
a(I2
I3
tp325
a(I8
I4
tp326
a(I3
I4
tp327
a(I2
I4
tp328
a(I9
I7
tp329
atp330
Rp331
sg15
I12
sg29
g20
((lp332
(I2
I0
tp333
a(I2
I6
tp334
a(I6
I8
tp335
a(I0
I6
tp336
a(I4
I4
tp337
a(I7
I7
tp338
atp339
Rp340
sg13
((I11
I9
tp341
(I11
I2
tp342
(I4
I11
tp343
(I3
I6
tp344
tp345
sg14
I12
sbs(iproblems
RoomID
p346
(dp347
g10
I10
sg11
(I11
I0
tp348
sg13
I4
sg14
I9
sg15
I12
sg16
I2796939073032698495
sb(imulti_robot_problem
MultiRobotState
p349
(dp350
g19
g20
((lp351
(I7
I3
tp352
a(I5
I7
tp353
a(I9
I1
tp354
a(I6
I6
tp355
a(I8
I0
tp356
a(I7
I7
tp357
a(I5
I8
tp358
a(I3
I3
tp359
a(I8
I1
tp360
a(I4
I8
tp361
a(I6
I3
tp362
a(I7
I2
tp363
a(I3
I6
tp364
a(I6
I4
tp365
a(I5
I4
tp366
a(I2
I6
tp367
a(I7
I1
tp368
a(I4
I5
tp369
ag348
a(I2
I3
tp370
a(I10
I1
tp371
a(I1
I0
tp372
a(I6
I5
tp373
a(I5
I3
tp374
a(I8
I3
tp375
a(I7
I0
tp376
a(I6
I8
tp377
a(I9
I2
tp378
a(I6
I1
tp379
a(I3
I1
tp380
a(I8
I8
tp381
a(I4
I3
tp382
a(I5
I2
tp383
a(I10
I2
tp384
atp385
Rp386
sg15
I12
sg29
g20
((lp387
(I1
I2
tp388
a(I11
I7
tp389
a(I3
I2
tp390
a(I2
I8
tp391
a(I9
I3
tp392
a(I1
I6
tp393
a(I5
I0
tp394
a(I0
I3
tp395
a(I0
I8
tp396
a(I4
I1
tp397
atp398
Rp399
sg13
((I10
I8
tp400
(I4
I6
tp401
(I11
I4
tp402
(I7
I8
tp403
tp404
sg14
I9
sbs(iproblems
RoomID
p405
(dp406
g10
I10
sg11
(I3
I6
tp407
sg13
I4
sg14
I12
sg15
I11
sg16
I4278205817407065157
sb(imulti_robot_problem
MultiRobotState
p408
(dp409
g19
g20
((lp410
(I0
I1
tp411
a(I4
I7
tp412
a(I5
I6
tp413
a(I2
I8
tp414
a(I0
I10
tp415
a(I3
I7
tp416
a(I7
I11
tp417
a(I3
I3
tp418
a(I2
I7
tp419
a(I5
I3
tp420
a(I6
I7
tp421
a(I4
I6
tp422
a(I10
I7
tp423
a(I4
I4
tp424
a(I3
I8
tp425
a(I4
I5
tp426
ag407
a(I1
I10
tp427
a(I3
I5
tp428
a(I1
I9
tp429
atp430
Rp431
sg15
I11
sg29
g20
((lp432
(I1
I2
tp433
a(I8
I1
tp434
a(I9
I2
tp435
a(I6
I1
tp436
a(I5
I7
tp437
a(I8
I9
tp438
a(I3
I0
tp439
a(I9
I4
tp440
a(I0
I2
tp441
a(I4
I0
tp442
atp443
Rp444
sg13
((I6
I10
tp445
(I5
I11
tp446
(I2
I0
tp447
(I9
I1
tp448
tp449
sg14
I12
sbssg161
S'mild_roomset'
p450
sbsg161
g163
sg164
(dp451
g204
((lp452
(F4.75
I55
tp453
a(F22.600000000002183
I32
tp454
aF40.010000000002037
tp455
sg252
((lp456
(F12.599999999998545
I171
tp457
aF40.020000000000437
tp458
sg302
((lp459
(F0.53999999999723514
I25
tp460
aF40.119999999998981
tp461
sg346
((lp462
F40.029999999998836
tp463
sg405
((lp464
(F1.2000000000007276
I28
tp465
aF40.120000000002619
tp466
ssba(imeasure_core
ProblemSetSolution
p467
(dp468
g3
(imeasure_core
RoomSet
p469
(dp470
g6
(dp471
(iproblems
RoomID
p472
(dp473
g10
I11
sg11
(I10
I1
tp474
sg13
I7
sg14
I12
sg15
I13
sg16
I2405875930906139466
sb(imulti_robot_problem
MultiRobotState
p475
(dp476
g19
g20
((lp477
(I7
I3
tp478
a(I9
I1
tp479
a(I7
I1
tp480
a(I5
I6
tp481
a(I8
I11
tp482
a(I8
I0
tp483
a(I1
I4
tp484
a(I6
I2
tp485
a(I0
I7
tp486
ag474
a(I10
I3
tp487
a(I7
I2
tp488
a(I10
I4
tp489
a(I11
I7
tp490
a(I9
I0
tp491
a(I11
I5
tp492
a(I7
I4
tp493
a(I1
I5
tp494
a(I10
I2
tp495
a(I11
I6
tp496
a(I8
I4
tp497
atp498
Rp499
sg15
I13
sg29
g20
((lp500
(I12
I5
tp501
a(I10
I11
tp502
a(I8
I1
tp503
a(I7
I8
tp504
a(I8
I6
tp505
a(I6
I3
tp506
a(I2
I0
tp507
a(I2
I3
tp508
a(I5
I1
tp509
a(I10
I0
tp510
a(I3
I4
tp511
atp512
Rp513
sg13
((I10
I8
tp514
(I9
I2
tp515
(I4
I5
tp516
(I11
I8
tp517
(I1
I2
tp518
(I3
I1
tp519
(I0
I10
tp520
tp521
sg14
I12
sbs(iproblems
RoomID
p522
(dp523
g10
I11
sg11
(I7
I9
tp524
sg13
I6
sg14
I13
sg15
I10
sg16
I8744744311366254845
sb(imulti_robot_problem
MultiRobotState
p525
(dp526
g19
g20
((lp527
(I6
I9
tp528
a(I1
I3
tp529
a(I4
I9
tp530
a(I5
I6
tp531
a(I9
I8
tp532
a(I1
I8
tp533
a(I1
I0
tp534
ag524
a(I3
I4
tp535
a(I5
I8
tp536
a(I9
I7
tp537
atp538
Rp539
sg15
I10
sg29
g20
((lp540
(I0
I1
tp541
a(I7
I3
tp542
a(I9
I0
tp543
a(I1
I12
tp544
a(I4
I10
tp545
a(I5
I11
tp546
a(I9
I10
tp547
a(I7
I11
tp548
a(I3
I7
tp549
a(I0
I8
tp550
a(I9
I6
tp551
atp552
Rp553
sg13
((I0
I10
tp554
(I6
I3
tp555
(I4
I0
tp556
(I1
I6
tp557
(I7
I5
tp558
(I9
I9
tp559
tp560
sg14
I13
sbs(iproblems
RoomID
p561
(dp562
g10
I15
sg11
(I3
I6
tp563
sg13
I7
sg14
I10
sg15
I13
sg16
I2796939073032698495
sb(imulti_robot_problem
MultiRobotState
p564
(dp565
g19
g20
((lp566
(I5
I9
tp567
a(I6
I9
tp568
a(I4
I6
tp569
a(I5
I0
tp570
a(I6
I6
tp571
a(I4
I5
tp572
a(I5
I4
tp573
a(I6
I7
tp574
a(I6
I2
tp575
a(I0
I5
tp576
a(I8
I7
tp577
a(I5
I1
tp578
a(I6
I4
tp579
a(I12
I9
tp580
a(I5
I8
tp581
a(I5
I3
tp582
a(I2
I7
tp583
a(I4
I9
tp584
a(I5
I5
tp585
a(I3
I1
tp586
a(I4
I8
tp587
a(I2
I0
tp588
a(I3
I9
tp589
a(I6
I5
tp590
ag563
a(I5
I7
tp591
a(I7
I8
tp592
atp593
Rp594
sg15
I13
sg29
g20
((lp595
(I1
I2
tp596
a(I8
I2
tp597
a(I2
I9
tp598
a(I12
I0
tp599
a(I4
I1
tp600
a(I12
I8
tp601
a(I6
I0
tp602
a(I9
I9
tp603
a(I2
I3
tp604
a(I9
I4
tp605
a(I1
I7
tp606
a(I0
I9
tp607
a(I7
I9
tp608
a(I3
I4
tp609
a(I3
I3
tp610
atp611
Rp612
sg13
((I10
I2
tp613
(I11
I8
tp614
(I12
I5
tp615
(I8
I9
tp616
(I10
I3
tp617
(I0
I3
tp618
(I11
I2
tp619
tp620
sg14
I10
sbs(iproblems
RoomID
p621
(dp622
g10
I15
sg11
(I4
I8
tp623
sg13
I6
sg14
I13
sg15
I12
sg16
I4278205817407065157
sb(imulti_robot_problem
MultiRobotState
p624
(dp625
g19
g20
((lp626
(I11
I7
tp627
a(I2
I9
tp628
ag623
a(I5
I6
tp629
a(I2
I8
tp630
a(I6
I10
tp631
a(I3
I8
tp632
a(I11
I8
tp633
a(I3
I9
tp634
a(I1
I10
tp635
a(I1
I11
tp636
a(I7
I8
tp637
a(I2
I4
tp638
atp639
Rp640
sg15
I12
sg29
g20
((lp641
(I1
I2
tp642
a(I0
I1
tp643
a(I5
I4
tp644
a(I5
I7
tp645
a(I10
I4
tp646
a(I7
I1
tp647
a(I3
I1
tp648
a(I10
I5
tp649
a(I4
I7
tp650
a(I9
I9
tp651
a(I0
I10
tp652
a(I4
I3
tp653
a(I8
I12
tp654
a(I4
I1
tp655
a(I0
I2
tp656
atp657
Rp658
sg13
((I7
I10
tp659
(I6
I12
tp660
(I2
I0
tp661
(I9
I1
tp662
(I10
I3
tp663
(I4
I0
tp664
tp665
sg14
I13
sbs(iproblems
RoomID
p666
(dp667
g10
I15
sg11
(I5
I8
tp668
sg13
I7
sg14
I13
sg15
I11
sg16
I8655808914197340073
sb(imulti_robot_problem
MultiRobotState
p669
(dp670
g19
g20
((lp671
(I5
I9
tp672
a(I6
I7
tp673
a(I6
I11
tp674
a(I1
I4
tp675
a(I0
I12
tp676
a(I0
I11
tp677
a(I7
I5
tp678
a(I1
I6
tp679
a(I0
I4
tp680
a(I5
I10
tp681
a(I3
I9
tp682
a(I4
I9
tp683
a(I10
I3
tp684
ag668
atp685
Rp686
sg15
I11
sg29
g20
((lp687
(I2
I7
tp688
a(I7
I3
tp689
a(I4
I6
tp690
a(I1
I12
tp691
a(I5
I6
tp692
a(I8
I5
tp693
a(I7
I7
tp694
a(I7
I9
tp695
a(I2
I0
tp696
a(I9
I4
tp697
a(I7
I10
tp698
a(I0
I8
tp699
a(I9
I6
tp700
a(I6
I5
tp701
a(I9
I7
tp702
atp703
Rp704
sg13
((I9
I11
tp705
(I8
I1
tp706
(I3
I4
tp707
(I8
I7
tp708
(I9
I1
tp709
(I2
I10
tp710
(I2
I12
tp711
tp712
sg14
I13
sbssg161
S'heavy_roomset'
p713
sbsg161
g163
sg164
(dp714
g472
((lp715
F41.389999999999418
tp716
sg522
((lp717
(F10.790000000000873
I13
tp718
aF40.029999999998836
tp719
sg621
((lp720
(F18.510000000002037
I15
tp721
aF42.200000000000728
tp722
sg561
((lp723
F40.450000000000728
tp724
sg666
((lp725
F42.630000000001019
tp726
ssba(imeasure_core
ProblemSetSolution
p727
(dp728
g3
g4
sg161
S"AnytimeBeam-w15-gf(1.3, 'exp')_with_PowerHeuristic2"
p729
sg164
(dp730
g8
((lp731
(F0.4500000000007276
I10
tp732
aF40.290000000000873
tp733
sg44
((lp734
(F0.30999999999767169
I14
tp735
aF40.369999999998981
tp736
sg71
((lp737
(F0.079999999998108251
I49
tp738
a(F0.65999999999985448
I47
tp739
a(F0.86999999999898137
I45
tp740
a(F1.1300000000010186
I43
tp741
a(F1.9399999999986903
I41
tp742
a(F2.3699999999989814
I40
tp743
a(F3.3800000000010186
I39
tp744
a(F4.2799999999988358
I38
tp745
a(F5.5400000000008731
I37
tp746
a(F6.7099999999991269
I35
tp747
a(F8.3499999999985448
I33
tp748
a(F10.68999999999869
I31
tp749
a(F12.639999999999418
I29
tp750
a(F14.200000000000728
I27
tp751
a(F16.18999999999869
I25
tp752
a(F20.529999999998836
I24
tp753
a(F24.419999999998254
I22
tp754
a(F27.709999999999127
I20
tp755
aF40.0
tp756
sg96
((lp757
(F4.5
I144
tp758
aF40.049999999999272
tp759
sg127
((lp760
(F1.4799999999995634
I9
tp761
aF40.090000000000146
tp762
ssba(imeasure_core
ProblemSetSolution
p763
(dp764
g3
g201
sg161
g729
sg164
(dp765
g204
((lp766
(F3.6599999999998545
I60
tp767
a(F7.7700000000004366
I55
tp768
a(F19.640000000003056
I32
tp769
aF40.120000000002619
tp770
sg252
((lp771
(F10.879999999997381
I171
tp772
aF40.020000000000437
tp773
sg302
((lp774
(F0.81999999999970896
I25
tp775
aF40.0
tp776
sg346
((lp777
F40.0
tp778
sg405
((lp779
(F1.3499999999985448
I28
tp780
aF40.019999999996799
tp781
ssba(imeasure_core
ProblemSetSolution
p782
(dp783
g3
g469
sg161
g729
sg164
(dp784
g472
((lp785
F41.369999999998981
tp786
sg522
((lp787
(F12.389999999999418
I13
tp788
aF40.780000000002474
tp789
sg621
((lp790
(F21.040000000000873
I15
tp791
aF40.069999999999709
tp792
sg561
((lp793
F40.379999999997381
tp794
sg666
((lp795
F42.659999999999854
tp796
ssba(imeasure_core
ProblemSetSolution
p797
(dp798
g3
g4
sg161
S"AnytimeBeam-w25-gf(1.3, 'exp')_with_PowerHeuristic2"
p799
sg164
(dp800
g8
((lp801
(F0.5
I10
tp802
aF40.110000000000582
tp803
sg44
((lp804
(F0.36000000000058208
I14
tp805
aF40.150000000001455
tp806
sg71
((lp807
(F0.11000000000058208
I49
tp808
a(F0.2999999999992724
I47
tp809
a(F0.50999999999839929
I45
tp810
a(F0.77999999999883585
I43
tp811
a(F1.569999999999709
I41
tp812
a(F2.0099999999983993
I40
tp813
a(F3.0200000000004366
I39
tp814
a(F3.9199999999982538
I38
tp815
a(F5.180000000000291
I37
tp816
a(F6.3499999999985448
I35
tp817
a(F8.0
I33
tp818
a(F10.349999999998545
I31
tp819
a(F12.319999999999709
I29
tp820
a(F13.889999999999418
I27
tp821
a(F15.889999999999418
I25
tp822
a(F20.25
I24
tp823
a(F24.119999999998981
I22
tp824
a(F27.399999999997817
I20
tp825
aF40.0
tp826
sg96
((lp827
(F5.2000000000007276
I144
tp828
aF40.049999999999272
tp829
sg127
((lp830
(F1.5499999999992724
I9
tp831
aF40.259999999998399
tp832
ssba(imeasure_core
ProblemSetSolution
p833
(dp834
g3
g201
sg161
g799
sg164
(dp835
g204
((lp836
(F3.9599999999991269
I55
tp837
a(F15.520000000000437
I32
tp838
aF40.0
tp839
sg252
((lp840
(F12.599999999998545
I171
tp841
aF40.169999999998254
tp842
sg302
((lp843
(F0.99000000000160071
I25
tp844
aF40.06000000000131
tp845
sg346
((lp846
F40.009999999998399
tp847
sg405
((lp848
(F1.4500000000007276
I28
tp849
aF40.260000000002037
tp850
ssba(imeasure_core
ProblemSetSolution
p851
(dp852
g3
g469
sg161
g799
sg164
(dp853
g472
((lp854
F41.489999999997963
tp855
sg522
((lp856
(F12.56000000000131
I13
tp857
aF40.080000000001746
tp858
sg621
((lp859
(F21.159999999999854
I15
tp860
aF41.129999999997381
tp861
sg561
((lp862
F40.380000000001019
tp863
sg666
((lp864
F42.770000000000437
tp865
ssba(imeasure_core
ProblemSetSolution
p866
(dp867
g3
g4
sg161
S"AnytimeBeam-w35-gf(1.3, 'exp')_with_PowerHeuristic2"
p868
sg164
(dp869
g8
((lp870
(F0.5499999999992724
I10
tp871
aF40.200000000000728
tp872
sg44
((lp873
(F0.41999999999825377
I14
tp874
aF40.009999999998399
tp875
sg71
((lp876
(F0.11000000000058208
I49
tp877
a(F0.31999999999970896
I47
tp878
a(F0.52999999999883585
I45
tp879
a(F0.79000000000087311
I43
tp880
a(F1.2299999999995634
I41
tp881
a(F1.6599999999998545
I40
tp882
a(F2.6699999999982538
I39
tp883
a(F3.569999999999709
I38
tp884
a(F4.8299999999981083
I37
tp885
a(F6.0
I35
tp886
a(F7.6399999999994179
I33
tp887
a(F9.9799999999995634
I31
tp888
a(F11.93999999999869
I29
tp889
a(F13.509999999998399
I27
tp890
a(F15.490000000001601
I25
tp891
a(F19.81000000000131
I24
tp892
a(F23.68999999999869
I22
tp893
a(F26.979999999999563
I20
tp894
aF40.0
tp895
sg96
((lp896
(F5.7099999999991269
I144
tp897
aF40.200000000000728
tp898
sg127
((lp899
(F1.6599999999998545
I9
tp900
aF40.020000000000437
tp901
ssba(imeasure_core
ProblemSetSolution
p902
(dp903
g3
g201
sg161
g868
sg164
(dp904
g204
((lp905
(F5.8099999999976717
I55
tp906
a(F11.879999999997381
I32
tp907
aF40.0
tp908
sg252
((lp909
(F14.129999999997381
I171
tp910
aF40.129999999997381
tp911
sg302
((lp912
(F1.1599999999998545
I25
tp913
aF40.180000000000291
tp914
sg346
((lp915
F40.010000000002037
tp916
sg405
((lp917
(F1.5799999999981083
I28
tp918
aF40.25
tp919
ssba(imeasure_core
ProblemSetSolution
p920
(dp921
g3
g469
sg161
g868
sg164
(dp922
g472
((lp923
F41.389999999999418
tp924
sg522
((lp925
(F13.31000000000131
I13
tp926
aF41.139999999999418
tp927
sg621
((lp928
(F22.329999999998108
I15
tp929
aF40.930000000000291
tp930
sg561
((lp931
F40.420000000001892
tp932
sg666
((lp933
F42.680000000000291
tp934
ssba(imeasure_core
ProblemSetSolution
p935
(dp936
g3
g4
sg161
S"AnytimeBeam-w45-gf(1.3, 'exp')_with_PowerHeuristic2"
p937
sg164
(dp938
g8
((lp939
(F0.59000000000014552
I10
tp940
aF40.209999999999127
tp941
sg44
((lp942
(F0.4500000000007276
I14
tp943
aF40.270000000000437
tp944
sg71
((lp945
(F0.11000000000058208
I49
tp946
a(F0.31999999999970896
I47
tp947
a(F0.53000000000247383
I45
tp948
a(F0.80000000000291038
I43
tp949
a(F1.2400000000016007
I41
tp950
a(F1.6599999999998545
I40
tp951
a(F2.6700000000018917
I39
tp952
a(F3.5600000000013097
I38
tp953
a(F4.819999999999709
I37
tp954
a(F5.9900000000016007
I35
tp955
a(F7.6300000000010186
I33
tp956
a(F9.9600000000027649
I31
tp957
a(F11.930000000000291
I29
tp958
a(F13.490000000001601
I27
tp959
a(F15.490000000001601
I25
tp960
a(F19.830000000001746
I24
tp961
a(F23.710000000002765
I22
tp962
a(F26.990000000001601
I20
tp963
aF40.0
tp964
sg96
((lp965
(F6.1100000000005821
I144
tp966
aF40.069999999999709
tp967
sg127
((lp968
(F1.7200000000011642
I9
tp969
aF41.350000000002183
tp970
ssba(imeasure_core
ProblemSetSolution
p971
(dp972
g3
g201
sg161
g937
sg164
(dp973
g204
((lp974
(F6.0100000000020373
I32
tp975
aF40.010000000002037
tp976
sg252
((lp977
(F14.629999999997381
I171
tp978
aF40.0
tp979
sg302
((lp980
(F1.319999999999709
I25
tp981
aF40.129999999997381
tp982
sg346
((lp983
F40.040000000000873
tp984
sg405
((lp985
(F1.6399999999994179
I28
tp986
aF40.170000000001892
tp987
ssba(imeasure_core
ProblemSetSolution
p988
(dp989
g3
g469
sg161
g937
sg164
(dp990
g472
((lp991
F41.470000000001164
tp992
sg522
((lp993
(F13.409999999999854
I13
tp994
aF40.520000000000437
tp995
sg621
((lp996
(F22.700000000000728
I15
tp997
aF40.430000000000291
tp998
sg561
((lp999
F40.049999999999272
tp1000
sg666
((lp1001
F42.610000000000582
tp1002
ssba(imeasure_core
ProblemSetSolution
p1003
(dp1004
g3
g4
sg161
S"AnytimeBeam-w5-gf(1.3, 'exp')_with_LinearHeuristic"
p1005
sg164
(dp1006
g8
((lp1007
F40.090000000000146
tp1008
sg44
((lp1009
F40.0
tp1010
sg71
((lp1011
(F0.029999999998835847
I22
tp1012
a(F0.50999999999839929
I20
tp1013
aF40.0
tp1014
sg96
((lp1015
(F1.2599999999983993
I58
tp1016
aF40.109999999996944
tp1017
sg127
((lp1018
(F1.25
I6
tp1019
aF40.170000000001892
tp1020
ssba(imeasure_core
ProblemSetSolution
p1021
(dp1022
g3
g201
sg161
g1005
sg164
(dp1023
g204
((lp1024
F40.200000000000728
tp1025
sg252
((lp1026
F40.049999999999272
tp1027
sg302
((lp1028
F40.010000000002037
tp1029
sg346
((lp1030
F40.020000000000437
tp1031
sg405
((lp1032
(F23.610000000000582
I146
tp1033
aF40.039999999997235
tp1034
ssba(imeasure_core
ProblemSetSolution
p1035
(dp1036
g3
g469
sg161
g1005
sg164
(dp1037
g472
((lp1038
F46.570000000003347
tp1039
sg522
((lp1040
(F10.069999999999709
I8
tp1041
aF40.159999999999854
tp1042
sg621
((lp1043
F40.229999999999563
tp1044
sg561
((lp1045
F40.059999999997672
tp1046
sg666
((lp1047
F44.670000000001892
tp1048
ssba(imeasure_core
ProblemSetSolution
p1049
(dp1050
g3
g4
sg161
S"AnytimeBeam-w15-gf(1.3, 'exp')_with_LinearHeuristic"
p1051
sg164
(dp1052
g8
((lp1053
F40.049999999999272
tp1054
sg44
((lp1055
F40.459999999999127
tp1056
sg71
((lp1057
(F0.020000000000436557
I22
tp1058
a(F0.5499999999992724
I20
tp1059
aF40.0
tp1060
sg96
((lp1061
(F1.0600000000013097
I58
tp1062
aF40.010000000002037
tp1063
sg127
((lp1064
(F1.75
I6
tp1065
aF40.289999999997235
tp1066
ssba(imeasure_core
ProblemSetSolution
p1067
(dp1068
g3
g201
sg161
g1051
sg164
(dp1069
g204
((lp1070
F40.149999999997817
tp1071
sg252
((lp1072
F40.420000000001892
tp1073
sg302
((lp1074
F40.090000000000146
tp1075
sg346
((lp1076
F40.069999999999709
tp1077
sg405
((lp1078
(F14.349999999998545
I146
tp1079
aF40.169999999998254
tp1080
ssba(imeasure_core
ProblemSetSolution
p1081
(dp1082
g3
g469
sg161
g1051
sg164
(dp1083
g472
((lp1084
F47.230000000003201
tp1085
sg522
((lp1086
(F11.209999999999127
I8
tp1087
aF41.409999999999854
tp1088
sg621
((lp1089
F40.020000000000437
tp1090
sg561
((lp1091
F40.5
tp1092
sg666
((lp1093
F45.209999999999127
tp1094
ssba(imeasure_core
ProblemSetSolution
p1095
(dp1096
g3
g4
sg161
S"AnytimeBeam-w25-gf(1.3, 'exp')_with_LinearHeuristic"
p1097
sg164
(dp1098
g8
((lp1099
(F38.25
I198
tp1100
aF40.010000000002037
tp1101
sg44
((lp1102
F40.259999999998399
tp1103
sg71
((lp1104
(F0.020000000000436557
I22
tp1105
a(F0.38999999999941792
I20
tp1106
aF40.0
tp1107
sg96
((lp1108
(F1.1399999999994179
I58
tp1109
a(F33.450000000000728
I56
tp1110
aF40.099999999998545
tp1111
sg127
((lp1112
(F2.0
I6
tp1113
aF40.450000000000728
tp1114
ssba(imeasure_core
ProblemSetSolution
p1115
(dp1116
g3
g201
sg161
g1097
sg164
(dp1117
g204
((lp1118
F40.029999999998836
tp1119
sg252
((lp1120
F40.069999999999709
tp1121
sg302
((lp1122
F40.040000000000873
tp1123
sg346
((lp1124
F40.209999999999127
tp1125
sg405
((lp1126
(F15.830000000001746
I146
tp1127
aF40.020000000000437
tp1128
ssba(imeasure_core
ProblemSetSolution
p1129
(dp1130
g3
g469
sg161
g1097
sg164
(dp1131
g472
((lp1132
F47.909999999999854
tp1133
sg522
((lp1134
(F11.55000000000291
I8
tp1135
aF40.580000000001746
tp1136
sg621
((lp1137
F40.0
tp1138
sg561
((lp1139
F40.490000000001601
tp1140
sg666
((lp1141
F45.229999999999563
tp1142
ssba(imeasure_core
ProblemSetSolution
p1143
(dp1144
g3
g4
sg161
S"AnytimeBeam-w35-gf(1.3, 'exp')_with_LinearHeuristic"
p1145
sg164
(dp1146
g8
((lp1147
F40.209999999999127
tp1148
sg44
((lp1149
F40.180000000000291
tp1150
sg71
((lp1151
(F0.020000000000436557
I22
tp1152
a(F0.13999999999941792
I20
tp1153
aF40.0
tp1154
sg96
((lp1155
(F1.25
I58
tp1156
a(F37.100000000002183
I56
tp1157
aF40.0
tp1158
sg127
((lp1159
(F2.2999999999992724
I6
tp1160
aF40.370000000002619
tp1161
ssba(imeasure_core
ProblemSetSolution
p1162
(dp1163
g3
g201
sg161
g1145
sg164
(dp1164
g204
((lp1165
F40.009999999998399
tp1166
sg252
((lp1167
F40.330000000001746
tp1168
sg302
((lp1169
F40.029999999998836
tp1170
sg346
((lp1171
F40.079999999998108
tp1172
sg405
((lp1173
(F17.850000000002183
I146
tp1174
aF40.0
tp1175
ssba(imeasure_core
ProblemSetSolution
p1176
(dp1177
g3
g469
sg161
g1145
sg164
(dp1178
g472
((lp1179
F49.029999999998836
tp1180
sg522
((lp1181
(F12.340000000000146
I8
tp1182
aF40.400000000001455
tp1183
sg621
((lp1184
F40.029999999998836
tp1185
sg561
((lp1186
F40.68999999999869
tp1187
sg666
((lp1188
F45.520000000000437
tp1189
ssba(imeasure_core
ProblemSetSolution
p1190
(dp1191
g3
g4
sg161
S"AnytimeBeam-w45-gf(1.3, 'exp')_with_LinearHeuristic"
p1192
sg164
(dp1193
g8
((lp1194
F40.330000000001746
tp1195
sg44
((lp1196
F40.479999999999563
tp1197
sg71
((lp1198
(F0.020000000000436557
I22
tp1199
a(F0.15000000000145519
I20
tp1200
aF40.0
tp1201
sg96
((lp1202
(F1.2999999999992724
I58
tp1203
a(F35.829999999998108
I56
tp1204
aF40.090000000000146
tp1205
sg127
((lp1206
(F2.3999999999978172
I6
tp1207
aF40.200000000000728
tp1208
ssba(imeasure_core
ProblemSetSolution
p1209
(dp1210
g3
g201
sg161
g1192
sg164
(dp1211
g204
((lp1212
F40.509999999998399
tp1213
sg252
((lp1214
F40.06000000000131
tp1215
sg302
((lp1216
F40.169999999998254
tp1217
sg346
((lp1218
F40.06000000000131
tp1219
sg405
((lp1220
(F18.849999999998545
I146
tp1221
aF40.0
tp1222
ssba(imeasure_core
ProblemSetSolution
p1223
(dp1224
g3
g469
sg161
g1192
sg164
(dp1225
g472
((lp1226
F49.459999999999127
tp1227
sg522
((lp1228
(F12.68999999999869
I8
tp1229
aF40.68999999999869
tp1230
sg621
((lp1231
F40.169999999998254
tp1232
sg561
((lp1233
F40.670000000001892
tp1234
sg666
((lp1235
F45.710000000002765
tp1236
ssba.