(lp0
(imeasure_core
ProblemSetSolution
p1
(dp2
S'roomset'
p3
(imeasure_core
RoomSet
p4
(dp5
S'rooms'
p6
(dp7
(iproblems
RoomID
p8
(dp9
S'dusts'
p10
I6
sS'obstacles'
p11
(I3
I2
tp12
sS'robots'
p13
I1
sS'height'
p14
I9
sS'width'
p15
I10
sS'seed'
p16
I6832892905590973747
sb(imulti_robot_problem
MultiRobotState
p17
(dp18
S'obstacle_locations'
p19
c__builtin__
frozenset
p20
((lp21
(I3
I0
tp22
a(I2
I0
tp23
ag12
a(I3
I1
tp24
atp25
Rp26
sg15
I10
sS'dirt_locations'
p27
g20
((lp28
(I1
I2
tp29
a(I2
I7
tp30
a(I0
I0
tp31
a(I0
I5
tp32
a(I5
I6
tp33
a(I0
I2
tp34
atp35
Rp36
sg13
((I8
I4
tp37
tp38
sg14
I9
sbs(iproblems
RoomID
p39
(dp40
g10
I7
sg11
(I3
I5
tp41
sg13
I5
sg14
I7
sg15
I9
sg16
I6924344268699531175
sb(imulti_robot_problem
MultiRobotState
p42
(dp43
g19
g20
((lp44
(I2
I6
tp45
a(I1
I6
tp46
a(I3
I6
tp47
ag41
atp48
Rp49
sg15
I9
sg27
g20
((lp50
(I1
I2
tp51
a(I0
I0
tp52
a(I5
I0
tp53
a(I7
I1
tp54
a(I8
I6
tp55
a(I3
I4
tp56
a(I6
I5
tp57
atp58
Rp59
sg13
((I4
I0
tp60
(I7
I2
tp61
(I1
I1
tp62
(I6
I1
tp63
(I8
I4
tp64
tp65
sg14
I7
sbs(iproblems
RoomID
p66
(dp67
g10
I6
sg11
(I3
I1
tp68
sg13
I4
sg14
I8
sg15
I7
sg16
I807570059310326234
sb(imulti_robot_problem
MultiRobotState
p69
(dp70
g19
g20
((lp71
(I6
I3
tp72
a(I4
I2
tp73
ag68
a(I5
I3
tp74
atp75
Rp76
sg15
I7
sg27
g20
((lp77
(I3
I2
tp78
a(I6
I7
tp79
a(I4
I6
tp80
a(I0
I4
tp81
a(I1
I0
tp82
a(I5
I2
tp83
atp84
Rp85
sg13
((I1
I2
tp86
(I0
I1
tp87
(I3
I7
tp88
(I2
I4
tp89
tp90
sg14
I8
sbs(iproblems
RoomID
p91
(dp92
g10
I8
sg11
(I5
I0
tp93
sg13
I4
sg14
I10
sg15
I10
sg16
I3562373307524659409
sb(imulti_robot_problem
MultiRobotState
p94
(dp95
g19
g20
((lp96
(I6
I3
tp97
a(I6
I7
tp98
ag93
a(I3
I6
tp99
a(I8
I1
tp100
a(I7
I0
tp101
a(I6
I0
tp102
atp103
Rp104
sg15
I10
sg27
g20
((lp105
(I1
I3
tp106
a(I2
I9
tp107
a(I7
I6
tp108
a(I7
I7
tp109
a(I8
I9
tp110
a(I1
I8
tp111
a(I1
I6
tp112
a(I2
I2
tp113
atp114
Rp115
sg13
((I9
I8
tp116
(I6
I5
tp117
(I5
I1
tp118
(I8
I8
tp119
tp120
sg14
I10
sbs(iproblems
RoomID
p121
(dp122
g10
I5
sg11
(I4
I7
tp123
sg13
I3
sg14
I9
sg15
I7
sg16
I2524308075868763041
sb(imulti_robot_problem
MultiRobotState
p124
(dp125
g19
g20
((lp126
(I1
I2
tp127
a(I3
I8
tp128
ag123
a(I4
I6
tp129
a(I4
I1
tp130
a(I2
I4
tp131
a(I3
I5
tp132
atp133
Rp134
sg15
I7
sg27
g20
((lp135
(I2
I6
tp136
a(I5
I2
tp137
a(I3
I3
tp138
a(I0
I7
tp139
a(I3
I6
tp140
atp141
Rp142
sg13
((I0
I6
tp143
(I3
I1
tp144
(I4
I8
tp145
tp146
sg14
I9
sbssS'name'
p147
S'easy_roomset'
p148
sbsg147
S"AnytimeBeam-w20-gf(2, 'lin')_with_PowerHeuristic2"
p149
sS'solutions'
p150
(dp151
g8
((lp152
(F0.1599999999962165
I50
tp153
a(F1.2699999999967986
I44
tp154
a(F15.909999999996217
I43
tp155
a(F16.82999999999447
I42
tp156
a(F17.759999999994761
I38
tp157
a(F38.599999999998545
I37
tp158
aF40.0
tp159
sg39
((lp160
(F2.0599999999976717
I7
tp161
aF40.689999999995052
tp162
sg66
((lp163
F40.120000000002619
tp164
sg91
((lp165
(F0.5
I10
tp166
aF40.059999999997672
tp167
sg121
((lp168
(F0.059999999997671694
I7
tp169
aF40.029999999998836
tp170
ssba(imeasure_core
ProblemSetSolution
p171
(dp172
g3
(imeasure_core
RoomSet
p173
(dp174
g6
(dp175
(iproblems
RoomID
p176
(dp177
g10
I6
sg11
(I6
I2
tp178
sg13
I3
sg14
I11
sg15
I12
sg16
I6832892905590973747
sb(imulti_robot_problem
MultiRobotState
p179
(dp180
g19
g20
((lp181
(I6
I4
tp182
a(I2
I6
tp183
a(I4
I3
tp184
a(I3
I0
tp185
a(I2
I8
tp186
a(I7
I7
tp187
a(I7
I5
tp188
a(I4
I2
tp189
a(I5
I3
tp190
a(I4
I1
tp191
a(I7
I6
tp192
a(I6
I3
tp193
a(I4
I5
tp194
ag178
a(I3
I6
tp195
a(I8
I6
tp196
a(I4
I0
tp197
a(I5
I2
tp198
a(I2
I4
tp199
atp200
Rp201
sg15
I12
sg27
g20
((lp202
(I1
I6
tp203
a(I6
I8
tp204
a(I2
I9
tp205
a(I0
I3
tp206
a(I0
I2
tp207
a(I7
I9
tp208
atp209
Rp210
sg13
((I10
I6
tp211
(I1
I2
tp212
(I0
I0
tp213
tp214
sg14
I11
sbs(iproblems
RoomID
p215
(dp216
g10
I7
sg11
(I3
I1
tp217
sg13
I4
sg14
I9
sg15
I11
sg16
I6924344268699531175
sb(imulti_robot_problem
MultiRobotState
p218
(dp219
g19
g20
((lp220
(I4
I7
tp221
ag217
a(I6
I6
tp222
a(I5
I6
tp223
a(I2
I8
tp224
a(I9
I8
tp225
a(I7
I7
tp226
a(I0
I7
tp227
a(I7
I5
tp228
a(I8
I7
tp229
a(I0
I3
tp230
a(I0
I8
tp231
a(I8
I5
tp232
a(I6
I3
tp233
a(I5
I2
tp234
a(I7
I6
tp235
a(I4
I8
tp236
a(I7
I4
tp237
a(I3
I8
tp238
a(I0
I6
tp239
a(I8
I8
tp240
a(I4
I1
tp241
a(I9
I7
tp242
atp243
Rp244
sg15
I11
sg27
g20
((lp245
(I8
I3
tp246
a(I1
I3
tp247
a(I4
I6
tp248
a(I4
I3
tp249
a(I0
I4
tp250
a(I10
I5
tp251
a(I0
I0
tp252
atp253
Rp254
sg13
((I6
I0
tp255
(I9
I3
tp256
(I1
I1
tp257
(I8
I1
tp258
tp259
sg14
I9
sbs(iproblems
RoomID
p260
(dp261
g10
I8
sg11
(I11
I7
tp262
sg13
I4
sg14
I12
sg15
I12
sg16
I3562373307524659409
sb(imulti_robot_problem
MultiRobotState
p263
(dp264
g19
g20
((lp265
(I6
I4
tp266
a(I6
I9
tp267
a(I3
I2
tp268
a(I9
I1
tp269
a(I6
I6
tp270
a(I5
I6
tp271
a(I9
I8
tp272
a(I3
I11
tp273
a(I7
I1
tp274
ag262
a(I8
I9
tp275
a(I3
I9
tp276
a(I11
I8
tp277
a(I10
I2
tp278
a(I4
I2
tp279
a(I7
I2
tp280
a(I10
I8
tp281
a(I8
I3
tp282
a(I8
I1
tp283
a(I3
I10
tp284
a(I5
I11
tp285
a(I6
I3
tp286
a(I6
I11
tp287
a(I6
I5
tp288
a(I7
I10
tp289
a(I4
I8
tp290
a(I11
I6
tp291
a(I4
I11
tp292
atp293
Rp294
sg15
I12
sg27
g20
((lp295
(I7
I3
tp296
a(I1
I3
tp297
a(I10
I11
tp298
a(I1
I7
tp299
a(I8
I8
tp300
a(I2
I2
tp301
a(I3
I7
tp302
a(I7
I9
tp303
atp304
Rp305
sg13
((I11
I10
tp306
(I7
I6
tp307
(I10
I10
tp308
(I2
I10
tp309
tp310
sg14
I12
sbs(iproblems
RoomID
p311
(dp312
g10
I6
sg11
(I2
I5
tp313
sg13
I4
sg14
I10
sg15
I9
sg16
I807570059310326234
sb(imulti_robot_problem
MultiRobotState
p314
(dp315
g19
g20
((lp316
(I6
I4
tp317
a(I3
I2
tp318
a(I1
I3
tp319
a(I8
I2
tp320
a(I2
I3
tp321
a(I3
I8
tp322
ag313
a(I1
I0
tp323
a(I1
I2
tp324
a(I7
I4
tp325
a(I4
I1
tp326
a(I3
I3
tp327
a(I3
I4
tp328
a(I1
I1
tp329
a(I6
I3
tp330
a(I2
I0
tp331
a(I1
I8
tp332
a(I2
I2
tp333
a(I5
I2
tp334
a(I0
I2
tp335
a(I8
I4
tp336
atp337
Rp338
sg15
I9
sg27
g20
((lp339
(I7
I3
tp340
a(I2
I6
tp341
a(I1
I6
tp342
a(I4
I2
tp343
a(I5
I8
tp344
a(I7
I9
tp345
atp346
Rp347
sg13
((I6
I2
tp348
(I0
I1
tp349
(I3
I9
tp350
(I3
I5
tp351
tp352
sg14
I10
sbs(iproblems
RoomID
p353
(dp354
g10
I10
sg11
(I6
I8
tp355
sg13
I3
sg14
I11
sg15
I10
sg16
I7391799147228763464
sb(imulti_robot_problem
MultiRobotState
p356
(dp357
g19
g20
((lp358
(I5
I9
tp359
a(I4
I7
tp360
a(I4
I6
tp361
a(I4
I8
tp362
a(I4
I5
tp363
a(I6
I9
tp364
a(I0
I7
tp365
a(I1
I4
tp366
a(I3
I7
tp367
a(I5
I8
tp368
ag355
a(I2
I7
tp369
a(I3
I8
tp370
a(I4
I9
tp371
a(I3
I3
tp372
a(I9
I2
tp373
a(I6
I3
tp374
a(I3
I6
tp375
a(I1
I7
tp376
a(I0
I9
tp377
a(I7
I8
tp378
a(I0
I2
tp379
a(I1
I9
tp380
atp381
Rp382
sg15
I10
sg27
g20
((lp383
(I8
I3
tp384
a(I5
I10
tp385
a(I5
I5
tp386
a(I2
I8
tp387
a(I7
I6
tp388
a(I6
I0
tp389
a(I2
I10
tp390
a(I9
I4
tp391
a(I1
I10
tp392
a(I0
I3
tp393
atp394
Rp395
sg13
((I3
I10
tp396
(I7
I1
tp397
(I1
I5
tp398
tp399
sg14
I11
sbssg147
S'mild_roomset'
p400
sbsg147
g149
sg150
(dp401
g176
((lp402
(F0.13000000000465661
I10
tp403
aF40.029999999998836
tp404
sg215
((lp405
(F5.25
I79
tp406
aF40.010000000002037
tp407
sg260
((lp408
(F3.0600000000049477
I75
tp409
aF40.040000000000873
tp410
sg311
((lp411
(F5.3300000000017462
I108
tp412
aF40.010000000002037
tp413
sg353
((lp414
(F0.54000000000087311
I36
tp415
aF40.069999999999709
tp416
ssba(imeasure_core
ProblemSetSolution
p417
(dp418
g3
(imeasure_core
RoomSet
p419
(dp420
g6
(dp421
(iproblems
RoomID
p422
(dp423
g10
I11
sg11
(I4
I2
tp424
sg13
I5
sg14
I12
sg15
I13
sg16
I6832892905590973747
sb(imulti_robot_problem
MultiRobotState
p425
(dp426
g19
g20
((lp427
(I5
I9
tp428
a(I6
I9
tp429
a(I8
I2
tp430
a(I3
I0
tp431
a(I3
I4
tp432
a(I12
I11
tp433
ag424
a(I4
I1
tp434
a(I4
I0
tp435
atp436
Rp437
sg15
I13
sg27
g20
((lp438
(I2
I7
tp439
a(I9
I0
tp440
a(I6
I8
tp441
a(I4
I5
tp442
a(I2
I8
tp443
a(I8
I10
tp444
a(I2
I10
tp445
a(I1
I7
tp446
a(I3
I7
tp447
a(I2
I5
tp448
a(I0
I8
tp449
atp450
Rp451
sg13
((I11
I6
tp452
(I1
I2
tp453
(I1
I0
tp454
(I0
I3
tp455
(I0
I2
tp456
tp457
sg14
I12
sbs(iproblems
RoomID
p458
(dp459
g10
I12
sg11
(I6
I7
tp460
sg13
I7
sg14
I10
sg15
I12
sg16
I6924344268699531175
sb(imulti_robot_problem
MultiRobotState
p461
(dp462
g19
g20
((lp463
(I4
I7
tp464
ag460
a(I2
I9
tp465
a(I4
I8
tp466
a(I9
I6
tp467
a(I5
I7
tp468
a(I0
I6
tp469
a(I3
I9
tp470
a(I0
I9
tp471
a(I4
I9
tp472
a(I4
I1
tp473
atp474
Rp475
sg15
I12
sg27
g20
((lp476
(I7
I3
tp477
a(I5
I4
tp478
a(I1
I3
tp479
a(I9
I1
tp480
a(I8
I3
tp481
a(I0
I7
tp482
a(I8
I8
tp483
a(I0
I0
tp484
a(I0
I4
tp485
a(I0
I8
tp486
a(I11
I6
tp487
a(I9
I7
tp488
atp489
Rp490
sg13
((I6
I0
tp491
(I10
I4
tp492
(I1
I1
tp493
(I8
I2
tp494
(I11
I5
tp495
(I5
I6
tp496
(I10
I9
tp497
tp498
sg14
I10
sbs(iproblems
RoomID
p499
(dp500
g10
I11
sg11
(I5
I1
tp501
sg13
I7
sg14
I11
sg15
I10
sg16
I807570059310326234
sb(imulti_robot_problem
MultiRobotState
p502
(dp503
g19
g20
((lp504
(I7
I3
tp505
a(I4
I6
tp506
a(I7
I4
tp507
a(I6
I2
tp508
a(I1
I9
tp509
a(I9
I4
tp510
ag501
a(I0
I3
tp511
a(I5
I2
tp512
a(I8
I4
tp513
atp514
Rp515
sg15
I10
sg27
g20
((lp516
(I5
I9
tp517
a(I6
I9
tp518
a(I2
I9
tp519
a(I4
I8
tp520
a(I9
I2
tp521
a(I2
I0
tp522
a(I1
I6
tp523
a(I9
I5
tp524
a(I4
I2
tp525
a(I1
I0
tp526
a(I3
I5
tp527
atp528
Rp529
sg13
((I1
I3
tp530
(I0
I2
tp531
(I4
I10
tp532
(I4
I5
tp533
(I8
I10
tp534
(I8
I3
tp535
(I2
I6
tp536
tp537
sg14
I11
sbs(iproblems
RoomID
p538
(dp539
g10
I15
sg11
(I4
I8
tp540
sg13
I6
sg14
I12
sg15
I11
sg16
I7391799147228763464
sb(imulti_robot_problem
MultiRobotState
p541
(dp542
g19
g20
((lp543
(I6
I4
tp544
a(I4
I7
tp545
ag540
a(I5
I6
tp546
a(I2
I8
tp547
a(I5
I7
tp548
a(I6
I9
tp549
a(I4
I2
tp550
a(I9
I2
tp551
a(I1
I6
tp552
a(I10
I7
tp553
a(I8
I6
tp554
a(I2
I4
tp555
atp556
Rp557
sg15
I11
sg27
g20
((lp558
(I7
I0
tp559
a(I10
I4
tp560
a(I6
I11
tp561
a(I7
I6
tp562
a(I1
I4
tp563
a(I8
I9
tp564
a(I1
I8
tp565
a(I3
I9
tp566
a(I0
I10
tp567
a(I9
I4
tp568
a(I7
I10
tp569
a(I1
I10
tp570
a(I4
I3
tp571
a(I0
I3
tp572
a(I0
I2
tp573
atp574
Rp575
sg13
((I4
I6
tp576
(I3
I11
tp577
(I7
I1
tp578
(I2
I5
tp579
(I5
I9
tp580
(I2
I11
tp581
tp582
sg14
I12
sbs(iproblems
RoomID
p583
(dp584
g10
I13
sg11
(I7
I4
tp585
sg13
I6
sg14
I13
sg15
I13
sg16
I3562373307524659409
sb(imulti_robot_problem
MultiRobotState
p586
(dp587
g19
g20
((lp588
(I7
I3
tp589
a(I5
I4
tp590
a(I4
I9
tp591
a(I9
I1
tp592
a(I5
I9
tp593
a(I8
I1
tp594
a(I11
I2
tp595
a(I9
I3
tp596
a(I3
I11
tp597
a(I11
I7
tp598
ag585
a(I10
I1
tp599
a(I3
I10
tp600
a(I10
I5
tp601
a(I8
I2
tp602
atp603
Rp604
sg15
I13
sg27
g20
((lp605
(I8
I3
tp606
a(I3
I12
tp607
a(I4
I8
tp608
a(I6
I10
tp609
a(I9
I9
tp610
a(I12
I6
tp611
a(I8
I9
tp612
a(I1
I8
tp613
a(I4
I3
tp614
a(I2
I2
tp615
a(I4
I2
tp616
a(I11
I12
tp617
a(I2
I4
tp618
atp619
Rp620
sg13
((I12
I11
tp621
(I7
I6
tp622
(I7
I1
tp623
(I10
I11
tp624
(I2
I11
tp625
(I9
I8
tp626
tp627
sg14
I13
sbssg147
S'heavy_roomset'
p628
sbsg147
g149
sg150
(dp629
g422
((lp630
(F7.25
I24
tp631
aF40.180000000000291
tp632
sg458
((lp633
F56.139999999999418
tp634
sg499
((lp635
F40.260000000002037
tp636
sg538
((lp637
(F36.110000000000582
I40
tp638
aF41.189999999995052
tp639
sg583
((lp640
(F21.459999999999127
I15
tp641
aF41.029999999998836
tp642
ssba(imeasure_core
ProblemSetSolution
p643
(dp644
g3
g4
sg147
S"AnytimeBeam-w20-gf(4, 'lin')_with_PowerHeuristic2"
p645
sg150
(dp646
g8
((lp647
(F0.16000000000349246
I50
tp648
a(F0.68000000000029104
I44
tp649
a(F7.9700000000011642
I43
tp650
a(F8.8900000000066939
I42
tp651
a(F9.819999999999709
I38
tp652
a(F20.200000000004366
I37
tp653
a(F21.75
I35
tp654
a(F23.020000000004075
I33
tp655
a(F23.980000000003201
I31
tp656
a(F25.740000000005239
I29
tp657
a(F28.340000000003783
I27
tp658
a(F34.580000000001746
I25
tp659
a(F39.110000000000582
I24
tp660
aF40.0
tp661
sg39
((lp662
(F2.0600000000049477
I7
tp663
aF40.30000000000291
tp664
sg66
((lp665
F40.120000000002619
tp666
sg91
((lp667
(F0.5
I10
tp668
aF40.009999999994761
tp669
sg121
((lp670
(F0.060000000004947651
I7
tp671
aF40.0
tp672
ssba(imeasure_core
ProblemSetSolution
p673
(dp674
g3
g173
sg147
g645
sg150
(dp675
g176
((lp676
(F0.13000000000465661
I10
tp677
aF40.0
tp678
sg215
((lp679
(F5.3000000000029104
I79
tp680
aF40.010000000002037
tp681
sg260
((lp682
(F3.0599999999976717
I75
tp683
aF40.069999999999709
tp684
sg311
((lp685
(F5.2700000000040745
I108
tp686
aF40.0
tp687
sg353
((lp688
(F0.54000000000087311
I36
tp689
aF40.010000000002037
tp690
ssba(imeasure_core
ProblemSetSolution
p691
(dp692
g3
g419
sg147
g645
sg150
(dp693
g422
((lp694
(F7.2399999999979627
I24
tp695
aF41.009999999994761
tp696
sg458
((lp697
F56.190000000002328
tp698
sg499
((lp699
F40.029999999998836
tp700
sg538
((lp701
(F36.080000000001746
I40
tp702
aF41.160000000003492
tp703
sg583
((lp704
(F21.459999999999127
I15
tp705
aF41.019999999996799
tp706
ssba(imeasure_core
ProblemSetSolution
p707
(dp708
g3
g4
sg147
S"AnytimeBeam-w20-gf(8, 'lin')_with_PowerHeuristic2"
p709
sg150
(dp710
g8
((lp711
(F0.16000000000349246
I50
tp712
a(F0.40000000000145519
I44
tp713
a(F4.0999999999985448
I43
tp714
a(F5.0200000000040745
I42
tp715
a(F5.930000000000291
I38
tp716
a(F10.30000000000291
I37
tp717
a(F11.870000000002619
I35
tp718
a(F13.139999999999418
I33
tp719
a(F14.110000000000582
I31
tp720
a(F15.900000000001455
I29
tp721
a(F18.5
I27
tp722
a(F22.0
I25
tp723
a(F26.489999999997963
I22
tp724
a(F29.110000000000582
I20
tp725
aF40.0
tp726
sg39
((lp727
(F2.0500000000029104
I7
tp728
aF40.260000000002037
tp729
sg66
((lp730
F40.059999999997672
tp731
sg91
((lp732
(F0.5
I10
tp733
aF40.0
tp734
sg121
((lp735
(F0.059999999997671694
I7
tp736
aF40.05000000000291
tp737
ssba(imeasure_core
ProblemSetSolution
p738
(dp739
g3
g173
sg147
g709
sg150
(dp740
g176
((lp741
(F0.13000000000465661
I10
tp742
aF40.030000000006112
tp743
sg215
((lp744
(F5.2799999999988358
I79
tp745
aF40.009999999994761
tp746
sg260
((lp747
(F3.069999999999709
I75
tp748
aF40.020000000004075
tp749
sg311
((lp750
(F5.25
I108
tp751
aF40.049999999995634
tp752
sg353
((lp753
(F0.55000000000291038
I36
tp754
aF40.069999999999709
tp755
ssba(imeasure_core
ProblemSetSolution
p756
(dp757
g3
g419
sg147
g709
sg150
(dp758
g422
((lp759
(F7.25
I24
tp760
aF40.230000000003201
tp761
sg458
((lp762
F56.19999999999709
tp763
sg499
((lp764
F40.029999999998836
tp765
sg538
((lp766
(F36.130000000004657
I40
tp767
aF41.209999999999127
tp768
sg583
((lp769
(F21.440000000002328
I15
tp770
aF41.069999999999709
tp771
ssba(imeasure_core
ProblemSetSolution
p772
(dp773
g3
g4
sg147
S"AnytimeBeam-w20-gf(16, 'lin')_with_PowerHeuristic2"
p774
sg150
(dp775
g8
((lp776
(F0.16000000000349246
I50
tp777
a(F0.42000000000552973
I44
tp778
a(F2.1300000000046566
I43
tp779
a(F3.0600000000049477
I42
tp780
a(F3.9600000000064028
I38
tp781
a(F5.5600000000049477
I37
tp782
a(F7.1400000000066939
I35
tp783
a(F8.3900000000066939
I33
tp784
a(F9.3800000000046566
I31
tp785
a(F11.180000000000291
I29
tp786
a(F13.80000000000291
I27
tp787
a(F17.319999999999709
I25
tp788
a(F21.819999999999709
I22
tp789
a(F24.460000000006403
I20
tp790
aF40.0
tp791
sg39
((lp792
(F2.0600000000049477
I7
tp793
aF40.010000000002037
tp794
sg66
((lp795
F40.130000000004657
tp796
sg91
((lp797
(F0.5
I10
tp798
aF40.029999999998836
tp799
sg121
((lp800
(F0.049999999995634425
I7
tp801
aF40.019999999996799
tp802
ssba(imeasure_core
ProblemSetSolution
p803
(dp804
g3
g173
sg147
g774
sg150
(dp805
g176
((lp806
(F0.11999999999534339
I10
tp807
aF40.029999999998836
tp808
sg215
((lp809
(F5.2600000000020373
I79
tp810
aF40.089999999996508
tp811
sg260
((lp812
(F3.0600000000049477
I75
tp813
aF40.070000000006985
tp814
sg311
((lp815
(F5.3099999999976717
I108
tp816
aF40.139999999999418
tp817
sg353
((lp818
(F0.54999999999563443
I36
tp819
aF40.0
tp820
ssba(imeasure_core
ProblemSetSolution
p821
(dp822
g3
g419
sg147
g774
sg150
(dp823
g422
((lp824
(F7.2699999999967986
I24
tp825
aF40.239999999997963
tp826
sg458
((lp827
F56.190000000002328
tp828
sg499
((lp829
F40.299999999995634
tp830
sg538
((lp831
(F36.180000000000291
I40
tp832
aF41.279999999998836
tp833
sg583
((lp834
(F21.410000000003492
I15
tp835
aF41.620000000002619
tp836
ssba(imeasure_core
ProblemSetSolution
p837
(dp838
g3
g4
sg147
S"AnytimeBeam-w20-gf(2, 'lin')_with_LinearHeuristic"
p839
sg150
(dp840
g8
((lp841
(F0.0099999999947613105
I20
tp842
aF40.0
tp843
sg39
((lp844
(F1.6399999999994179
I7
tp845
aF40.369999999995343
tp846
sg66
((lp847
F40.180000000000291
tp848
sg91
((lp849
F40.209999999999127
tp850
sg121
((lp851
(F0.97000000000116415
I47
tp852
aF40.020000000004075
tp853
ssba(imeasure_core
ProblemSetSolution
p854
(dp855
g3
g173
sg147
g839
sg150
(dp856
g176
((lp857
(F0.25
I12
tp858
aF40.049999999995634
tp859
sg215
((lp860
F40.100000000005821
tp861
sg260
((lp862
(F0.97999999999592546
I31
tp863
aF40.099999999998545
tp864
sg311
((lp865
F40.150000000001455
tp866
sg353
((lp867
(F0.68000000000029104
I38
tp868
aF40.029999999998836
tp869
ssba(imeasure_core
ProblemSetSolution
p870
(dp871
g3
g419
sg147
g839
sg150
(dp872
g422
((lp873
F40.259999999994761
tp874
sg458
((lp875
F40.529999999998836
tp876
sg499
((lp877
F40.92000000000553
tp878
sg538
((lp879
F41.180000000000291
tp880
sg583
((lp881
F40.309999999997672
tp882
ssba(imeasure_core
ProblemSetSolution
p883
(dp884
g3
g4
sg147
S"AnytimeBeam-w20-gf(4, 'lin')_with_LinearHeuristic"
p885
sg150
(dp886
g8
((lp887
(F0.019999999996798579
I20
tp888
aF40.0
tp889
sg39
((lp890
(F1.6399999999994179
I7
tp891
aF40.099999999998545
tp892
sg66
((lp893
F40.069999999999709
tp894
sg91
((lp895
F40.099999999998545
tp896
sg121
((lp897
(F0.98000000000320142
I47
tp898
a(F26.360000000000582
I46
tp899
a(F31.130000000004657
I45
tp900
a(F35.780000000006112
I44
tp901
aF40.069999999999709
tp902
ssba(imeasure_core
ProblemSetSolution
p903
(dp904
g3
g173
sg147
g885
sg150
(dp905
g176
((lp906
(F0.24000000000523869
I12
tp907
aF40.020000000004075
tp908
sg215
((lp909
F40.209999999999127
tp910
sg260
((lp911
(F0.98000000000320142
I31
tp912
aF40.080000000001746
tp913
sg311
((lp914
F40.089999999996508
tp915
sg353
((lp916
(F0.69000000000232831
I38
tp917
aF40.010000000002037
tp918
ssba(imeasure_core
ProblemSetSolution
p919
(dp920
g3
g419
sg147
g885
sg150
(dp921
g422
((lp922
F40.189999999995052
tp923
sg458
((lp924
F40.410000000003492
tp925
sg499
((lp926
F41.019999999996799
tp927
sg538
((lp928
F41.160000000003492
tp929
sg583
((lp930
F40.180000000000291
tp931
ssba(imeasure_core
ProblemSetSolution
p932
(dp933
g3
g4
sg147
S"AnytimeBeam-w20-gf(8, 'lin')_with_LinearHeuristic"
p934
sg150
(dp935
g8
((lp936
(F0.010000000002037268
I20
tp937
aF40.0
tp938
sg39
((lp939
(F1.6400000000066939
I7
tp940
aF40.260000000002037
tp941
sg66
((lp942
F40.110000000000582
tp943
sg91
((lp944
F40.270000000004075
tp945
sg121
((lp946
(F0.9699999999938882
I47
tp947
a(F14.919999999998254
I46
tp948
a(F19.809999999997672
I45
tp949
a(F24.569999999999709
I44
tp950
a(F30.609999999993306
I43
tp951
a(F35.119999999995343
I42
tp952
aF40.019999999996799
tp953
ssba(imeasure_core
ProblemSetSolution
p954
(dp955
g3
g173
sg147
g934
sg150
(dp956
g176
((lp957
(F0.23999999999796273
I12
tp958
aF40.0
tp959
sg215
((lp960
F40.089999999996508
tp961
sg260
((lp962
(F0.98000000000320142
I31
tp963
aF40.060000000004948
tp964
sg311
((lp965
F40.080000000001746
tp966
sg353
((lp967
(F0.66999999999825377
I38
tp968
aF40.07999999999447
tp969
ssba(imeasure_core
ProblemSetSolution
p970
(dp971
g3
g419
sg147
g934
sg150
(dp972
g422
((lp973
F40.069999999999709
tp974
sg458
((lp975
F40.680000000000291
tp976
sg499
((lp977
F40.940000000002328
tp978
sg538
((lp979
F41.119999999995343
tp980
sg583
((lp981
F40.319999999999709
tp982
ssba(imeasure_core
ProblemSetSolution
p983
(dp984
g3
g4
sg147
S"AnytimeBeam-w20-gf(16, 'lin')_with_LinearHeuristic"
p985
sg150
(dp986
g8
((lp987
(F0.010000000002037268
I20
tp988
aF40.0
tp989
sg39
((lp990
(F1.6500000000014552
I7
tp991
aF40.139999999999418
tp992
sg66
((lp993
F40.099999999998545
tp994
sg91
((lp995
F40.130000000004657
tp996
sg121
((lp997
(F0.97000000000116415
I47
tp998
a(F9.4000000000014552
I46
tp999
a(F14.5
I45
tp1000
a(F19.900000000001455
I44
tp1001
a(F26.709999999999127
I43
tp1002
a(F31.919999999998254
I42
tp1003
a(F37.319999999999709
I41
tp1004
aF40.0
tp1005
ssba(imeasure_core
ProblemSetSolution
p1006
(dp1007
g3
g173
sg147
g985
sg150
(dp1008
g176
((lp1009
(F0.24000000000523869
I12
tp1010
aF40.0
tp1011
sg215
((lp1012
F40.090000000003783
tp1013
sg260
((lp1014
(F0.98000000000320142
I31
tp1015
a(F32.19999999999709
I30
tp1016
a(F38.44999999999709
I29
tp1017
aF40.029999999998836
tp1018
sg311
((lp1019
F40.180000000000291
tp1020
sg353
((lp1021
(F0.68000000000029104
I38
tp1022
aF40.080000000001746
tp1023
ssba(imeasure_core
ProblemSetSolution
p1024
(dp1025
g3
g419
sg147
g985
sg150
(dp1026
g422
((lp1027
F40.190000000002328
tp1028
sg458
((lp1029
F40.479999999995925
tp1030
sg499
((lp1031
F41.029999999998836
tp1032
sg538
((lp1033
F41.209999999999127
tp1034
sg583
((lp1035
F40.360000000000582
tp1036
ssba.