(lp0
(imeasure_core
ProblemSetSolution
p1
(dp2
S'roomset'
p3
(imeasure_core
RoomSet
p4
(dp5
S'rooms'
p6
(dp7
(iproblems
RoomID
p8
(dp9
S'dusts'
p10
I8
sS'obstacles'
p11
(I2
I8
tp12
sS'robots'
p13
I4
sS'height'
p14
I10
sS'width'
p15
I7
sS'seed'
p16
I7106521602475165645
sb(imulti_robot_problem
MultiRobotState
p17
(dp18
S'obstacle_locations'
p19
c__builtin__
frozenset
p20
((lp21
(I3
I8
tp22
a(I5
I9
tp23
a(I4
I9
tp24
ag12
a(I5
I2
tp25
a(I5
I8
tp26
atp27
Rp28
sg15
I7
sS'dirt_locations'
p29
g20
((lp30
(I1
I2
tp31
a(I2
I7
tp32
a(I0
I0
tp33
a(I3
I1
tp34
a(I6
I0
tp35
a(I2
I1
tp36
a(I2
I3
tp37
a(I2
I5
tp38
atp39
Rp40
sg13
((I0
I8
tp41
(I4
I5
tp42
(I3
I9
tp43
(I1
I8
tp44
tp45
sg14
I10
sbs(iproblems
RoomID
p46
(dp47
g10
I10
sg11
(I3
I3
tp48
sg13
I4
sg14
I10
sg15
I8
sg16
I746805015404516437
sb(imulti_robot_problem
MultiRobotState
p49
(dp50
g19
g20
((lp51
(I7
I4
tp52
ag48
a(I4
I2
tp53
a(I6
I1
tp54
a(I3
I1
tp55
a(I4
I1
tp56
a(I1
I4
tp57
atp58
Rp59
sg15
I8
sg29
g20
((lp60
(I4
I6
tp61
a(I6
I3
tp62
a(I2
I0
tp63
a(I3
I9
tp64
a(I2
I3
tp65
a(I3
I6
tp66
a(I5
I1
tp67
a(I1
I0
tp68
a(I0
I8
tp69
a(I5
I8
tp70
atp71
Rp72
sg13
((I3
I8
tp73
(I4
I8
tp74
(I4
I9
tp75
(I0
I3
tp76
tp77
sg14
I10
sbs(iproblems
RoomID
p78
(dp79
g10
I5
sg11
(I4
I5
tp80
sg13
I1
sg14
I9
sg15
I8
sg16
I6604845167042249220
sb(imulti_robot_problem
MultiRobotState
p81
(dp82
g19
g20
((lp83
(I7
I4
tp84
ag80
a(I5
I4
tp85
a(I6
I1
tp86
a(I6
I5
tp87
atp88
Rp89
sg15
I8
sg29
g20
((lp90
(I2
I8
tp91
a(I1
I0
tp92
a(I1
I1
tp93
a(I4
I3
tp94
a(I4
I8
tp95
atp96
Rp97
sg13
((I3
I6
tp98
tp99
sg14
I9
sbs(iproblems
RoomID
p100
(dp101
g10
I9
sg11
(I7
I6
tp102
sg13
I5
sg14
I9
sg15
I9
sg16
I8963783824838420066
sb(imulti_robot_problem
MultiRobotState
p103
(dp104
g19
g20
((lp105
(I2
I7
tp106
a(I5
I5
tp107
a(I6
I6
tp108
ag102
a(I4
I4
tp109
a(I7
I1
tp110
a(I7
I5
tp111
a(I2
I2
tp112
a(I6
I5
tp113
atp114
Rp115
sg15
I9
sg29
g20
((lp116
(I3
I0
tp117
a(I2
I1
tp118
a(I6
I3
tp119
a(I0
I7
tp120
a(I3
I7
tp121
a(I8
I6
tp122
a(I0
I8
tp123
a(I8
I5
tp124
a(I7
I2
tp125
atp126
Rp127
sg13
((I7
I7
tp128
(I2
I4
tp129
(I3
I2
tp130
(I4
I7
tp131
(I5
I0
tp132
tp133
sg14
I9
sbssS'name'
p134
S'easy_roomset'
p135
sbsg134
S"AnytimeBeam-w2-gf(1.3, 'exp')_with_PowerHeuristic2"
p136
sS'solutions'
p137
(dp138
g8
((lp139
(F1.0183429718017578
I13
tp140
aF26.100000000000001
tp141
sg46
((lp142
(F1.1986949443817139
I10
tp143
aF39.0
tp144
sg78
((lp145
F39.52000000000001
tp146
sg100
((lp147
F40.129999999999995
tp148
ssba(imeasure_core
ProblemSetSolution
p149
(dp150
g3
(imeasure_core
RoomSet
p151
(dp152
g6
(dp153
(iproblems
RoomID
p154
(dp155
g10
I6
sg11
(I5
I8
tp156
sg13
I3
sg14
I9
sg15
I11
sg16
I4029557120079369747
sb(imulti_robot_problem
MultiRobotState
p157
(dp158
g19
g20
((lp159
(I7
I3
tp160
a(I1
I3
tp161
a(I4
I8
tp162
a(I10
I6
tp163
a(I7
I1
tp164
a(I1
I4
tp165
a(I3
I7
tp166
a(I5
I1
tp167
a(I2
I5
tp168
a(I8
I5
tp169
ag156
a(I10
I5
tp170
a(I4
I6
tp171
a(I10
I7
tp172
a(I9
I6
tp173
a(I6
I1
tp174
a(I4
I4
tp175
a(I6
I3
tp176
a(I3
I6
tp177
a(I1
I7
tp178
a(I9
I5
tp179
a(I2
I4
tp180
a(I8
I4
tp181
atp182
Rp183
sg15
I11
sg29
g20
((lp184
(I3
I8
tp185
a(I8
I8
tp186
a(I7
I2
tp187
a(I5
I2
tp188
a(I1
I1
tp189
a(I2
I1
tp190
atp191
Rp192
sg13
((I8
I0
tp193
(I3
I1
tp194
(I4
I0
tp195
tp196
sg14
I9
sbs(iproblems
RoomID
p197
(dp198
g10
I10
sg11
(I4
I4
tp199
sg13
I4
sg14
I12
sg15
I12
sg16
I2569146471088859254
sb(imulti_robot_problem
MultiRobotState
p200
(dp201
g19
g20
((lp202
(I5
I4
tp203
a(I4
I8
tp204
a(I4
I5
tp205
a(I11
I2
tp206
a(I4
I7
tp207
a(I1
I9
tp208
a(I10
I3
tp209
a(I5
I8
tp210
a(I5
I5
tp211
a(I3
I3
tp212
ag199
a(I2
I11
tp213
a(I5
I6
tp214
a(I7
I2
tp215
a(I4
I3
tp216
a(I2
I2
tp217
a(I10
I0
tp218
a(I5
I11
tp219
a(I1
I1
tp220
atp221
Rp222
sg15
I12
sg29
g20
((lp223
(I2
I7
tp224
a(I10
I10
tp225
a(I3
I0
tp226
a(I3
I11
tp227
a(I0
I2
tp228
a(I1
I5
tp229
a(I9
I4
tp230
a(I0
I8
tp231
a(I2
I4
tp232
a(I11
I6
tp233
atp234
Rp235
sg13
((I9
I11
tp236
(I7
I10
tp237
(I6
I0
tp238
(I10
I1
tp239
tp240
sg14
I12
sbs(iproblems
RoomID
p241
(dp242
g10
I7
sg11
(I5
I4
tp243
sg13
I3
sg14
I11
sg15
I12
sg16
I2577854692418029171
sb(imulti_robot_problem
MultiRobotState
p244
(dp245
g19
g20
((lp246
(I4
I7
tp247
a(I3
I0
tp248
a(I8
I0
tp249
a(I2
I1
tp250
a(I6
I2
tp251
a(I1
I6
tp252
a(I5
I1
tp253
a(I4
I0
tp254
a(I1
I2
tp255
a(I4
I9
tp256
a(I3
I3
tp257
a(I8
I1
tp258
a(I3
I10
tp259
a(I6
I3
tp260
a(I3
I6
tp261
a(I1
I10
tp262
a(I8
I6
tp263
a(I3
I5
tp264
ag243
a(I2
I6
tp265
a(I7
I1
tp266
a(I6
I0
tp267
a(I1
I9
tp268
a(I4
I2
tp269
a(I0
I8
tp270
a(I5
I3
tp271
a(I0
I1
tp272
a(I7
I0
tp273
a(I5
I2
tp274
a(I6
I1
tp275
a(I3
I1
tp276
a(I3
I8
tp277
a(I3
I4
tp278
a(I2
I4
tp279
atp280
Rp281
sg15
I12
sg29
g20
((lp282
(I4
I10
tp283
a(I10
I5
tp284
a(I10
I1
tp285
a(I2
I8
tp286
a(I7
I6
tp287
a(I4
I4
tp288
a(I9
I7
tp289
atp290
Rp291
sg13
((I10
I6
tp292
(I1
I4
tp293
(I11
I8
tp294
tp295
sg14
I11
sbs(iproblems
RoomID
p296
(dp297
g10
I6
sg11
(I2
I4
tp298
sg13
I3
sg14
I10
sg15
I10
sg16
I1821862095355237593
sb(imulti_robot_problem
MultiRobotState
p299
(dp300
g19
g20
((lp301
(I6
I4
tp302
a(I4
I7
tp303
a(I2
I6
tp304
a(I5
I6
tp305
a(I6
I0
tp306
a(I1
I9
tp307
a(I8
I5
tp308
a(I7
I2
tp309
a(I7
I9
tp310
a(I5
I3
tp311
a(I6
I7
tp312
a(I3
I3
tp313
a(I5
I5
tp314
a(I4
I4
tp315
a(I6
I3
tp316
a(I4
I5
tp317
a(I6
I5
tp318
a(I4
I3
tp319
a(I0
I4
tp320
a(I8
I6
tp321
a(I3
I5
tp322
a(I3
I4
tp323
ag298
atp324
Rp325
sg15
I10
sg29
g20
((lp326
(I0
I6
tp327
a(I7
I0
tp328
a(I5
I1
tp329
a(I2
I3
tp330
a(I2
I8
tp331
a(I9
I6
tp332
atp333
Rp334
sg13
((I2
I2
tp335
(I4
I2
tp336
(I0
I7
tp337
tp338
sg14
I10
sbssg134
S'mild_roomset'
p339
sbsg134
g136
sg137
(dp340
g154
((lp341
F39.77000000000001
tp342
sg197
((lp343
F40.180000000000007
tp344
sg241
((lp345
F39.909999999999997
tp346
sg296
((lp347
F39.879999999999995
tp348
ssba(imeasure_core
ProblemSetSolution
p349
(dp350
g3
(imeasure_core
RoomSet
p351
(dp352
g6
(dp353
(iproblems
RoomID
p354
(dp355
g10
I13
sg11
(I5
I3
tp356
sg13
I6
sg14
I13
sg15
I10
sg16
I7106521602475165645
sb(imulti_robot_problem
MultiRobotState
p357
(dp358
g19
g20
((lp359
(I5
I6
tp360
a(I5
I11
tp361
a(I7
I12
tp362
a(I0
I12
tp363
a(I2
I3
tp364
a(I6
I12
tp365
a(I7
I2
tp366
ag356
a(I1
I2
tp367
a(I4
I5
tp368
a(I8
I12
tp369
a(I7
I1
tp370
a(I2
I11
tp371
a(I6
I3
tp372
a(I6
I11
tp373
a(I0
I4
tp374
a(I0
I9
tp375
a(I0
I5
tp376
a(I3
I4
tp377
atp378
Rp379
sg15
I10
sg29
g20
((lp380
(I0
I1
tp381
a(I8
I3
tp382
a(I4
I6
tp383
a(I7
I11
tp384
a(I6
I9
tp385
a(I0
I11
tp386
a(I3
I9
tp387
a(I2
I12
tp388
a(I8
I6
tp389
a(I5
I1
tp390
a(I3
I7
tp391
a(I0
I3
tp392
a(I3
I5
tp393
atp394
Rp395
sg13
((I0
I10
tp396
(I6
I7
tp397
(I4
I11
tp398
(I1
I11
tp399
(I9
I0
tp400
(I3
I1
tp401
tp402
sg14
I13
sbs(iproblems
RoomID
p403
(dp404
g10
I15
sg11
(I9
I4
tp405
sg13
I6
sg14
I13
sg15
I11
sg16
I746805015404516437
sb(imulti_robot_problem
MultiRobotState
p406
(dp407
g19
g20
((lp408
(I8
I0
tp409
a(I4
I8
tp410
a(I4
I5
tp411
a(I10
I6
tp412
a(I6
I0
tp413
a(I3
I5
tp414
a(I3
I9
tp415
ag405
a(I4
I2
tp416
a(I7
I2
tp417
a(I7
I9
tp418
a(I10
I5
tp419
a(I5
I5
tp420
a(I4
I4
tp421
a(I1
I8
tp422
a(I8
I6
tp423
a(I5
I3
tp424
a(I5
I2
tp425
a(I2
I4
tp426
a(I9
I7
tp427
atp428
Rp429
sg15
I11
sg29
g20
((lp430
(I3
I12
tp431
a(I9
I1
tp432
a(I7
I1
tp433
a(I8
I1
tp434
a(I6
I10
tp435
a(I8
I9
tp436
a(I2
I0
tp437
a(I2
I3
tp438
a(I0
I10
tp439
a(I2
I2
tp440
a(I7
I11
tp441
a(I2
I5
tp442
a(I8
I5
tp443
a(I5
I8
tp444
a(I4
I11
tp445
atp446
Rp447
sg13
((I4
I10
tp448
(I6
I11
tp449
(I5
I12
tp450
(I0
I5
tp451
(I1
I0
tp452
(I7
I10
tp453
tp454
sg14
I13
sbs(iproblems
RoomID
p455
(dp456
g10
I10
sg11
(I6
I7
tp457
sg13
I5
sg14
I12
sg15
I11
sg16
I6604845167042249220
sb(imulti_robot_problem
MultiRobotState
p458
(dp459
g19
g20
((lp460
(I9
I0
tp461
ag457
a(I7
I1
tp462
a(I2
I8
tp463
a(I10
I6
tp464
a(I7
I7
tp465
a(I8
I8
tp466
a(I9
I4
tp467
a(I8
I6
tp468
a(I7
I11
tp469
a(I9
I7
tp470
atp471
Rp472
sg15
I11
sg29
g20
((lp473
(I10
I5
tp474
a(I3
I3
tp475
a(I5
I11
tp476
a(I8
I1
tp477
a(I9
I8
tp478
a(I6
I9
tp479
a(I0
I7
tp480
a(I0
I10
tp481
a(I4
I1
tp482
a(I8
I4
tp483
atp484
Rp485
sg13
((I4
I8
tp486
(I1
I0
tp487
(I2
I2
tp488
(I3
I11
tp489
(I6
I5
tp490
tp491
sg14
I12
sbs(iproblems
RoomID
p492
(dp493
g10
I11
sg11
(I9
I6
tp494
sg13
I6
sg14
I10
sg15
I12
sg16
I4029557120079369747
sb(imulti_robot_problem
MultiRobotState
p495
(dp496
g19
g20
((lp497
(I11
I7
tp498
a(I10
I6
tp499
a(I5
I5
tp500
a(I7
I1
tp501
a(I10
I7
tp502
a(I9
I8
tp503
a(I4
I4
tp504
a(I1
I6
tp505
a(I3
I6
tp506
a(I1
I7
tp507
ag494
a(I11
I6
tp508
atp509
Rp510
sg15
I12
sg29
g20
((lp511
(I1
I2
tp512
a(I1
I3
tp513
a(I4
I9
tp514
a(I8
I2
tp515
a(I8
I1
tp516
a(I6
I1
tp517
a(I2
I1
tp518
a(I7
I4
tp519
a(I1
I8
tp520
a(I5
I2
tp521
a(I1
I1
tp522
atp523
Rp524
sg13
((I8
I0
tp525
(I4
I1
tp526
(I4
I0
tp527
(I3
I9
tp528
(I8
I9
tp529
(I3
I8
tp530
tp531
sg14
I10
sbssg134
S'heavy_roomset'
p532
sbsg134
g136
sg137
(dp533
g354
((lp534
F42.100000000000023
tp535
sg403
((lp536
F43.539999999999964
tp537
sg455
((lp538
F40.930000000000007
tp539
sg492
((lp540
(F30.735017061233521
I6
tp541
aF46.79000000000002
tp542
ssba(imeasure_core
ProblemSetSolution
p543
(dp544
g3
(imeasure_core
RoomSet
p545
(dp546
g6
(dp547
S'complexRoom'
p548
(imulti_robot_problem
MultiRobotState
p549
(dp550
g19
g20
((lp551
(I2
I7
tp552
a(I7
I3
tp553
a(I6
I3
tp554
a(I3
I3
tp555
a(I7
I6
tp556
a(I7
I4
tp557
a(I7
I5
tp558
a(I2
I3
tp559
a(I4
I3
tp560
a(I2
I5
tp561
a(I2
I4
tp562
a(I5
I3
tp563
atp564
Rp565
sg15
I11
sg29
g20
((lp566
(I1
I0
tp567
a(I9
I0
tp568
atp569
Rp570
sg13
((I6
I4
tp571
(I1
I6
tp572
tp573
sg14
I8
sbsS'exampleProblem'
p574
(imulti_robot_problem
MultiRobotState
p575
(dp576
g19
g20
((lp577
tp578
Rp579
sg15
I5
sg29
g20
((lp580
(I1
I3
tp581
a(I3
I1
tp582
a(I1
I1
tp583
a(I3
I3
tp584
atp585
Rp586
sg13
((I2
I2
tp587
tp588
sg14
I5
sbsS'linear_test'
p589
(imulti_robot_problem
MultiRobotState
p590
(dp591
g19
g579
sg15
I12
sg29
g20
((lp592
(I11
I0
tp593
a(I1
I0
tp594
a(I9
I0
tp595
atp596
Rp597
sg13
((I3
I0
tp598
(I1
I2
tp599
tp600
sg14
I7
sbsS'obstacle_Far_CloseTest'
p601
(imulti_robot_problem
MultiRobotState
p602
(dp603
g19
g20
((lp604
(I0
I1
tp605
a(I7
I3
tp606
a(I3
I1
tp607
a(I7
I1
tp608
a(I4
I5
tp609
a(I7
I6
tp610
a(I4
I4
tp611
a(I2
I1
tp612
a(I7
I4
tp613
a(I7
I5
tp614
a(I4
I3
tp615
a(I4
I2
tp616
a(I4
I1
tp617
a(I1
I1
tp618
a(I7
I2
tp619
atp620
Rp621
sg15
I12
sg29
g20
((lp622
(I3
I2
tp623
a(I9
I6
tp624
atp625
Rp626
sg13
((I0
I0
tp627
(I6
I6
tp628
tp629
sg14
I7
sbsS'zigzag'
p630
(imulti_robot_problem
MultiRobotState
p631
(dp632
g19
g20
((lp633
(I1
I2
tp634
a(I3
I2
tp635
a(I1
I3
tp636
a(I3
I0
tp637
a(I3
I1
tp638
a(I5
I1
tp639
a(I5
I2
tp640
a(I1
I1
tp641
a(I5
I3
tp642
atp643
Rp644
sg15
I20
sg29
g20
((lp645
(I6
I3
tp646
atp647
Rp648
sg13
((I0
I3
tp649
(I19
I3
tp650
tp651
sg14
I4
sbsS'room1'
p652
(imulti_robot_problem
MultiRobotState
p653
(dp654
g19
g20
((lp655
(I6
I3
tp656
a(I7
I3
tp657
a(I8
I3
tp658
a(I2
I3
tp659
a(I3
I3
tp660
a(I4
I3
tp661
a(I5
I3
tp662
atp663
Rp664
sg15
I9
sg29
g20
((lp665
(I0
I0
tp666
a(I2
I1
tp667
atp668
Rp669
sg13
((I6
I1
tp670
(I6
I5
tp671
tp672
sg14
I6
sbsS'complexRoom2'
p673
(imulti_robot_problem
MultiRobotState
p674
(dp675
g19
g20
((lp676
(I7
I3
tp677
a(I1
I3
tp678
a(I7
I1
tp679
a(I4
I5
tp680
a(I9
I3
tp681
a(I5
I5
tp682
a(I2
I6
tp683
a(I2
I3
tp684
a(I5
I1
tp685
a(I0
I3
tp686
a(I10
I3
tp687
a(I2
I5
tp688
a(I6
I5
tp689
a(I5
I3
tp690
a(I2
I7
tp691
a(I8
I3
tp692
a(I3
I3
tp693
a(I5
I2
tp694
a(I7
I6
tp695
a(I3
I1
tp696
a(I6
I3
tp697
a(I7
I5
tp698
a(I4
I3
tp699
a(I3
I5
tp700
a(I4
I1
tp701
a(I6
I1
tp702
atp703
Rp704
sg15
I11
sg29
g20
((lp705
(I7
I2
tp706
a(I0
I7
tp707
atp708
Rp709
sg13
((I1
I2
tp710
(I3
I6
tp711
tp712
sg14
I8
sbsS'zigzagUpright'
p713
(imulti_robot_problem
MultiRobotState
p714
(dp715
g19
g20
((lp716
(I1
I3
tp717
a(I3
I1
tp718
a(I2
I1
tp719
a(I1
I1
tp720
a(I1
I5
tp721
a(I2
I3
tp722
a(I2
I5
tp723
a(I0
I3
tp724
a(I3
I5
tp725
atp726
Rp727
sg15
I4
sg29
g20
((lp728
(I3
I6
tp729
atp730
Rp731
sg13
((I3
I0
tp732
(I3
I19
tp733
tp734
sg14
I20
sbsS'ivansRevenge'
p735
(imulti_robot_problem
MultiRobotState
p736
(dp737
g19
g579
sg15
I10
sg29
g20
((lp738
(I9
I2
tp739
a(I0
I0
tp740
atp741
Rp742
sg13
((I9
I0
tp743
(I0
I2
tp744
tp745
sg14
I3
sbsS'roomLongWithObstaccle'
p746
(imulti_robot_problem
MultiRobotState
p747
(dp748
g19
g20
((lp749
(I0
I1
tp750
a(I12
I1
tp751
a(I9
I1
tp752
a(I7
I1
tp753
a(I8
I1
tp754
a(I6
I1
tp755
a(I3
I1
tp756
a(I2
I1
tp757
a(I11
I1
tp758
a(I10
I1
tp759
a(I5
I1
tp760
a(I4
I1
tp761
a(I1
I1
tp762
atp763
Rp764
sg15
I15
sg29
g20
((lp765
(I0
I2
tp766
a(I14
I6
tp767
atp768
Rp769
sg13
((I0
I0
tp770
(I0
I6
tp771
tp772
sg14
I7
sbsS'twoRobotsInOpCorners'
p773
(imulti_robot_problem
MultiRobotState
p774
(dp775
g19
g579
sg15
I5
sg29
g20
((lp776
(I0
I0
tp777
a(I4
I4
tp778
atp779
Rp780
sg13
((I3
I0
tp781
(I0
I3
tp782
tp783
sg14
I5
sbsS'split2'
p784
(imulti_robot_problem
MultiRobotState
p785
(dp786
g19
g579
sg15
I10
sg29
g20
((lp787
(I0
I9
tp788
a(I9
I0
tp789
a(I0
I0
tp790
a(I9
I9
tp791
atp792
Rp793
sg13
((I1
I1
tp794
(I8
I1
tp795
(I4
I5
tp796
(I5
I5
tp797
tp798
sg14
I10
sbsS'split3'
p799
(imulti_robot_problem
MultiRobotState
p800
(dp801
g19
g579
sg15
I10
sg29
g20
((lp802
(I0
I9
tp803
a(I9
I0
tp804
a(I0
I0
tp805
a(I9
I9
tp806
atp807
Rp808
sg13
((I1
I1
tp809
(I8
I1
tp810
(I1
I7
tp811
(I7
I7
tp812
tp813
sg14
I10
sbsS'gaintRoom'
p814
(imulti_robot_problem
MultiRobotState
p815
(dp816
g19
g579
sg15
I5
sg29
g20
((lp817
(I4
I0
tp818
a(I4
I4
tp819
a(I0
I4
tp820
atp821
Rp822
sg13
((I0
I0
tp823
tp824
sg14
I5
sbsS'gaintRoomWithWall'
p825
(imulti_robot_problem
MultiRobotState
p826
(dp827
g19
g20
((lp828
(I2
I4
tp829
atp830
Rp831
sg15
I5
sg29
g20
((lp832
(I4
I0
tp833
a(I4
I4
tp834
a(I0
I4
tp835
atp836
Rp837
sg13
((I0
I0
tp838
tp839
sg14
I5
sbsS'split'
p840
(imulti_robot_problem
MultiRobotState
p841
(dp842
g19
g579
sg15
I10
sg29
g20
((lp843
(I0
I9
tp844
a(I9
I0
tp845
a(I0
I0
tp846
a(I9
I9
tp847
atp848
Rp849
sg13
((I4
I4
tp850
(I5
I4
tp851
(I4
I5
tp852
(I5
I5
tp853
tp854
sg14
I10
sbsS'twoRobots'
p855
(imulti_robot_problem
MultiRobotState
p856
(dp857
g19
g579
sg15
I9
sg29
g20
((lp858
(I8
I0
tp859
a(I0
I0
tp860
atp861
Rp862
sg13
((I2
I0
tp863
(I0
I3
tp864
tp865
sg14
I4
sbssg134
S'static_rooms'
p866
sbsg134
g136
sg137
(dp867
g784
((lp868
F39.889999999999986
tp869
sg799
((lp870
F40.080000000000041
tp871
sg548
((lp872
F39.96999999999997
tp873
sg814
((lp874
F39.989999999999895
tp875
sg574
((lp876
F39.970000000000027
tp877
sg589
((lp878
F39.990000000000009
tp879
sg601
((lp880
F39.949999999999932
tp881
sg855
((lp882
F39.990000000000009
tp883
sg825
((lp884
F39.990000000000009
tp885
sg630
((lp886
F39.970000000000027
tp887
sg652
((lp888
F39.980000000000018
tp889
sg673
((lp890
F39.960000000000036
tp891
sg713
((lp892
F39.980000000000018
tp893
sg735
((lp894
(F0.0037689208984375
I2
tp895
aF39.959999999999923
tp896
sg746
((lp897
F39.970000000000027
tp898
sg773
((lp899
F39.990000000000009
tp900
sg840
((lp901
F40.170000000000073
tp902
ssba(imeasure_core
ProblemSetSolution
p903
(dp904
g3
g4
sg134
S"AnytimeBeam-w6-gf(1.3, 'exp')_with_PowerHeuristic2"
p905
sg137
(dp906
g8
((lp907
(F0.42210006713867188
I13
tp908
aF40.420000000000073
tp909
sg46
((lp910
(F1.1798121929168701
I10
tp911
aF40.169999999999845
tp912
sg78
((lp913
F39.990000000000009
tp914
sg100
((lp915
F40.950000000000045
tp916
ssba(imeasure_core
ProblemSetSolution
p917
(dp918
g3
g151
sg134
g905
sg137
(dp919
g154
((lp920
F40.019999999999982
tp921
sg197
((lp922
F40.400000000000091
tp923
sg241
((lp924
F40.089999999999918
tp925
sg296
((lp926
F40.019999999999982
tp927
ssba(imeasure_core
ProblemSetSolution
p928
(dp929
g3
g351
sg134
g905
sg137
(dp930
g354
((lp931
F41.470000000000027
tp932
sg403
((lp933
F42.930000000000064
tp934
sg455
((lp935
F40.419999999999845
tp936
sg492
((lp937
(F30.432005882263184
I6
tp938
aF46.310000000000173
tp939
ssba(imeasure_core
ProblemSetSolution
p940
(dp941
g3
g545
sg134
g905
sg137
(dp942
g784
((lp943
F40.089999999999691
tp944
sg799
((lp945
F40.160000000000309
tp946
sg548
((lp947
F39.990000000000009
tp948
sg814
((lp949
F39.989999999999782
tp950
sg574
((lp951
F39.990000000000009
tp952
sg589
((lp953
F40.0
tp954
sg601
((lp955
F39.990000000000009
tp956
sg855
((lp957
F40.0
tp958
sg825
((lp959
F39.990000000000236
tp960
sg630
((lp961
F39.990000000000009
tp962
sg652
((lp963
F40.009999999999991
tp964
sg673
((lp965
F39.979999999999791
tp966
sg713
((lp967
F40.010000000000218
tp968
sg735
((lp969
(F0.0037500858306884766
I2
tp970
aF39.989999999999782
tp971
sg746
((lp972
F39.990000000000236
tp973
sg773
((lp974
F40.0
tp975
sg840
((lp976
F40.179999999999836
tp977
ssba(imeasure_core
ProblemSetSolution
p978
(dp979
g3
g4
sg134
S"AnytimeBeam-w9-gf(1.3, 'exp')_with_PowerHeuristic2"
p980
sg137
(dp981
g8
((lp982
(F0.48744297027587891
I13
tp983
aF40.320000000000164
tp984
sg46
((lp985
(F1.1866230964660645
I10
tp986
aF40.139999999999873
tp987
sg78
((lp988
F39.989999999999782
tp989
sg100
((lp990
F40.769999999999982
tp991
ssba(imeasure_core
ProblemSetSolution
p992
(dp993
g3
g151
sg134
g980
sg137
(dp994
g154
((lp995
F40.020000000000437
tp996
sg197
((lp997
F40.199999999999818
tp998
sg241
((lp999
F40.119999999999891
tp1000
sg296
((lp1001
F40.0
tp1002
ssba(imeasure_core
ProblemSetSolution
p1003
(dp1004
g3
g351
sg134
g980
sg137
(dp1005
g354
((lp1006
F41.339999999999691
tp1007
sg403
((lp1008
F42.820000000000164
tp1009
sg455
((lp1010
F40.460000000000036
tp1011
sg492
((lp1012
(F30.457818984985352
I6
tp1013
aF46.420000000000073
tp1014
ssba(imeasure_core
ProblemSetSolution
p1015
(dp1016
g3
g545
sg134
g980
sg137
(dp1017
g784
((lp1018
F40.090000000000146
tp1019
sg799
((lp1020
F40.159999999999854
tp1021
sg548
((lp1022
F39.989999999999782
tp1023
sg814
((lp1024
F39.990000000000236
tp1025
sg574
((lp1026
F39.990000000000236
tp1027
sg589
((lp1028
F40.0
tp1029
sg601
((lp1030
F39.989999999999782
tp1031
sg855
((lp1032
F39.989999999999782
tp1033
sg825
((lp1034
F39.989999999999782
tp1035
sg630
((lp1036
F39.990000000000236
tp1037
sg652
((lp1038
F40.0
tp1039
sg673
((lp1040
F39.989999999999782
tp1041
sg713
((lp1042
F40.0
tp1043
sg735
((lp1044
(F0.0037479400634765625
I2
tp1045
aF39.990000000000236
tp1046
sg746
((lp1047
F39.989999999999782
tp1048
sg773
((lp1049
F40.0
tp1050
sg840
((lp1051
F40.2800000000002
tp1052
ssba(imeasure_core
ProblemSetSolution
p1053
(dp1054
g3
g4
sg134
S"AnytimeBeam-w12-gf(1.3, 'exp')_with_PowerHeuristic2"
p1055
sg137
(dp1056
g8
((lp1057
(F0.4966120719909668
I13
tp1058
aF40.119999999999891
tp1059
sg46
((lp1060
(F1.1876540184020996
I10
tp1061
aF40.039999999999964
tp1062
sg78
((lp1063
F39.990000000000236
tp1064
sg100
((lp1065
F40.489999999999782
tp1066
ssba(imeasure_core
ProblemSetSolution
p1067
(dp1068
g3
g151
sg134
g1055
sg137
(dp1069
g154
((lp1070
F40.029999999999745
tp1071
sg197
((lp1072
F40.320000000000164
tp1073
sg241
((lp1074
F40.099999999999909
tp1075
sg296
((lp1076
F40.079999999999927
tp1077
ssba(imeasure_core
ProblemSetSolution
p1078
(dp1079
g3
g351
sg134
g1055
sg137
(dp1080
g354
((lp1081
F41.260000000000218
tp1082
sg403
((lp1083
F42.769999999999982
tp1084
sg455
((lp1085
F40.4699999999998
tp1086
sg492
((lp1087
(F30.460555076599121
I6
tp1088
aF46.480000000000018
tp1089
ssba(imeasure_core
ProblemSetSolution
p1090
(dp1091
g3
g545
sg134
g1055
sg137
(dp1092
g784
((lp1093
F40.020000000000437
tp1094
sg799
((lp1095
F40.130000000000109
tp1096
sg548
((lp1097
F39.989999999999782
tp1098
sg814
((lp1099
F39.989999999999782
tp1100
sg574
((lp1101
F39.990000000000236
tp1102
sg589
((lp1103
F39.989999999999782
tp1104
sg601
((lp1105
F40.0
tp1106
sg855
((lp1107
F40.0
tp1108
sg825
((lp1109
F39.989999999999782
tp1110
sg630
((lp1111
F40.0
tp1112
sg652
((lp1113
F39.989999999999782
tp1114
sg673
((lp1115
F39.990000000000691
tp1116
sg713
((lp1117
F40.0
tp1118
sg735
((lp1119
(F0.0037589073181152344
I2
tp1120
aF39.989999999999782
tp1121
sg746
((lp1122
F39.989999999999782
tp1123
sg773
((lp1124
F39.989999999999782
tp1125
sg840
((lp1126
F40.360000000000582
tp1127
ssba(imeasure_core
ProblemSetSolution
p1128
(dp1129
g3
g4
sg134
S"AnytimeBeam-w2-gf(1.3, 'exp')_with_LinearHeuristic"
p1130
sg137
(dp1131
g8
((lp1132
(F27.43992805480957
I155
tp1133
aF39.990000000000691
tp1134
sg46
((lp1135
(F1.6706700325012207
I24
tp1136
aF40.179999999999382
tp1137
sg78
((lp1138
(F0.013608932495117188
I18
tp1139
aF39.990000000000691
tp1140
sg100
((lp1141
F40.899999999999636
tp1142
ssba(imeasure_core
ProblemSetSolution
p1143
(dp1144
g3
g151
sg134
g1130
sg137
(dp1145
g154
((lp1146
F40.029999999999745
tp1147
sg197
((lp1148
F40.680000000000291
tp1149
sg241
((lp1150
F40.059999999999491
tp1151
sg296
((lp1152
F40.1200000000008
tp1153
ssba(imeasure_core
ProblemSetSolution
p1154
(dp1155
g3
g351
sg134
g1130
sg137
(dp1156
g354
((lp1157
F42.3100000000004
tp1158
sg403
((lp1159
F52.430000000000291
tp1160
sg455
((lp1161
F40.819999999999709
tp1162
sg492
((lp1163
F46.100000000000364
tp1164
ssba(imeasure_core
ProblemSetSolution
p1165
(dp1166
g3
g545
sg134
g1130
sg137
(dp1167
g784
((lp1168
F40.510000000000218
tp1169
sg799
((lp1170
F40.3100000000004
tp1171
sg548
((lp1172
(F4.8990750312805176
I18
tp1173
a(F12.887051105499268
I16
tp1174
a(F20.584048986434937
I15
tp1175
a(F28.68153715133667
I14
tp1176
aF40.0
tp1177
sg814
((lp1178
F40.0
tp1179
sg574
((lp1180
(F0.0063669681549072266
I8
tp1181
aF39.989999999999782
tp1182
sg589
((lp1183
F40.019999999999527
tp1184
sg601
((lp1185
F40.0
tp1186
sg855
((lp1187
F39.989999999999782
tp1188
sg825
((lp1189
F39.989999999999782
tp1190
sg630
((lp1191
F39.990000000000691
tp1192
sg652
((lp1193
(F9.3614201545715332
I8
tp1194
a(F25.795022010803223
I7
tp1195
aF40.0
tp1196
sg673
((lp1197
F39.989999999999782
tp1198
sg713
((lp1199
F39.989999999999782
tp1200
sg735
((lp1201
(F0.0052769184112548828
I2
tp1202
aF40.0
tp1203
sg746
((lp1204
F39.989999999999782
tp1205
sg773
((lp1206
F39.989999999999782
tp1207
sg840
((lp1208
F40.039999999999964
tp1209
ssba(imeasure_core
ProblemSetSolution
p1210
(dp1211
g3
g4
sg134
S"AnytimeBeam-w6-gf(1.3, 'exp')_with_LinearHeuristic"
p1212
sg137
(dp1213
g8
((lp1214
(F25.656808137893677
I155
tp1215
aF40.010000000000218
tp1216
sg46
((lp1217
(F1.6766180992126465
I24
tp1218
aF40.220000000000255
tp1219
sg78
((lp1220
(F0.013627052307128906
I18
tp1221
aF39.989999999999782
tp1222
sg100
((lp1223
F41.149999999999636
tp1224
ssba(imeasure_core
ProblemSetSolution
p1225
(dp1226
g3
g151
sg134
g1212
sg137
(dp1227
g154
((lp1228
F40.050000000000182
tp1229
sg197
((lp1230
F40.220000000000255
tp1231
sg241
((lp1232
F40.090000000000146
tp1233
sg296
((lp1234
F40.059999999999491
tp1235
ssba(imeasure_core
ProblemSetSolution
p1236
(dp1237
g3
g351
sg134
g1212
sg137
(dp1238
g354
((lp1239
F42.590000000000146
tp1240
sg403
((lp1241
F52.800000000000182
tp1242
sg455
((lp1243
F41.259999999999309
tp1244
sg492
((lp1245
F46.350000000000364
tp1246
ssba(imeasure_core
ProblemSetSolution
p1247
(dp1248
g3
g545
sg134
g1212
sg137
(dp1249
g784
((lp1250
F40.069999999999709
tp1251
sg799
((lp1252
F40.260000000000218
tp1253
sg548
((lp1254
(F4.9471428394317627
I18
tp1255
a(F13.003223896026611
I16
tp1256
a(F20.694138050079346
I15
tp1257
a(F28.807992935180664
I14
tp1258
aF40.0
tp1259
sg814
((lp1260
F39.989999999999782
tp1261
sg574
((lp1262
(F0.0064351558685302734
I8
tp1263
aF39.989999999999782
tp1264
sg589
((lp1265
F40.010000000000218
tp1266
sg601
((lp1267
F39.989999999999782
tp1268
sg855
((lp1269
F39.990000000000691
tp1270
sg825
((lp1271
F39.989999999999782
tp1272
sg630
((lp1273
F40.0
tp1274
sg652
((lp1275
(F9.4733560085296631
I8
tp1276
a(F25.951089143753052
I7
tp1277
aF40.010000000000218
tp1278
sg673
((lp1279
F39.989999999999782
tp1280
sg713
((lp1281
F39.989999999999782
tp1282
sg735
((lp1283
(F0.0053110122680664062
I2
tp1284
aF39.990000000000691
tp1285
sg746
((lp1286
F39.989999999999782
tp1287
sg773
((lp1288
F40.0
tp1289
sg840
((lp1290
F40.130000000000109
tp1291
ssba(imeasure_core
ProblemSetSolution
p1292
(dp1293
g3
g4
sg134
S"AnytimeBeam-w9-gf(1.3, 'exp')_with_LinearHeuristic"
p1294
sg137
(dp1295
g8
((lp1296
(F19.14698600769043
I155
tp1297
aF40.050000000000182
tp1298
sg46
((lp1299
(F1.706355094909668
I24
tp1300
aF40.100000000000364
tp1301
sg78
((lp1302
(F0.013610124588012695
I18
tp1303
aF39.989999999999782
tp1304
sg100
((lp1305
F40.970000000000255
tp1306
ssba(imeasure_core
ProblemSetSolution
p1307
(dp1308
g3
g151
sg134
g1294
sg137
(dp1309
g154
((lp1310
F40.089999999999236
tp1311
sg197
((lp1312
F40.340000000000146
tp1313
sg241
((lp1314
F40.0600000000004
tp1315
sg296
((lp1316
F40.119999999999891
tp1317
ssba(imeasure_core
ProblemSetSolution
p1318
(dp1319
g3
g351
sg134
g1294
sg137
(dp1320
g354
((lp1321
F42.539999999999964
tp1322
sg403
((lp1323
F52.6899999999996
tp1324
sg455
((lp1325
F41.0600000000004
tp1326
sg492
((lp1327
F46.220000000000255
tp1328
ssba(imeasure_core
ProblemSetSolution
p1329
(dp1330
g3
g545
sg134
g1294
sg137
(dp1331
g784
((lp1332
F40.510000000000218
tp1333
sg799
((lp1334
F40.109999999999673
tp1335
sg548
((lp1336
(F4.9216470718383789
I18
tp1337
a(F13.008041143417358
I16
tp1338
a(F20.779623031616211
I15
tp1339
a(F28.936264991760254
I14
tp1340
aF40.0
tp1341
sg814
((lp1342
F39.989999999999782
tp1343
sg574
((lp1344
(F0.0063941478729248047
I8
tp1345
aF39.989999999999782
tp1346
sg589
((lp1347
F40.0
tp1348
sg601
((lp1349
F40.0
tp1350
sg855
((lp1351
F39.989999999998872
tp1352
sg825
((lp1353
F40.0
tp1354
sg630
((lp1355
F39.989999999999782
tp1356
sg652
((lp1357
(F9.4164330959320068
I8
tp1358
a(F25.760574102401733
I7
tp1359
aF40.0
tp1360
sg673
((lp1361
F39.989999999999782
tp1362
sg713
((lp1363
F40.0
tp1364
sg735
((lp1365
(F0.0053060054779052734
I2
tp1366
aF39.989999999999782
tp1367
sg746
((lp1368
F39.990000000000691
tp1369
sg773
((lp1370
F39.989999999999782
tp1371
sg840
((lp1372
F40.650000000000546
tp1373
ssba(imeasure_core
ProblemSetSolution
p1374
(dp1375
g3
g4
sg134
S"AnytimeBeam-w12-gf(1.3, 'exp')_with_LinearHeuristic"
p1376
sg137
(dp1377
g8
((lp1378
(F10.581846952438354
I155
tp1379
aF40.06000000000131
tp1380
sg46
((lp1381
(F1.8978469371795654
I24
tp1382
aF40.090000000000146
tp1383
sg78
((lp1384
(F0.013571977615356445
I18
tp1385
aF39.989999999999782
tp1386
sg100
((lp1387
F41.399999999999636
tp1388
ssba(imeasure_core
ProblemSetSolution
p1389
(dp1390
g3
g151
sg134
g1376
sg137
(dp1391
g154
((lp1392
F40.020000000000437
tp1393
sg197
((lp1394
F40.229999999999563
tp1395
sg241
((lp1396
F40.039999999999054
tp1397
sg296
((lp1398
F40.079999999999927
tp1399
ssba(imeasure_core
ProblemSetSolution
p1400
(dp1401
g3
g351
sg134
g1376
sg137
(dp1402
g354
((lp1403
F43.010000000000218
tp1404
sg403
((lp1405
F52.569999999999709
tp1406
sg455
((lp1407
F41.230000000001382
tp1408
sg492
((lp1409
F46.399999999999636
tp1410
ssba(imeasure_core
ProblemSetSolution
p1411
(dp1412
g3
g545
sg134
g1376
sg137
(dp1413
g784
((lp1414
F40.5
tp1415
sg799
((lp1416
F40.200000000000728
tp1417
sg548
((lp1418
(F4.9397041797637939
I18
tp1419
a(F12.990916967391968
I16
tp1420
a(F20.714871168136597
I15
tp1421
a(F28.865589141845703
I14
tp1422
aF40.0
tp1423
sg814
((lp1424
F39.989999999999782
tp1425
sg574
((lp1426
(F0.0064139366149902344
I8
tp1427
aF39.989999999999782
tp1428
sg589
((lp1429
F40.010000000000218
tp1430
sg601
((lp1431
F40.0
tp1432
sg855
((lp1433
F40.0
tp1434
sg825
((lp1435
F39.989999999999782
tp1436
sg630
((lp1437
F39.989999999999782
tp1438
sg652
((lp1439
(F9.4081001281738281
I8
tp1440
a(F25.817219972610474
I7
tp1441
aF40.0
tp1442
sg673
((lp1443
F39.989999999999782
tp1444
sg713
((lp1445
F40.0
tp1446
sg735
((lp1447
(F0.0053391456604003906
I2
tp1448
aF40.0
tp1449
sg746
((lp1450
F39.989999999999782
tp1451
sg773
((lp1452
F39.989999999999782
tp1453
sg840
((lp1454
F40.719999999999345
tp1455
ssba.