(lp0
(imeasure_core
ProblemSetSolution
p1
(dp2
S'roomset'
p3
(imeasure_core
RoomSet
p4
(dp5
S'rooms'
p6
(dp7
(iproblems
RoomID
p8
(dp9
S'dusts'
p10
I8
sS'obstacles'
p11
(I2
I8
tp12
sS'robots'
p13
I4
sS'height'
p14
I10
sS'width'
p15
I7
sS'seed'
p16
I7106521602475165645
sb(imulti_robot_problem
MultiRobotState
p17
(dp18
S'obstacle_locations'
p19
c__builtin__
frozenset
p20
((lp21
(I3
I8
tp22
a(I5
I9
tp23
a(I4
I9
tp24
ag12
a(I5
I2
tp25
a(I5
I8
tp26
atp27
Rp28
sg15
I7
sS'dirt_locations'
p29
g20
((lp30
(I1
I2
tp31
a(I2
I7
tp32
a(I0
I0
tp33
a(I3
I1
tp34
a(I6
I0
tp35
a(I2
I1
tp36
a(I2
I3
tp37
a(I2
I5
tp38
atp39
Rp40
sg13
((I0
I8
tp41
(I4
I5
tp42
(I3
I9
tp43
(I1
I8
tp44
tp45
sg14
I10
sbs(iproblems
RoomID
p46
(dp47
g10
I10
sg11
(I3
I3
tp48
sg13
I4
sg14
I10
sg15
I8
sg16
I746805015404516437
sb(imulti_robot_problem
MultiRobotState
p49
(dp50
g19
g20
((lp51
(I7
I4
tp52
ag48
a(I4
I2
tp53
a(I6
I1
tp54
a(I3
I1
tp55
a(I4
I1
tp56
a(I1
I4
tp57
atp58
Rp59
sg15
I8
sg29
g20
((lp60
(I4
I6
tp61
a(I6
I3
tp62
a(I2
I0
tp63
a(I3
I9
tp64
a(I2
I3
tp65
a(I3
I6
tp66
a(I5
I1
tp67
a(I1
I0
tp68
a(I0
I8
tp69
a(I5
I8
tp70
atp71
Rp72
sg13
((I3
I8
tp73
(I4
I8
tp74
(I4
I9
tp75
(I0
I3
tp76
tp77
sg14
I10
sbs(iproblems
RoomID
p78
(dp79
g10
I6
sg11
(I7
I4
tp80
sg13
I2
sg14
I7
sg15
I9
sg16
I4029557120079369747
sb(imulti_robot_problem
MultiRobotState
p81
(dp82
g19
g20
((lp83
g80
a(I7
I5
tp84
a(I4
I1
tp85
a(I6
I1
tp86
a(I8
I5
tp87
a(I8
I4
tp88
atp89
Rp90
sg15
I9
sg29
g20
((lp91
(I2
I6
tp92
a(I6
I6
tp93
a(I3
I0
tp94
a(I2
I5
tp95
a(I1
I1
tp96
a(I5
I3
tp97
atp98
Rp99
sg13
((I6
I0
tp100
(I3
I1
tp101
tp102
sg14
I7
sbs(iproblems
RoomID
p103
(dp104
g10
I5
sg11
(I4
I5
tp105
sg13
I1
sg14
I9
sg15
I8
sg16
I6604845167042249220
sb(imulti_robot_problem
MultiRobotState
p106
(dp107
g19
g20
((lp108
(I7
I4
tp109
ag105
a(I5
I4
tp110
a(I6
I1
tp111
a(I6
I5
tp112
atp113
Rp114
sg15
I8
sg29
g20
((lp115
(I2
I8
tp116
a(I1
I0
tp117
a(I1
I1
tp118
a(I4
I3
tp119
a(I4
I8
tp120
atp121
Rp122
sg13
((I3
I6
tp123
tp124
sg14
I9
sbs(iproblems
RoomID
p125
(dp126
g10
I9
sg11
(I7
I6
tp127
sg13
I5
sg14
I9
sg15
I9
sg16
I8963783824838420066
sb(imulti_robot_problem
MultiRobotState
p128
(dp129
g19
g20
((lp130
(I2
I7
tp131
a(I5
I5
tp132
a(I6
I6
tp133
ag127
a(I4
I4
tp134
a(I7
I1
tp135
a(I7
I5
tp136
a(I2
I2
tp137
a(I6
I5
tp138
atp139
Rp140
sg15
I9
sg29
g20
((lp141
(I3
I0
tp142
a(I2
I1
tp143
a(I6
I3
tp144
a(I0
I7
tp145
a(I3
I7
tp146
a(I8
I6
tp147
a(I0
I8
tp148
a(I8
I5
tp149
a(I7
I2
tp150
atp151
Rp152
sg13
((I7
I7
tp153
(I2
I4
tp154
(I3
I2
tp155
(I4
I7
tp156
(I5
I0
tp157
tp158
sg14
I9
sbssS'name'
p159
S'easy_roomset'
p160
sbsg159
S'AnytimeBest-d10_with_PowerHeuristic2'
p161
sS'solutions'
p162
(dp163
g8
((lp164
F40.120000000000005
tp165
sg46
((lp166
F40.340000000000003
tp167
sg78
((lp168
F40.019999999999996
tp169
sg103
((lp170
F0.23999999999999488
tp171
sg125
((lp172
(F1.3400000000000034
I7
tp173
aF40.070000000000007
tp174
ssba(imeasure_core
ProblemSetSolution
p175
(dp176
g3
(imeasure_core
RoomSet
p177
(dp178
g6
(dp179
(iproblems
RoomID
p180
(dp181
g10
I6
sg11
(I5
I8
tp182
sg13
I3
sg14
I9
sg15
I11
sg16
I4029557120079369747
sb(imulti_robot_problem
MultiRobotState
p183
(dp184
g19
g20
((lp185
(I7
I3
tp186
a(I1
I3
tp187
a(I4
I8
tp188
a(I10
I6
tp189
a(I7
I1
tp190
a(I1
I4
tp191
a(I3
I7
tp192
a(I5
I1
tp193
a(I2
I5
tp194
a(I8
I5
tp195
ag182
a(I10
I5
tp196
a(I4
I6
tp197
a(I10
I7
tp198
a(I9
I6
tp199
a(I6
I1
tp200
a(I4
I4
tp201
a(I6
I3
tp202
a(I3
I6
tp203
a(I1
I7
tp204
a(I9
I5
tp205
a(I2
I4
tp206
a(I8
I4
tp207
atp208
Rp209
sg15
I11
sg29
g20
((lp210
(I3
I8
tp211
a(I8
I8
tp212
a(I7
I2
tp213
a(I5
I2
tp214
a(I1
I1
tp215
a(I2
I1
tp216
atp217
Rp218
sg13
((I8
I0
tp219
(I3
I1
tp220
(I4
I0
tp221
tp222
sg14
I9
sbs(iproblems
RoomID
p223
(dp224
g10
I10
sg11
(I4
I4
tp225
sg13
I4
sg14
I12
sg15
I12
sg16
I2569146471088859254
sb(imulti_robot_problem
MultiRobotState
p226
(dp227
g19
g20
((lp228
(I5
I4
tp229
a(I4
I8
tp230
a(I4
I5
tp231
a(I11
I2
tp232
a(I4
I7
tp233
a(I1
I9
tp234
a(I10
I3
tp235
a(I5
I8
tp236
a(I5
I5
tp237
a(I3
I3
tp238
ag225
a(I2
I11
tp239
a(I5
I6
tp240
a(I7
I2
tp241
a(I4
I3
tp242
a(I2
I2
tp243
a(I10
I0
tp244
a(I5
I11
tp245
a(I1
I1
tp246
atp247
Rp248
sg15
I12
sg29
g20
((lp249
(I2
I7
tp250
a(I10
I10
tp251
a(I3
I0
tp252
a(I3
I11
tp253
a(I0
I2
tp254
a(I1
I5
tp255
a(I9
I4
tp256
a(I0
I8
tp257
a(I2
I4
tp258
a(I11
I6
tp259
atp260
Rp261
sg13
((I9
I11
tp262
(I7
I10
tp263
(I6
I0
tp264
(I10
I1
tp265
tp266
sg14
I12
sbs(iproblems
RoomID
p267
(dp268
g10
I6
sg11
(I4
I5
tp269
sg13
I3
sg14
I12
sg15
I12
sg16
I1360307757430227195
sb(imulti_robot_problem
MultiRobotState
p270
(dp271
g19
g20
((lp272
(I6
I4
tp273
a(I3
I2
tp274
a(I10
I4
tp275
a(I3
I0
tp276
a(I5
I4
tp277
a(I7
I5
tp278
a(I5
I1
tp279
a(I8
I5
tp280
a(I6
I5
tp281
a(I4
I0
tp282
a(I7
I4
tp283
a(I8
I3
tp284
a(I6
I7
tp285
a(I5
I5
tp286
a(I8
I10
tp287
a(I6
I3
tp288
a(I5
I6
tp289
a(I6
I2
tp290
ag269
a(I9
I5
tp291
a(I5
I3
tp292
atp293
Rp294
sg15
I12
sg29
g20
((lp295
(I3
I3
tp296
a(I4
I3
tp297
a(I9
I2
tp298
a(I5
I7
tp299
a(I0
I2
tp300
a(I11
I6
tp301
atp302
Rp303
sg13
((I11
I11
tp304
(I1
I3
tp305
(I0
I1
tp306
tp307
sg14
I12
sbs(iproblems
RoomID
p308
(dp309
g10
I6
sg11
(I2
I4
tp310
sg13
I3
sg14
I10
sg15
I10
sg16
I1821862095355237593
sb(imulti_robot_problem
MultiRobotState
p311
(dp312
g19
g20
((lp313
(I6
I4
tp314
a(I4
I7
tp315
a(I2
I6
tp316
a(I5
I6
tp317
a(I6
I0
tp318
a(I1
I9
tp319
a(I8
I5
tp320
a(I7
I2
tp321
a(I7
I9
tp322
a(I5
I3
tp323
a(I6
I7
tp324
a(I3
I3
tp325
a(I5
I5
tp326
a(I4
I4
tp327
a(I6
I3
tp328
a(I4
I5
tp329
a(I6
I5
tp330
a(I4
I3
tp331
a(I0
I4
tp332
a(I8
I6
tp333
a(I3
I5
tp334
a(I3
I4
tp335
ag310
atp336
Rp337
sg15
I10
sg29
g20
((lp338
(I0
I6
tp339
a(I7
I0
tp340
a(I5
I1
tp341
a(I2
I3
tp342
a(I2
I8
tp343
a(I9
I6
tp344
atp345
Rp346
sg13
((I2
I2
tp347
(I4
I2
tp348
(I0
I7
tp349
tp350
sg14
I10
sbs(iproblems
RoomID
p351
(dp352
g10
I7
sg11
(I5
I4
tp353
sg13
I3
sg14
I11
sg15
I12
sg16
I2577854692418029171
sb(imulti_robot_problem
MultiRobotState
p354
(dp355
g19
g20
((lp356
(I4
I7
tp357
a(I3
I0
tp358
a(I8
I0
tp359
a(I2
I1
tp360
a(I6
I2
tp361
a(I1
I6
tp362
a(I5
I1
tp363
a(I4
I0
tp364
a(I1
I2
tp365
a(I4
I9
tp366
a(I3
I3
tp367
a(I8
I1
tp368
a(I3
I10
tp369
a(I6
I3
tp370
a(I3
I6
tp371
a(I1
I10
tp372
a(I8
I6
tp373
a(I3
I5
tp374
ag353
a(I2
I6
tp375
a(I7
I1
tp376
a(I6
I0
tp377
a(I1
I9
tp378
a(I4
I2
tp379
a(I0
I8
tp380
a(I5
I3
tp381
a(I0
I1
tp382
a(I7
I0
tp383
a(I5
I2
tp384
a(I6
I1
tp385
a(I3
I1
tp386
a(I3
I8
tp387
a(I3
I4
tp388
a(I2
I4
tp389
atp390
Rp391
sg15
I12
sg29
g20
((lp392
(I4
I10
tp393
a(I10
I5
tp394
a(I10
I1
tp395
a(I2
I8
tp396
a(I7
I6
tp397
a(I4
I4
tp398
a(I9
I7
tp399
atp400
Rp401
sg13
((I10
I6
tp402
(I1
I4
tp403
(I11
I8
tp404
tp405
sg14
I11
sbssg159
S'mild_roomset'
p406
sbsg159
g161
sg162
(dp407
g180
((lp408
F40.019999999999982
tp409
sg223
((lp410
F40.310000000000002
tp411
sg267
((lp412
F40.050000000000011
tp413
sg308
((lp414
F40.0
tp415
sg351
((lp416
F40.129999999999995
tp417
ssba(imeasure_core
ProblemSetSolution
p418
(dp419
g3
(imeasure_core
RoomSet
p420
(dp421
g6
(dp422
(iproblems
RoomID
p423
(dp424
g10
I13
sg11
(I5
I3
tp425
sg13
I6
sg14
I13
sg15
I10
sg16
I7106521602475165645
sb(imulti_robot_problem
MultiRobotState
p426
(dp427
g19
g20
((lp428
(I5
I6
tp429
a(I5
I11
tp430
a(I7
I12
tp431
a(I0
I12
tp432
a(I2
I3
tp433
a(I6
I12
tp434
a(I7
I2
tp435
ag425
a(I1
I2
tp436
a(I4
I5
tp437
a(I8
I12
tp438
a(I7
I1
tp439
a(I2
I11
tp440
a(I6
I3
tp441
a(I6
I11
tp442
a(I0
I4
tp443
a(I0
I9
tp444
a(I0
I5
tp445
a(I3
I4
tp446
atp447
Rp448
sg15
I10
sg29
g20
((lp449
(I0
I1
tp450
a(I8
I3
tp451
a(I4
I6
tp452
a(I7
I11
tp453
a(I6
I9
tp454
a(I0
I11
tp455
a(I3
I9
tp456
a(I2
I12
tp457
a(I8
I6
tp458
a(I5
I1
tp459
a(I3
I7
tp460
a(I0
I3
tp461
a(I3
I5
tp462
atp463
Rp464
sg13
((I0
I10
tp465
(I6
I7
tp466
(I4
I11
tp467
(I1
I11
tp468
(I9
I0
tp469
(I3
I1
tp470
tp471
sg14
I13
sbs(iproblems
RoomID
p472
(dp473
g10
I15
sg11
(I9
I4
tp474
sg13
I6
sg14
I13
sg15
I11
sg16
I746805015404516437
sb(imulti_robot_problem
MultiRobotState
p475
(dp476
g19
g20
((lp477
(I8
I0
tp478
a(I4
I8
tp479
a(I4
I5
tp480
a(I10
I6
tp481
a(I6
I0
tp482
a(I3
I5
tp483
a(I3
I9
tp484
ag474
a(I4
I2
tp485
a(I7
I2
tp486
a(I7
I9
tp487
a(I10
I5
tp488
a(I5
I5
tp489
a(I4
I4
tp490
a(I1
I8
tp491
a(I8
I6
tp492
a(I5
I3
tp493
a(I5
I2
tp494
a(I2
I4
tp495
a(I9
I7
tp496
atp497
Rp498
sg15
I11
sg29
g20
((lp499
(I3
I12
tp500
a(I9
I1
tp501
a(I7
I1
tp502
a(I8
I1
tp503
a(I6
I10
tp504
a(I8
I9
tp505
a(I2
I0
tp506
a(I2
I3
tp507
a(I0
I10
tp508
a(I2
I2
tp509
a(I7
I11
tp510
a(I2
I5
tp511
a(I8
I5
tp512
a(I5
I8
tp513
a(I4
I11
tp514
atp515
Rp516
sg13
((I4
I10
tp517
(I6
I11
tp518
(I5
I12
tp519
(I0
I5
tp520
(I1
I0
tp521
(I7
I10
tp522
tp523
sg14
I13
sbs(iproblems
RoomID
p524
(dp525
g10
I11
sg11
(I9
I6
tp526
sg13
I6
sg14
I10
sg15
I12
sg16
I4029557120079369747
sb(imulti_robot_problem
MultiRobotState
p527
(dp528
g19
g20
((lp529
(I11
I7
tp530
a(I10
I6
tp531
a(I5
I5
tp532
a(I7
I1
tp533
a(I10
I7
tp534
a(I9
I8
tp535
a(I4
I4
tp536
a(I1
I6
tp537
a(I3
I6
tp538
a(I1
I7
tp539
ag526
a(I11
I6
tp540
atp541
Rp542
sg15
I12
sg29
g20
((lp543
(I1
I2
tp544
a(I1
I3
tp545
a(I4
I9
tp546
a(I8
I2
tp547
a(I8
I1
tp548
a(I6
I1
tp549
a(I2
I1
tp550
a(I7
I4
tp551
a(I1
I8
tp552
a(I5
I2
tp553
a(I1
I1
tp554
atp555
Rp556
sg13
((I8
I0
tp557
(I4
I1
tp558
(I4
I0
tp559
(I3
I9
tp560
(I8
I9
tp561
(I3
I8
tp562
tp563
sg14
I10
sbs(iproblems
RoomID
p564
(dp565
g10
I10
sg11
(I6
I7
tp566
sg13
I5
sg14
I12
sg15
I11
sg16
I6604845167042249220
sb(imulti_robot_problem
MultiRobotState
p567
(dp568
g19
g20
((lp569
(I9
I0
tp570
ag566
a(I7
I1
tp571
a(I2
I8
tp572
a(I10
I6
tp573
a(I7
I7
tp574
a(I8
I8
tp575
a(I9
I4
tp576
a(I8
I6
tp577
a(I7
I11
tp578
a(I9
I7
tp579
atp580
Rp581
sg15
I11
sg29
g20
((lp582
(I10
I5
tp583
a(I3
I3
tp584
a(I5
I11
tp585
a(I8
I1
tp586
a(I9
I8
tp587
a(I6
I9
tp588
a(I0
I7
tp589
a(I0
I10
tp590
a(I4
I1
tp591
a(I8
I4
tp592
atp593
Rp594
sg13
((I4
I8
tp595
(I1
I0
tp596
(I2
I2
tp597
(I3
I11
tp598
(I6
I5
tp599
tp600
sg14
I12
sbs(iproblems
RoomID
p601
(dp602
g10
I15
sg11
(I5
I5
tp603
sg13
I6
sg14
I13
sg15
I13
sg16
I2569146471088859254
sb(imulti_robot_problem
MultiRobotState
p604
(dp605
g19
g20
((lp606
(I12
I2
tp607
a(I5
I4
tp608
a(I3
I3
tp609
a(I5
I9
tp610
a(I4
I5
tp611
a(I6
I1
tp612
a(I10
I10
tp613
a(I8
I8
tp614
a(I4
I3
tp615
a(I2
I2
tp616
a(I9
I11
tp617
a(I8
I12
tp618
a(I1
I1
tp619
a(I12
I3
tp620
ag603
atp621
Rp622
sg15
I13
sg29
g20
((lp623
(I10
I5
tp624
a(I3
I12
tp625
a(I8
I2
tp626
a(I5
I6
tp627
a(I12
I7
tp628
a(I11
I3
tp629
a(I0
I2
tp630
a(I11
I0
tp631
a(I0
I9
tp632
a(I2
I12
tp633
a(I1
I10
tp634
a(I3
I7
tp635
a(I10
I11
tp636
a(I2
I4
tp637
a(I5
I12
tp638
atp639
Rp640
sg13
((I9
I12
tp641
(I7
I11
tp642
(I7
I0
tp643
(I10
I1
tp644
(I1
I5
tp645
(I4
I0
tp646
tp647
sg14
I13
sbssg159
S'heavy_roomset'
p648
sbsg159
g161
sg162
(dp649
g423
((lp650
F40.75
tp651
sg472
((lp652
F40.990000000000009
tp653
sg524
((lp654
(F7.25
I6
tp655
aF40.480000000000018
tp656
sg564
((lp657
F40.279999999999973
tp658
sg601
((lp659
F41.050000000000068
tp660
ssba(imeasure_core
ProblemSetSolution
p661
(dp662
g3
g4
sg159
S'AnytimeBest-d80_with_PowerHeuristic2'
p663
sg162
(dp664
g8
((lp665
(F0.52999999999997272
I15
tp666
aF40.079999999999927
tp667
sg46
((lp668
(F1.8500000000000227
I20
tp669
aF40.090000000000032
tp670
sg78
((lp671
(F0.070000000000050022
I18
tp672
aF40.0
tp673
sg103
((lp674
(F0.14999999999997726
I35
tp675
a(F1.3700000000000045
I33
tp676
a(F2.0
I30
tp677
a(F2.3700000000000045
I26
tp678
a(F3.3899999999999864
I25
tp679
a(F3.6100000000000136
I23
tp680
a(F4.0299999999999727
I21
tp681
a(F5.4399999999999409
I20
tp682
a(F5.67999999999995
I18
tp683
aF6.7899999999999636
tp684
sg125
((lp685
(F1.3400000000000318
I7
tp686
aF40.07000000000005
tp687
ssba(imeasure_core
ProblemSetSolution
p688
(dp689
g3
g177
sg159
g663
sg162
(dp690
g180
((lp691
(F0.11000000000001364
I15
tp692
aF40.009999999999991
tp693
sg223
((lp694
F40.069999999999936
tp695
sg267
((lp696
F40.040000000000077
tp697
sg308
((lp698
(F0.11000000000001364
I13
tp699
aF40.009999999999991
tp700
sg351
((lp701
(F0.53999999999996362
I29
tp702
aF40.009999999999991
tp703
ssba(imeasure_core
ProblemSetSolution
p704
(dp705
g3
g420
sg159
g663
sg162
(dp706
g423
((lp707
F41.080000000000041
tp708
sg472
((lp709
F40.819999999999936
tp710
sg524
((lp711
(F7.1299999999999955
I6
tp712
aF40.559999999999945
tp713
sg564
((lp714
(F5.6300000000001091
I21
tp715
aF40.100000000000136
tp716
sg601
((lp717
F40.3599999999999
tp718
ssba(imeasure_core
ProblemSetSolution
p719
(dp720
g3
g4
sg159
S'AnytimeBest-d150_with_PowerHeuristic2'
p721
sg162
(dp722
g8
((lp723
(F0.52999999999997272
I15
tp724
aF40.039999999999964
tp725
sg46
((lp726
(F1.8500000000001364
I20
tp727
aF40.060000000000173
tp728
sg78
((lp729
(F0.05999999999994543
I18
tp730
aF40.0
tp731
sg103
((lp732
(F0.14999999999986358
I35
tp733
a(F1.3399999999999181
I33
tp734
a(F1.9800000000000182
I30
tp735
a(F2.3499999999999091
I26
tp736
a(F3.3599999999999
I25
tp737
a(F3.5799999999999272
I23
tp738
a(F4.0
I21
tp739
a(F5.3999999999998636
I20
tp740
a(F5.6499999999998636
I18
tp741
aF6.75
tp742
sg125
((lp743
(F1.3399999999999181
I7
tp744
aF40.069999999999936
tp745
ssba(imeasure_core
ProblemSetSolution
p746
(dp747
g3
g177
sg159
g721
sg162
(dp748
g180
((lp749
(F0.099999999999909051
I15
tp750
aF40.009999999999991
tp751
sg223
((lp752
(F8.5099999999999909
I122
tp753
aF40.5
tp754
sg267
((lp755
F40.009999999999991
tp756
sg308
((lp757
(F0.10999999999989996
I13
tp758
aF40.009999999999991
tp759
sg351
((lp760
(F0.54999999999995453
I29
tp761
aF40.009999999999991
tp762
ssba(imeasure_core
ProblemSetSolution
p763
(dp764
g3
g420
sg159
g721
sg162
(dp765
g423
((lp766
F41.009999999999991
tp767
sg472
((lp768
F40.769999999999982
tp769
sg524
((lp770
(F7.0800000000001546
I6
tp771
aF40.460000000000036
tp772
sg564
((lp773
(F5.6900000000000546
I21
tp774
aF40.099999999999909
tp775
sg601
((lp776
F40.330000000000155
tp777
ssba(imeasure_core
ProblemSetSolution
p778
(dp779
g3
g4
sg159
S'AnytimeBest-d250_with_PowerHeuristic2'
p780
sg162
(dp781
g8
((lp782
(F0.52999999999997272
I15
tp783
aF40.039999999999964
tp784
sg46
((lp785
(F1.8399999999999181
I20
tp786
aF40.059999999999945
tp787
sg78
((lp788
(F0.05999999999994543
I18
tp789
aF40.0
tp790
sg103
((lp791
(F0.15000000000009095
I35
tp792
a(F1.3400000000001455
I33
tp793
a(F1.9700000000000273
I30
tp794
a(F2.3400000000001455
I26
tp795
a(F3.3300000000001546
I25
tp796
a(F3.5499999999999545
I23
tp797
a(F3.9600000000000364
I21
tp798
a(F5.3500000000001364
I20
tp799
a(F5.5900000000001455
I18
tp800
aF6.6800000000000637
tp801
sg125
((lp802
(F1.3299999999999272
I7
tp803
aF40.069999999999936
tp804
ssba(imeasure_core
ProblemSetSolution
p805
(dp806
g3
g177
sg159
g780
sg162
(dp807
g180
((lp808
(F0.11000000000012733
I15
tp809
aF40.019999999999982
tp810
sg223
((lp811
(F8.5099999999999909
I122
tp812
aF40.3900000000001
tp813
sg267
((lp814
F40.009999999999991
tp815
sg308
((lp816
(F0.10999999999989996
I13
tp817
aF40.009999999999991
tp818
sg351
((lp819
(F0.55999999999994543
I29
tp820
aF40.009999999999764
tp821
ssba(imeasure_core
ProblemSetSolution
p822
(dp823
g3
g420
sg159
g780
sg162
(dp824
g423
((lp825
F41.099999999999909
tp826
sg472
((lp827
F41.410000000000309
tp828
sg524
((lp829
(F7.2399999999997817
I6
tp830
aF40.549999999999727
tp831
sg564
((lp832
(F5.6799999999998363
I21
tp833
aF40.099999999999909
tp834
sg601
((lp835
(F39.769999999999982
I27
tp836
aF40.320000000000164
tp837
ssba(imeasure_core
ProblemSetSolution
p838
(dp839
g3
g4
sg159
S'AnytimeBest-d400_with_PowerHeuristic2'
p840
sg162
(dp841
g8
((lp842
(F0.5500000000001819
I15
tp843
aF40.039999999999964
tp844
sg46
((lp845
(F1.8400000000001455
I20
tp846
aF40.059999999999945
tp847
sg78
((lp848
(F0.05999999999994543
I18
tp849
aF40.010000000000218
tp850
sg103
((lp851
(F0.1499999999996362
I35
tp852
a(F1.3399999999996908
I33
tp853
a(F1.9699999999997999
I30
tp854
a(F2.3299999999999272
I26
tp855
a(F3.3299999999999272
I25
tp856
a(F3.5499999999997272
I23
tp857
a(F3.9600000000000364
I21
tp858
a(F5.3499999999999091
I20
tp859
a(F5.5999999999999091
I18
tp860
aF6.6900000000000546
tp861
sg125
((lp862
(F1.3299999999999272
I7
tp863
aF40.069999999999709
tp864
ssba(imeasure_core
ProblemSetSolution
p865
(dp866
g3
g177
sg159
g840
sg162
(dp867
g180
((lp868
(F0.11000000000012733
I15
tp869
aF40.010000000000218
tp870
sg223
((lp871
(F8.5299999999997453
I122
tp872
aF40.049999999999727
tp873
sg267
((lp874
F40.190000000000055
tp875
sg308
((lp876
(F0.11999999999989086
I13
tp877
aF40.010000000000218
tp878
sg351
((lp879
(F0.54999999999972715
I29
tp880
aF40.009999999999764
tp881
ssba(imeasure_core
ProblemSetSolution
p882
(dp883
g3
g420
sg159
g840
sg162
(dp884
g423
((lp885
F41.170000000000073
tp886
sg472
((lp887
F40.900000000000091
tp888
sg524
((lp889
(F7.1199999999998909
I6
tp890
aF40.440000000000055
tp891
sg564
((lp892
(F5.6199999999998909
I21
tp893
aF40.099999999999909
tp894
sg601
((lp895
F40.449999999999818
tp896
ssba(imeasure_core
ProblemSetSolution
p897
(dp898
g3
g4
sg159
S'AnytimeBest-d10_with_LinearHeuristic'
p899
sg162
(dp900
g8
((lp901
F40.180000000000291
tp902
sg46
((lp903
F40.159999999999854
tp904
sg78
((lp905
(F0.030000000000200089
I10
tp906
aF40.019999999999982
tp907
sg103
((lp908
F0.76999999999998181
tp909
sg125
((lp910
F40.289999999999964
tp911
ssba(imeasure_core
ProblemSetSolution
p912
(dp913
g3
g177
sg159
g899
sg162
(dp914
g180
((lp915
F40.029999999999745
tp916
sg223
((lp917
F40.240000000000236
tp918
sg267
((lp919
F40.059999999999945
tp920
sg308
((lp921
F40.019999999999982
tp922
sg351
((lp923
F40.079999999999927
tp924
ssba(imeasure_core
ProblemSetSolution
p925
(dp926
g3
g420
sg159
g899
sg162
(dp927
g423
((lp928
F40.199999999999818
tp929
sg472
((lp930
F41.170000000000073
tp931
sg524
((lp932
(F11.559999999999945
I7
tp933
aF40.299999999999727
tp934
sg564
((lp935
F40.580000000000382
tp936
sg601
((lp937
F40.269999999999982
tp938
ssba(imeasure_core
ProblemSetSolution
p939
(dp940
g3
g4
sg159
S'AnytimeBest-d80_with_LinearHeuristic'
p941
sg162
(dp942
g8
((lp943
F40.070000000000164
tp944
sg46
((lp945
(F1.9200000000000728
I24
tp946
aF40.179999999999836
tp947
sg78
((lp948
(F0.030000000000200089
I10
tp949
aF40.019999999999982
tp950
sg103
((lp951
(F0.010000000000218279
I18
tp952
aF6.430000000000291
tp953
sg125
((lp954
F40.529999999999745
tp955
ssba(imeasure_core
ProblemSetSolution
p956
(dp957
g3
g177
sg159
g941
sg162
(dp958
g180
((lp959
F40.0300000000002
tp960
sg223
((lp961
F40.159999999999854
tp962
sg267
((lp963
F40.070000000000164
tp964
sg308
((lp965
F40.019999999999982
tp966
sg351
((lp967
F40.079999999999927
tp968
ssba(imeasure_core
ProblemSetSolution
p969
(dp970
g3
g420
sg159
g941
sg162
(dp971
g423
((lp972
F40.820000000000164
tp973
sg472
((lp974
F40.730000000000018
tp975
sg524
((lp976
(F11.489999999999782
I7
tp977
aF40.300000000000182
tp978
sg564
((lp979
F41.119999999999891
tp980
sg601
((lp981
F41.799999999999727
tp982
ssba(imeasure_core
ProblemSetSolution
p983
(dp984
g3
g4
sg159
S'AnytimeBest-d150_with_LinearHeuristic'
p985
sg162
(dp986
g8
((lp987
F40.440000000000055
tp988
sg46
((lp989
(F1.9000000000000909
I24
tp990
aF40.159999999999854
tp991
sg78
((lp992
(F0.030000000000200089
I10
tp993
aF40.019999999999982
tp994
sg103
((lp995
(F0.010000000000218279
I18
tp996
aF6.5
tp997
sg125
((lp998
(F31.850000000000364
I91
tp999
aF40.340000000000146
tp1000
ssba(imeasure_core
ProblemSetSolution
p1001
(dp1002
g3
g177
sg159
g985
sg162
(dp1003
g180
((lp1004
F40.050000000000182
tp1005
sg223
((lp1006
F40.050000000000182
tp1007
sg267
((lp1008
F40.029999999999745
tp1009
sg308
((lp1010
(F10.4399999999996
I134
tp1011
a(F11.460000000000036
I133
tp1012
a(F12.599999999999454
I132
tp1013
a(F13.239999999999782
I131
tp1014
aF40.019999999999527
tp1015
sg351
((lp1016
F40.030000000000655
tp1017
ssba(imeasure_core
ProblemSetSolution
p1018
(dp1019
g3
g420
sg159
g985
sg162
(dp1020
g423
((lp1021
F40.770000000000437
tp1022
sg472
((lp1023
F41.039999999999964
tp1024
sg524
((lp1025
(F11.409999999999854
I7
tp1026
aF40.289999999999964
tp1027
sg564
((lp1028
F40.970000000000255
tp1029
sg601
((lp1030
F41.609999999999673
tp1031
ssba(imeasure_core
ProblemSetSolution
p1032
(dp1033
g3
g4
sg159
S'AnytimeBest-d250_with_LinearHeuristic'
p1034
sg162
(dp1035
g8
((lp1036
(F31.039999999999964
I155
tp1037
aF40.069999999999709
tp1038
sg46
((lp1039
(F1.9200000000000728
I24
tp1040
aF40.119999999999891
tp1041
sg78
((lp1042
(F0.030000000000654836
I10
tp1043
aF40.020000000000437
tp1044
sg103
((lp1045
(F0.010000000000218279
I18
tp1046
aF6.5299999999997453
tp1047
sg125
((lp1048
(F31.699999999999818
I91
tp1049
aF40.170000000000073
tp1050
ssba(imeasure_core
ProblemSetSolution
p1051
(dp1052
g3
g177
sg159
g1034
sg162
(dp1053
g180
((lp1054
F40.100000000000364
tp1055
sg223
((lp1056
F40.059999999999491
tp1057
sg267
((lp1058
F40.039999999999964
tp1059
sg308
((lp1060
(F10.420000000000073
I134
tp1061
a(F11.410000000000764
I133
tp1062
a(F12.579999999999927
I132
tp1063
a(F13.220000000000255
I131
tp1064
aF40.020000000000437
tp1065
sg351
((lp1066
F40.029999999999745
tp1067
ssba(imeasure_core
ProblemSetSolution
p1068
(dp1069
g3
g420
sg159
g1034
sg162
(dp1070
g423
((lp1071
F41.029999999999745
tp1072
sg472
((lp1073
F41.070000000000618
tp1074
sg524
((lp1075
(F11.550000000000182
I7
tp1076
aF40.300000000000182
tp1077
sg564
((lp1078
F41.139999999999418
tp1079
sg601
((lp1080
F41.489999999999782
tp1081
ssba(imeasure_core
ProblemSetSolution
p1082
(dp1083
g3
g4
sg159
S'AnytimeBest-d400_with_LinearHeuristic'
p1084
sg162
(dp1085
g8
((lp1086
(F30.950000000000728
I155
tp1087
aF40.070000000000618
tp1088
sg46
((lp1089
(F1.9200000000000728
I24
tp1090
aF40.229999999999563
tp1091
sg78
((lp1092
(F0.030000000000654836
I10
tp1093
aF40.020000000000437
tp1094
sg103
((lp1095
(F0.010000000000218279
I18
tp1096
aF6.4200000000000728
tp1097
sg125
((lp1098
(F31.809999999999491
I91
tp1099
aF40.340000000000146
tp1100
ssba(imeasure_core
ProblemSetSolution
p1101
(dp1102
g3
g177
sg159
g1084
sg162
(dp1103
g180
((lp1104
F40.020000000000437
tp1105
sg223
((lp1106
F40.159999999999854
tp1107
sg267
((lp1108
F40.119999999999891
tp1109
sg308
((lp1110
(F10.470000000000255
I134
tp1111
a(F11.460000000000036
I133
tp1112
a(F12.590000000000146
I132
tp1113
a(F13.220000000000255
I131
tp1114
aF40.020000000000437
tp1115
sg351
((lp1116
F40.029999999999745
tp1117
ssba(imeasure_core
ProblemSetSolution
p1118
(dp1119
g3
g420
sg159
g1084
sg162
(dp1120
g423
((lp1121
F40.779999999999745
tp1122
sg472
((lp1123
F40.619999999999891
tp1124
sg524
((lp1125
(F11.480000000000473
I7
tp1126
aF40.300000000000182
tp1127
sg564
((lp1128
F40.989999999999782
tp1129
sg601
((lp1130
F41.789999999999964
tp1131
ssba.