(lp0
(imeasure_core
ProblemSetSolution
p1
(dp2
S'roomset'
p3
(imeasure_core
RoomSet
p4
(dp5
S'rooms'
p6
(dp7
(iproblems
RoomID
p8
(dp9
S'dusts'
p10
I8
sS'obstacles'
p11
(I0
I4
tp12
sS'robots'
p13
I4
sS'height'
p14
I7
sS'width'
p15
I9
sS'seed'
p16
I1689441204489037471
sb(imulti_robot_problem
MultiRobotState
p17
(dp18
S'obstacle_locations'
p19
c__builtin__
frozenset
p20
((lp21
(I0
I1
tp22
a(I1
I2
tp23
a(I3
I2
tp24
a(I8
I1
tp25
a(I4
I3
tp26
ag12
a(I0
I3
tp27
a(I4
I0
tp28
atp29
Rp30
sg15
I9
sS'dirt_locations'
p31
g20
((lp32
(I0
I0
tp33
a(I7
I0
tp34
a(I7
I6
tp35
a(I1
I4
tp36
a(I6
I2
tp37
a(I2
I3
tp38
a(I5
I1
tp39
a(I3
I5
tp40
atp41
Rp42
sg13
((I6
I0
tp43
(I5
I4
tp44
(I6
I6
tp45
(I5
I0
tp46
tp47
sg14
I7
sbs(iproblems
RoomID
p48
(dp49
g10
I10
sg11
(I4
I5
tp50
sg13
I3
sg14
I8
sg15
I10
sg16
I6660334802794327005
sb(imulti_robot_problem
MultiRobotState
p51
(dp52
g19
g20
((lp53
(I9
I0
tp54
a(I2
I6
tp55
a(I1
I6
tp56
a(I3
I6
tp57
ag50
a(I8
I4
tp58
atp59
Rp60
sg15
I10
sg31
g20
((lp61
(I9
I1
tp62
a(I5
I6
tp63
a(I9
I6
tp64
a(I1
I5
tp65
a(I7
I5
tp66
a(I9
I4
tp67
a(I1
I7
tp68
a(I4
I1
tp69
a(I7
I2
tp70
a(I8
I2
tp71
atp72
Rp73
sg13
((I7
I3
tp74
(I4
I7
tp75
(I4
I2
tp76
tp77
sg14
I8
sbs(iproblems
RoomID
p78
(dp79
g10
I6
sg11
(I8
I4
tp80
sg13
I4
sg14
I10
sg15
I9
sg16
I3119042104763040036
sb(imulti_robot_problem
MultiRobotState
p81
(dp82
g19
g20
((lp83
(I1
I2
tp84
a(I6
I7
tp85
a(I4
I8
tp86
a(I7
I6
tp87
a(I8
I5
tp88
ag80
atp89
Rp90
sg15
I9
sg31
g20
((lp91
(I6
I8
tp92
a(I8
I7
tp93
a(I6
I6
tp94
a(I3
I0
tp95
a(I7
I2
tp96
a(I6
I5
tp97
atp98
Rp99
sg13
((I5
I9
tp100
(I6
I1
tp101
(I3
I4
tp102
(I2
I7
tp103
tp104
sg14
I10
sbs(iproblems
RoomID
p105
(dp106
g10
I7
sg11
(I2
I5
tp107
sg13
I5
sg14
I9
sg15
I9
sg16
I4640892725076559864
sb(imulti_robot_problem
MultiRobotState
p108
(dp109
g19
g20
((lp110
(I2
I6
tp111
a(I6
I7
tp112
a(I0
I6
tp113
a(I3
I1
tp114
a(I1
I5
tp115
a(I1
I6
tp116
a(I0
I4
tp117
ag107
a(I3
I4
tp118
atp119
Rp120
sg15
I9
sg31
g20
((lp121
(I3
I8
tp122
a(I7
I3
tp123
a(I7
I1
tp124
a(I8
I1
tp125
a(I8
I6
tp126
a(I4
I2
tp127
a(I5
I3
tp128
atp129
Rp130
sg13
((I6
I5
tp131
(I8
I4
tp132
(I7
I6
tp133
(I6
I0
tp134
(I6
I3
tp135
tp136
sg14
I9
sbs(iproblems
RoomID
p137
(dp138
g10
I6
sg11
(I3
I0
tp139
sg13
I4
sg14
I10
sg15
I7
sg16
I3914746131789064238
sb(imulti_robot_problem
MultiRobotState
p140
(dp141
g19
g20
((lp142
g139
a(I6
I1
tp143
a(I2
I3
tp144
a(I5
I0
tp145
a(I2
I2
tp146
a(I0
I3
tp147
a(I0
I8
tp148
a(I4
I1
tp149
a(I3
I5
tp150
atp151
Rp152
sg15
I7
sg31
g20
((lp153
(I6
I5
tp154
a(I3
I3
tp155
a(I1
I7
tp156
a(I0
I4
tp157
a(I3
I4
tp158
a(I0
I7
tp159
atp160
Rp161
sg13
((I1
I8
tp162
(I5
I1
tp163
(I5
I3
tp164
(I1
I9
tp165
tp166
sg14
I10
sbssS'name'
p167
S'easy_roomset'
p168
sbsg167
S'LimitedTimeAStar_with_PowerHeuristic2'
p169
sS'solutions'
p170
(dp171
g8
((lp172
F0.30999999999994543
tp173
sg48
((lp174
F0.96000000000003638
tp175
sg78
((lp176
F3.3299999999999272
tp177
sg105
((lp178
F1.2599999999997635
tp179
sg137
((lp180
F0.18000000000029104
tp181
ssba(imeasure_core
ProblemSetSolution
p182
(dp183
g3
(imeasure_core
RoomSet
p184
(dp185
g6
(dp186
(iproblems
RoomID
p187
(dp188
g10
I6
sg11
(I5
I5
tp189
sg13
I4
sg14
I12
sg15
I11
sg16
I3119042104763040036
sb(imulti_robot_problem
MultiRobotState
p190
(dp191
g19
g20
((lp192
(I4
I6
tp193
a(I10
I4
tp194
a(I3
I0
tp195
a(I9
I8
tp196
a(I10
I6
tp197
a(I2
I1
tp198
a(I8
I9
tp199
a(I2
I3
tp200
a(I0
I10
tp201
a(I9
I5
tp202
a(I10
I3
tp203
a(I7
I9
tp204
ag189
a(I10
I7
tp205
a(I7
I8
tp206
a(I4
I4
tp207
a(I9
I2
tp208
a(I2
I4
tp209
a(I4
I5
tp210
a(I2
I2
tp211
a(I3
I3
tp212
a(I3
I4
tp213
a(I1
I1
tp214
atp215
Rp216
sg15
I11
sg31
g20
((lp217
(I8
I3
tp218
a(I8
I8
tp219
a(I5
I10
tp220
a(I9
I4
tp221
a(I8
I6
tp222
a(I10
I9
tp223
atp224
Rp225
sg13
((I6
I11
tp226
(I7
I2
tp227
(I2
I8
tp228
(I8
I10
tp229
tp230
sg14
I12
sbs(iproblems
RoomID
p231
(dp232
g10
I6
sg11
(I4
I8
tp233
sg13
I4
sg14
I12
sg15
I9
sg16
I3914746131789064238
sb(imulti_robot_problem
MultiRobotState
p234
(dp235
g19
g20
((lp236
(I4
I6
tp237
a(I6
I6
tp238
a(I4
I5
tp239
a(I5
I7
tp240
a(I0
I5
tp241
a(I0
I10
tp242
a(I8
I7
tp243
a(I7
I0
tp244
a(I0
I3
tp245
a(I8
I5
tp246
a(I4
I0
tp247
a(I2
I3
tp248
a(I6
I7
tp249
a(I3
I3
tp250
a(I8
I1
tp251
a(I7
I6
tp252
a(I3
I1
tp253
ag233
a(I5
I0
tp254
a(I2
I2
tp255
a(I0
I9
tp256
a(I8
I6
tp257
a(I5
I3
tp258
a(I6
I1
tp259
atp260
Rp261
sg15
I9
sg31
g20
((lp262
(I1
I8
tp263
a(I1
I9
tp264
a(I4
I3
tp265
a(I4
I4
tp266
a(I2
I11
tp267
a(I2
I10
tp268
atp269
Rp270
sg13
((I1
I10
tp271
(I6
I2
tp272
(I7
I3
tp273
(I1
I11
tp274
tp275
sg14
I12
sbs(iproblems
RoomID
p276
(dp277
g10
I5
sg11
(I5
I7
tp278
sg13
I4
sg14
I9
sg15
I12
sg16
I659184109953178577
sb(imulti_robot_problem
MultiRobotState
p279
(dp280
g19
g20
((lp281
(I7
I3
tp282
a(I4
I7
tp283
a(I8
I2
tp284
a(I6
I6
tp285
a(I4
I5
tp286
a(I7
I7
tp287
a(I11
I0
tp288
a(I7
I5
tp289
a(I9
I4
tp290
a(I2
I5
tp291
a(I0
I8
tp292
a(I10
I3
tp293
a(I7
I2
tp294
a(I4
I6
tp295
a(I6
I4
tp296
a(I4
I3
tp297
a(I3
I3
tp298
a(I6
I1
tp299
ag278
a(I6
I5
tp300
a(I3
I6
tp301
a(I8
I6
tp302
a(I3
I4
tp303
atp304
Rp305
sg15
I12
sg31
g20
((lp306
(I10
I8
tp307
a(I4
I1
tp308
a(I0
I2
tp309
a(I1
I6
tp310
a(I10
I4
tp311
atp312
Rp313
sg13
((I10
I0
tp314
(I7
I0
tp315
(I2
I6
tp316
(I8
I3
tp317
tp318
sg14
I9
sbs(iproblems
RoomID
p319
(dp320
g10
I9
sg11
(I9
I9
tp321
sg13
I3
sg14
I10
sg15
I10
sg16
I3273124617966689144
sb(imulti_robot_problem
MultiRobotState
p322
(dp323
g19
g20
((lp324
(I7
I3
tp325
a(I5
I4
tp326
a(I1
I3
tp327
a(I6
I4
tp328
a(I4
I5
tp329
a(I9
I8
tp330
a(I3
I2
tp331
a(I7
I5
tp332
a(I1
I6
tp333
a(I2
I5
tp334
a(I0
I8
tp335
a(I9
I6
tp336
a(I6
I5
tp337
a(I5
I3
tp338
a(I3
I3
tp339
a(I5
I5
tp340
a(I7
I6
tp341
ag321
a(I6
I3
tp342
a(I4
I3
tp343
a(I2
I3
tp344
a(I8
I6
tp345
a(I2
I4
tp346
a(I9
I7
tp347
atp348
Rp349
sg15
I10
sg31
g20
((lp350
(I7
I0
tp351
a(I3
I0
tp352
a(I6
I1
tp353
a(I3
I1
tp354
a(I5
I0
tp355
a(I2
I2
tp356
a(I3
I4
tp357
a(I1
I1
tp358
a(I8
I4
tp359
atp360
Rp361
sg13
((I0
I7
tp362
(I2
I1
tp363
(I6
I6
tp364
tp365
sg14
I10
sbs(iproblems
RoomID
p366
(dp367
g10
I9
sg11
(I9
I10
tp368
sg13
I3
sg14
I11
sg15
I10
sg16
I4253868527325451640
sb(imulti_robot_problem
MultiRobotState
p369
(dp370
g19
g20
((lp371
(I7
I3
tp372
a(I4
I7
tp373
a(I2
I6
tp374
a(I7
I10
tp375
a(I4
I8
tp376
a(I6
I9
tp377
ag368
a(I3
I9
tp378
a(I1
I6
tp379
a(I3
I7
tp380
a(I2
I5
tp381
a(I8
I5
tp382
a(I5
I8
tp383
a(I7
I9
tp384
a(I7
I1
tp385
a(I8
I10
tp386
a(I5
I0
tp387
a(I2
I3
tp388
a(I3
I5
tp389
a(I3
I4
tp390
a(I2
I4
tp391
atp392
Rp393
sg15
I10
sg31
g20
((lp394
(I8
I9
tp395
a(I5
I10
tp396
a(I6
I8
tp397
a(I7
I6
tp398
a(I3
I8
tp399
a(I0
I10
tp400
a(I9
I4
tp401
a(I0
I9
tp402
a(I5
I3
tp403
atp404
Rp405
sg13
((I3
I6
tp406
(I0
I8
tp407
(I2
I1
tp408
tp409
sg14
I11
sbssg167
S'mild_roomset'
p410
sbsg167
g169
sg170
(dp411
g187
((lp412
F1.0399999999999636
tp413
sg231
((lp414
F0.20000000000027285
tp415
sg276
((lp416
F0.75999999999976353
tp417
sg319
((lp418
F15.490000000000236
tp419
sg366
((lp420
F16.489999999999782
tp421
ssba(imeasure_core
ProblemSetSolution
p422
(dp423
g3
(imeasure_core
RoomSet
p424
(dp425
g6
(dp426
(iproblems
RoomID
p427
(dp428
g10
I13
sg11
(I3
I4
tp429
sg13
I6
sg14
I10
sg15
I12
sg16
I1689441204489037471
sb(imulti_robot_problem
MultiRobotState
p430
(dp431
g19
g20
((lp432
(I7
I3
tp433
a(I1
I3
tp434
a(I8
I7
tp435
a(I10
I6
tp436
a(I7
I7
tp437
a(I6
I2
tp438
a(I1
I6
tp439
a(I9
I4
tp440
a(I4
I2
tp441
a(I5
I1
tp442
a(I10
I3
tp443
a(I2
I7
tp444
a(I9
I3
tp445
a(I9
I5
tp446
a(I0
I5
tp447
a(I11
I5
tp448
a(I8
I5
tp449
a(I5
I2
tp450
a(I0
I2
tp451
a(I3
I8
tp452
a(I4
I3
tp453
a(I0
I4
tp454
ag429
a(I8
I6
tp455
a(I4
I1
tp456
a(I1
I1
tp457
a(I8
I4
tp458
atp459
Rp460
sg15
I12
sg31
g20
((lp461
(I8
I9
tp462
a(I9
I0
tp463
a(I0
I0
tp464
a(I10
I4
tp465
a(I4
I8
tp466
a(I8
I1
tp467
a(I11
I2
tp468
a(I5
I4
tp469
a(I7
I4
tp470
a(I11
I8
tp471
a(I2
I6
tp472
a(I2
I3
tp473
a(I1
I5
tp474
atp475
Rp476
sg13
((I8
I0
tp477
(I7
I6
tp478
(I8
I8
tp479
(I7
I0
tp480
(I2
I4
tp481
(I9
I9
tp482
tp483
sg14
I10
sbs(iproblems
RoomID
p484
(dp485
g10
I15
sg11
(I10
I7
tp486
sg13
I6
sg14
I11
sg15
I13
sg16
I6660334802794327005
sb(imulti_robot_problem
MultiRobotState
p487
(dp488
g19
g20
((lp489
(I4
I7
tp490
a(I11
I7
tp491
a(I5
I6
tp492
a(I2
I8
tp493
a(I9
I9
tp494
a(I9
I10
tp495
a(I10
I8
tp496
a(I9
I0
tp497
ag486
a(I5
I7
tp498
a(I8
I10
tp499
a(I3
I8
tp500
a(I1
I5
tp501
a(I1
I8
tp502
a(I1
I10
tp503
a(I10
I0
tp504
a(I2
I4
tp505
atp506
Rp507
sg15
I13
sg31
g20
((lp508
(I2
I7
tp509
a(I12
I2
tp510
a(I6
I9
tp511
a(I6
I10
tp512
a(I12
I1
tp513
a(I2
I9
tp514
a(I12
I0
tp515
a(I12
I9
tp516
a(I11
I2
tp517
a(I10
I6
tp518
a(I1
I7
tp519
a(I12
I5
tp520
a(I6
I3
tp521
a(I10
I3
tp522
a(I12
I8
tp523
atp524
Rp525
sg13
((I9
I5
tp526
(I5
I10
tp527
(I5
I3
tp528
(I5
I1
tp529
(I9
I3
tp530
(I7
I8
tp531
tp532
sg14
I11
sbs(iproblems
RoomID
p533
(dp534
g10
I11
sg11
(I6
I1
tp535
sg13
I7
sg14
I13
sg15
I10
sg16
I3914746131789064238
sb(imulti_robot_problem
MultiRobotState
p536
(dp537
g19
g20
((lp538
(I0
I0
tp539
a(I7
I0
tp540
a(I9
I1
tp541
a(I2
I9
tp542
a(I7
I1
tp543
a(I9
I2
tp544
ag535
a(I6
I3
tp545
a(I8
I1
tp546
a(I7
I2
tp547
a(I5
I1
tp548
a(I7
I8
tp549
a(I6
I5
tp550
a(I5
I5
tp551
atp552
Rp553
sg15
I10
sg31
g20
((lp554
(I4
I7
tp555
a(I3
I3
tp556
a(I4
I5
tp557
a(I4
I4
tp558
a(I1
I4
tp559
a(I0
I11
tp560
a(I0
I5
tp561
a(I0
I10
tp562
a(I8
I7
tp563
a(I9
I5
tp564
a(I5
I3
tp565
atp566
Rp567
sg13
((I1
I11
tp568
(I8
I4
tp569
(I2
I12
tp570
(I1
I9
tp571
(I2
I11
tp572
(I5
I4
tp573
(I5
I0
tp574
tp575
sg14
I13
sbs(iproblems
RoomID
p576
(dp577
g10
I12
sg11
(I8
I7
tp578
sg13
I7
sg14
I12
sg15
I12
sg16
I4640892725076559864
sb(imulti_robot_problem
MultiRobotState
p579
(dp580
g19
g20
((lp581
(I5
I9
tp582
a(I6
I9
tp583
a(I4
I8
tp584
a(I5
I6
tp585
a(I2
I8
tp586
a(I6
I0
tp587
a(I2
I10
tp588
a(I0
I9
tp589
a(I6
I2
tp590
ag578
a(I3
I7
tp591
a(I5
I1
tp592
a(I1
I0
tp593
a(I8
I5
tp594
a(I7
I9
tp595
a(I7
I4
tp596
a(I7
I0
tp597
a(I6
I8
tp598
a(I2
I9
tp599
a(I0
I6
tp600
a(I7
I6
tp601
a(I5
I7
tp602
a(I8
I10
tp603
a(I0
I2
tp604
a(I6
I3
tp605
a(I2
I0
tp606
a(I1
I8
tp607
a(I4
I5
tp608
a(I5
I2
tp609
a(I1
I1
tp610
a(I9
I7
tp611
atp612
Rp613
sg15
I12
sg31
g20
((lp614
(I2
I7
tp615
a(I6
I4
tp616
a(I11
I10
tp617
a(I4
I6
tp618
a(I11
I8
tp619
a(I11
I2
tp620
a(I9
I3
tp621
a(I3
I2
tp622
a(I8
I8
tp623
a(I0
I5
tp624
a(I10
I3
tp625
a(I5
I3
tp626
atp627
Rp628
sg13
((I8
I6
tp629
(I11
I5
tp630
(I10
I8
tp631
(I9
I0
tp632
(I9
I4
tp633
(I9
I2
tp634
(I4
I11
tp635
tp636
sg14
I12
sbs(iproblems
RoomID
p637
(dp638
g10
I11
sg11
(I7
I6
tp639
sg13
I7
sg14
I13
sg15
I12
sg16
I3119042104763040036
sb(imulti_robot_problem
MultiRobotState
p640
(dp641
g19
g20
((lp642
(I5
I4
tp643
a(I4
I5
tp644
a(I9
I8
tp645
a(I10
I6
tp646
a(I9
I0
tp647
a(I6
I0
tp648
a(I8
I9
tp649
a(I2
I12
tp650
a(I9
I6
tp651
a(I10
I5
tp652
a(I5
I10
tp653
a(I10
I7
tp654
ag639
a(I9
I9
tp655
a(I8
I6
tp656
a(I11
I6
tp657
a(I9
I7
tp658
atp659
Rp660
sg15
I12
sg31
g20
((lp661
(I1
I2
tp662
a(I4
I4
tp663
a(I5
I11
tp664
a(I5
I6
tp665
a(I3
I4
tp666
a(I8
I0
tp667
a(I8
I10
tp668
a(I0
I11
tp669
a(I2
I3
tp670
a(I7
I8
tp671
a(I4
I0
tp672
atp673
Rp674
sg13
((I7
I12
tp675
(I8
I2
tp676
(I4
I6
tp677
(I3
I9
tp678
(I9
I11
tp679
(I11
I9
tp680
(I9
I3
tp681
tp682
sg14
I13
sbssg167
S'heavy_roomset'
p683
sbsg167
g169
sg170
(dp684
g427
((lp685
F73.940000000000055
tp686
sg484
((lp687
F17.429999999999836
tp688
sg533
((lp689
F515.8100000000004
tp690
sg576
((lp691
F444.97999999999956
tp692
sg637
((lp693
F467.07999999999993
tp694
ssba.