(lp0
(imeasure_core
ProblemSetSolution
p1
(dp2
S'roomset'
p3
(imeasure_core
RoomSet
p4
(dp5
S'rooms'
p6
(dp7
(iproblems
RoomID
p8
(dp9
S'width'
p10
I7
sS'dusts'
p11
I8
sS'seed'
p12
I7106521602475165645
sS'obstacles'
p13
(I2
I8
tp14
sS'robots'
p15
I4
sS'height'
p16
I10
sb(imulti_robot_problem
MultiRobotState
p17
(dp18
S'obstacle_locations'
p19
c__builtin__
frozenset
p20
((lp21
(I5
I9
tp22
a(I4
I9
tp23
ag14
a(I3
I8
tp24
a(I5
I2
tp25
a(I5
I8
tp26
atp27
Rp28
sg10
I7
sS'dirt_locations'
p29
g20
((lp30
(I1
I2
tp31
a(I2
I7
tp32
a(I0
I0
tp33
a(I3
I1
tp34
a(I6
I0
tp35
a(I2
I1
tp36
a(I2
I3
tp37
a(I2
I5
tp38
atp39
Rp40
sg15
((I0
I8
tp41
(I4
I5
tp42
(I3
I9
tp43
(I1
I8
tp44
tp45
sg16
I10
sbs(iproblems
RoomID
p46
(dp47
g10
I8
sg11
I10
sg12
I746805015404516437
sg13
(I3
I3
tp48
sg15
I4
sg16
I10
sb(imulti_robot_problem
MultiRobotState
p49
(dp50
g19
g20
((lp51
g48
a(I6
I1
tp52
a(I3
I1
tp53
a(I1
I4
tp54
a(I7
I4
tp55
a(I4
I2
tp56
a(I4
I1
tp57
atp58
Rp59
sg10
I8
sg29
g20
((lp60
(I4
I6
tp61
a(I6
I3
tp62
a(I2
I0
tp63
a(I3
I9
tp64
a(I2
I3
tp65
a(I3
I6
tp66
a(I5
I1
tp67
a(I1
I0
tp68
a(I0
I8
tp69
a(I5
I8
tp70
atp71
Rp72
sg15
((I3
I8
tp73
(I4
I8
tp74
(I4
I9
tp75
(I0
I3
tp76
tp77
sg16
I10
sbs(iproblems
RoomID
p78
(dp79
g10
I9
sg11
I6
sg12
I4029557120079369747
sg13
(I7
I4
tp80
sg15
I2
sg16
I7
sb(imulti_robot_problem
MultiRobotState
p81
(dp82
g19
g20
((lp83
(I4
I1
tp84
a(I6
I1
tp85
ag80
a(I7
I5
tp86
a(I8
I5
tp87
a(I8
I4
tp88
atp89
Rp90
sg10
I9
sg29
g20
((lp91
(I2
I6
tp92
a(I6
I6
tp93
a(I3
I0
tp94
a(I2
I5
tp95
a(I1
I1
tp96
a(I5
I3
tp97
atp98
Rp99
sg15
((I6
I0
tp100
(I3
I1
tp101
tp102
sg16
I7
sbs(iproblems
RoomID
p103
(dp104
g10
I9
sg11
I9
sg12
I8963783824838420066
sg13
(I7
I6
tp105
sg15
I5
sg16
I9
sb(imulti_robot_problem
MultiRobotState
p106
(dp107
g19
g20
((lp108
(I2
I7
tp109
a(I6
I6
tp110
a(I5
I5
tp111
a(I7
I1
tp112
ag105
a(I4
I4
tp113
a(I7
I5
tp114
a(I2
I2
tp115
a(I6
I5
tp116
atp117
Rp118
sg10
I9
sg29
g20
((lp119
(I3
I0
tp120
a(I0
I7
tp121
a(I6
I3
tp122
a(I2
I1
tp123
a(I3
I7
tp124
a(I8
I6
tp125
a(I0
I8
tp126
a(I8
I5
tp127
a(I7
I2
tp128
atp129
Rp130
sg15
((I7
I7
tp131
(I2
I4
tp132
(I3
I2
tp133
(I4
I7
tp134
(I5
I0
tp135
tp136
sg16
I9
sbs(iproblems
RoomID
p137
(dp138
g10
I8
sg11
I5
sg12
I6604845167042249220
sg13
(I4
I5
tp139
sg15
I1
sg16
I9
sb(imulti_robot_problem
MultiRobotState
p140
(dp141
g19
g20
((lp142
(I7
I4
tp143
ag139
a(I5
I4
tp144
a(I6
I1
tp145
a(I6
I5
tp146
atp147
Rp148
sg10
I8
sg29
g20
((lp149
(I2
I8
tp150
a(I1
I0
tp151
a(I1
I1
tp152
a(I4
I3
tp153
a(I4
I8
tp154
atp155
Rp156
sg15
((I3
I6
tp157
tp158
sg16
I9
sbssS'name'
p159
S'easy_roomset'
p160
sbsS'name'
p161
S"AnytimeBeam-w20-gf(1.3, 'exp')_with_PowerHeuristic2"
p162
sS'solutions'
p163
(dp164
g8
((lp165
(F0.58999999999999997
I15
tp166
aF40.330000000000005
tp167
sg46
((lp168
(F1.769999999999996
I20
tp169
aF40.029999999999994
tp170
sg78
((lp171
(F0.090000000000003411
I18
tp172
aF40.010000000000005
tp173
sg103
((lp174
(F1.3100000000000023
I7
tp175
aF40.059999999999988
tp176
sg137
((lp177
(F0.0700000000000216
I35
tp178
a(F2.3600000000000136
I33
tp179
a(F3.2300000000000182
I30
tp180
a(F3.9200000000000159
I26
tp181
a(F4.7199999999999989
I25
tp182
a(F5.4800000000000182
I23
tp183
a(F6.2400000000000091
I21
tp184
a(F7.5800000000000125
I20
tp185
a(F8.8200000000000216
I18
tp186
aF40.0
tp187
ssba(imeasure_core
ProblemSetSolution
p188
(dp189
g3
(imeasure_core
RoomSet
p190
(dp191
S'rooms'
p192
(dp193
(iproblems
RoomID
p194
(dp195
S'width'
p196
I11
sS'dusts'
p197
I6
sS'seed'
p198
I4029557120079369747
sS'obstacles'
p199
(I5
I8
tp200
sS'robots'
p201
I3
sS'height'
p202
I9
sb(imulti_robot_problem
MultiRobotState
p203
(dp204
S'obstacle_locations'
p205
g20
((lp206
(I7
I3
tp207
a(I1
I3
tp208
a(I4
I8
tp209
a(I10
I6
tp210
a(I3
I7
tp211
a(I5
I1
tp212
a(I2
I5
tp213
a(I8
I5
tp214
ag200
a(I10
I7
tp215
a(I4
I4
tp216
a(I6
I3
tp217
a(I3
I6
tp218
a(I7
I1
tp219
a(I1
I4
tp220
a(I9
I6
tp221
a(I10
I5
tp222
a(I4
I6
tp223
a(I6
I1
tp224
a(I1
I7
tp225
a(I9
I5
tp226
a(I2
I4
tp227
a(I8
I4
tp228
atp229
Rp230
sg196
I11
sS'dirt_locations'
p231
g20
((lp232
(I2
I1
tp233
a(I3
I8
tp234
a(I8
I8
tp235
a(I5
I2
tp236
a(I1
I1
tp237
a(I7
I2
tp238
atp239
Rp240
sg201
((I8
I0
tp241
(I3
I1
tp242
(I4
I0
tp243
tp244
sg202
I9
sbs(iproblems
RoomID
p245
(dp246
g196
I12
sg197
I10
sg198
I2569146471088859254
sg199
(I4
I4
tp247
sg201
I4
sg202
I12
sb(imulti_robot_problem
MultiRobotState
p248
(dp249
g205
g20
((lp250
(I5
I4
tp251
a(I5
I5
tp252
a(I4
I8
tp253
a(I4
I5
tp254
a(I11
I2
tp255
ag247
a(I2
I11
tp256
a(I4
I7
tp257
a(I7
I2
tp258
a(I5
I6
tp259
a(I1
I9
tp260
a(I4
I3
tp261
a(I2
I2
tp262
a(I10
I0
tp263
a(I5
I11
tp264
a(I10
I3
tp265
a(I1
I1
tp266
a(I5
I8
tp267
a(I3
I3
tp268
atp269
Rp270
sg196
I12
sg231
g20
((lp271
(I2
I7
tp272
a(I10
I10
tp273
a(I3
I0
tp274
a(I3
I11
tp275
a(I2
I4
tp276
a(I1
I5
tp277
a(I9
I4
tp278
a(I0
I8
tp279
a(I0
I2
tp280
a(I11
I6
tp281
atp282
Rp283
sg201
((I9
I11
tp284
(I7
I10
tp285
(I6
I0
tp286
(I10
I1
tp287
tp288
sg202
I12
sbs(iproblems
RoomID
p289
(dp290
g196
I12
sg197
I7
sg198
I2577854692418029171
sg199
(I5
I4
tp291
sg201
I3
sg202
I11
sb(imulti_robot_problem
MultiRobotState
p292
(dp293
g205
g20
((lp294
(I4
I7
tp295
a(I3
I0
tp296
a(I8
I0
tp297
a(I2
I1
tp298
a(I6
I2
tp299
a(I1
I6
tp300
a(I5
I1
tp301
a(I4
I0
tp302
a(I1
I2
tp303
a(I4
I9
tp304
a(I3
I3
tp305
a(I8
I1
tp306
a(I3
I10
tp307
a(I6
I3
tp308
a(I3
I6
tp309
a(I1
I10
tp310
a(I8
I6
tp311
a(I5
I3
tp312
ag291
a(I2
I6
tp313
a(I7
I1
tp314
a(I6
I0
tp315
a(I1
I9
tp316
a(I4
I2
tp317
a(I0
I8
tp318
a(I3
I5
tp319
a(I0
I1
tp320
a(I7
I0
tp321
a(I3
I4
tp322
a(I6
I1
tp323
a(I3
I1
tp324
a(I3
I8
tp325
a(I5
I2
tp326
a(I2
I4
tp327
atp328
Rp329
sg196
I12
sg231
g20
((lp330
(I4
I10
tp331
a(I10
I5
tp332
a(I2
I8
tp333
a(I7
I6
tp334
a(I4
I4
tp335
a(I10
I1
tp336
a(I9
I7
tp337
atp338
Rp339
sg201
((I10
I6
tp340
(I1
I4
tp341
(I11
I8
tp342
tp343
sg202
I11
sbs(iproblems
RoomID
p344
(dp345
g196
I12
sg197
I6
sg198
I1360307757430227195
sg199
(I4
I5
tp346
sg201
I3
sg202
I12
sb(imulti_robot_problem
MultiRobotState
p347
(dp348
g205
g20
((lp349
(I6
I4
tp350
a(I3
I2
tp351
a(I6
I3
tp352
a(I6
I7
tp353
a(I10
I4
tp354
a(I3
I0
tp355
a(I5
I5
tp356
a(I5
I4
tp357
a(I8
I10
tp358
a(I7
I4
tp359
a(I5
I6
tp360
a(I9
I5
tp361
a(I7
I5
tp362
a(I8
I3
tp363
ag346
a(I6
I2
tp364
a(I5
I1
tp365
a(I5
I3
tp366
a(I8
I5
tp367
a(I6
I5
tp368
a(I4
I0
tp369
atp370
Rp371
sg196
I12
sg231
g20
((lp372
(I3
I3
tp373
a(I9
I2
tp374
a(I5
I7
tp375
a(I4
I3
tp376
a(I0
I2
tp377
a(I11
I6
tp378
atp379
Rp380
sg201
((I11
I11
tp381
(I1
I3
tp382
(I0
I1
tp383
tp384
sg202
I12
sbs(iproblems
RoomID
p385
(dp386
g196
I10
sg197
I6
sg198
I1821862095355237593
sg199
(I2
I4
tp387
sg201
I3
sg202
I10
sb(imulti_robot_problem
MultiRobotState
p388
(dp389
g205
g20
((lp390
(I4
I7
tp391
a(I5
I6
tp392
a(I8
I5
tp393
a(I7
I2
tp394
a(I6
I7
tp395
a(I3
I3
tp396
a(I4
I4
tp397
a(I6
I3
tp398
a(I0
I4
tp399
a(I8
I6
tp400
a(I3
I5
tp401
a(I6
I4
tp402
a(I2
I6
tp403
a(I4
I5
tp404
a(I7
I9
tp405
a(I6
I0
tp406
a(I1
I9
tp407
a(I6
I5
tp408
a(I5
I5
tp409
a(I5
I3
tp410
a(I4
I3
tp411
a(I3
I4
tp412
ag387
atp413
Rp414
sg196
I10
sg231
g20
((lp415
(I7
I0
tp416
a(I2
I8
tp417
a(I0
I6
tp418
a(I2
I3
tp419
a(I5
I1
tp420
a(I9
I6
tp421
atp422
Rp423
sg201
((I2
I2
tp424
(I4
I2
tp425
(I0
I7
tp426
tp427
sg202
I10
sbssS'name'
p428
S'mild_roomset'
p429
sbsg161
g162
sg163
(dp430
g194
((lp431
(F0.15000000000000568
I15
tp432
aF40.0
tp433
sg245
((lp434
(F5.1700000000000159
I122
tp435
aF40.27000000000001
tp436
sg289
((lp437
(F0.52999999999997272
I34
tp438
a(F2.6100000000000136
I29
tp439
aF40.0
tp440
sg344
((lp441
F40.04000000000002
tp442
sg385
((lp443
(F0.14999999999997726
I13
tp444
aF40.0
tp445
ssba(imeasure_core
ProblemSetSolution
p446
(dp447
g3
(imeasure_core
RoomSet
p448
(dp449
S'rooms'
p450
(dp451
(iproblems
RoomID
p452
(dp453
S'width'
p454
I10
sS'dusts'
p455
I13
sS'seed'
p456
I7106521602475165645
sS'obstacles'
p457
(I5
I3
tp458
sS'robots'
p459
I6
sS'height'
p460
I13
sb(imulti_robot_problem
MultiRobotState
p461
(dp462
S'obstacle_locations'
p463
g20
((lp464
(I1
I2
tp465
a(I0
I9
tp466
a(I6
I11
tp467
a(I0
I5
tp468
a(I5
I11
tp469
a(I5
I6
tp470
a(I8
I12
tp471
a(I2
I11
tp472
a(I7
I1
tp473
a(I0
I12
tp474
a(I6
I3
tp475
a(I7
I12
tp476
a(I2
I3
tp477
a(I0
I4
tp478
a(I4
I5
tp479
a(I6
I12
tp480
a(I3
I4
tp481
a(I7
I2
tp482
ag458
atp483
Rp484
sg454
I10
sS'dirt_locations'
p485
g20
((lp486
(I0
I1
tp487
a(I8
I3
tp488
a(I3
I7
tp489
a(I4
I6
tp490
a(I6
I9
tp491
a(I0
I11
tp492
a(I3
I9
tp493
a(I2
I12
tp494
a(I8
I6
tp495
a(I5
I1
tp496
a(I7
I11
tp497
a(I0
I3
tp498
a(I3
I5
tp499
atp500
Rp501
sg459
((I0
I10
tp502
(I6
I7
tp503
(I4
I11
tp504
(I1
I11
tp505
(I9
I0
tp506
(I3
I1
tp507
tp508
sg460
I13
sbs(iproblems
RoomID
p509
(dp510
g454
I11
sg455
I15
sg456
I746805015404516437
sg457
(I9
I4
tp511
sg459
I6
sg460
I13
sb(imulti_robot_problem
MultiRobotState
p512
(dp513
g463
g20
((lp514
(I10
I5
tp515
a(I10
I6
tp516
a(I5
I5
tp517
a(I4
I8
tp518
a(I4
I5
tp519
a(I8
I0
tp520
a(I6
I0
tp521
a(I4
I4
tp522
a(I1
I8
tp523
a(I3
I9
tp524
a(I5
I3
tp525
a(I9
I7
tp526
ag511
a(I8
I6
tp527
a(I4
I2
tp528
a(I7
I9
tp529
a(I5
I2
tp530
a(I2
I4
tp531
a(I7
I2
tp532
a(I3
I5
tp533
atp534
Rp535
sg454
I11
sg485
g20
((lp536
(I3
I12
tp537
a(I9
I1
tp538
a(I7
I1
tp539
a(I8
I1
tp540
a(I6
I10
tp541
a(I8
I9
tp542
a(I2
I0
tp543
a(I2
I3
tp544
a(I0
I10
tp545
a(I2
I2
tp546
a(I7
I11
tp547
a(I2
I5
tp548
a(I8
I5
tp549
a(I5
I8
tp550
a(I4
I11
tp551
atp552
Rp553
sg459
((I4
I10
tp554
(I6
I11
tp555
(I5
I12
tp556
(I0
I5
tp557
(I1
I0
tp558
(I7
I10
tp559
tp560
sg460
I13
sbs(iproblems
RoomID
p561
(dp562
g454
I12
sg455
I11
sg456
I4029557120079369747
sg457
(I9
I6
tp563
sg459
I6
sg460
I10
sb(imulti_robot_problem
MultiRobotState
p564
(dp565
g463
g20
((lp566
(I11
I7
tp567
a(I4
I4
tp568
a(I5
I5
tp569
a(I7
I1
tp570
a(I10
I7
tp571
a(I9
I8
tp572
a(I10
I6
tp573
a(I1
I6
tp574
a(I3
I6
tp575
a(I1
I7
tp576
ag563
a(I11
I6
tp577
atp578
Rp579
sg454
I12
sg485
g20
((lp580
(I1
I2
tp581
a(I1
I3
tp582
a(I4
I9
tp583
a(I8
I2
tp584
a(I8
I1
tp585
a(I6
I1
tp586
a(I2
I1
tp587
a(I7
I4
tp588
a(I1
I8
tp589
a(I5
I2
tp590
a(I1
I1
tp591
atp592
Rp593
sg459
((I8
I0
tp594
(I4
I1
tp595
(I4
I0
tp596
(I3
I9
tp597
(I8
I9
tp598
(I3
I8
tp599
tp600
sg460
I10
sbs(iproblems
RoomID
p601
(dp602
g454
I13
sg455
I15
sg456
I2569146471088859254
sg457
(I5
I5
tp603
sg459
I6
sg460
I13
sb(imulti_robot_problem
MultiRobotState
p604
(dp605
g463
g20
((lp606
(I12
I2
tp607
a(I5
I4
tp608
a(I3
I3
tp609
a(I5
I9
tp610
a(I4
I5
tp611
a(I6
I1
tp612
a(I10
I10
tp613
a(I8
I8
tp614
a(I4
I3
tp615
a(I2
I2
tp616
a(I9
I11
tp617
a(I8
I12
tp618
a(I1
I1
tp619
a(I12
I3
tp620
ag603
atp621
Rp622
sg454
I13
sg485
g20
((lp623
(I10
I5
tp624
a(I3
I12
tp625
a(I8
I2
tp626
a(I5
I6
tp627
a(I12
I7
tp628
a(I11
I3
tp629
a(I2
I4
tp630
a(I11
I0
tp631
a(I1
I10
tp632
a(I2
I12
tp633
a(I0
I9
tp634
a(I3
I7
tp635
a(I10
I11
tp636
a(I0
I2
tp637
a(I5
I12
tp638
atp639
Rp640
sg459
((I9
I12
tp641
(I7
I11
tp642
(I7
I0
tp643
(I10
I1
tp644
(I1
I5
tp645
(I4
I0
tp646
tp647
sg460
I13
sbs(iproblems
RoomID
p648
(dp649
g454
I11
sg455
I10
sg456
I6604845167042249220
sg457
(I6
I7
tp650
sg459
I5
sg460
I12
sb(imulti_robot_problem
MultiRobotState
p651
(dp652
g463
g20
((lp653
(I9
I0
tp654
ag650
a(I7
I1
tp655
a(I2
I8
tp656
a(I10
I6
tp657
a(I7
I7
tp658
a(I8
I8
tp659
a(I9
I4
tp660
a(I7
I11
tp661
a(I8
I6
tp662
a(I9
I7
tp663
atp664
Rp665
sg454
I11
sg485
g20
((lp666
(I10
I5
tp667
a(I3
I3
tp668
a(I5
I11
tp669
a(I8
I1
tp670
a(I9
I8
tp671
a(I6
I9
tp672
a(I0
I7
tp673
a(I0
I10
tp674
a(I4
I1
tp675
a(I8
I4
tp676
atp677
Rp678
sg459
((I4
I8
tp679
(I1
I0
tp680
(I2
I2
tp681
(I3
I11
tp682
(I6
I5
tp683
tp684
sg460
I12
sbssS'name'
p685
S'heavy_roomset'
p686
sbsg161
g162
sg163
(dp687
g452
((lp688
F40.810000000000002
tp689
sg509
((lp690
F40.310000000000002
tp691
sg561
((lp692
(F6.5600000000000023
I6
tp693
aF40.449999999999989
tp694
sg601
((lp695
(F32.189999999999941
I27
tp696
aF40.730000000000018
tp697
sg648
((lp698
(F5.3500000000000227
I21
tp699
aF40.049999999999955
tp700
ssba(imeasure_core
ProblemSetSolution
p701
(dp702
g3
g4
sg161
S"AnytimeBeam-w20-gf(1.5, 'exp')_with_PowerHeuristic2"
p703
sg163
(dp704
g8
((lp705
(F0.58000000000004093
I15
tp706
aF40.060000000000059
tp707
sg46
((lp708
(F1.7599999999999909
I20
tp709
aF40.149999999999977
tp710
sg78
((lp711
(F0.07999999999992724
I18
tp712
aF40.0
tp713
sg103
((lp714
(F1.3099999999999454
I7
tp715
aF40.129999999999995
tp716
sg137
((lp717
(F0.069999999999936335
I35
tp718
a(F2.0599999999999454
I33
tp719
a(F2.92999999999995
I30
tp720
a(F3.6299999999999955
I26
tp721
a(F4.4199999999999591
I25
tp722
a(F5.17999999999995
I23
tp723
a(F5.9399999999999409
I21
tp724
a(F7.2699999999999818
I20
tp725
a(F8.5
I18
tp726
aF40.0
tp727
ssba(imeasure_core
ProblemSetSolution
p728
(dp729
g3
g190
sg161
g703
sg163
(dp730
g194
((lp731
(F0.14999999999997726
I15
tp732
aF40.009999999999991
tp733
sg245
((lp734
(F5.1699999999999591
I122
tp735
aF40.0
tp736
sg289
((lp737
(F0.51999999999998181
I34
tp738
a(F1.9099999999999682
I29
tp739
aF40.080000000000041
tp740
sg344
((lp741
F40.049999999999955
tp742
sg385
((lp743
(F0.14999999999997726
I13
tp744
aF40.090000000000032
tp745
ssba(imeasure_core
ProblemSetSolution
p746
(dp747
g3
g448
sg161
g703
sg163
(dp748
g452
((lp749
F40.700000000000045
tp750
sg509
((lp751
F40.220000000000027
tp752
sg561
((lp753
(F6.4899999999997817
I6
tp754
aF41.489999999999782
tp755
sg601
((lp756
(F32.200000000000045
I27
tp757
aF40.75
tp758
sg648
((lp759
(F5.3200000000001637
I21
tp760
aF40.380000000000109
tp761
ssba(imeasure_core
ProblemSetSolution
p762
(dp763
g3
g4
sg161
S"AnytimeBeam-w20-gf(1.7, 'exp')_with_PowerHeuristic2"
p764
sg163
(dp765
g8
((lp766
(F0.57999999999992724
I15
tp767
aF40.299999999999955
tp768
sg46
((lp769
(F1.7699999999999818
I20
tp770
aF40.240000000000009
tp771
sg78
((lp772
(F0.090000000000145519
I18
tp773
aF40.009999999999991
tp774
sg103
((lp775
(F1.2999999999999545
I7
tp776
aF40.319999999999936
tp777
sg137
((lp778
(F0.070000000000163709
I35
tp779
a(F1.75
I33
tp780
a(F2.6200000000001182
I30
tp781
a(F3.3100000000001728
I26
tp782
a(F4.1000000000001364
I25
tp783
a(F4.8600000000001273
I23
tp784
a(F5.6200000000001182
I21
tp785
a(F6.9500000000000455
I20
tp786
a(F8.1800000000000637
I18
tp787
aF40.0
tp788
ssba(imeasure_core
ProblemSetSolution
p789
(dp790
g3
g190
sg161
g764
sg163
(dp791
g194
((lp792
(F0.15000000000009095
I15
tp793
aF40.090000000000146
tp794
sg245
((lp795
(F5.1599999999998545
I122
tp796
aF40.039999999999964
tp797
sg289
((lp798
(F0.51999999999998181
I34
tp799
a(F2.0299999999999727
I29
tp800
aF40.119999999999891
tp801
sg344
((lp802
F40.060000000000173
tp803
sg385
((lp804
(F0.14999999999986358
I13
tp805
aF40.009999999999991
tp806
ssba(imeasure_core
ProblemSetSolution
p807
(dp808
g3
g448
sg161
g764
sg163
(dp809
g452
((lp810
F40.690000000000055
tp811
sg509
((lp812
F40.209999999999809
tp813
sg561
((lp814
(F6.5099999999999909
I6
tp815
aF41.090000000000146
tp816
sg601
((lp817
(F32.1099999999999
I27
tp818
aF40.649999999999864
tp819
sg648
((lp820
(F5.3400000000001455
I21
tp821
aF40.539999999999964
tp822
ssba(imeasure_core
ProblemSetSolution
p823
(dp824
g3
g4
sg161
S"AnytimeBeam-w20-gf(1.8999999999999999, 'exp')_with_PowerHeuristic2"
p825
sg163
(dp826
g8
((lp827
(F0.57999999999992724
I15
tp828
aF40.139999999999873
tp829
sg46
((lp830
(F1.7699999999999818
I20
tp831
aF40.150000000000091
tp832
sg78
((lp833
(F0.07999999999992724
I18
tp834
aF40.009999999999991
tp835
sg103
((lp836
(F1.3099999999999454
I7
tp837
aF40.579999999999927
tp838
sg137
((lp839
(F0.069999999999936335
I35
tp840
a(F1.9900000000000091
I33
tp841
a(F2.8700000000001182
I30
tp842
a(F3.5599999999999454
I26
tp843
a(F4.3599999999999
I25
tp844
a(F5.1300000000001091
I23
tp845
a(F5.8900000000001
I21
tp846
a(F7.2300000000000182
I20
tp847
a(F8.4700000000000273
I18
tp848
aF40.0
tp849
ssba(imeasure_core
ProblemSetSolution
p850
(dp851
g3
g190
sg161
g825
sg163
(dp852
g194
((lp853
(F0.15000000000009095
I15
tp854
aF40.009999999999991
tp855
sg245
((lp856
(F5.1799999999998363
I122
tp857
aF40.010000000000218
tp858
sg289
((lp859
(F0.52999999999974534
I34
tp860
a(F2.1399999999998727
I29
tp861
aF40.029999999999745
tp862
sg344
((lp863
F40.190000000000055
tp864
sg385
((lp865
(F0.15999999999985448
I13
tp866
aF40.050000000000182
tp867
ssba(imeasure_core
ProblemSetSolution
p868
(dp869
g3
g448
sg161
g825
sg163
(dp870
g452
((lp871
F40.860000000000127
tp872
sg509
((lp873
F40.400000000000091
tp874
sg561
((lp875
(F6.5199999999999818
I6
tp876
aF41.4699999999998
tp877
sg601
((lp878
(F32.190000000000055
I27
tp879
aF40.800000000000182
tp880
sg648
((lp881
(F5.3599999999996726
I21
tp882
aF40.139999999999873
tp883
ssba(imeasure_core
ProblemSetSolution
p884
(dp885
g3
g4
sg161
S"AnytimeBeam-w20-gf(1.3, 'exp')_with_LinearHeuristic"
p886
sg163
(dp887
g8
((lp888
(F12.040000000000418
I155
tp889
aF40.020000000000437
tp890
sg46
((lp891
(F1.5499999999997272
I24
tp892
aF40.199999999999818
tp893
sg78
((lp894
(F0.03999999999996362
I10
tp895
aF40.0
tp896
sg103
((lp897
(F14.519999999999982
I91
tp898
aF40.0
tp899
sg137
((lp900
(F0.01999999999998181
I18
tp901
aF40.0
tp902
ssba(imeasure_core
ProblemSetSolution
p903
(dp904
g3
g190
sg161
g886
sg163
(dp905
g194
((lp906
F40.029999999999745
tp907
sg245
((lp908
F40.0
tp909
sg289
((lp910
F40.0
tp911
sg344
((lp912
F40.100000000000364
tp913
sg385
((lp914
(F11.819999999999709
I134
tp915
a(F36.109999999999673
I133
tp916
aF40.0
tp917
ssba(imeasure_core
ProblemSetSolution
p918
(dp919
g3
g448
sg161
g886
sg163
(dp920
g452
((lp921
F40.240000000000236
tp922
sg509
((lp923
F40.9699999999998
tp924
sg561
((lp925
(F8.7800000000002001
I7
tp926
aF40.380000000000109
tp927
sg601
((lp928
F40.159999999999854
tp929
sg648
((lp930
F40.039999999999964
tp931
ssba(imeasure_core
ProblemSetSolution
p932
(dp933
g3
g4
sg161
S"AnytimeBeam-w20-gf(1.5, 'exp')_with_LinearHeuristic"
p934
sg163
(dp935
g8
((lp936
(F12.0300000000002
I155
tp937
aF40.5
tp938
sg46
((lp939
(F1.5599999999999454
I24
tp940
aF40.050000000000182
tp941
sg78
((lp942
(F0.03999999999996362
I10
tp943
aF40.009999999999764
tp944
sg103
((lp945
(F14.539999999999964
I91
tp946
aF40.090000000000146
tp947
sg137
((lp948
(F0.01999999999998181
I18
tp949
aF40.0
tp950
ssba(imeasure_core
ProblemSetSolution
p951
(dp952
g3
g190
sg161
g934
sg163
(dp953
g194
((lp954
F40.089999999999691
tp955
sg245
((lp956
F40.050000000000182
tp957
sg289
((lp958
F40.019999999999982
tp959
sg344
((lp960
F40.159999999999854
tp961
sg385
((lp962
(F11.849999999999909
I134
tp963
a(F29.700000000000273
I133
tp964
aF40.110000000000127
tp965
ssba(imeasure_core
ProblemSetSolution
p966
(dp967
g3
g448
sg161
g934
sg163
(dp968
g452
((lp969
F40.320000000000164
tp970
sg509
((lp971
F40.900000000000091
tp972
sg561
((lp973
(F8.7899999999999636
I7
tp974
aF40.920000000000073
tp975
sg601
((lp976
F40.269999999999982
tp977
sg648
((lp978
F40.089999999999691
tp979
ssba(imeasure_core
ProblemSetSolution
p980
(dp981
g3
g4
sg161
S"AnytimeBeam-w20-gf(1.7, 'exp')_with_LinearHeuristic"
p982
sg163
(dp983
g8
((lp984
(F12.059999999999945
I155
tp985
aF40.159999999999854
tp986
sg46
((lp987
(F1.5500000000001819
I24
tp988
aF40.130000000000109
tp989
sg78
((lp990
(F0.03999999999996362
I10
tp991
aF40.0
tp992
sg103
((lp993
(F14.5300000000002
I91
tp994
aF40.079999999999927
tp995
sg137
((lp996
(F0.01999999999998181
I18
tp997
aF40.0
tp998
ssba(imeasure_core
ProblemSetSolution
p999
(dp1000
g3
g190
sg161
g982
sg163
(dp1001
g194
((lp1002
F40.059999999999945
tp1003
sg245
((lp1004
F40.160000000000309
tp1005
sg289
((lp1006
F40.199999999999818
tp1007
sg344
((lp1008
F40.119999999999891
tp1009
sg385
((lp1010
(F12.410000000000309
I134
tp1011
a(F33.910000000000309
I133
tp1012
aF40.090000000000146
tp1013
ssba(imeasure_core
ProblemSetSolution
p1014
(dp1015
g3
g448
sg161
g982
sg163
(dp1016
g452
((lp1017
F40.260000000000218
tp1018
sg509
((lp1019
F40.809999999999491
tp1020
sg561
((lp1021
(F8.8200000000006185
I7
tp1022
aF41.130000000000109
tp1023
sg601
((lp1024
F40.130000000000109
tp1025
sg648
((lp1026
F40.039999999999964
tp1027
ssba(imeasure_core
ProblemSetSolution
p1028
(dp1029
g3
g4
sg161
S"AnytimeBeam-w20-gf(1.8999999999999999, 'exp')_with_LinearHeuristic"
p1030
sg163
(dp1031
g8
((lp1032
(F12.130000000000109
I155
tp1033
aF40.090000000000146
tp1034
sg46
((lp1035
(F1.5500000000001819
I24
tp1036
aF40.619999999999891
tp1037
sg78
((lp1038
(F0.03999999999996362
I10
tp1039
aF40.010000000000218
tp1040
sg103
((lp1041
(F14.599999999999454
I91
tp1042
aF40.050000000000182
tp1043
sg137
((lp1044
(F0.019999999999527063
I18
tp1045
aF40.0
tp1046
ssba(imeasure_core
ProblemSetSolution
p1047
(dp1048
g3
g190
sg161
g1030
sg163
(dp1049
g194
((lp1050
F40.009999999999309
tp1051
sg245
((lp1052
F40.070000000000618
tp1053
sg289
((lp1054
F40.130000000000109
tp1055
sg344
((lp1056
F40.009999999999309
tp1057
sg385
((lp1058
(F12.530000000000655
I134
tp1059
a(F23.010000000000218
I133
tp1060
a(F35.490000000000691
I132
tp1061
aF40.090000000000146
tp1062
ssba(imeasure_core
ProblemSetSolution
p1063
(dp1064
g3
g448
sg161
g1030
sg163
(dp1065
g452
((lp1066
F40.270000000000437
tp1067
sg509
((lp1068
F40.889999999999418
tp1069
sg561
((lp1070
(F8.8100000000004002
I7
tp1071
aF41.280000000000655
tp1072
sg601
((lp1073
F40.199999999999818
tp1074
sg648
((lp1075
F40.029999999999745
tp1076
ssba.