(lp0
(imeasure_core
ProblemSetSolution
p1
(dp2
S'roomset'
p3
(imeasure_core
RoomSet
p4
(dp5
S'rooms'
p6
(dp7
(iproblems
RoomID
p8
(dp9
S'dusts'
p10
I6
sS'obstacles'
p11
(I5
I1
tp12
sS'robots'
p13
I4
sS'height'
p14
I9
sS'width'
p15
I10
sS'seed'
p16
I2405875930906139466
sb(imulti_robot_problem
MultiRobotState
p17
(dp18
S'obstacle_locations'
p19
c__builtin__
frozenset
p20
((lp21
(I7
I0
tp22
a(I7
I1
tp23
ag12
a(I6
I1
tp24
a(I6
I0
tp25
a(I7
I2
tp26
atp27
Rp28
sg15
I10
sS'dirt_locations'
p29
g20
((lp30
(I7
I3
tp31
a(I2
I1
tp32
a(I6
I4
tp33
a(I5
I6
tp34
a(I5
I2
tp35
a(I0
I7
tp36
atp37
Rp38
sg13
((I7
I6
tp39
(I3
I3
tp40
(I8
I6
tp41
(I0
I2
tp42
tp43
sg14
I9
sbs(iproblems
RoomID
p44
(dp45
g10
I6
sg11
(I6
I7
tp46
sg13
I4
sg14
I10
sg15
I7
sg16
I8744744311366254845
sb(imulti_robot_problem
MultiRobotState
p47
(dp48
g19
g20
((lp49
(I0
I6
tp50
ag46
a(I4
I6
tp51
a(I3
I7
tp52
a(I5
I7
tp53
a(I1
I9
tp54
atp55
Rp56
sg15
I7
sg29
g20
((lp57
(I2
I7
tp58
a(I0
I1
tp59
a(I5
I4
tp60
a(I6
I0
tp61
a(I5
I8
tp62
a(I5
I3
tp63
atp64
Rp65
sg13
((I0
I8
tp66
(I4
I2
tp67
(I3
I0
tp68
(I1
I4
tp69
tp70
sg14
I10
sbs(iproblems
RoomID
p71
(dp72
g10
I10
sg11
(I4
I7
tp73
sg13
I5
sg14
I10
sg15
I8
sg16
I8655808914197340073
sb(imulti_robot_problem
MultiRobotState
p74
(dp75
g19
g20
((lp76
(I2
I7
tp77
ag73
a(I4
I8
tp78
a(I6
I3
tp79
a(I7
I5
tp80
a(I3
I7
tp81
a(I1
I0
tp82
a(I5
I3
tp83
atp84
Rp85
sg15
I8
sg29
g20
((lp86
(I7
I3
tp87
a(I5
I4
tp88
a(I7
I0
tp89
a(I5
I7
tp90
a(I1
I5
tp91
a(I1
I9
tp92
a(I3
I6
tp93
a(I1
I7
tp94
a(I3
I4
tp95
a(I5
I8
tp96
atp97
Rp98
sg13
((I3
I8
tp99
(I7
I9
tp100
(I6
I1
tp101
(I2
I3
tp102
(I5
I5
tp103
tp104
sg14
I10
sbs(iproblems
RoomID
p105
(dp106
g10
I8
sg11
(I5
I3
tp107
sg13
I3
sg14
I7
sg15
I7
sg16
I7325839828077136048
sb(imulti_robot_problem
MultiRobotState
p108
(dp109
g19
g20
((lp110
(I6
I4
tp111
a(I5
I4
tp112
a(I5
I5
tp113
a(I6
I6
tp114
a(I3
I1
tp115
a(I6
I0
tp116
a(I2
I0
tp117
a(I0
I4
tp118
ag107
atp119
Rp120
sg15
I7
sg29
g20
((lp121
(I0
I6
tp122
a(I3
I0
tp123
a(I2
I4
tp124
a(I1
I5
tp125
a(I4
I3
tp126
a(I2
I2
tp127
a(I1
I1
tp128
a(I3
I5
tp129
atp130
Rp131
sg13
((I1
I0
tp132
(I3
I3
tp133
(I6
I2
tp134
tp135
sg14
I7
sbs(iproblems
RoomID
p136
(dp137
g10
I6
sg11
(I4
I6
tp138
sg13
I1
sg14
I8
sg15
I7
sg16
I3537054308274871603
sb(imulti_robot_problem
MultiRobotState
p139
(dp140
g19
g20
((lp141
(I4
I7
tp142
ag138
a(I4
I5
tp143
a(I2
I5
tp144
a(I3
I5
tp145
a(I6
I0
tp146
a(I2
I4
tp147
atp148
Rp149
sg15
I7
sg29
g20
((lp150
(I0
I6
tp151
a(I6
I2
tp152
a(I5
I6
tp153
a(I4
I1
tp154
a(I1
I1
tp155
a(I5
I3
tp156
atp157
Rp158
sg13
((I0
I3
tp159
tp160
sg14
I8
sbssS'name'
p161
S'easy_roomset'
p162
sbsg161
S"AnytimeBeam-w20-gf(1.3, 'exp')_with_PowerHeuristic2"
p163
sS'solutions'
p164
(dp165
g8
((lp166
(F0.47000000000116415
I10
tp167
aF40.270000000000437
tp168
sg44
((lp169
(F0.32999999999992724
I14
tp170
aF40.039999999999054
tp171
sg71
((lp172
(F1.5100000000002183
I9
tp173
aF40.050000000001091
tp174
sg105
((lp175
(F5.1199999999989814
I144
tp176
aF40.079999999999927
tp177
sg136
((lp178
(F0.1000000000003638
I49
tp179
a(F0.53000000000065484
I47
tp180
a(F0.73999999999978172
I45
tp181
a(F1.0200000000004366
I43
tp182
a(F1.8400000000001455
I41
tp183
a(F2.2800000000006548
I40
tp184
a(F3.2899999999990541
I39
tp185
a(F4.1999999999989086
I38
tp186
a(F5.4699999999993452
I37
tp187
a(F6.6499999999996362
I35
tp188
a(F8.2999999999992724
I33
tp189
a(F10.649999999999636
I31
tp190
a(F12.6299999999992
I29
tp191
a(F14.199999999998909
I27
tp192
a(F16.190000000000509
I25
tp193
a(F20.559999999999491
I24
tp194
a(F24.449999999998909
I22
tp195
a(F27.75
I20
tp196
aF40.0
tp197
ssba(imeasure_core
ProblemSetSolution
p198
(dp199
g3
(imeasure_core
RoomSet
p200
(dp201
g6
(dp202
(iproblems
RoomID
p203
(dp204
g10
I6
sg11
(I1
I8
tp205
sg13
I4
sg14
I11
sg15
I12
sg16
I2405875930906139466
sb(imulti_robot_problem
MultiRobotState
p206
(dp207
g19
g20
((lp208
(I6
I4
tp209
a(I4
I6
tp210
a(I8
I2
tp211
a(I6
I6
tp212
a(I2
I8
tp213
a(I8
I0
tp214
a(I5
I5
tp215
a(I9
I10
tp216
a(I6
I2
tp217
a(I2
I3
tp218
a(I3
I7
tp219
a(I6
I5
tp220
a(I5
I3
tp221
a(I7
I0
tp222
a(I3
I3
tp223
a(I2
I9
tp224
a(I11
I5
tp225
a(I8
I1
tp226
a(I6
I1
tp227
a(I3
I1
tp228
a(I6
I3
tp229
a(I2
I0
tp230
ag205
a(I7
I5
tp231
a(I3
I6
tp232
a(I4
I3
tp233
a(I3
I4
tp234
atp235
Rp236
sg15
I12
sg29
g20
((lp237
(I9
I4
tp238
a(I7
I1
tp239
a(I0
I9
tp240
a(I9
I3
tp241
a(I7
I7
tp242
a(I2
I1
tp243
atp244
Rp245
sg13
((I9
I7
tp246
(I4
I4
tp247
(I10
I8
tp248
(I0
I2
tp249
tp250
sg14
I11
sbs(iproblems
RoomID
p251
(dp252
g10
I10
sg11
(I0
I5
tp253
sg13
I4
sg14
I12
sg15
I10
sg16
I8655808914197340073
sb(imulti_robot_problem
MultiRobotState
p254
(dp255
g19
g20
((lp256
(I5
I9
tp257
a(I5
I4
tp258
a(I5
I7
tp259
a(I6
I6
tp260
a(I4
I8
tp261
a(I8
I0
tp262
a(I0
I7
tp263
a(I7
I5
tp264
a(I2
I3
tp265
a(I1
I4
tp266
a(I6
I8
tp267
a(I1
I11
tp268
a(I9
I6
tp269
a(I5
I8
tp270
a(I4
I6
tp271
a(I3
I8
tp272
a(I6
I7
tp273
a(I5
I5
tp274
a(I3
I4
tp275
a(I4
I4
tp276
a(I6
I3
tp277
a(I2
I0
tp278
a(I6
I5
tp279
ag253
a(I7
I8
tp280
atp281
Rp282
sg15
I10
sg29
g20
((lp283
(I6
I9
tp284
a(I2
I9
tp285
a(I2
I11
tp286
a(I9
I0
tp287
a(I7
I7
tp288
a(I8
I3
tp289
a(I1
I7
tp290
a(I8
I6
tp291
a(I8
I4
tp292
a(I3
I5
tp293
atp294
Rp295
sg13
((I4
I9
tp296
(I8
I11
tp297
(I7
I1
tp298
(I3
I3
tp299
tp300
sg14
I12
sbs(iproblems
RoomID
p301
(dp302
g10
I6
sg11
(I3
I3
tp303
sg13
I4
sg14
I12
sg15
I12
sg16
I7193062864237573168
sb(imulti_robot_problem
MultiRobotState
p304
(dp305
g19
g20
((lp306
(I6
I4
tp307
a(I5
I4
tp308
a(I1
I3
tp309
a(I6
I6
tp310
a(I7
I1
tp311
a(I9
I3
tp312
a(I0
I7
tp313
a(I1
I6
tp314
a(I2
I5
tp315
a(I0
I8
tp316
a(I10
I3
tp317
a(I8
I3
tp318
a(I3
I1
tp319
ag303
a(I5
I7
tp320
a(I11
I3
tp321
a(I7
I4
tp322
a(I0
I9
tp323
a(I2
I3
tp324
a(I8
I4
tp325
a(I3
I4
tp326
a(I2
I4
tp327
a(I9
I7
tp328
atp329
Rp330
sg15
I12
sg29
g20
((lp331
(I2
I0
tp332
a(I2
I6
tp333
a(I6
I8
tp334
a(I0
I6
tp335
a(I4
I4
tp336
a(I7
I7
tp337
atp338
Rp339
sg13
((I11
I9
tp340
(I11
I2
tp341
(I4
I11
tp342
(I3
I6
tp343
tp344
sg14
I12
sbs(iproblems
RoomID
p345
(dp346
g10
I10
sg11
(I11
I0
tp347
sg13
I4
sg14
I9
sg15
I12
sg16
I2796939073032698495
sb(imulti_robot_problem
MultiRobotState
p348
(dp349
g19
g20
((lp350
(I7
I3
tp351
a(I5
I7
tp352
a(I9
I1
tp353
a(I6
I6
tp354
a(I8
I0
tp355
a(I7
I7
tp356
a(I5
I8
tp357
a(I3
I3
tp358
a(I8
I1
tp359
a(I4
I8
tp360
a(I6
I3
tp361
a(I7
I2
tp362
a(I3
I6
tp363
a(I6
I4
tp364
a(I5
I4
tp365
a(I2
I6
tp366
a(I7
I1
tp367
a(I4
I5
tp368
ag347
a(I2
I3
tp369
a(I10
I1
tp370
a(I1
I0
tp371
a(I6
I5
tp372
a(I5
I3
tp373
a(I8
I3
tp374
a(I7
I0
tp375
a(I6
I8
tp376
a(I9
I2
tp377
a(I6
I1
tp378
a(I3
I1
tp379
a(I8
I8
tp380
a(I4
I3
tp381
a(I5
I2
tp382
a(I10
I2
tp383
atp384
Rp385
sg15
I12
sg29
g20
((lp386
(I1
I2
tp387
a(I11
I7
tp388
a(I3
I2
tp389
a(I2
I8
tp390
a(I9
I3
tp391
a(I1
I6
tp392
a(I5
I0
tp393
a(I0
I3
tp394
a(I0
I8
tp395
a(I4
I1
tp396
atp397
Rp398
sg13
((I10
I8
tp399
(I4
I6
tp400
(I11
I4
tp401
(I7
I8
tp402
tp403
sg14
I9
sbs(iproblems
RoomID
p404
(dp405
g10
I10
sg11
(I3
I6
tp406
sg13
I4
sg14
I12
sg15
I11
sg16
I4278205817407065157
sb(imulti_robot_problem
MultiRobotState
p407
(dp408
g19
g20
((lp409
(I0
I1
tp410
a(I4
I7
tp411
a(I5
I6
tp412
a(I2
I8
tp413
a(I0
I10
tp414
a(I3
I7
tp415
a(I7
I11
tp416
a(I3
I3
tp417
a(I2
I7
tp418
a(I5
I3
tp419
a(I6
I7
tp420
a(I4
I6
tp421
a(I10
I7
tp422
a(I4
I4
tp423
a(I3
I8
tp424
a(I4
I5
tp425
ag406
a(I1
I10
tp426
a(I3
I5
tp427
a(I1
I9
tp428
atp429
Rp430
sg15
I11
sg29
g20
((lp431
(I1
I2
tp432
a(I8
I1
tp433
a(I9
I2
tp434
a(I6
I1
tp435
a(I5
I7
tp436
a(I8
I9
tp437
a(I3
I0
tp438
a(I9
I4
tp439
a(I0
I2
tp440
a(I4
I0
tp441
atp442
Rp443
sg13
((I6
I10
tp444
(I5
I11
tp445
(I2
I0
tp446
(I9
I1
tp447
tp448
sg14
I12
sbssg161
S'mild_roomset'
p449
sbsg161
g163
sg164
(dp450
g203
((lp451
(F3.3999999999996362
I60
tp452
a(F7.5399999999990541
I55
tp453
a(F19.399999999999636
I32
tp454
aF40.069999999999709
tp455
sg251
((lp456
(F12.180000000000291
I171
tp457
aF40.020000000000437
tp458
sg301
((lp459
(F0.92000000000007276
I25
tp460
aF40.079999999999927
tp461
sg345
((lp462
F40.010000000000218
tp463
sg404
((lp464
(F1.4099999999998545
I28
tp465
aF40.039999999999054
tp466
ssba(imeasure_core
ProblemSetSolution
p467
(dp468
g3
(imeasure_core
RoomSet
p469
(dp470
g6
(dp471
(iproblems
RoomID
p472
(dp473
g10
I11
sg11
(I10
I1
tp474
sg13
I7
sg14
I12
sg15
I13
sg16
I2405875930906139466
sb(imulti_robot_problem
MultiRobotState
p475
(dp476
g19
g20
((lp477
(I7
I3
tp478
a(I9
I1
tp479
a(I7
I1
tp480
a(I5
I6
tp481
a(I8
I11
tp482
a(I8
I0
tp483
a(I1
I4
tp484
a(I6
I2
tp485
a(I0
I7
tp486
ag474
a(I10
I3
tp487
a(I7
I2
tp488
a(I10
I4
tp489
a(I11
I7
tp490
a(I9
I0
tp491
a(I11
I5
tp492
a(I7
I4
tp493
a(I1
I5
tp494
a(I10
I2
tp495
a(I11
I6
tp496
a(I8
I4
tp497
atp498
Rp499
sg15
I13
sg29
g20
((lp500
(I12
I5
tp501
a(I10
I11
tp502
a(I8
I1
tp503
a(I7
I8
tp504
a(I8
I6
tp505
a(I6
I3
tp506
a(I2
I0
tp507
a(I2
I3
tp508
a(I5
I1
tp509
a(I10
I0
tp510
a(I3
I4
tp511
atp512
Rp513
sg13
((I10
I8
tp514
(I9
I2
tp515
(I4
I5
tp516
(I11
I8
tp517
(I1
I2
tp518
(I3
I1
tp519
(I0
I10
tp520
tp521
sg14
I12
sbs(iproblems
RoomID
p522
(dp523
g10
I11
sg11
(I7
I9
tp524
sg13
I6
sg14
I13
sg15
I10
sg16
I8744744311366254845
sb(imulti_robot_problem
MultiRobotState
p525
(dp526
g19
g20
((lp527
(I6
I9
tp528
a(I1
I3
tp529
a(I4
I9
tp530
a(I5
I6
tp531
a(I9
I8
tp532
a(I1
I8
tp533
a(I1
I0
tp534
ag524
a(I3
I4
tp535
a(I5
I8
tp536
a(I9
I7
tp537
atp538
Rp539
sg15
I10
sg29
g20
((lp540
(I0
I1
tp541
a(I7
I3
tp542
a(I9
I0
tp543
a(I1
I12
tp544
a(I4
I10
tp545
a(I5
I11
tp546
a(I9
I10
tp547
a(I7
I11
tp548
a(I3
I7
tp549
a(I0
I8
tp550
a(I9
I6
tp551
atp552
Rp553
sg13
((I0
I10
tp554
(I6
I3
tp555
(I4
I0
tp556
(I1
I6
tp557
(I7
I5
tp558
(I9
I9
tp559
tp560
sg14
I13
sbs(iproblems
RoomID
p561
(dp562
g10
I15
sg11
(I4
I8
tp563
sg13
I6
sg14
I13
sg15
I12
sg16
I4278205817407065157
sb(imulti_robot_problem
MultiRobotState
p564
(dp565
g19
g20
((lp566
(I11
I7
tp567
a(I2
I9
tp568
ag563
a(I5
I6
tp569
a(I2
I8
tp570
a(I6
I10
tp571
a(I3
I8
tp572
a(I11
I8
tp573
a(I3
I9
tp574
a(I1
I10
tp575
a(I1
I11
tp576
a(I7
I8
tp577
a(I2
I4
tp578
atp579
Rp580
sg15
I12
sg29
g20
((lp581
(I1
I2
tp582
a(I0
I1
tp583
a(I5
I4
tp584
a(I5
I7
tp585
a(I10
I4
tp586
a(I7
I1
tp587
a(I3
I1
tp588
a(I10
I5
tp589
a(I4
I7
tp590
a(I9
I9
tp591
a(I0
I10
tp592
a(I4
I3
tp593
a(I8
I12
tp594
a(I4
I1
tp595
a(I0
I2
tp596
atp597
Rp598
sg13
((I7
I10
tp599
(I6
I12
tp600
(I2
I0
tp601
(I9
I1
tp602
(I10
I3
tp603
(I4
I0
tp604
tp605
sg14
I13
sbs(iproblems
RoomID
p606
(dp607
g10
I15
sg11
(I3
I6
tp608
sg13
I7
sg14
I10
sg15
I13
sg16
I2796939073032698495
sb(imulti_robot_problem
MultiRobotState
p609
(dp610
g19
g20
((lp611
(I5
I9
tp612
a(I6
I9
tp613
a(I4
I6
tp614
a(I5
I0
tp615
a(I6
I6
tp616
a(I4
I5
tp617
a(I5
I4
tp618
a(I6
I7
tp619
a(I6
I2
tp620
a(I0
I5
tp621
a(I8
I7
tp622
a(I5
I1
tp623
a(I6
I4
tp624
a(I12
I9
tp625
a(I5
I8
tp626
a(I5
I3
tp627
a(I2
I7
tp628
a(I4
I9
tp629
a(I5
I5
tp630
a(I3
I1
tp631
a(I4
I8
tp632
a(I2
I0
tp633
a(I3
I9
tp634
a(I6
I5
tp635
ag608
a(I5
I7
tp636
a(I7
I8
tp637
atp638
Rp639
sg15
I13
sg29
g20
((lp640
(I1
I2
tp641
a(I8
I2
tp642
a(I2
I9
tp643
a(I12
I0
tp644
a(I4
I1
tp645
a(I12
I8
tp646
a(I6
I0
tp647
a(I9
I9
tp648
a(I2
I3
tp649
a(I9
I4
tp650
a(I1
I7
tp651
a(I0
I9
tp652
a(I7
I9
tp653
a(I3
I4
tp654
a(I3
I3
tp655
atp656
Rp657
sg13
((I10
I2
tp658
(I11
I8
tp659
(I12
I5
tp660
(I8
I9
tp661
(I10
I3
tp662
(I0
I3
tp663
(I11
I2
tp664
tp665
sg14
I10
sbs(iproblems
RoomID
p666
(dp667
g10
I15
sg11
(I5
I8
tp668
sg13
I7
sg14
I13
sg15
I11
sg16
I8655808914197340073
sb(imulti_robot_problem
MultiRobotState
p669
(dp670
g19
g20
((lp671
(I5
I9
tp672
a(I6
I7
tp673
a(I6
I11
tp674
a(I1
I4
tp675
a(I0
I12
tp676
a(I0
I11
tp677
a(I7
I5
tp678
a(I1
I6
tp679
a(I0
I4
tp680
a(I5
I10
tp681
a(I3
I9
tp682
a(I4
I9
tp683
a(I10
I3
tp684
ag668
atp685
Rp686
sg15
I11
sg29
g20
((lp687
(I2
I7
tp688
a(I7
I3
tp689
a(I4
I6
tp690
a(I1
I12
tp691
a(I5
I6
tp692
a(I8
I5
tp693
a(I7
I7
tp694
a(I7
I9
tp695
a(I2
I0
tp696
a(I9
I4
tp697
a(I7
I10
tp698
a(I0
I8
tp699
a(I9
I6
tp700
a(I6
I5
tp701
a(I9
I7
tp702
atp703
Rp704
sg13
((I9
I11
tp705
(I8
I1
tp706
(I3
I4
tp707
(I8
I7
tp708
(I9
I1
tp709
(I2
I10
tp710
(I2
I12
tp711
tp712
sg14
I13
sbssg161
S'heavy_roomset'
p713
sbsg161
g163
sg164
(dp714
g472
((lp715
F41.170000000000073
tp716
sg522
((lp717
(F12.430000000000291
I13
tp718
aF41.950000000000728
tp719
sg561
((lp720
(F21.010000000000218
I15
tp721
aF40.180000000000291
tp722
sg606
((lp723
F40.229999999999563
tp724
sg666
((lp725
F42.340000000000146
tp726
ssba(imeasure_core
ProblemSetSolution
p727
(dp728
g3
g4
sg161
S"AnytimeBeam-w20-gf(1.5, 'exp')_with_PowerHeuristic2"
p729
sg164
(dp730
g8
((lp731
(F0.47999999999956344
I10
tp732
aF40.0
tp733
sg44
((lp734
(F0.32999999999992724
I14
tp735
aF40.0
tp736
sg71
((lp737
(F1.5100000000002183
I9
tp738
aF40.519999999998618
tp739
sg105
((lp740
(F5.070000000001528
I144
tp741
aF40.0
tp742
sg136
((lp743
(F0.090000000000145519
I49
tp744
a(F0.56000000000130967
I47
tp745
a(F0.78000000000065484
I45
tp746
a(F1.0500000000010914
I43
tp747
a(F1.4900000000016007
I41
tp748
a(F1.9200000000000728
I40
tp749
a(F2.930000000000291
I39
tp750
a(F3.8299999999999272
I38
tp751
a(F5.0900000000001455
I37
tp752
a(F6.2600000000002183
I35
tp753
a(F7.9100000000016735
I33
tp754
a(F10.240000000001601
I31
tp755
a(F12.210000000000946
I29
tp756
a(F13.790000000000873
I27
tp757
a(F15.780000000000655
I25
tp758
a(F20.160000000001673
I24
tp759
a(F24.070000000001528
I22
tp760
a(F27.380000000001019
I20
tp761
aF40.0
tp762
ssba(imeasure_core
ProblemSetSolution
p763
(dp764
g3
g200
sg161
g729
sg164
(dp765
g203
((lp766
(F3.3800000000010186
I60
tp767
a(F8.1500000000014552
I55
tp768
a(F14.160000000001673
I32
tp769
aF40.010000000000218
tp770
sg251
((lp771
(F12.150000000001455
I171
tp772
aF40.030000000000655
tp773
sg301
((lp774
(F0.92000000000007276
I25
tp775
aF40.030000000000655
tp776
sg345
((lp777
F40.009999999998399
tp778
sg404
((lp779
(F1.4000000000014552
I28
tp780
aF40.170000000000073
tp781
ssba(imeasure_core
ProblemSetSolution
p782
(dp783
g3
g469
sg161
g729
sg164
(dp784
g472
((lp785
F40.950000000000728
tp786
sg522
((lp787
(F12.420000000000073
I13
tp788
aF40.069999999999709
tp789
sg561
((lp790
(F20.899999999999636
I15
tp791
aF40.020000000000437
tp792
sg606
((lp793
F40.389999999999418
tp794
sg666
((lp795
F42.230000000001382
tp796
ssba(imeasure_core
ProblemSetSolution
p797
(dp798
g3
g4
sg161
S"AnytimeBeam-w20-gf(1.7, 'exp')_with_PowerHeuristic2"
p799
sg164
(dp800
g8
((lp801
(F0.47000000000116415
I10
tp802
aF40.180000000000291
tp803
sg44
((lp804
(F0.32999999999992724
I14
tp805
aF40.329999999999927
tp806
sg71
((lp807
(F1.5100000000002183
I9
tp808
aF41.360000000000582
tp809
sg105
((lp810
(F5.069999999999709
I144
tp811
aF40.110000000000582
tp812
sg136
((lp813
(F0.090000000000145519
I49
tp814
a(F0.28999999999905413
I47
tp815
a(F0.51000000000021828
I45
tp816
a(F0.78999999999905413
I43
tp817
a(F1.2299999999995634
I41
tp818
a(F1.6499999999996362
I40
tp819
a(F2.6700000000000728
I39
tp820
a(F3.5799999999999272
I38
tp821
a(F4.8599999999987631
I37
tp822
a(F6.0399999999990541
I35
tp823
a(F7.6999999999989086
I33
tp824
a(F10.049999999999272
I31
tp825
a(F12.019999999998618
I29
tp826
a(F13.590000000000146
I27
tp827
a(F15.579999999999927
I25
tp828
a(F19.929999999998472
I24
tp829
a(F23.809999999999491
I22
tp830
a(F27.109999999998763
I20
tp831
aF40.0
tp832
ssba(imeasure_core
ProblemSetSolution
p833
(dp834
g3
g200
sg161
g799
sg164
(dp835
g203
((lp836
(F3.3799999999991996
I60
tp837
a(F9.0299999999988358
I55
tp838
a(F15.269999999998618
I32
tp839
aF40.029999999998836
tp840
sg251
((lp841
(F12.020000000000437
I171
tp842
aF40.030000000000655
tp843
sg301
((lp844
(F0.92000000000007276
I25
tp845
aF40.110000000000582
tp846
sg345
((lp847
F40.0
tp848
sg404
((lp849
(F1.3999999999996362
I28
tp850
aF40.229999999999563
tp851
ssba(imeasure_core
ProblemSetSolution
p852
(dp853
g3
g469
sg161
g799
sg164
(dp854
g472
((lp855
F40.949999999998909
tp856
sg522
((lp857
(F12.380000000001019
I13
tp858
aF40.050000000001091
tp859
sg561
((lp860
(F21.010000000000218
I15
tp861
aF40.920000000000073
tp862
sg606
((lp863
F40.459999999999127
tp864
sg666
((lp865
F42.209999999999127
tp866
ssba(imeasure_core
ProblemSetSolution
p867
(dp868
g3
g4
sg161
S"AnytimeBeam-w20-gf(1.8999999999999999, 'exp')_with_PowerHeuristic2"
p869
sg164
(dp870
g8
((lp871
(F0.47999999999956344
I10
tp872
aF40.440000000002328
tp873
sg44
((lp874
(F0.32999999999810825
I14
tp875
aF40.259999999998399
tp876
sg71
((lp877
(F1.5100000000020373
I9
tp878
aF40.020000000000437
tp879
sg105
((lp880
(F5.1199999999989814
I144
tp881
aF40.0
tp882
sg136
((lp883
(F0.090000000000145519
I49
tp884
a(F0.30000000000291038
I47
tp885
a(F0.52000000000043656
I45
tp886
a(F0.79000000000087311
I43
tp887
a(F1.2300000000032014
I41
tp888
a(F1.6599999999998545
I40
tp889
a(F2.680000000000291
I39
tp890
a(F3.5900000000001455
I38
tp891
a(F4.8700000000026193
I37
tp892
a(F6.0600000000013097
I35
tp893
a(F7.7200000000011642
I33
tp894
a(F10.070000000003347
I31
tp895
a(F12.040000000000873
I29
tp896
a(F13.600000000002183
I27
tp897
a(F15.590000000000146
I25
tp898
a(F19.940000000002328
I24
tp899
a(F23.840000000000146
I22
tp900
a(F27.130000000001019
I20
tp901
aF40.0
tp902
ssba(imeasure_core
ProblemSetSolution
p903
(dp904
g3
g200
sg161
g869
sg164
(dp905
g203
((lp906
(F3.4000000000014552
I60
tp907
a(F9.6900000000023283
I55
tp908
a(F16.330000000001746
I32
tp909
aF40.080000000001746
tp910
sg251
((lp911
(F12.159999999999854
I171
tp912
aF40.119999999998981
tp913
sg301
((lp914
(F0.92000000000189175
I25
tp915
aF40.030000000002474
tp916
sg345
((lp917
F40.009999999998399
tp918
sg404
((lp919
(F1.4000000000014552
I28
tp920
aF40.029999999998836
tp921
ssba(imeasure_core
ProblemSetSolution
p922
(dp923
g3
g469
sg161
g869
sg164
(dp924
g472
((lp925
F40.899999999997817
tp926
sg522
((lp927
(F12.409999999999854
I13
tp928
aF40.830000000001746
tp929
sg561
((lp930
(F20.860000000000582
I15
tp931
aF40.840000000000146
tp932
sg606
((lp933
F40.43999999999869
tp934
sg666
((lp935
F42.290000000000873
tp936
ssba(imeasure_core
ProblemSetSolution
p937
(dp938
g3
g4
sg161
S"AnytimeBeam-w20-gf(1.3, 'exp')_with_LinearHeuristic"
p939
sg164
(dp940
g8
((lp941
F40.380000000001019
tp942
sg44
((lp943
F40.229999999999563
tp944
sg71
((lp945
(F1.930000000000291
I6
tp946
aF40.450000000000728
tp947
sg105
((lp948
(F1.1399999999994179
I58
tp949
aF40.0
tp950
sg136
((lp951
(F0.020000000000436557
I22
tp952
a(F0.49000000000160071
I20
tp953
aF40.0
tp954
ssba(imeasure_core
ProblemSetSolution
p955
(dp956
g3
g200
sg161
g939
sg164
(dp957
g203
((lp958
F40.009999999998399
tp959
sg251
((lp960
F40.480000000003201
tp961
sg301
((lp962
F40.009999999998399
tp963
sg345
((lp964
F40.259999999998399
tp965
sg404
((lp966
(F15.630000000001019
I146
tp967
aF40.040000000000873
tp968
ssba(imeasure_core
ProblemSetSolution
p969
(dp970
g3
g469
sg161
g939
sg164
(dp971
g472
((lp972
F47.680000000000291
tp973
sg522
((lp974
(F11.430000000000291
I8
tp975
aF41.010000000002037
tp976
sg561
((lp977
F40.129999999997381
tp978
sg606
((lp979
F40.370000000002619
tp980
sg666
((lp981
F45.059999999997672
tp982
ssba(imeasure_core
ProblemSetSolution
p983
(dp984
g3
g4
sg161
S"AnytimeBeam-w20-gf(1.5, 'exp')_with_LinearHeuristic"
p985
sg164
(dp986
g8
((lp987
F40.180000000000291
tp988
sg44
((lp989
F40.25
tp990
sg71
((lp991
(F1.9399999999986903
I6
tp992
aF40.180000000000291
tp993
sg105
((lp994
(F1.1699999999982538
I58
tp995
a(F36.75
I56
tp996
aF40.009999999998399
tp997
sg136
((lp998
(F0.020000000000436557
I22
tp999
a(F0.40000000000145519
I20
tp1000
aF40.0
tp1001
ssba(imeasure_core
ProblemSetSolution
p1002
(dp1003
g3
g200
sg161
g985
sg164
(dp1004
g203
((lp1005
F40.099999999998545
tp1006
sg251
((lp1007
F40.530000000002474
tp1008
sg301
((lp1009
F40.020000000000437
tp1010
sg345
((lp1011
F40.069999999999709
tp1012
sg404
((lp1013
(F15.479999999999563
I146
tp1014
aF40.039999999997235
tp1015
ssba(imeasure_core
ProblemSetSolution
p1016
(dp1017
g3
g469
sg161
g985
sg164
(dp1018
g472
((lp1019
F47.619999999998981
tp1020
sg522
((lp1021
(F11.479999999999563
I8
tp1022
aF41.650000000001455
tp1023
sg561
((lp1024
F40.209999999999127
tp1025
sg606
((lp1026
F40.389999999999418
tp1027
sg666
((lp1028
F45.279999999998836
tp1029
ssba(imeasure_core
ProblemSetSolution
p1030
(dp1031
g3
g4
sg161
S"AnytimeBeam-w20-gf(1.7, 'exp')_with_LinearHeuristic"
p1032
sg164
(dp1033
g8
((lp1034
F40.159999999999854
tp1035
sg44
((lp1036
F40.110000000000582
tp1037
sg71
((lp1038
(F1.930000000000291
I6
tp1039
aF40.790000000000873
tp1040
sg105
((lp1041
(F1.1499999999978172
I58
tp1042
a(F32.959999999999127
I56
tp1043
aF40.069999999999709
tp1044
sg136
((lp1045
(F0.019999999996798579
I22
tp1046
a(F0.23999999999796273
I20
tp1047
aF40.0
tp1048
ssba(imeasure_core
ProblemSetSolution
p1049
(dp1050
g3
g200
sg161
g1032
sg164
(dp1051
g203
((lp1052
F40.009999999998399
tp1053
sg251
((lp1054
F40.470000000001164
tp1055
sg301
((lp1056
F40.069999999999709
tp1057
sg345
((lp1058
F40.270000000000437
tp1059
sg404
((lp1060
(F15.489999999997963
I146
tp1061
aF40.020000000000437
tp1062
ssba(imeasure_core
ProblemSetSolution
p1063
(dp1064
g3
g469
sg161
g1032
sg164
(dp1065
g472
((lp1066
F47.740000000001601
tp1067
sg522
((lp1068
(F11.459999999999127
I8
tp1069
aF41.429999999996653
tp1070
sg561
((lp1071
F40.06000000000131
tp1072
sg606
((lp1073
F40.299999999999272
tp1074
sg666
((lp1075
F45.270000000000437
tp1076
ssba(imeasure_core
ProblemSetSolution
p1077
(dp1078
g3
g4
sg161
S"AnytimeBeam-w20-gf(1.8999999999999999, 'exp')_with_LinearHeuristic"
p1079
sg164
(dp1080
g8
((lp1081
F40.119999999998981
tp1082
sg44
((lp1083
F40.380000000001019
tp1084
sg71
((lp1085
(F1.930000000000291
I6
tp1086
aF40.639999999999418
tp1087
sg105
((lp1088
(F1.1499999999978172
I58
tp1089
a(F26.5
I56
tp1090
aF40.040000000000873
tp1091
sg136
((lp1092
(F0.019999999996798579
I22
tp1093
a(F0.25
I20
tp1094
aF40.0
tp1095
ssba(imeasure_core
ProblemSetSolution
p1096
(dp1097
g3
g200
sg161
g1079
sg164
(dp1098
g203
((lp1099
F40.139999999999418
tp1100
sg251
((lp1101
F40.389999999999418
tp1102
sg301
((lp1103
F40.090000000000146
tp1104
sg345
((lp1105
F40.209999999999127
tp1106
sg404
((lp1107
(F15.540000000000873
I146
tp1108
aF40.090000000000146
tp1109
ssba(imeasure_core
ProblemSetSolution
p1110
(dp1111
g3
g469
sg161
g1079
sg164
(dp1112
g472
((lp1113
F47.56000000000131
tp1114
sg522
((lp1115
(F11.520000000000437
I8
tp1116
aF40.770000000000437
tp1117
sg561
((lp1118
F40.119999999998981
tp1119
sg606
((lp1120
F40.400000000001455
tp1121
sg666
((lp1122
F45.18999999999869
tp1123
ssba.