(lp0
(imeasure_core
ProblemSetSolution
p1
(dp2
S'roomset'
p3
(imeasure_core
RoomSet
p4
(dp5
S'rooms'
p6
(dp7
(iproblems
RoomID
p8
(dp9
S'dusts'
p10
I9
sS'obstacles'
p11
(I5
I3
tp12
sS'robots'
p13
I3
sS'height'
p14
I7
sS'width'
p15
I8
sS'seed'
p16
I4594210616595436404
sb(imulti_robot_problem
MultiRobotState
p17
(dp18
S'obstacle_locations'
p19
c__builtin__
frozenset
p20
((lp21
(I0
I1
tp22
a(I3
I3
tp23
a(I4
I3
tp24
a(I4
I2
tp25
a(I6
I1
tp26
ag12
atp27
Rp28
sg15
I8
sS'dirt_locations'
p29
g20
((lp30
(I6
I6
tp31
a(I5
I6
tp32
a(I4
I4
tp33
a(I1
I4
tp34
a(I0
I6
tp35
a(I5
I1
tp36
a(I1
I0
tp37
a(I0
I3
tp38
a(I1
I1
tp39
atp40
Rp41
sg13
((I2
I1
tp42
(I3
I4
tp43
(I3
I6
tp44
tp45
sg14
I7
sbs(iproblems
RoomID
p46
(dp47
g10
I10
sg11
(I4
I8
tp48
sg13
I4
sg14
I10
sg15
I7
sg16
I956523682424107605
sb(imulti_robot_problem
MultiRobotState
p49
(dp50
g19
g20
((lp51
(I2
I8
tp52
ag48
a(I3
I7
tp53
a(I2
I9
tp54
a(I4
I2
tp55
atp56
Rp57
sg15
I7
sg29
g20
((lp58
(I5
I9
tp59
a(I4
I7
tp60
a(I1
I3
tp61
a(I3
I3
tp62
a(I5
I5
tp63
a(I6
I1
tp64
a(I5
I4
tp65
a(I0
I4
tp66
a(I5
I2
tp67
a(I5
I3
tp68
atp69
Rp70
sg13
((I1
I9
tp71
(I4
I9
tp72
(I1
I8
tp73
(I0
I3
tp74
tp75
sg14
I10
sbs(iproblems
RoomID
p76
(dp77
g10
I10
sg11
(I0
I8
tp78
sg13
I4
sg14
I10
sg15
I9
sg16
I4712128852136459333
sb(imulti_robot_problem
MultiRobotState
p79
(dp80
g19
g20
((lp81
(I0
I6
tp82
ag78
a(I2
I3
tp83
a(I1
I5
tp84
a(I8
I0
tp85
a(I1
I1
tp86
a(I0
I7
tp87
atp88
Rp89
sg15
I9
sg29
g20
((lp90
(I4
I7
tp91
a(I1
I3
tp92
a(I4
I9
tp93
a(I8
I1
tp94
a(I7
I6
tp95
a(I2
I6
tp96
a(I8
I7
tp97
a(I2
I2
tp98
a(I4
I1
tp99
a(I2
I4
tp100
atp101
Rp102
sg13
((I5
I8
tp103
(I6
I9
tp104
(I5
I0
tp105
(I3
I1
tp106
tp107
sg14
I10
sbs(iproblems
RoomID
p108
(dp109
g10
I9
sg11
(I3
I4
tp110
sg13
I1
sg14
I7
sg15
I8
sg16
I6613812840851947673
sb(imulti_robot_problem
MultiRobotState
p111
(dp112
g19
g20
((lp113
(I3
I5
tp114
ag110
a(I2
I4
tp115
a(I2
I1
tp116
a(I1
I4
tp117
atp118
Rp119
sg15
I8
sg29
g20
((lp120
(I6
I4
tp121
a(I5
I4
tp122
a(I6
I0
tp123
a(I7
I5
tp124
a(I1
I6
tp125
a(I2
I2
tp126
a(I0
I5
tp127
a(I4
I1
tp128
a(I4
I0
tp129
atp130
Rp131
sg13
((I3
I1
tp132
tp133
sg14
I7
sbs(iproblems
RoomID
p134
(dp135
g10
I10
sg11
(I4
I5
tp136
sg13
I1
sg14
I8
sg15
I8
sg16
I2893396244277848635
sb(imulti_robot_problem
MultiRobotState
p137
(dp138
g19
g20
((lp139
g136
a(I3
I7
tp140
a(I2
I6
tp141
a(I4
I6
tp142
atp143
Rp144
sg15
I8
sg29
g20
((lp145
(I6
I4
tp146
a(I0
I0
tp147
a(I6
I7
tp148
a(I3
I0
tp149
a(I2
I1
tp150
a(I0
I6
tp151
a(I7
I2
tp152
a(I2
I4
tp153
a(I6
I5
tp154
a(I5
I3
tp155
atp156
Rp157
sg13
((I2
I3
tp158
tp159
sg14
I8
sbssS'name'
p160
S'easy_roomset'
p161
sbsg160
S"AnytimeBeam-w5-gf(1.5, 'exp')_with_PowerHeuristic2"
p162
sS'solutions'
p163
(dp164
g76
((lp165
(F7.400000000001455
I51
tp166
aF40.169999999998254
tp167
sg46
((lp168
(F1.0299999999988358
I10
tp169
aF40.029999999998836
tp170
sg8
((lp171
(F0.819999999999709
I31
tp172
a(F6.479999999999563
I29
tp173
a(F8.289999999997235
I26
tp174
aF40.0
tp175
sg108
((lp176
(F0.08000000000174623
I36
tp177
a(F0.8800000000010186
I30
tp178
a(F1.569999999999709
I29
tp179
a(F6.270000000000437
I28
tp180
a(F12.330000000001746
I27
tp181
a(F24.040000000000873
I26
tp182
a(F34.04000000000087
I25
tp183
aF40.0
tp184
sg134
((lp185
(F0.3400000000001455
I61
tp186
a(F1.2900000000008731
I57
tp187
a(F2.1599999999998545
I56
tp188
a(F3.3300000000017462
I54
tp189
a(F4.420000000001892
I52
tp190
a(F6.31000000000131
I51
tp191
a(F9.069999999999709
I50
tp192
a(F11.819999999999709
I48
tp193
a(F14.690000000002328
I46
tp194
a(F17.659999999999854
I44
tp195
a(F26.040000000000873
I43
tp196
a(F33.909999999999854
I42
tp197
aF40.0
tp198
ssba(imeasure_core
ProblemSetSolution
p199
(dp200
g3
(imeasure_core
RoomSet
p201
(dp202
g6
(dp203
(iproblems
RoomID
p204
(dp205
g10
I9
sg11
(I4
I4
tp206
sg13
I3
sg14
I9
sg15
I10
sg16
I4594210616595436404
sb(imulti_robot_problem
MultiRobotState
p207
(dp208
g19
g20
((lp209
(I1
I3
tp210
a(I3
I0
tp211
a(I2
I1
tp212
a(I1
I6
tp213
a(I9
I4
tp214
a(I3
I7
tp215
a(I0
I3
tp216
a(I1
I2
tp217
a(I5
I5
tp218
a(I1
I5
tp219
a(I7
I6
tp220
ag206
a(I6
I3
tp221
a(I5
I6
tp222
a(I3
I6
tp223
a(I0
I4
tp224
a(I8
I6
tp225
a(I3
I5
tp226
a(I1
I1
tp227
a(I5
I4
tp228
a(I4
I5
tp229
a(I0
I5
tp230
a(I5
I3
tp231
a(I0
I1
tp232
a(I5
I2
tp233
a(I0
I6
tp234
a(I2
I0
tp235
a(I1
I8
tp236
a(I2
I3
tp237
a(I9
I5
tp238
a(I3
I4
tp239
a(I0
I2
tp240
atp241
Rp242
sg15
I10
sg29
g20
((lp243
(I7
I8
tp244
a(I7
I0
tp245
a(I6
I8
tp246
a(I2
I8
tp247
a(I8
I8
tp248
a(I0
I8
tp249
a(I8
I5
tp250
a(I5
I8
tp251
a(I8
I2
tp252
atp253
Rp254
sg13
((I4
I6
tp255
(I2
I5
tp256
(I6
I1
tp257
tp258
sg14
I9
sbs(iproblems
RoomID
p259
(dp260
g10
I8
sg11
(I5
I0
tp261
sg13
I4
sg14
I9
sg15
I9
sg16
I6858376947525423350
sb(imulti_robot_problem
MultiRobotState
p262
(dp263
g19
g20
((lp264
(I6
I4
tp265
a(I4
I7
tp266
a(I1
I3
tp267
a(I4
I3
tp268
a(I7
I1
tp269
a(I3
I0
tp270
a(I2
I8
tp271
a(I6
I0
tp272
a(I2
I1
tp273
a(I1
I6
tp274
a(I5
I1
tp275
a(I2
I5
tp276
a(I0
I8
tp277
a(I7
I2
tp278
a(I2
I7
tp279
a(I3
I8
tp280
a(I5
I5
tp281
a(I6
I1
tp282
a(I5
I7
tp283
a(I6
I3
tp284
a(I1
I8
tp285
ag261
a(I2
I2
tp286
a(I2
I3
tp287
a(I3
I4
tp288
a(I2
I4
tp289
atp290
Rp291
sg15
I9
sg29
g20
((lp292
(I8
I3
tp293
a(I7
I0
tp294
a(I4
I6
tp295
a(I6
I6
tp296
a(I7
I5
tp297
a(I8
I0
tp298
a(I8
I8
tp299
a(I8
I4
tp300
atp301
Rp302
sg13
((I1
I1
tp303
(I6
I5
tp304
(I8
I2
tp305
(I1
I5
tp306
tp307
sg14
I9
sbs(iproblems
RoomID
p308
(dp309
g10
I5
sg11
(I4
I9
tp310
sg13
I4
sg14
I11
sg15
I11
sg16
I1881095652490078568
sb(imulti_robot_problem
MultiRobotState
p311
(dp312
g19
g20
((lp313
(I6
I9
tp314
a(I6
I6
tp315
a(I4
I5
tp316
a(I2
I8
tp317
a(I9
I3
tp318
a(I4
I7
tp319
a(I7
I5
tp320
a(I5
I4
tp321
ag310
a(I6
I5
tp322
a(I3
I5
tp323
a(I7
I4
tp324
a(I1
I7
tp325
a(I6
I7
tp326
a(I4
I6
tp327
a(I7
I6
tp328
a(I4
I4
tp329
a(I8
I10
tp330
a(I6
I3
tp331
a(I7
I10
tp332
a(I2
I2
tp333
a(I4
I8
tp334
a(I7
I8
tp335
a(I1
I1
tp336
a(I8
I4
tp337
atp338
Rp339
sg15
I11
sg29
g20
((lp340
(I1
I10
tp341
a(I5
I9
tp342
a(I0
I0
tp343
a(I10
I2
tp344
a(I9
I7
tp345
atp346
Rp347
sg13
((I5
I7
tp348
(I8
I1
tp349
(I3
I1
tp350
(I8
I8
tp351
tp352
sg14
I11
sbs(iproblems
RoomID
p353
(dp354
g10
I6
sg11
(I8
I8
tp355
sg13
I4
sg14
I11
sg15
I12
sg16
I7529058068588108450
sb(imulti_robot_problem
MultiRobotState
p356
(dp357
g19
g20
((lp358
(I5
I9
tp359
a(I6
I9
tp360
a(I2
I6
tp361
a(I3
I2
tp362
a(I9
I1
tp363
a(I4
I10
tp364
a(I6
I6
tp365
a(I7
I7
tp366
a(I7
I1
tp367
a(I4
I6
tp368
a(I10
I4
tp369
a(I7
I5
tp370
a(I6
I8
tp371
a(I3
I7
tp372
a(I5
I8
tp373
a(I8
I2
tp374
a(I5
I5
tp375
a(I7
I6
tp376
a(I4
I4
tp377
a(I7
I4
tp378
a(I1
I5
tp379
ag355
a(I7
I2
tp380
a(I3
I6
tp381
a(I2
I2
tp382
a(I1
I10
tp383
a(I7
I8
tp384
a(I3
I10
tp385
atp386
Rp387
sg15
I12
sg29
g20
((lp388
(I7
I3
tp389
a(I0
I5
tp390
a(I4
I0
tp391
a(I11
I3
tp392
a(I11
I6
tp393
a(I6
I0
tp394
atp395
Rp396
sg13
((I11
I7
tp397
(I6
I2
tp398
(I11
I5
tp399
(I6
I7
tp400
tp401
sg14
I11
sbs(iproblems
RoomID
p402
(dp403
g10
I10
sg11
(I8
I7
tp404
sg13
I4
sg14
I12
sg15
I11
sg16
I4712128852136459333
sb(imulti_robot_problem
MultiRobotState
p405
(dp406
g19
g20
((lp407
(I6
I4
tp408
a(I4
I7
tp409
ag404
a(I4
I5
tp410
a(I3
I11
tp411
a(I0
I7
tp412
a(I7
I7
tp413
a(I1
I6
tp414
a(I1
I9
tp415
a(I2
I10
tp416
a(I4
I2
tp417
a(I1
I11
tp418
a(I6
I5
tp419
a(I5
I3
tp420
a(I9
I0
tp421
a(I0
I8
tp422
a(I5
I5
tp423
a(I7
I6
tp424
a(I3
I1
tp425
a(I2
I11
tp426
a(I0
I9
tp427
a(I2
I3
tp428
a(I4
I1
tp429
a(I1
I1
tp430
atp431
Rp432
sg15
I11
sg29
g20
((lp433
(I2
I7
tp434
a(I9
I1
tp435
a(I9
I8
tp436
a(I5
I1
tp437
a(I2
I5
tp438
a(I9
I7
tp439
a(I3
I4
tp440
a(I2
I4
tp441
a(I5
I8
tp442
a(I3
I3
tp443
atp444
Rp445
sg13
((I6
I10
tp446
(I8
I10
tp447
(I7
I0
tp448
(I5
I11
tp449
tp450
sg14
I12
sbssg160
S'mild_roomset'
p451
sbsg160
g162
sg163
(dp452
g204
((lp453
F40.090000000000146
tp454
sg259
((lp455
(F0.7299999999995634
I16
tp456
aF40.05000000000291
tp457
sg308
((lp458
(F0.5199999999967986
I7
tp459
aF40.029999999998836
tp460
sg353
((lp461
(F2.7999999999992724
I33
tp462
aF40.159999999999854
tp463
sg402
((lp464
(F3.7000000000007276
I23
tp465
aF40.400000000001455
tp466
ssba(imeasure_core
ProblemSetSolution
p467
(dp468
g3
(imeasure_core
RoomSet
p469
(dp470
g6
(dp471
(iproblems
RoomID
p472
(dp473
g10
I15
sg11
(I4
I8
tp474
sg13
I6
sg14
I13
sg15
I10
sg16
I956523682424107605
sb(imulti_robot_problem
MultiRobotState
p475
(dp476
g19
g20
((lp477
(I5
I9
tp478
a(I6
I9
tp479
a(I7
I10
tp480
ag474
a(I5
I6
tp481
a(I3
I11
tp482
a(I9
I4
tp483
a(I4
I9
tp484
a(I5
I8
tp485
a(I2
I7
tp486
a(I5
I10
tp487
a(I5
I5
tp488
a(I3
I10
tp489
a(I5
I7
tp490
a(I9
I9
tp491
a(I5
I0
tp492
a(I7
I8
tp493
a(I1
I1
tp494
atp495
Rp496
sg15
I10
sg29
g20
((lp497
(I6
I10
tp498
a(I8
I3
tp499
a(I1
I3
tp500
a(I6
I6
tp501
a(I7
I6
tp502
a(I8
I12
tp503
a(I5
I4
tp504
a(I1
I4
tp505
a(I2
I10
tp506
a(I7
I4
tp507
a(I1
I5
tp508
a(I7
I5
tp509
a(I0
I9
tp510
a(I7
I11
tp511
a(I6
I2
tp512
atp513
Rp514
sg13
((I1
I12
tp515
(I6
I12
tp516
(I2
I11
tp517
(I0
I4
tp518
(I9
I1
tp519
(I7
I7
tp520
tp521
sg14
I13
sbs(iproblems
RoomID
p522
(dp523
g10
I15
sg11
(I6
I6
tp524
sg13
I5
sg14
I11
sg15
I11
sg16
I2893396244277848635
sb(imulti_robot_problem
MultiRobotState
p525
(dp526
g19
g20
((lp527
(I7
I3
tp528
a(I4
I7
tp529
a(I5
I5
tp530
a(I4
I8
tp531
a(I5
I6
tp532
a(I2
I8
tp533
ag524
a(I3
I2
tp534
a(I3
I9
tp535
a(I4
I3
tp536
a(I1
I7
tp537
a(I6
I9
tp538
atp539
Rp540
sg15
I11
sg29
g20
((lp541
(I2
I6
tp542
a(I8
I7
tp543
a(I3
I10
tp544
a(I3
I1
tp545
a(I2
I10
tp546
a(I0
I5
tp547
a(I6
I5
tp548
a(I3
I6
tp549
a(I8
I6
tp550
a(I4
I0
tp551
a(I3
I7
tp552
a(I7
I9
tp553
a(I4
I1
tp554
a(I5
I8
tp555
a(I5
I3
tp556
atp557
Rp558
sg13
((I4
I5
tp559
(I0
I9
tp560
(I0
I1
tp561
(I9
I2
tp562
(I8
I10
tp563
tp564
sg14
I11
sbs(iproblems
RoomID
p565
(dp566
g10
I14
sg11
(I5
I5
tp567
sg13
I5
sg14
I10
sg15
I11
sg16
I6613812840851947673
sb(imulti_robot_problem
MultiRobotState
p568
(dp569
g19
g20
((lp570
(I4
I7
tp571
a(I2
I6
tp572
a(I6
I6
tp573
a(I4
I5
tp574
a(I7
I5
tp575
a(I1
I6
tp576
a(I8
I7
tp577
a(I3
I7
tp578
a(I10
I3
tp579
a(I3
I5
tp580
a(I10
I8
tp581
a(I6
I3
tp582
ag567
a(I8
I5
tp583
a(I7
I4
tp584
a(I3
I8
tp585
a(I0
I6
tp586
a(I3
I6
tp587
a(I1
I3
tp588
a(I8
I6
tp589
a(I2
I4
tp590
atp591
Rp592
sg15
I11
sg29
g20
((lp593
(I6
I4
tp594
a(I3
I2
tp595
a(I4
I6
tp596
a(I4
I9
tp597
a(I3
I3
tp598
a(I9
I8
tp599
a(I8
I0
tp600
a(I8
I8
tp601
a(I5
I0
tp602
a(I1
I0
tp603
a(I8
I4
tp604
a(I5
I2
tp605
a(I6
I1
tp606
a(I9
I7
tp607
atp608
Rp609
sg13
((I5
I1
tp610
(I0
I8
tp611
(I2
I9
tp612
(I4
I1
tp613
(I7
I6
tp614
tp615
sg14
I10
sbs(iproblems
RoomID
p616
(dp617
g10
I15
sg11
(I5
I9
tp618
sg13
I7
sg14
I13
sg15
I12
sg16
I4712128852136459333
sb(imulti_robot_problem
MultiRobotState
p619
(dp620
g19
g20
((lp621
g618
a(I4
I9
tp622
a(I5
I5
tp623
a(I4
I12
tp624
a(I2
I8
tp625
a(I3
I1
tp626
a(I3
I9
tp627
a(I9
I4
tp628
a(I1
I7
tp629
a(I1
I10
tp630
a(I3
I12
tp631
a(I0
I8
tp632
a(I5
I2
tp633
atp634
Rp635
sg15
I12
sg29
g20
((lp636
(I6
I9
tp637
a(I3
I3
tp638
a(I1
I12
tp639
a(I5
I6
tp640
a(I7
I7
tp641
a(I3
I5
tp642
a(I3
I8
tp643
a(I8
I8
tp644
a(I10
I0
tp645
a(I2
I5
tp646
a(I10
I2
tp647
a(I3
I4
tp648
a(I1
I1
tp649
a(I5
I8
tp650
a(I9
I7
tp651
atp652
Rp653
sg13
((I6
I11
tp654
(I8
I11
tp655
(I7
I0
tp656
(I4
I1
tp657
(I6
I12
tp658
(I10
I9
tp659
(I6
I1
tp660
tp661
sg14
I13
sbs(iproblems
RoomID
p662
(dp663
g10
I13
sg11
(I1
I6
tp664
sg13
I7
sg14
I10
sg15
I10
sg16
I6858376947525423350
sb(imulti_robot_problem
MultiRobotState
p665
(dp666
g19
g20
((lp667
(I4
I7
tp668
a(I1
I3
tp669
a(I2
I8
tp670
a(I2
I2
tp671
a(I2
I1
tp672
a(I2
I3
tp673
a(I9
I5
tp674
a(I2
I5
tp675
a(I2
I7
tp676
a(I2
I9
tp677
a(I8
I1
tp678
ag664
a(I1
I7
tp679
a(I0
I9
tp680
a(I8
I6
tp681
a(I2
I4
tp682
atp683
Rp684
sg15
I10
sg29
g20
((lp685
(I8
I0
tp686
a(I4
I9
tp687
a(I3
I3
tp688
a(I3
I0
tp689
a(I7
I6
tp690
a(I5
I7
tp691
a(I9
I9
tp692
a(I4
I4
tp693
a(I6
I2
tp694
a(I9
I4
tp695
a(I8
I5
tp696
a(I5
I8
tp697
a(I5
I3
tp698
atp699
Rp700
sg13
((I1
I2
tp701
(I7
I5
tp702
(I7
I2
tp703
(I9
I2
tp704
(I1
I5
tp705
(I9
I0
tp706
(I6
I6
tp707
tp708
sg14
I10
sbssg160
S'heavy_roomset'
p709
sbsg160
g162
sg163
(dp710
g472
((lp711
F44.32999999999811
tp712
sg522
((lp713
(F29.780000000002474
I27
tp714
aF41.280000000002474
tp715
sg565
((lp716
F40.77000000000044
tp717
sg616
((lp718
F41.29999999999927
tp719
sg662
((lp720
F40.63999999999942
tp721
ssba(imeasure_core
ProblemSetSolution
p722
(dp723
g3
g4
sg160
S"AnytimeBeam-w15-gf(1.5, 'exp')_with_PowerHeuristic2"
p724
sg163
(dp725
g76
((lp726
(F7.069999999999709
I51
tp727
aF40.20000000000073
tp728
sg46
((lp729
(F1.0099999999983993
I10
tp730
aF40.0099999999984
tp731
sg8
((lp732
(F0.7400000000016007
I31
tp733
a(F5.010000000002037
I29
tp734
a(F6.760000000002037
I26
tp735
aF40.030000000002474
tp736
sg108
((lp737
(F0.09000000000014552
I36
tp738
a(F0.8899999999994179
I30
tp739
a(F1.5900000000001455
I29
tp740
a(F6.299999999999272
I28
tp741
a(F12.389999999999418
I27
tp742
a(F24.18000000000029
I26
tp743
a(F34.2599999999984
I25
tp744
aF40.0
tp745
sg134
((lp746
(F0.3400000000001455
I61
tp747
a(F1.2900000000008731
I57
tp748
a(F2.180000000000291
I56
tp749
a(F3.349999999998545
I54
tp750
a(F4.450000000000728
I52
tp751
a(F6.349999999998545
I51
tp752
a(F9.130000000001019
I50
tp753
a(F11.900000000001455
I48
tp754
a(F14.799999999999272
I46
tp755
a(F17.779999999998836
I44
tp756
a(F26.159999999999854
I43
tp757
a(F34.04000000000087
I42
tp758
aF40.0
tp759
ssba(imeasure_core
ProblemSetSolution
p760
(dp761
g3
g201
sg160
g724
sg163
(dp762
g204
((lp763
F40.080000000001746
tp764
sg259
((lp765
(F0.7299999999995634
I16
tp766
aF40.07999999999811
tp767
sg308
((lp768
(F0.5299999999988358
I7
tp769
aF40.11000000000058
tp770
sg353
((lp771
(F2.8299999999981083
I33
tp772
aF40.159999999999854
tp773
sg402
((lp774
(F3.7400000000016007
I23
tp775
aF40.68999999999869
tp776
ssba(imeasure_core
ProblemSetSolution
p777
(dp778
g3
g469
sg160
g724
sg163
(dp779
g472
((lp780
F44.12999999999738
tp781
sg522
((lp782
(F29.910000000003492
I27
tp783
aF40.16000000000349
tp784
sg565
((lp785
F40.220000000001164
tp786
sg616
((lp787
F41.349999999998545
tp788
sg662
((lp789
F40.650000000001455
tp790
ssba(imeasure_core
ProblemSetSolution
p791
(dp792
g3
g4
sg160
S"AnytimeBeam-w25-gf(1.5, 'exp')_with_PowerHeuristic2"
p793
sg163
(dp794
g76
((lp795
(F7.1599999999962165
I51
tp796
aF40.55999999999767
tp797
sg46
((lp798
(F1.0199999999967986
I10
tp799
aF40.06999999999971
tp800
sg8
((lp801
(F1.1699999999982538
I31
tp802
a(F4.349999999998545
I29
tp803
a(F6.129999999997381
I26
tp804
aF40.0
tp805
sg108
((lp806
(F0.08000000000174623
I36
tp807
a(F0.8799999999973807
I30
tp808
a(F1.5800000000017462
I29
tp809
a(F6.279999999998836
I28
tp810
a(F12.37000000000262
I27
tp811
a(F24.080000000001746
I26
tp812
a(F34.12000000000262
I25
tp813
aF40.0
tp814
sg134
((lp815
(F0.3499999999985448
I61
tp816
a(F1.3000000000029104
I57
tp817
a(F2.1900000000023283
I56
tp818
a(F3.3700000000026193
I54
tp819
a(F4.480000000003201
I52
tp820
a(F6.389999999999418
I51
tp821
a(F9.180000000000291
I50
tp822
a(F11.980000000003201
I48
tp823
a(F14.900000000001455
I46
tp824
a(F17.909999999996217
I44
tp825
a(F26.37000000000262
I43
tp826
a(F34.33999999999651
I42
tp827
aF40.0
tp828
ssba(imeasure_core
ProblemSetSolution
p829
(dp830
g3
g201
sg160
g793
sg163
(dp831
g204
((lp832
F40.01000000000204
tp833
sg259
((lp834
(F0.7299999999959255
I16
tp835
aF40.029999999998836
tp836
sg308
((lp837
(F0.5299999999988358
I7
tp838
aF40.06999999999971
tp839
sg353
((lp840
(F2.790000000000873
I33
tp841
aF40.049999999995634
tp842
sg402
((lp843
(F3.710000000006403
I23
tp844
aF40.4600000000064
tp845
ssba(imeasure_core
ProblemSetSolution
p846
(dp847
g3
g469
sg160
g793
sg163
(dp848
g472
((lp849
F44.34000000000378
tp850
sg522
((lp851
(F29.799999999995634
I27
tp852
aF41.299999999995634
tp853
sg565
((lp854
F40.79000000000087
tp855
sg616
((lp856
F41.55000000000291
tp857
sg662
((lp858
F40.54000000000087
tp859
ssba(imeasure_core
ProblemSetSolution
p860
(dp861
g3
g4
sg160
S"AnytimeBeam-w35-gf(1.5, 'exp')_with_PowerHeuristic2"
p862
sg163
(dp863
g76
((lp864
(F6.989999999997963
I51
tp865
aF40.68000000000029
tp866
sg46
((lp867
(F1.0199999999967986
I10
tp868
aF40.080000000001746
tp869
sg8
((lp870
(F1.3900000000066939
I31
tp871
a(F2.9800000000032014
I29
tp872
a(F4.720000000001164
I26
tp873
aF40.06000000000495
tp874
sg108
((lp875
(F0.07999999999447027
I36
tp876
a(F0.8799999999973807
I30
tp877
a(F1.5799999999944703
I29
tp878
a(F6.259999999994761
I28
tp879
a(F12.319999999999709
I27
tp880
a(F24.05999999999767
I26
tp881
a(F34.109999999993306
I25
tp882
aF40.0
tp883
sg134
((lp884
(F0.33999999999650754
I61
tp885
a(F1.2899999999935972
I57
tp886
a(F2.179999999993015
I56
tp887
a(F3.359999999993306
I54
tp888
a(F4.44999999999709
I52
tp889
a(F6.3399999999965075
I51
tp890
a(F9.119999999995343
I50
tp891
a(F11.869999999995343
I48
tp892
a(F14.759999999994761
I46
tp893
a(F17.739999999997963
I44
tp894
a(F26.12999999999738
I43
tp895
a(F34.029999999998836
I42
tp896
aF40.0
tp897
ssba(imeasure_core
ProblemSetSolution
p898
(dp899
g3
g201
sg160
g862
sg163
(dp900
g204
((lp901
F40.11999999999534
tp902
sg259
((lp903
(F0.7300000000032014
I16
tp904
aF40.029999999998836
tp905
sg308
((lp906
(F0.5299999999988358
I7
tp907
aF40.020000000004075
tp908
sg353
((lp909
(F2.790000000000873
I33
tp910
aF40.169999999998254
tp911
sg402
((lp912
(F3.709999999999127
I23
tp913
aF40.37999999999738
tp914
ssba(imeasure_core
ProblemSetSolution
p915
(dp916
g3
g469
sg160
g862
sg163
(dp917
g472
((lp918
F44.63000000000466
tp919
sg522
((lp920
(F29.7699999999968
I27
tp921
aF41.25999999999476
tp922
sg565
((lp923
F40.7300000000032
tp924
sg616
((lp925
F41.41000000000349
tp926
sg662
((lp927
F40.75
tp928
ssba(imeasure_core
ProblemSetSolution
p929
(dp930
g3
g4
sg160
S"AnytimeBeam-w45-gf(1.5, 'exp')_with_PowerHeuristic2"
p931
sg163
(dp932
g76
((lp933
(F7.629999999997381
I51
tp934
aF40.349999999998545
tp935
sg46
((lp936
(F1.0200000000040745
I10
tp937
aF40.330000000001746
tp938
sg8
((lp939
(F1.5500000000029104
I31
tp940
a(F3.2400000000052387
I26
tp941
aF40.11000000000058
tp942
sg108
((lp943
(F0.08000000000174623
I36
tp944
a(F0.8799999999973807
I30
tp945
a(F1.5900000000037835
I29
tp946
a(F6.30000000000291
I28
tp947
a(F12.37000000000262
I27
tp948
a(F24.139999999999418
I26
tp949
a(F34.169999999998254
I25
tp950
aF40.0
tp951
sg134
((lp952
(F0.3400000000037835
I61
tp953
a(F1.2900000000008731
I57
tp954
a(F2.1699999999982538
I56
tp955
a(F3.349999999998545
I54
tp956
a(F4.440000000002328
I52
tp957
a(F6.330000000001746
I51
tp958
a(F9.099999999998545
I50
tp959
a(F11.860000000000582
I48
tp960
a(F14.75
I46
tp961
a(F17.739999999997963
I44
tp962
a(F26.139999999999418
I43
tp963
a(F34.04000000000087
I42
tp964
aF40.0
tp965
ssba(imeasure_core
ProblemSetSolution
p966
(dp967
g3
g201
sg160
g931
sg163
(dp968
g204
((lp969
F40.169999999998254
tp970
sg259
((lp971
(F0.7300000000032014
I16
tp972
aF40.080000000001746
tp973
sg308
((lp974
(F0.5200000000040745
I7
tp975
aF40.11000000000058
tp976
sg353
((lp977
(F2.819999999999709
I33
tp978
aF40.169999999998254
tp979
sg402
((lp980
(F3.75
I23
tp981
aF40.029999999998836
tp982
ssba(imeasure_core
ProblemSetSolution
p983
(dp984
g3
g469
sg160
g931
sg163
(dp985
g472
((lp986
F44.29000000000087
tp987
sg522
((lp988
(F29.840000000003783
I27
tp989
aF40.10000000000582
tp990
sg565
((lp991
F40.88999999999942
tp992
sg616
((lp993
F41.549999999995634
tp994
sg662
((lp995
F40.720000000001164
tp996
ssba(imeasure_core
ProblemSetSolution
p997
(dp998
g3
g4
sg160
S"AnytimeBeam-w5-gf(1.5, 'exp')_with_LinearHeuristic"
p999
sg163
(dp1000
g76
((lp1001
F40.109999999993306
tp1002
sg46
((lp1003
F40.10000000000582
tp1004
sg8
((lp1005
(F0.08000000000174623
I8
tp1006
aF40.05999999999767
tp1007
sg108
((lp1008
(F0.020000000004074536
I25
tp1009
aF40.01000000000204
tp1010
sg134
((lp1011
(F0.029999999998835847
I32
tp1012
a(F0.6200000000026193
I30
tp1013
aF40.01000000000204
tp1014
ssba(imeasure_core
ProblemSetSolution
p1015
(dp1016
g3
g201
sg160
g999
sg163
(dp1017
g204
((lp1018
(F30.169999999998254
I14
tp1019
aF40.01000000000204
tp1020
sg259
((lp1021
F40.049999999995634
tp1022
sg308
((lp1023
(F1.0800000000017462
I7
tp1024
aF40.29000000000087
tp1025
sg353
((lp1026
F40.05999999999767
tp1027
sg402
((lp1028
F40.34000000000378
tp1029
ssba(imeasure_core
ProblemSetSolution
p1030
(dp1031
g3
g469
sg160
g999
sg163
(dp1032
g472
((lp1033
F46.970000000001164
tp1034
sg522
((lp1035
F42.08999999999651
tp1036
sg565
((lp1037
F41.450000000004366
tp1038
sg616
((lp1039
F70.41999999999825
tp1040
sg662
((lp1041
F59.15999999999622
tp1042
ssba(imeasure_core
ProblemSetSolution
p1043
(dp1044
g3
g4
sg160
S"AnytimeBeam-w15-gf(1.5, 'exp')_with_LinearHeuristic"
p1045
sg163
(dp1046
g76
((lp1047
F40.0
tp1048
sg46
((lp1049
F40.16000000000349
tp1050
sg8
((lp1051
(F0.16000000000349246
I8
tp1052
aF40.0
tp1053
sg108
((lp1054
(F0.010000000002037268
I25
tp1055
aF40.01000000000204
tp1056
sg134
((lp1057
(F0.029999999998835847
I32
tp1058
a(F0.6199999999953434
I30
tp1059
aF40.00999999999476
tp1060
ssba(imeasure_core
ProblemSetSolution
p1061
(dp1062
g3
g201
sg160
g1045
sg163
(dp1063
g204
((lp1064
(F30.290000000000873
I14
tp1065
aF40.080000000001746
tp1066
sg259
((lp1067
F40.43000000000029
tp1068
sg308
((lp1069
(F1.0799999999944703
I7
tp1070
aF40.40999999999622
tp1071
sg353
((lp1072
F40.94000000000233
tp1073
sg402
((lp1074
F40.45999999999913
tp1075
ssba(imeasure_core
ProblemSetSolution
p1076
(dp1077
g3
g469
sg160
g1045
sg163
(dp1078
g472
((lp1079
F46.61999999999534
tp1080
sg522
((lp1081
F42.0
tp1082
sg565
((lp1083
F41.5
tp1084
sg616
((lp1085
F70.07000000000698
tp1086
sg662
((lp1087
F58.94999999999709
tp1088
ssba(imeasure_core
ProblemSetSolution
p1089
(dp1090
g3
g4
sg160
S"AnytimeBeam-w25-gf(1.5, 'exp')_with_LinearHeuristic"
p1091
sg163
(dp1092
g76
((lp1093
F40.36000000000058
tp1094
sg46
((lp1095
F40.13999999999942
tp1096
sg8
((lp1097
(F0.18000000000029104
I8
tp1098
aF40.0
tp1099
sg108
((lp1100
(F0.010000000002037268
I25
tp1101
aF40.01000000000204
tp1102
sg134
((lp1103
(F0.029999999998835847
I32
tp1104
a(F0.6199999999953434
I30
tp1105
aF40.00999999999476
tp1106
ssba(imeasure_core
ProblemSetSolution
p1107
(dp1108
g3
g201
sg160
g1091
sg163
(dp1109
g204
((lp1110
(F30.19000000000233
I14
tp1111
aF40.03000000000611
tp1112
sg259
((lp1113
F40.46999999999389
tp1114
sg308
((lp1115
(F1.0800000000017462
I7
tp1116
aF40.31999999999971
tp1117
sg353
((lp1118
F40.270000000004075
tp1119
sg402
((lp1120
F40.61999999999534
tp1121
ssba(imeasure_core
ProblemSetSolution
p1122
(dp1123
g3
g469
sg160
g1091
sg163
(dp1124
g472
((lp1125
F46.720000000001164
tp1126
sg522
((lp1127
F42.270000000004075
tp1128
sg565
((lp1129
F41.63999999999942
tp1130
sg616
((lp1131
F70.13999999999942
tp1132
sg662
((lp1133
F59.08999999999651
tp1134
ssba(imeasure_core
ProblemSetSolution
p1135
(dp1136
g3
g4
sg160
S"AnytimeBeam-w35-gf(1.5, 'exp')_with_LinearHeuristic"
p1137
sg163
(dp1138
g76
((lp1139
F40.12000000000262
tp1140
sg46
((lp1141
F40.18000000000029
tp1142
sg8
((lp1143
(F0.1900000000023283
I8
tp1144
aF40.029999999998836
tp1145
sg108
((lp1146
(F0.010000000002037268
I25
tp1147
aF40.01000000000204
tp1148
sg134
((lp1149
(F0.029999999998835847
I32
tp1150
a(F0.6199999999953434
I30
tp1151
aF40.00999999999476
tp1152
ssba(imeasure_core
ProblemSetSolution
p1153
(dp1154
g3
g201
sg160
g1137
sg163
(dp1155
g204
((lp1156
(F30.24000000000524
I14
tp1157
aF40.09000000000378
tp1158
sg259
((lp1159
F40.419999999998254
tp1160
sg308
((lp1161
(F1.0800000000017462
I7
tp1162
aF40.48999999999796
tp1163
sg353
((lp1164
F40.17000000000553
tp1165
sg402
((lp1166
F40.44999999999709
tp1167
ssba(imeasure_core
ProblemSetSolution
p1168
(dp1169
g3
g469
sg160
g1137
sg163
(dp1170
g472
((lp1171
F46.93000000000029
tp1172
sg522
((lp1173
F42.36000000000058
tp1174
sg565
((lp1175
F41.69000000000233
tp1176
sg616
((lp1177
F70.15999999999622
tp1178
sg662
((lp1179
F59.75
tp1180
ssba(imeasure_core
ProblemSetSolution
p1181
(dp1182
g3
g4
sg160
S"AnytimeBeam-w45-gf(1.5, 'exp')_with_LinearHeuristic"
p1183
sg163
(dp1184
g76
((lp1185
F40.029999999998836
tp1186
sg46
((lp1187
F40.0
tp1188
sg8
((lp1189
(F0.19999999999708962
I8
tp1190
aF40.0199999999968
tp1191
sg108
((lp1192
(F0.020000000004074536
I25
tp1193
aF40.01000000000204
tp1194
sg134
((lp1195
(F0.029999999998835847
I32
tp1196
a(F0.6200000000026193
I30
tp1197
aF40.01000000000204
tp1198
ssba(imeasure_core
ProblemSetSolution
p1199
(dp1200
g3
g201
sg160
g1183
sg163
(dp1201
g204
((lp1202
(F29.849999999998545
I14
tp1203
aF40.0199999999968
tp1204
sg259
((lp1205
F40.43000000000029
tp1206
sg308
((lp1207
(F1.0899999999965075
I7
tp1208
aF40.400000000001455
tp1209
sg353
((lp1210
F40.919999999998254
tp1211
sg402
((lp1212
F40.5
tp1213
ssba(imeasure_core
ProblemSetSolution
p1214
(dp1215
g3
g469
sg160
g1183
sg163
(dp1216
g472
((lp1217
F46.799999999995634
tp1218
sg522
((lp1219
F42.19000000000233
tp1220
sg565
((lp1221
F41.599999999998545
tp1222
sg616
((lp1223
F70.13000000000466
tp1224
sg662
((lp1225
F59.279999999998836
tp1226
ssba.