(lp0
(imeasure_core
ProblemSetSolution
p1
(dp2
S'roomset'
p3
(imeasure_core
RoomSet
p4
(dp5
S'rooms'
p6
(dp7
(iproblems
RoomID
p8
(dp9
S'dusts'
p10
I8
sS'obstacles'
p11
(I2
I4
tp12
sS'robots'
p13
I4
sS'height'
p14
I9
sS'width'
p15
I7
sS'seed'
p16
I7283207964119141687
sb(imulti_robot_problem
MultiRobotState
p17
(dp18
S'obstacle_locations'
p19
c__builtin__
frozenset
p20
((lp21
(I4
I6
tp22
a(I4
I3
tp23
a(I3
I0
tp24
a(I4
I2
tp25
a(I3
I4
tp26
ag12
a(I3
I3
tp27
atp28
Rp29
sg15
I7
sS'dirt_locations'
p30
g20
((lp31
(I4
I5
tp32
a(I5
I7
tp33
a(I0
I6
tp34
a(I1
I6
tp35
a(I5
I0
tp36
a(I5
I1
tp37
a(I5
I2
tp38
a(I1
I1
tp39
atp40
Rp41
sg13
((I1
I5
tp42
(I5
I5
tp43
(I3
I1
tp44
(I3
I5
tp45
tp46
sg14
I9
sbs(iproblems
RoomID
p47
(dp48
g10
I8
sg11
(I4
I6
tp49
sg13
I2
sg14
I10
sg15
I8
sg16
I890727360438182992
sb(imulti_robot_problem
MultiRobotState
p50
(dp51
g19
g20
((lp52
(I0
I0
tp53
ag49
a(I6
I6
tp54
a(I5
I6
tp55
a(I7
I6
tp56
a(I7
I4
tp57
a(I4
I2
tp58
a(I2
I4
tp59
atp60
Rp61
sg15
I8
sg30
g20
((lp62
(I7
I0
tp63
a(I7
I1
tp64
a(I6
I3
tp65
a(I1
I8
tp66
a(I0
I5
tp67
a(I5
I1
tp68
a(I1
I0
tp69
a(I0
I3
tp70
atp71
Rp72
sg13
((I2
I8
tp73
(I2
I5
tp74
tp75
sg14
I10
sbs(iproblems
RoomID
p76
(dp77
g10
I10
sg11
(I6
I5
tp78
sg13
I5
sg14
I8
sg15
I9
sg16
I3960482443532127989
sb(imulti_robot_problem
MultiRobotState
p79
(dp80
g19
g20
((lp81
(I4
I5
tp82
a(I5
I5
tp83
ag78
a(I6
I6
tp84
atp85
Rp86
sg15
I9
sg30
g20
((lp87
(I2
I7
tp88
a(I2
I6
tp89
a(I5
I0
tp90
a(I5
I7
tp91
a(I1
I4
tp92
a(I1
I5
tp93
a(I3
I6
tp94
a(I8
I0
tp95
a(I8
I5
tp96
a(I5
I3
tp97
atp98
Rp99
sg13
((I4
I3
tp100
(I8
I7
tp101
(I1
I6
tp102
(I7
I3
tp103
(I6
I4
tp104
tp105
sg14
I8
sbs(iproblems
RoomID
p106
(dp107
g10
I5
sg11
(I7
I3
tp108
sg13
I1
sg14
I7
sg15
I8
sg16
I1736392818365009963
sb(imulti_robot_problem
MultiRobotState
p109
(dp110
g19
g20
((lp111
g108
a(I2
I6
tp112
a(I7
I0
tp113
a(I7
I1
tp114
a(I2
I1
tp115
a(I6
I3
tp116
a(I0
I4
tp117
a(I7
I2
tp118
atp119
Rp120
sg15
I8
sg30
g20
((lp121
(I0
I1
tp122
a(I6
I2
tp123
a(I1
I6
tp124
a(I4
I4
tp125
a(I0
I0
tp126
atp127
Rp128
sg13
((I3
I1
tp129
tp130
sg14
I7
sbs(iproblems
RoomID
p131
(dp132
g10
I7
sg11
(I4
I1
tp133
sg13
I3
sg14
I10
sg15
I10
sg16
I1585446675937841368
sb(imulti_robot_problem
MultiRobotState
p134
(dp135
g19
g20
((lp136
(I3
I2
tp137
a(I2
I6
tp138
a(I6
I7
tp139
a(I6
I1
tp140
a(I7
I2
tp141
a(I5
I0
tp142
ag133
a(I2
I4
tp143
a(I5
I8
tp144
atp145
Rp146
sg15
I10
sg30
g20
((lp147
(I7
I3
tp148
a(I9
I4
tp149
a(I2
I9
tp150
a(I1
I7
tp151
a(I2
I2
tp152
a(I5
I2
tp153
a(I9
I7
tp154
atp155
Rp156
sg13
((I8
I9
tp157
(I4
I4
tp158
(I9
I8
tp159
tp160
sg14
I10
sbssS'name'
p161
S'easy_roomset'
p162
sbsg161
S'LimitedTimeAStar_with_PowerHeuristic2'
p163
sS'solutions'
p164
(dp165
g8
((lp166
F0.52000000000043656
tp167
sg47
((lp168
F0.039999999999054126
tp169
sg76
((lp170
F9.2100000000009459
tp171
sg106
((lp172
F0.059999999999490683
tp173
sg131
((lp174
F0.17000000000007276
tp175
ssba(imeasure_core
ProblemSetSolution
p176
(dp177
g3
(imeasure_core
RoomSet
p178
(dp179
g6
(dp180
(iproblems
RoomID
p181
(dp182
g10
I8
sg11
(I2
I6
tp183
sg13
I4
sg14
I11
sg15
I9
sg16
I7283207964119141687
sb(imulti_robot_problem
MultiRobotState
p184
(dp185
g19
g20
((lp186
(I4
I7
tp187
a(I1
I3
tp188
a(I4
I3
tp189
a(I4
I5
tp190
a(I5
I4
tp191
a(I1
I4
tp192
a(I8
I9
tp193
a(I6
I2
tp194
a(I0
I10
tp195
a(I3
I7
tp196
a(I0
I3
tp197
a(I8
I5
tp198
a(I4
I0
tp199
a(I5
I3
tp200
a(I5
I5
tp201
a(I5
I2
tp202
a(I6
I1
tp203
a(I6
I10
tp204
ag183
a(I6
I3
tp205
a(I3
I6
tp206
a(I3
I5
tp207
a(I3
I4
tp208
a(I2
I4
tp209
atp210
Rp211
sg15
I9
sg30
g20
((lp212
(I7
I0
tp213
a(I6
I8
tp214
a(I7
I1
tp215
a(I5
I6
tp216
a(I1
I8
tp217
a(I0
I8
tp218
a(I4
I1
tp219
a(I5
I8
tp220
atp221
Rp222
sg13
((I1
I7
tp223
(I6
I6
tp224
(I4
I6
tp225
(I2
I1
tp226
tp227
sg14
I11
sbs(iproblems
RoomID
p228
(dp229
g10
I8
sg11
(I3
I5
tp230
sg13
I3
sg14
I12
sg15
I10
sg16
I890727360438182992
sb(imulti_robot_problem
MultiRobotState
p231
(dp232
g19
g20
((lp233
(I4
I7
tp234
a(I0
I0
tp235
a(I3
I0
tp236
a(I3
I2
tp237
a(I1
I4
tp238
a(I8
I9
tp239
a(I7
I5
tp240
a(I2
I3
tp241
a(I3
I4
tp242
a(I5
I8
tp243
ag230
a(I3
I1
tp244
a(I6
I7
tp245
a(I6
I8
tp246
a(I5
I2
tp247
a(I5
I7
tp248
a(I8
I8
tp249
a(I3
I9
tp250
a(I4
I11
tp251
a(I7
I10
tp252
a(I2
I2
tp253
a(I0
I9
tp254
a(I7
I8
tp255
atp256
Rp257
sg15
I10
sg30
g20
((lp258
(I9
I2
tp259
a(I6
I1
tp260
a(I8
I0
tp261
a(I2
I10
tp262
a(I0
I6
tp263
a(I0
I4
tp264
a(I9
I5
tp265
a(I1
I1
tp266
atp267
Rp268
sg13
((I2
I9
tp269
(I2
I6
tp270
(I8
I4
tp271
tp272
sg14
I12
sbs(iproblems
RoomID
p273
(dp274
g10
I9
sg11
(I1
I3
tp275
sg13
I4
sg14
I9
sg15
I10
sg16
I7713914763314685786
sb(imulti_robot_problem
MultiRobotState
p276
(dp277
g19
g20
((lp278
(I3
I2
tp279
ag275
a(I7
I1
tp280
a(I9
I3
tp281
a(I6
I0
tp282
a(I2
I1
tp283
a(I4
I2
tp284
a(I5
I1
tp285
a(I9
I6
tp286
a(I7
I2
tp287
a(I4
I0
tp288
a(I1
I2
tp289
a(I7
I0
tp290
a(I5
I2
tp291
a(I6
I1
tp292
a(I3
I1
tp293
a(I1
I5
tp294
a(I1
I8
tp295
a(I2
I2
tp296
a(I3
I5
tp297
a(I4
I1
tp298
a(I1
I1
tp299
atp300
Rp301
sg15
I10
sg30
g20
((lp302
(I7
I3
tp303
a(I5
I4
tp304
a(I7
I6
tp305
a(I7
I5
tp306
a(I0
I5
tp307
a(I8
I7
tp308
a(I8
I6
tp309
a(I8
I5
tp310
a(I9
I7
tp311
atp312
Rp313
sg13
((I3
I0
tp314
(I7
I7
tp315
(I2
I0
tp316
(I4
I6
tp317
tp318
sg14
I9
sbs(iproblems
RoomID
p319
(dp320
g10
I7
sg11
(I6
I3
tp321
sg13
I3
sg14
I12
sg15
I12
sg16
I1585446675937841368
sb(imulti_robot_problem
MultiRobotState
p322
(dp323
g19
g20
((lp324
(I5
I9
tp325
a(I4
I3
tp326
a(I5
I7
tp327
a(I8
I2
tp328
a(I4
I10
tp329
a(I7
I3
tp330
a(I2
I8
tp331
a(I9
I3
tp332
a(I3
I11
tp333
a(I7
I1
tp334
a(I7
I7
tp335
a(I6
I2
tp336
a(I5
I1
tp337
a(I1
I11
tp338
a(I8
I5
tp339
a(I7
I2
tp340
a(I2
I7
tp341
a(I6
I7
tp342
a(I6
I8
tp343
a(I2
I9
tp344
a(I5
I2
tp345
a(I7
I6
tp346
a(I6
I6
tp347
a(I2
I11
tp348
ag321
a(I4
I11
tp349
a(I7
I10
tp350
a(I3
I4
tp351
a(I8
I6
tp352
a(I7
I8
tp353
a(I8
I4
tp354
atp355
Rp356
sg15
I12
sg30
g20
((lp357
(I3
I2
tp358
a(I1
I9
tp359
a(I9
I4
tp360
a(I11
I5
tp361
a(I11
I8
tp362
a(I2
I5
tp363
a(I6
I10
tp364
atp365
Rp366
sg13
((I10
I10
tp367
(I5
I5
tp368
(I11
I10
tp369
tp370
sg14
I12
sbs(iproblems
RoomID
p371
(dp372
g10
I5
sg11
(I7
I6
tp373
sg13
I3
sg14
I9
sg15
I10
sg16
I1736392818365009963
sb(imulti_robot_problem
MultiRobotState
p374
(dp375
g19
g20
((lp376
(I7
I3
tp377
a(I9
I1
tp378
a(I4
I8
tp379
a(I9
I3
tp380
a(I7
I7
tp381
a(I6
I2
tp382
a(I0
I5
tp383
a(I0
I4
tp384
a(I8
I5
tp385
a(I7
I2
tp386
a(I1
I2
tp387
a(I3
I8
tp388
a(I9
I0
tp389
a(I9
I2
tp390
ag373
a(I7
I4
tp391
a(I7
I5
tp392
a(I6
I5
tp393
a(I4
I3
tp394
a(I2
I2
tp395
a(I0
I1
tp396
a(I5
I2
tp397
a(I8
I4
tp398
atp399
Rp400
sg15
I10
sg30
g20
((lp401
(I1
I8
tp402
a(I3
I1
tp403
a(I4
I1
tp404
a(I0
I2
tp405
a(I5
I5
tp406
atp407
Rp408
sg13
((I4
I2
tp409
(I1
I0
tp410
(I8
I2
tp411
tp412
sg14
I9
sbssg161
S'mild_roomset'
p413
sbsg161
g163
sg164
(dp414
g181
((lp415
F0.12000000000080036
tp416
sg228
((lp417
F378.09000000000015
tp418
sg319
((lp419
F31.389999999999418
tp420
sg273
((lp421
F1.0499999999992724
tp422
sg371
((lp423
F0.36000000000058208
tp424
ssba(imeasure_core
ProblemSetSolution
p425
(dp426
g3
(imeasure_core
RoomSet
p427
(dp428
g6
(dp429
(iproblems
RoomID
p430
(dp431
g10
I13
sg11
(I8
I4
tp432
sg13
I7
sg14
I12
sg15
I10
sg16
I7283207964119141687
sb(imulti_robot_problem
MultiRobotState
p433
(dp434
g19
g20
((lp435
(I6
I3
tp436
a(I5
I2
tp437
a(I6
I10
tp438
a(I6
I0
tp439
a(I7
I4
tp440
a(I0
I11
tp441
a(I6
I2
tp442
a(I3
I6
tp443
a(I2
I2
tp444
a(I0
I4
tp445
a(I3
I4
tp446
a(I5
I8
tp447
ag432
atp448
Rp449
sg15
I10
sg30
g20
((lp450
(I7
I3
tp451
a(I6
I7
tp452
a(I6
I8
tp453
a(I7
I1
tp454
a(I8
I1
tp455
a(I4
I4
tp456
a(I6
I6
tp457
a(I5
I6
tp458
a(I1
I9
tp459
a(I5
I0
tp460
a(I9
I10
tp461
a(I9
I6
tp462
a(I7
I9
tp463
atp464
Rp465
sg13
((I1
I7
tp466
(I7
I6
tp467
(I4
I6
tp468
(I2
I1
tp469
(I6
I4
tp470
(I0
I9
tp471
(I8
I0
tp472
tp473
sg14
I12
sbs(iproblems
RoomID
p474
(dp475
g10
I13
sg11
(I8
I3
tp476
sg13
I5
sg14
I13
sg15
I11
sg16
I890727360438182992
sb(imulti_robot_problem
MultiRobotState
p477
(dp478
g19
g20
((lp479
(I4
I10
tp480
a(I6
I9
tp481
a(I8
I2
tp482
a(I5
I9
tp483
a(I9
I8
tp484
ag476
a(I4
I12
tp485
a(I0
I10
tp486
a(I8
I7
tp487
a(I9
I1
tp488
a(I9
I0
tp489
a(I6
I8
tp490
a(I6
I10
tp491
a(I8
I8
tp492
a(I8
I6
tp493
a(I7
I8
tp494
a(I0
I2
tp495
atp496
Rp497
sg15
I11
sg30
g20
((lp498
(I10
I5
tp499
a(I0
I0
tp500
a(I4
I6
tp501
a(I0
I6
tp502
a(I9
I2
tp503
a(I8
I11
tp504
a(I2
I1
tp505
a(I9
I10
tp506
a(I1
I5
tp507
a(I0
I4
tp508
a(I0
I9
tp509
a(I5
I2
tp510
a(I4
I11
tp511
atp512
Rp513
sg13
((I3
I10
tp514
(I2
I7
tp515
(I9
I4
tp516
(I2
I11
tp517
(I7
I1
tp518
tp519
sg14
I13
sbs(iproblems
RoomID
p520
(dp521
g10
I15
sg11
(I6
I9
tp522
sg13
I7
sg14
I11
sg15
I12
sg16
I3960482443532127989
sb(imulti_robot_problem
MultiRobotState
p523
(dp524
g19
g20
((lp525
(I5
I9
tp526
ag522
a(I9
I1
tp527
a(I4
I10
tp528
a(I5
I6
tp529
a(I7
I7
tp530
a(I2
I10
tp531
a(I3
I9
tp532
a(I9
I4
tp533
a(I5
I10
tp534
a(I6
I4
tp535
a(I6
I5
tp536
a(I1
I2
tp537
a(I7
I4
tp538
a(I8
I3
tp539
a(I6
I7
tp540
a(I2
I9
tp541
a(I10
I7
tp542
a(I5
I7
tp543
a(I6
I3
tp544
a(I8
I1
tp545
a(I0
I9
tp546
a(I8
I6
tp547
a(I7
I8
tp548
a(I11
I6
tp549
a(I9
I7
tp550
atp551
Rp552
sg15
I12
sg30
g20
((lp553
(I7
I3
tp554
a(I2
I6
tp555
a(I5
I5
tp556
a(I3
I0
tp557
a(I3
I8
tp558
a(I0
I6
tp559
a(I11
I1
tp560
a(I1
I6
tp561
a(I4
I3
tp562
a(I1
I7
tp563
a(I1
I3
tp564
a(I1
I0
tp565
a(I10
I1
tp566
a(I1
I1
tp567
a(I10
I2
tp568
atp569
Rp570
sg13
((I11
I10
tp571
(I1
I8
tp572
(I10
I5
tp573
(I11
I0
tp574
(I4
I8
tp575
(I7
I9
tp576
(I7
I1
tp577
tp578
sg14
I11
sbs(iproblems
RoomID
p579
(dp580
g10
I10
sg11
(I10
I4
tp581
sg13
I5
sg14
I10
sg15
I11
sg16
I1736392818365009963
sb(imulti_robot_problem
MultiRobotState
p582
(dp583
g19
g20
((lp584
(I0
I1
tp585
a(I1
I2
tp586
a(I3
I2
tp587
ag581
a(I4
I5
tp588
a(I7
I4
tp589
a(I6
I2
tp590
a(I2
I3
tp591
a(I10
I1
tp592
a(I3
I8
tp593
a(I10
I0
tp594
a(I10
I3
tp595
a(I10
I2
tp596
atp597
Rp598
sg15
I11
sg30
g20
((lp599
(I5
I9
tp600
a(I5
I5
tp601
a(I3
I1
tp602
a(I8
I8
tp603
a(I0
I5
tp604
a(I3
I9
tp605
a(I8
I4
tp606
a(I4
I1
tp607
a(I6
I5
tp608
a(I5
I3
tp609
atp610
Rp611
sg13
((I4
I2
tp612
(I1
I0
tp613
(I9
I3
tp614
(I1
I9
tp615
(I0
I2
tp616
tp617
sg14
I10
sbs(iproblems
RoomID
p618
(dp619
g10
I12
sg11
(I6
I9
tp620
sg13
I6
sg14
I13
sg15
I13
sg16
I1585446675937841368
sb(imulti_robot_problem
MultiRobotState
p621
(dp622
g19
g20
((lp623
(I7
I3
tp624
ag620
a(I8
I11
tp625
a(I7
I7
tp626
a(I4
I12
tp627
a(I10
I3
tp628
a(I5
I8
tp629
a(I7
I4
tp630
a(I1
I12
tp631
a(I2
I9
tp632
a(I8
I1
tp633
a(I7
I6
tp634
a(I6
I3
tp635
a(I9
I2
tp636
a(I7
I5
tp637
a(I7
I2
tp638
a(I7
I10
tp639
a(I8
I4
tp640
a(I3
I4
tp641
a(I2
I4
tp642
a(I9
I12
tp643
a(I9
I7
tp644
atp645
Rp646
sg15
I13
sg30
g20
((lp647
(I3
I3
tp648
a(I2
I8
tp649
a(I12
I9
tp650
a(I6
I10
tp651
a(I8
I10
tp652
a(I2
I10
tp653
a(I12
I5
tp654
a(I4
I3
tp655
a(I5
I1
tp656
a(I7
I9
tp657
a(I5
I2
tp658
a(I3
I5
tp659
atp660
Rp661
sg13
((I10
I11
tp662
(I5
I5
tp663
(I12
I11
tp664
(I1
I10
tp665
(I3
I12
tp666
(I10
I4
tp667
tp668
sg14
I13
sbssg161
S'heavy_roomset'
p669
sbsg161
g163
sg164
(dp670
g430
((lp671
F39.869999999998981
tp672
sg474
((lp673
F313.29000000000087
tp674
sg520
((lp675
F451.94999999999891
tp676
sg579
((lp677
F1.2600000000002183
tp678
sg618
((lp679
F369.51000000000022
tp680
ssba.