(lp0
(imeasure_core
ProblemSetSolution
p1
(dp2
S'roomset'
p3
(imeasure_core
RoomSet
p4
(dp5
S'rooms'
p6
(dp7
(iproblems
RoomID
p8
(dp9
S'dusts'
p10
I9
sS'obstacles'
p11
(I3
I1
tp12
sS'robots'
p13
I2
sS'height'
p14
I7
sS'width'
p15
I7
sS'seed'
p16
I917114838536145882
sb(imulti_robot_problem
MultiRobotState
p17
(dp18
S'obstacle_locations'
p19
c__builtin__
frozenset
p20
((lp21
(I5
I1
tp22
a(I6
I2
tp23
ag12
a(I4
I2
tp24
atp25
Rp26
sg15
I7
sS'dirt_locations'
p27
g20
((lp28
(I0
I1
tp29
a(I1
I2
tp30
a(I2
I6
tp31
a(I0
I6
tp32
a(I5
I6
tp33
a(I2
I0
tp34
a(I3
I6
tp35
a(I6
I5
tp36
a(I3
I5
tp37
atp38
Rp39
sg13
((I1
I0
tp40
(I2
I5
tp41
tp42
sg14
I7
sbs(iproblems
RoomID
p43
(dp44
g10
I9
sg11
(I3
I5
tp45
sg13
I4
sg14
I9
sg15
I8
sg16
I5559088234891557757
sb(imulti_robot_problem
MultiRobotState
p46
(dp47
g19
g20
((lp48
(I0
I6
tp49
a(I6
I8
tp50
a(I4
I3
tp51
a(I4
I4
tp52
ag45
a(I5
I3
tp53
atp54
Rp55
sg15
I8
sg27
g20
((lp56
(I6
I7
tp57
a(I4
I8
tp58
a(I3
I0
tp59
a(I7
I7
tp60
a(I1
I4
tp61
a(I7
I4
tp62
a(I2
I0
tp63
a(I7
I0
tp64
a(I7
I2
tp65
atp66
Rp67
sg13
((I2
I5
tp68
(I6
I6
tp69
(I2
I4
tp70
(I0
I4
tp71
tp72
sg14
I9
sbs(iproblems
RoomID
p73
(dp74
g10
I6
sg11
(I5
I4
tp75
sg13
I5
sg14
I9
sg15
I10
sg16
I3288047242128213749
sb(imulti_robot_problem
MultiRobotState
p76
(dp77
g19
g20
((lp78
g75
a(I5
I5
tp79
a(I4
I5
tp80
a(I3
I1
tp81
a(I4
I3
tp82
a(I4
I2
tp83
a(I8
I6
tp84
a(I0
I8
tp85
atp86
Rp87
sg15
I10
sg27
g20
((lp88
(I1
I5
tp89
a(I9
I0
tp90
a(I9
I4
tp91
a(I3
I6
tp92
a(I9
I8
tp93
a(I5
I2
tp94
atp95
Rp96
sg13
((I8
I4
tp97
(I8
I2
tp98
(I7
I6
tp99
(I1
I2
tp100
(I6
I2
tp101
tp102
sg14
I9
sbs(iproblems
RoomID
p103
(dp104
g10
I6
sg11
(I7
I4
tp105
sg13
I2
sg14
I8
sg15
I10
sg16
I3312890215458166314
sb(imulti_robot_problem
MultiRobotState
p106
(dp107
g19
g20
((lp108
g105
a(I6
I3
tp109
a(I6
I2
tp110
a(I8
I2
tp111
a(I1
I0
tp112
a(I5
I2
tp113
a(I2
I5
tp114
atp115
Rp116
sg15
I10
sg27
g20
((lp117
(I6
I4
tp118
a(I3
I2
tp119
a(I5
I6
tp120
a(I3
I7
tp121
a(I3
I0
tp122
a(I5
I3
tp123
atp124
Rp125
sg13
((I9
I3
tp126
(I2
I2
tp127
tp128
sg14
I8
sbs(iproblems
RoomID
p129
(dp130
g10
I6
sg11
(I4
I4
tp131
sg13
I4
sg14
I9
sg15
I9
sg16
I6635191922321441235
sb(imulti_robot_problem
MultiRobotState
p132
(dp133
g19
g20
((lp134
(I7
I4
tp135
a(I6
I4
tp136
ag131
a(I3
I8
tp137
a(I5
I5
tp138
atp139
Rp140
sg15
I9
sg27
g20
((lp141
(I1
I3
tp142
a(I6
I5
tp143
a(I4
I8
tp144
a(I8
I6
tp145
a(I0
I2
tp146
a(I1
I4
tp147
atp148
Rp149
sg13
((I4
I5
tp150
(I6
I2
tp151
(I2
I8
tp152
(I6
I7
tp153
tp154
sg14
I9
sbssS'name'
p155
S'easy_roomset'
p156
sbsg155
S'LimitedTimeAStar_with_PowerHeuristic2'
p157
sS'solutions'
p158
(dp159
g8
((lp160
(F0.020000000000000004
I15
tp161
aF0.029999999999999999
tp162
sg43
((lp163
(F0.37
I12
tp164
aF0.38
tp165
sg73
((lp166
(F0.80000000000000004
I6
tp167
aF0.81000000000000005
tp168
sg103
((lp169
F20.579999999999998
tp170
sg129
((lp171
F300.28000000000003
tp172
ssba(imeasure_core
ProblemSetSolution
p173
(dp174
g3
(imeasure_core
RoomSet
p175
(dp176
g6
(dp177
(iproblems
RoomID
p178
(dp179
g10
I9
sg11
(I3
I2
tp180
sg13
I3
sg14
I9
sg15
I9
sg16
I917114838536145882
sb(imulti_robot_problem
MultiRobotState
p181
(dp182
g19
g20
((lp183
(I7
I3
tp184
ag180
a(I0
I0
tp185
a(I8
I2
tp186
a(I6
I6
tp187
a(I2
I8
tp188
a(I5
I5
tp189
a(I1
I4
tp190
a(I4
I6
tp191
a(I5
I1
tp192
a(I3
I7
tp193
a(I7
I2
tp194
a(I4
I0
tp195
a(I1
I2
tp196
a(I8
I3
tp197
a(I3
I3
tp198
a(I5
I2
tp199
a(I7
I6
tp200
a(I7
I1
tp201
a(I6
I3
tp202
a(I4
I3
tp203
a(I1
I7
tp204
a(I3
I4
tp205
a(I5
I3
tp206
a(I4
I1
tp207
a(I6
I1
tp208
atp209
Rp210
sg15
I9
sg27
g20
((lp211
(I0
I1
tp212
a(I6
I4
tp213
a(I4
I7
tp214
a(I6
I8
tp215
a(I7
I7
tp216
a(I2
I1
tp217
a(I2
I3
tp218
a(I0
I4
tp219
a(I0
I8
tp220
atp221
Rp222
sg13
((I1
I0
tp223
(I3
I6
tp224
(I1
I8
tp225
tp226
sg14
I9
sbs(iproblems
RoomID
p227
(dp228
g10
I9
sg11
(I3
I9
tp229
sg13
I4
sg14
I11
sg15
I10
sg16
I5559088234891557757
sb(imulti_robot_problem
MultiRobotState
p230
(dp231
g19
g20
((lp232
(I7
I3
tp233
a(I5
I4
tp234
a(I0
I0
tp235
a(I6
I4
tp236
a(I5
I6
tp237
a(I2
I8
tp238
a(I6
I0
tp239
a(I0
I7
tp240
a(I4
I6
tp241
ag229
a(I1
I6
tp242
a(I1
I9
tp243
a(I3
I7
tp244
a(I2
I5
tp245
a(I5
I8
tp246
a(I6
I8
tp247
a(I2
I7
tp248
a(I4
I9
tp249
a(I5
I5
tp250
a(I0
I6
tp251
a(I3
I10
tp252
a(I5
I7
tp253
a(I3
I8
tp254
a(I4
I5
tp255
a(I6
I5
tp256
a(I1
I7
tp257
a(I0
I5
tp258
a(I7
I6
tp259
atp260
Rp261
sg15
I10
sg27
g20
((lp262
(I8
I3
tp263
a(I5
I10
tp264
a(I2
I0
tp265
a(I9
I0
tp266
a(I8
I10
tp267
a(I1
I5
tp268
a(I8
I8
tp269
a(I9
I5
tp270
a(I7
I9
tp271
atp272
Rp273
sg13
((I2
I6
tp274
(I7
I7
tp275
(I3
I5
tp276
(I3
I0
tp277
tp278
sg14
I11
sbs(iproblems
RoomID
p279
(dp280
g10
I6
sg11
(I8
I4
tp281
sg13
I3
sg14
I10
sg15
I12
sg16
I3312890215458166314
sb(imulti_robot_problem
MultiRobotState
p282
(dp283
g19
g20
((lp284
(I7
I3
tp285
a(I5
I4
tp286
a(I10
I1
tp287
a(I6
I6
tp288
a(I5
I6
tp289
a(I10
I6
tp290
a(I11
I7
tp291
a(I9
I4
tp292
a(I8
I5
tp293
a(I5
I8
tp294
a(I10
I8
tp295
a(I7
I4
tp296
a(I6
I7
tp297
a(I5
I5
tp298
a(I9
I2
tp299
a(I7
I6
tp300
a(I9
I9
tp301
a(I8
I8
tp302
a(I6
I3
tp303
a(I11
I1
tp304
a(I4
I3
tp305
a(I1
I7
tp306
a(I9
I5
tp307
a(I7
I8
tp308
a(I6
I1
tp309
a(I10
I9
tp310
ag281
atp311
Rp312
sg15
I12
sg27
g20
((lp313
(I2
I7
tp314
a(I4
I8
tp315
a(I3
I0
tp316
a(I1
I0
tp317
a(I2
I2
tp318
a(I10
I2
tp319
atp320
Rp321
sg13
((I10
I4
tp322
(I3
I2
tp323
(I7
I5
tp324
tp325
sg14
I10
sbs(iproblems
RoomID
p326
(dp327
g10
I6
sg11
(I4
I10
tp328
sg13
I4
sg14
I11
sg15
I11
sg16
I6635191922321441235
sb(imulti_robot_problem
MultiRobotState
p329
(dp330
g19
g20
((lp331
(I6
I6
tp332
a(I3
I0
tp333
a(I2
I8
tp334
a(I10
I6
tp335
a(I3
I7
tp336
a(I2
I5
tp337
a(I8
I5
tp338
a(I0
I3
tp339
a(I1
I2
tp340
a(I6
I7
tp341
a(I5
I5
tp342
a(I2
I9
tp343
a(I8
I1
tp344
a(I7
I6
tp345
a(I4
I4
tp346
a(I1
I5
tp347
a(I7
I10
tp348
a(I0
I4
tp349
a(I1
I10
tp350
a(I8
I6
tp351
a(I9
I7
tp352
ag328
a(I2
I6
tp353
a(I10
I4
tp354
a(I1
I4
tp355
a(I2
I10
tp356
a(I7
I5
tp357
a(I9
I6
tp358
a(I10
I5
tp359
a(I6
I8
tp360
a(I5
I7
tp361
a(I3
I4
tp362
a(I3
I10
tp363
atp364
Rp365
sg15
I11
sg27
g20
((lp366
(I7
I3
tp367
a(I5
I10
tp368
a(I9
I5
tp369
a(I6
I10
tp370
a(I0
I2
tp371
a(I2
I4
tp372
atp373
Rp374
sg13
((I7
I2
tp375
(I7
I8
tp376
(I5
I6
tp377
(I10
I7
tp378
tp379
sg14
I11
sbs(iproblems
RoomID
p380
(dp381
g10
I9
sg11
(I7
I9
tp382
sg13
I3
sg14
I10
sg15
I11
sg16
I4245353069165461937
sb(imulti_robot_problem
MultiRobotState
p383
(dp384
g19
g20
((lp385
(I5
I9
tp386
a(I4
I7
tp387
a(I0
I0
tp388
a(I6
I6
tp389
a(I6
I9
tp390
a(I4
I6
tp391
a(I2
I3
tp392
a(I8
I6
tp393
a(I2
I5
tp394
a(I5
I7
tp395
a(I5
I8
tp396
a(I3
I3
tp397
a(I9
I5
tp398
a(I6
I7
tp399
a(I5
I5
tp400
a(I10
I7
tp401
a(I7
I6
tp402
a(I4
I4
tp403
a(I2
I4
tp404
a(I4
I8
tp405
a(I6
I5
tp406
ag382
a(I2
I2
tp407
a(I10
I0
tp408
a(I3
I5
tp409
a(I7
I8
tp410
a(I1
I1
tp411
a(I10
I9
tp412
atp413
Rp414
sg15
I11
sg27
g20
((lp415
(I1
I3
tp416
a(I8
I1
tp417
a(I6
I1
tp418
a(I2
I1
tp419
a(I9
I2
tp420
a(I2
I6
tp421
a(I0
I5
tp422
a(I4
I3
tp423
a(I3
I7
tp424
atp425
Rp426
sg13
((I7
I4
tp427
(I2
I7
tp428
(I10
I2
tp429
tp430
sg14
I10
sbssg155
S'mild_roomset'
p431
sbsg155
g157
sg158
(dp432
g178
((lp433
F300.06
tp434
sg227
((lp435
F302.35000000000002
tp436
sg279
((lp437
F272.31000000000006
tp438
sg326
((lp439
F300.44999999999982
tp440
sg380
((lp441
F300.85000000000014
tp442
ssba(imeasure_core
ProblemSetSolution
p443
(dp444
g3
(imeasure_core
RoomSet
p445
(dp446
g6
(dp447
(iproblems
RoomID
p448
(dp449
g10
I14
sg11
(I4
I3
tp450
sg13
I6
sg14
I10
sg15
I10
sg16
I917114838536145882
sb(imulti_robot_problem
MultiRobotState
p451
(dp452
g19
g20
((lp453
(I7
I3
tp454
a(I4
I7
tp455
a(I8
I2
tp456
a(I4
I5
tp457
a(I9
I3
tp458
a(I5
I4
tp459
a(I5
I6
tp460
a(I6
I2
tp461
a(I2
I3
tp462
a(I5
I1
tp463
a(I7
I2
tp464
a(I3
I5
tp465
a(I4
I6
tp466
a(I6
I3
tp467
a(I1
I5
tp468
ag450
a(I7
I8
tp469
atp470
Rp471
sg15
I10
sg27
g20
((lp472
(I0
I1
tp473
a(I1
I2
tp474
a(I8
I3
tp475
a(I0
I0
tp476
a(I6
I8
tp477
a(I4
I8
tp478
a(I3
I1
tp479
a(I7
I5
tp480
a(I8
I7
tp481
a(I0
I4
tp482
a(I7
I9
tp483
a(I5
I2
tp484
a(I2
I4
tp485
a(I8
I4
tp486
atp487
Rp488
sg13
((I1
I0
tp489
(I3
I7
tp490
(I1
I8
tp491
(I1
I9
tp492
(I3
I8
tp493
(I3
I9
tp494
tp495
sg14
I10
sbs(iproblems
RoomID
p496
(dp497
g10
I14
sg11
(I9
I7
tp498
sg13
I7
sg14
I12
sg15
I11
sg16
I5559088234891557757
sb(imulti_robot_problem
MultiRobotState
p499
(dp500
g19
g20
((lp501
(I0
I1
tp502
a(I6
I4
tp503
a(I5
I4
tp504
a(I4
I6
tp505
a(I6
I7
tp506
a(I5
I5
tp507
a(I9
I8
tp508
a(I8
I10
tp509
a(I9
I9
tp510
a(I1
I8
tp511
a(I8
I8
tp512
a(I2
I3
tp513
a(I10
I1
tp514
a(I7
I7
tp515
ag498
atp516
Rp517
sg15
I11
sg27
g20
((lp518
(I7
I3
tp519
a(I0
I0
tp520
a(I5
I11
tp521
a(I7
I6
tp522
a(I6
I6
tp523
a(I6
I0
tp524
a(I1
I5
tp525
a(I9
I11
tp526
a(I10
I0
tp527
a(I2
I5
tp528
a(I0
I8
tp529
a(I7
I8
tp530
a(I6
I5
tp531
a(I7
I9
tp532
atp533
Rp534
sg13
((I3
I7
tp535
(I3
I6
tp536
(I0
I6
tp537
(I4
I0
tp538
(I9
I3
tp539
(I10
I5
tp540
(I3
I0
tp541
tp542
sg14
I12
sbs(iproblems
RoomID
p543
(dp544
g10
I11
sg11
(I4
I3
tp545
sg13
I5
sg14
I11
sg15
I13
sg16
I3312890215458166314
sb(imulti_robot_problem
MultiRobotState
p546
(dp547
g19
g20
((lp548
(I7
I3
tp549
a(I5
I10
tp550
a(I5
I9
tp551
a(I12
I7
tp552
a(I10
I6
tp553
a(I7
I7
tp554
a(I1
I6
tp555
a(I0
I10
tp556
a(I9
I5
tp557
a(I6
I7
tp558
a(I8
I5
tp559
a(I7
I2
tp560
a(I5
I3
tp561
a(I7
I4
tp562
a(I4
I9
tp563
a(I6
I8
tp564
a(I8
I1
tp565
a(I9
I6
tp566
a(I3
I10
tp567
a(I7
I1
tp568
a(I6
I3
tp569
ag545
a(I8
I6
tp570
a(I5
I2
tp571
a(I6
I1
tp572
a(I10
I2
tp573
atp574
Rp575
sg15
I13
sg27
g20
((lp576
(I2
I7
tp577
a(I10
I5
tp578
a(I12
I1
tp579
a(I9
I2
tp580
a(I11
I2
tp581
a(I5
I7
tp582
a(I1
I8
tp583
a(I2
I3
tp584
a(I10
I1
tp585
a(I1
I0
tp586
a(I10
I9
tp587
atp588
Rp589
sg13
((I11
I5
tp590
(I3
I3
tp591
(I7
I5
tp592
(I4
I0
tp593
(I8
I4
tp594
tp595
sg14
I11
sbs(iproblems
RoomID
p596
(dp597
g10
I14
sg11
(I5
I5
tp598
sg13
I5
sg14
I11
sg15
I12
sg16
I4245353069165461937
sb(imulti_robot_problem
MultiRobotState
p599
(dp600
g19
g20
((lp601
(I5
I9
tp602
a(I10
I6
tp603
a(I7
I7
tp604
a(I8
I9
tp605
a(I2
I3
tp606
a(I3
I3
tp607
a(I4
I9
tp608
ag598
a(I7
I8
tp609
a(I4
I4
tp610
a(I3
I6
tp611
a(I2
I2
tp612
a(I3
I4
tp613
a(I1
I1
tp614
a(I11
I6
tp615
a(I9
I7
tp616
atp617
Rp618
sg15
I12
sg27
g20
((lp619
(I2
I7
tp620
a(I11
I7
tp621
a(I5
I6
tp622
a(I5
I7
tp623
a(I6
I7
tp624
a(I8
I1
tp625
a(I11
I9
tp626
a(I2
I1
tp627
a(I11
I0
tp628
a(I0
I6
tp629
a(I0
I0
tp630
a(I4
I3
tp631
a(I2
I5
tp632
a(I10
I2
tp633
atp634
Rp635
sg13
((I8
I5
tp636
(I3
I7
tp637
(I11
I2
tp638
(I6
I1
tp639
(I1
I3
tp640
tp641
sg14
I11
sbs(iproblems
RoomID
p642
(dp643
g10
I11
sg11
(I5
I8
tp644
sg13
I7
sg14
I12
sg15
I13
sg16
I3288047242128213749
sb(imulti_robot_problem
MultiRobotState
p645
(dp646
g19
g20
((lp647
(I6
I4
tp648
a(I5
I7
tp649
a(I11
I11
tp650
a(I6
I6
tp651
a(I3
I0
tp652
a(I11
I9
tp653
a(I7
I7
tp654
a(I9
I10
tp655
a(I2
I3
tp656
a(I6
I8
tp657
a(I9
I6
tp658
ag644
a(I5
I3
tp659
a(I11
I0
tp660
a(I6
I7
tp661
a(I5
I5
tp662
a(I5
I2
tp663
a(I4
I4
tp664
a(I7
I4
tp665
a(I6
I3
tp666
a(I6
I5
tp667
a(I8
I6
tp668
a(I5
I11
tp669
a(I4
I1
tp670
a(I10
I2
tp671
atp672
Rp673
sg15
I13
sg27
g20
((lp674
(I10
I8
tp675
a(I12
I11
tp676
a(I4
I10
tp677
a(I4
I8
tp678
a(I11
I7
tp679
a(I12
I5
tp680
a(I9
I4
tp681
a(I1
I7
tp682
a(I1
I11
tp683
a(I0
I2
tp684
a(I3
I5
tp685
atp686
Rp687
sg13
((I10
I6
tp688
(I11
I2
tp689
(I9
I8
tp690
(I11
I3
tp691
(I1
I3
tp692
(I9
I3
tp693
(I12
I0
tp694
tp695
sg14
I12
sbssg155
S'heavy_roomset'
p696
sbsg155
g157
sg158
(dp697
g448
((lp698
F301.49999999999977
tp699
sg496
((lp700
F301.05000000000018
tp701
sg543
((lp702
F300.80000000000018
tp703
sg596
((lp704
F301.2199999999998
tp705
sg642
((lp706
F302.51999999999998
tp707
ssba.