(lp0
(imeasure_core
ProblemSetSolution
p1
(dp2
S'roomset'
p3
(imeasure_core
RoomSet
p4
(dp5
S'rooms'
p6
(dp7
(iproblems
RoomID
p8
(dp9
S'dusts'
p10
I8
sS'obstacles'
p11
(I2
I8
tp12
sS'robots'
p13
I4
sS'height'
p14
I10
sS'width'
p15
I7
sS'seed'
p16
I7106521602475165645
sb(imulti_robot_problem
MultiRobotState
p17
(dp18
S'obstacle_locations'
p19
c__builtin__
frozenset
p20
((lp21
(I3
I8
tp22
a(I5
I9
tp23
a(I4
I9
tp24
ag12
a(I5
I2
tp25
a(I5
I8
tp26
atp27
Rp28
sg15
I7
sS'dirt_locations'
p29
g20
((lp30
(I1
I2
tp31
a(I2
I7
tp32
a(I0
I0
tp33
a(I3
I1
tp34
a(I6
I0
tp35
a(I2
I1
tp36
a(I2
I3
tp37
a(I2
I5
tp38
atp39
Rp40
sg13
((I0
I8
tp41
(I4
I5
tp42
(I3
I9
tp43
(I1
I8
tp44
tp45
sg14
I10
sbs(iproblems
RoomID
p46
(dp47
g10
I10
sg11
(I3
I3
tp48
sg13
I4
sg14
I10
sg15
I8
sg16
I746805015404516437
sb(imulti_robot_problem
MultiRobotState
p49
(dp50
g19
g20
((lp51
(I7
I4
tp52
ag48
a(I4
I2
tp53
a(I6
I1
tp54
a(I3
I1
tp55
a(I4
I1
tp56
a(I1
I4
tp57
atp58
Rp59
sg15
I8
sg29
g20
((lp60
(I4
I6
tp61
a(I6
I3
tp62
a(I2
I0
tp63
a(I3
I9
tp64
a(I2
I3
tp65
a(I3
I6
tp66
a(I5
I1
tp67
a(I1
I0
tp68
a(I0
I8
tp69
a(I5
I8
tp70
atp71
Rp72
sg13
((I3
I8
tp73
(I4
I8
tp74
(I4
I9
tp75
(I0
I3
tp76
tp77
sg14
I10
sbs(iproblems
RoomID
p78
(dp79
g10
I9
sg11
(I7
I6
tp80
sg13
I5
sg14
I9
sg15
I9
sg16
I8963783824838420066
sb(imulti_robot_problem
MultiRobotState
p81
(dp82
g19
g20
((lp83
(I2
I7
tp84
a(I5
I5
tp85
a(I6
I6
tp86
ag80
a(I4
I4
tp87
a(I7
I1
tp88
a(I7
I5
tp89
a(I2
I2
tp90
a(I6
I5
tp91
atp92
Rp93
sg15
I9
sg29
g20
((lp94
(I3
I0
tp95
a(I2
I1
tp96
a(I6
I3
tp97
a(I0
I7
tp98
a(I3
I7
tp99
a(I8
I6
tp100
a(I0
I8
tp101
a(I8
I5
tp102
a(I7
I2
tp103
atp104
Rp105
sg13
((I7
I7
tp106
(I2
I4
tp107
(I3
I2
tp108
(I4
I7
tp109
(I5
I0
tp110
tp111
sg14
I9
sbs(iproblems
RoomID
p112
(dp113
g10
I5
sg11
(I4
I5
tp114
sg13
I1
sg14
I9
sg15
I8
sg16
I6604845167042249220
sb(imulti_robot_problem
MultiRobotState
p115
(dp116
g19
g20
((lp117
(I7
I4
tp118
ag114
a(I5
I4
tp119
a(I6
I1
tp120
a(I6
I5
tp121
atp122
Rp123
sg15
I8
sg29
g20
((lp124
(I2
I8
tp125
a(I1
I0
tp126
a(I1
I1
tp127
a(I4
I3
tp128
a(I4
I8
tp129
atp130
Rp131
sg13
((I3
I6
tp132
tp133
sg14
I9
sbs(iproblems
RoomID
p134
(dp135
g10
I6
sg11
(I7
I4
tp136
sg13
I2
sg14
I7
sg15
I9
sg16
I4029557120079369747
sb(imulti_robot_problem
MultiRobotState
p137
(dp138
g19
g20
((lp139
g136
a(I7
I5
tp140
a(I4
I1
tp141
a(I6
I1
tp142
a(I8
I5
tp143
a(I8
I4
tp144
atp145
Rp146
sg15
I9
sg29
g20
((lp147
(I2
I6
tp148
a(I6
I6
tp149
a(I3
I0
tp150
a(I2
I5
tp151
a(I1
I1
tp152
a(I5
I3
tp153
atp154
Rp155
sg13
((I6
I0
tp156
(I3
I1
tp157
tp158
sg14
I7
sbssS'name'
p159
S'easy_roomset'
p160
sbsg159
S'AnytimeBest-dinf_with_PowerHeuristic2'
p161
sS'solutions'
p162
(dp163
g8
((lp164
(F0.53000000000000003
I15
tp165
aF40.039999999999999
tp166
sg46
((lp167
(F1.8500000000000014
I20
tp168
aF40.060000000000009
tp169
sg78
((lp170
(F1.3499999999999943
I7
tp171
aF40.069999999999993
tp172
sg112
((lp173
(F0.15000000000000568
I35
tp174
a(F1.3400000000000034
I33
tp175
a(F1.9599999999999937
I30
tp176
a(F2.3299999999999983
I26
tp177
a(F3.3299999999999983
I25
tp178
a(F3.5400000000000063
I23
tp179
a(F3.9599999999999937
I21
tp180
a(F5.3499999999999943
I20
tp181
a(F5.5999999999999943
I18
tp182
aF6.6899999999999977
tp183
sg134
((lp184
(F0.07000000000000739
I18
tp185
aF40.0
tp186
ssba(imeasure_core
ProblemSetSolution
p187
(dp188
g3
(imeasure_core
RoomSet
p189
(dp190
g6
(dp191
(iproblems
RoomID
p192
(dp193
g10
I6
sg11
(I5
I8
tp194
sg13
I3
sg14
I9
sg15
I11
sg16
I4029557120079369747
sb(imulti_robot_problem
MultiRobotState
p195
(dp196
g19
g20
((lp197
(I7
I3
tp198
a(I1
I3
tp199
a(I4
I8
tp200
a(I10
I6
tp201
a(I7
I1
tp202
a(I1
I4
tp203
a(I3
I7
tp204
a(I5
I1
tp205
a(I2
I5
tp206
a(I8
I5
tp207
ag194
a(I10
I5
tp208
a(I4
I6
tp209
a(I10
I7
tp210
a(I9
I6
tp211
a(I6
I1
tp212
a(I4
I4
tp213
a(I6
I3
tp214
a(I3
I6
tp215
a(I1
I7
tp216
a(I9
I5
tp217
a(I2
I4
tp218
a(I8
I4
tp219
atp220
Rp221
sg15
I11
sg29
g20
((lp222
(I3
I8
tp223
a(I8
I8
tp224
a(I7
I2
tp225
a(I5
I2
tp226
a(I1
I1
tp227
a(I2
I1
tp228
atp229
Rp230
sg13
((I8
I0
tp231
(I3
I1
tp232
(I4
I0
tp233
tp234
sg14
I9
sbs(iproblems
RoomID
p235
(dp236
g10
I10
sg11
(I4
I4
tp237
sg13
I4
sg14
I12
sg15
I12
sg16
I2569146471088859254
sb(imulti_robot_problem
MultiRobotState
p238
(dp239
g19
g20
((lp240
(I5
I4
tp241
a(I4
I8
tp242
a(I4
I5
tp243
a(I11
I2
tp244
a(I4
I7
tp245
a(I1
I9
tp246
a(I10
I3
tp247
a(I5
I8
tp248
a(I5
I5
tp249
a(I3
I3
tp250
ag237
a(I2
I11
tp251
a(I5
I6
tp252
a(I7
I2
tp253
a(I4
I3
tp254
a(I2
I2
tp255
a(I10
I0
tp256
a(I5
I11
tp257
a(I1
I1
tp258
atp259
Rp260
sg15
I12
sg29
g20
((lp261
(I2
I7
tp262
a(I10
I10
tp263
a(I3
I0
tp264
a(I3
I11
tp265
a(I0
I2
tp266
a(I1
I5
tp267
a(I9
I4
tp268
a(I0
I8
tp269
a(I2
I4
tp270
a(I11
I6
tp271
atp272
Rp273
sg13
((I9
I11
tp274
(I7
I10
tp275
(I6
I0
tp276
(I10
I1
tp277
tp278
sg14
I12
sbs(iproblems
RoomID
p279
(dp280
g10
I7
sg11
(I5
I4
tp281
sg13
I3
sg14
I11
sg15
I12
sg16
I2577854692418029171
sb(imulti_robot_problem
MultiRobotState
p282
(dp283
g19
g20
((lp284
(I4
I7
tp285
a(I3
I0
tp286
a(I8
I0
tp287
a(I2
I1
tp288
a(I6
I2
tp289
a(I1
I6
tp290
a(I5
I1
tp291
a(I4
I0
tp292
a(I1
I2
tp293
a(I4
I9
tp294
a(I3
I3
tp295
a(I8
I1
tp296
a(I3
I10
tp297
a(I6
I3
tp298
a(I3
I6
tp299
a(I1
I10
tp300
a(I8
I6
tp301
a(I3
I5
tp302
ag281
a(I2
I6
tp303
a(I7
I1
tp304
a(I6
I0
tp305
a(I1
I9
tp306
a(I4
I2
tp307
a(I0
I8
tp308
a(I5
I3
tp309
a(I0
I1
tp310
a(I7
I0
tp311
a(I5
I2
tp312
a(I6
I1
tp313
a(I3
I1
tp314
a(I3
I8
tp315
a(I3
I4
tp316
a(I2
I4
tp317
atp318
Rp319
sg15
I12
sg29
g20
((lp320
(I4
I10
tp321
a(I10
I5
tp322
a(I10
I1
tp323
a(I2
I8
tp324
a(I7
I6
tp325
a(I4
I4
tp326
a(I9
I7
tp327
atp328
Rp329
sg13
((I10
I6
tp330
(I1
I4
tp331
(I11
I8
tp332
tp333
sg14
I11
sbs(iproblems
RoomID
p334
(dp335
g10
I6
sg11
(I4
I5
tp336
sg13
I3
sg14
I12
sg15
I12
sg16
I1360307757430227195
sb(imulti_robot_problem
MultiRobotState
p337
(dp338
g19
g20
((lp339
(I6
I4
tp340
a(I3
I2
tp341
a(I10
I4
tp342
a(I3
I0
tp343
a(I5
I4
tp344
a(I7
I5
tp345
a(I5
I1
tp346
a(I8
I5
tp347
a(I6
I5
tp348
a(I4
I0
tp349
a(I7
I4
tp350
a(I8
I3
tp351
a(I6
I7
tp352
a(I5
I5
tp353
a(I8
I10
tp354
a(I6
I3
tp355
a(I5
I6
tp356
a(I6
I2
tp357
ag336
a(I9
I5
tp358
a(I5
I3
tp359
atp360
Rp361
sg15
I12
sg29
g20
((lp362
(I3
I3
tp363
a(I4
I3
tp364
a(I9
I2
tp365
a(I5
I7
tp366
a(I0
I2
tp367
a(I11
I6
tp368
atp369
Rp370
sg13
((I11
I11
tp371
(I1
I3
tp372
(I0
I1
tp373
tp374
sg14
I12
sbs(iproblems
RoomID
p375
(dp376
g10
I6
sg11
(I2
I4
tp377
sg13
I3
sg14
I10
sg15
I10
sg16
I1821862095355237593
sb(imulti_robot_problem
MultiRobotState
p378
(dp379
g19
g20
((lp380
(I6
I4
tp381
a(I4
I7
tp382
a(I2
I6
tp383
a(I5
I6
tp384
a(I6
I0
tp385
a(I1
I9
tp386
a(I8
I5
tp387
a(I7
I2
tp388
a(I7
I9
tp389
a(I5
I3
tp390
a(I6
I7
tp391
a(I3
I3
tp392
a(I5
I5
tp393
a(I4
I4
tp394
a(I6
I3
tp395
a(I4
I5
tp396
a(I6
I5
tp397
a(I4
I3
tp398
a(I0
I4
tp399
a(I8
I6
tp400
a(I3
I5
tp401
a(I3
I4
tp402
ag377
atp403
Rp404
sg15
I10
sg29
g20
((lp405
(I0
I6
tp406
a(I7
I0
tp407
a(I5
I1
tp408
a(I2
I3
tp409
a(I2
I8
tp410
a(I9
I6
tp411
atp412
Rp413
sg13
((I2
I2
tp414
(I4
I2
tp415
(I0
I7
tp416
tp417
sg14
I10
sbssg159
S'mild_roomset'
p418
sbsg159
g161
sg162
(dp419
g192
((lp420
(F0.11000000000001364
I15
tp421
aF40.02000000000001
tp422
sg235
((lp423
(F8.4899999999999807
I122
tp424
aF40.039999999999992
tp425
sg279
((lp426
(F0.53999999999999204
I29
tp427
aF40.009999999999991
tp428
sg334
((lp429
F40.090000000000032
tp430
sg375
((lp431
(F0.1099999999999568
I13
tp432
aF40.009999999999991
tp433
ssba(imeasure_core
ProblemSetSolution
p434
(dp435
g3
(imeasure_core
RoomSet
p436
(dp437
g6
(dp438
(iproblems
RoomID
p439
(dp440
g10
I13
sg11
(I5
I3
tp441
sg13
I6
sg14
I13
sg15
I10
sg16
I7106521602475165645
sb(imulti_robot_problem
MultiRobotState
p442
(dp443
g19
g20
((lp444
(I5
I6
tp445
a(I5
I11
tp446
a(I7
I12
tp447
a(I0
I12
tp448
a(I2
I3
tp449
a(I6
I12
tp450
a(I7
I2
tp451
ag441
a(I1
I2
tp452
a(I4
I5
tp453
a(I8
I12
tp454
a(I7
I1
tp455
a(I2
I11
tp456
a(I6
I3
tp457
a(I6
I11
tp458
a(I0
I4
tp459
a(I0
I9
tp460
a(I0
I5
tp461
a(I3
I4
tp462
atp463
Rp464
sg15
I10
sg29
g20
((lp465
(I0
I1
tp466
a(I8
I3
tp467
a(I4
I6
tp468
a(I7
I11
tp469
a(I6
I9
tp470
a(I0
I11
tp471
a(I3
I9
tp472
a(I2
I12
tp473
a(I8
I6
tp474
a(I5
I1
tp475
a(I3
I7
tp476
a(I0
I3
tp477
a(I3
I5
tp478
atp479
Rp480
sg13
((I0
I10
tp481
(I6
I7
tp482
(I4
I11
tp483
(I1
I11
tp484
(I9
I0
tp485
(I3
I1
tp486
tp487
sg14
I13
sbs(iproblems
RoomID
p488
(dp489
g10
I15
sg11
(I9
I4
tp490
sg13
I6
sg14
I13
sg15
I11
sg16
I746805015404516437
sb(imulti_robot_problem
MultiRobotState
p491
(dp492
g19
g20
((lp493
(I8
I0
tp494
a(I4
I8
tp495
a(I4
I5
tp496
a(I10
I6
tp497
a(I6
I0
tp498
a(I3
I5
tp499
a(I3
I9
tp500
ag490
a(I4
I2
tp501
a(I7
I2
tp502
a(I7
I9
tp503
a(I10
I5
tp504
a(I5
I5
tp505
a(I4
I4
tp506
a(I1
I8
tp507
a(I8
I6
tp508
a(I5
I3
tp509
a(I5
I2
tp510
a(I2
I4
tp511
a(I9
I7
tp512
atp513
Rp514
sg15
I11
sg29
g20
((lp515
(I3
I12
tp516
a(I9
I1
tp517
a(I7
I1
tp518
a(I8
I1
tp519
a(I6
I10
tp520
a(I8
I9
tp521
a(I2
I0
tp522
a(I2
I3
tp523
a(I0
I10
tp524
a(I2
I2
tp525
a(I7
I11
tp526
a(I2
I5
tp527
a(I8
I5
tp528
a(I5
I8
tp529
a(I4
I11
tp530
atp531
Rp532
sg13
((I4
I10
tp533
(I6
I11
tp534
(I5
I12
tp535
(I0
I5
tp536
(I1
I0
tp537
(I7
I10
tp538
tp539
sg14
I13
sbs(iproblems
RoomID
p540
(dp541
g10
I11
sg11
(I9
I6
tp542
sg13
I6
sg14
I10
sg15
I12
sg16
I4029557120079369747
sb(imulti_robot_problem
MultiRobotState
p543
(dp544
g19
g20
((lp545
(I11
I7
tp546
a(I10
I6
tp547
a(I5
I5
tp548
a(I7
I1
tp549
a(I10
I7
tp550
a(I9
I8
tp551
a(I4
I4
tp552
a(I1
I6
tp553
a(I3
I6
tp554
a(I1
I7
tp555
ag542
a(I11
I6
tp556
atp557
Rp558
sg15
I12
sg29
g20
((lp559
(I1
I2
tp560
a(I1
I3
tp561
a(I4
I9
tp562
a(I8
I2
tp563
a(I8
I1
tp564
a(I6
I1
tp565
a(I2
I1
tp566
a(I7
I4
tp567
a(I1
I8
tp568
a(I5
I2
tp569
a(I1
I1
tp570
atp571
Rp572
sg13
((I8
I0
tp573
(I4
I1
tp574
(I4
I0
tp575
(I3
I9
tp576
(I8
I9
tp577
(I3
I8
tp578
tp579
sg14
I10
sbs(iproblems
RoomID
p580
(dp581
g10
I10
sg11
(I6
I7
tp582
sg13
I5
sg14
I12
sg15
I11
sg16
I6604845167042249220
sb(imulti_robot_problem
MultiRobotState
p583
(dp584
g19
g20
((lp585
(I9
I0
tp586
ag582
a(I7
I1
tp587
a(I2
I8
tp588
a(I10
I6
tp589
a(I7
I7
tp590
a(I8
I8
tp591
a(I9
I4
tp592
a(I8
I6
tp593
a(I7
I11
tp594
a(I9
I7
tp595
atp596
Rp597
sg15
I11
sg29
g20
((lp598
(I10
I5
tp599
a(I3
I3
tp600
a(I5
I11
tp601
a(I8
I1
tp602
a(I9
I8
tp603
a(I6
I9
tp604
a(I0
I7
tp605
a(I0
I10
tp606
a(I4
I1
tp607
a(I8
I4
tp608
atp609
Rp610
sg13
((I4
I8
tp611
(I1
I0
tp612
(I2
I2
tp613
(I3
I11
tp614
(I6
I5
tp615
tp616
sg14
I12
sbs(iproblems
RoomID
p617
(dp618
g10
I15
sg11
(I5
I5
tp619
sg13
I6
sg14
I13
sg15
I13
sg16
I2569146471088859254
sb(imulti_robot_problem
MultiRobotState
p620
(dp621
g19
g20
((lp622
(I12
I2
tp623
a(I5
I4
tp624
a(I3
I3
tp625
a(I5
I9
tp626
a(I4
I5
tp627
a(I6
I1
tp628
a(I10
I10
tp629
a(I8
I8
tp630
a(I4
I3
tp631
a(I2
I2
tp632
a(I9
I11
tp633
a(I8
I12
tp634
a(I1
I1
tp635
a(I12
I3
tp636
ag619
atp637
Rp638
sg15
I13
sg29
g20
((lp639
(I10
I5
tp640
a(I3
I12
tp641
a(I8
I2
tp642
a(I5
I6
tp643
a(I12
I7
tp644
a(I11
I3
tp645
a(I0
I2
tp646
a(I11
I0
tp647
a(I0
I9
tp648
a(I2
I12
tp649
a(I1
I10
tp650
a(I3
I7
tp651
a(I10
I11
tp652
a(I2
I4
tp653
a(I5
I12
tp654
atp655
Rp656
sg13
((I9
I12
tp657
(I7
I11
tp658
(I7
I0
tp659
(I10
I1
tp660
(I1
I5
tp661
(I4
I0
tp662
tp663
sg14
I13
sbssg159
S'heavy_roomset'
p664
sbsg159
g161
sg162
(dp665
g439
((lp666
F40.839999999999975
tp667
sg488
((lp668
F41.100000000000023
tp669
sg540
((lp670
(F7.1999999999999886
I6
tp671
aF40.449999999999989
tp672
sg580
((lp673
(F5.6700000000000159
I21
tp674
aF40.100000000000023
tp675
sg617
((lp676
(F39.600000000000023
I27
tp677
aF40.329999999999927
tp678
ssba(imeasure_core
ProblemSetSolution
p679
(dp680
g3
g4
sg159
S'AnytimeBest-dinf_with_LinearHeuristic'
p681
sg162
(dp682
g8
((lp683
(F30.67999999999995
I155
tp684
aF40.069999999999936
tp685
sg46
((lp686
(F1.8999999999999773
I24
tp687
aF40.120000000000005
tp688
sg78
((lp689
(F31.450000000000045
I91
tp690
aF40.169999999999959
tp691
sg112
((lp692
(F0.0099999999999909051
I18
tp693
aF6.4700000000000273
tp694
sg134
((lp695
(F0.029999999999972715
I10
tp696
aF40.019999999999982
tp697
ssba(imeasure_core
ProblemSetSolution
p698
(dp699
g3
g189
sg159
g681
sg162
(dp700
g192
((lp701
F40.129999999999995
tp702
sg235
((lp703
F40.060000000000059
tp704
sg279
((lp705
F40.059999999999945
tp706
sg334
((lp707
F40.060000000000059
tp708
sg375
((lp709
(F10.340000000000032
I134
tp710
a(F11.319999999999936
I133
tp711
a(F12.439999999999941
I132
tp712
a(F13.059999999999945
I131
tp713
aF40.059999999999945
tp714
ssba(imeasure_core
ProblemSetSolution
p715
(dp716
g3
g436
sg159
g681
sg162
(dp717
g439
((lp718
F40.300000000000068
tp719
sg488
((lp720
F42.449999999999932
tp721
sg540
((lp722
(F11.290000000000077
I7
tp723
aF40.980000000000132
tp724
sg580
((lp725
F40.839999999999918
tp726
sg617
((lp727
F40.660000000000082
tp728
ssba.