(lp0
(imeasure_core
ProblemSetSolution
p1
(dp2
S'roomset'
p3
(imeasure_core
RoomSet
p4
(dp5
S'rooms'
p6
(dp7
(iproblems
RoomID
p8
(dp9
S'width'
p10
I9
sS'dusts'
p11
I6
sS'seed'
p12
I1164115433906158532
sS'obstacles'
p13
(I0
I4
tp14
sS'robots'
p15
I1
sS'height'
p16
I9
sb(imulti_robot_problem
MultiRobotState
p17
(dp18
S'obstacle_locations'
p19
c__builtin__
frozenset
p20
((lp21
(I0
I1
tp22
a(I1
I2
tp23
a(I1
I3
tp24
a(I1
I4
tp25
ag14
atp26
Rp27
sg10
I9
sS'dirt_locations'
p28
g20
((lp29
(I6
I4
tp30
a(I1
I8
tp31
a(I1
I6
tp32
a(I1
I0
tp33
a(I8
I5
tp34
a(I3
I5
tp35
atp36
Rp37
sg15
((I4
I5
tp38
tp39
sg16
I9
sbs(iproblems
RoomID
p40
(dp41
g10
I7
sg11
I8
sg12
I2175216119781798972
sg13
(I6
I5
tp42
sg15
I5
sg16
I8
sb(imulti_robot_problem
MultiRobotState
p43
(dp44
g19
g20
((lp45
(I1
I2
tp46
a(I2
I6
tp47
a(I6
I7
tp48
a(I6
I6
tp49
a(I5
I7
tp50
a(I2
I3
tp51
a(I0
I4
tp52
a(I1
I0
tp53
ag42
atp54
Rp55
sg10
I7
sg28
g20
((lp56
(I5
I4
tp57
a(I5
I5
tp58
a(I4
I4
tp59
a(I0
I6
tp60
a(I0
I5
tp61
a(I1
I7
tp62
a(I4
I2
tp63
a(I0
I2
tp64
atp65
Rp66
sg15
((I1
I3
tp67
(I6
I4
tp68
(I3
I7
tp69
(I6
I0
tp70
(I2
I1
tp71
tp72
sg16
I8
sbs(iproblems
RoomID
p73
(dp74
g10
I7
sg11
I5
sg12
I8711387064946514083
sg13
(I0
I4
tp75
sg15
I5
sg16
I7
sb(imulti_robot_problem
MultiRobotState
p76
(dp77
g19
g20
((lp78
(I0
I1
tp79
a(I2
I2
tp80
a(I2
I4
tp81
a(I1
I5
tp82
ag75
a(I0
I3
tp83
a(I0
I2
tp84
a(I6
I5
tp85
atp86
Rp87
sg10
I7
sg28
g20
((lp88
(I5
I6
tp89
a(I6
I4
tp90
a(I3
I2
tp91
a(I6
I1
tp92
a(I6
I6
tp93
atp94
Rp95
sg15
((I1
I1
tp96
(I6
I0
tp97
(I5
I0
tp98
(I1
I3
tp99
(I4
I5
tp100
tp101
sg16
I7
sbs(iproblems
RoomID
p102
(dp103
g10
I7
sg11
I9
sg12
I3872982626502034966
sg13
(I2
I2
tp104
sg15
I2
sg16
I9
sb(imulti_robot_problem
MultiRobotState
p105
(dp106
g19
g20
((lp107
(I2
I6
tp108
a(I4
I1
tp109
ag104
a(I5
I0
tp110
a(I3
I1
tp111
atp112
Rp113
sg10
I7
sg28
g20
((lp114
(I4
I7
tp115
a(I2
I8
tp116
a(I4
I4
tp117
a(I3
I2
tp118
a(I1
I4
tp119
a(I2
I1
tp120
a(I4
I2
tp121
a(I0
I3
tp122
a(I5
I8
tp123
atp124
Rp125
sg15
((I1
I6
tp126
(I1
I7
tp127
tp128
sg16
I9
sbs(iproblems
RoomID
p129
(dp130
g10
I10
sg11
I9
sg12
I7002664860023442459
sg13
(I6
I3
tp131
sg15
I4
sg16
I9
sb(imulti_robot_problem
MultiRobotState
p132
(dp133
g19
g20
((lp134
(I7
I4
tp135
a(I7
I3
tp136
ag131
a(I6
I5
tp137
a(I9
I7
tp138
atp139
Rp140
sg10
I10
sg28
g20
((lp141
(I8
I6
tp142
a(I2
I6
tp143
a(I6
I8
tp144
a(I2
I8
tp145
a(I5
I7
tp146
a(I0
I0
tp147
a(I5
I1
tp148
a(I4
I2
tp149
a(I8
I4
tp150
atp151
Rp152
sg15
((I7
I5
tp153
(I7
I6
tp154
(I1
I7
tp155
(I1
I6
tp156
tp157
sg16
I9
sbssS'name'
p158
S'easy_roomset'
p159
sbsS'name'
p160
S'AnytimeBest-d10_with_PowerHeuristic2'
p161
sS'solutions'
p162
(dp163
g8
((lp164
F0.40999999999985448
tp165
sg40
((lp166
(F0.5
I5
tp167
aF40.050000000000182
tp168
sg73
((lp169
(F0.1999999999998181
I4
tp170
aF40.069999999999709
tp171
sg102
((lp172
F40.039999999999964
tp173
sg129
((lp174
F40.039999999999964
tp175
ssba(imeasure_core
ProblemSetSolution
p176
(dp177
g3
(imeasure_core
RoomSet
p178
(dp179
S'rooms'
p180
(dp181
(iproblems
RoomID
p182
(dp183
S'width'
p184
I11
sS'dusts'
p185
I6
sS'seed'
p186
I1164115433906158532
sS'obstacles'
p187
(I5
I5
tp188
sS'robots'
p189
I3
sS'height'
p190
I11
sb(imulti_robot_problem
MultiRobotState
p191
(dp192
S'obstacle_locations'
p193
g20
((lp194
(I1
I3
tp195
a(I4
I8
tp196
a(I3
I0
tp197
a(I8
I0
tp198
a(I3
I2
tp199
a(I0
I7
tp200
a(I3
I7
tp201
a(I2
I5
tp202
ag188
a(I2
I0
tp203
a(I3
I10
tp204
a(I6
I10
tp205
a(I3
I6
tp206
a(I5
I4
tp207
a(I4
I5
tp208
a(I1
I4
tp209
a(I3
I9
tp210
a(I0
I5
tp211
a(I2
I1
tp212
a(I5
I3
tp213
a(I8
I3
tp214
a(I3
I1
tp215
a(I0
I6
tp216
a(I1
I8
tp217
a(I4
I3
tp218
a(I0
I2
tp219
atp220
Rp221
sg184
I11
sS'dirt_locations'
p222
g20
((lp223
(I4
I9
tp224
a(I4
I6
tp225
a(I10
I6
tp226
a(I8
I8
tp227
a(I7
I5
tp228
a(I8
I2
tp229
atp230
Rp231
sg189
((I5
I7
tp232
(I2
I10
tp233
(I2
I8
tp234
tp235
sg190
I11
sbs(iproblems
RoomID
p236
(dp237
g184
I9
sg185
I8
sg186
I2175216119781798972
sg187
(I5
I4
tp238
sg189
I4
sg190
I10
sb(imulti_robot_problem
MultiRobotState
p239
(dp240
g193
g20
((lp241
(I6
I6
tp242
a(I2
I8
tp243
a(I0
I7
tp244
a(I6
I2
tp245
a(I1
I6
tp246
a(I2
I5
tp247
a(I5
I5
tp248
a(I8
I1
tp249
a(I7
I6
tp250
a(I6
I3
tp251
a(I2
I2
tp252
a(I8
I6
tp253
a(I6
I4
tp254
ag238
a(I8
I2
tp255
a(I7
I1
tp256
a(I1
I4
tp257
a(I7
I5
tp258
a(I8
I7
tp259
a(I1
I0
tp260
a(I6
I5
tp261
a(I3
I3
tp262
a(I8
I3
tp263
a(I7
I0
tp264
a(I6
I8
tp265
a(I7
I8
tp266
a(I7
I4
tp267
a(I0
I6
tp268
a(I1
I8
tp269
a(I8
I8
tp270
a(I4
I3
tp271
a(I1
I7
tp272
a(I3
I4
tp273
a(I0
I2
tp274
atp275
Rp276
sg184
I9
sg222
g20
((lp277
(I6
I7
tp278
a(I2
I9
tp279
a(I5
I6
tp280
a(I3
I1
tp281
a(I8
I9
tp282
a(I0
I5
tp283
a(I0
I3
tp284
a(I5
I2
tp285
atp286
Rp287
sg189
((I2
I4
tp288
(I8
I5
tp289
(I4
I9
tp290
(I7
I7
tp291
tp292
sg190
I10
sbs(iproblems
RoomID
p293
(dp294
g184
I9
sg185
I9
sg186
I1885758236351349410
sg187
(I5
I3
tp295
sg189
I3
sg190
I9
sb(imulti_robot_problem
MultiRobotState
p296
(dp297
g193
g20
((lp298
(I4
I7
tp299
a(I0
I0
tp300
a(I6
I7
tp301
a(I5
I5
tp302
a(I7
I1
tp303
a(I5
I6
tp304
a(I3
I4
tp305
a(I5
I7
tp306
a(I5
I4
tp307
a(I1
I6
tp308
a(I1
I5
tp309
a(I2
I3
tp310
a(I4
I3
tp311
a(I0
I4
tp312
a(I4
I2
tp313
a(I8
I5
tp314
a(I2
I4
tp315
a(I4
I4
tp316
ag295
atp317
Rp318
sg184
I9
sg222
g20
((lp319
(I7
I3
tp320
a(I7
I0
tp321
a(I3
I0
tp322
a(I6
I1
tp323
a(I1
I4
tp324
a(I0
I5
tp325
a(I5
I0
tp326
a(I1
I1
tp327
a(I8
I4
tp328
atp329
Rp330
sg189
((I0
I1
tp331
(I2
I6
tp332
(I0
I2
tp333
tp334
sg190
I9
sbs(iproblems
RoomID
p335
(dp336
g184
I12
sg185
I9
sg186
I4912931603392816429
sg187
(I3
I0
tp337
sg189
I3
sg190
I9
sb(imulti_robot_problem
MultiRobotState
p338
(dp339
g193
g20
((lp340
(I4
I7
tp341
a(I4
I8
tp342
a(I5
I6
tp343
a(I2
I8
tp344
a(I0
I7
tp345
a(I0
I3
tp346
a(I5
I8
tp347
a(I5
I5
tp348
a(I4
I4
tp349
ag337
a(I7
I2
tp350
a(I8
I6
tp351
a(I5
I3
tp352
a(I4
I1
tp353
a(I6
I4
tp354
a(I0
I0
tp355
a(I4
I5
tp356
a(I7
I5
tp357
a(I4
I2
tp358
a(I6
I8
tp359
a(I10
I5
tp360
a(I4
I6
tp361
a(I7
I8
tp362
a(I8
I8
tp363
a(I1
I7
tp364
a(I5
I2
tp365
atp366
Rp367
sg184
I12
sg222
g20
((lp368
(I7
I3
tp369
a(I7
I1
tp370
a(I8
I1
tp371
a(I6
I3
tp372
a(I11
I8
tp373
a(I8
I7
tp374
a(I3
I7
tp375
a(I2
I5
tp376
a(I3
I4
tp377
atp378
Rp379
sg189
((I9
I1
tp380
(I1
I6
tp381
(I8
I4
tp382
tp383
sg190
I9
sbs(iproblems
RoomID
p384
(dp385
g184
I12
sg185
I9
sg186
I7002664860023442459
sg187
(I4
I3
tp386
sg189
I4
sg190
I11
sb(imulti_robot_problem
MultiRobotState
p387
(dp388
g193
g20
((lp389
(I3
I0
tp390
a(I2
I1
tp391
a(I8
I9
tp392
a(I9
I4
tp393
a(I5
I1
tp394
a(I8
I5
tp395
a(I5
I8
tp396
a(I8
I2
tp397
a(I3
I3
tp398
a(I8
I1
tp399
a(I1
I5
tp400
a(I2
I2
tp401
a(I0
I0
tp402
a(I10
I4
tp403
a(I9
I3
tp404
a(I6
I0
tp405
a(I8
I7
tp406
a(I9
I6
tp407
a(I7
I0
tp408
a(I11
I8
tp409
a(I3
I1
tp410
a(I9
I2
tp411
a(I2
I0
tp412
ag386
a(I9
I5
tp413
a(I5
I2
tp414
a(I2
I4
tp415
atp416
Rp417
sg184
I12
sg222
g20
((lp418
(I0
I1
tp419
a(I10
I8
tp420
a(I2
I8
tp421
a(I3
I10
tp422
a(I10
I6
tp423
a(I6
I2
tp424
a(I3
I7
tp425
a(I7
I8
tp426
a(I7
I9
tp427
atp428
Rp429
sg189
((I9
I7
tp430
(I8
I8
tp431
(I2
I9
tp432
(I1
I7
tp433
tp434
sg190
I11
sbssS'name'
p435
S'mild_roomset'
p436
sbsg160
g161
sg162
(dp437
g182
((lp438
F40.099999999999454
tp439
sg236
((lp440
F40.100000000000364
tp441
sg293
((lp442
F40.0600000000004
tp443
sg335
((lp444
F40.019999999999527
tp445
sg384
((lp446
F40.020000000000437
tp447
ssba(imeasure_core
ProblemSetSolution
p448
(dp449
g3
(imeasure_core
RoomSet
p450
(dp451
S'rooms'
p452
(dp453
(iproblems
RoomID
p454
(dp455
S'width'
p456
I12
sS'dusts'
p457
I11
sS'seed'
p458
I1164115433906158532
sS'obstacles'
p459
(I7
I9
tp460
sS'robots'
p461
I5
sS'height'
p462
I12
sb(imulti_robot_problem
MultiRobotState
p463
(dp464
S'obstacle_locations'
p465
g20
((lp466
(I4
I7
tp467
a(I1
I3
tp468
a(I3
I1
tp469
a(I3
I3
tp470
a(I5
I6
tp471
a(I4
I1
tp472
a(I9
I3
tp473
a(I1
I4
tp474
a(I6
I7
tp475
a(I0
I5
tp476
a(I5
I7
tp477
a(I7
I11
tp478
a(I1
I0
tp479
ag460
a(I7
I8
tp480
a(I0
I2
tp481
a(I5
I8
tp482
a(I6
I8
tp483
atp484
Rp485
sg456
I12
sS'dirt_locations'
p486
g20
((lp487
(I4
I10
tp488
a(I9
I0
tp489
a(I2
I6
tp490
a(I5
I10
tp491
a(I9
I2
tp492
a(I0
I7
tp493
a(I8
I9
tp494
a(I1
I6
tp495
a(I8
I5
tp496
a(I4
I11
tp497
a(I5
I3
tp498
atp499
Rp500
sg461
((I1
I2
tp501
(I2
I11
tp502
(I2
I0
tp503
(I2
I9
tp504
(I11
I7
tp505
tp506
sg462
I12
sbs(iproblems
RoomID
p507
(dp508
g456
I10
sg457
I10
sg458
I8711387064946514083
sg459
(I0
I7
tp509
sg461
I7
sg462
I10
sb(imulti_robot_problem
MultiRobotState
p510
(dp511
g465
g20
((lp512
(I5
I9
tp513
a(I6
I9
tp514
a(I2
I6
tp515
a(I2
I9
tp516
a(I1
I5
tp517
ag509
a(I0
I6
tp518
a(I8
I8
tp519
a(I0
I5
tp520
a(I4
I3
tp521
a(I0
I4
tp522
a(I0
I3
tp523
a(I7
I9
tp524
a(I0
I2
tp525
a(I9
I7
tp526
atp527
Rp528
sg456
I10
sg486
g20
((lp529
(I9
I0
tp530
a(I3
I3
tp531
a(I7
I1
tp532
a(I8
I1
tp533
a(I9
I8
tp534
a(I4
I4
tp535
a(I9
I9
tp536
a(I3
I6
tp537
a(I1
I7
tp538
a(I8
I6
tp539
atp540
Rp541
sg461
((I1
I1
tp542
(I8
I0
tp543
(I7
I0
tp544
(I2
I5
tp545
(I6
I7
tp546
(I8
I9
tp547
(I5
I8
tp548
tp549
sg462
I10
sbs(iproblems
RoomID
p550
(dp551
g456
I10
sg457
I14
sg458
I3872982626502034966
sg459
(I5
I10
tp552
sg461
I5
sg462
I12
sb(imulti_robot_problem
MultiRobotState
p553
(dp554
g465
g20
((lp555
(I5
I9
tp556
a(I6
I9
tp557
a(I4
I8
tp558
a(I3
I11
tp559
a(I2
I1
tp560
a(I6
I2
tp561
a(I5
I8
tp562
a(I6
I7
tp563
a(I8
I1
tp564
a(I3
I5
tp565
a(I1
I1
tp566
a(I4
I10
tp567
a(I3
I2
tp568
a(I7
I1
tp569
a(I1
I4
tp570
a(I8
I7
tp571
a(I4
I9
tp572
a(I6
I8
tp573
ag552
a(I4
I6
tp574
a(I5
I7
tp575
a(I3
I8
tp576
a(I4
I3
tp577
a(I5
I2
tp578
atp579
Rp580
sg456
I10
sg486
g20
((lp581
(I9
I3
tp582
a(I3
I10
tp583
a(I8
I11
tp584
a(I3
I1
tp585
a(I9
I7
tp586
a(I6
I3
tp587
a(I3
I9
tp588
a(I2
I3
tp589
a(I7
I11
tp590
a(I9
I5
tp591
a(I0
I8
tp592
a(I0
I2
tp593
a(I7
I2
tp594
a(I5
I3
tp595
atp596
Rp597
sg461
((I1
I8
tp598
(I2
I9
tp599
(I1
I9
tp600
(I1
I5
tp601
(I6
I5
tp602
tp603
sg462
I12
sbs(iproblems
RoomID
p604
(dp605
g456
I13
sg457
I10
sg458
I8999366892653588108
sg459
(I6
I7
tp606
sg461
I6
sg462
I10
sb(imulti_robot_problem
MultiRobotState
p607
(dp608
g465
g20
((lp609
(I5
I4
tp610
ag606
a(I5
I5
tp611
a(I5
I6
tp612
a(I7
I6
tp613
a(I12
I1
tp614
a(I2
I3
tp615
a(I3
I3
tp616
a(I8
I6
tp617
a(I4
I2
tp618
a(I6
I5
tp619
a(I5
I3
tp620
atp621
Rp622
sg456
I13
sg486
g20
((lp623
(I6
I9
tp624
a(I7
I0
tp625
a(I5
I7
tp626
a(I12
I6
tp627
a(I2
I1
tp628
a(I0
I5
tp629
a(I10
I1
tp630
a(I0
I3
tp631
a(I3
I5
tp632
a(I7
I9
tp633
atp634
Rp635
sg461
((I12
I0
tp636
(I6
I1
tp637
(I2
I2
tp638
(I6
I4
tp639
(I4
I6
tp640
(I7
I1
tp641
tp642
sg462
I10
sbs(iproblems
RoomID
p643
(dp644
g456
I13
sg457
I14
sg458
I7002664860023442459
sg459
(I0
I3
tp645
sg461
I7
sg462
I12
sb(imulti_robot_problem
MultiRobotState
p646
(dp647
g465
g20
((lp648
(I1
I2
tp649
a(I0
I1
tp650
a(I10
I5
tp651
a(I11
I4
tp652
a(I10
I7
tp653
a(I7
I8
tp654
a(I9
I8
tp655
a(I10
I6
tp656
a(I3
I4
tp657
a(I9
I9
tp658
a(I0
I9
tp659
a(I9
I5
tp660
ag645
a(I0
I8
tp661
a(I10
I3
tp662
a(I0
I2
tp663
a(I11
I6
tp664
a(I9
I7
tp665
atp666
Rp667
sg456
I13
sg486
g20
((lp668
(I6
I4
tp669
a(I7
I4
tp670
a(I3
I1
tp671
a(I4
I6
tp672
a(I2
I9
tp673
a(I12
I2
tp674
a(I11
I9
tp675
a(I3
I11
tp676
a(I10
I10
tp677
a(I5
I9
tp678
a(I0
I0
tp679
a(I11
I5
tp680
a(I2
I5
tp681
a(I12
I9
tp682
atp683
Rp684
sg461
((I2
I10
tp685
(I1
I8
tp686
(I8
I10
tp687
(I7
I2
tp688
(I3
I8
tp689
(I6
I2
tp690
(I7
I9
tp691
tp692
sg462
I12
sbssS'name'
p693
S'heavy_roomset'
p694
sbsg160
g161
sg162
(dp695
g454
((lp696
F40.170000000000073
tp697
sg507
((lp698
(F15.970000000000255
I7
tp699
aF41.050000000000182
tp700
sg604
((lp701
F40.309999999999491
tp702
sg550
((lp703
F40.390000000000327
tp704
sg643
((lp705
F46.970000000000255
tp706
ssba(imeasure_core
ProblemSetSolution
p707
(dp708
g3
g4
sg160
S'AnytimeBest-d80_with_PowerHeuristic2'
p709
sg162
(dp710
g8
((lp711
(F0.26000000000021828
I42
tp712
a(F2.8599999999996726
I40
tp713
a(F3.1199999999998909
I34
tp714
a(F4.2899999999999636
I30
tp715
a(F4.9499999999998181
I28
tp716
a(F13.5600000000004
I26
tp717
aF16.630000000000109
tp718
sg40
((lp719
(F0.5
I5
tp720
aF40.050000000000182
tp721
sg73
((lp722
(F0.1999999999998181
I4
tp723
aF40.049999999999272
tp724
sg102
((lp725
(F0.73000000000047294
I66
tp726
a(F11.230000000000473
I65
tp727
a(F17.020000000000437
I64
tp728
a(F27.220000000000255
I63
tp729
a(F33.190000000000509
I62
tp730
aF40.0
tp731
sg129
((lp732
(F0.5
I11
tp733
aF40.050000000000182
tp734
ssba(imeasure_core
ProblemSetSolution
p735
(dp736
g3
g178
sg160
g709
sg162
(dp737
g182
((lp738
F40.100000000000364
tp739
sg236
((lp740
F40.039999999999964
tp741
sg293
((lp742
(F1.4399999999995998
I65
tp743
aF40.0
tp744
sg335
((lp745
(F0.099999999999454303
I11
tp746
aF40.019999999999527
tp747
sg384
((lp748
(F0.44000000000050932
I11
tp749
aF40.110000000000582
tp750
ssba(imeasure_core
ProblemSetSolution
p751
(dp752
g3
g450
sg160
g709
sg162
(dp753
g454
((lp754
(F2.9199999999991633
I20
tp755
aF40.069999999999709
tp756
sg507
((lp757
(F15.769999999999527
I7
tp758
aF40.710000000000036
tp759
sg604
((lp760
(F9.6999999999998181
I20
tp761
aF40.130000000000109
tp762
sg550
((lp763
F40.340000000000146
tp764
sg643
((lp765
F46.989999999999782
tp766
ssba(imeasure_core
ProblemSetSolution
p767
(dp768
g3
g4
sg160
S'AnytimeBest-d150_with_PowerHeuristic2'
p769
sg162
(dp770
g8
((lp771
(F0.25
I42
tp772
a(F2.8799999999991996
I40
tp773
a(F3.1399999999994179
I34
tp774
a(F4.319999999999709
I30
tp775
a(F4.9899999999997817
I28
tp776
a(F13.659999999999854
I26
tp777
aF16.759999999999309
tp778
sg40
((lp779
(F0.49000000000069122
I5
tp780
aF40.240000000000691
tp781
sg73
((lp782
(F0.1999999999998181
I4
tp783
aF40.009999999999309
tp784
sg102
((lp785
(F0.73000000000047294
I66
tp786
a(F11.100000000000364
I65
tp787
a(F16.930000000000291
I64
tp788
a(F27.170000000000073
I63
tp789
a(F33.119999999999891
I62
tp790
aF40.020000000000437
tp791
sg129
((lp792
(F0.48999999999978172
I11
tp793
aF40.050000000000182
tp794
ssba(imeasure_core
ProblemSetSolution
p795
(dp796
g3
g178
sg160
g769
sg162
(dp797
g182
((lp798
(F17.590000000000146
I136
tp799
aF40.050000000000182
tp800
sg236
((lp801
F40.040000000000873
tp802
sg293
((lp803
(F1.429999999998472
I65
tp804
aF40.0
tp805
sg335
((lp806
(F0.099999999998544808
I11
tp807
aF40.009999999998399
tp808
sg384
((lp809
(F0.4500000000007276
I11
tp810
aF40.050000000001091
tp811
ssba(imeasure_core
ProblemSetSolution
p812
(dp813
g3
g450
sg160
g769
sg162
(dp814
g454
((lp815
(F2.9399999999986903
I20
tp816
aF40.069999999999709
tp817
sg507
((lp818
(F15.909999999999854
I7
tp819
aF40.899999999999636
tp820
sg604
((lp821
(F9.6199999999989814
I20
tp822
aF40.1299999999992
tp823
sg550
((lp824
F40.440000000000509
tp825
sg643
((lp826
F47.130000000001019
tp827
ssba(imeasure_core
ProblemSetSolution
p828
(dp829
g3
g4
sg160
S'AnytimeBest-d250_with_PowerHeuristic2'
p830
sg162
(dp831
g8
((lp832
(F0.25
I42
tp833
a(F2.8599999999987631
I40
tp834
a(F3.1199999999989814
I34
tp835
a(F4.2899999999990541
I30
tp836
a(F4.9499999999989086
I28
tp837
a(F13.609999999998763
I26
tp838
aF16.709999999999127
tp839
sg40
((lp840
(F0.5
I5
tp841
aF40.049999999999272
tp842
sg73
((lp843
(F0.2000000000007276
I4
tp844
aF40.010000000000218
tp845
sg102
((lp846
(F0.73000000000138243
I66
tp847
a(F11.25
I65
tp848
a(F17.100000000000364
I64
tp849
a(F27.3700000000008
I63
tp850
a(F33.360000000000582
I62
tp851
aF40.030000000000655
tp852
sg129
((lp853
(F0.48999999999978172
I11
tp854
aF40.049999999999272
tp855
ssba(imeasure_core
ProblemSetSolution
p856
(dp857
g3
g178
sg160
g830
sg162
(dp858
g182
((lp859
(F17.579999999999927
I136
tp860
aF40.050000000001091
tp861
sg236
((lp862
F40.069999999999709
tp863
sg293
((lp864
(F1.4400000000005093
I65
tp865
aF40.0
tp866
sg335
((lp867
(F0.1000000000003638
I11
tp868
aF40.010000000000218
tp869
sg384
((lp870
(F0.44000000000050932
I11
tp871
aF40.049999999999272
tp872
ssba(imeasure_core
ProblemSetSolution
p873
(dp874
g3
g450
sg160
g830
sg162
(dp875
g454
((lp876
(F2.9400000000005093
I20
tp877
aF40.069999999999709
tp878
sg507
((lp879
(F15.730000000001382
I7
tp880
aF41.010000000000218
tp881
sg604
((lp882
(F9.6700000000000728
I20
tp883
aF40.130000000001019
tp884
sg550
((lp885
F40.329999999999927
tp886
sg643
((lp887
F47.159999999999854
tp888
ssba(imeasure_core
ProblemSetSolution
p889
(dp890
g3
g4
sg160
S'AnytimeBest-d400_with_PowerHeuristic2'
p891
sg162
(dp892
g8
((lp893
(F0.26000000000021828
I42
tp894
a(F2.8699999999989814
I40
tp895
a(F3.1299999999991996
I34
tp896
a(F4.2999999999992724
I30
tp897
a(F4.9599999999991269
I28
tp898
a(F13.559999999999491
I26
tp899
aF16.6299999999992
tp900
sg40
((lp901
(F0.5
I5
tp902
aF40.319999999999709
tp903
sg73
((lp904
(F0.2000000000007276
I4
tp905
aF40.010000000000218
tp906
sg102
((lp907
(F0.72999999999956344
I66
tp908
a(F11.130000000001019
I65
tp909
a(F16.890000000001237
I64
tp910
a(F27.040000000000873
I63
tp911
a(F32.979999999999563
I62
tp912
aF40.0
tp913
sg129
((lp914
(F0.5
I11
tp915
aF40.050000000001091
tp916
ssba(imeasure_core
ProblemSetSolution
p917
(dp918
g3
g178
sg160
g891
sg162
(dp919
g182
((lp920
(F17.519999999998618
I136
tp921
aF40.179999999998472
tp922
sg236
((lp923
F40.040000000000873
tp924
sg293
((lp925
(F1.4400000000005093
I65
tp926
aF40.039999999999054
tp927
sg335
((lp928
(F0.1000000000003638
I11
tp929
aF40.020000000000437
tp930
sg384
((lp931
(F0.44000000000050932
I11
tp932
aF40.110000000000582
tp933
ssba(imeasure_core
ProblemSetSolution
p934
(dp935
g3
g450
sg160
g891
sg162
(dp936
g454
((lp937
(F2.9200000000000728
I20
tp938
aF40.069999999999709
tp939
sg507
((lp940
(F15.840000000000146
I7
tp941
aF40.760000000000218
tp942
sg604
((lp943
(F9.6000000000003638
I20
tp944
aF40.1299999999992
tp945
sg550
((lp946
F40.319999999999709
tp947
sg643
((lp948
F47.170000000000073
tp949
ssba(imeasure_core
ProblemSetSolution
p950
(dp951
g3
g4
sg160
S'AnytimeBest-d1000_with_PowerHeuristic2'
p952
sg162
(dp953
g8
((lp954
(F0.26000000000021828
I42
tp955
a(F2.8600000000005821
I40
tp956
a(F3.1200000000008004
I34
tp957
a(F4.2900000000008731
I30
tp958
a(F4.9500000000007276
I28
tp959
a(F13.530000000000655
I26
tp960
aF16.600000000000364
tp961
sg40
((lp962
(F0.48999999999978172
I5
tp963
aF40.050000000001091
tp964
sg73
((lp965
(F0.19999999999890861
I4
tp966
aF40.039999999999054
tp967
sg102
((lp968
(F0.71999999999934516
I66
tp969
a(F11.130000000001019
I65
tp970
a(F16.889999999999418
I64
tp971
a(F27.030000000000655
I63
tp972
a(F32.979999999999563
I62
tp973
aF40.010000000000218
tp974
sg129
((lp975
(F0.48999999999978172
I11
tp976
aF40.1299999999992
tp977
ssba(imeasure_core
ProblemSetSolution
p978
(dp979
g3
g178
sg160
g952
sg162
(dp980
g182
((lp981
(F17.5
I136
tp982
aF40.050000000001091
tp983
sg236
((lp984
F40.039999999999054
tp985
sg293
((lp986
(F1.430000000000291
I65
tp987
aF40.020000000000437
tp988
sg335
((lp989
(F0.1000000000003638
I11
tp990
aF40.020000000000437
tp991
sg384
((lp992
(F0.44000000000050932
I11
tp993
aF40.049999999999272
tp994
ssba(imeasure_core
ProblemSetSolution
p995
(dp996
g3
g450
sg160
g952
sg162
(dp997
g454
((lp998
(F2.9400000000005093
I20
tp999
aF40.069999999999709
tp1000
sg507
((lp1001
(F15.670000000000073
I7
tp1002
aF40.930000000000291
tp1003
sg604
((lp1004
(F9.6299999999991996
I20
tp1005
aF40.1299999999992
tp1006
sg550
((lp1007
F40.360000000000582
tp1008
sg643
((lp1009
F46.860000000000582
tp1010
ssba(imeasure_core
ProblemSetSolution
p1011
(dp1012
g3
g4
sg160
S'AnytimeBest-d10_with_LinearHeuristic'
p1013
sg162
(dp1014
g8
((lp1015
F1.8400000000001455
tp1016
sg40
((lp1017
F40.149999999999636
tp1018
sg73
((lp1019
(F1.2000000000007276
I10
tp1020
a(F10.409999999999854
I9
tp1021
a(F17.549999999999272
I8
tp1022
a(F24.889999999999418
I7
tp1023
a(F31.340000000000146
I6
tp1024
aF40.260000000000218
tp1025
sg102
((lp1026
F40.010000000000218
tp1027
sg129
((lp1028
F40.199999999998909
tp1029
ssba(imeasure_core
ProblemSetSolution
p1030
(dp1031
g3
g178
sg160
g1013
sg162
(dp1032
g182
((lp1033
F40.050000000001091
tp1034
sg236
((lp1035
F40.119999999998981
tp1036
sg293
((lp1037
F40.070000000001528
tp1038
sg335
((lp1039
F40.119999999998981
tp1040
sg384
((lp1041
F40.180000000000291
tp1042
ssba(imeasure_core
ProblemSetSolution
p1043
(dp1044
g3
g450
sg160
g1013
sg162
(dp1045
g454
((lp1046
F40.5
tp1047
sg507
((lp1048
(F31.3799999999992
I7
tp1049
aF46.840000000000146
tp1050
sg604
((lp1051
F40.800000000001091
tp1052
sg550
((lp1053
F40.449999999998909
tp1054
sg643
((lp1055
F44.029999999998836
tp1056
ssba(imeasure_core
ProblemSetSolution
p1057
(dp1058
g3
g4
sg160
S'AnytimeBest-d80_with_LinearHeuristic'
p1059
sg162
(dp1060
g8
((lp1061
(F0.030000000000654836
I28
tp1062
a(F35.920000000000073
I26
tp1063
aF40.0
tp1064
sg40
((lp1065
F40.100000000000364
tp1066
sg73
((lp1067
(F1.1700000000000728
I10
tp1068
a(F10.3700000000008
I9
tp1069
a(F17.479999999999563
I8
tp1070
a(F24.800000000001091
I7
tp1071
a(F31.239999999999782
I6
tp1072
aF40.350000000000364
tp1073
sg102
((lp1074
(F0.52000000000043656
I25
tp1075
a(F15.040000000000873
I24
tp1076
a(F18.1299999999992
I23
tp1077
a(F30.329999999999927
I22
tp1078
a(F39.049999999999272
I19
tp1079
aF40.020000000000437
tp1080
sg129
((lp1081
(F2.5399999999990541
I27
tp1082
aF40.079999999999927
tp1083
ssba(imeasure_core
ProblemSetSolution
p1084
(dp1085
g3
g178
sg160
g1059
sg162
(dp1086
g182
((lp1087
F40.059999999999491
tp1088
sg236
((lp1089
F40.1200000000008
tp1090
sg293
((lp1091
F40.019999999998618
tp1092
sg335
((lp1093
F40.079999999999927
tp1094
sg384
((lp1095
F40.050000000001091
tp1096
ssba(imeasure_core
ProblemSetSolution
p1097
(dp1098
g3
g450
sg160
g1059
sg162
(dp1099
g454
((lp1100
F40.949999999998909
tp1101
sg507
((lp1102
(F31.450000000000728
I7
tp1103
aF46.980000000001382
tp1104
sg604
((lp1105
F41.089999999998327
tp1106
sg550
((lp1107
F40.25
tp1108
sg643
((lp1109
F43.970000000001164
tp1110
ssba(imeasure_core
ProblemSetSolution
p1111
(dp1112
g3
g4
sg160
S'AnytimeBest-d150_with_LinearHeuristic'
p1113
sg162
(dp1114
g8
((lp1115
(F0.019999999998617568
I28
tp1116
a(F36.010000000000218
I26
tp1117
aF40.0
tp1118
sg40
((lp1119
F40.119999999998981
tp1120
sg73
((lp1121
(F1.1700000000000728
I10
tp1122
a(F10.390000000001237
I9
tp1123
a(F17.530000000000655
I8
tp1124
a(F24.850000000000364
I7
tp1125
a(F31.319999999999709
I6
tp1126
aF40.230000000001382
tp1127
sg102
((lp1128
(F0.51999999999861757
I25
tp1129
a(F15.039999999999054
I24
tp1130
a(F18.119999999998981
I23
tp1131
a(F30.339999999998327
I22
tp1132
a(F39.059999999999491
I19
tp1133
aF40.019999999998618
tp1134
sg129
((lp1135
(F2.5500000000010914
I27
tp1136
aF40.1200000000008
tp1137
ssba(imeasure_core
ProblemSetSolution
p1138
(dp1139
g3
g178
sg160
g1113
sg162
(dp1140
g182
((lp1141
F40.029999999998836
tp1142
sg236
((lp1143
F40.06000000000131
tp1144
sg293
((lp1145
F40.010000000000218
tp1146
sg335
((lp1147
F40.019999999998618
tp1148
sg384
((lp1149
F40.06000000000131
tp1150
ssba(imeasure_core
ProblemSetSolution
p1151
(dp1152
g3
g450
sg160
g1113
sg162
(dp1153
g454
((lp1154
F40.659999999999854
tp1155
sg507
((lp1156
(F31.209999999999127
I7
tp1157
aF47.279999999998836
tp1158
sg604
((lp1159
F41.329999999999927
tp1160
sg550
((lp1161
F40.280000000000655
tp1162
sg643
((lp1163
F44.25
tp1164
ssba(imeasure_core
ProblemSetSolution
p1165
(dp1166
g3
g4
sg160
S'AnytimeBest-d250_with_LinearHeuristic'
p1167
sg162
(dp1168
g8
((lp1169
(F0.030000000000654836
I28
tp1170
a(F35.920000000000073
I26
tp1171
aF40.0
tp1172
sg40
((lp1173
F41.079999999999927
tp1174
sg73
((lp1175
(F1.180000000000291
I10
tp1176
a(F10.420000000000073
I9
tp1177
a(F17.590000000000146
I8
tp1178
a(F24.950000000000728
I7
tp1179
a(F31.430000000000291
I6
tp1180
aF40.219999999999345
tp1181
sg102
((lp1182
(F0.51000000000021828
I25
tp1183
a(F15.020000000000437
I24
tp1184
a(F18.090000000000146
I23
tp1185
a(F30.320000000001528
I22
tp1186
a(F39.06000000000131
I19
tp1187
aF40.030000000000655
tp1188
sg129
((lp1189
(F2.5200000000004366
I27
tp1190
aF40.110000000000582
tp1191
ssba(imeasure_core
ProblemSetSolution
p1192
(dp1193
g3
g178
sg160
g1167
sg162
(dp1194
g182
((lp1195
F40.029999999998836
tp1196
sg236
((lp1197
F40.090000000000146
tp1198
sg293
((lp1199
(F17.350000000000364
I226
tp1200
aF40.1200000000008
tp1201
sg335
((lp1202
F40.020000000000437
tp1203
sg384
((lp1204
F40.179999999998472
tp1205
ssba(imeasure_core
ProblemSetSolution
p1206
(dp1207
g3
g450
sg160
g1167
sg162
(dp1208
g454
((lp1209
F40.730000000001382
tp1210
sg507
((lp1211
(F31.179999999998472
I7
tp1212
aF47.25
tp1213
sg604
((lp1214
F41.3700000000008
tp1215
sg550
((lp1216
F40.339999999998327
tp1217
sg643
((lp1218
F43.829999999999927
tp1219
ssba(imeasure_core
ProblemSetSolution
p1220
(dp1221
g3
g4
sg160
S'AnytimeBest-d400_with_LinearHeuristic'
p1222
sg162
(dp1223
g8
((lp1224
(F0.030000000000654836
I28
tp1225
a(F35.979999999999563
I26
tp1226
aF40.0
tp1227
sg40
((lp1228
F40.909999999999854
tp1229
sg73
((lp1230
(F1.180000000000291
I10
tp1231
a(F10.430000000000291
I9
tp1232
a(F17.600000000000364
I8
tp1233
a(F24.979999999999563
I7
tp1234
a(F31.5
I6
tp1235
aF40.290000000000873
tp1236
sg102
((lp1237
(F0.51999999999861757
I25
tp1238
a(F15.109999999998763
I24
tp1239
a(F18.199999999998909
I23
tp1240
a(F30.469999999999345
I22
tp1241
a(F39.199999999998909
I19
tp1242
aF40.019999999998618
tp1243
sg129
((lp1244
(F2.5300000000006548
I27
tp1245
aF40.079999999999927
tp1246
ssba(imeasure_core
ProblemSetSolution
p1247
(dp1248
g3
g178
sg160
g1222
sg162
(dp1249
g182
((lp1250
F40.050000000001091
tp1251
sg236
((lp1252
F40.159999999999854
tp1253
sg293
((lp1254
(F17.639999999999418
I226
tp1255
aF40.119999999998981
tp1256
sg335
((lp1257
F40.040000000000873
tp1258
sg384
((lp1259
F40.420000000000073
tp1260
ssba(imeasure_core
ProblemSetSolution
p1261
(dp1262
g3
g450
sg160
g1222
sg162
(dp1263
g454
((lp1264
F40.940000000000509
tp1265
sg507
((lp1266
(F31.389999999999418
I7
tp1267
aF47.539999999999054
tp1268
sg604
((lp1269
F41.159999999999854
tp1270
sg550
((lp1271
F40.210000000000946
tp1272
sg643
((lp1273
F44.1299999999992
tp1274
ssba(imeasure_core
ProblemSetSolution
p1275
(dp1276
g3
g4
sg160
S'AnytimeBest-d1000_with_LinearHeuristic'
p1277
sg162
(dp1278
g8
((lp1279
(F0.020000000000436557
I28
tp1280
a(F36.149999999999636
I26
tp1281
aF40.0
tp1282
sg40
((lp1283
F40.340000000000146
tp1284
sg73
((lp1285
(F1.1999999999989086
I10
tp1286
a(F10.510000000000218
I9
tp1287
a(F17.840000000000146
I8
tp1288
a(F25.260000000000218
I7
tp1289
a(F31.520000000000437
I6
tp1290
aF40.340000000000146
tp1291
sg102
((lp1292
(F0.52000000000043656
I25
tp1293
a(F15.170000000000073
I24
tp1294
a(F18.279999999998836
I23
tp1295
a(F30.609999999998763
I22
tp1296
a(F39.399999999999636
I19
tp1297
aF40.020000000000437
tp1298
sg129
((lp1299
(F2.5499999999992724
I27
tp1300
aF40.079999999999927
tp1301
ssba(imeasure_core
ProblemSetSolution
p1302
(dp1303
g3
g178
sg160
g1277
sg162
(dp1304
g182
((lp1305
F40.070000000001528
tp1306
sg236
((lp1307
F40.049999999999272
tp1308
sg293
((lp1309
(F17.430000000000291
I226
tp1310
aF40.079999999999927
tp1311
sg335
((lp1312
F40.049999999999272
tp1313
sg384
((lp1314
F40.240000000001601
tp1315
ssba(imeasure_core
ProblemSetSolution
p1316
(dp1317
g3
g450
sg160
g1277
sg162
(dp1318
g454
((lp1319
F40.600000000000364
tp1320
sg507
((lp1321
(F31.520000000000437
I7
tp1322
aF47.020000000000437
tp1323
sg604
((lp1324
F41.25
tp1325
sg550
((lp1326
F40.280000000000655
tp1327
sg643
((lp1328
F44.119999999998981
tp1329
ssba.