(lp0
(imeasure_core
ProblemSetSolution
p1
(dp2
S'roomset'
p3
(imeasure_core
RoomSet
p4
(dp5
S'rooms'
p6
(dp7
(iproblems
RoomID
p8
(dp9
S'dusts'
p10
I10
sS'obstacles'
p11
(I0
I8
tp12
sS'robots'
p13
I4
sS'height'
p14
I10
sS'width'
p15
I9
sS'seed'
p16
I4712128852136459333
sb(imulti_robot_problem
MultiRobotState
p17
(dp18
S'obstacle_locations'
p19
c__builtin__
frozenset
p20
((lp21
(I0
I6
tp22
ag12
a(I2
I3
tp23
a(I1
I5
tp24
a(I8
I0
tp25
a(I1
I1
tp26
a(I0
I7
tp27
atp28
Rp29
sg15
I9
sS'dirt_locations'
p30
g20
((lp31
(I4
I7
tp32
a(I1
I3
tp33
a(I4
I9
tp34
a(I8
I1
tp35
a(I7
I6
tp36
a(I2
I6
tp37
a(I8
I7
tp38
a(I2
I2
tp39
a(I4
I1
tp40
a(I2
I4
tp41
atp42
Rp43
sg13
((I5
I8
tp44
(I6
I9
tp45
(I5
I0
tp46
(I3
I1
tp47
tp48
sg14
I10
sbs(iproblems
RoomID
p49
(dp50
g10
I9
sg11
(I3
I4
tp51
sg13
I1
sg14
I7
sg15
I8
sg16
I6613812840851947673
sb(imulti_robot_problem
MultiRobotState
p52
(dp53
g19
g20
((lp54
(I3
I5
tp55
ag51
a(I2
I4
tp56
a(I2
I1
tp57
a(I1
I4
tp58
atp59
Rp60
sg15
I8
sg30
g20
((lp61
(I6
I4
tp62
a(I5
I4
tp63
a(I6
I0
tp64
a(I7
I5
tp65
a(I1
I6
tp66
a(I2
I2
tp67
a(I0
I5
tp68
a(I4
I1
tp69
a(I4
I0
tp70
atp71
Rp72
sg13
((I3
I1
tp73
tp74
sg14
I7
sbs(iproblems
RoomID
p75
(dp76
g10
I10
sg11
(I4
I5
tp77
sg13
I1
sg14
I8
sg15
I8
sg16
I2893396244277848635
sb(imulti_robot_problem
MultiRobotState
p78
(dp79
g19
g20
((lp80
g77
a(I3
I7
tp81
a(I2
I6
tp82
a(I4
I6
tp83
atp84
Rp85
sg15
I8
sg30
g20
((lp86
(I6
I4
tp87
a(I0
I0
tp88
a(I6
I7
tp89
a(I3
I0
tp90
a(I2
I1
tp91
a(I0
I6
tp92
a(I7
I2
tp93
a(I2
I4
tp94
a(I6
I5
tp95
a(I5
I3
tp96
atp97
Rp98
sg13
((I2
I3
tp99
tp100
sg14
I8
sbs(iproblems
RoomID
p101
(dp102
g10
I9
sg11
(I5
I3
tp103
sg13
I3
sg14
I7
sg15
I8
sg16
I4594210616595436404
sb(imulti_robot_problem
MultiRobotState
p104
(dp105
g19
g20
((lp106
(I0
I1
tp107
a(I3
I3
tp108
a(I4
I3
tp109
a(I4
I2
tp110
a(I6
I1
tp111
ag103
atp112
Rp113
sg15
I8
sg30
g20
((lp114
(I6
I6
tp115
a(I5
I6
tp116
a(I4
I4
tp117
a(I1
I4
tp118
a(I0
I6
tp119
a(I5
I1
tp120
a(I1
I0
tp121
a(I0
I3
tp122
a(I1
I1
tp123
atp124
Rp125
sg13
((I2
I1
tp126
(I3
I4
tp127
(I3
I6
tp128
tp129
sg14
I7
sbs(iproblems
RoomID
p130
(dp131
g10
I10
sg11
(I4
I8
tp132
sg13
I4
sg14
I10
sg15
I7
sg16
I956523682424107605
sb(imulti_robot_problem
MultiRobotState
p133
(dp134
g19
g20
((lp135
(I2
I8
tp136
ag132
a(I3
I7
tp137
a(I2
I9
tp138
a(I4
I2
tp139
atp140
Rp141
sg15
I7
sg30
g20
((lp142
(I5
I9
tp143
a(I4
I7
tp144
a(I1
I3
tp145
a(I3
I3
tp146
a(I5
I5
tp147
a(I6
I1
tp148
a(I5
I4
tp149
a(I0
I4
tp150
a(I5
I2
tp151
a(I5
I3
tp152
atp153
Rp154
sg13
((I1
I9
tp155
(I4
I9
tp156
(I1
I8
tp157
(I0
I3
tp158
tp159
sg14
I10
sbssS'name'
p160
S'easy_roomset'
p161
sbsg160
S'LimitedTimeAStar_with_PowerHeuristic2'
p162
sS'solutions'
p163
(dp164
g8
((lp165
F0.81000000000130967
tp166
sg49
((lp167
F0.049999999999272404
tp168
sg75
((lp169
F0.17000000000007276
tp170
sg101
((lp171
F0.36000000000058208
tp172
sg130
((lp173
F0.32999999999992724
tp174
ssba(imeasure_core
ProblemSetSolution
p175
(dp176
g3
(imeasure_core
RoomSet
p177
(dp178
g6
(dp179
(iproblems
RoomID
p180
(dp181
g10
I10
sg11
(I8
I7
tp182
sg13
I4
sg14
I12
sg15
I11
sg16
I4712128852136459333
sb(imulti_robot_problem
MultiRobotState
p183
(dp184
g19
g20
((lp185
(I6
I4
tp186
a(I4
I7
tp187
ag182
a(I4
I5
tp188
a(I3
I11
tp189
a(I0
I7
tp190
a(I7
I7
tp191
a(I1
I6
tp192
a(I1
I9
tp193
a(I2
I10
tp194
a(I4
I2
tp195
a(I1
I11
tp196
a(I6
I5
tp197
a(I5
I3
tp198
a(I9
I0
tp199
a(I0
I8
tp200
a(I5
I5
tp201
a(I7
I6
tp202
a(I3
I1
tp203
a(I2
I11
tp204
a(I0
I9
tp205
a(I2
I3
tp206
a(I4
I1
tp207
a(I1
I1
tp208
atp209
Rp210
sg15
I11
sg30
g20
((lp211
(I2
I7
tp212
a(I9
I1
tp213
a(I9
I8
tp214
a(I5
I1
tp215
a(I2
I5
tp216
a(I9
I7
tp217
a(I3
I4
tp218
a(I2
I4
tp219
a(I5
I8
tp220
a(I3
I3
tp221
atp222
Rp223
sg13
((I6
I10
tp224
(I8
I10
tp225
(I7
I0
tp226
(I5
I11
tp227
tp228
sg14
I12
sbs(iproblems
RoomID
p229
(dp230
g10
I9
sg11
(I4
I4
tp231
sg13
I3
sg14
I9
sg15
I10
sg16
I4594210616595436404
sb(imulti_robot_problem
MultiRobotState
p232
(dp233
g19
g20
((lp234
(I1
I3
tp235
a(I3
I0
tp236
a(I2
I1
tp237
a(I1
I6
tp238
a(I9
I4
tp239
a(I3
I7
tp240
a(I0
I3
tp241
a(I1
I2
tp242
a(I5
I5
tp243
a(I1
I5
tp244
a(I7
I6
tp245
ag231
a(I6
I3
tp246
a(I5
I6
tp247
a(I3
I6
tp248
a(I0
I4
tp249
a(I8
I6
tp250
a(I3
I5
tp251
a(I1
I1
tp252
a(I5
I4
tp253
a(I4
I5
tp254
a(I0
I5
tp255
a(I5
I3
tp256
a(I0
I1
tp257
a(I5
I2
tp258
a(I0
I6
tp259
a(I2
I0
tp260
a(I1
I8
tp261
a(I2
I3
tp262
a(I9
I5
tp263
a(I3
I4
tp264
a(I0
I2
tp265
atp266
Rp267
sg15
I10
sg30
g20
((lp268
(I7
I8
tp269
a(I7
I0
tp270
a(I6
I8
tp271
a(I2
I8
tp272
a(I8
I8
tp273
a(I0
I8
tp274
a(I8
I5
tp275
a(I5
I8
tp276
a(I8
I2
tp277
atp278
Rp279
sg13
((I4
I6
tp280
(I2
I5
tp281
(I6
I1
tp282
tp283
sg14
I9
sbs(iproblems
RoomID
p284
(dp285
g10
I5
sg11
(I4
I9
tp286
sg13
I4
sg14
I11
sg15
I11
sg16
I1881095652490078568
sb(imulti_robot_problem
MultiRobotState
p287
(dp288
g19
g20
((lp289
(I6
I9
tp290
a(I6
I6
tp291
a(I4
I5
tp292
a(I2
I8
tp293
a(I9
I3
tp294
a(I4
I7
tp295
a(I7
I5
tp296
a(I5
I4
tp297
ag286
a(I6
I5
tp298
a(I3
I5
tp299
a(I7
I4
tp300
a(I1
I7
tp301
a(I6
I7
tp302
a(I4
I6
tp303
a(I7
I6
tp304
a(I4
I4
tp305
a(I8
I10
tp306
a(I6
I3
tp307
a(I7
I10
tp308
a(I2
I2
tp309
a(I4
I8
tp310
a(I7
I8
tp311
a(I1
I1
tp312
a(I8
I4
tp313
atp314
Rp315
sg15
I11
sg30
g20
((lp316
(I1
I10
tp317
a(I5
I9
tp318
a(I0
I0
tp319
a(I10
I2
tp320
a(I9
I7
tp321
atp322
Rp323
sg13
((I5
I7
tp324
(I8
I1
tp325
(I3
I1
tp326
(I8
I8
tp327
tp328
sg14
I11
sbs(iproblems
RoomID
p329
(dp330
g10
I8
sg11
(I5
I0
tp331
sg13
I4
sg14
I9
sg15
I9
sg16
I6858376947525423350
sb(imulti_robot_problem
MultiRobotState
p332
(dp333
g19
g20
((lp334
(I6
I4
tp335
a(I4
I7
tp336
a(I1
I3
tp337
a(I4
I3
tp338
a(I7
I1
tp339
a(I3
I0
tp340
a(I2
I8
tp341
a(I6
I0
tp342
a(I2
I1
tp343
a(I1
I6
tp344
a(I5
I1
tp345
a(I2
I5
tp346
a(I0
I8
tp347
a(I7
I2
tp348
a(I2
I7
tp349
a(I3
I8
tp350
a(I5
I5
tp351
a(I6
I1
tp352
a(I5
I7
tp353
a(I6
I3
tp354
a(I1
I8
tp355
ag331
a(I2
I2
tp356
a(I2
I3
tp357
a(I3
I4
tp358
a(I2
I4
tp359
atp360
Rp361
sg15
I9
sg30
g20
((lp362
(I8
I3
tp363
a(I7
I0
tp364
a(I4
I6
tp365
a(I6
I6
tp366
a(I7
I5
tp367
a(I8
I0
tp368
a(I8
I8
tp369
a(I8
I4
tp370
atp371
Rp372
sg13
((I1
I1
tp373
(I6
I5
tp374
(I8
I2
tp375
(I1
I5
tp376
tp377
sg14
I9
sbs(iproblems
RoomID
p378
(dp379
g10
I6
sg11
(I8
I8
tp380
sg13
I4
sg14
I11
sg15
I12
sg16
I7529058068588108450
sb(imulti_robot_problem
MultiRobotState
p381
(dp382
g19
g20
((lp383
(I5
I9
tp384
a(I6
I9
tp385
a(I2
I6
tp386
a(I3
I2
tp387
a(I9
I1
tp388
a(I4
I10
tp389
a(I6
I6
tp390
a(I7
I7
tp391
a(I7
I1
tp392
a(I4
I6
tp393
a(I10
I4
tp394
a(I7
I5
tp395
a(I6
I8
tp396
a(I3
I7
tp397
a(I5
I8
tp398
a(I8
I2
tp399
a(I5
I5
tp400
a(I7
I6
tp401
a(I4
I4
tp402
a(I7
I4
tp403
a(I1
I5
tp404
ag380
a(I7
I2
tp405
a(I3
I6
tp406
a(I2
I2
tp407
a(I1
I10
tp408
a(I7
I8
tp409
a(I3
I10
tp410
atp411
Rp412
sg15
I12
sg30
g20
((lp413
(I7
I3
tp414
a(I0
I5
tp415
a(I4
I0
tp416
a(I11
I3
tp417
a(I11
I6
tp418
a(I6
I0
tp419
atp420
Rp421
sg13
((I11
I7
tp422
(I6
I2
tp423
(I11
I5
tp424
(I6
I7
tp425
tp426
sg14
I11
sbssg160
S'mild_roomset'
p427
sbsg160
g162
sg163
(dp428
g180
((lp429
F4.5900000000001455
tp430
sg229
((lp431
F0.50999999999839929
tp432
sg329
((lp433
F0.31999999999970896
tp434
sg284
((lp435
F0.15000000000145519
tp436
sg378
((lp437
F11.090000000000146
tp438
ssba(imeasure_core
ProblemSetSolution
p439
(dp440
g3
(imeasure_core
RoomSet
p441
(dp442
g6
(dp443
(iproblems
RoomID
p444
(dp445
g10
I15
sg11
(I5
I9
tp446
sg13
I7
sg14
I13
sg15
I12
sg16
I4712128852136459333
sb(imulti_robot_problem
MultiRobotState
p447
(dp448
g19
g20
((lp449
g446
a(I4
I9
tp450
a(I5
I5
tp451
a(I4
I12
tp452
a(I2
I8
tp453
a(I3
I1
tp454
a(I3
I9
tp455
a(I9
I4
tp456
a(I1
I7
tp457
a(I1
I10
tp458
a(I3
I12
tp459
a(I0
I8
tp460
a(I5
I2
tp461
atp462
Rp463
sg15
I12
sg30
g20
((lp464
(I6
I9
tp465
a(I3
I3
tp466
a(I1
I12
tp467
a(I5
I6
tp468
a(I7
I7
tp469
a(I3
I5
tp470
a(I3
I8
tp471
a(I8
I8
tp472
a(I10
I0
tp473
a(I2
I5
tp474
a(I10
I2
tp475
a(I3
I4
tp476
a(I1
I1
tp477
a(I5
I8
tp478
a(I9
I7
tp479
atp480
Rp481
sg13
((I6
I11
tp482
(I8
I11
tp483
(I7
I0
tp484
(I4
I1
tp485
(I6
I12
tp486
(I10
I9
tp487
(I6
I1
tp488
tp489
sg14
I13
sbs(iproblems
RoomID
p490
(dp491
g10
I14
sg11
(I5
I5
tp492
sg13
I5
sg14
I10
sg15
I11
sg16
I6613812840851947673
sb(imulti_robot_problem
MultiRobotState
p493
(dp494
g19
g20
((lp495
(I4
I7
tp496
a(I2
I6
tp497
a(I6
I6
tp498
a(I4
I5
tp499
a(I7
I5
tp500
a(I1
I6
tp501
a(I8
I7
tp502
a(I3
I7
tp503
a(I10
I3
tp504
a(I3
I5
tp505
a(I10
I8
tp506
a(I6
I3
tp507
ag492
a(I8
I5
tp508
a(I7
I4
tp509
a(I3
I8
tp510
a(I0
I6
tp511
a(I3
I6
tp512
a(I1
I3
tp513
a(I8
I6
tp514
a(I2
I4
tp515
atp516
Rp517
sg15
I11
sg30
g20
((lp518
(I6
I4
tp519
a(I3
I2
tp520
a(I4
I6
tp521
a(I4
I9
tp522
a(I3
I3
tp523
a(I9
I8
tp524
a(I8
I0
tp525
a(I8
I8
tp526
a(I5
I0
tp527
a(I1
I0
tp528
a(I8
I4
tp529
a(I5
I2
tp530
a(I6
I1
tp531
a(I9
I7
tp532
atp533
Rp534
sg13
((I5
I1
tp535
(I0
I8
tp536
(I2
I9
tp537
(I4
I1
tp538
(I7
I6
tp539
tp540
sg14
I10
sbs(iproblems
RoomID
p541
(dp542
g10
I15
sg11
(I4
I8
tp543
sg13
I6
sg14
I13
sg15
I10
sg16
I956523682424107605
sb(imulti_robot_problem
MultiRobotState
p544
(dp545
g19
g20
((lp546
(I5
I9
tp547
a(I6
I9
tp548
a(I7
I10
tp549
ag543
a(I5
I6
tp550
a(I3
I11
tp551
a(I9
I4
tp552
a(I4
I9
tp553
a(I5
I8
tp554
a(I2
I7
tp555
a(I5
I10
tp556
a(I5
I5
tp557
a(I3
I10
tp558
a(I5
I7
tp559
a(I9
I9
tp560
a(I5
I0
tp561
a(I7
I8
tp562
a(I1
I1
tp563
atp564
Rp565
sg15
I10
sg30
g20
((lp566
(I6
I10
tp567
a(I8
I3
tp568
a(I1
I3
tp569
a(I6
I6
tp570
a(I7
I6
tp571
a(I8
I12
tp572
a(I5
I4
tp573
a(I1
I4
tp574
a(I2
I10
tp575
a(I7
I4
tp576
a(I1
I5
tp577
a(I7
I5
tp578
a(I0
I9
tp579
a(I7
I11
tp580
a(I6
I2
tp581
atp582
Rp583
sg13
((I1
I12
tp584
(I6
I12
tp585
(I2
I11
tp586
(I0
I4
tp587
(I9
I1
tp588
(I7
I7
tp589
tp590
sg14
I13
sbs(iproblems
RoomID
p591
(dp592
g10
I15
sg11
(I6
I6
tp593
sg13
I5
sg14
I11
sg15
I11
sg16
I2893396244277848635
sb(imulti_robot_problem
MultiRobotState
p594
(dp595
g19
g20
((lp596
(I7
I3
tp597
a(I4
I7
tp598
a(I5
I5
tp599
a(I4
I8
tp600
a(I5
I6
tp601
a(I2
I8
tp602
ag593
a(I3
I2
tp603
a(I3
I9
tp604
a(I4
I3
tp605
a(I1
I7
tp606
a(I6
I9
tp607
atp608
Rp609
sg15
I11
sg30
g20
((lp610
(I2
I6
tp611
a(I8
I7
tp612
a(I3
I10
tp613
a(I3
I1
tp614
a(I2
I10
tp615
a(I0
I5
tp616
a(I6
I5
tp617
a(I3
I6
tp618
a(I8
I6
tp619
a(I4
I0
tp620
a(I3
I7
tp621
a(I7
I9
tp622
a(I4
I1
tp623
a(I5
I8
tp624
a(I5
I3
tp625
atp626
Rp627
sg13
((I4
I5
tp628
(I0
I9
tp629
(I0
I1
tp630
(I9
I2
tp631
(I8
I10
tp632
tp633
sg14
I11
sbs(iproblems
RoomID
p634
(dp635
g10
I13
sg11
(I1
I6
tp636
sg13
I7
sg14
I10
sg15
I10
sg16
I6858376947525423350
sb(imulti_robot_problem
MultiRobotState
p637
(dp638
g19
g20
((lp639
(I4
I7
tp640
a(I1
I3
tp641
a(I2
I8
tp642
a(I2
I2
tp643
a(I2
I1
tp644
a(I2
I3
tp645
a(I9
I5
tp646
a(I2
I5
tp647
a(I2
I7
tp648
a(I2
I9
tp649
a(I8
I1
tp650
ag636
a(I1
I7
tp651
a(I0
I9
tp652
a(I8
I6
tp653
a(I2
I4
tp654
atp655
Rp656
sg15
I10
sg30
g20
((lp657
(I8
I0
tp658
a(I4
I9
tp659
a(I3
I3
tp660
a(I3
I0
tp661
a(I7
I6
tp662
a(I5
I7
tp663
a(I9
I9
tp664
a(I4
I4
tp665
a(I6
I2
tp666
a(I9
I4
tp667
a(I8
I5
tp668
a(I5
I8
tp669
a(I5
I3
tp670
atp671
Rp672
sg13
((I1
I2
tp673
(I7
I5
tp674
(I7
I2
tp675
(I9
I2
tp676
(I1
I5
tp677
(I9
I0
tp678
(I6
I6
tp679
tp680
sg14
I10
sbssg160
S'heavy_roomset'
p681
sbsg160
g162
sg163
(dp682
g444
((lp683
F456.73999999999978
tp684
sg490
((lp685
F17.079999999999927
tp686
sg541
((lp687
F12.809999999999491
tp688
sg591
((lp689
F8.0799999999999272
tp690
sg634
((lp691
F35.670000000000073
tp692
ssba.