(lp0
(imeasure_core
ProblemSetSolution
p1
(dp2
S'roomset'
p3
(imeasure_core
RoomSet
p4
(dp5
S'rooms'
p6
(dp7
(iproblems
RoomID
p8
(dp9
S'dusts'
p10
I8
sS'obstacles'
p11
(I0
I4
tp12
sS'robots'
p13
I4
sS'height'
p14
I7
sS'width'
p15
I9
sS'seed'
p16
I1689441204489037471
sb(imulti_robot_problem
MultiRobotState
p17
(dp18
S'obstacle_locations'
p19
c__builtin__
frozenset
p20
((lp21
(I0
I1
tp22
a(I1
I2
tp23
a(I3
I2
tp24
a(I8
I1
tp25
a(I4
I3
tp26
ag12
a(I0
I3
tp27
a(I4
I0
tp28
atp29
Rp30
sg15
I9
sS'dirt_locations'
p31
g20
((lp32
(I0
I0
tp33
a(I7
I0
tp34
a(I7
I6
tp35
a(I1
I4
tp36
a(I6
I2
tp37
a(I2
I3
tp38
a(I5
I1
tp39
a(I3
I5
tp40
atp41
Rp42
sg13
((I6
I0
tp43
(I5
I4
tp44
(I6
I6
tp45
(I5
I0
tp46
tp47
sg14
I7
sbs(iproblems
RoomID
p48
(dp49
g10
I10
sg11
(I4
I5
tp50
sg13
I3
sg14
I8
sg15
I10
sg16
I6660334802794327005
sb(imulti_robot_problem
MultiRobotState
p51
(dp52
g19
g20
((lp53
(I9
I0
tp54
a(I2
I6
tp55
a(I1
I6
tp56
a(I3
I6
tp57
ag50
a(I8
I4
tp58
atp59
Rp60
sg15
I10
sg31
g20
((lp61
(I9
I1
tp62
a(I5
I6
tp63
a(I9
I6
tp64
a(I1
I5
tp65
a(I7
I5
tp66
a(I9
I4
tp67
a(I1
I7
tp68
a(I4
I1
tp69
a(I7
I2
tp70
a(I8
I2
tp71
atp72
Rp73
sg13
((I7
I3
tp74
(I4
I7
tp75
(I4
I2
tp76
tp77
sg14
I8
sbs(iproblems
RoomID
p78
(dp79
g10
I6
sg11
(I3
I0
tp80
sg13
I4
sg14
I10
sg15
I7
sg16
I3914746131789064238
sb(imulti_robot_problem
MultiRobotState
p81
(dp82
g19
g20
((lp83
g80
a(I6
I1
tp84
a(I2
I3
tp85
a(I5
I0
tp86
a(I2
I2
tp87
a(I0
I3
tp88
a(I0
I8
tp89
a(I4
I1
tp90
a(I3
I5
tp91
atp92
Rp93
sg15
I7
sg31
g20
((lp94
(I6
I5
tp95
a(I3
I3
tp96
a(I1
I7
tp97
a(I0
I4
tp98
a(I3
I4
tp99
a(I0
I7
tp100
atp101
Rp102
sg13
((I1
I8
tp103
(I5
I1
tp104
(I5
I3
tp105
(I1
I9
tp106
tp107
sg14
I10
sbs(iproblems
RoomID
p108
(dp109
g10
I7
sg11
(I2
I5
tp110
sg13
I5
sg14
I9
sg15
I9
sg16
I4640892725076559864
sb(imulti_robot_problem
MultiRobotState
p111
(dp112
g19
g20
((lp113
(I2
I6
tp114
a(I6
I7
tp115
a(I0
I6
tp116
a(I3
I1
tp117
a(I1
I5
tp118
a(I1
I6
tp119
a(I0
I4
tp120
ag110
a(I3
I4
tp121
atp122
Rp123
sg15
I9
sg31
g20
((lp124
(I3
I8
tp125
a(I7
I3
tp126
a(I7
I1
tp127
a(I8
I1
tp128
a(I8
I6
tp129
a(I4
I2
tp130
a(I5
I3
tp131
atp132
Rp133
sg13
((I6
I5
tp134
(I8
I4
tp135
(I7
I6
tp136
(I6
I0
tp137
(I6
I3
tp138
tp139
sg14
I9
sbs(iproblems
RoomID
p140
(dp141
g10
I6
sg11
(I8
I4
tp142
sg13
I4
sg14
I10
sg15
I9
sg16
I3119042104763040036
sb(imulti_robot_problem
MultiRobotState
p143
(dp144
g19
g20
((lp145
(I1
I2
tp146
a(I6
I7
tp147
a(I4
I8
tp148
a(I7
I6
tp149
a(I8
I5
tp150
ag142
atp151
Rp152
sg15
I9
sg31
g20
((lp153
(I6
I8
tp154
a(I8
I7
tp155
a(I6
I6
tp156
a(I3
I0
tp157
a(I7
I2
tp158
a(I6
I5
tp159
atp160
Rp161
sg13
((I5
I9
tp162
(I6
I1
tp163
(I3
I4
tp164
(I2
I7
tp165
tp166
sg14
I10
sbssS'name'
p167
S'easy_roomset'
p168
sbsg167
S'AnytimeBest-d10_with_PowerHeuristic2'
p169
sS'solutions'
p170
(dp171
g8
((lp172
(F0.30999999999949068
I8
tp173
aF40.039999999999054
tp174
sg48
((lp175
F40.06000000000131
tp176
sg78
((lp177
(F0.17999999999847205
I7
tp178
aF40.029999999998836
tp179
sg108
((lp180
(F1.2200000000011642
I6
tp181
aF40.050000000001091
tp182
sg140
((lp183
F40.010000000000218
tp184
ssba(imeasure_core
ProblemSetSolution
p185
(dp186
g3
(imeasure_core
RoomSet
p187
(dp188
g6
(dp189
(iproblems
RoomID
p190
(dp191
g10
I6
sg11
(I5
I5
tp192
sg13
I4
sg14
I12
sg15
I11
sg16
I3119042104763040036
sb(imulti_robot_problem
MultiRobotState
p193
(dp194
g19
g20
((lp195
(I4
I6
tp196
a(I10
I4
tp197
a(I3
I0
tp198
a(I9
I8
tp199
a(I10
I6
tp200
a(I2
I1
tp201
a(I8
I9
tp202
a(I2
I3
tp203
a(I0
I10
tp204
a(I9
I5
tp205
a(I10
I3
tp206
a(I7
I9
tp207
ag192
a(I10
I7
tp208
a(I7
I8
tp209
a(I4
I4
tp210
a(I9
I2
tp211
a(I2
I4
tp212
a(I4
I5
tp213
a(I2
I2
tp214
a(I3
I3
tp215
a(I3
I4
tp216
a(I1
I1
tp217
atp218
Rp219
sg15
I11
sg31
g20
((lp220
(I8
I3
tp221
a(I8
I8
tp222
a(I5
I10
tp223
a(I9
I4
tp224
a(I8
I6
tp225
a(I10
I9
tp226
atp227
Rp228
sg13
((I6
I11
tp229
(I7
I2
tp230
(I2
I8
tp231
(I8
I10
tp232
tp233
sg14
I12
sbs(iproblems
RoomID
p234
(dp235
g10
I6
sg11
(I4
I8
tp236
sg13
I4
sg14
I12
sg15
I9
sg16
I3914746131789064238
sb(imulti_robot_problem
MultiRobotState
p237
(dp238
g19
g20
((lp239
(I4
I6
tp240
a(I6
I6
tp241
a(I4
I5
tp242
a(I5
I7
tp243
a(I0
I5
tp244
a(I0
I10
tp245
a(I8
I7
tp246
a(I7
I0
tp247
a(I0
I3
tp248
a(I8
I5
tp249
a(I4
I0
tp250
a(I2
I3
tp251
a(I6
I7
tp252
a(I3
I3
tp253
a(I8
I1
tp254
a(I7
I6
tp255
a(I3
I1
tp256
ag236
a(I5
I0
tp257
a(I2
I2
tp258
a(I0
I9
tp259
a(I8
I6
tp260
a(I5
I3
tp261
a(I6
I1
tp262
atp263
Rp264
sg15
I9
sg31
g20
((lp265
(I1
I8
tp266
a(I1
I9
tp267
a(I4
I3
tp268
a(I4
I4
tp269
a(I2
I11
tp270
a(I2
I10
tp271
atp272
Rp273
sg13
((I1
I10
tp274
(I6
I2
tp275
(I7
I3
tp276
(I1
I11
tp277
tp278
sg14
I12
sbs(iproblems
RoomID
p279
(dp280
g10
I9
sg11
(I9
I10
tp281
sg13
I3
sg14
I11
sg15
I10
sg16
I4253868527325451640
sb(imulti_robot_problem
MultiRobotState
p282
(dp283
g19
g20
((lp284
(I7
I3
tp285
a(I4
I7
tp286
a(I2
I6
tp287
a(I7
I10
tp288
a(I4
I8
tp289
a(I6
I9
tp290
ag281
a(I3
I9
tp291
a(I1
I6
tp292
a(I3
I7
tp293
a(I2
I5
tp294
a(I8
I5
tp295
a(I5
I8
tp296
a(I7
I9
tp297
a(I7
I1
tp298
a(I8
I10
tp299
a(I5
I0
tp300
a(I2
I3
tp301
a(I3
I5
tp302
a(I3
I4
tp303
a(I2
I4
tp304
atp305
Rp306
sg15
I10
sg31
g20
((lp307
(I8
I9
tp308
a(I5
I10
tp309
a(I6
I8
tp310
a(I7
I6
tp311
a(I3
I8
tp312
a(I0
I10
tp313
a(I9
I4
tp314
a(I0
I9
tp315
a(I5
I3
tp316
atp317
Rp318
sg13
((I3
I6
tp319
(I0
I8
tp320
(I2
I1
tp321
tp322
sg14
I11
sbs(iproblems
RoomID
p323
(dp324
g10
I5
sg11
(I5
I7
tp325
sg13
I4
sg14
I9
sg15
I12
sg16
I659184109953178577
sb(imulti_robot_problem
MultiRobotState
p326
(dp327
g19
g20
((lp328
(I7
I3
tp329
a(I4
I7
tp330
a(I8
I2
tp331
a(I6
I6
tp332
a(I4
I5
tp333
a(I7
I7
tp334
a(I11
I0
tp335
a(I7
I5
tp336
a(I9
I4
tp337
a(I2
I5
tp338
a(I0
I8
tp339
a(I10
I3
tp340
a(I7
I2
tp341
a(I4
I6
tp342
a(I6
I4
tp343
a(I4
I3
tp344
a(I3
I3
tp345
a(I6
I1
tp346
ag325
a(I6
I5
tp347
a(I3
I6
tp348
a(I8
I6
tp349
a(I3
I4
tp350
atp351
Rp352
sg15
I12
sg31
g20
((lp353
(I10
I8
tp354
a(I4
I1
tp355
a(I0
I2
tp356
a(I1
I6
tp357
a(I10
I4
tp358
atp359
Rp360
sg13
((I10
I0
tp361
(I7
I0
tp362
(I2
I6
tp363
(I8
I3
tp364
tp365
sg14
I9
sbs(iproblems
RoomID
p366
(dp367
g10
I9
sg11
(I9
I9
tp368
sg13
I3
sg14
I10
sg15
I10
sg16
I3273124617966689144
sb(imulti_robot_problem
MultiRobotState
p369
(dp370
g19
g20
((lp371
(I7
I3
tp372
a(I5
I4
tp373
a(I1
I3
tp374
a(I6
I4
tp375
a(I4
I5
tp376
a(I9
I8
tp377
a(I3
I2
tp378
a(I7
I5
tp379
a(I1
I6
tp380
a(I2
I5
tp381
a(I0
I8
tp382
a(I9
I6
tp383
a(I6
I5
tp384
a(I5
I3
tp385
a(I3
I3
tp386
a(I5
I5
tp387
a(I7
I6
tp388
ag368
a(I6
I3
tp389
a(I4
I3
tp390
a(I2
I3
tp391
a(I8
I6
tp392
a(I2
I4
tp393
a(I9
I7
tp394
atp395
Rp396
sg15
I10
sg31
g20
((lp397
(I7
I0
tp398
a(I3
I0
tp399
a(I6
I1
tp400
a(I3
I1
tp401
a(I5
I0
tp402
a(I2
I2
tp403
a(I3
I4
tp404
a(I1
I1
tp405
a(I8
I4
tp406
atp407
Rp408
sg13
((I0
I7
tp409
(I2
I1
tp410
(I6
I6
tp411
tp412
sg14
I10
sbssg167
S'mild_roomset'
p413
sbsg167
g169
sg170
(dp414
g190
((lp415
F40.260000000000218
tp416
sg234
((lp417
(F0.2000000000007276
I6
tp418
aF40.110000000000582
tp419
sg323
((lp420
F40.100000000000364
tp421
sg279
((lp422
F40.020000000000437
tp423
sg366
((lp424
F40.099999999998545
tp425
ssba(imeasure_core
ProblemSetSolution
p426
(dp427
g3
(imeasure_core
RoomSet
p428
(dp429
g6
(dp430
(iproblems
RoomID
p431
(dp432
g10
I13
sg11
(I3
I4
tp433
sg13
I6
sg14
I10
sg15
I12
sg16
I1689441204489037471
sb(imulti_robot_problem
MultiRobotState
p434
(dp435
g19
g20
((lp436
(I7
I3
tp437
a(I1
I3
tp438
a(I8
I7
tp439
a(I10
I6
tp440
a(I7
I7
tp441
a(I6
I2
tp442
a(I1
I6
tp443
a(I9
I4
tp444
a(I4
I2
tp445
a(I5
I1
tp446
a(I10
I3
tp447
a(I2
I7
tp448
a(I9
I3
tp449
a(I9
I5
tp450
a(I0
I5
tp451
a(I11
I5
tp452
a(I8
I5
tp453
a(I5
I2
tp454
a(I0
I2
tp455
a(I3
I8
tp456
a(I4
I3
tp457
a(I0
I4
tp458
ag433
a(I8
I6
tp459
a(I4
I1
tp460
a(I1
I1
tp461
a(I8
I4
tp462
atp463
Rp464
sg15
I12
sg31
g20
((lp465
(I8
I9
tp466
a(I9
I0
tp467
a(I0
I0
tp468
a(I10
I4
tp469
a(I4
I8
tp470
a(I8
I1
tp471
a(I11
I2
tp472
a(I5
I4
tp473
a(I7
I4
tp474
a(I11
I8
tp475
a(I2
I6
tp476
a(I2
I3
tp477
a(I1
I5
tp478
atp479
Rp480
sg13
((I8
I0
tp481
(I7
I6
tp482
(I8
I8
tp483
(I7
I0
tp484
(I2
I4
tp485
(I9
I9
tp486
tp487
sg14
I10
sbs(iproblems
RoomID
p488
(dp489
g10
I15
sg11
(I10
I7
tp490
sg13
I6
sg14
I11
sg15
I13
sg16
I6660334802794327005
sb(imulti_robot_problem
MultiRobotState
p491
(dp492
g19
g20
((lp493
(I4
I7
tp494
a(I11
I7
tp495
a(I5
I6
tp496
a(I2
I8
tp497
a(I9
I9
tp498
a(I9
I10
tp499
a(I10
I8
tp500
a(I9
I0
tp501
ag490
a(I5
I7
tp502
a(I8
I10
tp503
a(I3
I8
tp504
a(I1
I5
tp505
a(I1
I8
tp506
a(I1
I10
tp507
a(I10
I0
tp508
a(I2
I4
tp509
atp510
Rp511
sg15
I13
sg31
g20
((lp512
(I2
I7
tp513
a(I12
I2
tp514
a(I6
I9
tp515
a(I6
I10
tp516
a(I12
I1
tp517
a(I2
I9
tp518
a(I12
I0
tp519
a(I12
I9
tp520
a(I11
I2
tp521
a(I10
I6
tp522
a(I1
I7
tp523
a(I12
I5
tp524
a(I6
I3
tp525
a(I10
I3
tp526
a(I12
I8
tp527
atp528
Rp529
sg13
((I9
I5
tp530
(I5
I10
tp531
(I5
I3
tp532
(I5
I1
tp533
(I9
I3
tp534
(I7
I8
tp535
tp536
sg14
I11
sbs(iproblems
RoomID
p537
(dp538
g10
I11
sg11
(I6
I1
tp539
sg13
I7
sg14
I13
sg15
I10
sg16
I3914746131789064238
sb(imulti_robot_problem
MultiRobotState
p540
(dp541
g19
g20
((lp542
(I0
I0
tp543
a(I7
I0
tp544
a(I9
I1
tp545
a(I2
I9
tp546
a(I7
I1
tp547
a(I9
I2
tp548
ag539
a(I6
I3
tp549
a(I8
I1
tp550
a(I7
I2
tp551
a(I5
I1
tp552
a(I7
I8
tp553
a(I6
I5
tp554
a(I5
I5
tp555
atp556
Rp557
sg15
I10
sg31
g20
((lp558
(I4
I7
tp559
a(I3
I3
tp560
a(I4
I5
tp561
a(I4
I4
tp562
a(I1
I4
tp563
a(I0
I11
tp564
a(I0
I5
tp565
a(I0
I10
tp566
a(I8
I7
tp567
a(I9
I5
tp568
a(I5
I3
tp569
atp570
Rp571
sg13
((I1
I11
tp572
(I8
I4
tp573
(I2
I12
tp574
(I1
I9
tp575
(I2
I11
tp576
(I5
I4
tp577
(I5
I0
tp578
tp579
sg14
I13
sbs(iproblems
RoomID
p580
(dp581
g10
I12
sg11
(I8
I7
tp582
sg13
I7
sg14
I12
sg15
I12
sg16
I4640892725076559864
sb(imulti_robot_problem
MultiRobotState
p583
(dp584
g19
g20
((lp585
(I5
I9
tp586
a(I6
I9
tp587
a(I4
I8
tp588
a(I5
I6
tp589
a(I2
I8
tp590
a(I6
I0
tp591
a(I2
I10
tp592
a(I0
I9
tp593
a(I6
I2
tp594
ag582
a(I3
I7
tp595
a(I5
I1
tp596
a(I1
I0
tp597
a(I8
I5
tp598
a(I7
I9
tp599
a(I7
I4
tp600
a(I7
I0
tp601
a(I6
I8
tp602
a(I2
I9
tp603
a(I0
I6
tp604
a(I7
I6
tp605
a(I5
I7
tp606
a(I8
I10
tp607
a(I0
I2
tp608
a(I6
I3
tp609
a(I2
I0
tp610
a(I1
I8
tp611
a(I4
I5
tp612
a(I5
I2
tp613
a(I1
I1
tp614
a(I9
I7
tp615
atp616
Rp617
sg15
I12
sg31
g20
((lp618
(I2
I7
tp619
a(I6
I4
tp620
a(I11
I10
tp621
a(I4
I6
tp622
a(I11
I8
tp623
a(I11
I2
tp624
a(I9
I3
tp625
a(I3
I2
tp626
a(I8
I8
tp627
a(I0
I5
tp628
a(I10
I3
tp629
a(I5
I3
tp630
atp631
Rp632
sg13
((I8
I6
tp633
(I11
I5
tp634
(I10
I8
tp635
(I9
I0
tp636
(I9
I4
tp637
(I9
I2
tp638
(I4
I11
tp639
tp640
sg14
I12
sbs(iproblems
RoomID
p641
(dp642
g10
I11
sg11
(I7
I6
tp643
sg13
I7
sg14
I13
sg15
I12
sg16
I3119042104763040036
sb(imulti_robot_problem
MultiRobotState
p644
(dp645
g19
g20
((lp646
(I5
I4
tp647
a(I4
I5
tp648
a(I9
I8
tp649
a(I10
I6
tp650
a(I9
I0
tp651
a(I6
I0
tp652
a(I8
I9
tp653
a(I2
I12
tp654
a(I9
I6
tp655
a(I10
I5
tp656
a(I5
I10
tp657
a(I10
I7
tp658
ag643
a(I9
I9
tp659
a(I8
I6
tp660
a(I11
I6
tp661
a(I9
I7
tp662
atp663
Rp664
sg15
I12
sg31
g20
((lp665
(I1
I2
tp666
a(I4
I4
tp667
a(I5
I11
tp668
a(I5
I6
tp669
a(I3
I4
tp670
a(I8
I0
tp671
a(I8
I10
tp672
a(I0
I11
tp673
a(I2
I3
tp674
a(I7
I8
tp675
a(I4
I0
tp676
atp677
Rp678
sg13
((I7
I12
tp679
(I8
I2
tp680
(I4
I6
tp681
(I3
I9
tp682
(I9
I11
tp683
(I11
I9
tp684
(I9
I3
tp685
tp686
sg14
I13
sbssg167
S'heavy_roomset'
p687
sbsg167
g169
sg170
(dp688
g431
((lp689
F40.280000000000655
tp690
sg488
((lp691
F40.3700000000008
tp692
sg641
((lp693
F50.5
tp694
sg537
((lp695
F41.489999999999782
tp696
sg580
((lp697
F41.799999999999272
tp698
ssba(imeasure_core
ProblemSetSolution
p699
(dp700
g3
g4
sg167
S'AnytimeBest-d80_with_PowerHeuristic2'
p701
sg170
(dp702
g8
((lp703
(F0.30999999999949068
I8
tp704
aF40.039999999999054
tp705
sg48
((lp706
(F0.23000000000138243
I23
tp707
aF40.010000000000218
tp708
sg78
((lp709
(F0.19000000000050932
I7
tp710
aF40.030000000000655
tp711
sg108
((lp712
(F1.2199999999993452
I6
tp713
aF40.049999999999272
tp714
sg140
((lp715
(F0.48000000000138243
I11
tp716
aF40.050000000001091
tp717
ssba(imeasure_core
ProblemSetSolution
p718
(dp719
g3
g187
sg167
g701
sg170
(dp720
g190
((lp721
F40.180000000000291
tp722
sg234
((lp723
(F0.19999999999890861
I6
tp724
aF40.039999999999054
tp725
sg323
((lp726
(F1.1599999999998545
I18
tp727
aF40.040000000000873
tp728
sg279
((lp729
(F0.37000000000080036
I32
tp730
aF40.010000000000218
tp731
sg366
((lp732
(F15.909999999999854
I47
tp733
aF40.059999999999491
tp734
ssba(imeasure_core
ProblemSetSolution
p735
(dp736
g3
g428
sg167
g701
sg170
(dp737
g431
((lp738
F40.119999999998981
tp739
sg488
((lp740
(F17.350000000000364
I11
tp741
aF40.170000000000073
tp742
sg641
((lp743
F50.539999999999054
tp744
sg537
((lp745
F41.300000000001091
tp746
sg580
((lp747
F41.020000000000437
tp748
ssba(imeasure_core
ProblemSetSolution
p749
(dp750
g3
g4
sg167
S'AnytimeBest-d150_with_PowerHeuristic2'
p751
sg170
(dp752
g8
((lp753
(F0.31999999999970896
I8
tp754
aF40.040000000000873
tp755
sg48
((lp756
(F0.22999999999956344
I23
tp757
aF40.009999999998399
tp758
sg78
((lp759
(F0.19000000000050932
I7
tp760
aF40.030000000000655
tp761
sg108
((lp762
(F1.2299999999995634
I6
tp763
aF40.049999999999272
tp764
sg140
((lp765
(F0.47000000000116415
I11
tp766
aF40.050000000001091
tp767
ssba(imeasure_core
ProblemSetSolution
p768
(dp769
g3
g187
sg167
g751
sg170
(dp770
g190
((lp771
F40.270000000000437
tp772
sg234
((lp773
(F0.19999999999890861
I6
tp774
aF40.039999999999054
tp775
sg323
((lp776
(F1.1499999999996362
I18
tp777
aF40.069999999999709
tp778
sg279
((lp779
(F0.37000000000080036
I32
tp780
aF40.020000000000437
tp781
sg366
((lp782
(F15.8799999999992
I47
tp783
aF40.059999999999491
tp784
ssba(imeasure_core
ProblemSetSolution
p785
(dp786
g3
g428
sg167
g751
sg170
(dp787
g431
((lp788
F40.690000000000509
tp789
sg488
((lp790
(F17.159999999999854
I11
tp791
aF40.170000000000073
tp792
sg641
((lp793
F50.260000000000218
tp794
sg537
((lp795
F41.639999999999418
tp796
sg580
((lp797
F41.200000000000728
tp798
ssba(imeasure_core
ProblemSetSolution
p799
(dp800
g3
g4
sg167
S'AnytimeBest-d250_with_PowerHeuristic2'
p801
sg170
(dp802
g8
((lp803
(F0.31999999999970896
I8
tp804
aF40.039999999999054
tp805
sg48
((lp806
(F0.22999999999956344
I23
tp807
aF40.010000000000218
tp808
sg78
((lp809
(F0.18000000000029104
I7
tp810
aF40.030000000000655
tp811
sg108
((lp812
(F1.2399999999997817
I6
tp813
aF40.049999999999272
tp814
sg140
((lp815
(F0.47000000000116415
I11
tp816
aF40.050000000001091
tp817
ssba(imeasure_core
ProblemSetSolution
p818
(dp819
g3
g187
sg167
g801
sg170
(dp820
g190
((lp821
(F15.699999999998909
I164
tp822
aF40.329999999999927
tp823
sg234
((lp824
(F0.19999999999890861
I6
tp825
aF40.039999999999054
tp826
sg323
((lp827
(F1.1599999999998545
I18
tp828
aF40.059999999999491
tp829
sg279
((lp830
(F0.37000000000080036
I32
tp831
aF40.010000000000218
tp832
sg366
((lp833
(F15.840000000000146
I47
tp834
aF40.100000000000364
tp835
ssba(imeasure_core
ProblemSetSolution
p836
(dp837
g3
g428
sg167
g801
sg170
(dp838
g431
((lp839
F40.690000000000509
tp840
sg488
((lp841
(F17.229999999999563
I11
tp842
aF40.170000000000073
tp843
sg641
((lp844
F50.290000000000873
tp845
sg537
((lp846
F41.1299999999992
tp847
sg580
((lp848
F41.399999999999636
tp849
ssba(imeasure_core
ProblemSetSolution
p850
(dp851
g3
g4
sg167
S'AnytimeBest-d400_with_PowerHeuristic2'
p852
sg170
(dp853
g8
((lp854
(F0.30999999999949068
I8
tp855
aF40.039999999999054
tp856
sg48
((lp857
(F0.23000000000138243
I23
tp858
aF40.010000000000218
tp859
sg78
((lp860
(F0.18000000000029104
I7
tp861
aF40.050000000001091
tp862
sg108
((lp863
(F1.2399999999997817
I6
tp864
aF40.259999999998399
tp865
sg140
((lp866
(F0.47000000000116415
I11
tp867
aF40.050000000001091
tp868
ssba(imeasure_core
ProblemSetSolution
p869
(dp870
g3
g187
sg167
g852
sg170
(dp871
g190
((lp872
(F15.569999999999709
I164
tp873
aF40.069999999999709
tp874
sg234
((lp875
(F0.2000000000007276
I6
tp876
aF40.039999999999054
tp877
sg323
((lp878
(F1.1599999999998545
I18
tp879
aF40.030000000000655
tp880
sg279
((lp881
(F0.37000000000080036
I32
tp882
aF40.010000000000218
tp883
sg366
((lp884
(F15.950000000000728
I47
tp885
aF40.059999999999491
tp886
ssba(imeasure_core
ProblemSetSolution
p887
(dp888
g3
g428
sg167
g852
sg170
(dp889
g431
((lp890
F40.610000000000582
tp891
sg488
((lp892
(F17.329999999999927
I11
tp893
aF40.170000000000073
tp894
sg641
((lp895
F50.420000000000073
tp896
sg537
((lp897
F41.199999999998909
tp898
sg580
((lp899
F40.920000000000073
tp900
ssba(imeasure_core
ProblemSetSolution
p901
(dp902
g3
g4
sg167
S'AnytimeBest-d10_with_LinearHeuristic'
p903
sg170
(dp904
g8
((lp905
F40.110000000000582
tp906
sg48
((lp907
F40.049999999999272
tp908
sg78
((lp909
F40.130000000001019
tp910
sg108
((lp911
(F1.930000000000291
I6
tp912
aF40.229999999999563
tp913
sg140
((lp914
F40.079999999999927
tp915
ssba(imeasure_core
ProblemSetSolution
p916
(dp917
g3
g187
sg167
g903
sg170
(dp918
g190
((lp919
F40.079999999999927
tp920
sg234
((lp921
(F1.4099999999998545
I10
tp922
a(F11.350000000000364
I9
tp923
a(F21.069999999999709
I8
tp924
aF40.219999999999345
tp925
sg323
((lp926
F40.030000000000655
tp927
sg279
((lp928
F40.030000000000655
tp929
sg366
((lp930
F40.059999999999491
tp931
ssba(imeasure_core
ProblemSetSolution
p932
(dp933
g3
g428
sg167
g903
sg170
(dp934
g431
((lp935
F40.309999999999491
tp936
sg488
((lp937
F40.440000000000509
tp938
sg641
((lp939
F40.660000000001673
tp940
sg537
((lp941
F46.799999999999272
tp942
sg580
((lp943
F40.5
tp944
ssba(imeasure_core
ProblemSetSolution
p945
(dp946
g3
g4
sg167
S'AnytimeBest-d80_with_LinearHeuristic'
p947
sg170
(dp948
g8
((lp949
F40.210000000000946
tp950
sg48
((lp951
(F39.850000000000364
I12
tp952
aF40.069999999999709
tp953
sg78
((lp954
F40.149999999999636
tp955
sg108
((lp956
(F1.9400000000005093
I6
tp957
aF40.280000000000655
tp958
sg140
((lp959
F40.039999999999054
tp960
ssba(imeasure_core
ProblemSetSolution
p961
(dp962
g3
g187
sg167
g947
sg170
(dp963
g190
((lp964
F40.190000000000509
tp965
sg234
((lp966
(F0.46999999999934516
I12
tp967
a(F4.5499999999992724
I11
tp968
a(F7.8899999999994179
I10
tp969
a(F18.219999999999345
I9
tp970
a(F28.360000000000582
I8
tp971
aF40.219999999999345
tp972
sg323
((lp973
F40.039999999999054
tp974
sg279
((lp975
(F34.890000000001237
I80
tp976
aF40.040000000000873
tp977
sg366
((lp978
F40.06000000000131
tp979
ssba(imeasure_core
ProblemSetSolution
p980
(dp981
g3
g428
sg167
g947
sg170
(dp982
g431
((lp983
F40.639999999999418
tp984
sg488
((lp985
F42.25
tp986
sg641
((lp987
F56.670000000000073
tp988
sg537
((lp989
F46.299999999999272
tp990
sg580
((lp991
F40.510000000000218
tp992
ssba(imeasure_core
ProblemSetSolution
p993
(dp994
g3
g4
sg167
S'AnytimeBest-d150_with_LinearHeuristic'
p995
sg170
(dp996
g8
((lp997
F40.530000000000655
tp998
sg48
((lp999
(F39.899999999999636
I12
tp1000
aF40.069999999999709
tp1001
sg78
((lp1002
F40.069999999999709
tp1003
sg108
((lp1004
(F1.930000000000291
I6
tp1005
aF40.489999999999782
tp1006
sg140
((lp1007
F40.200000000000728
tp1008
ssba(imeasure_core
ProblemSetSolution
p1009
(dp1010
g3
g187
sg167
g995
sg170
(dp1011
g190
((lp1012
F40.299999999999272
tp1013
sg234
((lp1014
(F0.46999999999934516
I12
tp1015
a(F4.569999999999709
I11
tp1016
a(F7.9099999999998545
I10
tp1017
a(F18.239999999999782
I9
tp1018
a(F28.380000000001019
I8
tp1019
aF40.219999999999345
tp1020
sg323
((lp1021
F40.049999999999272
tp1022
sg279
((lp1023
F40.050000000001091
tp1024
sg366
((lp1025
F40.040000000000873
tp1026
ssba(imeasure_core
ProblemSetSolution
p1027
(dp1028
g3
g428
sg167
g995
sg170
(dp1029
g431
((lp1030
F40.720000000001164
tp1031
sg488
((lp1032
F40.539999999997235
tp1033
sg641
((lp1034
F56.599999999998545
tp1035
sg537
((lp1036
F46.31000000000131
tp1037
sg580
((lp1038
F40.479999999999563
tp1039
ssba(imeasure_core
ProblemSetSolution
p1040
(dp1041
g3
g4
sg167
S'AnytimeBest-d250_with_LinearHeuristic'
p1042
sg170
(dp1043
g8
((lp1044
F40.390000000003056
tp1045
sg48
((lp1046
F40.069999999999709
tp1047
sg78
((lp1048
F40.239999999997963
tp1049
sg108
((lp1050
(F1.9200000000018917
I6
tp1051
aF40.389999999999418
tp1052
sg140
((lp1053
(F34.190000000002328
I165
tp1054
aF40.220000000001164
tp1055
ssba(imeasure_core
ProblemSetSolution
p1056
(dp1057
g3
g187
sg167
g1042
sg170
(dp1058
g190
((lp1059
F40.119999999998981
tp1060
sg234
((lp1061
(F0.47000000000116415
I12
tp1062
a(F4.5600000000013097
I11
tp1063
a(F7.9000000000014552
I10
tp1064
a(F18.240000000001601
I9
tp1065
a(F28.370000000002619
I8
tp1066
aF40.220000000001164
tp1067
sg323
((lp1068
F40.200000000000728
tp1069
sg279
((lp1070
F40.090000000000146
tp1071
sg366
((lp1072
F40.040000000000873
tp1073
ssba(imeasure_core
ProblemSetSolution
p1074
(dp1075
g3
g428
sg167
g1042
sg170
(dp1076
g431
((lp1077
F40.569999999999709
tp1078
sg488
((lp1079
F40.340000000000146
tp1080
sg641
((lp1081
F40.620000000002619
tp1082
sg537
((lp1083
F46.869999999998981
tp1084
sg580
((lp1085
F40.899999999997817
tp1086
ssba(imeasure_core
ProblemSetSolution
p1087
(dp1088
g3
g4
sg167
S'AnytimeBest-d400_with_LinearHeuristic'
p1089
sg170
(dp1090
g8
((lp1091
F40.18999999999869
tp1092
sg48
((lp1093
F40.090000000000146
tp1094
sg78
((lp1095
F40.290000000000873
tp1096
sg108
((lp1097
(F1.9199999999982538
I6
tp1098
aF40.290000000000873
tp1099
sg140
((lp1100
(F34.18999999999869
I165
tp1101
aF40.119999999998981
tp1102
ssba(imeasure_core
ProblemSetSolution
p1103
(dp1104
g3
g187
sg167
g1089
sg170
(dp1105
g190
((lp1106
F40.100000000002183
tp1107
sg234
((lp1108
(F0.46999999999752617
I12
tp1109
a(F4.5499999999992724
I11
tp1110
a(F7.8899999999994179
I10
tp1111
a(F18.180000000000291
I9
tp1112
a(F28.299999999999272
I8
tp1113
aF40.270000000000437
tp1114
sg323
((lp1115
F40.240000000001601
tp1116
sg279
((lp1117
F40.079999999998108
tp1118
sg366
((lp1119
F40.039999999997235
tp1120
ssba(imeasure_core
ProblemSetSolution
p1121
(dp1122
g3
g428
sg167
g1089
sg170
(dp1123
g431
((lp1124
F40.540000000000873
tp1125
sg488
((lp1126
F40.360000000000582
tp1127
sg641
((lp1128
F40.540000000000873
tp1129
sg537
((lp1130
F46.639999999999418
tp1131
sg580
((lp1132
F40.75
tp1133
ssba.