(lp0
(imeasure_core
ProblemSetSolution
p1
(dp2
S'roomset'
p3
(imeasure_core
RoomSet
p4
(dp5
S'rooms'
p6
(dp7
(iproblems
RoomID
p8
(dp9
S'dusts'
p10
I8
sS'obstacles'
p11
(I2
I5
tp12
sS'robots'
p13
I2
sS'height'
p14
I7
sS'width'
p15
I10
sS'seed'
p16
I6446524242829424457
sb(imulti_robot_problem
MultiRobotState
p17
(dp18
S'obstacle_locations'
p19
c__builtin__
frozenset
p20
((lp21
(I1
I5
tp22
a(I8
I3
tp23
a(I2
I6
tp24
a(I5
I0
tp25
a(I0
I6
tp26
ag12
atp27
Rp28
sg15
I10
sS'dirt_locations'
p29
g20
((lp30
(I8
I6
tp31
a(I9
I2
tp32
a(I7
I6
tp33
a(I8
I0
tp34
a(I2
I2
tp35
a(I9
I5
tp36
a(I8
I4
tp37
a(I4
I0
tp38
atp39
Rp40
sg13
((I7
I1
tp41
(I3
I3
tp42
tp43
sg14
I7
sbs(iproblems
RoomID
p44
(dp45
g10
I7
sg11
(I6
I2
tp46
sg13
I5
sg14
I9
sg15
I9
sg16
I6713787463551035793
sb(imulti_robot_problem
MultiRobotState
p47
(dp48
g19
g20
((lp49
(I7
I4
tp50
a(I6
I7
tp51
a(I5
I6
tp52
a(I0
I7
tp53
a(I6
I3
tp54
ag46
a(I2
I2
tp55
a(I6
I5
tp56
a(I5
I3
tp57
atp58
Rp59
sg15
I9
sg29
g20
((lp60
(I1
I2
tp61
a(I0
I6
tp62
a(I4
I7
tp63
a(I8
I8
tp64
a(I8
I7
tp65
a(I4
I3
tp66
a(I2
I4
tp67
atp68
Rp69
sg13
((I5
I5
tp70
(I7
I3
tp71
(I8
I4
tp72
(I8
I6
tp73
(I5
I7
tp74
tp75
sg14
I9
sbs(iproblems
RoomID
p76
(dp77
g10
I9
sg11
(I6
I3
tp78
sg13
I3
sg14
I8
sg15
I9
sg16
I5537388114198284799
sb(imulti_robot_problem
MultiRobotState
p79
(dp80
g19
g20
((lp81
(I7
I4
tp82
a(I6
I4
tp83
a(I7
I5
tp84
a(I8
I1
tp85
ag78
atp86
Rp87
sg15
I9
sg29
g20
((lp88
(I7
I3
tp89
a(I7
I0
tp90
a(I3
I1
tp91
a(I0
I7
tp92
a(I0
I6
tp93
a(I1
I6
tp94
a(I0
I4
tp95
a(I2
I4
tp96
a(I6
I5
tp97
atp98
Rp99
sg13
((I4
I2
tp100
(I4
I5
tp101
(I2
I3
tp102
tp103
sg14
I8
sbs(iproblems
RoomID
p104
(dp105
g10
I6
sg11
(I4
I3
tp106
sg13
I1
sg14
I7
sg15
I8
sg16
I8486355351578056966
sb(imulti_robot_problem
MultiRobotState
p107
(dp108
g19
g20
((lp109
(I6
I4
tp110
a(I5
I4
tp111
a(I6
I5
tp112
ag106
a(I6
I6
tp113
atp114
Rp115
sg15
I8
sg29
g20
((lp116
(I0
I1
tp117
a(I7
I4
tp118
a(I3
I3
tp119
a(I5
I0
tp120
a(I1
I4
tp121
a(I3
I5
tp122
atp123
Rp124
sg13
((I3
I0
tp125
tp126
sg14
I7
sbs(iproblems
RoomID
p127
(dp128
g10
I5
sg11
(I3
I1
tp129
sg13
I2
sg14
I7
sg15
I9
sg16
I7160033630608934649
sb(imulti_robot_problem
MultiRobotState
p130
(dp131
g19
g20
((lp132
(I8
I3
tp133
a(I8
I2
tp134
ag129
a(I6
I0
tp135
a(I1
I1
tp136
a(I5
I0
tp137
a(I2
I5
tp138
a(I0
I2
tp139
a(I4
I0
tp140
atp141
Rp142
sg15
I9
sg29
g20
((lp143
(I8
I6
tp144
a(I7
I5
tp145
a(I0
I5
tp146
a(I3
I6
tp147
a(I0
I4
tp148
atp149
Rp150
sg13
((I6
I1
tp151
(I2
I0
tp152
tp153
sg14
I7
sbssS'name'
p154
S'easy_roomset'
p155
sbsg154
S'LimitedTimeAStar_with_PowerHeuristic2'
p156
sS'solutions'
p157
(dp158
g8
((lp159
(F0.18
I21
tp160
aF0.19
tp161
sg44
((lp162
(F0.8599999999999999
I9
tp163
aF0.8699999999999999
tp164
sg76
((lp165
F300.42
tp166
sg104
((lp167
F0.0999999999999659
tp168
sg127
((lp169
F53.31999999999999
tp170
ssba(imeasure_core
ProblemSetSolution
p171
(dp172
g3
(imeasure_core
RoomSet
p173
(dp174
g6
(dp175
(iproblems
RoomID
p176
(dp177
g10
I9
sg11
(I6
I6
tp178
sg13
I4
sg14
I10
sg15
I11
sg16
I5069507967843178763
sb(imulti_robot_problem
MultiRobotState
p179
(dp180
g19
g20
((lp181
(I3
I2
tp182
a(I8
I2
tp183
ag178
a(I9
I8
tp184
a(I9
I3
tp185
a(I7
I7
tp186
a(I8
I7
tp187
a(I10
I1
tp188
a(I5
I4
tp189
a(I2
I5
tp190
a(I8
I5
tp191
a(I5
I8
tp192
a(I5
I3
tp193
a(I7
I4
tp194
a(I6
I7
tp195
a(I7
I6
tp196
a(I5
I7
tp197
a(I6
I3
tp198
a(I5
I0
tp199
a(I2
I2
tp200
a(I4
I3
tp201
a(I7
I9
tp202
a(I10
I9
tp203
atp204
Rp205
sg15
I11
sg29
g20
((lp206
(I1
I2
tp207
a(I10
I4
tp208
a(I3
I0
tp209
a(I3
I4
tp210
a(I9
I2
tp211
a(I7
I5
tp212
a(I3
I7
tp213
a(I1
I0
tp214
a(I5
I2
tp215
atp216
Rp217
sg13
((I6
I2
tp218
(I7
I8
tp219
(I8
I0
tp220
(I2
I3
tp221
tp222
sg14
I10
sbs(iproblems
RoomID
p223
(dp224
g10
I10
sg11
(I4
I6
tp225
sg13
I4
sg14
I9
sg15
I9
sg16
I2548854849785010530
sb(imulti_robot_problem
MultiRobotState
p226
(dp227
g19
g20
((lp228
(I4
I7
tp229
a(I0
I0
tp230
a(I8
I2
tp231
a(I5
I6
tp232
a(I2
I8
tp233
a(I0
I4
tp234
a(I3
I2
tp235
a(I2
I1
tp236
a(I2
I3
tp237
a(I1
I4
tp238
a(I5
I4
tp239
a(I3
I7
tp240
ag225
a(I1
I2
tp241
a(I5
I5
tp242
a(I2
I0
tp243
a(I4
I4
tp244
a(I4
I5
tp245
a(I4
I3
tp246
a(I2
I2
tp247
a(I5
I7
tp248
a(I3
I4
tp249
a(I2
I4
tp250
atp251
Rp252
sg15
I9
sg29
g20
((lp253
(I8
I3
tp254
a(I7
I7
tp255
a(I0
I6
tp256
a(I7
I5
tp257
a(I0
I5
tp258
a(I6
I5
tp259
a(I4
I2
tp260
a(I2
I5
tp261
a(I4
I1
tp262
a(I7
I2
tp263
atp264
Rp265
sg13
((I1
I1
tp266
(I7
I8
tp267
(I1
I5
tp268
(I0
I2
tp269
tp270
sg14
I9
sbs(iproblems
RoomID
p271
(dp272
g10
I8
sg11
(I9
I2
tp273
sg13
I3
sg14
I9
sg15
I12
sg16
I6446524242829424457
sb(imulti_robot_problem
MultiRobotState
p274
(dp275
g19
g20
((lp276
(I11
I8
tp277
a(I2
I6
tp278
a(I10
I4
tp279
a(I2
I8
tp280
a(I10
I6
tp281
a(I10
I5
tp282
a(I4
I6
tp283
a(I9
I4
tp284
a(I3
I7
tp285
a(I0
I8
tp286
a(I10
I3
tp287
a(I6
I5
tp288
a(I5
I5
tp289
a(I2
I7
tp290
a(I10
I8
tp291
a(I9
I3
tp292
a(I6
I7
tp293
a(I3
I3
tp294
a(I10
I7
tp295
a(I9
I6
tp296
a(I5
I7
tp297
a(I3
I8
tp298
ag273
a(I11
I1
tp299
a(I4
I3
tp300
a(I1
I7
tp301
a(I7
I8
tp302
atp303
Rp304
sg15
I12
sg29
g20
((lp305
(I11
I3
tp306
a(I1
I4
tp307
a(I6
I0
tp308
a(I6
I2
tp309
a(I2
I3
tp310
a(I10
I0
tp311
a(I9
I5
tp312
a(I9
I7
tp313
atp314
Rp315
sg13
((I9
I1
tp316
(I3
I4
tp317
(I5
I0
tp318
tp319
sg14
I9
sbs(iproblems
RoomID
p320
(dp321
g10
I6
sg11
(I6
I7
tp322
sg13
I3
sg14
I12
sg15
I10
sg16
I4012307110687896631
sb(imulti_robot_problem
MultiRobotState
p323
(dp324
g19
g20
((lp325
(I6
I4
tp326
a(I5
I4
tp327
a(I1
I3
tp328
a(I6
I6
tp329
a(I4
I5
tp330
a(I8
I0
tp331
a(I1
I4
tp332
a(I4
I6
tp333
a(I0
I5
tp334
a(I6
I2
tp335
a(I1
I6
tp336
a(I2
I5
tp337
a(I5
I3
tp338
a(I1
I2
tp339
a(I9
I3
tp340
a(I3
I1
tp341
ag322
a(I5
I5
tp342
a(I0
I2
tp343
a(I6
I1
tp344
a(I6
I10
tp345
a(I4
I4
tp346
a(I2
I4
tp347
a(I6
I3
tp348
a(I1
I5
tp349
a(I3
I3
tp350
a(I4
I3
tp351
a(I2
I2
tp352
a(I5
I7
tp353
a(I3
I4
tp354
a(I1
I1
tp355
atp356
Rp357
sg15
I10
sg29
g20
((lp358
(I2
I0
tp359
a(I7
I0
tp360
a(I0
I7
tp361
a(I7
I6
tp362
a(I2
I1
tp363
a(I0
I10
tp364
atp365
Rp366
sg13
((I3
I11
tp367
(I0
I3
tp368
(I9
I11
tp369
tp370
sg14
I12
sbs(iproblems
RoomID
p371
(dp372
g10
I9
sg11
(I4
I4
tp373
sg13
I4
sg14
I10
sg15
I11
sg16
I5537388114198284799
sb(imulti_robot_problem
MultiRobotState
p374
(dp375
g19
g20
((lp376
(I7
I3
tp377
a(I6
I6
tp378
a(I7
I7
tp379
a(I7
I5
tp380
a(I8
I7
tp381
a(I5
I5
tp382
a(I6
I3
tp383
a(I6
I7
tp384
a(I6
I8
tp385
a(I10
I7
tp386
a(I7
I6
tp387
ag373
a(I7
I4
tp388
a(I2
I0
tp389
a(I8
I8
tp390
a(I3
I6
tp391
a(I8
I6
tp392
a(I8
I4
tp393
a(I7
I8
tp394
a(I10
I2
tp395
atp396
Rp397
sg15
I11
sg29
g20
((lp398
(I3
I2
tp399
a(I9
I1
tp400
a(I3
I4
tp401
a(I0
I7
tp402
a(I0
I5
tp403
a(I9
I4
tp404
a(I0
I9
tp405
a(I9
I6
tp406
a(I3
I5
tp407
atp408
Rp409
sg13
((I5
I3
tp410
(I5
I7
tp411
(I2
I4
tp412
(I2
I8
tp413
tp414
sg14
I10
sbssg154
S'mild_roomset'
p415
sbsg154
g156
sg157
(dp416
g176
((lp417
F300.32000000000005
tp418
sg223
((lp419
F300.4599999999999
tp420
sg371
((lp421
F301.30999999999995
tp422
sg320
((lp423
F279.3299999999999
tp424
sg271
((lp425
F300.3700000000001
tp426
ssba(imeasure_core
ProblemSetSolution
p427
(dp428
g3
(imeasure_core
RoomSet
p429
(dp430
g6
(dp431
(iproblems
RoomID
p432
(dp433
g10
I13
sg11
(I4
I7
tp434
sg13
I5
sg14
I10
sg15
I13
sg16
I6446524242829424457
sb(imulti_robot_problem
MultiRobotState
p435
(dp436
g19
g20
((lp437
g434
a(I2
I6
tp438
a(I3
I3
tp439
a(I2
I9
tp440
a(I2
I8
tp441
a(I4
I4
tp442
a(I3
I8
tp443
a(I1
I8
tp444
a(I7
I5
tp445
a(I0
I4
tp446
a(I0
I9
tp447
a(I3
I9
tp448
a(I12
I9
tp449
a(I6
I5
tp450
atp451
Rp452
sg15
I13
sg29
g20
((lp453
(I2
I7
tp454
a(I11
I7
tp455
a(I7
I0
tp456
a(I10
I8
tp457
a(I11
I8
tp458
a(I10
I6
tp459
a(I12
I1
tp460
a(I6
I3
tp461
a(I1
I5
tp462
a(I2
I3
tp463
a(I1
I7
tp464
a(I11
I5
tp465
a(I11
I6
tp466
atp467
Rp468
sg13
((I10
I1
tp469
(I4
I5
tp470
(I5
I0
tp471
(I10
I0
tp472
(I12
I4
tp473
tp474
sg14
I10
sbs(iproblems
RoomID
p475
(dp476
g10
I14
sg11
(I8
I4
tp477
sg13
I6
sg14
I11
sg15
I12
sg16
I5537388114198284799
sb(imulti_robot_problem
MultiRobotState
p478
(dp479
g19
g20
((lp480
(I9
I10
tp481
a(I10
I5
tp482
a(I6
I8
tp483
a(I7
I1
tp484
a(I9
I6
tp485
a(I10
I6
tp486
a(I6
I9
tp487
a(I3
I8
tp488
a(I6
I2
tp489
a(I8
I6
tp490
a(I9
I5
tp491
a(I9
I7
tp492
a(I8
I5
tp493
ag477
atp494
Rp495
sg15
I12
sg29
g20
((lp496
(I3
I5
tp497
a(I7
I3
tp498
a(I10
I1
tp499
a(I11
I8
tp500
a(I11
I2
tp501
a(I6
I0
tp502
a(I0
I7
tp503
a(I2
I0
tp504
a(I0
I10
tp505
a(I3
I6
tp506
a(I4
I2
tp507
a(I0
I8
tp508
a(I11
I6
tp509
a(I7
I9
tp510
atp511
Rp512
sg13
((I6
I3
tp513
(I6
I7
tp514
(I2
I5
tp515
(I2
I8
tp516
(I8
I7
tp517
(I0
I5
tp518
tp519
sg14
I11
sbs(iproblems
RoomID
p520
(dp521
g10
I14
sg11
(I7
I3
tp522
sg13
I6
sg14
I11
sg15
I10
sg16
I7286857133437440962
sb(imulti_robot_problem
MultiRobotState
p523
(dp524
g19
g20
((lp525
g522
a(I5
I4
tp526
a(I7
I6
tp527
a(I8
I7
tp528
a(I6
I6
tp529
a(I1
I6
tp530
a(I9
I4
tp531
a(I4
I2
tp532
a(I6
I4
tp533
a(I9
I6
tp534
a(I6
I5
tp535
a(I5
I3
tp536
a(I7
I4
tp537
a(I4
I9
tp538
a(I8
I1
tp539
a(I7
I8
tp540
a(I3
I10
tp541
a(I6
I3
tp542
a(I1
I8
tp543
a(I3
I4
tp544
a(I2
I4
tp545
a(I8
I4
tp546
atp547
Rp548
sg15
I10
sg29
g20
((lp549
(I0
I0
tp550
a(I4
I6
tp551
a(I2
I9
tp552
a(I4
I5
tp553
a(I3
I1
tp554
a(I2
I1
tp555
a(I2
I3
tp556
a(I0
I10
tp557
a(I0
I4
tp558
a(I5
I1
tp559
a(I7
I9
tp560
a(I5
I2
tp561
a(I7
I2
tp562
a(I9
I7
tp563
atp564
Rp565
sg13
((I0
I2
tp566
(I5
I8
tp567
(I9
I5
tp568
(I5
I10
tp569
(I4
I7
tp570
(I5
I9
tp571
tp572
sg14
I11
sbs(iproblems
RoomID
p573
(dp574
g10
I11
sg11
(I0
I4
tp575
sg13
I5
sg14
I10
sg15
I11
sg16
I8486355351578056966
sb(imulti_robot_problem
MultiRobotState
p576
(dp577
g19
g20
((lp578
(I6
I4
tp579
a(I5
I4
tp580
a(I1
I3
tp581
a(I8
I2
tp582
a(I9
I8
tp583
a(I9
I3
tp584
a(I7
I5
tp585
a(I8
I7
tp586
a(I6
I5
tp587
a(I7
I9
tp588
a(I3
I3
tp589
a(I7
I6
tp590
a(I4
I4
tp591
a(I9
I9
tp592
a(I1
I5
tp593
a(I6
I2
tp594
a(I4
I3
tp595
ag575
a(I5
I3
tp596
a(I2
I4
tp597
atp598
Rp599
sg15
I11
sg29
g20
((lp600
(I4
I7
tp601
a(I2
I6
tp602
a(I10
I4
tp603
a(I9
I2
tp604
a(I8
I3
tp605
a(I7
I7
tp606
a(I5
I6
tp607
a(I10
I1
tp608
a(I8
I6
tp609
a(I0
I8
tp610
a(I4
I1
tp611
atp612
Rp613
sg13
((I4
I0
tp614
(I0
I2
tp615
(I2
I5
tp616
(I10
I7
tp617
(I7
I1
tp618
tp619
sg14
I10
sbs(iproblems
RoomID
p620
(dp621
g10
I12
sg11
(I8
I8
tp622
sg13
I7
sg14
I12
sg15
I12
sg16
I6713787463551035793
sb(imulti_robot_problem
MultiRobotState
p623
(dp624
g19
g20
((lp625
(I5
I9
tp626
a(I8
I2
tp627
a(I4
I10
tp628
a(I6
I6
tp629
a(I5
I6
tp630
a(I7
I7
tp631
a(I7
I5
tp632
a(I0
I5
tp633
a(I8
I7
tp634
a(I1
I0
tp635
a(I5
I8
tp636
a(I2
I7
tp637
a(I5
I10
tp638
a(I6
I8
tp639
a(I5
I11
tp640
ag622
a(I6
I3
tp641
a(I4
I5
tp642
a(I3
I9
tp643
a(I4
I11
tp644
a(I1
I7
tp645
a(I8
I6
tp646
a(I3
I4
tp647
a(I2
I4
tp648
atp649
Rp650
sg15
I12
sg29
g20
((lp651
(I1
I3
tp652
a(I10
I11
tp653
a(I3
I3
tp654
a(I9
I2
tp655
a(I11
I9
tp656
a(I8
I10
tp657
a(I7
I4
tp658
a(I2
I3
tp659
a(I0
I9
tp660
a(I0
I8
tp661
a(I11
I6
tp662
a(I7
I9
tp663
atp664
Rp665
sg13
((I10
I4
tp666
(I11
I5
tp667
(I11
I8
tp668
(I6
I9
tp669
(I3
I6
tp670
(I11
I11
tp671
(I6
I4
tp672
tp673
sg14
I12
sbssg154
S'heavy_roomset'
p674
sbsg154
g156
sg157
(dp675
g432
((lp676
F301.24000000000024
tp677
sg475
((lp678
F314.62999999999965
tp679
sg520
((lp680
F301.9200000000001
tp681
sg573
((lp682
F301.9200000000001
tp683
sg620
((lp684
F333.9000000000001
tp685
ssba.