(lp0
(imeasure_core
ProblemSetSolution
p1
(dp2
S'roomset'
p3
(imeasure_core
RoomSet
p4
(dp5
S'rooms'
p6
(dp7
(iproblems
RoomID
p8
(dp9
S'dusts'
p10
I6
sS'obstacles'
p11
(I0
I4
tp12
sS'robots'
p13
I1
sS'height'
p14
I9
sS'width'
p15
I9
sS'seed'
p16
I1164115433906158532
sb(imulti_robot_problem
MultiRobotState
p17
(dp18
S'obstacle_locations'
p19
c__builtin__
frozenset
p20
((lp21
(I0
I1
tp22
a(I1
I2
tp23
a(I1
I3
tp24
a(I1
I4
tp25
ag12
atp26
Rp27
sg15
I9
sS'dirt_locations'
p28
g20
((lp29
(I6
I4
tp30
a(I1
I8
tp31
a(I1
I6
tp32
a(I1
I0
tp33
a(I8
I5
tp34
a(I3
I5
tp35
atp36
Rp37
sg13
((I4
I5
tp38
tp39
sg14
I9
sbs(iproblems
RoomID
p40
(dp41
g10
I8
sg11
(I6
I5
tp42
sg13
I5
sg14
I8
sg15
I7
sg16
I2175216119781798972
sb(imulti_robot_problem
MultiRobotState
p43
(dp44
g19
g20
((lp45
(I1
I2
tp46
a(I2
I6
tp47
a(I6
I7
tp48
a(I6
I6
tp49
a(I5
I7
tp50
a(I2
I3
tp51
a(I0
I4
tp52
a(I1
I0
tp53
ag42
atp54
Rp55
sg15
I7
sg28
g20
((lp56
(I5
I4
tp57
a(I5
I5
tp58
a(I4
I4
tp59
a(I0
I6
tp60
a(I0
I5
tp61
a(I1
I7
tp62
a(I4
I2
tp63
a(I0
I2
tp64
atp65
Rp66
sg13
((I1
I3
tp67
(I6
I4
tp68
(I3
I7
tp69
(I6
I0
tp70
(I2
I1
tp71
tp72
sg14
I8
sbs(iproblems
RoomID
p73
(dp74
g10
I9
sg11
(I6
I3
tp75
sg13
I4
sg14
I9
sg15
I10
sg16
I7002664860023442459
sb(imulti_robot_problem
MultiRobotState
p76
(dp77
g19
g20
((lp78
(I7
I4
tp79
a(I7
I3
tp80
ag75
a(I6
I5
tp81
a(I9
I7
tp82
atp83
Rp84
sg15
I10
sg28
g20
((lp85
(I0
I0
tp86
a(I6
I8
tp87
a(I2
I8
tp88
a(I5
I7
tp89
a(I2
I6
tp90
a(I4
I2
tp91
a(I5
I1
tp92
a(I8
I6
tp93
a(I8
I4
tp94
atp95
Rp96
sg13
((I7
I5
tp97
(I7
I6
tp98
(I1
I7
tp99
(I1
I6
tp100
tp101
sg14
I9
sbs(iproblems
RoomID
p102
(dp103
g10
I5
sg11
(I0
I4
tp104
sg13
I5
sg14
I7
sg15
I7
sg16
I8711387064946514083
sb(imulti_robot_problem
MultiRobotState
p105
(dp106
g19
g20
((lp107
(I0
I1
tp108
a(I2
I2
tp109
a(I0
I2
tp110
a(I1
I5
tp111
ag104
a(I0
I3
tp112
a(I2
I4
tp113
a(I6
I5
tp114
atp115
Rp116
sg15
I7
sg28
g20
((lp117
(I5
I6
tp118
a(I6
I4
tp119
a(I3
I2
tp120
a(I6
I1
tp121
a(I6
I6
tp122
atp123
Rp124
sg13
((I1
I1
tp125
(I6
I0
tp126
(I5
I0
tp127
(I1
I3
tp128
(I4
I5
tp129
tp130
sg14
I7
sbssS'name'
p131
S'easy_roomset'
p132
sbsg131
S"AnytimeBeam-w2-gf(1.3, 'exp')_with_PowerHeuristic2"
p133
sS'solutions'
p134
(dp135
g8
((lp136
(F0.29964709281921387
I50
tp137
a(F0.44605207443237305
I42
tp138
a(F4.1815519332885742
I40
tp139
a(F5.528372049331665
I34
tp140
a(F6.6908049583435059
I30
tp141
a(F7.730370044708252
I28
tp142
a(F13.363363027572632
I26
tp143
aF39.980000000001382
tp144
sg40
((lp145
(F1.7580749988555908
I5
tp146
aF40.119999999998981
tp147
sg73
((lp148
F40.140000000001237
tp149
sg102
((lp150
(F0.67625093460083008
I4
tp151
aF40.069999999999709
tp152
ssba(imeasure_core
ProblemSetSolution
p153
(dp154
g3
(imeasure_core
RoomSet
p155
(dp156
g6
(dp157
(iproblems
RoomID
p158
(dp159
g10
I6
sg11
(I5
I5
tp160
sg13
I3
sg14
I11
sg15
I11
sg16
I1164115433906158532
sb(imulti_robot_problem
MultiRobotState
p161
(dp162
g19
g20
((lp163
(I5
I4
tp164
a(I1
I3
tp165
a(I4
I3
tp166
a(I4
I8
tp167
a(I3
I0
tp168
a(I8
I0
tp169
a(I3
I2
tp170
a(I0
I7
tp171
a(I2
I1
tp172
a(I3
I9
tp173
a(I0
I5
tp174
a(I1
I4
tp175
a(I3
I7
tp176
a(I2
I5
tp177
a(I5
I3
tp178
a(I8
I3
tp179
a(I3
I1
tp180
ag160
a(I2
I0
tp181
a(I3
I10
tp182
a(I6
I10
tp183
a(I0
I6
tp184
a(I1
I8
tp185
a(I3
I6
tp186
a(I4
I5
tp187
a(I0
I2
tp188
atp189
Rp190
sg15
I11
sg28
g20
((lp191
(I7
I5
tp192
a(I8
I8
tp193
a(I4
I9
tp194
a(I4
I6
tp195
a(I10
I6
tp196
a(I8
I2
tp197
atp198
Rp199
sg13
((I5
I7
tp200
(I2
I10
tp201
(I2
I8
tp202
tp203
sg14
I11
sbs(iproblems
RoomID
p204
(dp205
g10
I8
sg11
(I5
I4
tp206
sg13
I4
sg14
I10
sg15
I9
sg16
I2175216119781798972
sb(imulti_robot_problem
MultiRobotState
p207
(dp208
g19
g20
((lp209
(I6
I6
tp210
a(I2
I8
tp211
a(I0
I7
tp212
a(I6
I2
tp213
a(I1
I6
tp214
a(I2
I5
tp215
a(I5
I5
tp216
a(I8
I1
tp217
a(I7
I6
tp218
a(I6
I3
tp219
a(I2
I2
tp220
a(I8
I6
tp221
a(I6
I4
tp222
ag206
a(I8
I2
tp223
a(I7
I1
tp224
a(I1
I4
tp225
a(I7
I5
tp226
a(I8
I7
tp227
a(I1
I0
tp228
a(I6
I5
tp229
a(I3
I3
tp230
a(I8
I3
tp231
a(I7
I0
tp232
a(I6
I8
tp233
a(I3
I4
tp234
a(I7
I4
tp235
a(I0
I6
tp236
a(I1
I8
tp237
a(I8
I8
tp238
a(I4
I3
tp239
a(I1
I7
tp240
a(I7
I8
tp241
a(I0
I2
tp242
atp243
Rp244
sg15
I9
sg28
g20
((lp245
(I6
I7
tp246
a(I2
I9
tp247
a(I5
I6
tp248
a(I3
I1
tp249
a(I8
I9
tp250
a(I0
I5
tp251
a(I0
I3
tp252
a(I5
I2
tp253
atp254
Rp255
sg13
((I2
I4
tp256
(I8
I5
tp257
(I4
I9
tp258
(I7
I7
tp259
tp260
sg14
I10
sbs(iproblems
RoomID
p261
(dp262
g10
I9
sg11
(I3
I0
tp263
sg13
I3
sg14
I9
sg15
I12
sg16
I4912931603392816429
sb(imulti_robot_problem
MultiRobotState
p264
(dp265
g19
g20
((lp266
(I6
I4
tp267
a(I4
I7
tp268
a(I0
I0
tp269
a(I4
I8
tp270
a(I5
I6
tp271
a(I2
I8
tp272
a(I0
I7
tp273
a(I4
I6
tp274
a(I7
I5
tp275
a(I4
I2
tp276
a(I0
I3
tp277
a(I7
I2
tp278
a(I6
I8
tp279
a(I10
I5
tp280
a(I5
I5
tp281
a(I7
I8
tp282
a(I4
I4
tp283
a(I5
I2
tp284
ag263
a(I8
I8
tp285
a(I5
I8
tp286
a(I1
I7
tp287
a(I4
I5
tp288
a(I8
I6
tp289
a(I5
I3
tp290
a(I4
I1
tp291
atp292
Rp293
sg15
I12
sg28
g20
((lp294
(I7
I3
tp295
a(I7
I1
tp296
a(I8
I1
tp297
a(I6
I3
tp298
a(I11
I8
tp299
a(I8
I7
tp300
a(I3
I7
tp301
a(I2
I5
tp302
a(I3
I4
tp303
atp304
Rp305
sg13
((I9
I1
tp306
(I1
I6
tp307
(I8
I4
tp308
tp309
sg14
I9
sbs(iproblems
RoomID
p310
(dp311
g10
I9
sg11
(I4
I3
tp312
sg13
I4
sg14
I11
sg15
I12
sg16
I7002664860023442459
sb(imulti_robot_problem
MultiRobotState
p313
(dp314
g19
g20
((lp315
(I11
I8
tp316
a(I0
I0
tp317
a(I10
I4
tp318
a(I3
I0
tp319
a(I9
I3
tp320
a(I6
I0
tp321
a(I2
I1
tp322
a(I8
I9
tp323
a(I9
I4
tp324
a(I5
I1
tp325
a(I8
I5
tp326
a(I5
I8
tp327
a(I8
I2
tp328
a(I7
I0
tp329
a(I8
I7
tp330
a(I3
I3
tp331
a(I1
I5
tp332
a(I8
I1
tp333
a(I9
I6
tp334
a(I3
I1
tp335
a(I9
I2
tp336
a(I2
I0
tp337
ag312
a(I2
I2
tp338
a(I9
I5
tp339
a(I5
I2
tp340
a(I2
I4
tp341
atp342
Rp343
sg15
I12
sg28
g20
((lp344
(I0
I1
tp345
a(I10
I8
tp346
a(I2
I8
tp347
a(I3
I10
tp348
a(I10
I6
tp349
a(I6
I2
tp350
a(I3
I7
tp351
a(I7
I8
tp352
a(I7
I9
tp353
atp354
Rp355
sg13
((I9
I7
tp356
(I8
I8
tp357
(I2
I9
tp358
(I1
I7
tp359
tp360
sg14
I11
sbssg131
S'mild_roomset'
p361
sbsg131
g133
sg134
(dp362
g158
((lp363
F40.039999999999054
tp364
sg204
((lp365
F40.040000000000873
tp366
sg261
((lp367
F40.029999999998836
tp368
sg310
((lp369
F40.06000000000131
tp370
ssba(imeasure_core
ProblemSetSolution
p371
(dp372
g3
(imeasure_core
RoomSet
p373
(dp374
g6
(dp375
(iproblems
RoomID
p376
(dp377
g10
I11
sg11
(I7
I9
tp378
sg13
I5
sg14
I12
sg15
I12
sg16
I1164115433906158532
sb(imulti_robot_problem
MultiRobotState
p379
(dp380
g19
g20
((lp381
(I4
I7
tp382
a(I1
I3
tp383
a(I5
I6
tp384
a(I9
I3
tp385
a(I1
I4
tp386
a(I0
I5
tp387
a(I7
I11
tp388
a(I1
I0
tp389
a(I5
I8
tp390
a(I3
I3
tp391
a(I3
I1
tp392
a(I6
I7
tp393
a(I6
I8
tp394
a(I7
I8
tp395
a(I5
I7
tp396
ag378
a(I4
I1
tp397
a(I0
I2
tp398
atp399
Rp400
sg15
I12
sg28
g20
((lp401
(I4
I10
tp402
a(I9
I0
tp403
a(I2
I6
tp404
a(I5
I10
tp405
a(I9
I2
tp406
a(I0
I7
tp407
a(I8
I9
tp408
a(I1
I6
tp409
a(I8
I5
tp410
a(I4
I11
tp411
a(I5
I3
tp412
atp413
Rp414
sg13
((I1
I2
tp415
(I2
I11
tp416
(I2
I0
tp417
(I2
I9
tp418
(I11
I7
tp419
tp420
sg14
I12
sbs(iproblems
RoomID
p421
(dp422
g10
I10
sg11
(I0
I7
tp423
sg13
I7
sg14
I10
sg15
I10
sg16
I8711387064946514083
sb(imulti_robot_problem
MultiRobotState
p424
(dp425
g19
g20
((lp426
(I5
I9
tp427
a(I6
I9
tp428
a(I2
I6
tp429
a(I2
I9
tp430
a(I0
I6
tp431
ag423
a(I1
I5
tp432
a(I8
I8
tp433
a(I0
I5
tp434
a(I4
I3
tp435
a(I0
I4
tp436
a(I0
I3
tp437
a(I9
I7
tp438
a(I0
I2
tp439
a(I7
I9
tp440
atp441
Rp442
sg15
I10
sg28
g20
((lp443
(I9
I0
tp444
a(I3
I3
tp445
a(I7
I1
tp446
a(I8
I1
tp447
a(I9
I8
tp448
a(I4
I4
tp449
a(I9
I9
tp450
a(I3
I6
tp451
a(I1
I7
tp452
a(I8
I6
tp453
atp454
Rp455
sg13
((I1
I1
tp456
(I8
I0
tp457
(I7
I0
tp458
(I2
I5
tp459
(I6
I7
tp460
(I8
I9
tp461
(I5
I8
tp462
tp463
sg14
I10
sbs(iproblems
RoomID
p464
(dp465
g10
I14
sg11
(I0
I3
tp466
sg13
I7
sg14
I12
sg15
I13
sg16
I7002664860023442459
sb(imulti_robot_problem
MultiRobotState
p467
(dp468
g19
g20
((lp469
(I1
I2
tp470
a(I11
I4
tp471
a(I9
I8
tp472
a(I10
I6
tp473
ag466
a(I0
I8
tp474
a(I10
I3
tp475
a(I0
I1
tp476
a(I10
I5
tp477
a(I10
I7
tp478
a(I7
I8
tp479
a(I9
I9
tp480
a(I0
I9
tp481
a(I9
I5
tp482
a(I3
I4
tp483
a(I0
I2
tp484
a(I11
I6
tp485
a(I9
I7
tp486
atp487
Rp488
sg15
I13
sg28
g20
((lp489
(I6
I4
tp490
a(I11
I9
tp491
a(I4
I6
tp492
a(I2
I9
tp493
a(I5
I9
tp494
a(I12
I2
tp495
a(I3
I1
tp496
a(I3
I11
tp497
a(I10
I10
tp498
a(I7
I4
tp499
a(I0
I0
tp500
a(I11
I5
tp501
a(I2
I5
tp502
a(I12
I9
tp503
atp504
Rp505
sg13
((I2
I10
tp506
(I1
I8
tp507
(I8
I10
tp508
(I7
I2
tp509
(I3
I8
tp510
(I6
I2
tp511
(I7
I9
tp512
tp513
sg14
I12
sbs(iproblems
RoomID
p514
(dp515
g10
I14
sg11
(I5
I10
tp516
sg13
I5
sg14
I12
sg15
I10
sg16
I3872982626502034966
sb(imulti_robot_problem
MultiRobotState
p517
(dp518
g19
g20
((lp519
(I5
I9
tp520
a(I6
I9
tp521
a(I5
I7
tp522
a(I3
I2
tp523
ag516
a(I4
I10
tp524
a(I4
I8
tp525
a(I3
I11
tp526
a(I2
I1
tp527
a(I6
I2
tp528
a(I1
I4
tp529
a(I8
I7
tp530
a(I6
I8
tp531
a(I6
I7
tp532
a(I5
I8
tp533
a(I3
I5
tp534
a(I4
I9
tp535
a(I4
I6
tp536
a(I8
I1
tp537
a(I7
I1
tp538
a(I3
I8
tp539
a(I4
I3
tp540
a(I5
I2
tp541
a(I1
I1
tp542
atp543
Rp544
sg15
I10
sg28
g20
((lp545
(I5
I3
tp546
a(I3
I1
tp547
a(I8
I11
tp548
a(I9
I3
tp549
a(I0
I2
tp550
a(I6
I3
tp551
a(I3
I9
tp552
a(I2
I3
tp553
a(I9
I5
tp554
a(I7
I11
tp555
a(I0
I8
tp556
a(I3
I10
tp557
a(I7
I2
tp558
a(I9
I7
tp559
atp560
Rp561
sg13
((I1
I8
tp562
(I2
I9
tp563
(I1
I9
tp564
(I1
I5
tp565
(I6
I5
tp566
tp567
sg14
I12
sbssg131
S'heavy_roomset'
p568
sbsg131
g133
sg134
(dp569
g376
((lp570
F40.389999999999418
tp571
sg421
((lp572
F50.350000000000364
tp573
sg464
((lp574
F44.869999999998981
tp575
sg514
((lp576
F40.590000000000146
tp577
ssba(imeasure_core
ProblemSetSolution
p578
(dp579
g3
(imeasure_core
RoomSet
p580
(dp581
g6
(dp582
S'complexRoom'
p583
(imulti_robot_problem
MultiRobotState
p584
(dp585
g19
g20
((lp586
(I2
I7
tp587
a(I7
I3
tp588
a(I6
I3
tp589
a(I3
I3
tp590
a(I7
I6
tp591
a(I7
I4
tp592
a(I7
I5
tp593
a(I2
I3
tp594
a(I4
I3
tp595
a(I2
I5
tp596
a(I2
I4
tp597
a(I5
I3
tp598
atp599
Rp600
sg15
I11
sg28
g20
((lp601
(I1
I0
tp602
a(I9
I0
tp603
atp604
Rp605
sg13
((I6
I4
tp606
(I1
I6
tp607
tp608
sg14
I8
sbsS'exampleProblem'
p609
(imulti_robot_problem
MultiRobotState
p610
(dp611
g19
g20
((lp612
tp613
Rp614
sg15
I5
sg28
g20
((lp615
(I1
I3
tp616
a(I3
I1
tp617
a(I1
I1
tp618
a(I3
I3
tp619
atp620
Rp621
sg13
((I2
I2
tp622
tp623
sg14
I5
sbsS'linear_test'
p624
(imulti_robot_problem
MultiRobotState
p625
(dp626
g19
g614
sg15
I12
sg28
g20
((lp627
(I11
I0
tp628
a(I1
I0
tp629
a(I9
I0
tp630
atp631
Rp632
sg13
((I3
I0
tp633
(I1
I2
tp634
tp635
sg14
I7
sbsS'obstacle_Far_CloseTest'
p636
(imulti_robot_problem
MultiRobotState
p637
(dp638
g19
g20
((lp639
(I0
I1
tp640
a(I7
I3
tp641
a(I3
I1
tp642
a(I7
I1
tp643
a(I4
I5
tp644
a(I7
I6
tp645
a(I4
I4
tp646
a(I2
I1
tp647
a(I7
I4
tp648
a(I7
I5
tp649
a(I4
I3
tp650
a(I4
I2
tp651
a(I4
I1
tp652
a(I1
I1
tp653
a(I7
I2
tp654
atp655
Rp656
sg15
I12
sg28
g20
((lp657
(I3
I2
tp658
a(I9
I6
tp659
atp660
Rp661
sg13
((I0
I0
tp662
(I6
I6
tp663
tp664
sg14
I7
sbsS'zigzag'
p665
(imulti_robot_problem
MultiRobotState
p666
(dp667
g19
g20
((lp668
(I1
I2
tp669
a(I3
I2
tp670
a(I1
I3
tp671
a(I3
I0
tp672
a(I3
I1
tp673
a(I5
I1
tp674
a(I5
I2
tp675
a(I1
I1
tp676
a(I5
I3
tp677
atp678
Rp679
sg15
I20
sg28
g20
((lp680
(I6
I3
tp681
atp682
Rp683
sg13
((I0
I3
tp684
(I19
I3
tp685
tp686
sg14
I4
sbsS'room1'
p687
(imulti_robot_problem
MultiRobotState
p688
(dp689
g19
g20
((lp690
(I6
I3
tp691
a(I7
I3
tp692
a(I8
I3
tp693
a(I2
I3
tp694
a(I3
I3
tp695
a(I4
I3
tp696
a(I5
I3
tp697
atp698
Rp699
sg15
I9
sg28
g20
((lp700
(I0
I0
tp701
a(I2
I1
tp702
atp703
Rp704
sg13
((I6
I1
tp705
(I6
I5
tp706
tp707
sg14
I6
sbsS'complexRoom2'
p708
(imulti_robot_problem
MultiRobotState
p709
(dp710
g19
g20
((lp711
(I7
I3
tp712
a(I1
I3
tp713
a(I7
I1
tp714
a(I4
I5
tp715
a(I9
I3
tp716
a(I5
I5
tp717
a(I2
I6
tp718
a(I2
I3
tp719
a(I5
I1
tp720
a(I0
I3
tp721
a(I10
I3
tp722
a(I2
I5
tp723
a(I6
I5
tp724
a(I5
I3
tp725
a(I2
I7
tp726
a(I8
I3
tp727
a(I3
I3
tp728
a(I5
I2
tp729
a(I7
I6
tp730
a(I3
I1
tp731
a(I6
I3
tp732
a(I7
I5
tp733
a(I4
I3
tp734
a(I3
I5
tp735
a(I4
I1
tp736
a(I6
I1
tp737
atp738
Rp739
sg15
I11
sg28
g20
((lp740
(I7
I2
tp741
a(I0
I7
tp742
atp743
Rp744
sg13
((I1
I2
tp745
(I3
I6
tp746
tp747
sg14
I8
sbsS'zigzagUpright'
p748
(imulti_robot_problem
MultiRobotState
p749
(dp750
g19
g20
((lp751
(I1
I3
tp752
a(I3
I1
tp753
a(I2
I1
tp754
a(I1
I1
tp755
a(I1
I5
tp756
a(I2
I3
tp757
a(I2
I5
tp758
a(I0
I3
tp759
a(I3
I5
tp760
atp761
Rp762
sg15
I4
sg28
g20
((lp763
(I3
I6
tp764
atp765
Rp766
sg13
((I3
I0
tp767
(I3
I19
tp768
tp769
sg14
I20
sbsS'ivansRevenge'
p770
(imulti_robot_problem
MultiRobotState
p771
(dp772
g19
g614
sg15
I10
sg28
g20
((lp773
(I9
I2
tp774
a(I0
I0
tp775
atp776
Rp777
sg13
((I9
I0
tp778
(I0
I2
tp779
tp780
sg14
I3
sbsS'roomLongWithObstaccle'
p781
(imulti_robot_problem
MultiRobotState
p782
(dp783
g19
g20
((lp784
(I0
I1
tp785
a(I12
I1
tp786
a(I9
I1
tp787
a(I7
I1
tp788
a(I8
I1
tp789
a(I6
I1
tp790
a(I3
I1
tp791
a(I2
I1
tp792
a(I11
I1
tp793
a(I10
I1
tp794
a(I5
I1
tp795
a(I4
I1
tp796
a(I1
I1
tp797
atp798
Rp799
sg15
I15
sg28
g20
((lp800
(I0
I2
tp801
a(I14
I6
tp802
atp803
Rp804
sg13
((I0
I0
tp805
(I0
I6
tp806
tp807
sg14
I7
sbsS'twoRobotsInOpCorners'
p808
(imulti_robot_problem
MultiRobotState
p809
(dp810
g19
g614
sg15
I5
sg28
g20
((lp811
(I0
I0
tp812
a(I4
I4
tp813
atp814
Rp815
sg13
((I3
I0
tp816
(I0
I3
tp817
tp818
sg14
I5
sbsS'split2'
p819
(imulti_robot_problem
MultiRobotState
p820
(dp821
g19
g614
sg15
I10
sg28
g20
((lp822
(I0
I9
tp823
a(I9
I0
tp824
a(I0
I0
tp825
a(I9
I9
tp826
atp827
Rp828
sg13
((I1
I1
tp829
(I8
I1
tp830
(I4
I5
tp831
(I5
I5
tp832
tp833
sg14
I10
sbsS'split3'
p834
(imulti_robot_problem
MultiRobotState
p835
(dp836
g19
g614
sg15
I10
sg28
g20
((lp837
(I0
I9
tp838
a(I9
I0
tp839
a(I0
I0
tp840
a(I9
I9
tp841
atp842
Rp843
sg13
((I1
I1
tp844
(I8
I1
tp845
(I1
I7
tp846
(I7
I7
tp847
tp848
sg14
I10
sbsS'gaintRoom'
p849
(imulti_robot_problem
MultiRobotState
p850
(dp851
g19
g614
sg15
I5
sg28
g20
((lp852
(I4
I0
tp853
a(I4
I4
tp854
a(I0
I4
tp855
atp856
Rp857
sg13
((I0
I0
tp858
tp859
sg14
I5
sbsS'gaintRoomWithWall'
p860
(imulti_robot_problem
MultiRobotState
p861
(dp862
g19
g20
((lp863
(I2
I4
tp864
atp865
Rp866
sg15
I5
sg28
g20
((lp867
(I4
I0
tp868
a(I4
I4
tp869
a(I0
I4
tp870
atp871
Rp872
sg13
((I0
I0
tp873
tp874
sg14
I5
sbsS'split'
p875
(imulti_robot_problem
MultiRobotState
p876
(dp877
g19
g614
sg15
I10
sg28
g20
((lp878
(I0
I9
tp879
a(I9
I0
tp880
a(I0
I0
tp881
a(I9
I9
tp882
atp883
Rp884
sg13
((I4
I4
tp885
(I5
I4
tp886
(I4
I5
tp887
(I5
I5
tp888
tp889
sg14
I10
sbsS'twoRobots'
p890
(imulti_robot_problem
MultiRobotState
p891
(dp892
g19
g614
sg15
I9
sg28
g20
((lp893
(I8
I0
tp894
a(I0
I0
tp895
atp896
Rp897
sg13
((I2
I0
tp898
(I0
I3
tp899
tp900
sg14
I4
sbssg131
S'static_rooms'
p901
sbsg131
g133
sg134
(dp902
g819
((lp903
F40.050000000001091
tp904
sg834
((lp905
F40.18999999999869
tp906
sg583
((lp907
F39.989999999999782
tp908
sg849
((lp909
F39.990000000001601
tp910
sg609
((lp911
F39.989999999999782
tp912
sg624
((lp913
F39.990000000001601
tp914
sg636
((lp915
F39.989999999999782
tp916
sg890
((lp917
F39.989999999999782
tp918
sg860
((lp919
F39.989999999999782
tp920
sg665
((lp921
F40.0
tp922
sg687
((lp923
F39.989999999999782
tp924
sg708
((lp925
F40.0
tp926
sg748
((lp927
F39.989999999999782
tp928
sg770
((lp929
(F0.0037159919738769531
I2
tp930
aF39.989999999999782
tp931
sg781
((lp932
F39.989999999999782
tp933
sg808
((lp934
F39.989999999999782
tp935
sg875
((lp936
F40.340000000000146
tp937
ssba(imeasure_core
ProblemSetSolution
p938
(dp939
g3
g4
sg131
S"AnytimeBeam-w6-gf(1.3, 'exp')_with_PowerHeuristic2"
p940
sg134
(dp941
g8
((lp942
(F0.29522991180419922
I50
tp943
a(F0.44162106513977051
I42
tp944
a(F4.1807630062103271
I40
tp945
a(F5.5197529792785645
I34
tp946
a(F6.6797749996185303
I30
tp947
a(F7.7241029739379883
I28
tp948
a(F13.353532075881958
I26
tp949
aF39.979999999999563
tp950
sg40
((lp951
(F1.7576930522918701
I5
tp952
aF40.049999999999272
tp953
sg73
((lp954
F40.100000000000364
tp955
sg102
((lp956
(F0.67101788520812988
I4
tp957
aF40.110000000000582
tp958
ssba(imeasure_core
ProblemSetSolution
p959
(dp960
g3
g155
sg131
g940
sg134
(dp961
g158
((lp962
F40.049999999999272
tp963
sg204
((lp964
F40.030000000000655
tp965
sg261
((lp966
F40.079999999999927
tp967
sg310
((lp968
F40.109999999998763
tp969
ssba(imeasure_core
ProblemSetSolution
p970
(dp971
g3
g373
sg131
g940
sg134
(dp972
g376
((lp973
F40.130000000001019
tp974
sg421
((lp975
F50.149999999999636
tp976
sg464
((lp977
F44.680000000000291
tp978
sg514
((lp979
F40.539999999999054
tp980
ssba(imeasure_core
ProblemSetSolution
p981
(dp982
g3
g580
sg131
g940
sg134
(dp983
g819
((lp984
F40.1200000000008
tp985
sg834
((lp986
F40.1200000000008
tp987
sg583
((lp988
F39.989999999999782
tp989
sg849
((lp990
F39.989999999999782
tp991
sg609
((lp992
F39.990000000001601
tp993
sg624
((lp994
F39.989999999999782
tp995
sg636
((lp996
F39.989999999999782
tp997
sg890
((lp998
F39.989999999999782
tp999
sg860
((lp1000
F39.989999999999782
tp1001
sg665
((lp1002
F39.989999999999782
tp1003
sg687
((lp1004
F40.0
tp1005
sg708
((lp1006
F39.989999999999782
tp1007
sg748
((lp1008
F39.989999999999782
tp1009
sg770
((lp1010
(F0.0037360191345214844
I2
tp1011
aF40.0
tp1012
sg781
((lp1013
F40.0
tp1014
sg808
((lp1015
F39.979999999999563
tp1016
sg875
((lp1017
F40.319999999999709
tp1018
ssba(imeasure_core
ProblemSetSolution
p1019
(dp1020
g3
g4
sg131
S"AnytimeBeam-w9-gf(1.3, 'exp')_with_PowerHeuristic2"
p1021
sg134
(dp1022
g8
((lp1023
(F0.30323290824890137
I44
tp1024
a(F0.45189309120178223
I42
tp1025
a(F2.997169017791748
I36
tp1026
a(F3.7543630599975586
I34
tp1027
a(F4.9091639518737793
I30
tp1028
a(F5.9452400207519531
I28
tp1029
a(F11.534002065658569
I26
tp1030
aF39.989999999999782
tp1031
sg40
((lp1032
(F1.760857105255127
I5
tp1033
aF40.25
tp1034
sg73
((lp1035
F40.059999999999491
tp1036
sg102
((lp1037
(F0.67393302917480469
I4
tp1038
aF40.030000000000655
tp1039
ssba(imeasure_core
ProblemSetSolution
p1040
(dp1041
g3
g155
sg131
g1021
sg134
(dp1042
g158
((lp1043
F40.020000000000437
tp1044
sg204
((lp1045
F40.059999999999491
tp1046
sg261
((lp1047
F40.090000000000146
tp1048
sg310
((lp1049
F40.059999999999491
tp1050
ssba(imeasure_core
ProblemSetSolution
p1051
(dp1052
g3
g373
sg131
g1021
sg134
(dp1053
g376
((lp1054
F40.840000000000146
tp1055
sg421
((lp1056
F50.300000000001091
tp1057
sg464
((lp1058
F44.869999999998981
tp1059
sg514
((lp1060
F40.540000000000873
tp1061
ssba(imeasure_core
ProblemSetSolution
p1062
(dp1063
g3
g580
sg131
g1021
sg134
(dp1064
g819
((lp1065
F40.010000000000218
tp1066
sg834
((lp1067
F40.109999999998763
tp1068
sg583
((lp1069
F39.979999999999563
tp1070
sg849
((lp1071
F39.990000000001601
tp1072
sg609
((lp1073
F39.989999999999782
tp1074
sg624
((lp1075
F39.989999999999782
tp1076
sg636
((lp1077
F39.989999999999782
tp1078
sg890
((lp1079
F40.0
tp1080
sg860
((lp1081
F39.929999999998472
tp1082
sg665
((lp1083
F40.0
tp1084
sg687
((lp1085
F39.989999999999782
tp1086
sg708
((lp1087
F39.989999999999782
tp1088
sg748
((lp1089
F39.990000000001601
tp1090
sg770
((lp1091
(F0.0037109851837158203
I2
tp1092
aF39.989999999999782
tp1093
sg781
((lp1094
F39.989999999999782
tp1095
sg808
((lp1096
F40.0
tp1097
sg875
((lp1098
F40.25
tp1099
ssba(imeasure_core
ProblemSetSolution
p1100
(dp1101
g3
g4
sg131
S"AnytimeBeam-w12-gf(1.3, 'exp')_with_PowerHeuristic2"
p1102
sg134
(dp1103
g8
((lp1104
(F0.22998213768005371
I44
tp1105
a(F0.37838315963745117
I42
tp1106
a(F2.9489412307739258
I36
tp1107
a(F3.7147281169891357
I34
tp1108
a(F4.8858652114868164
I30
tp1109
a(F5.9412271976470947
I28
tp1110
a(F11.574460029602051
I26
tp1111
aF39.989999999999782
tp1112
sg40
((lp1113
(F1.7704770565032959
I5
tp1114
aF40.380000000001019
tp1115
sg73
((lp1116
F40.030000000000655
tp1117
sg102
((lp1118
(F0.66960000991821289
I4
tp1119
aF40.069999999999709
tp1120
ssba(imeasure_core
ProblemSetSolution
p1121
(dp1122
g3
g155
sg131
g1102
sg134
(dp1123
g158
((lp1124
F40.039999999999054
tp1125
sg204
((lp1126
F40.040000000000873
tp1127
sg261
((lp1128
F40.079999999999927
tp1129
sg310
((lp1130
F40.299999999999272
tp1131
ssba(imeasure_core
ProblemSetSolution
p1132
(dp1133
g3
g373
sg131
g1102
sg134
(dp1134
g376
((lp1135
F40.720000000001164
tp1136
sg421
((lp1137
F50.719999999999345
tp1138
sg464
((lp1139
F45.100000000000364
tp1140
sg514
((lp1141
F40.719999999999345
tp1142
ssba(imeasure_core
ProblemSetSolution
p1143
(dp1144
g3
g580
sg131
g1102
sg134
(dp1145
g819
((lp1146
F40.050000000001091
tp1147
sg834
((lp1148
F40.149999999999636
tp1149
sg583
((lp1150
F39.989999999999782
tp1151
sg849
((lp1152
F39.989999999999782
tp1153
sg609
((lp1154
F39.989999999999782
tp1155
sg624
((lp1156
F39.989999999999782
tp1157
sg636
((lp1158
F39.989999999999782
tp1159
sg890
((lp1160
F40.0
tp1161
sg860
((lp1162
F39.989999999999782
tp1163
sg665
((lp1164
F39.990000000001601
tp1165
sg687
((lp1166
F39.969999999999345
tp1167
sg708
((lp1168
F40.0
tp1169
sg748
((lp1170
F39.989999999999782
tp1171
sg770
((lp1172
(F0.0037639141082763672
I2
tp1173
aF39.989999999999782
tp1174
sg781
((lp1175
F39.989999999999782
tp1176
sg808
((lp1177
F39.989999999999782
tp1178
sg875
((lp1179
F40.360000000000582
tp1180
ssba(imeasure_core
ProblemSetSolution
p1181
(dp1182
g3
g4
sg131
S"AnytimeBeam-w2-gf(1.3, 'exp')_with_LinearHeuristic"
p1183
sg134
(dp1184
g8
((lp1185
(F0.060801982879638672
I28
tp1186
aF40.0
tp1187
sg40
((lp1188
F40.510000000000218
tp1189
sg73
((lp1190
(F6.0756688117980957
I27
tp1191
aF40.069999999999709
tp1192
sg102
((lp1193
(F4.3604030609130859
I10
tp1194
aF40.079999999999927
tp1195
ssba(imeasure_core
ProblemSetSolution
p1196
(dp1197
g3
g155
sg131
g1183
sg134
(dp1198
g158
((lp1199
F40.010000000000218
tp1200
sg204
((lp1201
F40.020000000000437
tp1202
sg261
((lp1203
F40.0
tp1204
sg310
((lp1205
F40.029999999998836
tp1206
ssba(imeasure_core
ProblemSetSolution
p1207
(dp1208
g3
g373
sg131
g1183
sg134
(dp1209
g376
((lp1210
F41.200000000000728
tp1211
sg421
((lp1212
F57.369999999998981
tp1213
sg464
((lp1214
F45.3700000000008
tp1215
sg514
((lp1216
F40.440000000000509
tp1217
ssba(imeasure_core
ProblemSetSolution
p1218
(dp1219
g3
g580
sg131
g1183
sg134
(dp1220
g819
((lp1221
F40.210000000000946
tp1222
sg834
((lp1223
F40.409999999999854
tp1224
sg583
((lp1225
F40.009999999998399
tp1226
sg849
((lp1227
F39.989999999999782
tp1228
sg609
((lp1229
(F0.0062770843505859375
I8
tp1230
aF39.990000000001601
tp1231
sg624
((lp1232
F40.0
tp1233
sg636
((lp1234
F40.0
tp1235
sg890
((lp1236
F39.989999999999782
tp1237
sg860
((lp1238
F39.989999999999782
tp1239
sg665
((lp1240
F39.989999999999782
tp1241
sg687
((lp1242
(F9.3490309715270996
I8
tp1243
a(F25.612413167953491
I7
tp1244
aF40.010000000000218
tp1245
sg708
((lp1246
F39.989999999999782
tp1247
sg748
((lp1248
F40.0
tp1249
sg770
((lp1250
(F0.0052130222320556641
I2
tp1251
aF39.989999999999782
tp1252
sg781
((lp1253
F39.989999999999782
tp1254
sg808
((lp1255
F39.989999999999782
tp1256
sg875
((lp1257
F40.329999999999927
tp1258
ssba(imeasure_core
ProblemSetSolution
p1259
(dp1260
g3
g4
sg131
S"AnytimeBeam-w6-gf(1.3, 'exp')_with_LinearHeuristic"
p1261
sg134
(dp1262
g8
((lp1263
(F0.042482852935791016
I28
tp1264
aF39.979999999999563
tp1265
sg40
((lp1266
F40.559999999999491
tp1267
sg73
((lp1268
(F6.0864689350128174
I27
tp1269
aF40.140000000001237
tp1270
sg102
((lp1271
(F4.3522109985351562
I10
tp1272
aF40.0
tp1273
ssba(imeasure_core
ProblemSetSolution
p1274
(dp1275
g3
g155
sg131
g1261
sg134
(dp1276
g158
((lp1277
F40.020000000000437
tp1278
sg204
((lp1279
F40.029999999998836
tp1280
sg261
((lp1281
F40.010000000000218
tp1282
sg310
((lp1283
F40.190000000000509
tp1284
ssba(imeasure_core
ProblemSetSolution
p1285
(dp1286
g3
g373
sg131
g1261
sg134
(dp1287
g376
((lp1288
F41.059999999999491
tp1289
sg421
((lp1290
F57.329999999999927
tp1291
sg464
((lp1292
F45.010000000000218
tp1293
sg514
((lp1294
F40.449999999998909
tp1295
ssba(imeasure_core
ProblemSetSolution
p1296
(dp1297
g3
g580
sg131
g1261
sg134
(dp1298
g819
((lp1299
F40.239999999999782
tp1300
sg834
((lp1301
F40.319999999999709
tp1302
sg583
((lp1303
F40.0
tp1304
sg849
((lp1305
F39.989999999999782
tp1306
sg609
((lp1307
(F0.0063049793243408203
I8
tp1308
aF39.989999999999782
tp1309
sg624
((lp1310
F40.020000000000437
tp1311
sg636
((lp1312
F39.989999999999782
tp1313
sg890
((lp1314
F39.990000000001601
tp1315
sg860
((lp1316
F39.989999999999782
tp1317
sg665
((lp1318
F39.989999999999782
tp1319
sg687
((lp1320
(F9.3424789905548096
I8
tp1321
a(F25.587895154953003
I7
tp1322
aF40.0
tp1323
sg708
((lp1324
F40.0
tp1325
sg748
((lp1326
F39.990000000001601
tp1327
sg770
((lp1328
(F0.0052330493927001953
I2
tp1329
aF39.989999999999782
tp1330
sg781
((lp1331
F39.989999999999782
tp1332
sg808
((lp1333
F40.0
tp1334
sg875
((lp1335
F40.409999999999854
tp1336
ssba(imeasure_core
ProblemSetSolution
p1337
(dp1338
g3
g4
sg131
S"AnytimeBeam-w9-gf(1.3, 'exp')_with_LinearHeuristic"
p1339
sg134
(dp1340
g8
((lp1341
(F0.035269021987915039
I28
tp1342
a(F37.462808132171631
I26
tp1343
aF39.990000000001601
tp1344
sg40
((lp1345
F40.219999999997526
tp1346
sg73
((lp1347
F40.150000000001455
tp1348
sg102
((lp1349
(F4.6499710083007812
I10
tp1350
aF40.770000000000437
tp1351
ssba(imeasure_core
ProblemSetSolution
p1352
(dp1353
g3
g155
sg131
g1339
sg134
(dp1354
g158
((lp1355
F40.040000000000873
tp1356
sg204
((lp1357
F40.0
tp1358
sg261
((lp1359
F40.0
tp1360
sg310
((lp1361
F40.079999999998108
tp1362
ssba(imeasure_core
ProblemSetSolution
p1363
(dp1364
g3
g373
sg131
g1339
sg134
(dp1365
g376
((lp1366
F40.43999999999869
tp1367
sg421
((lp1368
F40.860000000000582
tp1369
sg464
((lp1370
F50.709999999999127
tp1371
sg514
((lp1372
F40.330000000001746
tp1373
ssba(imeasure_core
ProblemSetSolution
p1374
(dp1375
g3
g580
sg131
g1339
sg134
(dp1376
g819
((lp1377
F40.180000000000291
tp1378
sg834
((lp1379
F40.479999999999563
tp1380
sg583
((lp1381
F40.019999999996799
tp1382
sg849
((lp1383
F39.990000000001601
tp1384
sg609
((lp1385
(F0.0063390731811523438
I8
tp1386
aF39.990000000001601
tp1387
sg624
((lp1388
F40.0
tp1389
sg636
((lp1390
F40.0
tp1391
sg890
((lp1392
F40.0
tp1393
sg860
((lp1394
F39.989999999997963
tp1395
sg665
((lp1396
F40.0
tp1397
sg687
((lp1398
(F9.3254790306091309
I8
tp1399
a(F25.618961095809937
I7
tp1400
aF39.990000000001601
tp1401
sg708
((lp1402
F40.0
tp1403
sg748
((lp1404
F39.989999999997963
tp1405
sg770
((lp1406
(F0.0052640438079833984
I2
tp1407
aF39.990000000001601
tp1408
sg781
((lp1409
F40.0
tp1410
sg808
((lp1411
F39.989999999997963
tp1412
sg875
((lp1413
F40.530000000002474
tp1414
ssba(imeasure_core
ProblemSetSolution
p1415
(dp1416
g3
g4
sg131
S"AnytimeBeam-w12-gf(1.3, 'exp')_with_LinearHeuristic"
p1417
sg134
(dp1418
g8
((lp1419
(F0.026060819625854492
I28
tp1420
a(F37.50543999671936
I26
tp1421
aF39.979999999999563
tp1422
sg40
((lp1423
F40.30000000000291
tp1424
sg73
((lp1425
F40.079999999998108
tp1426
sg102
((lp1427
(F4.6406979560852051
I10
tp1428
aF40.670000000001892
tp1429
ssba(imeasure_core
ProblemSetSolution
p1430
(dp1431
g3
g155
sg131
g1417
sg134
(dp1432
g158
((lp1433
F40.009999999998399
tp1434
sg204
((lp1435
F39.990000000001601
tp1436
sg261
((lp1437
F40.009999999998399
tp1438
sg310
((lp1439
F40.130000000001019
tp1440
ssba(imeasure_core
ProblemSetSolution
p1441
(dp1442
g3
g373
sg131
g1417
sg134
(dp1443
g376
((lp1444
F40.56000000000131
tp1445
sg421
((lp1446
F40.840000000000146
tp1447
sg464
((lp1448
F50.739999999997963
tp1449
sg514
((lp1450
F40.220000000001164
tp1451
ssba(imeasure_core
ProblemSetSolution
p1452
(dp1453
g3
g580
sg131
g1417
sg134
(dp1454
g819
((lp1455
F40.369999999998981
tp1456
sg834
((lp1457
F40.43999999999869
tp1458
sg583
((lp1459
F40.009999999998399
tp1460
sg849
((lp1461
F39.990000000001601
tp1462
sg609
((lp1463
(F0.0063331127166748047
I8
tp1464
aF39.990000000001601
tp1465
sg624
((lp1466
F40.009999999998399
tp1467
sg636
((lp1468
F40.0
tp1469
sg890
((lp1470
F39.990000000001601
tp1471
sg860
((lp1472
F39.989999999997963
tp1473
sg665
((lp1474
F40.0
tp1475
sg687
((lp1476
(F9.3409209251403809
I8
tp1477
a(F25.56756591796875
I7
tp1478
aF40.0
tp1479
sg708
((lp1480
F39.990000000001601
tp1481
sg748
((lp1482
F39.990000000001601
tp1483
sg770
((lp1484
(F0.0052571296691894531
I2
tp1485
aF40.0
tp1486
sg781
((lp1487
F39.989999999997963
tp1488
sg808
((lp1489
F39.990000000001601
tp1490
sg875
((lp1491
F40.610000000000582
tp1492
ssba.