(lp0
(imeasure_core
ProblemSetSolution
p1
(dp2
S'roomset'
p3
(imeasure_core
RoomSet
p4
(dp5
S'rooms'
p6
(dp7
(iproblems
RoomID
p8
(dp9
S'width'
p10
I10
sS'dusts'
p11
I8
sS'seed'
p12
I5594871498841892311
sS'obstacles'
p13
(I5
I7
tp14
sS'robots'
p15
I5
sS'height'
p16
I9
sb(imulti_robot_problem
MultiRobotState
p17
(dp18
S'obstacle_locations'
p19
c__builtin__
frozenset
p20
((lp21
(I4
I7
tp22
ag14
a(I8
I3
tp23
a(I3
I6
tp24
a(I5
I1
tp25
a(I1
I0
tp26
a(I5
I8
tp27
atp28
Rp29
sg10
I10
sS'dirt_locations'
p30
g20
((lp31
(I0
I1
tp32
a(I9
I0
tp33
a(I8
I2
tp34
a(I6
I0
tp35
a(I2
I4
tp36
a(I1
I5
tp37
a(I9
I4
tp38
a(I1
I1
tp39
atp40
Rp41
sg15
((I7
I6
tp42
(I8
I4
tp43
(I5
I4
tp44
(I7
I2
tp45
(I7
I8
tp46
tp47
sg16
I9
sbs(iproblems
RoomID
p48
(dp49
g10
I8
sg11
I6
sg12
I8833747186876682921
sg13
(I4
I4
tp50
sg15
I5
sg16
I7
sb(imulti_robot_problem
MultiRobotState
p51
(dp52
g19
g20
((lp53
g50
a(I3
I4
tp54
a(I3
I3
tp55
a(I3
I5
tp56
a(I2
I2
tp57
atp58
Rp59
sg10
I8
sg30
g20
((lp60
(I6
I4
tp61
a(I5
I4
tp62
a(I1
I3
tp63
a(I5
I1
tp64
a(I0
I3
tp65
a(I5
I3
tp66
atp67
Rp68
sg15
((I2
I1
tp69
(I6
I1
tp70
(I3
I1
tp71
(I5
I0
tp72
(I7
I3
tp73
tp74
sg16
I7
sbs(iproblems
RoomID
p75
(dp76
g10
I10
sg11
I5
sg12
I1662056218554549082
sg13
(I6
I4
tp77
sg15
I2
sg16
I8
sb(imulti_robot_problem
MultiRobotState
p78
(dp79
g19
g20
((lp80
g77
a(I4
I6
tp81
a(I4
I4
tp82
a(I3
I6
tp83
a(I9
I6
tp84
a(I5
I5
tp85
atp86
Rp87
sg10
I10
sg30
g20
((lp88
(I4
I5
tp89
a(I3
I3
tp90
a(I8
I3
tp91
a(I7
I7
tp92
a(I8
I4
tp93
atp94
Rp95
sg15
((I9
I3
tp96
(I2
I0
tp97
tp98
sg16
I8
sbs(iproblems
RoomID
p99
(dp100
g10
I9
sg11
I7
sg12
I365562409358139953
sg13
(I5
I2
tp101
sg15
I5
sg16
I8
sb(imulti_robot_problem
MultiRobotState
p102
(dp103
g19
g20
((lp104
(I6
I4
tp105
a(I5
I5
tp106
a(I2
I1
tp107
a(I3
I7
tp108
a(I2
I5
tp109
ag101
a(I0
I2
tp110
a(I5
I3
tp111
atp112
Rp113
sg10
I9
sg30
g20
((lp114
(I8
I2
tp115
a(I4
I5
tp116
a(I5
I7
tp117
a(I2
I0
tp118
a(I1
I6
tp119
a(I8
I6
tp120
a(I3
I4
tp121
atp122
Rp123
sg15
((I4
I2
tp124
(I8
I3
tp125
(I6
I3
tp126
(I2
I4
tp127
(I6
I7
tp128
tp129
sg16
I8
sbs(iproblems
RoomID
p130
(dp131
g10
I8
sg11
I6
sg12
I1085536589165212248
sg13
(I2
I3
tp132
sg15
I1
sg16
I8
sb(imulti_robot_problem
MultiRobotState
p133
(dp134
g19
g20
((lp135
(I0
I7
tp136
a(I1
I5
tp137
ag132
a(I1
I4
tp138
a(I1
I6
tp139
a(I4
I0
tp140
atp141
Rp142
sg10
I8
sg30
g20
((lp143
(I0
I1
tp144
a(I1
I2
tp145
a(I7
I3
tp146
a(I6
I0
tp147
a(I2
I1
tp148
a(I5
I1
tp149
atp150
Rp151
sg15
((I3
I2
tp152
tp153
sg16
I8
sbssS'name'
p154
S'easy_roomset'
p155
sbsS'name'
p156
S"AnytimeBeam-w20-gf(1.3, 'exp')_with_PowerHeuristic2"
p157
sS'solutions'
p158
(dp159
g8
((lp160
(F2.8100000000013097
I13
tp161
aF40.170000000001892
tp162
sg48
((lp163
(F0.52999999999883585
I4
tp164
aF40.569999999999709
tp165
sg75
((lp166
(F0.029999999998835847
I7
tp167
aF40.0
tp168
sg130
((lp169
(F0.060000000001309672
I32
tp170
a(F0.12000000000261934
I30
tp171
a(F1.0500000000029104
I28
tp172
a(F1.4099999999998545
I27
tp173
a(F1.7900000000008731
I25
tp174
a(F2.1200000000026193
I23
tp175
a(F2.8400000000001455
I21
tp176
a(F3.9099999999998545
I20
tp177
a(F5.3600000000005821
I19
tp178
a(F7.0400000000008731
I17
tp179
a(F8.6599999999998545
I15
tp180
aF40.0
tp181
sg99
((lp182
F40.18999999999869
tp183
ssba(imeasure_core
ProblemSetSolution
p184
(dp185
g3
(imeasure_core
RoomSet
p186
(dp187
S'rooms'
p188
(dp189
(iproblems
RoomID
p190
(dp191
S'width'
p192
I12
sS'dusts'
p193
I8
sS'seed'
p194
I5594871498841892311
sS'obstacles'
p195
(I9
I3
tp196
sS'robots'
p197
I4
sS'height'
p198
I11
sb(imulti_robot_problem
MultiRobotState
p199
(dp200
S'obstacle_locations'
p201
g20
((lp202
(I5
I9
tp203
a(I6
I9
tp204
a(I9
I1
tp205
a(I4
I8
tp206
a(I8
I0
tp207
a(I9
I4
tp208
a(I3
I7
tp209
a(I5
I8
tp210
a(I10
I8
tp211
a(I9
I0
tp212
a(I8
I10
tp213
a(I5
I0
tp214
a(I10
I0
tp215
ag196
a(I11
I9
tp216
a(I6
I0
tp217
a(I4
I2
tp218
a(I7
I9
tp219
a(I7
I0
tp220
a(I6
I8
tp221
a(I9
I2
tp222
a(I5
I7
tp223
a(I9
I9
tp224
a(I2
I0
tp225
a(I0
I9
tp226
a(I10
I2
tp227
atp228
Rp229
sg192
I12
sS'dirt_locations'
p230
g20
((lp231
(I2
I6
tp232
a(I11
I5
tp233
a(I6
I1
tp234
a(I11
I1
tp235
a(I2
I1
tp236
a(I8
I8
tp237
a(I0
I2
tp238
a(I3
I5
tp239
atp240
Rp241
sg197
((I9
I7
tp242
(I10
I5
tp243
(I6
I5
tp244
(I8
I3
tp245
tp246
sg198
I11
sbs(iproblems
RoomID
p247
(dp248
g192
I10
sg193
I6
sg194
I8833747186876682921
sg195
(I9
I4
tp249
sg197
I4
sg198
I9
sb(imulti_robot_problem
MultiRobotState
p250
(dp251
g201
g20
((lp252
(I2
I7
tp253
a(I4
I7
tp254
a(I5
I5
tp255
a(I4
I8
tp256
a(I4
I5
tp257
a(I4
I1
tp258
a(I3
I6
tp259
a(I8
I3
tp260
a(I2
I1
tp261
a(I8
I8
tp262
a(I7
I4
tp263
a(I5
I6
tp264
a(I7
I5
tp265
a(I2
I3
tp266
ag249
a(I2
I5
tp267
a(I3
I4
tp268
a(I1
I1
tp269
a(I6
I5
tp270
a(I3
I5
tp271
atp272
Rp273
sg192
I10
sg230
g20
((lp274
(I3
I2
tp275
a(I7
I0
tp276
a(I0
I7
tp277
a(I6
I2
tp278
a(I1
I4
tp279
a(I0
I4
tp280
atp281
Rp282
sg197
((I3
I1
tp283
(I8
I1
tp284
(I3
I3
tp285
(I4
I2
tp286
tp287
sg198
I9
sbs(iproblems
RoomID
p288
(dp289
g192
I11
sg193
I7
sg194
I365562409358139953
sg195
(I8
I4
tp290
sg197
I4
sg198
I10
sb(imulti_robot_problem
MultiRobotState
p291
(dp292
g201
g20
((lp293
(I5
I9
tp294
a(I7
I3
tp295
a(I2
I8
tp296
a(I6
I2
tp297
a(I1
I6
tp298
a(I9
I4
tp299
a(I10
I8
tp300
a(I6
I7
tp301
a(I10
I7
tp302
a(I7
I6
tp303
a(I4
I8
tp304
a(I8
I6
tp305
a(I9
I7
tp306
a(I6
I4
tp307
a(I7
I5
tp308
a(I0
I5
tp309
a(I8
I7
tp310
a(I9
I6
tp311
a(I6
I5
tp312
a(I10
I5
tp313
a(I6
I1
tp314
a(I3
I1
tp315
a(I3
I8
tp316
a(I5
I2
tp317
ag290
atp318
Rp319
sg192
I11
sg230
g20
((lp320
(I6
I9
tp321
a(I5
I6
tp322
a(I2
I1
tp323
a(I4
I5
tp324
a(I1
I7
tp325
a(I10
I3
tp326
a(I0
I2
tp327
atp328
Rp329
sg197
((I10
I4
tp330
(I7
I4
tp331
(I3
I6
tp332
(I8
I9
tp333
tp334
sg198
I10
sbs(iproblems
RoomID
p335
(dp336
g192
I12
sg193
I8
sg194
I4800841617172907184
sg195
(I4
I6
tp337
sg197
I3
sg198
I9
sb(imulti_robot_problem
MultiRobotState
p338
(dp339
g201
g20
((lp340
(I10
I1
tp341
a(I6
I6
tp342
a(I9
I8
tp343
a(I2
I1
tp344
a(I8
I5
tp345
a(I7
I2
tp346
a(I3
I3
tp347
a(I6
I3
tp348
a(I8
I6
tp349
a(I9
I7
tp350
a(I5
I4
tp351
a(I7
I1
tp352
a(I4
I5
tp353
a(I9
I3
tp354
a(I6
I0
tp355
a(I8
I7
tp356
a(I4
I2
tp357
a(I5
I3
tp358
a(I8
I3
tp359
ag337
a(I11
I8
tp360
a(I3
I1
tp361
a(I11
I3
tp362
a(I0
I6
tp363
a(I4
I3
tp364
a(I8
I4
tp365
atp366
Rp367
sg192
I12
sg230
g20
((lp368
(I11
I4
tp369
a(I8
I2
tp370
a(I10
I7
tp371
a(I7
I6
tp372
a(I1
I4
tp373
a(I11
I0
tp374
a(I9
I2
tp375
a(I0
I2
tp376
atp377
Rp378
sg197
((I9
I1
tp379
(I0
I4
tp380
(I7
I4
tp381
tp382
sg198
I9
sbs(iproblems
RoomID
p383
(dp384
g192
I9
sg193
I10
sg194
I6645345695289302126
sg195
(I4
I8
tp385
sg197
I3
sg198
I11
sb(imulti_robot_problem
MultiRobotState
p386
(dp387
g201
g20
((lp388
(I5
I9
tp389
a(I3
I2
tp390
a(I4
I4
tp391
a(I4
I6
tp392
ag385
a(I4
I5
tp393
a(I3
I4
tp394
a(I6
I1
tp395
a(I3
I1
tp396
a(I1
I4
tp397
a(I1
I1
tp398
a(I3
I8
tp399
a(I1
I5
tp400
a(I8
I4
tp401
a(I4
I3
tp402
a(I3
I7
tp403
a(I4
I2
tp404
a(I3
I5
tp405
a(I4
I1
tp406
a(I2
I4
tp407
a(I3
I3
tp408
atp409
Rp410
sg192
I9
sg230
g20
((lp411
(I0
I1
tp412
a(I5
I4
tp413
a(I6
I7
tp414
a(I8
I2
tp415
a(I3
I6
tp416
a(I8
I8
tp417
a(I2
I3
tp418
a(I8
I7
tp419
a(I1
I0
tp420
a(I5
I5
tp421
atp422
Rp423
sg197
((I1
I6
tp424
(I0
I9
tp425
(I0
I5
tp426
tp427
sg198
I11
sbssS'name'
p428
S'mild_roomset'
p429
sbsg156
g157
sg158
(dp430
g190
((lp431
(F1.1500000000014552
I32
tp432
aF40.05000000000291
tp433
sg247
((lp434
(F1.4399999999986903
I32
tp435
aF40.179999999996653
tp436
sg383
((lp437
(F12.06000000000131
I127
tp438
aF40.0
tp439
sg335
((lp440
(F0.16999999999825377
I17
tp441
aF40.0
tp442
sg288
((lp443
(F0.30000000000291038
I25
tp444
aF40.010000000002037
tp445
ssba(imeasure_core
ProblemSetSolution
p446
(dp447
g3
(imeasure_core
RoomSet
p448
(dp449
S'rooms'
p450
(dp451
(iproblems
RoomID
p452
(dp453
S'width'
p454
I13
sS'dusts'
p455
I13
sS'seed'
p456
I5594871498841892311
sS'obstacles'
p457
(I9
I8
tp458
sS'robots'
p459
I7
sS'height'
p460
I12
sb(imulti_robot_problem
MultiRobotState
p461
(dp462
S'obstacle_locations'
p463
g20
((lp464
(I5
I9
tp465
a(I6
I9
tp466
a(I1
I3
tp467
a(I6
I7
tp468
a(I10
I4
tp469
a(I4
I8
tp470
ag458
a(I6
I10
tp471
a(I11
I3
tp472
a(I1
I4
tp473
a(I8
I10
tp474
a(I9
I7
tp475
a(I5
I0
tp476
a(I9
I5
tp477
a(I8
I6
tp478
a(I7
I9
tp479
a(I9
I6
tp480
a(I10
I0
tp481
a(I6
I8
tp482
a(I5
I5
tp483
atp484
Rp485
sg454
I13
sS'dirt_locations'
p486
g20
((lp487
(I2
I7
tp488
a(I10
I5
tp489
a(I11
I5
tp490
a(I6
I1
tp491
a(I8
I0
tp492
a(I2
I1
tp493
a(I2
I0
tp494
a(I0
I10
tp495
a(I7
I10
tp496
a(I12
I10
tp497
a(I5
I2
tp498
a(I0
I2
tp499
a(I3
I5
tp500
atp501
Rp502
sg459
((I10
I8
tp503
(I11
I6
tp504
(I7
I5
tp505
(I9
I3
tp506
(I9
I11
tp507
(I12
I1
tp508
(I9
I9
tp509
tp510
sg460
I12
sbs(iproblems
RoomID
p511
(dp512
g454
I11
sg455
I11
sg456
I8833747186876682921
sg457
(I8
I7
tp513
sg459
I7
sg460
I10
sb(imulti_robot_problem
MultiRobotState
p514
(dp515
g463
g20
((lp516
(I4
I4
tp517
a(I6
I7
tp518
a(I5
I5
tp519
a(I4
I8
tp520
a(I4
I5
tp521
a(I5
I7
tp522
a(I2
I1
tp523
a(I6
I3
tp524
a(I8
I1
tp525
a(I8
I8
tp526
a(I3
I3
tp527
ag513
a(I5
I1
tp528
a(I10
I2
tp529
a(I7
I8
tp530
a(I4
I6
tp531
atp532
Rp533
sg454
I11
sg486
g20
((lp534
(I10
I5
tp535
a(I7
I6
tp536
a(I4
I7
tp537
a(I1
I4
tp538
a(I9
I9
tp539
a(I3
I8
tp540
a(I0
I5
tp541
a(I8
I6
tp542
a(I2
I5
tp543
a(I0
I8
tp544
a(I7
I2
tp545
atp546
Rp547
sg459
((I3
I1
tp548
(I9
I1
tp549
(I5
I2
tp550
(I4
I3
tp551
(I8
I0
tp552
(I10
I4
tp553
(I8
I5
tp554
tp555
sg460
I10
sbs(iproblems
RoomID
p556
(dp557
g454
I10
sg455
I13
sg456
I5338040351619750409
sg457
(I3
I8
tp558
sg459
I5
sg460
I10
sb(imulti_robot_problem
MultiRobotState
p559
(dp560
g463
g20
((lp561
(I4
I7
tp562
a(I2
I6
tp563
a(I9
I1
tp564
a(I2
I8
tp565
a(I6
I1
tp566
a(I1
I4
tp567
ag558
a(I1
I6
tp568
a(I4
I3
tp569
a(I1
I7
tp570
a(I2
I5
tp571
a(I6
I8
tp572
a(I2
I4
tp573
a(I9
I7
tp574
atp575
Rp576
sg454
I10
sg486
g20
((lp577
(I8
I3
tp578
a(I1
I3
tp579
a(I4
I9
tp580
a(I4
I6
tp581
a(I6
I6
tp582
a(I6
I9
tp583
a(I2
I1
tp584
a(I8
I9
tp585
a(I1
I8
tp586
a(I7
I5
tp587
a(I3
I6
tp588
a(I9
I6
tp589
a(I4
I0
tp590
atp591
Rp592
sg459
((I2
I0
tp593
(I3
I5
tp594
(I5
I0
tp595
(I5
I2
tp596
(I4
I5
tp597
tp598
sg460
I10
sbs(iproblems
RoomID
p599
(dp600
g454
I11
sg455
I11
sg456
I1085536589165212248
sg457
(I4
I6
tp601
sg459
I5
sg460
I11
sb(imulti_robot_problem
MultiRobotState
p602
(dp603
g463
g20
((lp604
(I10
I5
tp605
a(I2
I6
tp606
a(I3
I2
tp607
ag601
a(I9
I3
tp608
a(I9
I9
tp609
a(I1
I8
tp610
a(I1
I9
tp611
a(I1
I7
tp612
a(I3
I7
tp613
a(I6
I9
tp614
a(I5
I8
tp615
a(I3
I3
tp616
atp617
Rp618
sg454
I11
sg486
g20
((lp619
(I0
I1
tp620
a(I4
I9
tp621
a(I10
I4
tp622
a(I10
I7
tp623
a(I6
I0
tp624
a(I0
I7
tp625
a(I2
I3
tp626
a(I1
I4
tp627
a(I2
I2
tp628
a(I10
I0
tp629
a(I0
I10
tp630
atp631
Rp632
sg459
((I5
I3
tp633
(I0
I2
tp634
(I3
I1
tp635
(I7
I1
tp636
(I9
I0
tp637
tp638
sg460
I11
sbs(iproblems
RoomID
p639
(dp640
g454
I12
sg455
I12
sg456
I365562409358139953
sg457
(I0
I5
tp641
sg459
I7
sg460
I11
sb(imulti_robot_problem
MultiRobotState
p642
(dp643
g463
g20
((lp644
(I8
I6
tp645
a(I1
I3
tp646
a(I2
I9
tp647
a(I6
I6
tp648
a(I10
I7
tp649
a(I5
I2
tp650
a(I7
I6
tp651
a(I3
I1
tp652
a(I2
I2
tp653
a(I4
I8
tp654
a(I7
I5
tp655
ag641
a(I8
I7
tp656
a(I0
I4
tp657
a(I4
I2
tp658
a(I3
I9
tp659
a(I7
I8
tp660
a(I11
I6
tp661
a(I8
I4
tp662
atp663
Rp664
sg454
I12
sg486
g20
((lp665
(I3
I2
tp666
a(I5
I7
tp667
a(I4
I9
tp668
a(I10
I4
tp669
a(I11
I9
tp670
a(I2
I1
tp671
a(I0
I6
tp672
a(I1
I6
tp673
a(I5
I10
tp674
a(I7
I10
tp675
a(I3
I7
tp676
a(I0
I2
tp677
atp678
Rp679
sg459
((I6
I3
tp680
(I10
I5
tp681
(I3
I6
tp682
(I8
I10
tp683
(I4
I6
tp684
(I11
I3
tp685
(I1
I8
tp686
tp687
sg460
I11
sbssS'name'
p688
S'heavy_roomset'
p689
sbsg156
g157
sg158
(dp690
g452
((lp691
F40.010000000002037
tp692
sg511
((lp693
(F22.5
I19
tp694
aF40.860000000000582
tp695
sg639
((lp696
F40.129999999997381
tp697
sg599
((lp698
(F2.0400000000008731
I15
tp699
aF40.06000000000131
tp700
sg556
((lp701
(F2.4899999999979627
I16
tp702
aF40.169999999998254
tp703
ssba(imeasure_core
ProblemSetSolution
p704
(dp705
g3
g4
sg156
S"AnytimeBeam-w20-gf(1.5, 'exp')_with_PowerHeuristic2"
p706
sg158
(dp707
g8
((lp708
(F2.819999999999709
I13
tp709
aF40.31000000000131
tp710
sg48
((lp711
(F0.53999999999723514
I4
tp712
aF40.359999999996944
tp713
sg75
((lp714
(F0.030000000002473826
I7
tp715
aF40.0
tp716
sg130
((lp717
(F0.059999999997671694
I32
tp718
a(F0.11999999999898137
I30
tp719
a(F0.59999999999854481
I28
tp720
a(F0.95999999999912689
I27
tp721
a(F1.3400000000001455
I25
tp722
a(F1.6699999999982538
I23
tp723
a(F2.3899999999994179
I21
tp724
a(F3.4699999999975262
I20
tp725
a(F4.8999999999978172
I19
tp726
a(F6.5799999999981083
I17
tp727
a(F8.2099999999991269
I15
tp728
aF40.0
tp729
sg99
((lp730
F40.350000000002183
tp731
ssba(imeasure_core
ProblemSetSolution
p732
(dp733
g3
g186
sg156
g706
sg158
(dp734
g190
((lp735
(F1.1399999999994179
I32
tp736
aF40.370000000002619
tp737
sg247
((lp738
(F1.4399999999986903
I32
tp739
aF40.359999999996944
tp740
sg383
((lp741
(F8.5999999999985448
I127
tp742
aF40.0
tp743
sg335
((lp744
(F0.17000000000189175
I17
tp745
aF40.010000000002037
tp746
sg288
((lp747
(F0.30000000000291038
I25
tp748
aF40.020000000000437
tp749
ssba(imeasure_core
ProblemSetSolution
p750
(dp751
g3
g448
sg156
g706
sg158
(dp752
g452
((lp753
F40.219999999997526
tp754
sg511
((lp755
(F22.650000000001455
I19
tp756
aF40.159999999999854
tp757
sg639
((lp758
F40.159999999999854
tp759
sg599
((lp760
(F2.0600000000013097
I15
tp761
aF40.880000000001019
tp762
sg556
((lp763
(F2.4900000000016007
I16
tp764
aF40.080000000001746
tp765
ssba(imeasure_core
ProblemSetSolution
p766
(dp767
g3
g4
sg156
S"AnytimeBeam-w20-gf(1.7, 'exp')_with_PowerHeuristic2"
p768
sg158
(dp769
g8
((lp770
(F2.819999999999709
I13
tp771
aF40.090000000000146
tp772
sg48
((lp773
(F0.54000000000087311
I4
tp774
aF40.420000000001892
tp775
sg75
((lp776
(F0.029999999998835847
I7
tp777
aF40.0
tp778
sg130
((lp779
(F0.049999999999272404
I32
tp780
a(F0.11999999999898137
I30
tp781
a(F0.65999999999985448
I28
tp782
a(F1.0200000000004366
I27
tp783
a(F1.4000000000014552
I25
tp784
a(F1.7299999999995634
I23
tp785
a(F2.4500000000007276
I21
tp786
a(F3.5300000000024738
I20
tp787
a(F4.9599999999991269
I19
tp788
a(F6.6399999999994179
I17
tp789
a(F8.2700000000004366
I15
tp790
aF40.0
tp791
sg99
((lp792
F40.309999999997672
tp793
ssba(imeasure_core
ProblemSetSolution
p794
(dp795
g3
g186
sg156
g768
sg158
(dp796
g190
((lp797
(F1.1399999999994179
I32
tp798
aF40.610000000000582
tp799
sg247
((lp800
(F1.4399999999986903
I32
tp801
aF40.430000000000291
tp802
sg383
((lp803
(F9.2400000000016007
I127
tp804
aF40.0
tp805
sg335
((lp806
(F0.17000000000189175
I17
tp807
aF40.069999999999709
tp808
sg288
((lp809
(F0.31000000000130967
I25
tp810
aF40.069999999999709
tp811
ssba(imeasure_core
ProblemSetSolution
p812
(dp813
g3
g448
sg156
g768
sg158
(dp814
g452
((lp815
F40.129999999997381
tp816
sg511
((lp817
(F22.690000000002328
I19
tp818
aF40.610000000000582
tp819
sg639
((lp820
F40.18999999999869
tp821
sg599
((lp822
(F2.0499999999992724
I15
tp823
aF40.110000000000582
tp824
sg556
((lp825
(F2.5200000000004366
I16
tp826
aF40.290000000000873
tp827
ssba(imeasure_core
ProblemSetSolution
p828
(dp829
g3
g4
sg156
S"AnytimeBeam-w20-gf(1.8999999999999999, 'exp')_with_PowerHeuristic2"
p830
sg158
(dp831
g8
((lp832
(F2.8299999999981083
I13
tp833
aF40.389999999999418
tp834
sg48
((lp835
(F0.53999999999723514
I4
tp836
aF41.119999999998981
tp837
sg75
((lp838
(F0.029999999998835847
I7
tp839
aF40.009999999998399
tp840
sg130
((lp841
(F0.059999999997671694
I32
tp842
a(F0.12999999999738066
I30
tp843
a(F0.40999999999985448
I28
tp844
a(F0.75999999999839929
I27
tp845
a(F1.1399999999994179
I25
tp846
a(F1.4699999999975262
I23
tp847
a(F2.1899999999986903
I21
tp848
a(F3.2799999999988358
I20
tp849
a(F4.7099999999991269
I19
tp850
a(F6.3899999999994179
I17
tp851
a(F8.0200000000004366
I15
tp852
aF40.0
tp853
sg99
((lp854
F40.530000000002474
tp855
ssba(imeasure_core
ProblemSetSolution
p856
(dp857
g3
g186
sg156
g830
sg158
(dp858
g190
((lp859
(F1.1399999999994179
I32
tp860
aF40.430000000000291
tp861
sg247
((lp862
(F1.4399999999986903
I32
tp863
aF40.219999999997526
tp864
sg383
((lp865
(F9.819999999999709
I127
tp866
a(F35.639999999999418
I102
tp867
aF40.0
tp868
sg335
((lp869
(F0.15999999999985448
I17
tp870
aF40.05000000000291
tp871
sg288
((lp872
(F0.30000000000291038
I25
tp873
aF40.0
tp874
ssba(imeasure_core
ProblemSetSolution
p875
(dp876
g3
g448
sg156
g830
sg158
(dp877
g452
((lp878
F40.159999999999854
tp879
sg511
((lp880
(F22.509999999998399
I19
tp881
aF40.269999999996799
tp882
sg639
((lp883
F40.029999999998836
tp884
sg599
((lp885
(F2.0499999999992724
I15
tp886
aF40.470000000001164
tp887
sg556
((lp888
(F2.4800000000032014
I16
tp889
aF40.220000000001164
tp890
ssba(imeasure_core
ProblemSetSolution
p891
(dp892
g3
g4
sg156
S"AnytimeBeam-w20-gf(1.3, 'exp')_with_LinearHeuristic"
p893
sg158
(dp894
g8
((lp895
F40.389999999999418
tp896
sg48
((lp897
(F0.93000000000029104
I4
tp898
aF40.479999999999563
tp899
sg75
((lp900
(F0.029999999998835847
I7
tp901
aF40.009999999998399
tp902
sg130
((lp903
(F0.0099999999983992893
I15
tp904
aF40.0
tp905
sg99
((lp906
(F2.75
I17
tp907
aF40.080000000001746
tp908
ssba(imeasure_core
ProblemSetSolution
p909
(dp910
g3
g186
sg156
g893
sg158
(dp911
g190
((lp912
F40.149999999997817
tp913
sg247
((lp914
(F35.350000000002183
I229
tp915
aF40.069999999999709
tp916
sg383
((lp917
F40.180000000000291
tp918
sg335
((lp919
F40.020000000000437
tp920
sg288
((lp921
F40.190000000002328
tp922
ssba(imeasure_core
ProblemSetSolution
p923
(dp924
g3
g448
sg156
g893
sg158
(dp925
g452
((lp926
F43.489999999997963
tp927
sg511
((lp928
F40.150000000001455
tp929
sg639
((lp930
F41.319999999999709
tp931
sg599
((lp932
F40.039999999997235
tp933
sg556
((lp934
F40.200000000000728
tp935
ssba(imeasure_core
ProblemSetSolution
p936
(dp937
g3
g4
sg156
S"AnytimeBeam-w20-gf(1.5, 'exp')_with_LinearHeuristic"
p938
sg158
(dp939
g8
((lp940
F40.299999999999272
tp941
sg48
((lp942
(F0.93000000000029104
I4
tp943
aF40.110000000000582
tp944
sg75
((lp945
(F0.040000000000873115
I7
tp946
aF40.009999999998399
tp947
sg130
((lp948
(F0.0099999999983992893
I15
tp949
aF40.0
tp950
sg99
((lp951
(F2.7600000000020373
I17
tp952
aF40.06000000000131
tp953
ssba(imeasure_core
ProblemSetSolution
p954
(dp955
g3
g186
sg156
g938
sg158
(dp956
g190
((lp957
F40.009999999998399
tp958
sg247
((lp959
(F35.430000000000291
I229
tp960
aF40.0
tp961
sg383
((lp962
F40.169999999998254
tp963
sg335
((lp964
F40.020000000000437
tp965
sg288
((lp966
F40.030000000002474
tp967
ssba(imeasure_core
ProblemSetSolution
p968
(dp969
g3
g448
sg156
g938
sg158
(dp970
g452
((lp971
F43.5
tp972
sg511
((lp973
F40.130000000001019
tp974
sg639
((lp975
F41.330000000001746
tp976
sg599
((lp977
F40.009999999998399
tp978
sg556
((lp979
F40.0
tp980
ssba(imeasure_core
ProblemSetSolution
p981
(dp982
g3
g4
sg156
S"AnytimeBeam-w20-gf(1.7, 'exp')_with_LinearHeuristic"
p983
sg158
(dp984
g8
((lp985
F40.610000000000582
tp986
sg48
((lp987
(F0.93000000000029104
I4
tp988
aF40.399999999997817
tp989
sg75
((lp990
(F0.040000000000873115
I7
tp991
aF40.010000000002037
tp992
sg130
((lp993
(F0.010000000002037268
I15
tp994
aF40.0
tp995
sg99
((lp996
(F2.7399999999979627
I17
tp997
aF40.419999999998254
tp998
ssba(imeasure_core
ProblemSetSolution
p999
(dp1000
g3
g186
sg156
g983
sg158
(dp1001
g190
((lp1002
F40.010000000002037
tp1003
sg247
((lp1004
(F35.309999999997672
I229
tp1005
aF40.029999999998836
tp1006
sg383
((lp1007
F40.110000000000582
tp1008
sg335
((lp1009
F40.139999999999418
tp1010
sg288
((lp1011
F40.090000000000146
tp1012
ssba(imeasure_core
ProblemSetSolution
p1013
(dp1014
g3
g448
sg156
g983
sg158
(dp1015
g452
((lp1016
F43.290000000000873
tp1017
sg511
((lp1018
F40.130000000001019
tp1019
sg639
((lp1020
F41.170000000001892
tp1021
sg599
((lp1022
F40.059999999997672
tp1023
sg556
((lp1024
F40.180000000000291
tp1025
ssba(imeasure_core
ProblemSetSolution
p1026
(dp1027
g3
g4
sg156
S"AnytimeBeam-w20-gf(1.8999999999999999, 'exp')_with_LinearHeuristic"
p1028
sg158
(dp1029
g8
((lp1030
F40.430000000000291
tp1031
sg48
((lp1032
(F0.93000000000029104
I4
tp1033
aF40.43999999999869
tp1034
sg75
((lp1035
(F0.040000000000873115
I7
tp1036
aF40.0
tp1037
sg130
((lp1038
(F0.010000000002037268
I15
tp1039
aF40.0
tp1040
sg99
((lp1041
(F2.7299999999995634
I17
tp1042
aF40.529999999998836
tp1043
ssba(imeasure_core
ProblemSetSolution
p1044
(dp1045
g3
g186
sg156
g1028
sg158
(dp1046
g190
((lp1047
F40.080000000001746
tp1048
sg247
((lp1049
(F35.610000000000582
I229
tp1050
aF40.0
tp1051
sg383
((lp1052
F40.069999999999709
tp1053
sg335
((lp1054
F40.139999999999418
tp1055
sg288
((lp1056
F40.159999999999854
tp1057
ssba(imeasure_core
ProblemSetSolution
p1058
(dp1059
g3
g448
sg156
g1028
sg158
(dp1060
g452
((lp1061
F43.680000000000291
tp1062
sg511
((lp1063
F40.149999999997817
tp1064
sg639
((lp1065
F40.299999999999272
tp1066
sg599
((lp1067
F40.009999999998399
tp1068
sg556
((lp1069
F40.330000000001746
tp1070
ssba.