(lp0
(imeasure_core
ProblemSetSolution
p1
(dp2
S'roomset'
p3
(imeasure_core
RoomSet
p4
(dp5
S'rooms'
p6
(dp7
(iproblems
RoomID
p8
(dp9
S'width'
p10
I9
sS'dusts'
p11
I8
sS'seed'
p12
I1689441204489037471
sS'obstacles'
p13
(I0
I4
tp14
sS'robots'
p15
I4
sS'height'
p16
I7
sb(imulti_robot_problem
MultiRobotState
p17
(dp18
S'obstacle_locations'
p19
c__builtin__
frozenset
p20
((lp21
(I0
I1
tp22
a(I1
I2
tp23
a(I3
I2
tp24
a(I8
I1
tp25
a(I4
I3
tp26
ag14
a(I0
I3
tp27
a(I4
I0
tp28
atp29
Rp30
sg10
I9
sS'dirt_locations'
p31
g20
((lp32
(I0
I0
tp33
a(I7
I0
tp34
a(I7
I6
tp35
a(I1
I4
tp36
a(I6
I2
tp37
a(I2
I3
tp38
a(I5
I1
tp39
a(I3
I5
tp40
atp41
Rp42
sg15
((I6
I0
tp43
(I5
I4
tp44
(I6
I6
tp45
(I5
I0
tp46
tp47
sg16
I7
sbs(iproblems
RoomID
p48
(dp49
g10
I10
sg11
I10
sg12
I6660334802794327005
sg13
(I4
I5
tp50
sg15
I3
sg16
I8
sb(imulti_robot_problem
MultiRobotState
p51
(dp52
g19
g20
((lp53
(I9
I0
tp54
a(I2
I6
tp55
ag50
a(I1
I6
tp56
a(I3
I6
tp57
a(I8
I4
tp58
atp59
Rp60
sg10
I10
sg31
g20
((lp61
(I9
I1
tp62
a(I5
I6
tp63
a(I4
I1
tp64
a(I1
I5
tp65
a(I7
I5
tp66
a(I9
I4
tp67
a(I1
I7
tp68
a(I9
I6
tp69
a(I7
I2
tp70
a(I8
I2
tp71
atp72
Rp73
sg15
((I7
I3
tp74
(I4
I7
tp75
(I4
I2
tp76
tp77
sg16
I8
sbs(iproblems
RoomID
p78
(dp79
g10
I7
sg11
I6
sg12
I3914746131789064238
sg13
(I3
I0
tp80
sg15
I4
sg16
I10
sb(imulti_robot_problem
MultiRobotState
p81
(dp82
g19
g20
((lp83
g80
a(I6
I1
tp84
a(I2
I3
tp85
a(I5
I0
tp86
a(I2
I2
tp87
a(I0
I3
tp88
a(I0
I8
tp89
a(I4
I1
tp90
a(I3
I5
tp91
atp92
Rp93
sg10
I7
sg31
g20
((lp94
(I3
I3
tp95
a(I1
I7
tp96
a(I0
I7
tp97
a(I0
I4
tp98
a(I3
I4
tp99
a(I6
I5
tp100
atp101
Rp102
sg15
((I1
I8
tp103
(I5
I1
tp104
(I5
I3
tp105
(I1
I9
tp106
tp107
sg16
I10
sbs(iproblems
RoomID
p108
(dp109
g10
I9
sg11
I6
sg12
I3119042104763040036
sg13
(I8
I4
tp110
sg15
I4
sg16
I10
sb(imulti_robot_problem
MultiRobotState
p111
(dp112
g19
g20
((lp113
(I1
I2
tp114
a(I6
I7
tp115
a(I4
I8
tp116
a(I7
I6
tp117
a(I8
I5
tp118
ag110
atp119
Rp120
sg10
I9
sg31
g20
((lp121
(I6
I8
tp122
a(I6
I6
tp123
a(I3
I0
tp124
a(I6
I5
tp125
a(I8
I7
tp126
a(I7
I2
tp127
atp128
Rp129
sg15
((I5
I9
tp130
(I6
I1
tp131
(I3
I4
tp132
(I2
I7
tp133
tp134
sg16
I10
sbs(iproblems
RoomID
p135
(dp136
g10
I9
sg11
I7
sg12
I4640892725076559864
sg13
(I2
I5
tp137
sg15
I5
sg16
I9
sb(imulti_robot_problem
MultiRobotState
p138
(dp139
g19
g20
((lp140
(I2
I6
tp141
a(I6
I7
tp142
a(I1
I5
tp143
a(I3
I1
tp144
a(I0
I6
tp145
a(I1
I6
tp146
a(I0
I4
tp147
ag137
a(I3
I4
tp148
atp149
Rp150
sg10
I9
sg31
g20
((lp151
(I7
I3
tp152
a(I7
I1
tp153
a(I8
I1
tp154
a(I3
I8
tp155
a(I4
I2
tp156
a(I8
I6
tp157
a(I5
I3
tp158
atp159
Rp160
sg15
((I6
I5
tp161
(I8
I4
tp162
(I7
I6
tp163
(I6
I0
tp164
(I6
I3
tp165
tp166
sg16
I9
sbssS'name'
p167
S'easy_roomset'
p168
sbsS'name'
p169
S'LimitedTimeAStar_with_PowerHeuristic2'
p170
sS'solutions'
p171
(dp172
g8
((lp173
(F0.32999999999992724
I8
tp174
aF0.32999999999992724
tp175
sg48
((lp176
(F0.96000000000003638
I17
tp177
aF0.96000000000003638
tp178
sg78
((lp179
(F0.18000000000029104
I7
tp180
aF0.19000000000005457
tp181
sg108
((lp182
(F3.2699999999999818
I10
tp183
aF3.3099999999999454
tp184
sg135
((lp185
(F1.2300000000000182
I6
tp186
aF1.25
tp187
ssba(imeasure_core
ProblemSetSolution
p188
(dp189
g3
(imeasure_core
RoomSet
p190
(dp191
S'rooms'
p192
(dp193
(iproblems
RoomID
p194
(dp195
S'width'
p196
I11
sS'dusts'
p197
I6
sS'seed'
p198
I3119042104763040036
sS'obstacles'
p199
(I5
I5
tp200
sS'robots'
p201
I4
sS'height'
p202
I12
sb(imulti_robot_problem
MultiRobotState
p203
(dp204
S'obstacle_locations'
p205
g20
((lp206
(I3
I0
tp207
a(I9
I8
tp208
a(I10
I6
tp209
a(I2
I1
tp210
a(I8
I9
tp211
a(I0
I10
tp212
a(I10
I3
tp213
ag200
a(I10
I7
tp214
a(I4
I4
tp215
a(I2
I2
tp216
a(I7
I9
tp217
a(I1
I1
tp218
a(I10
I4
tp219
a(I4
I5
tp220
a(I2
I3
tp221
a(I3
I3
tp222
a(I4
I6
tp223
a(I9
I2
tp224
a(I3
I4
tp225
a(I9
I5
tp226
a(I7
I8
tp227
a(I2
I4
tp228
atp229
Rp230
sg196
I11
sS'dirt_locations'
p231
g20
((lp232
(I8
I3
tp233
a(I5
I10
tp234
a(I8
I8
tp235
a(I9
I4
tp236
a(I8
I6
tp237
a(I10
I9
tp238
atp239
Rp240
sg201
((I6
I11
tp241
(I7
I2
tp242
(I2
I8
tp243
(I8
I10
tp244
tp245
sg202
I12
sbs(iproblems
RoomID
p246
(dp247
g196
I9
sg197
I6
sg198
I3914746131789064238
sg199
(I4
I8
tp248
sg201
I4
sg202
I12
sb(imulti_robot_problem
MultiRobotState
p249
(dp250
g205
g20
((lp251
(I5
I7
tp252
a(I6
I6
tp253
a(I0
I10
tp254
a(I0
I3
tp255
a(I8
I5
tp256
a(I4
I0
tp257
a(I6
I7
tp258
a(I3
I3
tp259
a(I8
I1
tp260
a(I7
I6
tp261
ag248
a(I5
I0
tp262
a(I2
I2
tp263
a(I8
I6
tp264
a(I4
I5
tp265
a(I0
I5
tp266
a(I8
I7
tp267
a(I5
I3
tp268
a(I7
I0
tp269
a(I4
I6
tp270
a(I6
I1
tp271
a(I3
I1
tp272
a(I0
I9
tp273
a(I2
I3
tp274
atp275
Rp276
sg196
I9
sg231
g20
((lp277
(I4
I4
tp278
a(I2
I11
tp279
a(I2
I10
tp280
a(I1
I8
tp281
a(I1
I9
tp282
a(I4
I3
tp283
atp284
Rp285
sg201
((I1
I10
tp286
(I6
I2
tp287
(I7
I3
tp288
(I1
I11
tp289
tp290
sg202
I12
sbs(iproblems
RoomID
p291
(dp292
g196
I12
sg197
I5
sg198
I659184109953178577
sg199
(I5
I7
tp293
sg201
I4
sg202
I9
sb(imulti_robot_problem
MultiRobotState
p294
(dp295
g205
g20
((lp296
(I7
I3
tp297
a(I4
I7
tp298
a(I6
I6
tp299
a(I7
I7
tp300
a(I9
I4
tp301
a(I2
I5
tp302
a(I10
I3
tp303
a(I7
I2
tp304
a(I3
I3
tp305
a(I3
I6
tp306
a(I8
I6
tp307
a(I6
I4
tp308
a(I8
I2
tp309
a(I4
I5
tp310
a(I11
I0
tp311
a(I7
I5
tp312
a(I0
I8
tp313
a(I6
I5
tp314
a(I4
I6
tp315
a(I6
I1
tp316
ag293
a(I4
I3
tp317
a(I3
I4
tp318
atp319
Rp320
sg196
I12
sg231
g20
((lp321
(I10
I8
tp322
a(I4
I1
tp323
a(I0
I2
tp324
a(I1
I6
tp325
a(I10
I4
tp326
atp327
Rp328
sg201
((I10
I0
tp329
(I7
I0
tp330
(I2
I6
tp331
(I8
I3
tp332
tp333
sg202
I9
sbs(iproblems
RoomID
p334
(dp335
g196
I10
sg197
I9
sg198
I4253868527325451640
sg199
(I9
I10
tp336
sg201
I3
sg202
I11
sb(imulti_robot_problem
MultiRobotState
p337
(dp338
g205
g20
((lp339
(I7
I3
tp340
a(I4
I7
tp341
a(I2
I6
tp342
a(I5
I0
tp343
a(I4
I8
tp344
a(I3
I4
tp345
a(I7
I1
tp346
a(I6
I9
tp347
a(I8
I10
tp348
ag336
a(I3
I9
tp349
a(I1
I6
tp350
a(I7
I10
tp351
a(I2
I3
tp352
a(I3
I7
tp353
a(I2
I5
tp354
a(I3
I5
tp355
a(I8
I5
tp356
a(I2
I4
tp357
a(I5
I8
tp358
a(I7
I9
tp359
atp360
Rp361
sg196
I10
sg231
g20
((lp362
(I3
I8
tp363
a(I5
I10
tp364
a(I6
I8
tp365
a(I7
I6
tp366
a(I8
I9
tp367
a(I0
I10
tp368
a(I9
I4
tp369
a(I0
I9
tp370
a(I5
I3
tp371
atp372
Rp373
sg201
((I3
I6
tp374
(I0
I8
tp375
(I2
I1
tp376
tp377
sg202
I11
sbs(iproblems
RoomID
p378
(dp379
g196
I10
sg197
I9
sg198
I3273124617966689144
sg199
(I9
I9
tp380
sg201
I3
sg202
I10
sb(imulti_robot_problem
MultiRobotState
p381
(dp382
g205
g20
((lp383
(I7
I3
tp384
a(I1
I3
tp385
a(I9
I8
tp386
a(I3
I2
tp387
a(I1
I6
tp388
a(I2
I5
tp389
a(I3
I3
tp390
a(I7
I6
tp391
a(I6
I3
tp392
a(I8
I6
tp393
a(I5
I3
tp394
a(I9
I7
tp395
a(I6
I4
tp396
a(I5
I4
tp397
a(I4
I5
tp398
a(I7
I5
tp399
a(I2
I3
tp400
a(I0
I8
tp401
a(I9
I6
tp402
a(I6
I5
tp403
a(I5
I5
tp404
ag380
a(I4
I3
tp405
a(I2
I4
tp406
atp407
Rp408
sg196
I10
sg231
g20
((lp409
(I7
I0
tp410
a(I3
I0
tp411
a(I6
I1
tp412
a(I3
I1
tp413
a(I5
I0
tp414
a(I2
I2
tp415
a(I3
I4
tp416
a(I1
I1
tp417
a(I8
I4
tp418
atp419
Rp420
sg201
((I0
I7
tp421
(I2
I1
tp422
(I6
I6
tp423
tp424
sg202
I10
sbssS'name'
p425
S'mild_roomset'
p426
sbsg169
g170
sg171
(dp427
g194
((lp428
(F1.0300000000002001
I9
tp429
aF1.0399999999999636
tp430
sg246
((lp431
(F0.19000000000005457
I6
tp432
aF0.20000000000027285
tp433
sg291
((lp434
(F0.75999999999976353
I15
tp435
aF0.75999999999976353
tp436
sg334
((lp437
(F16.539999999999964
I20
tp438
aF16.570000000000164
tp439
sg378
((lp440
(F15.559999999999945
I31
tp441
aF15.619999999999891
tp442
ssba(imeasure_core
ProblemSetSolution
p443
(dp444
g3
(imeasure_core
RoomSet
p445
(dp446
S'rooms'
p447
(dp448
(iproblems
RoomID
p449
(dp450
S'width'
p451
I12
sS'dusts'
p452
I13
sS'seed'
p453
I1689441204489037471
sS'obstacles'
p454
(I3
I4
tp455
sS'robots'
p456
I6
sS'height'
p457
I10
sb(imulti_robot_problem
MultiRobotState
p458
(dp459
S'obstacle_locations'
p460
g20
((lp461
(I7
I3
tp462
a(I1
I3
tp463
a(I10
I6
tp464
a(I7
I7
tp465
a(I6
I2
tp466
a(I1
I6
tp467
a(I9
I4
tp468
a(I5
I1
tp469
a(I8
I5
tp470
a(I11
I5
tp471
a(I10
I3
tp472
a(I0
I4
tp473
a(I8
I6
tp474
a(I4
I1
tp475
a(I1
I1
tp476
a(I9
I3
tp477
a(I0
I5
tp478
a(I8
I7
tp479
a(I4
I2
tp480
a(I2
I7
tp481
ag455
a(I3
I8
tp482
a(I4
I3
tp483
a(I9
I5
tp484
a(I5
I2
tp485
a(I0
I2
tp486
a(I8
I4
tp487
atp488
Rp489
sg451
I12
sS'dirt_locations'
p490
g20
((lp491
(I7
I4
tp492
a(I9
I0
tp493
a(I0
I0
tp494
a(I10
I4
tp495
a(I4
I8
tp496
a(I8
I1
tp497
a(I11
I2
tp498
a(I5
I4
tp499
a(I8
I9
tp500
a(I11
I8
tp501
a(I2
I6
tp502
a(I2
I3
tp503
a(I1
I5
tp504
atp505
Rp506
sg456
((I8
I0
tp507
(I7
I6
tp508
(I8
I8
tp509
(I7
I0
tp510
(I2
I4
tp511
(I9
I9
tp512
tp513
sg457
I10
sbs(iproblems
RoomID
p514
(dp515
g451
I13
sg452
I15
sg453
I6660334802794327005
sg454
(I10
I7
tp516
sg456
I6
sg457
I11
sb(imulti_robot_problem
MultiRobotState
p517
(dp518
g460
g20
((lp519
(I11
I7
tp520
a(I4
I7
tp521
a(I9
I0
tp522
a(I3
I8
tp523
a(I10
I8
tp524
a(I5
I6
tp525
a(I2
I8
tp526
a(I5
I7
tp527
a(I9
I9
tp528
a(I8
I10
tp529
a(I9
I10
tp530
ag516
a(I1
I8
tp531
a(I10
I0
tp532
a(I1
I10
tp533
a(I1
I5
tp534
a(I2
I4
tp535
atp536
Rp537
sg451
I13
sg490
g20
((lp538
(I2
I7
tp539
a(I12
I2
tp540
a(I6
I9
tp541
a(I10
I6
tp542
a(I12
I1
tp543
a(I2
I9
tp544
a(I12
I0
tp545
a(I10
I3
tp546
a(I11
I2
tp547
a(I6
I10
tp548
a(I12
I5
tp549
a(I6
I3
tp550
a(I1
I7
tp551
a(I12
I9
tp552
a(I12
I8
tp553
atp554
Rp555
sg456
((I9
I5
tp556
(I5
I10
tp557
(I5
I3
tp558
(I5
I1
tp559
(I9
I3
tp560
(I7
I8
tp561
tp562
sg457
I11
sbs(iproblems
RoomID
p563
(dp564
g451
I10
sg452
I11
sg453
I3914746131789064238
sg454
(I6
I1
tp565
sg456
I7
sg457
I13
sb(imulti_robot_problem
MultiRobotState
p566
(dp567
g460
g20
((lp568
(I0
I0
tp569
a(I7
I0
tp570
a(I9
I1
tp571
a(I2
I9
tp572
a(I7
I1
tp573
a(I9
I2
tp574
ag565
a(I6
I3
tp575
a(I8
I1
tp576
a(I6
I5
tp577
a(I5
I1
tp578
a(I7
I8
tp579
a(I7
I2
tp580
a(I5
I5
tp581
atp582
Rp583
sg451
I10
sg490
g20
((lp584
(I4
I7
tp585
a(I3
I3
tp586
a(I4
I5
tp587
a(I4
I4
tp588
a(I1
I4
tp589
a(I0
I11
tp590
a(I0
I5
tp591
a(I0
I10
tp592
a(I8
I7
tp593
a(I9
I5
tp594
a(I5
I3
tp595
atp596
Rp597
sg456
((I1
I11
tp598
(I8
I4
tp599
(I2
I12
tp600
(I1
I9
tp601
(I2
I11
tp602
(I5
I4
tp603
(I5
I0
tp604
tp605
sg457
I13
sbs(iproblems
RoomID
p606
(dp607
g451
I12
sg452
I11
sg453
I3119042104763040036
sg454
(I7
I6
tp608
sg456
I7
sg457
I13
sb(imulti_robot_problem
MultiRobotState
p609
(dp610
g460
g20
((lp611
(I5
I4
tp612
a(I9
I0
tp613
a(I5
I10
tp614
a(I10
I5
tp615
a(I4
I5
tp616
a(I9
I8
tp617
a(I10
I6
tp618
a(I6
I0
tp619
a(I9
I9
tp620
a(I8
I9
tp621
a(I10
I7
tp622
a(I2
I12
tp623
a(I8
I6
tp624
a(I9
I6
tp625
ag608
a(I11
I6
tp626
a(I9
I7
tp627
atp628
Rp629
sg451
I12
sg490
g20
((lp630
(I1
I2
tp631
a(I8
I0
tp632
a(I5
I11
tp633
a(I5
I6
tp634
a(I7
I8
tp635
a(I4
I4
tp636
a(I8
I10
tp637
a(I0
I11
tp638
a(I2
I3
tp639
a(I3
I4
tp640
a(I4
I0
tp641
atp642
Rp643
sg456
((I7
I12
tp644
(I8
I2
tp645
(I4
I6
tp646
(I3
I9
tp647
(I9
I11
tp648
(I11
I9
tp649
(I9
I3
tp650
tp651
sg457
I13
sbs(iproblems
RoomID
p652
(dp653
g451
I12
sg452
I12
sg453
I4640892725076559864
sg454
(I8
I7
tp654
sg456
I7
sg457
I12
sb(imulti_robot_problem
MultiRobotState
p655
(dp656
g460
g20
((lp657
(I5
I9
tp658
a(I6
I9
tp659
a(I4
I8
tp660
a(I5
I6
tp661
a(I2
I8
tp662
a(I6
I2
tp663
a(I3
I7
tp664
a(I5
I1
tp665
a(I8
I5
tp666
a(I2
I9
tp667
a(I2
I0
tp668
a(I7
I6
tp669
a(I8
I10
tp670
a(I6
I3
tp671
a(I1
I1
tp672
a(I9
I7
tp673
a(I4
I5
tp674
a(I6
I0
tp675
a(I2
I10
tp676
ag654
a(I1
I0
tp677
a(I7
I9
tp678
a(I7
I0
tp679
a(I6
I8
tp680
a(I5
I7
tp681
a(I7
I4
tp682
a(I0
I6
tp683
a(I1
I8
tp684
a(I0
I9
tp685
a(I5
I2
tp686
a(I0
I2
tp687
atp688
Rp689
sg451
I12
sg490
g20
((lp690
(I2
I7
tp691
a(I6
I4
tp692
a(I11
I10
tp693
a(I4
I6
tp694
a(I11
I8
tp695
a(I11
I2
tp696
a(I9
I3
tp697
a(I3
I2
tp698
a(I8
I8
tp699
a(I0
I5
tp700
a(I10
I3
tp701
a(I5
I3
tp702
atp703
Rp704
sg456
((I8
I6
tp705
(I11
I5
tp706
(I10
I8
tp707
(I9
I0
tp708
(I9
I4
tp709
(I9
I2
tp710
(I4
I11
tp711
tp712
sg457
I12
sbssS'name'
p713
S'heavy_roomset'
p714
sbsg169
g170
sg171
(dp715
g449
((lp716
(F73.139999999999873
I17
tp717
aF73.690000000000055
tp718
sg514
((lp719
(F17.2800000000002
I11
tp720
aF17.429999999999836
tp721
sg563
((lp722
F308.92000000000007
tp723
sg606
((lp724
F307.94000000000005
tp725
sg652
((lp726
F304.0300000000002
tp727
ssba.