(lp0
(imeasure_core
ProblemSetSolution
p1
(dp2
S'roomset'
p3
(imeasure_core
RoomSet
p4
(dp5
S'rooms'
p6
(dp7
(iproblems
RoomID
p8
(dp9
S'dusts'
p10
I7
sS'obstacles'
p11
(I1
I3
tp12
sS'robots'
p13
I1
sS'height'
p14
I7
sS'width'
p15
I9
sS'seed'
p16
I1486246605650367638
sb(imulti_robot_problem
MultiRobotState
p17
(dp18
S'obstacle_locations'
p19
c__builtin__
frozenset
p20
((lp21
(I0
I1
tp22
a(I8
I3
tp23
ag12
a(I0
I3
tp24
a(I0
I2
tp25
atp26
Rp27
sg15
I9
sS'dirt_locations'
p28
g20
((lp29
(I7
I5
tp30
a(I7
I0
tp31
a(I0
I4
tp32
a(I1
I0
tp33
a(I4
I4
tp34
a(I6
I5
tp35
a(I4
I0
tp36
atp37
Rp38
sg13
((I5
I1
tp39
tp40
sg14
I7
sbs(iproblems
RoomID
p41
(dp42
g10
I9
sg11
(I7
I5
tp43
sg13
I4
sg14
I10
sg15
I10
sg16
I679259829289197625
sb(imulti_robot_problem
MultiRobotState
p44
(dp45
g19
g20
((lp46
(I9
I6
tp47
a(I8
I6
tp48
a(I7
I6
tp49
ag43
a(I7
I0
tp50
atp51
Rp52
sg15
I10
sg28
g20
((lp53
(I5
I4
tp54
a(I2
I6
tp55
a(I7
I1
tp56
a(I6
I1
tp57
a(I1
I6
tp58
a(I0
I5
tp59
a(I8
I7
tp60
a(I0
I9
tp61
a(I9
I5
tp62
atp63
Rp64
sg13
((I7
I8
tp65
(I6
I7
tp66
(I3
I5
tp67
(I3
I9
tp68
tp69
sg14
I10
sbs(iproblems
RoomID
p70
(dp71
g10
I6
sg11
(I1
I6
tp72
sg13
I4
sg14
I8
sg15
I10
sg16
I403795515464475257
sb(imulti_robot_problem
MultiRobotState
p73
(dp74
g19
g20
((lp75
(I8
I3
tp76
a(I1
I3
tp77
a(I6
I7
tp78
a(I0
I4
tp79
ag72
a(I4
I1
tp80
a(I0
I5
tp81
atp82
Rp83
sg15
I10
sg28
g20
((lp84
(I7
I3
tp85
a(I4
I7
tp86
a(I2
I2
tp87
a(I8
I0
tp88
a(I0
I2
tp89
a(I0
I7
tp90
atp91
Rp92
sg13
((I8
I2
tp93
(I6
I1
tp94
(I5
I0
tp95
(I2
I0
tp96
tp97
sg14
I8
sbs(iproblems
RoomID
p98
(dp99
g10
I5
sg11
(I3
I4
tp100
sg13
I1
sg14
I9
sg15
I9
sg16
I2685440357799139976
sb(imulti_robot_problem
MultiRobotState
p101
(dp102
g19
g20
((lp103
(I8
I3
tp104
a(I1
I3
tp105
a(I5
I6
tp106
ag100
a(I2
I4
tp107
a(I3
I8
tp108
a(I2
I3
tp109
a(I7
I8
tp110
a(I1
I1
tp111
atp112
Rp113
sg15
I9
sg28
g20
((lp114
(I0
I1
tp115
a(I0
I0
tp116
a(I3
I1
tp117
a(I8
I7
tp118
a(I5
I0
tp119
atp120
Rp121
sg13
((I5
I5
tp122
tp123
sg14
I9
sbs(iproblems
RoomID
p124
(dp125
g10
I6
sg11
(I4
I4
tp126
sg13
I4
sg14
I9
sg15
I9
sg16
I5891625650498269233
sb(imulti_robot_problem
MultiRobotState
p127
(dp128
g19
g20
((lp129
(I2
I7
tp130
a(I4
I5
tp131
ag126
a(I3
I6
tp132
atp133
Rp134
sg15
I9
sg28
g20
((lp135
(I7
I4
tp136
a(I8
I3
tp137
a(I0
I5
tp138
a(I5
I5
tp139
a(I6
I6
tp140
a(I4
I0
tp141
atp142
Rp143
sg13
((I4
I6
tp144
(I7
I1
tp145
(I0
I4
tp146
(I7
I2
tp147
tp148
sg14
I9
sbssS'name'
p149
S'easy_roomset'
p150
sbsg149
S"AnytimeBeam-w20-gf(1.3, 'exp')_with_PowerHeuristic2"
p151
sS'solutions'
p152
(dp153
g8
((lp154
(F0.12000000000261934
I45
tp155
a(F2.1599999999998545
I44
tp156
a(F2.7800000000024738
I37
tp157
a(F3.3900000000030559
I36
tp158
a(F4.0200000000004366
I34
tp159
a(F6.1200000000026193
I33
tp160
a(F8.3500000000021828
I31
tp161
a(F11.30000000000291
I30
tp162
a(F14.479999999999563
I28
tp163
a(F16.930000000000291
I26
tp164
a(F22.010000000002037
I25
tp165
a(F28.540000000000873
I24
tp166
aF40.0
tp167
sg41
((lp168
(F2.9799999999995634
I20
tp169
aF40.200000000000728
tp170
sg98
((lp171
(F0.17000000000189175
I47
tp172
a(F1.2700000000004366
I45
tp173
a(F2.3300000000017462
I43
tp174
a(F3.3300000000017462
I35
tp175
a(F4.4799999999995634
I33
tp176
a(F5.7700000000004366
I31
tp177
a(F7.1000000000021828
I29
tp178
a(F9.4600000000027649
I27
tp179
a(F12.729999999999563
I25
tp180
a(F15.510000000002037
I23
tp181
aF40.0
tp182
sg70
((lp183
(F36.25
I134
tp184
aF40.049999999999272
tp185
sg124
((lp186
(F1.8300000000017462
I8
tp187
aF40.25
tp188
ssba(imeasure_core
ProblemSetSolution
p189
(dp190
g3
(imeasure_core
RoomSet
p191
(dp192
g6
(dp193
(iproblems
RoomID
p194
(dp195
g10
I9
sg11
(I7
I7
tp196
sg13
I4
sg14
I12
sg15
I12
sg16
I679259829289197625
sb(imulti_robot_problem
MultiRobotState
p197
(dp198
g19
g20
((lp199
(I6
I4
tp200
a(I6
I9
tp201
a(I6
I6
tp202
a(I5
I6
tp203
a(I9
I8
tp204
a(I11
I9
tp205
ag196
a(I1
I4
tp206
a(I11
I7
tp207
a(I7
I5
tp208
a(I8
I7
tp209
a(I4
I2
tp210
a(I8
I5
tp211
a(I6
I5
tp212
a(I10
I8
tp213
a(I10
I5
tp214
a(I6
I7
tp215
a(I6
I8
tp216
a(I10
I7
tp217
a(I9
I6
tp218
a(I7
I6
tp219
a(I8
I10
tp220
a(I7
I4
tp221
a(I11
I8
tp222
a(I7
I10
tp223
a(I8
I6
tp224
a(I6
I1
tp225
a(I9
I7
tp226
atp227
Rp228
sg15
I12
sg28
g20
((lp229
(I2
I7
tp230
a(I9
I0
tp231
a(I8
I2
tp232
a(I7
I1
tp233
a(I11
I0
tp234
a(I0
I11
tp235
a(I1
I6
tp236
a(I1
I7
tp237
a(I11
I6
tp238
atp239
Rp240
sg13
((I9
I10
tp241
(I8
I9
tp242
(I3
I7
tp243
(I3
I11
tp244
tp245
sg14
I12
sbs(iproblems
RoomID
p246
(dp247
g10
I5
sg11
(I9
I1
tp248
sg13
I3
sg14
I11
sg15
I11
sg16
I2685440357799139976
sb(imulti_robot_problem
MultiRobotState
p249
(dp250
g19
g20
((lp251
(I7
I3
tp252
a(I10
I4
tp253
a(I9
I3
tp254
ag248
a(I7
I1
tp255
a(I5
I6
tp256
a(I10
I6
tp257
a(I1
I4
tp258
a(I9
I9
tp259
a(I3
I9
tp260
a(I9
I4
tp261
a(I6
I8
tp262
a(I9
I6
tp263
a(I3
I4
tp264
a(I10
I3
tp265
a(I7
I2
tp266
a(I5
I3
tp267
a(I8
I3
tp268
a(I5
I5
tp269
a(I10
I7
tp270
a(I8
I5
tp271
a(I9
I2
tp272
a(I3
I6
tp273
a(I4
I5
tp274
a(I6
I5
tp275
a(I7
I10
tp276
a(I9
I5
tp277
a(I3
I5
tp278
a(I7
I8
tp279
a(I2
I4
tp280
a(I10
I9
tp281
atp282
Rp283
sg15
I11
sg28
g20
((lp284
(I1
I2
tp285
a(I9
I10
tp286
a(I6
I1
tp287
a(I4
I1
tp288
a(I0
I2
tp289
atp290
Rp291
sg13
((I6
I6
tp292
(I0
I0
tp293
(I10
I8
tp294
tp295
sg14
I11
sbs(iproblems
RoomID
p296
(dp297
g10
I7
sg11
(I8
I8
tp298
sg13
I3
sg14
I9
sg15
I9
sg16
I7834319822419845881
sb(imulti_robot_problem
MultiRobotState
p299
(dp300
g19
g20
((lp301
(I4
I7
tp302
a(I1
I3
tp303
a(I5
I0
tp304
a(I6
I6
tp305
a(I5
I6
tp306
a(I2
I8
tp307
a(I3
I5
tp308
a(I4
I6
tp309
a(I2
I6
tp310
a(I0
I5
tp311
a(I3
I7
tp312
a(I0
I3
tp313
a(I0
I8
tp314
a(I8
I5
tp315
a(I5
I8
tp316
a(I3
I3
tp317
a(I2
I7
tp318
a(I6
I7
tp319
a(I5
I5
tp320
a(I7
I8
tp321
a(I4
I4
tp322
a(I1
I5
tp323
a(I1
I8
tp324
ag298
a(I3
I6
tp325
a(I1
I7
tp326
a(I4
I5
tp327
a(I5
I3
tp328
a(I3
I4
tp329
atp330
Rp331
sg15
I9
sg28
g20
((lp332
(I7
I4
tp333
a(I2
I0
tp334
a(I6
I2
tp335
a(I7
I0
tp336
a(I8
I7
tp337
a(I7
I1
tp338
a(I1
I4
tp339
atp340
Rp341
sg13
((I2
I1
tp342
(I2
I3
tp343
(I5
I7
tp344
tp345
sg14
I9
sbs(iproblems
RoomID
p346
(dp347
g10
I6
sg11
(I3
I9
tp348
sg13
I4
sg14
I11
sg15
I11
sg16
I5891625650498269233
sb(imulti_robot_problem
MultiRobotState
p349
(dp350
g19
g20
((lp351
(I7
I3
tp352
a(I4
I7
tp353
a(I6
I6
tp354
a(I5
I6
tp355
a(I2
I8
tp356
a(I6
I2
tp357
a(I5
I1
tp358
a(I3
I7
tp359
a(I8
I5
tp360
a(I5
I5
tp361
a(I2
I9
tp362
a(I7
I6
tp363
a(I4
I4
tp364
a(I2
I2
tp365
a(I1
I1
tp366
a(I9
I7
tp367
a(I3
I2
tp368
a(I10
I4
tp369
a(I4
I5
tp370
a(I9
I3
tp371
a(I10
I5
tp372
a(I2
I10
tp373
a(I7
I5
tp374
a(I2
I3
tp375
a(I8
I3
tp376
a(I4
I6
tp377
a(I5
I2
tp378
a(I6
I1
tp379
a(I3
I8
tp380
a(I1
I8
tp381
ag348
a(I4
I3
tp382
a(I9
I5
tp383
a(I3
I4
tp384
a(I8
I4
tp385
atp386
Rp387
sg15
I11
sg28
g20
((lp388
(I8
I8
tp389
a(I5
I10
tp390
a(I9
I1
tp391
a(I10
I7
tp392
a(I1
I6
tp393
a(I7
I9
tp394
atp395
Rp396
sg13
((I5
I7
tp397
(I8
I1
tp398
(I0
I5
tp399
(I4
I0
tp400
tp401
sg14
I11
sbs(iproblems
RoomID
p402
(dp403
g10
I10
sg11
(I1
I5
tp404
sg13
I4
sg14
I12
sg15
I10
sg16
I1737871632067391849
sb(imulti_robot_problem
MultiRobotState
p405
(dp406
g19
g20
((lp407
(I3
I2
tp408
a(I0
I0
tp409
a(I6
I6
tp410
a(I5
I6
tp411
a(I2
I8
tp412
a(I2
I10
tp413
a(I8
I9
tp414
a(I6
I2
tp415
a(I2
I3
tp416
a(I8
I7
tp417
a(I5
I1
tp418
a(I8
I5
tp419
a(I5
I8
tp420
a(I8
I3
tp421
a(I5
I5
tp422
a(I7
I8
tp423
a(I7
I6
tp424
a(I8
I10
tp425
ag404
a(I6
I5
tp426
a(I2
I2
tp427
a(I4
I1
tp428
a(I2
I4
tp429
atp430
Rp431
sg15
I10
sg28
g20
((lp432
(I0
I1
tp433
a(I4
I10
tp434
a(I4
I8
tp435
a(I3
I0
tp436
a(I9
I6
tp437
a(I3
I10
tp438
a(I5
I11
tp439
a(I2
I7
tp440
a(I1
I9
tp441
a(I3
I4
tp442
atp443
Rp444
sg13
((I4
I9
tp445
(I8
I11
tp446
(I4
I0
tp447
(I3
I9
tp448
tp449
sg14
I12
sbssg149
S'mild_roomset'
p450
sbsg149
g151
sg152
(dp451
g194
((lp452
F41.080000000001746
tp453
sg246
((lp454
(F27.899999999997817
I127
tp455
aF40.110000000000582
tp456
sg296
((lp457
(F0.13999999999941792
I25
tp458
aF40.0
tp459
sg346
((lp460
(F17.110000000000582
I64
tp461
aF40.090000000000146
tp462
sg402
((lp463
(F1.1999999999970896
I12
tp464
aF40.229999999999563
tp465
ssba(imeasure_core
ProblemSetSolution
p466
(dp467
g3
(imeasure_core
RoomSet
p468
(dp469
g6
(dp470
(iproblems
RoomID
p471
(dp472
g10
I12
sg11
(I6
I3
tp473
sg13
I5
sg14
I10
sg15
I12
sg16
I1486246605650367638
sb(imulti_robot_problem
MultiRobotState
p474
(dp475
g19
g20
((lp476
(I5
I9
tp477
a(I1
I3
tp478
a(I7
I1
tp479
a(I2
I7
tp480
a(I1
I4
tp481
a(I6
I2
tp482
a(I1
I6
tp483
a(I2
I1
tp484
a(I0
I3
tp485
a(I6
I5
tp486
a(I1
I2
tp487
a(I1
I5
tp488
a(I4
I1
tp489
a(I3
I1
tp490
ag473
a(I2
I0
tp491
a(I10
I0
tp492
a(I5
I2
tp493
a(I1
I1
tp494
a(I8
I4
tp495
atp496
Rp497
sg15
I12
sg28
g20
((lp498
(I11
I7
tp499
a(I11
I4
tp500
a(I9
I1
tp501
a(I11
I8
tp502
a(I2
I8
tp503
a(I6
I0
tp504
a(I0
I6
tp505
a(I11
I1
tp506
a(I0
I4
tp507
a(I4
I9
tp508
a(I10
I9
tp509
a(I9
I7
tp510
atp511
Rp512
sg13
((I2
I4
tp513
(I10
I1
tp514
(I2
I5
tp515
(I9
I8
tp516
(I6
I6
tp517
tp518
sg14
I10
sbs(iproblems
RoomID
p519
(dp520
g10
I14
sg11
(I7
I6
tp521
sg13
I7
sg14
I13
sg15
I13
sg16
I679259829289197625
sb(imulti_robot_problem
MultiRobotState
p522
(dp523
g19
g20
((lp524
(I6
I4
tp525
a(I4
I8
tp526
a(I12
I7
tp527
a(I10
I6
tp528
a(I7
I5
tp529
a(I12
I11
tp530
a(I9
I6
tp531
a(I1
I2
tp532
a(I11
I7
tp533
a(I10
I7
tp534
ag521
a(I6
I3
tp535
a(I6
I2
tp536
a(I4
I3
tp537
a(I3
I4
tp538
a(I12
I8
tp539
atp540
Rp541
sg15
I13
sg28
g20
((lp542
(I2
I7
tp543
a(I12
I1
tp544
a(I9
I2
tp545
a(I2
I8
tp546
a(I5
I7
tp547
a(I10
I0
tp548
a(I1
I4
tp549
a(I0
I12
tp550
a(I7
I4
tp551
a(I10
I9
tp552
a(I4
I2
tp553
a(I11
I4
tp554
a(I11
I6
tp555
a(I1
I9
tp556
atp557
Rp558
sg13
((I9
I11
tp559
(I9
I10
tp560
(I4
I7
tp561
(I4
I12
tp562
(I7
I1
tp563
(I1
I8
tp564
(I1
I6
tp565
tp566
sg14
I13
sbs(iproblems
RoomID
p567
(dp568
g10
I10
sg11
(I6
I9
tp569
sg13
I5
sg14
I12
sg15
I12
sg16
I2685440357799139976
sb(imulti_robot_problem
MultiRobotState
p570
(dp571
g19
g20
((lp572
(I4
I10
tp573
ag569
a(I9
I1
tp574
a(I5
I11
tp575
a(I3
I0
tp576
a(I0
I7
tp577
a(I3
I9
tp578
a(I0
I5
tp579
a(I1
I4
tp580
a(I0
I3
tp581
a(I4
I0
tp582
a(I1
I2
tp583
a(I11
I10
tp584
a(I6
I10
tp585
a(I5
I6
tp586
a(I9
I11
tp587
a(I7
I9
tp588
a(I4
I5
tp589
a(I3
I5
tp590
a(I3
I4
tp591
a(I2
I4
tp592
a(I1
I9
tp593
atp594
Rp595
sg15
I12
sg28
g20
((lp596
(I11
I7
tp597
a(I8
I3
tp598
a(I10
I11
tp599
a(I7
I1
tp600
a(I10
I5
tp601
a(I8
I10
tp602
a(I6
I3
tp603
a(I3
I6
tp604
a(I9
I10
tp605
a(I6
I5
tp606
atp607
Rp608
sg13
((I7
I7
tp609
(I0
I0
tp610
(I11
I9
tp611
(I0
I2
tp612
(I4
I1
tp613
tp614
sg14
I12
sbs(iproblems
RoomID
p615
(dp616
g10
I11
sg11
(I2
I7
tp617
sg13
I6
sg14
I11
sg15
I13
sg16
I403795515464475257
sb(imulti_robot_problem
MultiRobotState
p618
(dp619
g19
g20
((lp620
g617
a(I10
I8
tp621
a(I1
I7
tp622
a(I3
I10
tp623
a(I4
I4
tp624
a(I1
I4
tp625
a(I12
I5
tp626
a(I0
I6
tp627
a(I0
I5
tp628
a(I3
I6
tp629
a(I2
I2
tp630
a(I0
I8
tp631
a(I7
I9
tp632
atp633
Rp634
sg15
I13
sg28
g20
((lp635
(I6
I4
tp636
a(I0
I0
tp637
a(I2
I9
tp638
a(I11
I5
tp639
a(I8
I9
tp640
a(I11
I1
tp641
a(I2
I3
tp642
a(I1
I10
tp643
a(I12
I2
tp644
a(I0
I3
tp645
a(I5
I2
tp646
atp647
Rp648
sg13
((I10
I3
tp649
(I7
I2
tp650
(I7
I0
tp651
(I3
I1
tp652
(I5
I10
tp653
(I9
I4
tp654
tp655
sg14
I11
sbs(iproblems
RoomID
p656
(dp657
g10
I11
sg11
(I11
I9
tp658
sg13
I7
sg14
I12
sg15
I12
sg16
I5891625650498269233
sb(imulti_robot_problem
MultiRobotState
p659
(dp660
g19
g20
((lp661
(I4
I4
tp662
a(I4
I8
tp663
a(I5
I6
tp664
a(I8
I11
tp665
ag658
a(I7
I7
tp666
a(I7
I1
tp667
a(I9
I10
tp668
a(I3
I9
tp669
a(I1
I9
tp670
a(I6
I7
tp671
a(I10
I7
tp672
a(I7
I6
tp673
a(I5
I7
tp674
a(I2
I11
tp675
a(I6
I11
tp676
a(I9
I11
tp677
a(I7
I10
tp678
a(I10
I9
tp679
atp680
Rp681
sg15
I12
sg28
g20
((lp682
(I11
I7
tp683
a(I11
I4
tp684
a(I4
I6
tp685
a(I5
I11
tp686
a(I8
I10
tp687
a(I0
I5
tp688
a(I8
I7
tp689
a(I1
I7
tp690
a(I10
I1
tp691
a(I1
I1
tp692
a(I5
I5
tp693
atp694
Rp695
sg13
((I6
I8
tp696
(I9
I2
tp697
(I0
I6
tp698
(I10
I3
tp699
(I9
I5
tp700
(I5
I0
tp701
(I9
I8
tp702
tp703
sg14
I12
sbssg149
S'heavy_roomset'
p704
sbsg149
g151
sg152
(dp705
g471
((lp706
F42.240000000001601
tp707
sg519
((lp708
F68.200000000000728
tp709
sg567
((lp710
(F25.619999999998981
I58
tp711
aF40.209999999999127
tp712
sg615
((lp713
F40.559999999997672
tp714
sg656
((lp715
F51.940000000002328
tp716
ssba(imeasure_core
ProblemSetSolution
p717
(dp718
g3
g4
sg149
S"AnytimeBeam-w20-gf(1.5, 'exp')_with_PowerHeuristic2"
p719
sg152
(dp720
g8
((lp721
(F0.11000000000058208
I45
tp722
a(F1.3499999999985448
I44
tp723
a(F1.9700000000011642
I37
tp724
a(F2.5799999999981083
I36
tp725
a(F3.2099999999991269
I34
tp726
a(F5.2799999999988358
I33
tp727
a(F7.5400000000008731
I31
tp728
a(F10.520000000000437
I30
tp729
a(F13.729999999999563
I28
tp730
a(F16.18999999999869
I26
tp731
a(F21.270000000000437
I25
tp732
a(F27.790000000000873
I24
tp733
aF40.0
tp734
sg41
((lp735
(F2.9799999999995634
I20
tp736
aF40.139999999999418
tp737
sg98
((lp738
(F0.15999999999985448
I47
tp739
a(F1.2700000000004366
I45
tp740
a(F2.319999999999709
I43
tp741
a(F3.319999999999709
I35
tp742
a(F4.4700000000011642
I33
tp743
a(F5.75
I31
tp744
a(F7.0900000000001455
I29
tp745
a(F9.4599999999991269
I27
tp746
a(F12.75
I25
tp747
a(F15.520000000000437
I23
tp748
aF40.0
tp749
sg70
((lp750
(F37.389999999999418
I134
tp751
aF40.020000000000437
tp752
sg124
((lp753
(F1.819999999999709
I8
tp754
aF40.130000000001019
tp755
ssba(imeasure_core
ProblemSetSolution
p756
(dp757
g3
g191
sg149
g719
sg152
(dp758
g194
((lp759
F40.959999999999127
tp760
sg246
((lp761
(F27.770000000000437
I127
tp762
aF40.229999999999563
tp763
sg296
((lp764
(F0.13999999999941792
I25
tp765
aF40.020000000000437
tp766
sg346
((lp767
(F17.119999999998981
I64
tp768
aF40.169999999998254
tp769
sg402
((lp770
(F1.1900000000023283
I12
tp771
aF40.040000000000873
tp772
ssba(imeasure_core
ProblemSetSolution
p773
(dp774
g3
g468
sg149
g719
sg152
(dp775
g471
((lp776
F42.470000000001164
tp777
sg519
((lp778
F68.259999999998399
tp779
sg567
((lp780
(F25.479999999999563
I58
tp781
aF40.150000000001455
tp782
sg615
((lp783
F40.5
tp784
sg656
((lp785
F52.169999999998254
tp786
ssba(imeasure_core
ProblemSetSolution
p787
(dp788
g3
g4
sg149
S"AnytimeBeam-w20-gf(1.7, 'exp')_with_PowerHeuristic2"
p789
sg152
(dp790
g8
((lp791
(F0.11000000000058208
I45
tp792
a(F1.5300000000024738
I44
tp793
a(F2.1599999999998545
I37
tp794
a(F2.7700000000004366
I36
tp795
a(F3.4000000000014552
I34
tp796
a(F5.4799999999995634
I33
tp797
a(F7.7299999999995634
I31
tp798
a(F10.710000000002765
I30
tp799
a(F13.930000000000291
I28
tp800
a(F16.380000000001019
I26
tp801
a(F21.460000000002765
I25
tp802
a(F27.990000000001601
I24
tp803
aF40.0
tp804
sg41
((lp805
(F2.9799999999995634
I20
tp806
aF40.280000000002474
tp807
sg98
((lp808
(F0.17000000000189175
I47
tp809
a(F1.2900000000008731
I45
tp810
a(F2.3500000000021828
I43
tp811
a(F3.3500000000021828
I35
tp812
a(F4.5200000000004366
I33
tp813
a(F5.8100000000013097
I31
tp814
a(F7.1500000000014552
I29
tp815
a(F9.5300000000024738
I27
tp816
a(F12.81000000000131
I25
tp817
a(F15.580000000001746
I23
tp818
aF40.0
tp819
sg70
((lp820
(F37.479999999999563
I134
tp821
aF40.019999999996799
tp822
sg124
((lp823
(F1.8200000000033469
I8
tp824
aF40.240000000001601
tp825
ssba(imeasure_core
ProblemSetSolution
p826
(dp827
g3
g191
sg149
g789
sg152
(dp828
g194
((lp829
F41.030000000002474
tp830
sg246
((lp831
(F27.869999999998981
I127
tp832
aF40.059999999997672
tp833
sg296
((lp834
(F0.13000000000101863
I25
tp835
aF40.0
tp836
sg346
((lp837
(F17.140000000003056
I64
tp838
aF40.270000000000437
tp839
sg402
((lp840
(F1.180000000000291
I12
tp841
aF40.260000000002037
tp842
ssba(imeasure_core
ProblemSetSolution
p843
(dp844
g3
g468
sg149
g789
sg152
(dp845
g471
((lp846
F42.389999999999418
tp847
sg519
((lp848
F68.669999999998254
tp849
sg567
((lp850
(F25.640000000003056
I58
tp851
aF40.270000000000437
tp852
sg615
((lp853
F40.75
tp854
sg656
((lp855
F52.200000000000728
tp856
ssba(imeasure_core
ProblemSetSolution
p857
(dp858
g3
g4
sg149
S"AnytimeBeam-w20-gf(1.8999999999999999, 'exp')_with_PowerHeuristic2"
p859
sg152
(dp860
g8
((lp861
(F0.11000000000058208
I45
tp862
a(F1.069999999999709
I44
tp863
a(F1.7400000000016007
I37
tp864
a(F2.3600000000005821
I36
tp865
a(F3.0
I34
tp866
a(F5.1100000000005821
I33
tp867
a(F7.3899999999994179
I31
tp868
a(F10.389999999999418
I30
tp869
a(F13.630000000001019
I28
tp870
a(F16.090000000000146
I26
tp871
a(F21.170000000001892
I25
tp872
a(F27.729999999999563
I24
tp873
aF40.0
tp874
sg41
((lp875
(F3.0
I20
tp876
aF40.299999999999272
tp877
sg98
((lp878
(F0.16999999999825377
I47
tp879
a(F1.2899999999972351
I45
tp880
a(F2.3499999999985448
I43
tp881
a(F3.3499999999985448
I35
tp882
a(F4.5200000000004366
I33
tp883
a(F5.819999999999709
I31
tp884
a(F7.1599999999998545
I29
tp885
a(F9.5299999999988358
I27
tp886
a(F12.829999999998108
I25
tp887
a(F15.619999999998981
I23
tp888
aF40.0
tp889
sg70
((lp890
(F37.580000000001746
I134
tp891
aF40.010000000002037
tp892
sg124
((lp893
(F1.8299999999981083
I8
tp894
aF40.119999999998981
tp895
ssba(imeasure_core
ProblemSetSolution
p896
(dp897
g3
g191
sg149
g859
sg152
(dp898
g194
((lp899
F40.94999999999709
tp900
sg246
((lp901
(F27.650000000001455
I127
tp902
aF40.180000000000291
tp903
sg296
((lp904
(F0.12999999999738066
I25
tp905
aF40.0
tp906
sg346
((lp907
(F17.129999999997381
I64
tp908
aF40.080000000001746
tp909
sg402
((lp910
(F1.180000000000291
I12
tp911
aF40.279999999998836
tp912
ssba(imeasure_core
ProblemSetSolution
p913
(dp914
g3
g468
sg149
g859
sg152
(dp915
g471
((lp916
F42.439999999995052
tp917
sg519
((lp918
F68.5
tp919
sg567
((lp920
(F25.620000000002619
I58
tp921
aF40.210000000006403
tp922
sg615
((lp923
F40.569999999999709
tp924
sg656
((lp925
F52.109999999993306
tp926
ssba(imeasure_core
ProblemSetSolution
p927
(dp928
g3
g4
sg149
S"AnytimeBeam-w20-gf(1.3, 'exp')_with_LinearHeuristic"
p929
sg152
(dp930
g8
((lp931
(F0.010000000002037268
I24
tp932
aF40.0
tp933
sg41
((lp934
F40.430000000000291
tp935
sg98
((lp936
(F0.019999999996798579
I23
tp937
aF40.0
tp938
sg70
((lp939
F40.150000000001455
tp940
sg124
((lp941
(F1.4800000000032014
I4
tp942
aF40.180000000000291
tp943
ssba(imeasure_core
ProblemSetSolution
p944
(dp945
g3
g191
sg149
g929
sg152
(dp946
g194
((lp947
F40.80000000000291
tp948
sg246
((lp949
F40.409999999996217
tp950
sg296
((lp951
F40.080000000001746
tp952
sg346
((lp953
F41.040000000000873
tp954
sg402
((lp955
F40.299999999995634
tp956
ssba(imeasure_core
ProblemSetSolution
p957
(dp958
g3
g468
sg149
g929
sg152
(dp959
g471
((lp960
F40.650000000001455
tp961
sg519
((lp962
F61.44999999999709
tp963
sg567
((lp964
F40.330000000001746
tp965
sg615
((lp966
F42.290000000000873
tp967
sg656
((lp968
F48.830000000001746
tp969
ssba(imeasure_core
ProblemSetSolution
p970
(dp971
g3
g4
sg149
S"AnytimeBeam-w20-gf(1.5, 'exp')_with_LinearHeuristic"
p972
sg152
(dp973
g8
((lp974
(F0.0099999999947613105
I24
tp975
aF40.0
tp976
sg41
((lp977
F40.009999999994761
tp978
sg98
((lp979
(F0.019999999996798579
I23
tp980
aF40.0
tp981
sg70
((lp982
F40.260000000002037
tp983
sg124
((lp984
(F1.4700000000011642
I4
tp985
aF40.120000000002619
tp986
ssba(imeasure_core
ProblemSetSolution
p987
(dp988
g3
g191
sg149
g972
sg152
(dp989
g194
((lp990
F40.529999999998836
tp991
sg246
((lp992
F40.209999999999127
tp993
sg296
((lp994
F40.059999999997672
tp995
sg346
((lp996
F40.870000000002619
tp997
sg402
((lp998
F41.040000000000873
tp999
ssba(imeasure_core
ProblemSetSolution
p1000
(dp1001
g3
g468
sg149
g972
sg152
(dp1002
g471
((lp1003
F40.279999999998836
tp1004
sg519
((lp1005
F60.489999999997963
tp1006
sg567
((lp1007
F40.230000000003201
tp1008
sg615
((lp1009
F42.369999999995343
tp1010
sg656
((lp1011
F48.930000000000291
tp1012
ssba(imeasure_core
ProblemSetSolution
p1013
(dp1014
g3
g4
sg149
S"AnytimeBeam-w20-gf(1.7, 'exp')_with_LinearHeuristic"
p1015
sg152
(dp1016
g8
((lp1017
(F0.010000000002037268
I24
tp1018
aF40.0
tp1019
sg41
((lp1020
F40.489999999997963
tp1021
sg98
((lp1022
(F0.010000000002037268
I23
tp1023
aF40.0
tp1024
sg70
((lp1025
F40.270000000004075
tp1026
sg124
((lp1027
(F1.4899999999979627
I4
tp1028
aF40.180000000000291
tp1029
ssba(imeasure_core
ProblemSetSolution
p1030
(dp1031
g3
g191
sg149
g1015
sg152
(dp1032
g194
((lp1033
F40.759999999994761
tp1034
sg246
((lp1035
F40.080000000001746
tp1036
sg296
((lp1037
F40.010000000002037
tp1038
sg346
((lp1039
F41.069999999999709
tp1040
sg402
((lp1041
F41.110000000000582
tp1042
ssba(imeasure_core
ProblemSetSolution
p1043
(dp1044
g3
g468
sg149
g1015
sg152
(dp1045
g471
((lp1046
F40.410000000003492
tp1047
sg519
((lp1048
F60.790000000000873
tp1049
sg567
((lp1050
F40.169999999998254
tp1051
sg615
((lp1052
F42.279999999998836
tp1053
sg656
((lp1054
F48.739999999997963
tp1055
ssba(imeasure_core
ProblemSetSolution
p1056
(dp1057
g3
g4
sg149
S"AnytimeBeam-w20-gf(1.8999999999999999, 'exp')_with_LinearHeuristic"
p1058
sg152
(dp1059
g8
((lp1060
(F0.020000000004074536
I24
tp1061
aF40.0
tp1062
sg41
((lp1063
F40.960000000006403
tp1064
sg98
((lp1065
(F0.019999999996798579
I23
tp1066
aF40.0
tp1067
sg70
((lp1068
F40.319999999999709
tp1069
sg124
((lp1070
(F1.4699999999938882
I4
tp1071
aF40.379999999997381
tp1072
ssba(imeasure_core
ProblemSetSolution
p1073
(dp1074
g3
g191
sg149
g1058
sg152
(dp1075
g194
((lp1076
F40.720000000001164
tp1077
sg246
((lp1078
F40.489999999997963
tp1079
sg296
((lp1080
F40.010000000002037
tp1081
sg346
((lp1082
F40.869999999995343
tp1083
sg402
((lp1084
F40.069999999999709
tp1085
ssba(imeasure_core
ProblemSetSolution
p1086
(dp1087
g3
g468
sg149
g1058
sg152
(dp1088
g471
((lp1089
F40.610000000000582
tp1090
sg519
((lp1091
F60.5
tp1092
sg567
((lp1093
F40.069999999999709
tp1094
sg615
((lp1095
F42.299999999995634
tp1096
sg656
((lp1097
F48.930000000000291
tp1098
ssba.