(lp0
(imeasure_core
ProblemSetSolution
p1
(dp2
S'roomset'
p3
(imeasure_core
RoomSet
p4
(dp5
S'rooms'
p6
(dp7
(iproblems
RoomID
p8
(dp9
S'width'
p10
I10
sS'dusts'
p11
I8
sS'seed'
p12
I5594871498841892311
sS'obstacles'
p13
(I5
I7
tp14
sS'robots'
p15
I5
sS'height'
p16
I9
sb(imulti_robot_problem
MultiRobotState
p17
(dp18
S'obstacle_locations'
p19
c__builtin__
frozenset
p20
((lp21
(I4
I7
tp22
ag14
a(I8
I3
tp23
a(I3
I6
tp24
a(I5
I1
tp25
a(I1
I0
tp26
a(I5
I8
tp27
atp28
Rp29
sg10
I10
sS'dirt_locations'
p30
g20
((lp31
(I0
I1
tp32
a(I9
I0
tp33
a(I8
I2
tp34
a(I6
I0
tp35
a(I2
I4
tp36
a(I1
I5
tp37
a(I9
I4
tp38
a(I1
I1
tp39
atp40
Rp41
sg15
((I7
I6
tp42
(I8
I4
tp43
(I5
I4
tp44
(I7
I2
tp45
(I7
I8
tp46
tp47
sg16
I9
sbs(iproblems
RoomID
p48
(dp49
g10
I8
sg11
I6
sg12
I8833747186876682921
sg13
(I4
I4
tp50
sg15
I5
sg16
I7
sb(imulti_robot_problem
MultiRobotState
p51
(dp52
g19
g20
((lp53
g50
a(I3
I4
tp54
a(I3
I3
tp55
a(I3
I5
tp56
a(I2
I2
tp57
atp58
Rp59
sg10
I8
sg30
g20
((lp60
(I6
I4
tp61
a(I5
I4
tp62
a(I1
I3
tp63
a(I5
I1
tp64
a(I0
I3
tp65
a(I5
I3
tp66
atp67
Rp68
sg15
((I2
I1
tp69
(I6
I1
tp70
(I3
I1
tp71
(I5
I0
tp72
(I7
I3
tp73
tp74
sg16
I7
sbs(iproblems
RoomID
p75
(dp76
g10
I10
sg11
I5
sg12
I1662056218554549082
sg13
(I6
I4
tp77
sg15
I2
sg16
I8
sb(imulti_robot_problem
MultiRobotState
p78
(dp79
g19
g20
((lp80
g77
a(I4
I6
tp81
a(I4
I4
tp82
a(I3
I6
tp83
a(I9
I6
tp84
a(I5
I5
tp85
atp86
Rp87
sg10
I10
sg30
g20
((lp88
(I4
I5
tp89
a(I3
I3
tp90
a(I8
I3
tp91
a(I7
I7
tp92
a(I8
I4
tp93
atp94
Rp95
sg15
((I9
I3
tp96
(I2
I0
tp97
tp98
sg16
I8
sbs(iproblems
RoomID
p99
(dp100
g10
I9
sg11
I7
sg12
I365562409358139953
sg13
(I5
I2
tp101
sg15
I5
sg16
I8
sb(imulti_robot_problem
MultiRobotState
p102
(dp103
g19
g20
((lp104
(I6
I4
tp105
a(I5
I5
tp106
a(I2
I1
tp107
a(I3
I7
tp108
a(I2
I5
tp109
ag101
a(I0
I2
tp110
a(I5
I3
tp111
atp112
Rp113
sg10
I9
sg30
g20
((lp114
(I8
I2
tp115
a(I4
I5
tp116
a(I5
I7
tp117
a(I2
I0
tp118
a(I1
I6
tp119
a(I8
I6
tp120
a(I3
I4
tp121
atp122
Rp123
sg15
((I4
I2
tp124
(I8
I3
tp125
(I6
I3
tp126
(I2
I4
tp127
(I6
I7
tp128
tp129
sg16
I8
sbs(iproblems
RoomID
p130
(dp131
g10
I8
sg11
I6
sg12
I1085536589165212248
sg13
(I2
I3
tp132
sg15
I1
sg16
I8
sb(imulti_robot_problem
MultiRobotState
p133
(dp134
g19
g20
((lp135
(I0
I7
tp136
a(I1
I5
tp137
ag132
a(I1
I4
tp138
a(I1
I6
tp139
a(I4
I0
tp140
atp141
Rp142
sg10
I8
sg30
g20
((lp143
(I0
I1
tp144
a(I1
I2
tp145
a(I7
I3
tp146
a(I6
I0
tp147
a(I2
I1
tp148
a(I5
I1
tp149
atp150
Rp151
sg15
((I3
I2
tp152
tp153
sg16
I8
sbssS'name'
p154
S'easy_roomset'
p155
sbsS'name'
p156
S"AnytimeBeam-w5-gf(1.3, 'exp')_with_PowerHeuristic2"
p157
sS'solutions'
p158
(dp159
g8
((lp160
(F2.0299999999988358
I13
tp161
aF40.18999999999869
tp162
sg48
((lp163
(F0.46000000000276486
I4
tp164
aF40.330000000001746
tp165
sg75
((lp166
(F0.020000000000436557
I7
tp167
aF40.0
tp168
sg99
((lp169
F40.139999999999418
tp170
sg130
((lp171
(F0.060000000001309672
I36
tp172
a(F0.099999999998544808
I32
tp173
a(F0.25
I30
tp174
a(F1.1599999999998545
I28
tp175
a(F1.5
I27
tp176
a(F1.8800000000010186
I25
tp177
a(F2.2099999999991269
I23
tp178
a(F2.930000000000291
I21
tp179
a(F4.0
I20
tp180
a(F5.4099999999998545
I19
tp181
a(F7.0800000000017462
I17
tp182
a(F8.7099999999991269
I15
tp183
aF40.0
tp184
ssba(imeasure_core
ProblemSetSolution
p185
(dp186
g3
(imeasure_core
RoomSet
p187
(dp188
S'rooms'
p189
(dp190
(iproblems
RoomID
p191
(dp192
S'width'
p193
I12
sS'dusts'
p194
I8
sS'seed'
p195
I5594871498841892311
sS'obstacles'
p196
(I9
I3
tp197
sS'robots'
p198
I4
sS'height'
p199
I11
sb(imulti_robot_problem
MultiRobotState
p200
(dp201
S'obstacle_locations'
p202
g20
((lp203
(I5
I9
tp204
a(I6
I9
tp205
a(I9
I1
tp206
a(I4
I8
tp207
a(I8
I0
tp208
a(I9
I4
tp209
a(I3
I7
tp210
a(I5
I8
tp211
a(I10
I8
tp212
a(I9
I0
tp213
a(I8
I10
tp214
a(I5
I0
tp215
a(I10
I0
tp216
ag197
a(I11
I9
tp217
a(I6
I0
tp218
a(I4
I2
tp219
a(I7
I9
tp220
a(I7
I0
tp221
a(I6
I8
tp222
a(I9
I2
tp223
a(I5
I7
tp224
a(I9
I9
tp225
a(I2
I0
tp226
a(I0
I9
tp227
a(I10
I2
tp228
atp229
Rp230
sg193
I12
sS'dirt_locations'
p231
g20
((lp232
(I2
I6
tp233
a(I11
I5
tp234
a(I6
I1
tp235
a(I11
I1
tp236
a(I2
I1
tp237
a(I8
I8
tp238
a(I0
I2
tp239
a(I3
I5
tp240
atp241
Rp242
sg198
((I9
I7
tp243
(I10
I5
tp244
(I6
I5
tp245
(I8
I3
tp246
tp247
sg199
I11
sbs(iproblems
RoomID
p248
(dp249
g193
I10
sg194
I6
sg195
I8833747186876682921
sg196
(I9
I4
tp250
sg198
I4
sg199
I9
sb(imulti_robot_problem
MultiRobotState
p251
(dp252
g202
g20
((lp253
(I2
I7
tp254
a(I4
I7
tp255
a(I5
I5
tp256
a(I4
I8
tp257
a(I4
I5
tp258
a(I4
I1
tp259
a(I3
I6
tp260
a(I8
I3
tp261
a(I2
I1
tp262
a(I8
I8
tp263
a(I7
I4
tp264
a(I5
I6
tp265
a(I7
I5
tp266
a(I2
I3
tp267
ag250
a(I2
I5
tp268
a(I3
I4
tp269
a(I1
I1
tp270
a(I6
I5
tp271
a(I3
I5
tp272
atp273
Rp274
sg193
I10
sg231
g20
((lp275
(I3
I2
tp276
a(I7
I0
tp277
a(I0
I7
tp278
a(I6
I2
tp279
a(I1
I4
tp280
a(I0
I4
tp281
atp282
Rp283
sg198
((I3
I1
tp284
(I8
I1
tp285
(I3
I3
tp286
(I4
I2
tp287
tp288
sg199
I9
sbs(iproblems
RoomID
p289
(dp290
g193
I12
sg194
I8
sg195
I4800841617172907184
sg196
(I4
I6
tp291
sg198
I3
sg199
I9
sb(imulti_robot_problem
MultiRobotState
p292
(dp293
g202
g20
((lp294
(I10
I1
tp295
a(I6
I6
tp296
a(I9
I8
tp297
a(I2
I1
tp298
a(I8
I5
tp299
a(I7
I2
tp300
a(I3
I3
tp301
a(I6
I3
tp302
a(I8
I6
tp303
a(I9
I7
tp304
a(I5
I4
tp305
a(I7
I1
tp306
a(I4
I5
tp307
a(I9
I3
tp308
a(I6
I0
tp309
a(I8
I7
tp310
a(I4
I2
tp311
a(I5
I3
tp312
a(I8
I3
tp313
ag291
a(I11
I8
tp314
a(I3
I1
tp315
a(I11
I3
tp316
a(I0
I6
tp317
a(I4
I3
tp318
a(I8
I4
tp319
atp320
Rp321
sg193
I12
sg231
g20
((lp322
(I11
I4
tp323
a(I8
I2
tp324
a(I10
I7
tp325
a(I7
I6
tp326
a(I1
I4
tp327
a(I11
I0
tp328
a(I9
I2
tp329
a(I0
I2
tp330
atp331
Rp332
sg198
((I9
I1
tp333
(I0
I4
tp334
(I7
I4
tp335
tp336
sg199
I9
sbs(iproblems
RoomID
p337
(dp338
g193
I9
sg194
I10
sg195
I6645345695289302126
sg196
(I4
I8
tp339
sg198
I3
sg199
I11
sb(imulti_robot_problem
MultiRobotState
p340
(dp341
g202
g20
((lp342
(I5
I9
tp343
a(I3
I2
tp344
a(I4
I4
tp345
a(I4
I6
tp346
ag339
a(I4
I5
tp347
a(I3
I4
tp348
a(I6
I1
tp349
a(I3
I1
tp350
a(I1
I4
tp351
a(I1
I1
tp352
a(I3
I8
tp353
a(I1
I5
tp354
a(I8
I4
tp355
a(I4
I3
tp356
a(I3
I7
tp357
a(I4
I2
tp358
a(I3
I5
tp359
a(I4
I1
tp360
a(I2
I4
tp361
a(I3
I3
tp362
atp363
Rp364
sg193
I9
sg231
g20
((lp365
(I0
I1
tp366
a(I5
I4
tp367
a(I6
I7
tp368
a(I8
I2
tp369
a(I3
I6
tp370
a(I8
I8
tp371
a(I2
I3
tp372
a(I8
I7
tp373
a(I1
I0
tp374
a(I5
I5
tp375
atp376
Rp377
sg198
((I1
I6
tp378
(I0
I9
tp379
(I0
I5
tp380
tp381
sg199
I11
sbs(iproblems
RoomID
p382
(dp383
g193
I11
sg194
I7
sg195
I365562409358139953
sg196
(I8
I4
tp384
sg198
I4
sg199
I10
sb(imulti_robot_problem
MultiRobotState
p385
(dp386
g202
g20
((lp387
(I5
I9
tp388
a(I7
I3
tp389
a(I2
I8
tp390
a(I6
I2
tp391
a(I1
I6
tp392
a(I9
I4
tp393
a(I10
I8
tp394
a(I6
I7
tp395
a(I10
I7
tp396
a(I7
I6
tp397
a(I4
I8
tp398
a(I8
I6
tp399
a(I9
I7
tp400
a(I6
I4
tp401
a(I7
I5
tp402
a(I0
I5
tp403
a(I8
I7
tp404
a(I9
I6
tp405
a(I6
I5
tp406
a(I10
I5
tp407
a(I6
I1
tp408
a(I3
I1
tp409
a(I3
I8
tp410
a(I5
I2
tp411
ag384
atp412
Rp413
sg193
I11
sg231
g20
((lp414
(I6
I9
tp415
a(I5
I6
tp416
a(I2
I1
tp417
a(I4
I5
tp418
a(I1
I7
tp419
a(I10
I3
tp420
a(I0
I2
tp421
atp422
Rp423
sg198
((I10
I4
tp424
(I7
I4
tp425
(I3
I6
tp426
(I8
I9
tp427
tp428
sg199
I10
sbssS'name'
p429
S'mild_roomset'
p430
sbsg156
g157
sg158
(dp431
g191
((lp432
(F0.81999999999970896
I32
tp433
aF40.299999999999272
tp434
sg248
((lp435
(F0.85000000000218279
I32
tp436
aF40.010000000002037
tp437
sg289
((lp438
(F0.16999999999825377
I22
tp439
a(F0.28999999999723514
I17
tp440
aF40.0
tp441
sg337
((lp442
(F11.039999999997235
I127
tp443
aF40.0
tp444
sg382
((lp445
(F0.16999999999825377
I25
tp446
aF40.049999999999272
tp447
ssba(imeasure_core
ProblemSetSolution
p448
(dp449
g3
(imeasure_core
RoomSet
p450
(dp451
S'rooms'
p452
(dp453
(iproblems
RoomID
p454
(dp455
S'width'
p456
I13
sS'dusts'
p457
I13
sS'seed'
p458
I5594871498841892311
sS'obstacles'
p459
(I9
I8
tp460
sS'robots'
p461
I7
sS'height'
p462
I12
sb(imulti_robot_problem
MultiRobotState
p463
(dp464
S'obstacle_locations'
p465
g20
((lp466
(I5
I9
tp467
a(I6
I9
tp468
a(I1
I3
tp469
a(I6
I7
tp470
a(I10
I4
tp471
a(I4
I8
tp472
ag460
a(I6
I10
tp473
a(I11
I3
tp474
a(I1
I4
tp475
a(I8
I10
tp476
a(I9
I7
tp477
a(I5
I0
tp478
a(I9
I5
tp479
a(I8
I6
tp480
a(I7
I9
tp481
a(I9
I6
tp482
a(I10
I0
tp483
a(I6
I8
tp484
a(I5
I5
tp485
atp486
Rp487
sg456
I13
sS'dirt_locations'
p488
g20
((lp489
(I2
I7
tp490
a(I10
I5
tp491
a(I11
I5
tp492
a(I6
I1
tp493
a(I8
I0
tp494
a(I2
I1
tp495
a(I2
I0
tp496
a(I0
I10
tp497
a(I7
I10
tp498
a(I12
I10
tp499
a(I5
I2
tp500
a(I0
I2
tp501
a(I3
I5
tp502
atp503
Rp504
sg461
((I10
I8
tp505
(I11
I6
tp506
(I7
I5
tp507
(I9
I3
tp508
(I9
I11
tp509
(I12
I1
tp510
(I9
I9
tp511
tp512
sg462
I12
sbs(iproblems
RoomID
p513
(dp514
g456
I11
sg457
I11
sg458
I8833747186876682921
sg459
(I8
I7
tp515
sg461
I7
sg462
I10
sb(imulti_robot_problem
MultiRobotState
p516
(dp517
g465
g20
((lp518
(I4
I4
tp519
a(I6
I7
tp520
a(I5
I5
tp521
a(I4
I8
tp522
a(I4
I5
tp523
a(I5
I7
tp524
a(I2
I1
tp525
a(I6
I3
tp526
a(I8
I1
tp527
a(I8
I8
tp528
a(I3
I3
tp529
ag515
a(I5
I1
tp530
a(I10
I2
tp531
a(I7
I8
tp532
a(I4
I6
tp533
atp534
Rp535
sg456
I11
sg488
g20
((lp536
(I10
I5
tp537
a(I7
I6
tp538
a(I4
I7
tp539
a(I1
I4
tp540
a(I9
I9
tp541
a(I3
I8
tp542
a(I0
I5
tp543
a(I8
I6
tp544
a(I2
I5
tp545
a(I0
I8
tp546
a(I7
I2
tp547
atp548
Rp549
sg461
((I3
I1
tp550
(I9
I1
tp551
(I5
I2
tp552
(I4
I3
tp553
(I8
I0
tp554
(I10
I4
tp555
(I8
I5
tp556
tp557
sg462
I10
sbs(iproblems
RoomID
p558
(dp559
g456
I12
sg457
I12
sg458
I365562409358139953
sg459
(I0
I5
tp560
sg461
I7
sg462
I11
sb(imulti_robot_problem
MultiRobotState
p561
(dp562
g465
g20
((lp563
(I8
I6
tp564
a(I1
I3
tp565
a(I2
I9
tp566
a(I6
I6
tp567
a(I10
I7
tp568
a(I5
I2
tp569
a(I7
I6
tp570
a(I3
I1
tp571
a(I2
I2
tp572
a(I4
I8
tp573
a(I7
I5
tp574
ag560
a(I8
I7
tp575
a(I0
I4
tp576
a(I4
I2
tp577
a(I3
I9
tp578
a(I7
I8
tp579
a(I11
I6
tp580
a(I8
I4
tp581
atp582
Rp583
sg456
I12
sg488
g20
((lp584
(I3
I2
tp585
a(I5
I7
tp586
a(I4
I9
tp587
a(I10
I4
tp588
a(I11
I9
tp589
a(I2
I1
tp590
a(I0
I6
tp591
a(I1
I6
tp592
a(I5
I10
tp593
a(I7
I10
tp594
a(I3
I7
tp595
a(I0
I2
tp596
atp597
Rp598
sg461
((I6
I3
tp599
(I10
I5
tp600
(I3
I6
tp601
(I8
I10
tp602
(I4
I6
tp603
(I11
I3
tp604
(I1
I8
tp605
tp606
sg462
I11
sbs(iproblems
RoomID
p607
(dp608
g456
I10
sg457
I13
sg458
I5338040351619750409
sg459
(I3
I8
tp609
sg461
I5
sg462
I10
sb(imulti_robot_problem
MultiRobotState
p610
(dp611
g465
g20
((lp612
(I4
I7
tp613
a(I2
I6
tp614
a(I9
I1
tp615
a(I2
I8
tp616
a(I6
I1
tp617
a(I1
I4
tp618
ag609
a(I1
I6
tp619
a(I4
I3
tp620
a(I1
I7
tp621
a(I2
I5
tp622
a(I6
I8
tp623
a(I2
I4
tp624
a(I9
I7
tp625
atp626
Rp627
sg456
I10
sg488
g20
((lp628
(I8
I3
tp629
a(I1
I3
tp630
a(I4
I9
tp631
a(I4
I6
tp632
a(I6
I6
tp633
a(I6
I9
tp634
a(I2
I1
tp635
a(I8
I9
tp636
a(I1
I8
tp637
a(I7
I5
tp638
a(I3
I6
tp639
a(I9
I6
tp640
a(I4
I0
tp641
atp642
Rp643
sg461
((I2
I0
tp644
(I3
I5
tp645
(I5
I0
tp646
(I5
I2
tp647
(I4
I5
tp648
tp649
sg462
I10
sbs(iproblems
RoomID
p650
(dp651
g456
I11
sg457
I11
sg458
I1085536589165212248
sg459
(I4
I6
tp652
sg461
I5
sg462
I11
sb(imulti_robot_problem
MultiRobotState
p653
(dp654
g465
g20
((lp655
(I10
I5
tp656
a(I2
I6
tp657
a(I3
I2
tp658
ag652
a(I9
I3
tp659
a(I9
I9
tp660
a(I1
I8
tp661
a(I1
I9
tp662
a(I1
I7
tp663
a(I3
I7
tp664
a(I6
I9
tp665
a(I5
I8
tp666
a(I3
I3
tp667
atp668
Rp669
sg456
I11
sg488
g20
((lp670
(I0
I1
tp671
a(I4
I9
tp672
a(I10
I4
tp673
a(I10
I7
tp674
a(I6
I0
tp675
a(I0
I7
tp676
a(I2
I3
tp677
a(I1
I4
tp678
a(I2
I2
tp679
a(I10
I0
tp680
a(I0
I10
tp681
atp682
Rp683
sg461
((I5
I3
tp684
(I0
I2
tp685
(I3
I1
tp686
(I7
I1
tp687
(I9
I0
tp688
tp689
sg462
I11
sbssS'name'
p690
S'heavy_roomset'
p691
sbsg156
g157
sg158
(dp692
g454
((lp693
F40.450000000000728
tp694
sg513
((lp695
(F20.669999999998254
I19
tp696
aF40.389999999999418
tp697
sg558
((lp698
F40.380000000001019
tp699
sg607
((lp700
(F1.9799999999995634
I16
tp701
aF40.029999999998836
tp702
sg650
((lp703
(F1.7799999999988358
I15
tp704
aF40.009999999998399
tp705
ssba(imeasure_core
ProblemSetSolution
p706
(dp707
g3
g4
sg156
S"AnytimeBeam-w15-gf(1.3, 'exp')_with_PowerHeuristic2"
p708
sg158
(dp709
g8
((lp710
(F2.7299999999995634
I13
tp711
aF40.399999999997817
tp712
sg48
((lp713
(F0.52000000000043656
I4
tp714
aF40.240000000001601
tp715
sg75
((lp716
(F0.020000000000436557
I7
tp717
aF40.0
tp718
sg99
((lp719
F40.150000000001455
tp720
sg130
((lp721
(F0.039999999997235136
I32
tp722
a(F0.19999999999708962
I30
tp723
a(F1.1199999999989814
I28
tp724
a(F1.4699999999975262
I27
tp725
a(F1.8399999999965075
I25
tp726
a(F2.1699999999982538
I23
tp727
a(F2.8799999999973807
I21
tp728
a(F3.9599999999991269
I20
tp729
a(F5.3799999999973807
I19
tp730
a(F7.0599999999976717
I17
tp731
a(F8.6799999999966531
I15
tp732
aF40.0
tp733
ssba(imeasure_core
ProblemSetSolution
p734
(dp735
g3
g187
sg156
g708
sg158
(dp736
g191
((lp737
(F1.0599999999976717
I32
tp738
aF40.049999999999272
tp739
sg248
((lp740
(F1.3299999999981083
I32
tp741
aF40.090000000000146
tp742
sg289
((lp743
(F0.15999999999985448
I17
tp744
aF40.0
tp745
sg337
((lp746
(F12.869999999998981
I127
tp747
aF40.020000000000437
tp748
sg382
((lp749
(F0.25
I25
tp750
aF40.049999999999272
tp751
ssba(imeasure_core
ProblemSetSolution
p752
(dp753
g3
g450
sg156
g708
sg158
(dp754
g454
((lp755
F40.639999999999418
tp756
sg513
((lp757
(F22.360000000000582
I19
tp758
aF40.549999999999272
tp759
sg558
((lp760
F40.040000000000873
tp761
sg607
((lp762
(F2.3899999999994179
I16
tp763
aF40.209999999999127
tp764
sg650
((lp765
(F1.9700000000011642
I15
tp766
aF40.069999999999709
tp767
ssba(imeasure_core
ProblemSetSolution
p768
(dp769
g3
g4
sg156
S"AnytimeBeam-w25-gf(1.3, 'exp')_with_PowerHeuristic2"
p770
sg158
(dp771
g8
((lp772
(F2.8499999999985448
I13
tp773
aF40.389999999999418
tp774
sg48
((lp775
(F0.56999999999970896
I4
tp776
aF41.159999999999854
tp777
sg75
((lp778
(F0.029999999998835847
I7
tp779
aF40.0
tp780
sg99
((lp781
F40.090000000000146
tp782
sg130
((lp783
(F0.069999999999708962
I30
tp784
a(F0.96999999999752617
I28
tp785
a(F1.319999999999709
I27
tp786
a(F1.7000000000007276
I25
tp787
a(F2.0200000000004366
I23
tp788
a(F2.7299999999995634
I21
tp789
a(F3.7999999999992724
I20
tp790
a(F5.2099999999991269
I19
tp791
a(F6.8800000000010186
I17
tp792
a(F8.4799999999995634
I15
tp793
aF40.0
tp794
ssba(imeasure_core
ProblemSetSolution
p795
(dp796
g3
g187
sg156
g770
sg158
(dp797
g191
((lp798
(F1.1700000000018917
I32
tp799
aF40.080000000001746
tp800
sg248
((lp801
(F1.5099999999983993
I32
tp802
aF40.090000000000146
tp803
sg289
((lp804
(F0.16999999999825377
I17
tp805
aF40.009999999998399
tp806
sg337
((lp807
(F9.1500000000014552
I127
tp808
aF40.0
tp809
sg382
((lp810
(F0.31999999999970896
I25
tp811
aF40.090000000000146
tp812
ssba(imeasure_core
ProblemSetSolution
p813
(dp814
g3
g450
sg156
g770
sg158
(dp815
g454
((lp816
F40.519999999996799
tp817
sg513
((lp818
(F22.490000000001601
I19
tp819
aF40.040000000000873
tp820
sg558
((lp821
F40.130000000001019
tp822
sg607
((lp823
(F2.5099999999983993
I16
tp824
aF40.209999999999127
tp825
sg650
((lp826
(F2.0900000000001455
I15
tp827
aF40.020000000000437
tp828
ssba(imeasure_core
ProblemSetSolution
p829
(dp830
g3
g4
sg156
S"AnytimeBeam-w35-gf(1.3, 'exp')_with_PowerHeuristic2"
p831
sg158
(dp832
g8
((lp833
(F3.1900000000023283
I13
tp834
aF40.240000000001601
tp835
sg48
((lp836
(F0.61000000000058208
I4
tp837
aF40.279999999998836
tp838
sg75
((lp839
(F0.030000000002473826
I7
tp840
aF40.010000000002037
tp841
sg99
((lp842
F40.270000000000437
tp843
sg130
((lp844
(F0.069999999999708962
I30
tp845
a(F0.80999999999767169
I28
tp846
a(F1.1599999999998545
I27
tp847
a(F1.5399999999972351
I25
tp848
a(F1.8699999999989814
I23
tp849
a(F2.5799999999981083
I21
tp850
a(F3.6399999999994179
I20
tp851
a(F5.0599999999976717
I19
tp852
a(F6.7299999999995634
I17
tp853
a(F8.3499999999985448
I15
tp854
aF40.0
tp855
ssba(imeasure_core
ProblemSetSolution
p856
(dp857
g3
g187
sg156
g831
sg158
(dp858
g191
((lp859
(F1.2899999999972351
I32
tp860
aF40.279999999998836
tp861
sg248
((lp862
(F1.7099999999991269
I32
tp863
aF40.509999999998399
tp864
sg289
((lp865
(F0.2000000000007276
I17
tp866
aF40.020000000000437
tp867
sg337
((lp868
(F6.7900000000008731
I127
tp869
aF40.0
tp870
sg382
((lp871
(F0.38999999999941792
I25
tp872
aF40.010000000002037
tp873
ssba(imeasure_core
ProblemSetSolution
p874
(dp875
g3
g450
sg156
g831
sg158
(dp876
g454
((lp877
F40.690000000002328
tp878
sg513
((lp879
(F23.299999999999272
I19
tp880
aF41.069999999999709
tp881
sg558
((lp882
F40.289999999997235
tp883
sg607
((lp884
(F2.7200000000011642
I16
tp885
aF40.280000000002474
tp886
sg650
((lp887
(F2.2399999999979627
I15
tp888
aF40.279999999998836
tp889
ssba(imeasure_core
ProblemSetSolution
p890
(dp891
g3
g4
sg156
S"AnytimeBeam-w45-gf(1.3, 'exp')_with_PowerHeuristic2"
p892
sg158
(dp893
g8
((lp894
(F3.2999999999992724
I13
tp895
aF40.150000000001455
tp896
sg48
((lp897
(F0.65999999999985448
I4
tp898
aF40.270000000000437
tp899
sg75
((lp900
(F0.039999999997235136
I7
tp901
aF40.009999999998399
tp902
sg99
((lp903
F40.25
tp904
sg130
((lp905
(F0.069999999999708962
I30
tp906
a(F0.59999999999854481
I28
tp907
a(F0.9500000000007276
I27
tp908
a(F1.3299999999981083
I25
tp909
a(F1.6599999999998545
I23
tp910
a(F2.3800000000010186
I21
tp911
a(F3.4500000000007276
I20
tp912
a(F4.8600000000005821
I19
tp913
a(F6.5299999999988358
I17
tp914
a(F8.1399999999994179
I15
tp915
aF40.0
tp916
ssba(imeasure_core
ProblemSetSolution
p917
(dp918
g3
g187
sg156
g892
sg158
(dp919
g191
((lp920
(F1.3800000000010186
I32
tp921
aF40.220000000001164
tp922
sg248
((lp923
(F1.819999999999709
I32
tp924
aF40.039999999997235
tp925
sg289
((lp926
(F0.21000000000276486
I17
tp927
aF40.010000000002037
tp928
sg337
((lp929
(F8.1300000000010186
I127
tp930
aF40.0
tp931
sg382
((lp932
(F0.45999999999912689
I25
tp933
aF40.040000000000873
tp934
ssba(imeasure_core
ProblemSetSolution
p935
(dp936
g3
g450
sg156
g892
sg158
(dp937
g454
((lp938
F40.150000000001455
tp939
sg513
((lp940
(F23.669999999998254
I19
tp941
aF40.020000000000437
tp942
sg558
((lp943
F40.049999999999272
tp944
sg607
((lp945
(F2.8299999999981083
I16
tp946
aF40.149999999997817
tp947
sg650
((lp948
(F2.3500000000021828
I15
tp949
aF40.409999999999854
tp950
ssba(imeasure_core
ProblemSetSolution
p951
(dp952
g3
g4
sg156
S"AnytimeBeam-w5-gf(1.3, 'exp')_with_LinearHeuristic"
p953
sg158
(dp954
g8
((lp955
F40.149999999997817
tp956
sg48
((lp957
(F0.65999999999985448
I4
tp958
aF40.210000000002765
tp959
sg75
((lp960
(F0.020000000000436557
I7
tp961
aF40.009999999998399
tp962
sg99
((lp963
(F1.8499999999985448
I17
tp964
aF40.260000000002037
tp965
sg130
((lp966
(F0.0099999999983992893
I15
tp967
aF40.0
tp968
ssba(imeasure_core
ProblemSetSolution
p969
(dp970
g3
g187
sg156
g953
sg158
(dp971
g191
((lp972
F40.069999999999709
tp973
sg248
((lp974
F40.019999999996799
tp975
sg289
((lp976
F40.130000000001019
tp977
sg337
((lp978
F40.040000000000873
tp979
sg382
((lp980
F40.079999999998108
tp981
ssba(imeasure_core
ProblemSetSolution
p982
(dp983
g3
g450
sg156
g953
sg158
(dp984
g454
((lp985
F43.130000000001019
tp986
sg513
((lp987
F43.289999999997235
tp988
sg558
((lp989
F40.470000000001164
tp990
sg607
((lp991
F40.119999999998981
tp992
sg650
((lp993
F40.210000000002765
tp994
ssba(imeasure_core
ProblemSetSolution
p995
(dp996
g3
g4
sg156
S"AnytimeBeam-w15-gf(1.3, 'exp')_with_LinearHeuristic"
p997
sg158
(dp998
g8
((lp999
F40.919999999998254
tp1000
sg48
((lp1001
(F0.90000000000145519
I4
tp1002
aF40.56000000000131
tp1003
sg75
((lp1004
(F0.029999999998835847
I7
tp1005
aF40.0
tp1006
sg99
((lp1007
(F2.6699999999982538
I17
tp1008
aF40.319999999999709
tp1009
sg130
((lp1010
(F0.0099999999983992893
I15
tp1011
aF40.0
tp1012
ssba(imeasure_core
ProblemSetSolution
p1013
(dp1014
g3
g187
sg156
g997
sg158
(dp1015
g191
((lp1016
F40.090000000000146
tp1017
sg248
((lp1018
F40.139999999999418
tp1019
sg289
((lp1020
F40.119999999998981
tp1021
sg337
((lp1022
F40.030000000002474
tp1023
sg382
((lp1024
F40.009999999998399
tp1025
ssba(imeasure_core
ProblemSetSolution
p1026
(dp1027
g3
g450
sg156
g997
sg158
(dp1028
g454
((lp1029
F43.279999999998836
tp1030
sg513
((lp1031
F40.010000000002037
tp1032
sg558
((lp1033
F41.229999999999563
tp1034
sg607
((lp1035
F40.059999999997672
tp1036
sg650
((lp1037
F40.210000000002765
tp1038
ssba(imeasure_core
ProblemSetSolution
p1039
(dp1040
g3
g4
sg156
S"AnytimeBeam-w25-gf(1.3, 'exp')_with_LinearHeuristic"
p1041
sg158
(dp1042
g8
((lp1043
F40.170000000001892
tp1044
sg48
((lp1045
(F0.94999999999708962
I4
tp1046
aF40.119999999998981
tp1047
sg75
((lp1048
(F0.029999999998835847
I7
tp1049
aF40.0
tp1050
sg99
((lp1051
(F2.7900000000008731
I17
tp1052
aF40.029999999998836
tp1053
sg130
((lp1054
(F0.010000000002037268
I15
tp1055
aF40.0
tp1056
ssba(imeasure_core
ProblemSetSolution
p1057
(dp1058
g3
g187
sg156
g1041
sg158
(dp1059
g191
((lp1060
F40.080000000001746
tp1061
sg248
((lp1062
(F36.669999999998254
I229
tp1063
aF40.099999999998545
tp1064
sg289
((lp1065
F40.06000000000131
tp1066
sg337
((lp1067
F40.099999999998545
tp1068
sg382
((lp1069
F40.06000000000131
tp1070
ssba(imeasure_core
ProblemSetSolution
p1071
(dp1072
g3
g450
sg156
g1041
sg158
(dp1073
g454
((lp1074
F43.360000000000582
tp1075
sg513
((lp1076
F40.090000000000146
tp1077
sg558
((lp1078
F41.139999999999418
tp1079
sg607
((lp1080
F40.260000000002037
tp1081
sg650
((lp1082
F40.18999999999869
tp1083
ssba(imeasure_core
ProblemSetSolution
p1084
(dp1085
g3
g4
sg156
S"AnytimeBeam-w35-gf(1.3, 'exp')_with_LinearHeuristic"
p1086
sg158
(dp1087
g8
((lp1088
F40.200000000000728
tp1089
sg48
((lp1090
(F1.069999999999709
I4
tp1091
aF40.599999999998545
tp1092
sg75
((lp1093
(F0.040000000000873115
I7
tp1094
aF40.0
tp1095
sg99
((lp1096
(F3.1399999999994179
I17
tp1097
aF40.130000000001019
tp1098
sg130
((lp1099
(F0.0099999999983992893
I15
tp1100
aF40.0
tp1101
ssba(imeasure_core
ProblemSetSolution
p1102
(dp1103
g3
g187
sg156
g1086
sg158
(dp1104
g191
((lp1105
F40.079999999998108
tp1106
sg248
((lp1107
F40.340000000000146
tp1108
sg289
((lp1109
F40.080000000001746
tp1110
sg337
((lp1111
F40.209999999999127
tp1112
sg382
((lp1113
F40.209999999999127
tp1114
ssba(imeasure_core
ProblemSetSolution
p1115
(dp1116
g3
g450
sg156
g1086
sg158
(dp1117
g454
((lp1118
F43.530000000002474
tp1119
sg513
((lp1120
F40.009999999998399
tp1121
sg558
((lp1122
F40.240000000001601
tp1123
sg607
((lp1124
F40.180000000000291
tp1125
sg650
((lp1126
F40.099999999998545
tp1127
ssba(imeasure_core
ProblemSetSolution
p1128
(dp1129
g3
g4
sg156
S"AnytimeBeam-w45-gf(1.3, 'exp')_with_LinearHeuristic"
p1130
sg158
(dp1131
g8
((lp1132
F40.139999999999418
tp1133
sg48
((lp1134
(F1.1199999999989814
I4
tp1135
aF40.409999999999854
tp1136
sg75
((lp1137
(F0.039999999997235136
I7
tp1138
aF40.0
tp1139
sg99
((lp1140
(F3.2399999999979627
I17
tp1141
aF40.020000000000437
tp1142
sg130
((lp1143
(F0.0099999999983992893
I15
tp1144
aF40.0
tp1145
ssba(imeasure_core
ProblemSetSolution
p1146
(dp1147
g3
g187
sg156
g1130
sg158
(dp1148
g191
((lp1149
F40.180000000000291
tp1150
sg248
((lp1151
F40.079999999998108
tp1152
sg289
((lp1153
F40.090000000000146
tp1154
sg337
((lp1155
F40.150000000001455
tp1156
sg382
((lp1157
F40.0
tp1158
ssba(imeasure_core
ProblemSetSolution
p1159
(dp1160
g3
g450
sg156
g1130
sg158
(dp1161
g454
((lp1162
F43.580000000001746
tp1163
sg513
((lp1164
F40.149999999997817
tp1165
sg558
((lp1166
F40.459999999999127
tp1167
sg607
((lp1168
F40.330000000001746
tp1169
sg650
((lp1170
F40.18999999999869
tp1171
ssba.