(lp0
(imeasure_core
ProblemSetSolution
p1
(dp2
S'roomset'
p3
(imeasure_core
RoomSet
p4
(dp5
S'rooms'
p6
(dp7
(iproblems
RoomID
p8
(dp9
S'width'
p10
I10
sS'dusts'
p11
I6
sS'seed'
p12
I2405875930906139466
sS'obstacles'
p13
(I5
I1
tp14
sS'robots'
p15
I4
sS'height'
p16
I9
sb(imulti_robot_problem
MultiRobotState
p17
(dp18
S'obstacle_locations'
p19
c__builtin__
frozenset
p20
((lp21
(I7
I0
tp22
a(I7
I1
tp23
a(I6
I1
tp24
a(I6
I0
tp25
ag14
a(I7
I2
tp26
atp27
Rp28
sg10
I10
sS'dirt_locations'
p29
g20
((lp30
(I7
I3
tp31
a(I6
I4
tp32
a(I5
I6
tp33
a(I0
I7
tp34
a(I2
I1
tp35
a(I5
I2
tp36
atp37
Rp38
sg15
((I7
I6
tp39
(I3
I3
tp40
(I8
I6
tp41
(I0
I2
tp42
tp43
sg16
I9
sbs(iproblems
RoomID
p44
(dp45
g10
I7
sg11
I6
sg12
I8744744311366254845
sg13
(I6
I7
tp46
sg15
I4
sg16
I10
sb(imulti_robot_problem
MultiRobotState
p47
(dp48
g19
g20
((lp49
g46
a(I4
I6
tp50
a(I5
I7
tp51
a(I0
I6
tp52
a(I1
I9
tp53
a(I3
I7
tp54
atp55
Rp56
sg10
I7
sg29
g20
((lp57
(I2
I7
tp58
a(I0
I1
tp59
a(I5
I4
tp60
a(I6
I0
tp61
a(I5
I8
tp62
a(I5
I3
tp63
atp64
Rp65
sg15
((I0
I8
tp66
(I4
I2
tp67
(I3
I0
tp68
(I1
I4
tp69
tp70
sg16
I10
sbs(iproblems
RoomID
p71
(dp72
g10
I7
sg11
I8
sg12
I7325839828077136048
sg13
(I5
I3
tp73
sg15
I3
sg16
I7
sb(imulti_robot_problem
MultiRobotState
p74
(dp75
g19
g20
((lp76
(I6
I4
tp77
a(I5
I4
tp78
a(I5
I5
tp79
a(I6
I6
tp80
a(I3
I1
tp81
a(I6
I0
tp82
a(I2
I0
tp83
a(I0
I4
tp84
ag73
atp85
Rp86
sg10
I7
sg29
g20
((lp87
(I1
I5
tp88
a(I3
I0
tp89
a(I1
I1
tp90
a(I0
I6
tp91
a(I4
I3
tp92
a(I2
I2
tp93
a(I2
I4
tp94
a(I3
I5
tp95
atp96
Rp97
sg15
((I1
I0
tp98
(I3
I3
tp99
(I6
I2
tp100
tp101
sg16
I7
sbs(iproblems
RoomID
p102
(dp103
g10
I8
sg11
I10
sg12
I8655808914197340073
sg13
(I4
I7
tp104
sg15
I5
sg16
I10
sb(imulti_robot_problem
MultiRobotState
p105
(dp106
g19
g20
((lp107
(I2
I7
tp108
ag104
a(I4
I8
tp109
a(I6
I3
tp110
a(I7
I5
tp111
a(I3
I7
tp112
a(I1
I0
tp113
a(I5
I3
tp114
atp115
Rp116
sg10
I8
sg29
g20
((lp117
(I7
I3
tp118
a(I5
I4
tp119
a(I7
I0
tp120
a(I5
I7
tp121
a(I1
I5
tp122
a(I1
I9
tp123
a(I3
I6
tp124
a(I1
I7
tp125
a(I3
I4
tp126
a(I5
I8
tp127
atp128
Rp129
sg15
((I3
I8
tp130
(I7
I9
tp131
(I6
I1
tp132
(I2
I3
tp133
(I5
I5
tp134
tp135
sg16
I10
sbs(iproblems
RoomID
p136
(dp137
g10
I7
sg11
I6
sg12
I3537054308274871603
sg13
(I4
I6
tp138
sg15
I1
sg16
I8
sb(imulti_robot_problem
MultiRobotState
p139
(dp140
g19
g20
((lp141
(I4
I7
tp142
ag138
a(I4
I5
tp143
a(I6
I0
tp144
a(I2
I5
tp145
a(I2
I4
tp146
a(I3
I5
tp147
atp148
Rp149
sg10
I7
sg29
g20
((lp150
(I5
I6
tp151
a(I0
I6
tp152
a(I6
I2
tp153
a(I4
I1
tp154
a(I1
I1
tp155
a(I5
I3
tp156
atp157
Rp158
sg15
((I0
I3
tp159
tp160
sg16
I8
sbssS'name'
p161
S'easy_roomset'
p162
sbsS'name'
p163
S'AnytimeBest-d10_with_PowerHeuristic2'
p164
sS'solutions'
p165
(dp166
g8
((lp167
(F0.43000000000029104
I10
tp168
aF40.180000000000291
tp169
sg44
((lp170
F40.31000000000131
tp171
sg71
((lp172
F40.020000000000437
tp173
sg102
((lp174
(F1.680000000000291
I9
tp175
aF40.069999999999709
tp176
sg136
((lp177
F0.2000000000007276
tp178
ssba(imeasure_core
ProblemSetSolution
p179
(dp180
g3
(imeasure_core
RoomSet
p181
(dp182
S'rooms'
p183
(dp184
(iproblems
RoomID
p185
(dp186
S'width'
p187
I12
sS'dusts'
p188
I6
sS'seed'
p189
I2405875930906139466
sS'obstacles'
p190
(I1
I8
tp191
sS'robots'
p192
I4
sS'height'
p193
I11
sb(imulti_robot_problem
MultiRobotState
p194
(dp195
S'obstacle_locations'
p196
g20
((lp197
(I6
I6
tp198
a(I2
I8
tp199
a(I8
I0
tp200
a(I6
I2
tp201
a(I3
I7
tp202
a(I5
I5
tp203
a(I2
I9
tp204
a(I11
I5
tp205
a(I8
I1
tp206
a(I6
I3
tp207
a(I3
I6
tp208
a(I5
I3
tp209
a(I6
I4
tp210
a(I8
I2
tp211
a(I9
I10
tp212
a(I7
I5
tp213
a(I2
I3
tp214
a(I6
I5
tp215
a(I3
I3
tp216
a(I7
I0
tp217
a(I4
I6
tp218
a(I6
I1
tp219
a(I3
I1
tp220
a(I2
I0
tp221
ag191
a(I4
I3
tp222
a(I3
I4
tp223
atp224
Rp225
sg187
I12
sS'dirt_locations'
p226
g20
((lp227
(I7
I1
tp228
a(I9
I3
tp229
a(I7
I7
tp230
a(I2
I1
tp231
a(I9
I4
tp232
a(I0
I9
tp233
atp234
Rp235
sg192
((I9
I7
tp236
(I4
I4
tp237
(I10
I8
tp238
(I0
I2
tp239
tp240
sg193
I11
sbs(iproblems
RoomID
p241
(dp242
g187
I10
sg188
I10
sg189
I8655808914197340073
sg190
(I0
I5
tp243
sg192
I4
sg193
I12
sb(imulti_robot_problem
MultiRobotState
p244
(dp245
g196
g20
((lp246
(I5
I9
tp247
a(I4
I4
tp248
a(I6
I6
tp249
a(I8
I0
tp250
a(I0
I7
tp251
a(I1
I11
tp252
a(I5
I8
tp253
a(I6
I7
tp254
a(I5
I5
tp255
a(I4
I8
tp256
a(I6
I3
tp257
a(I5
I4
tp258
a(I1
I4
tp259
a(I7
I5
tp260
a(I2
I3
tp261
a(I9
I6
tp262
a(I6
I5
tp263
a(I4
I6
tp264
a(I6
I8
tp265
a(I7
I8
tp266
a(I5
I7
tp267
a(I3
I8
tp268
a(I2
I0
tp269
ag243
a(I3
I4
tp270
atp271
Rp272
sg187
I10
sg226
g20
((lp273
(I8
I3
tp274
a(I9
I0
tp275
a(I2
I9
tp276
a(I2
I11
tp277
a(I6
I9
tp278
a(I7
I7
tp279
a(I1
I7
tp280
a(I8
I6
tp281
a(I3
I5
tp282
a(I8
I4
tp283
atp284
Rp285
sg192
((I4
I9
tp286
(I8
I11
tp287
(I7
I1
tp288
(I3
I3
tp289
tp290
sg193
I12
sbs(iproblems
RoomID
p291
(dp292
g187
I12
sg188
I10
sg189
I2796939073032698495
sg190
(I11
I0
tp293
sg192
I4
sg193
I9
sb(imulti_robot_problem
MultiRobotState
p294
(dp295
g196
g20
((lp296
(I7
I3
tp297
a(I3
I1
tp298
a(I9
I1
tp299
a(I6
I6
tp300
a(I8
I0
tp301
a(I7
I7
tp302
a(I7
I2
tp303
a(I3
I3
tp304
a(I8
I1
tp305
a(I4
I8
tp306
a(I6
I3
tp307
a(I5
I8
tp308
a(I3
I6
tp309
a(I6
I4
tp310
a(I5
I4
tp311
a(I2
I6
tp312
a(I7
I1
tp313
a(I4
I5
tp314
ag293
a(I2
I3
tp315
a(I10
I1
tp316
a(I1
I0
tp317
a(I6
I5
tp318
a(I5
I3
tp319
a(I8
I3
tp320
a(I7
I0
tp321
a(I6
I8
tp322
a(I9
I2
tp323
a(I6
I1
tp324
a(I5
I7
tp325
a(I8
I8
tp326
a(I4
I3
tp327
a(I5
I2
tp328
a(I10
I2
tp329
atp330
Rp331
sg187
I12
sg226
g20
((lp332
(I1
I2
tp333
a(I11
I7
tp334
a(I3
I2
tp335
a(I2
I8
tp336
a(I9
I3
tp337
a(I1
I6
tp338
a(I5
I0
tp339
a(I0
I3
tp340
a(I0
I8
tp341
a(I4
I1
tp342
atp343
Rp344
sg192
((I10
I8
tp345
(I4
I6
tp346
(I11
I4
tp347
(I7
I8
tp348
tp349
sg193
I9
sbs(iproblems
RoomID
p350
(dp351
g187
I12
sg188
I6
sg189
I7193062864237573168
sg190
(I3
I3
tp352
sg192
I4
sg193
I12
sb(imulti_robot_problem
MultiRobotState
p353
(dp354
g196
g20
((lp355
(I1
I3
tp356
a(I6
I6
tp357
a(I0
I7
tp358
a(I1
I6
tp359
a(I2
I5
tp360
a(I10
I3
tp361
a(I3
I1
tp362
ag352
a(I9
I7
tp363
a(I6
I4
tp364
a(I5
I4
tp365
a(I7
I1
tp366
a(I9
I3
tp367
a(I2
I3
tp368
a(I0
I8
tp369
a(I8
I3
tp370
a(I5
I7
tp371
a(I11
I3
tp372
a(I7
I4
tp373
a(I0
I9
tp374
a(I3
I4
tp375
a(I2
I4
tp376
a(I8
I4
tp377
atp378
Rp379
sg187
I12
sg226
g20
((lp380
(I2
I6
tp381
a(I6
I8
tp382
a(I0
I6
tp383
a(I4
I4
tp384
a(I7
I7
tp385
a(I2
I0
tp386
atp387
Rp388
sg192
((I11
I9
tp389
(I11
I2
tp390
(I4
I11
tp391
(I3
I6
tp392
tp393
sg193
I12
sbs(iproblems
RoomID
p394
(dp395
g187
I11
sg188
I10
sg189
I4278205817407065157
sg190
(I3
I6
tp396
sg192
I4
sg193
I12
sb(imulti_robot_problem
MultiRobotState
p397
(dp398
g196
g20
((lp399
(I0
I1
tp400
a(I2
I7
tp401
a(I4
I7
tp402
a(I4
I6
tp403
a(I6
I7
tp404
a(I3
I3
tp405
a(I5
I6
tp406
a(I2
I8
tp407
a(I1
I10
tp408
a(I4
I4
tp409
a(I3
I8
tp410
a(I10
I7
tp411
a(I1
I9
tp412
a(I0
I10
tp413
ag396
a(I7
I11
tp414
a(I4
I5
tp415
a(I3
I7
tp416
a(I3
I5
tp417
a(I5
I3
tp418
atp419
Rp420
sg187
I11
sg226
g20
((lp421
(I1
I2
tp422
a(I8
I1
tp423
a(I6
I1
tp424
a(I5
I7
tp425
a(I3
I0
tp426
a(I8
I9
tp427
a(I9
I2
tp428
a(I9
I4
tp429
a(I0
I2
tp430
a(I4
I0
tp431
atp432
Rp433
sg192
((I6
I10
tp434
(I5
I11
tp435
(I2
I0
tp436
(I9
I1
tp437
tp438
sg193
I12
sbssS'name'
p439
S'mild_roomset'
p440
sbsg163
g164
sg165
(dp441
g185
((lp442
F40.240000000001601
tp443
sg241
((lp444
F40.340000000000146
tp445
sg291
((lp446
F40.19999999999709
tp447
sg350
((lp448
F40.05000000000291
tp449
sg394
((lp450
F40.569999999999709
tp451
ssba(imeasure_core
ProblemSetSolution
p452
(dp453
g3
(imeasure_core
RoomSet
p454
(dp455
S'rooms'
p456
(dp457
(iproblems
RoomID
p458
(dp459
S'width'
p460
I13
sS'dusts'
p461
I11
sS'seed'
p462
I2405875930906139466
sS'obstacles'
p463
(I10
I1
tp464
sS'robots'
p465
I7
sS'height'
p466
I12
sb(imulti_robot_problem
MultiRobotState
p467
(dp468
S'obstacle_locations'
p469
g20
((lp470
(I7
I3
tp471
a(I9
I0
tp472
a(I8
I4
tp473
a(I9
I1
tp474
a(I7
I1
tp475
a(I5
I6
tp476
a(I8
I11
tp477
a(I8
I0
tp478
a(I1
I4
tp479
a(I11
I7
tp480
a(I7
I4
tp481
a(I1
I5
tp482
a(I6
I2
tp483
a(I0
I7
tp484
ag464
a(I11
I6
tp485
a(I11
I5
tp486
a(I10
I2
tp487
a(I10
I3
tp488
a(I7
I2
tp489
a(I10
I4
tp490
atp491
Rp492
sg460
I13
sS'dirt_locations'
p493
g20
((lp494
(I6
I3
tp495
a(I10
I11
tp496
a(I8
I1
tp497
a(I3
I4
tp498
a(I10
I0
tp499
a(I12
I5
tp500
a(I2
I0
tp501
a(I2
I3
tp502
a(I5
I1
tp503
a(I8
I6
tp504
a(I7
I8
tp505
atp506
Rp507
sg465
((I10
I8
tp508
(I9
I2
tp509
(I4
I5
tp510
(I11
I8
tp511
(I1
I2
tp512
(I3
I1
tp513
(I0
I10
tp514
tp515
sg466
I12
sbs(iproblems
RoomID
p516
(dp517
g460
I10
sg461
I11
sg462
I8744744311366254845
sg463
(I7
I9
tp518
sg465
I6
sg466
I13
sb(imulti_robot_problem
MultiRobotState
p519
(dp520
g469
g20
((lp521
(I6
I9
tp522
a(I1
I3
tp523
a(I4
I9
tp524
a(I5
I6
tp525
a(I9
I8
tp526
a(I1
I8
tp527
a(I1
I0
tp528
a(I9
I7
tp529
a(I3
I4
tp530
a(I5
I8
tp531
ag518
atp532
Rp533
sg460
I10
sg493
g20
((lp534
(I0
I1
tp535
a(I7
I3
tp536
a(I9
I0
tp537
a(I1
I12
tp538
a(I5
I11
tp539
a(I4
I10
tp540
a(I9
I10
tp541
a(I3
I7
tp542
a(I7
I11
tp543
a(I0
I8
tp544
a(I9
I6
tp545
atp546
Rp547
sg465
((I0
I10
tp548
(I6
I3
tp549
(I4
I0
tp550
(I1
I6
tp551
(I7
I5
tp552
(I9
I9
tp553
tp554
sg466
I13
sbs(iproblems
RoomID
p555
(dp556
g460
I11
sg461
I15
sg462
I8655808914197340073
sg463
(I5
I8
tp557
sg465
I7
sg466
I13
sb(imulti_robot_problem
MultiRobotState
p558
(dp559
g469
g20
((lp560
(I5
I9
tp561
a(I6
I7
tp562
a(I6
I11
tp563
a(I1
I4
tp564
a(I0
I12
tp565
a(I0
I11
tp566
a(I7
I5
tp567
a(I1
I6
tp568
a(I0
I4
tp569
a(I5
I10
tp570
a(I3
I9
tp571
a(I4
I9
tp572
a(I10
I3
tp573
ag557
atp574
Rp575
sg460
I11
sg493
g20
((lp576
(I2
I7
tp577
a(I7
I3
tp578
a(I9
I7
tp579
a(I4
I6
tp580
a(I1
I12
tp581
a(I5
I6
tp582
a(I9
I6
tp583
a(I7
I7
tp584
a(I2
I0
tp585
a(I9
I4
tp586
a(I7
I10
tp587
a(I0
I8
tp588
a(I8
I5
tp589
a(I6
I5
tp590
a(I7
I9
tp591
atp592
Rp593
sg465
((I9
I11
tp594
(I8
I1
tp595
(I3
I4
tp596
(I8
I7
tp597
(I9
I1
tp598
(I2
I10
tp599
(I2
I12
tp600
tp601
sg466
I13
sbs(iproblems
RoomID
p602
(dp603
g460
I12
sg461
I15
sg462
I4278205817407065157
sg463
(I4
I8
tp604
sg465
I6
sg466
I13
sb(imulti_robot_problem
MultiRobotState
p605
(dp606
g469
g20
((lp607
(I11
I7
tp608
a(I2
I9
tp609
ag604
a(I5
I6
tp610
a(I2
I8
tp611
a(I6
I10
tp612
a(I3
I8
tp613
a(I11
I8
tp614
a(I3
I9
tp615
a(I1
I10
tp616
a(I1
I11
tp617
a(I7
I8
tp618
a(I2
I4
tp619
atp620
Rp621
sg460
I12
sg493
g20
((lp622
(I1
I2
tp623
a(I0
I1
tp624
a(I5
I4
tp625
a(I3
I1
tp626
a(I10
I4
tp627
a(I7
I1
tp628
a(I5
I7
tp629
a(I10
I5
tp630
a(I4
I7
tp631
a(I9
I9
tp632
a(I0
I10
tp633
a(I4
I3
tp634
a(I8
I12
tp635
a(I4
I1
tp636
a(I0
I2
tp637
atp638
Rp639
sg465
((I7
I10
tp640
(I6
I12
tp641
(I2
I0
tp642
(I9
I1
tp643
(I10
I3
tp644
(I4
I0
tp645
tp646
sg466
I13
sbs(iproblems
RoomID
p647
(dp648
g460
I13
sg461
I15
sg462
I2796939073032698495
sg463
(I3
I6
tp649
sg465
I7
sg466
I10
sb(imulti_robot_problem
MultiRobotState
p650
(dp651
g469
g20
((lp652
(I5
I9
tp653
a(I6
I9
tp654
a(I5
I7
tp655
a(I6
I6
tp656
a(I6
I2
tp657
a(I5
I1
tp658
a(I12
I9
tp659
a(I5
I8
tp660
a(I6
I7
tp661
a(I5
I5
tp662
a(I4
I8
tp663
a(I5
I0
tp664
a(I6
I4
tp665
a(I5
I4
tp666
ag649
a(I4
I5
tp667
a(I3
I9
tp668
a(I0
I5
tp669
a(I8
I7
tp670
a(I4
I9
tp671
a(I6
I5
tp672
a(I5
I3
tp673
a(I2
I7
tp674
a(I4
I6
tp675
a(I3
I1
tp676
a(I2
I0
tp677
a(I7
I8
tp678
atp679
Rp680
sg460
I13
sg493
g20
((lp681
(I1
I2
tp682
a(I8
I2
tp683
a(I2
I9
tp684
a(I12
I0
tp685
a(I3
I4
tp686
a(I6
I0
tp687
a(I9
I9
tp688
a(I2
I3
tp689
a(I9
I4
tp690
a(I1
I7
tp691
a(I0
I9
tp692
a(I3
I3
tp693
a(I7
I9
tp694
a(I4
I1
tp695
a(I12
I8
tp696
atp697
Rp698
sg465
((I10
I2
tp699
(I11
I8
tp700
(I12
I5
tp701
(I8
I9
tp702
(I10
I3
tp703
(I0
I3
tp704
(I11
I2
tp705
tp706
sg466
I10
sbssS'name'
p707
S'heavy_roomset'
p708
sbsg163
g164
sg165
(dp709
g458
((lp710
F46.0
tp711
sg516
((lp712
F40.119999999998981
tp713
sg555
((lp714
F42.81000000000131
tp715
sg602
((lp716
F40.25
tp717
sg647
((lp718
F40.349999999998545
tp719
ssba(imeasure_core
ProblemSetSolution
p720
(dp721
g3
g4
sg163
S'AnytimeBest-d80_with_PowerHeuristic2'
p722
sg165
(dp723
g8
((lp724
(F0.43000000000029104
I10
tp725
aF40.080000000001746
tp726
sg44
((lp727
(F0.3599999999969441
I14
tp728
aF40.009999999998399
tp729
sg71
((lp730
F40.130000000001019
tp731
sg102
((lp732
(F1.6499999999978172
I9
tp733
aF40.069999999999709
tp734
sg136
((lp735
(F0.18999999999869033
I49
tp736
a(F0.31999999999970896
I47
tp737
a(F0.39999999999781721
I45
tp738
a(F0.59999999999854481
I43
tp739
a(F1.1100000000005821
I41
tp740
a(F1.25
I40
tp741
a(F2.430000000000291
I39
tp742
a(F2.4599999999991269
I38
tp743
a(F3.2799999999988358
I37
tp744
a(F3.4099999999998545
I35
tp745
a(F4.7399999999979627
I33
tp746
a(F6.5299999999988358
I31
tp747
a(F6.7700000000004366
I29
tp748
a(F6.9099999999998545
I27
tp749
a(F8.25
I25
tp750
a(F12.700000000000728
I24
tp751
a(F12.829999999998108
I22
tp752
a(F13.459999999999127
I20
tp753
aF13.700000000000728
tp754
ssba(imeasure_core
ProblemSetSolution
p755
(dp756
g3
g181
sg163
g722
sg165
(dp757
g185
((lp758
(F7.3299999999981083
I24
tp759
aF40.079999999998108
tp760
sg241
((lp761
F40.029999999998836
tp762
sg291
((lp763
F40.140000000003056
tp764
sg350
((lp765
(F0.89999999999781721
I25
tp766
aF40.029999999998836
tp767
sg394
((lp768
(F1.4399999999986903
I28
tp769
aF40.130000000001019
tp770
ssba(imeasure_core
ProblemSetSolution
p771
(dp772
g3
g454
sg163
g722
sg165
(dp773
g458
((lp774
F45.970000000001164
tp775
sg516
((lp776
(F12.139999999999418
I13
tp777
aF40.159999999999854
tp778
sg555
((lp779
F42.739999999997963
tp780
sg602
((lp781
(F22.640000000003056
I15
tp782
aF40.230000000003201
tp783
sg647
((lp784
F40.5
tp785
ssba(imeasure_core
ProblemSetSolution
p786
(dp787
g3
g4
sg163
S'AnytimeBest-d150_with_PowerHeuristic2'
p788
sg165
(dp789
g8
((lp790
(F0.41999999999825377
I10
tp791
aF40.049999999999272
tp792
sg44
((lp793
(F0.36000000000058208
I14
tp794
aF40.010000000002037
tp795
sg71
((lp796
(F9.7599999999983993
I144
tp797
aF40.009999999998399
tp798
sg102
((lp799
(F1.6700000000018917
I9
tp800
aF40.290000000000873
tp801
sg136
((lp802
(F0.18000000000029104
I49
tp803
a(F0.31999999999970896
I47
tp804
a(F0.39999999999781721
I45
tp805
a(F0.59000000000014552
I43
tp806
a(F1.1100000000005821
I41
tp807
a(F1.2399999999979627
I40
tp808
a(F2.430000000000291
I39
tp809
a(F2.4599999999991269
I38
tp810
a(F3.2799999999988358
I37
tp811
a(F3.4099999999998545
I35
tp812
a(F4.7399999999979627
I33
tp813
a(F6.5299999999988358
I31
tp814
a(F6.7700000000004366
I29
tp815
a(F6.9099999999998545
I27
tp816
a(F8.2599999999983993
I25
tp817
a(F12.759999999998399
I24
tp818
a(F12.889999999999418
I22
tp819
a(F13.529999999998836
I20
tp820
aF13.770000000000437
tp821
ssba(imeasure_core
ProblemSetSolution
p822
(dp823
g3
g181
sg163
g788
sg165
(dp824
g185
((lp825
(F7.3299999999981083
I24
tp826
aF40.079999999998108
tp827
sg241
((lp828
F40.330000000001746
tp829
sg291
((lp830
F40.139999999999418
tp831
sg350
((lp832
(F0.89999999999781721
I25
tp833
aF40.029999999998836
tp834
sg394
((lp835
(F1.4400000000023283
I28
tp836
aF40.049999999999272
tp837
ssba(imeasure_core
ProblemSetSolution
p838
(dp839
g3
g454
sg163
g788
sg165
(dp840
g458
((lp841
F45.989999999997963
tp842
sg516
((lp843
(F12.159999999999854
I13
tp844
aF40.159999999999854
tp845
sg555
((lp846
F42.680000000000291
tp847
sg602
((lp848
(F22.640000000003056
I15
tp849
aF40.229999999999563
tp850
sg647
((lp851
F40.490000000001601
tp852
ssba(imeasure_core
ProblemSetSolution
p853
(dp854
g3
g4
sg163
S'AnytimeBest-d250_with_PowerHeuristic2'
p855
sg165
(dp856
g8
((lp857
(F0.42000000000189175
I10
tp858
aF40.06000000000131
tp859
sg44
((lp860
(F0.35000000000218279
I14
tp861
aF40.010000000002037
tp862
sg71
((lp863
(F9.7599999999983993
I144
tp864
aF40.019999999996799
tp865
sg102
((lp866
(F1.6599999999998545
I9
tp867
aF40.260000000002037
tp868
sg136
((lp869
(F0.18999999999869033
I49
tp870
a(F0.32999999999810825
I47
tp871
a(F0.40999999999985448
I45
tp872
a(F0.61000000000058208
I43
tp873
a(F1.1300000000010186
I41
tp874
a(F1.2599999999983993
I40
tp875
a(F2.4700000000011642
I39
tp876
a(F2.5
I38
tp877
a(F3.3299999999981083
I37
tp878
a(F3.4599999999991269
I35
tp879
a(F4.7999999999992724
I33
tp880
a(F6.6100000000005821
I31
tp881
a(F6.8499999999985448
I29
tp882
a(F6.9899999999979627
I27
tp883
a(F8.3400000000001455
I25
tp884
a(F12.849999999998545
I24
tp885
a(F12.970000000001164
I22
tp886
a(F13.610000000000582
I20
tp887
aF13.860000000000582
tp888
ssba(imeasure_core
ProblemSetSolution
p889
(dp890
g3
g181
sg163
g855
sg165
(dp891
g185
((lp892
(F7.3899999999994179
I24
tp893
aF40.139999999999418
tp894
sg241
((lp895
(F21.919999999998254
I171
tp896
aF40.139999999999418
tp897
sg291
((lp898
F40.159999999999854
tp899
sg350
((lp900
(F0.88999999999941792
I25
tp901
aF40.029999999998836
tp902
sg394
((lp903
(F1.4400000000023283
I28
tp904
aF40.150000000001455
tp905
ssba(imeasure_core
ProblemSetSolution
p906
(dp907
g3
g454
sg163
g855
sg165
(dp908
g458
((lp909
F45.900000000001455
tp910
sg516
((lp911
(F12.110000000000582
I13
tp912
aF40.159999999999854
tp913
sg555
((lp914
F42.670000000001892
tp915
sg602
((lp916
(F22.619999999998981
I15
tp917
aF40.239999999997963
tp918
sg647
((lp919
F40.5
tp920
ssba(imeasure_core
ProblemSetSolution
p921
(dp922
g3
g4
sg163
S'AnytimeBest-d400_with_PowerHeuristic2'
p923
sg165
(dp924
g8
((lp925
(F0.42999999999665306
I10
tp926
aF40.149999999997817
tp927
sg44
((lp928
(F0.36000000000058208
I14
tp929
aF40.010000000002037
tp930
sg71
((lp931
(F9.8499999999985448
I144
tp932
aF40.019999999996799
tp933
sg102
((lp934
(F1.6600000000034925
I9
tp935
aF40.340000000000146
tp936
sg136
((lp937
(F0.18000000000029104
I49
tp938
a(F0.32000000000334694
I47
tp939
a(F0.40000000000145519
I45
tp940
a(F0.59000000000014552
I43
tp941
a(F1.1100000000005821
I41
tp942
a(F1.2400000000016007
I40
tp943
a(F2.430000000000291
I39
tp944
a(F2.4600000000027649
I38
tp945
a(F3.2800000000024738
I37
tp946
a(F3.4099999999998545
I35
tp947
a(F4.7400000000016007
I33
tp948
a(F6.5300000000024738
I31
tp949
a(F6.7700000000004366
I29
tp950
a(F6.9099999999998545
I27
tp951
a(F8.25
I25
tp952
a(F12.720000000001164
I24
tp953
a(F12.840000000000146
I22
tp954
a(F13.470000000001164
I20
tp955
aF13.720000000001164
tp956
ssba(imeasure_core
ProblemSetSolution
p957
(dp958
g3
g181
sg163
g923
sg165
(dp959
g185
((lp960
(F7.3300000000017462
I24
tp961
aF40.080000000001746
tp962
sg241
((lp963
(F21.639999999999418
I171
tp964
aF40.039999999997235
tp965
sg291
((lp966
F40.170000000001892
tp967
sg350
((lp968
(F0.88000000000101863
I25
tp969
aF40.029999999998836
tp970
sg394
((lp971
(F1.4700000000011642
I28
tp972
aF40.110000000000582
tp973
ssba(imeasure_core
ProblemSetSolution
p974
(dp975
g3
g454
sg163
g923
sg165
(dp976
g458
((lp977
F45.970000000001164
tp978
sg516
((lp979
(F12.099999999998545
I13
tp980
aF40.159999999999854
tp981
sg555
((lp982
F43.069999999999709
tp983
sg602
((lp984
(F22.649999999997817
I15
tp985
aF40.229999999999563
tp986
sg647
((lp987
F40.56000000000131
tp988
ssba(imeasure_core
ProblemSetSolution
p989
(dp990
g3
g4
sg163
S'AnytimeBest-d1000_with_PowerHeuristic2'
p991
sg165
(dp992
g8
((lp993
(F0.42000000000189175
I10
tp994
aF40.049999999999272
tp995
sg44
((lp996
(F0.36000000000058208
I14
tp997
aF40.049999999999272
tp998
sg71
((lp999
(F9.7000000000007276
I144
tp1000
aF40.020000000000437
tp1001
sg102
((lp1002
(F1.6599999999998545
I9
tp1003
aF40.330000000001746
tp1004
sg136
((lp1005
(F0.18000000000029104
I49
tp1006
a(F0.31999999999970896
I47
tp1007
a(F0.39999999999781721
I45
tp1008
a(F0.59000000000014552
I43
tp1009
a(F1.1100000000005821
I41
tp1010
a(F1.2399999999979627
I40
tp1011
a(F2.430000000000291
I39
tp1012
a(F2.4599999999991269
I38
tp1013
a(F3.2799999999988358
I37
tp1014
a(F3.3999999999978172
I35
tp1015
a(F4.7299999999995634
I33
tp1016
a(F6.5099999999983993
I31
tp1017
a(F6.75
I29
tp1018
a(F6.8899999999994179
I27
tp1019
a(F8.2299999999995634
I25
tp1020
a(F12.680000000000291
I24
tp1021
a(F12.809999999997672
I22
tp1022
a(F13.43999999999869
I20
tp1023
aF13.68999999999869
tp1024
ssba(imeasure_core
ProblemSetSolution
p1025
(dp1026
g3
g181
sg163
g991
sg165
(dp1027
g185
((lp1028
(F7.3500000000021828
I24
tp1029
aF40.080000000001746
tp1030
sg241
((lp1031
(F21.709999999999127
I171
tp1032
aF40.029999999998836
tp1033
sg291
((lp1034
F40.150000000001455
tp1035
sg350
((lp1036
(F0.88999999999941792
I25
tp1037
aF40.029999999998836
tp1038
sg394
((lp1039
(F1.4700000000011642
I28
tp1040
aF40.180000000000291
tp1041
ssba(imeasure_core
ProblemSetSolution
p1042
(dp1043
g3
g454
sg163
g991
sg165
(dp1044
g458
((lp1045
F45.880000000001019
tp1046
sg516
((lp1047
(F12.340000000000146
I13
tp1048
aF40.159999999999854
tp1049
sg555
((lp1050
F42.990000000001601
tp1051
sg602
((lp1052
(F22.649999999997817
I15
tp1053
aF40.229999999999563
tp1054
sg647
((lp1055
F40.43999999999869
tp1056
ssba(imeasure_core
ProblemSetSolution
p1057
(dp1058
g3
g4
sg163
S'AnytimeBest-d10_with_LinearHeuristic'
p1059
sg165
(dp1060
g8
((lp1061
F40.169999999998254
tp1062
sg44
((lp1063
F40.150000000001455
tp1064
sg71
((lp1065
F40.049999999999272
tp1066
sg102
((lp1067
(F1.8800000000010186
I6
tp1068
aF40.259999999998399
tp1069
sg136
((lp1070
F0.75
tp1071
ssba(imeasure_core
ProblemSetSolution
p1072
(dp1073
g3
g181
sg163
g1059
sg165
(dp1074
g185
((lp1075
F40.090000000000146
tp1076
sg241
((lp1077
F40.159999999999854
tp1078
sg291
((lp1079
F40.100000000002183
tp1080
sg350
((lp1081
F40.069999999999709
tp1082
sg394
((lp1083
F40.200000000000728
tp1084
ssba(imeasure_core
ProblemSetSolution
p1085
(dp1086
g3
g454
sg163
g1059
sg165
(dp1087
g458
((lp1088
F43.740000000001601
tp1089
sg516
((lp1090
(F14.809999999997672
I8
tp1091
aF40.349999999998545
tp1092
sg555
((lp1093
F47.680000000000291
tp1094
sg602
((lp1095
F40.509999999998399
tp1096
sg647
((lp1097
F51.190000000002328
tp1098
ssba(imeasure_core
ProblemSetSolution
p1099
(dp1100
g3
g4
sg163
S'AnytimeBest-d80_with_LinearHeuristic'
p1101
sg165
(dp1102
g8
((lp1103
F40.090000000000146
tp1104
sg44
((lp1105
F40.099999999998545
tp1106
sg71
((lp1107
(F1.7000000000007276
I58
tp1108
a(F17.510000000002037
I56
tp1109
a(F33.200000000000728
I55
tp1110
aF40.100000000002183
tp1111
sg102
((lp1112
(F1.9199999999982538
I6
tp1113
aF40.180000000000291
tp1114
sg136
((lp1115
(F0.029999999998835847
I22
tp1116
a(F0.22999999999956344
I20
tp1117
aF11.389999999999418
tp1118
ssba(imeasure_core
ProblemSetSolution
p1119
(dp1120
g3
g181
sg163
g1101
sg165
(dp1121
g185
((lp1122
F40.030000000002474
tp1123
sg241
((lp1124
F40.229999999999563
tp1125
sg291
((lp1126
F40.029999999998836
tp1127
sg350
((lp1128
F40.040000000000873
tp1129
sg394
((lp1130
F40.06000000000131
tp1131
ssba(imeasure_core
ProblemSetSolution
p1132
(dp1133
g3
g454
sg163
g1101
sg165
(dp1134
g458
((lp1135
F43.509999999998399
tp1136
sg516
((lp1137
(F14.909999999999854
I8
tp1138
aF40.56000000000131
tp1139
sg555
((lp1140
F47.399999999997817
tp1141
sg602
((lp1142
F41.799999999999272
tp1143
sg647
((lp1144
F51.05000000000291
tp1145
ssba(imeasure_core
ProblemSetSolution
p1146
(dp1147
g3
g4
sg163
S'AnytimeBest-d150_with_LinearHeuristic'
p1148
sg165
(dp1149
g8
((lp1150
F40.520000000000437
tp1151
sg44
((lp1152
F40.06000000000131
tp1153
sg71
((lp1154
(F1.6699999999982538
I58
tp1155
a(F17.340000000000146
I56
tp1156
a(F32.930000000000291
I55
tp1157
aF40.049999999999272
tp1158
sg102
((lp1159
(F1.9199999999982538
I6
tp1160
aF40.18999999999869
tp1161
sg136
((lp1162
(F0.020000000000436557
I22
tp1163
a(F0.22000000000116415
I20
tp1164
aF11.420000000001892
tp1165
ssba(imeasure_core
ProblemSetSolution
p1166
(dp1167
g3
g181
sg163
g1148
sg165
(dp1168
g185
((lp1169
F40.029999999998836
tp1170
sg241
((lp1171
F40.06000000000131
tp1172
sg291
((lp1173
F40.029999999998836
tp1174
sg350
((lp1175
F40.319999999999709
tp1176
sg394
((lp1177
(F28.640000000003056
I146
tp1178
aF40.420000000001892
tp1179
ssba(imeasure_core
ProblemSetSolution
p1180
(dp1181
g3
g454
sg163
g1148
sg165
(dp1182
g458
((lp1183
F43.970000000001164
tp1184
sg516
((lp1185
(F14.869999999998981
I8
tp1186
aF40.43999999999869
tp1187
sg555
((lp1188
F47.210000000002765
tp1189
sg602
((lp1190
F41.729999999999563
tp1191
sg647
((lp1192
F50.849999999998545
tp1193
ssba(imeasure_core
ProblemSetSolution
p1194
(dp1195
g3
g4
sg163
S'AnytimeBest-d250_with_LinearHeuristic'
p1196
sg165
(dp1197
g8
((lp1198
F40.150000000001455
tp1199
sg44
((lp1200
F40.059999999997672
tp1201
sg71
((lp1202
(F1.6900000000023283
I58
tp1203
a(F17.460000000002765
I56
tp1204
a(F33.090000000000146
I55
tp1205
aF40.090000000000146
tp1206
sg102
((lp1207
(F1.9000000000014552
I6
tp1208
aF40.190000000002328
tp1209
sg136
((lp1210
(F0.020000000000436557
I22
tp1211
a(F0.21999999999752617
I20
tp1212
aF11.430000000000291
tp1213
ssba(imeasure_core
ProblemSetSolution
p1214
(dp1215
g3
g181
sg163
g1196
sg165
(dp1216
g185
((lp1217
F40.31000000000131
tp1218
sg241
((lp1219
F40.450000000000728
tp1220
sg291
((lp1221
F40.039999999997235
tp1222
sg350
((lp1223
F40.350000000002183
tp1224
sg394
((lp1225
(F28.680000000000291
I146
tp1226
aF40.389999999999418
tp1227
ssba(imeasure_core
ProblemSetSolution
p1228
(dp1229
g3
g454
sg163
g1196
sg165
(dp1230
g458
((lp1231
F43.5
tp1232
sg516
((lp1233
(F14.900000000001455
I8
tp1234
aF40.450000000000728
tp1235
sg555
((lp1236
F47.340000000000146
tp1237
sg602
((lp1238
F41.849999999998545
tp1239
sg647
((lp1240
F51.070000000003347
tp1241
ssba(imeasure_core
ProblemSetSolution
p1242
(dp1243
g3
g4
sg163
S'AnytimeBest-d400_with_LinearHeuristic'
p1244
sg165
(dp1245
g8
((lp1246
F40.509999999998399
tp1247
sg44
((lp1248
F40.06000000000131
tp1249
sg71
((lp1250
(F1.6599999999998545
I58
tp1251
a(F17.25
I56
tp1252
a(F32.879999999997381
I55
tp1253
aF40.049999999999272
tp1254
sg102
((lp1255
(F1.9099999999998545
I6
tp1256
aF40.239999999997963
tp1257
sg136
((lp1258
(F0.020000000000436557
I22
tp1259
a(F0.22999999999956344
I20
tp1260
aF11.479999999999563
tp1261
ssba(imeasure_core
ProblemSetSolution
p1262
(dp1263
g3
g181
sg163
g1244
sg165
(dp1264
g185
((lp1265
F40.31000000000131
tp1266
sg241
((lp1267
F40.159999999999854
tp1268
sg291
((lp1269
F40.040000000000873
tp1270
sg350
((lp1271
F40.239999999997963
tp1272
sg394
((lp1273
(F28.600000000002183
I146
tp1274
aF40.110000000000582
tp1275
ssba(imeasure_core
ProblemSetSolution
p1276
(dp1277
g3
g454
sg163
g1244
sg165
(dp1278
g458
((lp1279
F43.529999999998836
tp1280
sg516
((lp1281
(F14.650000000001455
I8
tp1282
aF40.479999999999563
tp1283
sg555
((lp1284
F47.330000000001746
tp1285
sg602
((lp1286
F41.259999999998399
tp1287
sg647
((lp1288
F50.950000000000728
tp1289
ssba(imeasure_core
ProblemSetSolution
p1290
(dp1291
g3
g4
sg163
S'AnytimeBest-d1000_with_LinearHeuristic'
p1292
sg165
(dp1293
g8
((lp1294
F40.610000000000582
tp1295
sg44
((lp1296
F40.290000000000873
tp1297
sg71
((lp1298
(F1.6599999999998545
I58
tp1299
a(F17.25
I56
tp1300
a(F32.789999999997235
I55
tp1301
aF40.090000000000146
tp1302
sg102
((lp1303
(F1.9199999999982538
I6
tp1304
aF40.18999999999869
tp1305
sg136
((lp1306
(F0.020000000000436557
I22
tp1307
a(F0.22000000000116415
I20
tp1308
aF11.340000000000146
tp1309
ssba(imeasure_core
ProblemSetSolution
p1310
(dp1311
g3
g181
sg163
g1292
sg165
(dp1312
g185
((lp1313
F40.049999999999272
tp1314
sg241
((lp1315
F40.130000000001019
tp1316
sg291
((lp1317
F40.049999999999272
tp1318
sg350
((lp1319
F40.200000000000728
tp1320
sg394
((lp1321
(F28.579999999998108
I146
tp1322
aF40.159999999999854
tp1323
ssba(imeasure_core
ProblemSetSolution
p1324
(dp1325
g3
g454
sg163
g1292
sg165
(dp1326
g458
((lp1327
F43.599999999998545
tp1328
sg516
((lp1329
(F14.709999999999127
I8
tp1330
aF40.290000000000873
tp1331
sg555
((lp1332
F47.389999999999418
tp1333
sg602
((lp1334
F41.319999999999709
tp1335
sg647
((lp1336
F50.479999999999563
tp1337
ssba.