(lp0
(imeasure_core
ProblemSetSolution
p1
(dp2
S'roomset'
p3
(imeasure_core
RoomSet
p4
(dp5
S'rooms'
p6
(dp7
(iproblems
RoomID
p8
(dp9
S'dusts'
p10
I8
sS'obstacles'
p11
(I2
I4
tp12
sS'robots'
p13
I4
sS'height'
p14
I9
sS'width'
p15
I7
sS'seed'
p16
I7283207964119141687
sb(imulti_robot_problem
MultiRobotState
p17
(dp18
S'obstacle_locations'
p19
c__builtin__
frozenset
p20
((lp21
(I4
I6
tp22
a(I4
I3
tp23
a(I3
I0
tp24
a(I4
I2
tp25
a(I3
I4
tp26
ag12
a(I3
I3
tp27
atp28
Rp29
sg15
I7
sS'dirt_locations'
p30
g20
((lp31
(I4
I5
tp32
a(I5
I7
tp33
a(I0
I6
tp34
a(I1
I6
tp35
a(I5
I0
tp36
a(I5
I1
tp37
a(I5
I2
tp38
a(I1
I1
tp39
atp40
Rp41
sg13
((I1
I5
tp42
(I5
I5
tp43
(I3
I1
tp44
(I3
I5
tp45
tp46
sg14
I9
sbs(iproblems
RoomID
p47
(dp48
g10
I8
sg11
(I4
I6
tp49
sg13
I2
sg14
I10
sg15
I8
sg16
I890727360438182992
sb(imulti_robot_problem
MultiRobotState
p50
(dp51
g19
g20
((lp52
(I0
I0
tp53
ag49
a(I6
I6
tp54
a(I5
I6
tp55
a(I7
I6
tp56
a(I7
I4
tp57
a(I4
I2
tp58
a(I2
I4
tp59
atp60
Rp61
sg15
I8
sg30
g20
((lp62
(I7
I0
tp63
a(I7
I1
tp64
a(I6
I3
tp65
a(I1
I8
tp66
a(I0
I5
tp67
a(I5
I1
tp68
a(I1
I0
tp69
a(I0
I3
tp70
atp71
Rp72
sg13
((I2
I8
tp73
(I2
I5
tp74
tp75
sg14
I10
sbs(iproblems
RoomID
p76
(dp77
g10
I5
sg11
(I7
I3
tp78
sg13
I1
sg14
I7
sg15
I8
sg16
I1736392818365009963
sb(imulti_robot_problem
MultiRobotState
p79
(dp80
g19
g20
((lp81
g78
a(I2
I6
tp82
a(I7
I0
tp83
a(I7
I1
tp84
a(I2
I1
tp85
a(I6
I3
tp86
a(I0
I4
tp87
a(I7
I2
tp88
atp89
Rp90
sg15
I8
sg30
g20
((lp91
(I0
I1
tp92
a(I6
I2
tp93
a(I1
I6
tp94
a(I4
I4
tp95
a(I0
I0
tp96
atp97
Rp98
sg13
((I3
I1
tp99
tp100
sg14
I7
sbs(iproblems
RoomID
p101
(dp102
g10
I10
sg11
(I6
I5
tp103
sg13
I5
sg14
I8
sg15
I9
sg16
I3960482443532127989
sb(imulti_robot_problem
MultiRobotState
p104
(dp105
g19
g20
((lp106
(I4
I5
tp107
a(I5
I5
tp108
ag103
a(I6
I6
tp109
atp110
Rp111
sg15
I9
sg30
g20
((lp112
(I2
I7
tp113
a(I2
I6
tp114
a(I5
I0
tp115
a(I5
I7
tp116
a(I1
I4
tp117
a(I1
I5
tp118
a(I3
I6
tp119
a(I8
I0
tp120
a(I8
I5
tp121
a(I5
I3
tp122
atp123
Rp124
sg13
((I4
I3
tp125
(I8
I7
tp126
(I1
I6
tp127
(I7
I3
tp128
(I6
I4
tp129
tp130
sg14
I8
sbs(iproblems
RoomID
p131
(dp132
g10
I7
sg11
(I4
I1
tp133
sg13
I3
sg14
I10
sg15
I10
sg16
I1585446675937841368
sb(imulti_robot_problem
MultiRobotState
p134
(dp135
g19
g20
((lp136
(I3
I2
tp137
a(I2
I6
tp138
a(I6
I7
tp139
a(I6
I1
tp140
a(I7
I2
tp141
a(I5
I0
tp142
ag133
a(I2
I4
tp143
a(I5
I8
tp144
atp145
Rp146
sg15
I10
sg30
g20
((lp147
(I7
I3
tp148
a(I9
I4
tp149
a(I2
I9
tp150
a(I1
I7
tp151
a(I2
I2
tp152
a(I5
I2
tp153
a(I9
I7
tp154
atp155
Rp156
sg13
((I8
I9
tp157
(I4
I4
tp158
(I9
I8
tp159
tp160
sg14
I10
sbssS'name'
p161
S'easy_roomset'
p162
sbsg161
S"AnytimeBeam-w20-gf(1.3, 'exp')_with_PowerHeuristic2"
p163
sS'solutions'
p164
(dp165
g8
((lp166
(F1.7900000000008731
I28
tp167
aF40.089999999996508
tp168
sg47
((lp169
(F0.090000000003783498
I19
tp170
aF40.0
tp171
sg76
((lp172
(F0.08000000000174623
I30
tp173
a(F0.16000000000349246
I28
tp174
a(F0.48000000000320142
I27
tp175
a(F0.90000000000145519
I25
tp176
a(F1.2600000000020373
I23
tp177
a(F1.5600000000049477
I22
tp178
a(F2.7799999999988358
I21
tp179
a(F3.8700000000026193
I20
tp180
aF40.0
tp181
sg101
((lp182
(F9.2099999999991269
I10
tp183
aF40.220000000001164
tp184
sg131
((lp185
(F0.45999999999912689
I14
tp186
aF40.020000000004075
tp187
ssba(imeasure_core
ProblemSetSolution
p188
(dp189
g3
(imeasure_core
RoomSet
p190
(dp191
g6
(dp192
(iproblems
RoomID
p193
(dp194
g10
I8
sg11
(I2
I6
tp195
sg13
I4
sg14
I11
sg15
I9
sg16
I7283207964119141687
sb(imulti_robot_problem
MultiRobotState
p196
(dp197
g19
g20
((lp198
(I4
I7
tp199
a(I1
I3
tp200
a(I4
I3
tp201
a(I4
I5
tp202
a(I5
I4
tp203
a(I1
I4
tp204
a(I8
I9
tp205
a(I6
I2
tp206
a(I0
I10
tp207
a(I3
I7
tp208
a(I0
I3
tp209
a(I8
I5
tp210
a(I4
I0
tp211
a(I5
I3
tp212
a(I5
I5
tp213
a(I5
I2
tp214
a(I6
I1
tp215
a(I6
I10
tp216
ag195
a(I6
I3
tp217
a(I3
I6
tp218
a(I3
I5
tp219
a(I3
I4
tp220
a(I2
I4
tp221
atp222
Rp223
sg15
I9
sg30
g20
((lp224
(I7
I0
tp225
a(I6
I8
tp226
a(I7
I1
tp227
a(I5
I6
tp228
a(I1
I8
tp229
a(I0
I8
tp230
a(I4
I1
tp231
a(I5
I8
tp232
atp233
Rp234
sg13
((I1
I7
tp235
(I6
I6
tp236
(I4
I6
tp237
(I2
I1
tp238
tp239
sg14
I11
sbs(iproblems
RoomID
p240
(dp241
g10
I8
sg11
(I3
I5
tp242
sg13
I3
sg14
I12
sg15
I10
sg16
I890727360438182992
sb(imulti_robot_problem
MultiRobotState
p243
(dp244
g19
g20
((lp245
(I4
I7
tp246
a(I0
I0
tp247
a(I3
I0
tp248
a(I3
I2
tp249
a(I1
I4
tp250
a(I8
I9
tp251
a(I7
I5
tp252
a(I2
I3
tp253
a(I3
I4
tp254
a(I5
I8
tp255
ag242
a(I3
I1
tp256
a(I6
I7
tp257
a(I6
I8
tp258
a(I5
I2
tp259
a(I5
I7
tp260
a(I8
I8
tp261
a(I3
I9
tp262
a(I4
I11
tp263
a(I7
I10
tp264
a(I2
I2
tp265
a(I0
I9
tp266
a(I7
I8
tp267
atp268
Rp269
sg15
I10
sg30
g20
((lp270
(I9
I2
tp271
a(I6
I1
tp272
a(I8
I0
tp273
a(I2
I10
tp274
a(I0
I6
tp275
a(I0
I4
tp276
a(I9
I5
tp277
a(I1
I1
tp278
atp279
Rp280
sg13
((I2
I9
tp281
(I2
I6
tp282
(I8
I4
tp283
tp284
sg14
I12
sbs(iproblems
RoomID
p285
(dp286
g10
I5
sg11
(I7
I6
tp287
sg13
I3
sg14
I9
sg15
I10
sg16
I1736392818365009963
sb(imulti_robot_problem
MultiRobotState
p288
(dp289
g19
g20
((lp290
(I7
I3
tp291
a(I9
I1
tp292
a(I4
I8
tp293
a(I9
I3
tp294
a(I7
I7
tp295
a(I6
I2
tp296
a(I0
I5
tp297
a(I0
I4
tp298
a(I8
I5
tp299
a(I7
I2
tp300
a(I1
I2
tp301
a(I3
I8
tp302
a(I9
I0
tp303
a(I9
I2
tp304
ag287
a(I7
I4
tp305
a(I7
I5
tp306
a(I6
I5
tp307
a(I4
I3
tp308
a(I2
I2
tp309
a(I0
I1
tp310
a(I5
I2
tp311
a(I8
I4
tp312
atp313
Rp314
sg15
I10
sg30
g20
((lp315
(I1
I8
tp316
a(I3
I1
tp317
a(I4
I1
tp318
a(I0
I2
tp319
a(I5
I5
tp320
atp321
Rp322
sg13
((I4
I2
tp323
(I1
I0
tp324
(I8
I2
tp325
tp326
sg14
I9
sbs(iproblems
RoomID
p327
(dp328
g10
I7
sg11
(I6
I3
tp329
sg13
I3
sg14
I12
sg15
I12
sg16
I1585446675937841368
sb(imulti_robot_problem
MultiRobotState
p330
(dp331
g19
g20
((lp332
(I5
I9
tp333
a(I4
I3
tp334
a(I5
I7
tp335
a(I8
I2
tp336
a(I4
I10
tp337
a(I7
I3
tp338
a(I2
I8
tp339
a(I9
I3
tp340
a(I3
I11
tp341
a(I7
I1
tp342
a(I7
I7
tp343
a(I6
I2
tp344
a(I5
I1
tp345
a(I1
I11
tp346
a(I8
I5
tp347
a(I7
I2
tp348
a(I2
I7
tp349
a(I6
I7
tp350
a(I6
I8
tp351
a(I2
I9
tp352
a(I5
I2
tp353
a(I7
I6
tp354
a(I6
I6
tp355
a(I2
I11
tp356
ag329
a(I4
I11
tp357
a(I7
I10
tp358
a(I3
I4
tp359
a(I8
I6
tp360
a(I7
I8
tp361
a(I8
I4
tp362
atp363
Rp364
sg15
I12
sg30
g20
((lp365
(I3
I2
tp366
a(I1
I9
tp367
a(I9
I4
tp368
a(I11
I5
tp369
a(I11
I8
tp370
a(I2
I5
tp371
a(I6
I10
tp372
atp373
Rp374
sg13
((I10
I10
tp375
(I5
I5
tp376
(I11
I10
tp377
tp378
sg14
I12
sbs(iproblems
RoomID
p379
(dp380
g10
I9
sg11
(I1
I3
tp381
sg13
I4
sg14
I9
sg15
I10
sg16
I7713914763314685786
sb(imulti_robot_problem
MultiRobotState
p382
(dp383
g19
g20
((lp384
(I3
I2
tp385
ag381
a(I7
I1
tp386
a(I9
I3
tp387
a(I6
I0
tp388
a(I2
I1
tp389
a(I4
I2
tp390
a(I5
I1
tp391
a(I9
I6
tp392
a(I7
I2
tp393
a(I4
I0
tp394
a(I1
I2
tp395
a(I7
I0
tp396
a(I5
I2
tp397
a(I6
I1
tp398
a(I3
I1
tp399
a(I1
I5
tp400
a(I1
I8
tp401
a(I2
I2
tp402
a(I3
I5
tp403
a(I4
I1
tp404
a(I1
I1
tp405
atp406
Rp407
sg15
I10
sg30
g20
((lp408
(I7
I3
tp409
a(I5
I4
tp410
a(I7
I6
tp411
a(I7
I5
tp412
a(I0
I5
tp413
a(I8
I7
tp414
a(I8
I6
tp415
a(I8
I5
tp416
a(I9
I7
tp417
atp418
Rp419
sg13
((I3
I0
tp420
(I7
I7
tp421
(I2
I0
tp422
(I4
I6
tp423
tp424
sg14
I9
sbssg161
S'mild_roomset'
p425
sbsg161
g163
sg164
(dp426
g193
((lp427
(F0.31999999999970896
I7
tp428
aF40.029999999998836
tp429
sg240
((lp430
F40.25
tp431
sg285
((lp432
(F6.3699999999953434
I66
tp433
aF40.009999999994761
tp434
sg327
((lp435
(F0.5900000000037835
I20
tp436
aF40.060000000004948
tp437
sg379
((lp438
(F2.3699999999953434
I15
tp439
aF40.25
tp440
ssba(imeasure_core
ProblemSetSolution
p441
(dp442
g3
(imeasure_core
RoomSet
p443
(dp444
g6
(dp445
(iproblems
RoomID
p446
(dp447
g10
I13
sg11
(I8
I4
tp448
sg13
I7
sg14
I12
sg15
I10
sg16
I7283207964119141687
sb(imulti_robot_problem
MultiRobotState
p449
(dp450
g19
g20
((lp451
(I6
I3
tp452
a(I5
I2
tp453
a(I6
I10
tp454
a(I6
I0
tp455
a(I7
I4
tp456
a(I0
I11
tp457
a(I6
I2
tp458
a(I3
I6
tp459
a(I2
I2
tp460
a(I0
I4
tp461
a(I3
I4
tp462
a(I5
I8
tp463
ag448
atp464
Rp465
sg15
I10
sg30
g20
((lp466
(I7
I3
tp467
a(I6
I7
tp468
a(I6
I8
tp469
a(I7
I1
tp470
a(I8
I1
tp471
a(I4
I4
tp472
a(I6
I6
tp473
a(I5
I6
tp474
a(I1
I9
tp475
a(I5
I0
tp476
a(I9
I10
tp477
a(I9
I6
tp478
a(I7
I9
tp479
atp480
Rp481
sg13
((I1
I7
tp482
(I7
I6
tp483
(I4
I6
tp484
(I2
I1
tp485
(I6
I4
tp486
(I0
I9
tp487
(I8
I0
tp488
tp489
sg14
I12
sbs(iproblems
RoomID
p490
(dp491
g10
I13
sg11
(I8
I3
tp492
sg13
I5
sg14
I13
sg15
I11
sg16
I890727360438182992
sb(imulti_robot_problem
MultiRobotState
p493
(dp494
g19
g20
((lp495
(I4
I10
tp496
a(I6
I9
tp497
a(I8
I2
tp498
a(I5
I9
tp499
a(I9
I8
tp500
ag492
a(I4
I12
tp501
a(I0
I10
tp502
a(I8
I7
tp503
a(I9
I1
tp504
a(I9
I0
tp505
a(I6
I8
tp506
a(I6
I10
tp507
a(I8
I8
tp508
a(I8
I6
tp509
a(I7
I8
tp510
a(I0
I2
tp511
atp512
Rp513
sg15
I11
sg30
g20
((lp514
(I10
I5
tp515
a(I0
I0
tp516
a(I4
I6
tp517
a(I0
I6
tp518
a(I9
I2
tp519
a(I8
I11
tp520
a(I2
I1
tp521
a(I9
I10
tp522
a(I1
I5
tp523
a(I0
I4
tp524
a(I0
I9
tp525
a(I5
I2
tp526
a(I4
I11
tp527
atp528
Rp529
sg13
((I3
I10
tp530
(I2
I7
tp531
(I9
I4
tp532
(I2
I11
tp533
(I7
I1
tp534
tp535
sg14
I13
sbs(iproblems
RoomID
p536
(dp537
g10
I15
sg11
(I6
I9
tp538
sg13
I7
sg14
I11
sg15
I12
sg16
I3960482443532127989
sb(imulti_robot_problem
MultiRobotState
p539
(dp540
g19
g20
((lp541
(I5
I9
tp542
ag538
a(I9
I1
tp543
a(I4
I10
tp544
a(I5
I6
tp545
a(I7
I7
tp546
a(I2
I10
tp547
a(I3
I9
tp548
a(I9
I4
tp549
a(I5
I10
tp550
a(I6
I4
tp551
a(I6
I5
tp552
a(I1
I2
tp553
a(I7
I4
tp554
a(I8
I3
tp555
a(I6
I7
tp556
a(I2
I9
tp557
a(I10
I7
tp558
a(I5
I7
tp559
a(I6
I3
tp560
a(I8
I1
tp561
a(I0
I9
tp562
a(I8
I6
tp563
a(I7
I8
tp564
a(I11
I6
tp565
a(I9
I7
tp566
atp567
Rp568
sg15
I12
sg30
g20
((lp569
(I7
I3
tp570
a(I2
I6
tp571
a(I5
I5
tp572
a(I3
I0
tp573
a(I3
I8
tp574
a(I0
I6
tp575
a(I11
I1
tp576
a(I1
I6
tp577
a(I4
I3
tp578
a(I1
I7
tp579
a(I1
I3
tp580
a(I1
I0
tp581
a(I10
I1
tp582
a(I1
I1
tp583
a(I10
I2
tp584
atp585
Rp586
sg13
((I11
I10
tp587
(I1
I8
tp588
(I10
I5
tp589
(I11
I0
tp590
(I4
I8
tp591
(I7
I9
tp592
(I7
I1
tp593
tp594
sg14
I11
sbs(iproblems
RoomID
p595
(dp596
g10
I12
sg11
(I6
I9
tp597
sg13
I6
sg14
I13
sg15
I13
sg16
I1585446675937841368
sb(imulti_robot_problem
MultiRobotState
p598
(dp599
g19
g20
((lp600
(I7
I3
tp601
ag597
a(I8
I11
tp602
a(I7
I7
tp603
a(I4
I12
tp604
a(I10
I3
tp605
a(I5
I8
tp606
a(I7
I4
tp607
a(I1
I12
tp608
a(I2
I9
tp609
a(I8
I1
tp610
a(I7
I6
tp611
a(I6
I3
tp612
a(I9
I2
tp613
a(I7
I5
tp614
a(I7
I2
tp615
a(I7
I10
tp616
a(I8
I4
tp617
a(I3
I4
tp618
a(I2
I4
tp619
a(I9
I12
tp620
a(I9
I7
tp621
atp622
Rp623
sg15
I13
sg30
g20
((lp624
(I3
I3
tp625
a(I2
I8
tp626
a(I12
I9
tp627
a(I6
I10
tp628
a(I8
I10
tp629
a(I2
I10
tp630
a(I12
I5
tp631
a(I4
I3
tp632
a(I5
I1
tp633
a(I7
I9
tp634
a(I5
I2
tp635
a(I3
I5
tp636
atp637
Rp638
sg13
((I10
I11
tp639
(I5
I5
tp640
(I12
I11
tp641
(I1
I10
tp642
(I3
I12
tp643
(I10
I4
tp644
tp645
sg14
I13
sbs(iproblems
RoomID
p646
(dp647
g10
I10
sg11
(I10
I4
tp648
sg13
I5
sg14
I10
sg15
I11
sg16
I1736392818365009963
sb(imulti_robot_problem
MultiRobotState
p649
(dp650
g19
g20
((lp651
(I0
I1
tp652
a(I1
I2
tp653
a(I3
I2
tp654
ag648
a(I4
I5
tp655
a(I7
I4
tp656
a(I6
I2
tp657
a(I2
I3
tp658
a(I10
I1
tp659
a(I3
I8
tp660
a(I10
I0
tp661
a(I10
I3
tp662
a(I10
I2
tp663
atp664
Rp665
sg15
I11
sg30
g20
((lp666
(I5
I9
tp667
a(I5
I5
tp668
a(I3
I1
tp669
a(I8
I8
tp670
a(I0
I5
tp671
a(I3
I9
tp672
a(I8
I4
tp673
a(I4
I1
tp674
a(I6
I5
tp675
a(I5
I3
tp676
atp677
Rp678
sg13
((I4
I2
tp679
(I1
I0
tp680
(I9
I3
tp681
(I1
I9
tp682
(I0
I2
tp683
tp684
sg14
I10
sbssg161
S'heavy_roomset'
p685
sbsg161
g163
sg164
(dp686
g446
((lp687
F41.350000000005821
tp688
sg490
((lp689
F40.419999999998254
tp690
sg536
((lp691
F41.69999999999709
tp692
sg646
((lp693
(F4.9799999999959255
I9
tp694
aF40.129999999997381
tp695
sg595
((lp696
F42.480000000003201
tp697
ssba(imeasure_core
ProblemSetSolution
p698
(dp699
g3
g4
sg161
S"AnytimeBeam-w20-gf(1.5, 'exp')_with_PowerHeuristic2"
p700
sg164
(dp701
g8
((lp702
(F1.7900000000008731
I28
tp703
aF40.30000000000291
tp704
sg47
((lp705
(F0.099999999998544808
I19
tp706
aF40.0
tp707
sg76
((lp708
(F0.08000000000174623
I30
tp709
a(F0.1599999999962165
I28
tp710
a(F0.48999999999796273
I27
tp711
a(F0.9099999999962165
I25
tp712
a(F1.2600000000020373
I23
tp713
a(F1.569999999999709
I22
tp714
a(F2.7999999999956344
I21
tp715
a(F3.9000000000014552
I20
tp716
aF40.0
tp717
sg101
((lp718
(F9.2099999999991269
I10
tp719
aF40.049999999995634
tp720
sg131
((lp721
(F0.46000000000640284
I14
tp722
aF40.110000000000582
tp723
ssba(imeasure_core
ProblemSetSolution
p724
(dp725
g3
g190
sg161
g700
sg164
(dp726
g193
((lp727
(F0.30999999999767169
I7
tp728
aF40.05000000000291
tp729
sg240
((lp730
F40.099999999998545
tp731
sg285
((lp732
(F6.4099999999962165
I66
tp733
aF40.120000000002619
tp734
sg327
((lp735
(F0.58999999999650754
I20
tp736
aF40.059999999997672
tp737
sg379
((lp738
(F2.3600000000005821
I15
tp739
aF40.040000000000873
tp740
ssba(imeasure_core
ProblemSetSolution
p741
(dp742
g3
g443
sg161
g700
sg164
(dp743
g446
((lp744
F41.060000000004948
tp745
sg490
((lp746
F40.549999999995634
tp747
sg536
((lp748
F42.0
tp749
sg646
((lp750
(F4.9700000000011642
I9
tp751
aF40.190000000002328
tp752
sg595
((lp753
F42.480000000003201
tp754
ssba(imeasure_core
ProblemSetSolution
p755
(dp756
g3
g4
sg161
S"AnytimeBeam-w20-gf(1.7, 'exp')_with_PowerHeuristic2"
p757
sg164
(dp758
g8
((lp759
(F1.7799999999988358
I28
tp760
aF40.110000000000582
tp761
sg47
((lp762
(F0.099999999998544808
I19
tp763
a(F29.459999999999127
I18
tp764
aF40.009999999994761
tp765
sg76
((lp766
(F0.069999999999708962
I30
tp767
a(F0.16000000000349246
I28
tp768
a(F0.48000000000320142
I27
tp769
a(F0.90000000000145519
I25
tp770
a(F1.2600000000020373
I23
tp771
a(F1.5600000000049477
I22
tp772
a(F2.8000000000029104
I21
tp773
a(F3.8899999999994179
I20
tp774
aF40.0
tp775
sg101
((lp776
(F9.1500000000014552
I10
tp777
aF42.090000000003783
tp778
sg131
((lp779
(F0.45999999999912689
I14
tp780
aF40.009999999994761
tp781
ssba(imeasure_core
ProblemSetSolution
p782
(dp783
g3
g190
sg161
g757
sg164
(dp784
g193
((lp785
(F0.30999999999767169
I7
tp786
aF40.169999999998254
tp787
sg240
((lp788
F40.220000000001164
tp789
sg285
((lp790
(F6.4000000000014552
I66
tp791
aF40.010000000002037
tp792
sg327
((lp793
(F0.58999999999650754
I20
tp794
aF40.059999999997672
tp795
sg379
((lp796
(F2.3700000000026193
I15
tp797
aF40.080000000001746
tp798
ssba(imeasure_core
ProblemSetSolution
p799
(dp800
g3
g443
sg161
g757
sg164
(dp801
g446
((lp802
F41.419999999998254
tp803
sg490
((lp804
F40.610000000000582
tp805
sg536
((lp806
F41.840000000003783
tp807
sg646
((lp808
(F5.0100000000020373
I9
tp809
aF40.400000000001455
tp810
sg595
((lp811
F42.589999999996508
tp812
ssba(imeasure_core
ProblemSetSolution
p813
(dp814
g3
g4
sg161
S"AnytimeBeam-w20-gf(1.8999999999999999, 'exp')_with_PowerHeuristic2"
p815
sg164
(dp816
g8
((lp817
(F1.7900000000008731
I28
tp818
aF40.230000000003201
tp819
sg47
((lp820
(F0.099999999998544808
I19
tp821
aF40.0
tp822
sg76
((lp823
(F0.079999999994470272
I30
tp824
a(F0.1599999999962165
I28
tp825
a(F0.48999999999796273
I27
tp826
a(F0.9099999999962165
I25
tp827
a(F1.2599999999947613
I23
tp828
a(F1.5599999999976717
I22
tp829
a(F2.7899999999935972
I21
tp830
a(F3.8899999999994179
I20
tp831
aF40.0
tp832
sg101
((lp833
(F9.2299999999959255
I10
tp834
aF40.089999999996508
tp835
sg131
((lp836
(F0.47000000000116415
I14
tp837
aF40.040000000000873
tp838
ssba(imeasure_core
ProblemSetSolution
p839
(dp840
g3
g190
sg161
g815
sg164
(dp841
g193
((lp842
(F0.31999999999970896
I7
tp843
aF40.19999999999709
tp844
sg240
((lp845
F40.180000000000291
tp846
sg285
((lp847
(F6.4199999999982538
I66
tp848
aF40.089999999996508
tp849
sg327
((lp850
(F0.60000000000582077
I20
tp851
aF40.090000000003783
tp852
sg379
((lp853
(F2.3799999999973807
I15
tp854
aF40.229999999995925
tp855
ssba(imeasure_core
ProblemSetSolution
p856
(dp857
g3
g443
sg161
g815
sg164
(dp858
g446
((lp859
F40.950000000004366
tp860
sg490
((lp861
F40.509999999994761
tp862
sg536
((lp863
F41.860000000000582
tp864
sg646
((lp865
(F4.9500000000043656
I9
tp866
aF40.190000000002328
tp867
sg595
((lp868
F42.610000000000582
tp869
ssba(imeasure_core
ProblemSetSolution
p870
(dp871
g3
g4
sg161
S"AnytimeBeam-w20-gf(1.3, 'exp')_with_LinearHeuristic"
p872
sg164
(dp873
g8
((lp874
(F0.37999999999738066
I5
tp875
aF40.269999999996799
tp876
sg47
((lp877
(F0.26000000000203727
I22
tp878
aF40.010000000002037
tp879
sg76
((lp880
(F0.019999999996798579
I20
tp881
aF40.0
tp882
sg101
((lp883
(F10.25
I10
tp884
aF40.779999999998836
tp885
sg131
((lp886
F40.290000000000873
tp887
ssba(imeasure_core
ProblemSetSolution
p888
(dp889
g3
g190
sg161
g872
sg164
(dp890
g193
((lp891
F40.470000000001164
tp892
sg240
((lp893
F40.110000000000582
tp894
sg285
((lp895
(F1.0399999999935972
I23
tp896
a(F22.669999999998254
I21
tp897
a(F32.519999999996799
I20
tp898
aF40.009999999994761
tp899
sg327
((lp900
F40.05000000000291
tp901
sg379
((lp902
F40.309999999997672
tp903
ssba(imeasure_core
ProblemSetSolution
p904
(dp905
g3
g443
sg161
g872
sg164
(dp906
g446
((lp907
F88.080000000001746
tp908
sg490
((lp909
F40.57999999999447
tp910
sg536
((lp911
F47.690000000002328
tp912
sg646
((lp913
F41.290000000000873
tp914
sg595
((lp915
F45.169999999998254
tp916
ssba(imeasure_core
ProblemSetSolution
p917
(dp918
g3
g4
sg161
S"AnytimeBeam-w20-gf(1.5, 'exp')_with_LinearHeuristic"
p919
sg164
(dp920
g8
((lp921
(F0.38999999999941792
I5
tp922
aF40.090000000003783
tp923
sg47
((lp924
(F0.25999999999476131
I22
tp925
aF40.019999999996799
tp926
sg76
((lp927
(F0.010000000002037268
I20
tp928
aF40.0
tp929
sg101
((lp930
(F10.230000000003201
I10
tp931
aF40.900000000001455
tp932
sg131
((lp933
F40.069999999999709
tp934
ssba(imeasure_core
ProblemSetSolution
p935
(dp936
g3
g190
sg161
g919
sg164
(dp937
g193
((lp938
F40.339999999996508
tp939
sg240
((lp940
F40.040000000000873
tp941
sg285
((lp942
(F1.0400000000008731
I23
tp943
a(F22.620000000002619
I21
tp944
a(F32.340000000003783
I20
tp945
aF40.069999999999709
tp946
sg327
((lp947
F40.080000000001746
tp948
sg379
((lp949
F40.479999999995925
tp950
ssba(imeasure_core
ProblemSetSolution
p951
(dp952
g3
g443
sg161
g919
sg164
(dp953
g446
((lp954
F87.490000000005239
tp955
sg490
((lp956
F40.519999999996799
tp957
sg536
((lp958
F47.639999999999418
tp959
sg646
((lp960
F41.260000000002037
tp961
sg595
((lp962
F45.150000000001455
tp963
ssba(imeasure_core
ProblemSetSolution
p964
(dp965
g3
g4
sg161
S"AnytimeBeam-w20-gf(1.7, 'exp')_with_LinearHeuristic"
p966
sg164
(dp967
g8
((lp968
(F0.37999999999738066
I5
tp969
aF40.119999999995343
tp970
sg47
((lp971
(F0.26000000000203727
I22
tp972
aF40.0
tp973
sg76
((lp974
(F0.020000000004074536
I20
tp975
aF40.0
tp976
sg101
((lp977
(F10.190000000002328
I10
tp978
aF40.840000000003783
tp979
sg131
((lp980
F40.190000000002328
tp981
ssba(imeasure_core
ProblemSetSolution
p982
(dp983
g3
g190
sg161
g966
sg164
(dp984
g193
((lp985
F40.399999999994179
tp986
sg240
((lp987
F40.190000000002328
tp988
sg285
((lp989
(F1.0400000000008731
I23
tp990
a(F22.629999999997381
I21
tp991
a(F32.430000000000291
I20
tp992
aF40.029999999998836
tp993
sg327
((lp994
F40.279999999998836
tp995
sg379
((lp996
F40.200000000004366
tp997
ssba(imeasure_core
ProblemSetSolution
p998
(dp999
g3
g443
sg161
g966
sg164
(dp1000
g446
((lp1001
F87.44999999999709
tp1002
sg490
((lp1003
F40.620000000002619
tp1004
sg536
((lp1005
F47.759999999994761
tp1006
sg646
((lp1007
F41.25
tp1008
sg595
((lp1009
F45.360000000000582
tp1010
ssba(imeasure_core
ProblemSetSolution
p1011
(dp1012
g3
g4
sg161
S"AnytimeBeam-w20-gf(1.8999999999999999, 'exp')_with_LinearHeuristic"
p1013
sg164
(dp1014
g8
((lp1015
(F0.38999999999941792
I5
tp1016
aF40.110000000000582
tp1017
sg47
((lp1018
(F0.27000000000407454
I22
tp1019
aF40.020000000004075
tp1020
sg76
((lp1021
(F0.0099999999947613105
I20
tp1022
aF40.0
tp1023
sg101
((lp1024
(F10.209999999999127
I10
tp1025
aF40.869999999995343
tp1026
sg131
((lp1027
F40.080000000001746
tp1028
ssba(imeasure_core
ProblemSetSolution
p1029
(dp1030
g3
g190
sg161
g1013
sg164
(dp1031
g193
((lp1032
F40.430000000000291
tp1033
sg240
((lp1034
F40.239999999997963
tp1035
sg285
((lp1036
(F1.0400000000008731
I23
tp1037
a(F22.510000000002037
I21
tp1038
a(F32.25
I20
tp1039
aF40.040000000000873
tp1040
sg327
((lp1041
F40.529999999998836
tp1042
sg379
((lp1043
F40.099999999998545
tp1044
ssba(imeasure_core
ProblemSetSolution
p1045
(dp1046
g3
g443
sg161
g1013
sg164
(dp1047
g446
((lp1048
F87.540000000000873
tp1049
sg490
((lp1050
F40.529999999998836
tp1051
sg536
((lp1052
F47.790000000000873
tp1053
sg646
((lp1054
F41.480000000003201
tp1055
sg595
((lp1056
F45.25
tp1057
ssba.