(lp0
(imeasure_core
ProblemSetSolution
p1
(dp2
S'roomset'
p3
(imeasure_core
RoomSet
p4
(dp5
S'rooms'
p6
(dp7
(iproblems
RoomID
p8
(dp9
S'dusts'
p10
I7
sS'obstacles'
p11
(I1
I3
tp12
sS'robots'
p13
I1
sS'height'
p14
I7
sS'width'
p15
I9
sS'seed'
p16
I1486246605650367638
sb(imulti_robot_problem
MultiRobotState
p17
(dp18
S'obstacle_locations'
p19
c__builtin__
frozenset
p20
((lp21
(I0
I1
tp22
a(I8
I3
tp23
ag12
a(I0
I3
tp24
a(I0
I2
tp25
atp26
Rp27
sg15
I9
sS'dirt_locations'
p28
g20
((lp29
(I7
I5
tp30
a(I7
I0
tp31
a(I0
I4
tp32
a(I1
I0
tp33
a(I4
I4
tp34
a(I6
I5
tp35
a(I4
I0
tp36
atp37
Rp38
sg13
((I5
I1
tp39
tp40
sg14
I7
sbs(iproblems
RoomID
p41
(dp42
g10
I9
sg11
(I7
I5
tp43
sg13
I4
sg14
I10
sg15
I10
sg16
I679259829289197625
sb(imulti_robot_problem
MultiRobotState
p44
(dp45
g19
g20
((lp46
(I9
I6
tp47
a(I8
I6
tp48
a(I7
I6
tp49
ag43
a(I7
I0
tp50
atp51
Rp52
sg15
I10
sg28
g20
((lp53
(I5
I4
tp54
a(I2
I6
tp55
a(I7
I1
tp56
a(I6
I1
tp57
a(I1
I6
tp58
a(I0
I5
tp59
a(I8
I7
tp60
a(I0
I9
tp61
a(I9
I5
tp62
atp63
Rp64
sg13
((I7
I8
tp65
(I6
I7
tp66
(I3
I5
tp67
(I3
I9
tp68
tp69
sg14
I10
sbs(iproblems
RoomID
p70
(dp71
g10
I6
sg11
(I4
I4
tp72
sg13
I4
sg14
I9
sg15
I9
sg16
I5891625650498269233
sb(imulti_robot_problem
MultiRobotState
p73
(dp74
g19
g20
((lp75
(I2
I7
tp76
a(I4
I5
tp77
ag72
a(I3
I6
tp78
atp79
Rp80
sg15
I9
sg28
g20
((lp81
(I7
I4
tp82
a(I8
I3
tp83
a(I0
I5
tp84
a(I5
I5
tp85
a(I6
I6
tp86
a(I4
I0
tp87
atp88
Rp89
sg13
((I4
I6
tp90
(I7
I1
tp91
(I0
I4
tp92
(I7
I2
tp93
tp94
sg14
I9
sbs(iproblems
RoomID
p95
(dp96
g10
I5
sg11
(I3
I4
tp97
sg13
I1
sg14
I9
sg15
I9
sg16
I2685440357799139976
sb(imulti_robot_problem
MultiRobotState
p98
(dp99
g19
g20
((lp100
(I8
I3
tp101
a(I1
I3
tp102
a(I5
I6
tp103
ag97
a(I2
I4
tp104
a(I3
I8
tp105
a(I2
I3
tp106
a(I7
I8
tp107
a(I1
I1
tp108
atp109
Rp110
sg15
I9
sg28
g20
((lp111
(I0
I1
tp112
a(I0
I0
tp113
a(I3
I1
tp114
a(I8
I7
tp115
a(I5
I0
tp116
atp117
Rp118
sg13
((I5
I5
tp119
tp120
sg14
I9
sbs(iproblems
RoomID
p121
(dp122
g10
I6
sg11
(I1
I6
tp123
sg13
I4
sg14
I8
sg15
I10
sg16
I403795515464475257
sb(imulti_robot_problem
MultiRobotState
p124
(dp125
g19
g20
((lp126
(I8
I3
tp127
a(I1
I3
tp128
a(I6
I7
tp129
a(I0
I4
tp130
ag123
a(I4
I1
tp131
a(I0
I5
tp132
atp133
Rp134
sg15
I10
sg28
g20
((lp135
(I7
I3
tp136
a(I4
I7
tp137
a(I2
I2
tp138
a(I8
I0
tp139
a(I0
I2
tp140
a(I0
I7
tp141
atp142
Rp143
sg13
((I8
I2
tp144
(I6
I1
tp145
(I5
I0
tp146
(I2
I0
tp147
tp148
sg14
I8
sbssS'name'
p149
S'easy_roomset'
p150
sbsg149
S"AnytimeBeam-w5-gf(1.5, 'exp')_with_PowerHeuristic2"
p151
sS'solutions'
p152
(dp153
g8
((lp154
(F0.19999999999708962
I45
tp155
a(F2.0
I44
tp156
a(F2.6500000000014552
I37
tp157
a(F3.2600000000020373
I36
tp158
a(F3.8899999999994179
I34
tp159
a(F5.9599999999991269
I33
tp160
a(F8.2200000000011642
I31
tp161
a(F11.169999999998254
I30
tp162
a(F14.360000000000582
I28
tp163
a(F16.779999999998836
I26
tp164
a(F21.80000000000291
I25
tp165
a(F28.269999999996799
I24
tp166
aF40.0
tp167
sg41
((lp168
(F2.9499999999970896
I20
tp169
aF40.069999999999709
tp170
sg70
((lp171
(F1.8099999999976717
I8
tp172
aF40.040000000000873
tp173
sg95
((lp174
(F0.16999999999825377
I47
tp175
a(F1.2600000000020373
I45
tp176
a(F2.3099999999976717
I43
tp177
a(F3.3000000000029104
I35
tp178
a(F4.4400000000023283
I33
tp179
a(F5.7099999999991269
I31
tp180
a(F7.0199999999967986
I29
tp181
a(F9.3700000000026193
I27
tp182
a(F12.620000000002619
I25
tp183
a(F15.349999999998545
I23
tp184
aF40.0
tp185
sg121
((lp186
(F37.510000000002037
I134
tp187
aF40.040000000000873
tp188
ssba(imeasure_core
ProblemSetSolution
p189
(dp190
g3
(imeasure_core
RoomSet
p191
(dp192
g6
(dp193
(iproblems
RoomID
p194
(dp195
g10
I9
sg11
(I7
I7
tp196
sg13
I4
sg14
I12
sg15
I12
sg16
I679259829289197625
sb(imulti_robot_problem
MultiRobotState
p197
(dp198
g19
g20
((lp199
(I6
I4
tp200
a(I6
I9
tp201
a(I6
I6
tp202
a(I5
I6
tp203
a(I9
I8
tp204
a(I11
I9
tp205
ag196
a(I1
I4
tp206
a(I11
I7
tp207
a(I7
I5
tp208
a(I8
I7
tp209
a(I4
I2
tp210
a(I8
I5
tp211
a(I6
I5
tp212
a(I10
I8
tp213
a(I10
I5
tp214
a(I6
I7
tp215
a(I6
I8
tp216
a(I10
I7
tp217
a(I9
I6
tp218
a(I7
I6
tp219
a(I8
I10
tp220
a(I7
I4
tp221
a(I11
I8
tp222
a(I7
I10
tp223
a(I8
I6
tp224
a(I6
I1
tp225
a(I9
I7
tp226
atp227
Rp228
sg15
I12
sg28
g20
((lp229
(I2
I7
tp230
a(I9
I0
tp231
a(I8
I2
tp232
a(I7
I1
tp233
a(I11
I0
tp234
a(I0
I11
tp235
a(I1
I6
tp236
a(I1
I7
tp237
a(I11
I6
tp238
atp239
Rp240
sg13
((I9
I10
tp241
(I8
I9
tp242
(I3
I7
tp243
(I3
I11
tp244
tp245
sg14
I12
sbs(iproblems
RoomID
p246
(dp247
g10
I5
sg11
(I9
I1
tp248
sg13
I3
sg14
I11
sg15
I11
sg16
I2685440357799139976
sb(imulti_robot_problem
MultiRobotState
p249
(dp250
g19
g20
((lp251
(I7
I3
tp252
a(I10
I4
tp253
a(I9
I3
tp254
ag248
a(I7
I1
tp255
a(I5
I6
tp256
a(I10
I6
tp257
a(I1
I4
tp258
a(I9
I9
tp259
a(I3
I9
tp260
a(I9
I4
tp261
a(I6
I8
tp262
a(I9
I6
tp263
a(I3
I4
tp264
a(I10
I3
tp265
a(I7
I2
tp266
a(I5
I3
tp267
a(I8
I3
tp268
a(I5
I5
tp269
a(I10
I7
tp270
a(I8
I5
tp271
a(I9
I2
tp272
a(I3
I6
tp273
a(I4
I5
tp274
a(I6
I5
tp275
a(I7
I10
tp276
a(I9
I5
tp277
a(I3
I5
tp278
a(I7
I8
tp279
a(I2
I4
tp280
a(I10
I9
tp281
atp282
Rp283
sg15
I11
sg28
g20
((lp284
(I1
I2
tp285
a(I9
I10
tp286
a(I6
I1
tp287
a(I4
I1
tp288
a(I0
I2
tp289
atp290
Rp291
sg13
((I6
I6
tp292
(I0
I0
tp293
(I10
I8
tp294
tp295
sg14
I11
sbs(iproblems
RoomID
p296
(dp297
g10
I10
sg11
(I1
I5
tp298
sg13
I4
sg14
I12
sg15
I10
sg16
I1737871632067391849
sb(imulti_robot_problem
MultiRobotState
p299
(dp300
g19
g20
((lp301
(I3
I2
tp302
a(I0
I0
tp303
a(I6
I6
tp304
a(I5
I6
tp305
a(I2
I8
tp306
a(I2
I10
tp307
a(I8
I9
tp308
a(I6
I2
tp309
a(I2
I3
tp310
a(I8
I7
tp311
a(I5
I1
tp312
a(I8
I5
tp313
a(I5
I8
tp314
a(I8
I3
tp315
a(I5
I5
tp316
a(I7
I8
tp317
a(I7
I6
tp318
a(I8
I10
tp319
ag298
a(I6
I5
tp320
a(I2
I2
tp321
a(I4
I1
tp322
a(I2
I4
tp323
atp324
Rp325
sg15
I10
sg28
g20
((lp326
(I0
I1
tp327
a(I4
I10
tp328
a(I4
I8
tp329
a(I3
I0
tp330
a(I9
I6
tp331
a(I3
I10
tp332
a(I5
I11
tp333
a(I2
I7
tp334
a(I1
I9
tp335
a(I3
I4
tp336
atp337
Rp338
sg13
((I4
I9
tp339
(I8
I11
tp340
(I4
I0
tp341
(I3
I9
tp342
tp343
sg14
I12
sbs(iproblems
RoomID
p344
(dp345
g10
I7
sg11
(I8
I8
tp346
sg13
I3
sg14
I9
sg15
I9
sg16
I7834319822419845881
sb(imulti_robot_problem
MultiRobotState
p347
(dp348
g19
g20
((lp349
(I4
I7
tp350
a(I1
I3
tp351
a(I5
I0
tp352
a(I6
I6
tp353
a(I5
I6
tp354
a(I2
I8
tp355
a(I3
I5
tp356
a(I4
I6
tp357
a(I2
I6
tp358
a(I0
I5
tp359
a(I3
I7
tp360
a(I0
I3
tp361
a(I0
I8
tp362
a(I8
I5
tp363
a(I5
I8
tp364
a(I3
I3
tp365
a(I2
I7
tp366
a(I6
I7
tp367
a(I5
I5
tp368
a(I7
I8
tp369
a(I4
I4
tp370
a(I1
I5
tp371
a(I1
I8
tp372
ag346
a(I3
I6
tp373
a(I1
I7
tp374
a(I4
I5
tp375
a(I5
I3
tp376
a(I3
I4
tp377
atp378
Rp379
sg15
I9
sg28
g20
((lp380
(I7
I4
tp381
a(I2
I0
tp382
a(I6
I2
tp383
a(I7
I0
tp384
a(I8
I7
tp385
a(I7
I1
tp386
a(I1
I4
tp387
atp388
Rp389
sg13
((I2
I1
tp390
(I2
I3
tp391
(I5
I7
tp392
tp393
sg14
I9
sbs(iproblems
RoomID
p394
(dp395
g10
I6
sg11
(I3
I9
tp396
sg13
I4
sg14
I11
sg15
I11
sg16
I5891625650498269233
sb(imulti_robot_problem
MultiRobotState
p397
(dp398
g19
g20
((lp399
(I7
I3
tp400
a(I4
I7
tp401
a(I6
I6
tp402
a(I5
I6
tp403
a(I2
I8
tp404
a(I6
I2
tp405
a(I5
I1
tp406
a(I3
I7
tp407
a(I8
I5
tp408
a(I5
I5
tp409
a(I2
I9
tp410
a(I7
I6
tp411
a(I4
I4
tp412
a(I2
I2
tp413
a(I1
I1
tp414
a(I9
I7
tp415
a(I3
I2
tp416
a(I10
I4
tp417
a(I4
I5
tp418
a(I9
I3
tp419
a(I10
I5
tp420
a(I2
I10
tp421
a(I7
I5
tp422
a(I2
I3
tp423
a(I8
I3
tp424
a(I4
I6
tp425
a(I5
I2
tp426
a(I6
I1
tp427
a(I3
I8
tp428
a(I1
I8
tp429
ag396
a(I4
I3
tp430
a(I9
I5
tp431
a(I3
I4
tp432
a(I8
I4
tp433
atp434
Rp435
sg15
I11
sg28
g20
((lp436
(I8
I8
tp437
a(I5
I10
tp438
a(I9
I1
tp439
a(I10
I7
tp440
a(I1
I6
tp441
a(I7
I9
tp442
atp443
Rp444
sg13
((I5
I7
tp445
(I8
I1
tp446
(I0
I5
tp447
(I4
I0
tp448
tp449
sg14
I11
sbssg149
S'mild_roomset'
p450
sbsg149
g151
sg152
(dp451
g194
((lp452
F40.75
tp453
sg246
((lp454
(F28.089999999996508
I127
tp455
aF40.269999999996799
tp456
sg296
((lp457
(F1.180000000000291
I12
tp458
aF40.099999999998545
tp459
sg344
((lp460
(F0.13000000000465661
I25
tp461
aF40.020000000004075
tp462
sg394
((lp463
(F17.040000000000873
I64
tp464
aF40.099999999998545
tp465
ssba(imeasure_core
ProblemSetSolution
p466
(dp467
g3
(imeasure_core
RoomSet
p468
(dp469
g6
(dp470
(iproblems
RoomID
p471
(dp472
g10
I12
sg11
(I6
I3
tp473
sg13
I5
sg14
I10
sg15
I12
sg16
I1486246605650367638
sb(imulti_robot_problem
MultiRobotState
p474
(dp475
g19
g20
((lp476
(I5
I9
tp477
a(I1
I3
tp478
a(I7
I1
tp479
a(I2
I7
tp480
a(I1
I4
tp481
a(I6
I2
tp482
a(I1
I6
tp483
a(I2
I1
tp484
a(I0
I3
tp485
a(I6
I5
tp486
a(I1
I2
tp487
a(I1
I5
tp488
a(I4
I1
tp489
a(I3
I1
tp490
ag473
a(I2
I0
tp491
a(I10
I0
tp492
a(I5
I2
tp493
a(I1
I1
tp494
a(I8
I4
tp495
atp496
Rp497
sg15
I12
sg28
g20
((lp498
(I11
I7
tp499
a(I11
I4
tp500
a(I9
I1
tp501
a(I11
I8
tp502
a(I2
I8
tp503
a(I6
I0
tp504
a(I0
I6
tp505
a(I11
I1
tp506
a(I0
I4
tp507
a(I4
I9
tp508
a(I10
I9
tp509
a(I9
I7
tp510
atp511
Rp512
sg13
((I2
I4
tp513
(I10
I1
tp514
(I2
I5
tp515
(I9
I8
tp516
(I6
I6
tp517
tp518
sg14
I10
sbs(iproblems
RoomID
p519
(dp520
g10
I14
sg11
(I7
I6
tp521
sg13
I7
sg14
I13
sg15
I13
sg16
I679259829289197625
sb(imulti_robot_problem
MultiRobotState
p522
(dp523
g19
g20
((lp524
(I6
I4
tp525
a(I4
I8
tp526
a(I12
I7
tp527
a(I10
I6
tp528
a(I7
I5
tp529
a(I12
I11
tp530
a(I9
I6
tp531
a(I1
I2
tp532
a(I11
I7
tp533
a(I10
I7
tp534
ag521
a(I6
I3
tp535
a(I6
I2
tp536
a(I4
I3
tp537
a(I3
I4
tp538
a(I12
I8
tp539
atp540
Rp541
sg15
I13
sg28
g20
((lp542
(I2
I7
tp543
a(I12
I1
tp544
a(I9
I2
tp545
a(I2
I8
tp546
a(I5
I7
tp547
a(I10
I0
tp548
a(I1
I4
tp549
a(I0
I12
tp550
a(I7
I4
tp551
a(I10
I9
tp552
a(I4
I2
tp553
a(I11
I4
tp554
a(I11
I6
tp555
a(I1
I9
tp556
atp557
Rp558
sg13
((I9
I11
tp559
(I9
I10
tp560
(I4
I7
tp561
(I4
I12
tp562
(I7
I1
tp563
(I1
I8
tp564
(I1
I6
tp565
tp566
sg14
I13
sbs(iproblems
RoomID
p567
(dp568
g10
I11
sg11
(I11
I9
tp569
sg13
I7
sg14
I12
sg15
I12
sg16
I5891625650498269233
sb(imulti_robot_problem
MultiRobotState
p570
(dp571
g19
g20
((lp572
(I4
I4
tp573
a(I4
I8
tp574
a(I5
I6
tp575
a(I8
I11
tp576
ag569
a(I7
I7
tp577
a(I7
I1
tp578
a(I9
I10
tp579
a(I3
I9
tp580
a(I1
I9
tp581
a(I6
I7
tp582
a(I10
I7
tp583
a(I7
I6
tp584
a(I5
I7
tp585
a(I2
I11
tp586
a(I6
I11
tp587
a(I9
I11
tp588
a(I7
I10
tp589
a(I10
I9
tp590
atp591
Rp592
sg15
I12
sg28
g20
((lp593
(I11
I7
tp594
a(I11
I4
tp595
a(I4
I6
tp596
a(I5
I11
tp597
a(I8
I10
tp598
a(I0
I5
tp599
a(I8
I7
tp600
a(I1
I7
tp601
a(I10
I1
tp602
a(I1
I1
tp603
a(I5
I5
tp604
atp605
Rp606
sg13
((I6
I8
tp607
(I9
I2
tp608
(I0
I6
tp609
(I10
I3
tp610
(I9
I5
tp611
(I5
I0
tp612
(I9
I8
tp613
tp614
sg14
I12
sbs(iproblems
RoomID
p615
(dp616
g10
I11
sg11
(I2
I7
tp617
sg13
I6
sg14
I11
sg15
I13
sg16
I403795515464475257
sb(imulti_robot_problem
MultiRobotState
p618
(dp619
g19
g20
((lp620
g617
a(I10
I8
tp621
a(I1
I7
tp622
a(I3
I10
tp623
a(I4
I4
tp624
a(I1
I4
tp625
a(I12
I5
tp626
a(I0
I6
tp627
a(I0
I5
tp628
a(I3
I6
tp629
a(I2
I2
tp630
a(I0
I8
tp631
a(I7
I9
tp632
atp633
Rp634
sg15
I13
sg28
g20
((lp635
(I6
I4
tp636
a(I0
I0
tp637
a(I2
I9
tp638
a(I11
I5
tp639
a(I8
I9
tp640
a(I11
I1
tp641
a(I2
I3
tp642
a(I1
I10
tp643
a(I12
I2
tp644
a(I0
I3
tp645
a(I5
I2
tp646
atp647
Rp648
sg13
((I10
I3
tp649
(I7
I2
tp650
(I7
I0
tp651
(I3
I1
tp652
(I5
I10
tp653
(I9
I4
tp654
tp655
sg14
I11
sbs(iproblems
RoomID
p656
(dp657
g10
I10
sg11
(I6
I9
tp658
sg13
I5
sg14
I12
sg15
I12
sg16
I2685440357799139976
sb(imulti_robot_problem
MultiRobotState
p659
(dp660
g19
g20
((lp661
(I4
I10
tp662
ag658
a(I9
I1
tp663
a(I5
I11
tp664
a(I3
I0
tp665
a(I0
I7
tp666
a(I3
I9
tp667
a(I0
I5
tp668
a(I1
I4
tp669
a(I0
I3
tp670
a(I4
I0
tp671
a(I1
I2
tp672
a(I11
I10
tp673
a(I6
I10
tp674
a(I5
I6
tp675
a(I9
I11
tp676
a(I7
I9
tp677
a(I4
I5
tp678
a(I3
I5
tp679
a(I3
I4
tp680
a(I2
I4
tp681
a(I1
I9
tp682
atp683
Rp684
sg15
I12
sg28
g20
((lp685
(I11
I7
tp686
a(I8
I3
tp687
a(I10
I11
tp688
a(I7
I1
tp689
a(I10
I5
tp690
a(I8
I10
tp691
a(I6
I3
tp692
a(I3
I6
tp693
a(I9
I10
tp694
a(I6
I5
tp695
atp696
Rp697
sg13
((I7
I7
tp698
(I0
I0
tp699
(I11
I9
tp700
(I0
I2
tp701
(I4
I1
tp702
tp703
sg14
I12
sbssg149
S'heavy_roomset'
p704
sbsg149
g151
sg152
(dp705
g471
((lp706
F42.299999999995634
tp707
sg519
((lp708
F67.280000000006112
tp709
sg567
((lp710
F51.379999999997381
tp711
sg615
((lp712
F42.290000000000873
tp713
sg656
((lp714
(F25.510000000002037
I58
tp715
aF40.119999999995343
tp716
ssba(imeasure_core
ProblemSetSolution
p717
(dp718
g3
g4
sg149
S"AnytimeBeam-w15-gf(1.5, 'exp')_with_PowerHeuristic2"
p719
sg152
(dp720
g8
((lp721
(F0.08000000000174623
I45
tp722
a(F1.5900000000037835
I44
tp723
a(F2.2300000000032014
I37
tp724
a(F2.8400000000037835
I36
tp725
a(F3.4700000000011642
I34
tp726
a(F5.5400000000008731
I33
tp727
a(F7.7799999999988358
I31
tp728
a(F10.720000000001164
I30
tp729
a(F13.930000000000291
I28
tp730
a(F16.360000000000582
I26
tp731
a(F21.400000000001455
I25
tp732
a(F27.880000000004657
I24
tp733
aF40.0
tp734
sg41
((lp735
(F2.9700000000011642
I20
tp736
aF40.110000000000582
tp737
sg70
((lp738
(F1.8000000000029104
I8
tp739
aF40.05000000000291
tp740
sg95
((lp741
(F0.16999999999825377
I47
tp742
a(F1.2599999999947613
I45
tp743
a(F2.2999999999956344
I43
tp744
a(F3.2900000000008731
I35
tp745
a(F4.430000000000291
I33
tp746
a(F5.6999999999970896
I31
tp747
a(F7.0199999999967986
I29
tp748
a(F9.3399999999965075
I27
tp749
a(F12.569999999999709
I25
tp750
a(F15.309999999997672
I23
tp751
aF40.0
tp752
sg121
((lp753
(F37.709999999999127
I134
tp754
aF40.069999999999709
tp755
ssba(imeasure_core
ProblemSetSolution
p756
(dp757
g3
g191
sg149
g719
sg152
(dp758
g194
((lp759
F41.029999999998836
tp760
sg246
((lp761
(F28.290000000000873
I127
tp762
aF40.279999999998836
tp763
sg296
((lp764
(F1.1900000000023283
I12
tp765
aF40.209999999999127
tp766
sg344
((lp767
(F0.13000000000465661
I25
tp768
aF40.010000000002037
tp769
sg394
((lp770
(F17.169999999998254
I64
tp771
aF40.080000000001746
tp772
ssba(imeasure_core
ProblemSetSolution
p773
(dp774
g3
g468
sg149
g719
sg152
(dp775
g471
((lp776
F42.290000000000873
tp777
sg519
((lp778
F67.790000000000873
tp779
sg567
((lp780
F51.130000000004657
tp781
sg615
((lp782
F42.349999999998545
tp783
sg656
((lp784
(F25.459999999999127
I58
tp785
aF40.119999999995343
tp786
ssba(imeasure_core
ProblemSetSolution
p787
(dp788
g3
g4
sg149
S"AnytimeBeam-w25-gf(1.5, 'exp')_with_PowerHeuristic2"
p789
sg152
(dp790
g8
((lp791
(F0.12000000000261934
I45
tp792
a(F1.4700000000011642
I44
tp793
a(F2.1300000000046566
I37
tp794
a(F2.7400000000052387
I36
tp795
a(F3.3700000000026193
I34
tp796
a(F5.4400000000023283
I33
tp797
a(F7.680000000000291
I31
tp798
a(F10.630000000004657
I30
tp799
a(F13.819999999999709
I28
tp800
a(F16.25
I26
tp801
a(F21.270000000004075
I25
tp802
a(F27.75
I24
tp803
aF40.0
tp804
sg41
((lp805
(F2.9500000000043656
I20
tp806
aF40.010000000002037
tp807
sg70
((lp808
(F1.8000000000029104
I8
tp809
aF40.209999999999127
tp810
sg95
((lp811
(F0.16999999999825377
I47
tp812
a(F1.2700000000040745
I45
tp813
a(F2.3100000000049477
I43
tp814
a(F3.3000000000029104
I35
tp815
a(F4.4400000000023283
I33
tp816
a(F5.7099999999991269
I31
tp817
a(F7.0299999999988358
I29
tp818
a(F9.3700000000026193
I27
tp819
a(F12.630000000004657
I25
tp820
a(F15.380000000004657
I23
tp821
aF40.0
tp822
sg121
((lp823
(F37.55000000000291
I134
tp824
aF40.0
tp825
ssba(imeasure_core
ProblemSetSolution
p826
(dp827
g3
g191
sg149
g789
sg152
(dp828
g194
((lp829
F40.830000000001746
tp830
sg246
((lp831
(F27.819999999999709
I127
tp832
aF40.269999999996799
tp833
sg296
((lp834
(F1.180000000000291
I12
tp835
aF40.25
tp836
sg344
((lp837
(F0.12999999999738066
I25
tp838
aF40.010000000002037
tp839
sg394
((lp840
(F17.0
I64
tp841
aF40.229999999995925
tp842
ssba(imeasure_core
ProblemSetSolution
p843
(dp844
g3
g468
sg149
g789
sg152
(dp845
g471
((lp846
F42.30000000000291
tp847
sg519
((lp848
F67.419999999998254
tp849
sg567
((lp850
F51.260000000002037
tp851
sg615
((lp852
F42.430000000000291
tp853
sg656
((lp854
(F25.470000000001164
I58
tp855
aF40.129999999997381
tp856
ssba(imeasure_core
ProblemSetSolution
p857
(dp858
g3
g4
sg149
S"AnytimeBeam-w35-gf(1.5, 'exp')_with_PowerHeuristic2"
p859
sg152
(dp860
g8
((lp861
(F0.16999999999825377
I45
tp862
a(F1.1299999999973807
I44
tp863
a(F1.7699999999967986
I37
tp864
a(F2.3899999999994179
I36
tp865
a(F3.0199999999967986
I34
tp866
a(F5.0899999999965075
I33
tp867
a(F7.3300000000017462
I31
tp868
a(F10.290000000000873
I30
tp869
a(F13.470000000001164
I28
tp870
a(F15.900000000001455
I26
tp871
a(F20.930000000000291
I25
tp872
a(F27.389999999999418
I24
tp873
aF40.0
tp874
sg41
((lp875
(F2.9599999999991269
I20
tp876
aF40.019999999996799
tp877
sg70
((lp878
(F1.8100000000049477
I8
tp879
aF40.080000000001746
tp880
sg95
((lp881
(F0.16000000000349246
I47
tp882
a(F1.2600000000020373
I45
tp883
a(F2.3000000000029104
I43
tp884
a(F3.2900000000008731
I35
tp885
a(F4.430000000000291
I33
tp886
a(F5.7099999999991269
I31
tp887
a(F7.0299999999988358
I29
tp888
a(F9.3899999999994179
I27
tp889
a(F12.660000000003492
I25
tp890
a(F15.400000000001455
I23
tp891
aF40.0
tp892
sg121
((lp893
(F38.099999999998545
I134
tp894
aF40.160000000003492
tp895
ssba(imeasure_core
ProblemSetSolution
p896
(dp897
g3
g191
sg149
g859
sg152
(dp898
g194
((lp899
F40.869999999995343
tp900
sg246
((lp901
(F28.030000000006112
I127
tp902
aF40.310000000004948
tp903
sg296
((lp904
(F1.180000000000291
I12
tp905
aF40.149999999994179
tp906
sg344
((lp907
(F0.13000000000465661
I25
tp908
aF40.030000000006112
tp909
sg394
((lp910
(F17.07999999999447
I64
tp911
aF40.219999999993888
tp912
ssba(imeasure_core
ProblemSetSolution
p913
(dp914
g3
g468
sg149
g859
sg152
(dp915
g471
((lp916
F42.180000000000291
tp917
sg519
((lp918
F67.55000000000291
tp919
sg567
((lp920
F51.279999999998836
tp921
sg615
((lp922
F42.629999999997381
tp923
sg656
((lp924
(F25.590000000003783
I58
tp925
aF40.190000000002328
tp926
ssba(imeasure_core
ProblemSetSolution
p927
(dp928
g3
g4
sg149
S"AnytimeBeam-w45-gf(1.5, 'exp')_with_PowerHeuristic2"
p929
sg152
(dp930
g8
((lp931
(F0.1599999999962165
I45
tp932
a(F0.75
I44
tp933
a(F1.3699999999953434
I37
tp934
a(F1.9799999999959255
I36
tp935
a(F2.6100000000005821
I34
tp936
a(F4.680000000000291
I33
tp937
a(F6.9199999999982538
I31
tp938
a(F9.8699999999953434
I30
tp939
a(F13.049999999995634
I28
tp940
a(F15.489999999997963
I26
tp941
a(F20.529999999998836
I25
tp942
a(F27.0
I24
tp943
aF40.0
tp944
sg41
((lp945
(F2.9499999999970896
I20
tp946
aF40.119999999995343
tp947
sg70
((lp948
(F1.8100000000049477
I8
tp949
aF40.010000000002037
tp950
sg95
((lp951
(F0.16999999999825377
I47
tp952
a(F1.2600000000020373
I45
tp953
a(F2.3099999999976717
I43
tp954
a(F3.2900000000008731
I35
tp955
a(F4.430000000000291
I33
tp956
a(F5.7099999999991269
I31
tp957
a(F7.0199999999967986
I29
tp958
a(F9.3499999999985448
I27
tp959
a(F12.580000000001746
I25
tp960
a(F15.319999999999709
I23
tp961
aF40.0
tp962
sg121
((lp963
(F37.590000000003783
I134
tp964
aF40.0
tp965
ssba(imeasure_core
ProblemSetSolution
p966
(dp967
g3
g191
sg149
g929
sg152
(dp968
g194
((lp969
F41.0
tp970
sg246
((lp971
(F28.05000000000291
I127
tp972
aF40.309999999997672
tp973
sg296
((lp974
(F1.180000000000291
I12
tp975
aF40.090000000003783
tp976
sg344
((lp977
(F0.13999999999941792
I25
tp978
aF40.010000000002037
tp979
sg394
((lp980
(F17.049999999995634
I64
tp981
aF40.099999999998545
tp982
ssba(imeasure_core
ProblemSetSolution
p983
(dp984
g3
g468
sg149
g929
sg152
(dp985
g471
((lp986
F42.44999999999709
tp987
sg519
((lp988
F67.230000000003201
tp989
sg567
((lp990
F51.319999999999709
tp991
sg615
((lp992
F42.269999999996799
tp993
sg656
((lp994
(F25.529999999998836
I58
tp995
aF40.160000000003492
tp996
ssba(imeasure_core
ProblemSetSolution
p997
(dp998
g3
g4
sg149
S"AnytimeBeam-w5-gf(1.5, 'exp')_with_LinearHeuristic"
p999
sg152
(dp1000
g8
((lp1001
(F0.019999999996798579
I24
tp1002
aF40.0
tp1003
sg41
((lp1004
F40.029999999998836
tp1005
sg70
((lp1006
(F1.4400000000023283
I4
tp1007
aF40.049999999995634
tp1008
sg95
((lp1009
(F0.020000000004074536
I23
tp1010
aF40.0
tp1011
sg121
((lp1012
F40.090000000003783
tp1013
ssba(imeasure_core
ProblemSetSolution
p1014
(dp1015
g3
g191
sg149
g999
sg152
(dp1016
g194
((lp1017
F40.57999999999447
tp1018
sg246
((lp1019
F40.140000000006694
tp1020
sg296
((lp1021
F40.099999999998545
tp1022
sg344
((lp1023
F40.110000000000582
tp1024
sg394
((lp1025
F41.069999999999709
tp1026
ssba(imeasure_core
ProblemSetSolution
p1027
(dp1028
g3
g468
sg149
g999
sg152
(dp1029
g471
((lp1030
F40.470000000001164
tp1031
sg519
((lp1032
F59.82999999999447
tp1033
sg567
((lp1034
F48.639999999999418
tp1035
sg615
((lp1036
F42.069999999999709
tp1037
sg656
((lp1038
F40.139999999999418
tp1039
ssba(imeasure_core
ProblemSetSolution
p1040
(dp1041
g3
g4
sg149
S"AnytimeBeam-w15-gf(1.5, 'exp')_with_LinearHeuristic"
p1042
sg152
(dp1043
g8
((lp1044
(F0.010000000002037268
I24
tp1045
aF40.0
tp1046
sg41
((lp1047
F40.05000000000291
tp1048
sg70
((lp1049
(F1.4099999999962165
I4
tp1050
aF40.319999999999709
tp1051
sg95
((lp1052
(F0.019999999996798579
I23
tp1053
aF40.0
tp1054
sg121
((lp1055
F40.279999999998836
tp1056
ssba(imeasure_core
ProblemSetSolution
p1057
(dp1058
g3
g191
sg149
g1042
sg152
(dp1059
g194
((lp1060
F40.869999999995343
tp1061
sg246
((lp1062
F40.120000000002619
tp1063
sg296
((lp1064
F40.099999999998545
tp1065
sg344
((lp1066
F40.150000000001455
tp1067
sg394
((lp1068
F40.069999999999709
tp1069
ssba(imeasure_core
ProblemSetSolution
p1070
(dp1071
g3
g468
sg149
g1042
sg152
(dp1072
g471
((lp1073
F40.339999999996508
tp1074
sg519
((lp1075
F59.819999999999709
tp1076
sg567
((lp1077
F48.290000000000873
tp1078
sg615
((lp1079
F42.139999999999418
tp1080
sg656
((lp1081
F40.180000000000291
tp1082
ssba(imeasure_core
ProblemSetSolution
p1083
(dp1084
g3
g4
sg149
S"AnytimeBeam-w25-gf(1.5, 'exp')_with_LinearHeuristic"
p1085
sg152
(dp1086
g8
((lp1087
(F0.010000000002037268
I24
tp1088
aF40.0
tp1089
sg41
((lp1090
F40.239999999997963
tp1091
sg70
((lp1092
(F1.4199999999982538
I4
tp1093
aF40.029999999998836
tp1094
sg95
((lp1095
(F0.020000000004074536
I23
tp1096
aF40.0
tp1097
sg121
((lp1098
F40.470000000001164
tp1099
ssba(imeasure_core
ProblemSetSolution
p1100
(dp1101
g3
g191
sg149
g1085
sg152
(dp1102
g194
((lp1103
F40.760000000002037
tp1104
sg246
((lp1105
F40.369999999995343
tp1106
sg296
((lp1107
F40.209999999999127
tp1108
sg344
((lp1109
F40.100000000005821
tp1110
sg394
((lp1111
F40.07999999999447
tp1112
ssba(imeasure_core
ProblemSetSolution
p1113
(dp1114
g3
g468
sg149
g1085
sg152
(dp1115
g471
((lp1116
F40.459999999999127
tp1117
sg519
((lp1118
F59.940000000002328
tp1119
sg567
((lp1120
F48.220000000001164
tp1121
sg615
((lp1122
F41.980000000003201
tp1123
sg656
((lp1124
F40.19999999999709
tp1125
ssba(imeasure_core
ProblemSetSolution
p1126
(dp1127
g3
g4
sg149
S"AnytimeBeam-w35-gf(1.5, 'exp')_with_LinearHeuristic"
p1128
sg152
(dp1129
g8
((lp1130
(F0.0099999999947613105
I24
tp1131
aF40.0
tp1132
sg41
((lp1133
F40.0
tp1134
sg70
((lp1135
(F1.4099999999962165
I4
tp1136
aF40.169999999998254
tp1137
sg95
((lp1138
(F0.019999999996798579
I23
tp1139
aF40.0
tp1140
sg121
((lp1141
F40.069999999999709
tp1142
ssba(imeasure_core
ProblemSetSolution
p1143
(dp1144
g3
g191
sg149
g1128
sg152
(dp1145
g194
((lp1146
F40.5
tp1147
sg246
((lp1148
F40.110000000000582
tp1149
sg296
((lp1150
F41.180000000000291
tp1151
sg344
((lp1152
F40.059999999997672
tp1153
sg394
((lp1154
F40.099999999998545
tp1155
ssba(imeasure_core
ProblemSetSolution
p1156
(dp1157
g3
g468
sg149
g1128
sg152
(dp1158
g471
((lp1159
F40.709999999999127
tp1160
sg519
((lp1161
F60.150000000001455
tp1162
sg567
((lp1163
F48.560000000004948
tp1164
sg615
((lp1165
F42.099999999998545
tp1166
sg656
((lp1167
F40.139999999999418
tp1168
ssba(imeasure_core
ProblemSetSolution
p1169
(dp1170
g3
g4
sg149
S"AnytimeBeam-w45-gf(1.5, 'exp')_with_LinearHeuristic"
p1171
sg152
(dp1172
g8
((lp1173
(F0.0099999999947613105
I24
tp1174
aF40.0
tp1175
sg41
((lp1176
F40.0
tp1177
sg70
((lp1178
(F1.4499999999970896
I4
tp1179
aF40.069999999999709
tp1180
sg95
((lp1181
(F0.019999999996798579
I23
tp1182
aF40.0
tp1183
sg121
((lp1184
F40.229999999995925
tp1185
ssba(imeasure_core
ProblemSetSolution
p1186
(dp1187
g3
g191
sg149
g1171
sg152
(dp1188
g194
((lp1189
F40.690000000002328
tp1190
sg246
((lp1191
F40.110000000000582
tp1192
sg296
((lp1193
F40.169999999998254
tp1194
sg344
((lp1195
F40.139999999999418
tp1196
sg394
((lp1197
F40.099999999998545
tp1198
ssba(imeasure_core
ProblemSetSolution
p1199
(dp1200
g3
g468
sg149
g1171
sg152
(dp1201
g471
((lp1202
F40.44999999999709
tp1203
sg519
((lp1204
F60.490000000005239
tp1205
sg567
((lp1206
F48.569999999999709
tp1207
sg615
((lp1208
F42.259999999994761
tp1209
sg656
((lp1210
F40.360000000000582
tp1211
ssba.