(lp0
(imeasure_core
ProblemSetSolution
p1
(dp2
S'roomset'
p3
(imeasure_core
RoomSet
p4
(dp5
S'rooms'
p6
(dp7
(iproblems
RoomID
p8
(dp9
S'dusts'
p10
I8
sS'obstacles'
p11
(I1
I6
tp12
sS'robots'
p13
I4
sS'height'
p14
I10
sS'width'
p15
I9
sS'seed'
p16
I3433768247134474666
sb(imulti_robot_problem
MultiRobotState
p17
(dp18
S'obstacle_locations'
p19
c__builtin__
frozenset
p20
((lp21
(I4
I9
tp22
a(I4
I6
tp23
a(I0
I7
tp24
ag12
a(I0
I9
tp25
a(I8
I6
tp26
a(I0
I8
tp27
a(I3
I3
tp28
atp29
Rp30
sg15
I9
sS'dirt_locations'
p31
g20
((lp32
(I3
I2
tp33
a(I7
I7
tp34
a(I1
I9
tp35
a(I8
I7
tp36
a(I5
I4
tp37
a(I1
I1
tp38
a(I5
I8
tp39
a(I7
I9
tp40
atp41
Rp42
sg13
((I5
I9
tp43
(I5
I5
tp44
(I6
I9
tp45
(I2
I0
tp46
tp47
sg14
I10
sbs(iproblems
RoomID
p48
(dp49
g10
I7
sg11
(I2
I2
tp50
sg13
I3
sg14
I9
sg15
I9
sg16
I6241004153072892496
sb(imulti_robot_problem
MultiRobotState
p51
(dp52
g19
g20
((lp53
(I7
I3
tp54
a(I3
I2
tp55
a(I7
I1
tp56
a(I5
I1
tp57
ag50
a(I4
I1
tp58
a(I7
I7
tp59
atp60
Rp61
sg15
I9
sg31
g20
((lp62
(I3
I8
tp63
a(I1
I5
tp64
a(I4
I8
tp65
a(I3
I7
tp66
a(I5
I7
tp67
a(I3
I4
tp68
a(I6
I0
tp69
atp70
Rp71
sg13
((I6
I5
tp72
(I4
I3
tp73
(I3
I5
tp74
tp75
sg14
I9
sbs(iproblems
RoomID
p76
(dp77
g10
I9
sg11
(I4
I3
tp78
sg13
I3
sg14
I9
sg15
I8
sg16
I6161655336973386967
sb(imulti_robot_problem
MultiRobotState
p79
(dp80
g19
g20
((lp81
(I6
I3
tp82
a(I7
I3
tp83
a(I5
I4
tp84
ag78
a(I6
I6
tp85
a(I5
I2
tp86
a(I2
I1
tp87
atp88
Rp89
sg15
I8
sg31
g20
((lp90
(I6
I4
tp91
a(I6
I8
tp92
a(I2
I0
tp93
a(I5
I7
tp94
a(I1
I4
tp95
a(I1
I5
tp96
a(I0
I5
tp97
a(I2
I5
tp98
a(I4
I1
tp99
atp100
Rp101
sg13
((I3
I5
tp102
(I4
I6
tp103
(I4
I5
tp104
tp105
sg14
I9
sbs(iproblems
RoomID
p106
(dp107
g10
I6
sg11
(I7
I4
tp108
sg13
I4
sg14
I8
sg15
I9
sg16
I8554152435637441414
sb(imulti_robot_problem
MultiRobotState
p109
(dp110
g19
g20
((lp111
(I6
I6
tp112
a(I5
I7
tp113
ag108
a(I2
I0
tp114
a(I7
I5
tp115
a(I3
I7
tp116
a(I0
I3
tp117
a(I4
I1
tp118
atp119
Rp120
sg15
I9
sg31
g20
((lp121
(I7
I3
tp122
a(I1
I6
tp123
a(I5
I1
tp124
a(I8
I6
tp125
a(I0
I2
tp126
a(I4
I0
tp127
atp128
Rp129
sg13
((I5
I3
tp130
(I6
I2
tp131
(I6
I3
tp132
(I6
I4
tp133
tp134
sg14
I8
sbs(iproblems
RoomID
p135
(dp136
g10
I10
sg11
(I6
I4
tp137
sg13
I4
sg14
I7
sg15
I10
sg16
I3125140389427113411
sb(imulti_robot_problem
MultiRobotState
p138
(dp139
g19
g20
((lp140
(I6
I3
tp141
a(I5
I1
tp142
a(I5
I2
tp143
ag137
atp144
Rp145
sg15
I10
sg31
g20
((lp146
(I1
I2
tp147
a(I7
I3
tp148
a(I0
I0
tp149
a(I3
I3
tp150
a(I6
I2
tp151
a(I1
I6
tp152
a(I9
I4
tp153
a(I2
I5
tp154
a(I0
I2
tp155
a(I7
I2
tp156
atp157
Rp158
sg13
((I9
I0
tp159
(I6
I5
tp160
(I1
I4
tp161
(I1
I3
tp162
tp163
sg14
I7
sbssS'name'
p164
S'easy_roomset'
p165
sbsg164
S"AnytimeBeam-w5-gf(1.3, 'exp')_with_PowerHeuristic2"
p166
sS'solutions'
p167
(dp168
g8
((lp169
(F0.26000000000203727
I10
tp170
aF40.160000000003492
tp171
sg48
((lp172
(F0.069999999999708962
I8
tp173
aF40.010000000002037
tp174
sg106
((lp175
(F0.18999999999505235
I8
tp176
aF40.239999999997963
tp177
sg76
((lp178
(F0.43000000000029104
I48
tp179
aF40.099999999998545
tp180
sg135
((lp181
(F0.48000000000320142
I13
tp182
aF40.290000000000873
tp183
ssba(imeasure_core
ProblemSetSolution
p184
(dp185
g3
(imeasure_core
RoomSet
p186
(dp187
g6
(dp188
(iproblems
RoomID
p189
(dp190
g10
I10
sg11
(I1
I6
tp191
sg13
I3
sg14
I12
sg15
I9
sg16
I4927760411464392432
sb(imulti_robot_problem
MultiRobotState
p192
(dp193
g19
g20
((lp194
(I5
I9
tp195
a(I1
I3
tp196
a(I4
I5
tp197
a(I7
I7
tp198
a(I6
I0
tp199
a(I3
I9
tp200
ag191
a(I8
I7
tp201
a(I3
I7
tp202
a(I2
I5
tp203
a(I7
I9
tp204
a(I3
I1
tp205
a(I4
I6
tp206
a(I2
I9
tp207
a(I3
I10
tp208
a(I6
I10
tp209
a(I2
I11
tp210
a(I3
I8
tp211
a(I0
I6
tp212
a(I3
I6
tp213
a(I2
I2
tp214
a(I2
I3
tp215
a(I3
I4
tp216
a(I7
I6
tp217
atp218
Rp219
sg15
I9
sg31
g20
((lp220
(I1
I2
tp221
a(I6
I4
tp222
a(I6
I9
tp223
a(I8
I2
tp224
a(I8
I0
tp225
a(I1
I10
tp226
a(I0
I9
tp227
a(I1
I0
tp228
a(I0
I2
tp229
a(I4
I11
tp230
atp231
Rp232
sg13
((I1
I11
tp233
(I0
I11
tp234
(I7
I5
tp235
tp236
sg14
I12
sbs(iproblems
RoomID
p237
(dp238
g10
I8
sg11
(I1
I11
tp239
sg13
I4
sg14
I12
sg15
I11
sg16
I3433768247134474666
sb(imulti_robot_problem
MultiRobotState
p240
(dp241
g19
g20
((lp242
(I9
I3
tp243
a(I3
I6
tp244
a(I4
I8
tp245
a(I4
I5
tp246
a(I2
I8
tp247
a(I10
I6
tp248
a(I2
I10
tp249
a(I8
I7
tp250
a(I2
I3
tp251
a(I0
I10
tp252
a(I9
I4
tp253
a(I3
I7
tp254
ag239
a(I10
I3
tp255
a(I5
I8
tp256
a(I10
I4
tp257
a(I2
I7
tp258
a(I10
I5
tp259
a(I6
I7
tp260
a(I2
I9
tp261
a(I9
I6
tp262
a(I1
I8
tp263
a(I3
I8
tp264
a(I0
I11
tp265
a(I8
I8
tp266
a(I4
I11
tp267
a(I5
I0
tp268
a(I0
I9
tp269
a(I4
I9
tp270
a(I7
I8
tp271
atp272
Rp273
sg15
I11
sg31
g20
((lp274
(I4
I3
tp275
a(I5
I11
tp276
a(I9
I8
tp277
a(I2
I11
tp278
a(I9
I11
tp279
a(I7
I10
tp280
a(I1
I1
tp281
a(I6
I5
tp282
atp283
Rp284
sg13
((I7
I11
tp285
(I7
I7
tp286
(I2
I0
tp287
(I10
I9
tp288
tp289
sg14
I12
sbs(iproblems
RoomID
p290
(dp291
g10
I6
sg11
(I5
I4
tp292
sg13
I4
sg14
I10
sg15
I11
sg16
I8554152435637441414
sb(imulti_robot_problem
MultiRobotState
p293
(dp294
g19
g20
((lp295
(I6
I4
tp296
ag292
a(I4
I5
tp297
a(I2
I8
tp298
a(I9
I3
tp299
a(I7
I7
tp300
a(I0
I7
tp301
a(I6
I2
tp302
a(I2
I1
tp303
a(I3
I7
tp304
a(I5
I1
tp305
a(I0
I3
tp306
a(I8
I5
tp307
a(I5
I3
tp308
a(I3
I8
tp309
a(I8
I3
tp310
a(I4
I9
tp311
a(I6
I8
tp312
a(I7
I0
tp313
a(I6
I3
tp314
a(I7
I5
tp315
a(I3
I6
tp316
a(I8
I6
tp317
a(I7
I8
tp318
a(I10
I9
tp319
atp320
Rp321
sg15
I11
sg31
g20
((lp322
(I1
I3
tp323
a(I9
I4
tp324
a(I5
I0
tp325
a(I3
I0
tp326
a(I4
I2
tp327
a(I7
I2
tp328
atp329
Rp330
sg13
((I8
I2
tp331
(I8
I4
tp332
(I9
I7
tp333
(I0
I2
tp334
tp335
sg14
I10
sbs(iproblems
RoomID
p336
(dp337
g10
I10
sg11
(I5
I4
tp338
sg13
I4
sg14
I9
sg15
I12
sg16
I3125140389427113411
sb(imulti_robot_problem
MultiRobotState
p339
(dp340
g19
g20
((lp341
(I7
I3
tp342
a(I4
I7
tp343
a(I2
I6
tp344
a(I2
I7
tp345
a(I6
I6
tp346
a(I5
I6
tp347
ag338
a(I1
I4
tp348
a(I6
I2
tp349
a(I10
I1
tp350
a(I3
I7
tp351
a(I5
I1
tp352
a(I2
I5
tp353
a(I6
I5
tp354
a(I3
I3
tp355
a(I6
I4
tp356
a(I9
I5
tp357
a(I6
I7
tp358
a(I5
I5
tp359
a(I10
I7
tp360
a(I6
I1
tp361
a(I7
I4
tp362
a(I8
I6
tp363
a(I5
I3
tp364
a(I5
I2
tp365
a(I8
I4
tp366
atp367
Rp368
sg15
I12
sg31
g20
((lp369
(I0
I0
tp370
a(I11
I4
tp371
a(I8
I2
tp372
a(I3
I0
tp373
a(I6
I0
tp374
a(I1
I8
tp375
a(I2
I3
tp376
a(I0
I3
tp377
a(I11
I6
tp378
a(I3
I5
tp379
atp380
Rp381
sg13
((I11
I0
tp382
(I7
I7
tp383
(I1
I5
tp384
(I2
I4
tp385
tp386
sg14
I9
sbs(iproblems
RoomID
p387
(dp388
g10
I7
sg11
(I10
I3
tp389
sg13
I3
sg14
I11
sg15
I11
sg16
I6241004153072892496
sb(imulti_robot_problem
MultiRobotState
p390
(dp391
g19
g20
((lp392
(I3
I2
tp393
a(I0
I0
tp394
a(I9
I8
tp395
a(I7
I7
tp396
a(I8
I9
tp397
a(I6
I2
tp398
a(I2
I3
tp399
a(I9
I4
tp400
a(I4
I2
tp401
a(I5
I1
tp402
a(I0
I3
tp403
ag389
a(I1
I2
tp404
a(I9
I5
tp405
a(I5
I5
tp406
a(I10
I7
tp407
a(I8
I5
tp408
a(I6
I1
tp409
a(I1
I8
tp410
a(I8
I8
tp411
a(I8
I6
tp412
a(I7
I8
tp413
a(I2
I4
tp414
atp415
Rp416
sg15
I11
sg31
g20
((lp417
(I4
I10
tp418
a(I6
I9
tp419
a(I4
I9
tp420
a(I9
I1
tp421
a(I5
I10
tp422
a(I3
I10
tp423
a(I8
I0
tp424
atp425
Rp426
sg13
((I5
I4
tp427
(I4
I6
tp428
(I1
I6
tp429
tp430
sg14
I11
sbssg164
S'mild_roomset'
p431
sbsg164
g166
sg167
(dp432
g189
((lp433
F40.0
tp434
sg237
((lp435
(F0.63999999999941792
I30
tp436
aF40.019999999996799
tp437
sg290
((lp438
(F3.2600000000020373
I55
tp439
aF40.010000000002037
tp440
sg336
((lp441
(F34.639999999999418
I288
tp442
aF40.029999999998836
tp443
sg387
((lp444
(F0.37999999999738066
I23
tp445
a(F0.58000000000174623
I13
tp446
aF40.010000000002037
tp447
ssba(imeasure_core
ProblemSetSolution
p448
(dp449
g3
(imeasure_core
RoomSet
p450
(dp451
g6
(dp452
(iproblems
RoomID
p453
(dp454
g10
I15
sg11
(I3
I3
tp455
sg13
I5
sg14
I13
sg15
I10
sg16
I4927760411464392432
sb(imulti_robot_problem
MultiRobotState
p456
(dp457
g19
g20
((lp458
(I6
I10
tp459
a(I6
I11
tp460
a(I3
I11
tp461
a(I2
I1
tp462
a(I2
I10
tp463
a(I3
I9
tp464
a(I2
I3
tp465
a(I1
I0
tp466
a(I4
I0
tp467
a(I1
I2
tp468
ag455
a(I7
I6
tp469
a(I3
I1
tp470
a(I1
I1
tp471
a(I1
I7
tp472
a(I1
I3
tp473
a(I3
I10
tp474
a(I9
I12
tp475
atp476
Rp477
sg15
I10
sg31
g20
((lp478
(I9
I0
tp479
a(I9
I7
tp480
a(I7
I0
tp481
a(I8
I2
tp482
a(I5
I5
tp483
a(I8
I10
tp484
a(I1
I4
tp485
a(I8
I8
tp486
a(I2
I12
tp487
a(I8
I7
tp488
a(I1
I10
tp489
a(I7
I11
tp490
a(I4
I12
tp491
a(I0
I2
tp492
a(I0
I10
tp493
atp494
Rp495
sg13
((I1
I12
tp496
(I0
I12
tp497
(I8
I5
tp498
(I7
I9
tp499
(I7
I4
tp500
tp501
sg14
I13
sbs(iproblems
RoomID
p502
(dp503
g10
I13
sg11
(I4
I11
tp504
sg13
I6
sg14
I13
sg15
I12
sg16
I3433768247134474666
sb(imulti_robot_problem
MultiRobotState
p505
(dp506
g19
g20
((lp507
(I4
I10
tp508
a(I5
I11
tp509
a(I6
I11
tp510
a(I9
I8
tp511
a(I6
I0
tp512
a(I0
I12
tp513
a(I4
I12
tp514
a(I2
I3
tp515
a(I2
I12
tp516
a(I10
I3
tp517
ag504
a(I11
I7
tp518
a(I3
I12
tp519
a(I3
I10
tp520
a(I11
I3
tp521
a(I0
I11
tp522
a(I8
I8
tp523
a(I1
I9
tp524
a(I1
I6
tp525
a(I1
I1
tp526
a(I0
I10
tp527
atp528
Rp529
sg15
I12
sg31
g20
((lp530
(I10
I8
tp531
a(I10
I5
tp532
a(I6
I7
tp533
a(I6
I8
tp534
a(I4
I4
tp535
a(I10
I12
tp536
a(I9
I9
tp537
a(I8
I10
tp538
a(I7
I5
tp539
a(I7
I10
tp540
a(I6
I12
tp541
a(I5
I10
tp542
a(I5
I3
tp543
atp544
Rp545
sg13
((I7
I12
tp546
(I7
I7
tp547
(I8
I12
tp548
(I2
I0
tp549
(I11
I9
tp550
(I1
I2
tp551
tp552
sg14
I13
sbs(iproblems
RoomID
p553
(dp554
g10
I12
sg11
(I3
I3
tp555
sg13
I6
sg14
I12
sg15
I12
sg16
I6241004153072892496
sb(imulti_robot_problem
MultiRobotState
p556
(dp557
g19
g20
((lp558
(I9
I3
tp559
ag555
a(I2
I9
tp560
a(I7
I1
tp561
a(I11
I8
tp562
a(I3
I4
tp563
a(I6
I1
tp564
a(I3
I1
tp565
a(I5
I2
tp566
a(I4
I3
tp567
a(I4
I2
tp568
a(I8
I5
tp569
a(I11
I6
tp570
atp571
Rp572
sg15
I12
sg31
g20
((lp573
(I4
I10
tp574
a(I0
I0
tp575
a(I7
I10
tp576
a(I5
I11
tp577
a(I8
I0
tp578
a(I9
I10
tp579
a(I8
I7
tp580
a(I10
I1
tp581
a(I2
I5
tp582
a(I8
I9
tp583
a(I4
I11
tp584
a(I10
I4
tp585
atp586
Rp587
sg13
((I8
I6
tp588
(I5
I4
tp589
(I7
I2
tp590
(I4
I7
tp591
(I1
I7
tp592
(I5
I6
tp593
tp594
sg14
I12
sbs(iproblems
RoomID
p595
(dp596
g10
I11
sg11
(I3
I6
tp597
sg13
I7
sg14
I11
sg15
I12
sg16
I8554152435637441414
sb(imulti_robot_problem
MultiRobotState
p598
(dp599
g19
g20
((lp600
(I3
I1
tp601
a(I3
I8
tp602
a(I4
I5
tp603
a(I2
I8
tp604
a(I11
I2
tp605
a(I1
I7
tp606
a(I7
I5
tp607
a(I9
I4
tp608
a(I3
I7
tp609
a(I5
I1
tp610
a(I9
I6
tp611
a(I7
I9
tp612
a(I6
I3
tp613
a(I7
I6
tp614
a(I4
I4
tp615
a(I7
I4
tp616
a(I1
I8
tp617
a(I8
I8
tp618
ag597
a(I0
I4
tp619
a(I0
I9
tp620
a(I8
I6
tp621
a(I9
I7
tp622
atp623
Rp624
sg15
I12
sg31
g20
((lp625
(I11
I10
tp626
a(I4
I9
tp627
a(I2
I9
tp628
a(I3
I0
tp629
a(I8
I0
tp630
a(I4
I7
tp631
a(I1
I4
tp632
a(I0
I3
tp633
a(I0
I8
tp634
a(I5
I2
tp635
a(I7
I2
tp636
atp637
Rp638
sg13
((I6
I4
tp639
(I8
I2
tp640
(I8
I5
tp641
(I10
I8
tp642
(I1
I2
tp643
(I6
I0
tp644
(I10
I4
tp645
tp646
sg14
I11
sbs(iproblems
RoomID
p647
(dp648
g10
I15
sg11
(I1
I6
tp649
sg13
I6
sg14
I10
sg15
I13
sg16
I3125140389427113411
sb(imulti_robot_problem
MultiRobotState
p650
(dp651
g19
g20
((lp652
(I7
I3
tp653
a(I3
I3
tp654
a(I1
I5
tp655
a(I6
I1
tp656
a(I1
I4
tp657
a(I7
I4
tp658
a(I2
I0
tp659
a(I11
I1
tp660
a(I2
I3
tp661
a(I0
I7
tp662
a(I8
I7
tp663
a(I6
I2
tp664
ag649
atp665
Rp666
sg15
I13
sg31
g20
((lp667
(I0
I1
tp668
a(I2
I6
tp669
a(I2
I9
tp670
a(I11
I8
tp671
a(I2
I8
tp672
a(I9
I3
tp673
a(I6
I0
tp674
a(I3
I0
tp675
a(I7
I7
tp676
a(I6
I3
tp677
a(I9
I2
tp678
a(I12
I4
tp679
a(I0
I4
tp680
a(I2
I4
tp681
a(I9
I7
tp682
atp683
Rp684
sg13
((I12
I0
tp685
(I7
I8
tp686
(I2
I5
tp687
(I4
I5
tp688
(I12
I7
tp689
(I9
I4
tp690
tp691
sg14
I10
sbssg164
S'heavy_roomset'
p692
sbsg164
g166
sg167
(dp693
g453
((lp694
F40.040000000000873
tp695
sg502
((lp696
(F17.75
I17
tp697
aF40.270000000004075
tp698
sg553
((lp699
F40.029999999998836
tp700
sg595
((lp701
(F36.5
I14
tp702
aF43.339999999996508
tp703
sg647
((lp704
(F16.55000000000291
I29
tp705
aF40.150000000001455
tp706
ssba(imeasure_core
ProblemSetSolution
p707
(dp708
g3
g4
sg164
S"AnytimeBeam-w15-gf(1.3, 'exp')_with_PowerHeuristic2"
p709
sg167
(dp710
g8
((lp711
(F0.38000000000465661
I10
tp712
aF40.230000000003201
tp713
sg48
((lp714
(F0.08000000000174623
I8
tp715
aF40.040000000000873
tp716
sg106
((lp717
(F0.25999999999476131
I8
tp718
aF40.040000000000873
tp719
sg76
((lp720
(F0.62999999999738066
I48
tp721
aF40.0
tp722
sg135
((lp723
(F0.53999999999359716
I13
tp724
aF40.259999999994761
tp725
ssba(imeasure_core
ProblemSetSolution
p726
(dp727
g3
g186
sg164
g709
sg167
(dp728
g189
((lp729
F40.0
tp730
sg237
((lp731
(F0.94000000000232831
I30
tp732
aF40.0
tp733
sg290
((lp734
(F2.2300000000032014
I55
tp735
aF40.0
tp736
sg336
((lp737
(F36.480000000003201
I288
tp738
aF40.010000000002037
tp739
sg387
((lp740
(F0.22000000000116415
I13
tp741
aF40.040000000000873
tp742
ssba(imeasure_core
ProblemSetSolution
p743
(dp744
g3
g450
sg164
g709
sg167
(dp745
g453
((lp746
F40.319999999999709
tp747
sg502
((lp748
(F18.379999999997381
I17
tp749
aF41.519999999996799
tp750
sg553
((lp751
F40.700000000004366
tp752
sg595
((lp753
(F38.229999999995925
I14
tp754
aF45.169999999998254
tp755
sg647
((lp756
(F18.25
I29
tp757
aF40.779999999998836
tp758
ssba(imeasure_core
ProblemSetSolution
p759
(dp760
g3
g4
sg164
S"AnytimeBeam-w25-gf(1.3, 'exp')_with_PowerHeuristic2"
p761
sg167
(dp762
g8
((lp763
(F0.43000000000029104
I10
tp764
aF40.049999999995634
tp765
sg48
((lp766
(F0.12000000000261934
I8
tp767
aF40.010000000002037
tp768
sg106
((lp769
(F0.30000000000291038
I8
tp770
aF40.040000000000873
tp771
sg76
((lp772
(F0.76000000000203727
I48
tp773
aF40.059999999997672
tp774
sg135
((lp775
(F0.60000000000582077
I13
tp776
aF40.120000000002619
tp777
ssba(imeasure_core
ProblemSetSolution
p778
(dp779
g3
g186
sg164
g761
sg167
(dp780
g189
((lp781
F40.009999999994761
tp782
sg237
((lp783
(F1.069999999999709
I30
tp784
aF40.150000000001455
tp785
sg290
((lp786
(F2.5500000000029104
I55
tp787
aF40.05000000000291
tp788
sg336
((lp789
(F26.299999999995634
I288
tp790
aF40.019999999996799
tp791
sg387
((lp792
(F0.27000000000407454
I13
tp793
aF40.0
tp794
ssba(imeasure_core
ProblemSetSolution
p795
(dp796
g3
g450
sg164
g761
sg167
(dp797
g453
((lp798
F40.440000000002328
tp799
sg502
((lp800
(F18.529999999998836
I17
tp801
aF42.189999999995052
tp802
sg553
((lp803
F40.05000000000291
tp804
sg595
((lp805
(F38.339999999996508
I14
tp806
aF45.150000000001455
tp807
sg647
((lp808
(F18.430000000000291
I29
tp809
aF42.299999999995634
tp810
ssba(imeasure_core
ProblemSetSolution
p811
(dp812
g3
g4
sg164
S"AnytimeBeam-w35-gf(1.3, 'exp')_with_PowerHeuristic2"
p813
sg167
(dp814
g8
((lp815
(F0.48999999999796273
I10
tp816
aF40.110000000000582
tp817
sg48
((lp818
(F0.13999999999941792
I8
tp819
aF40.0
tp820
sg106
((lp821
(F0.37000000000261934
I8
tp822
aF40.239999999997963
tp823
sg76
((lp824
(F0.84999999999854481
I48
tp825
aF40.029999999998836
tp826
sg135
((lp827
(F0.65000000000145519
I13
tp828
aF40.340000000003783
tp829
ssba(imeasure_core
ProblemSetSolution
p830
(dp831
g3
g186
sg164
g813
sg167
(dp832
g189
((lp833
F40.0
tp834
sg237
((lp835
(F1.1999999999970896
I30
tp836
aF40.010000000002037
tp837
sg290
((lp838
(F2.8699999999953434
I55
tp839
aF40.009999999994761
tp840
sg336
((lp841
(F33.130000000004657
I281
tp842
aF40.0
tp843
sg387
((lp844
(F0.30000000000291038
I13
tp845
aF40.040000000000873
tp846
ssba(imeasure_core
ProblemSetSolution
p847
(dp848
g3
g450
sg164
g813
sg167
(dp849
g453
((lp850
F40.370000000002619
tp851
sg502
((lp852
(F18.940000000002328
I17
tp853
aF40.629999999997381
tp854
sg553
((lp855
F40.290000000000873
tp856
sg595
((lp857
(F39.200000000004366
I14
tp858
aF46.029999999998836
tp859
sg647
((lp860
(F19.380000000004657
I29
tp861
aF40.889999999999418
tp862
ssba(imeasure_core
ProblemSetSolution
p863
(dp864
g3
g4
sg164
S"AnytimeBeam-w45-gf(1.3, 'exp')_with_PowerHeuristic2"
p865
sg167
(dp866
g8
((lp867
(F0.54000000000087311
I10
tp868
aF40.080000000001746
tp869
sg48
((lp870
(F0.16999999999825377
I8
tp871
aF40.010000000002037
tp872
sg106
((lp873
(F0.43000000000029104
I8
tp874
aF40.07999999999447
tp875
sg76
((lp876
(F0.93000000000029104
I48
tp877
aF40.029999999998836
tp878
sg135
((lp879
(F0.71000000000640284
I13
tp880
aF40.350000000005821
tp881
ssba(imeasure_core
ProblemSetSolution
p882
(dp883
g3
g186
sg164
g865
sg167
(dp884
g189
((lp885
F40.0
tp886
sg237
((lp887
(F1.2900000000008731
I30
tp888
aF40.049999999995634
tp889
sg290
((lp890
(F3.0999999999985448
I55
tp891
aF40.310000000004948
tp892
sg336
((lp893
F40.229999999995925
tp894
sg387
((lp895
(F0.31999999999970896
I13
tp896
aF40.0
tp897
ssba(imeasure_core
ProblemSetSolution
p898
(dp899
g3
g450
sg164
g865
sg167
(dp900
g453
((lp901
F40.459999999999127
tp902
sg502
((lp903
(F19.120000000002619
I17
tp904
aF41.040000000000873
tp905
sg553
((lp906
F40.220000000001164
tp907
sg595
((lp908
(F39.629999999997381
I14
tp909
aF46.459999999999127
tp910
sg647
((lp911
(F19.739999999997963
I29
tp912
aF41.580000000001746
tp913
ssba(imeasure_core
ProblemSetSolution
p914
(dp915
g3
g4
sg164
S"AnytimeBeam-w5-gf(1.3, 'exp')_with_LinearHeuristic"
p916
sg167
(dp917
g8
((lp918
(F0.88000000000465661
I29
tp919
aF40.090000000003783
tp920
sg48
((lp921
(F0.069999999999708962
I7
tp922
aF40.019999999996799
tp923
sg106
((lp924
F40.100000000005821
tp925
sg76
((lp926
(F23.310000000004948
I256
tp927
aF40.099999999998545
tp928
sg135
((lp929
F40.119999999995343
tp930
ssba(imeasure_core
ProblemSetSolution
p931
(dp932
g3
g186
sg164
g916
sg167
(dp933
g189
((lp934
F40.080000000001746
tp935
sg237
((lp936
F40.05000000000291
tp937
sg290
((lp938
(F0.1599999999962165
I8
tp939
aF40.059999999997672
tp940
sg336
((lp941
F40.029999999998836
tp942
sg387
((lp943
(F0.30000000000291038
I27
tp944
aF40.059999999997672
tp945
ssba(imeasure_core
ProblemSetSolution
p946
(dp947
g3
g450
sg164
g916
sg167
(dp948
g453
((lp949
F40.309999999997672
tp950
sg502
((lp951
F40.370000000002619
tp952
sg553
((lp953
(F17.150000000001455
I10
tp954
aF40.180000000000291
tp955
sg595
((lp956
F46.910000000003492
tp957
sg647
((lp958
F42.369999999995343
tp959
ssba(imeasure_core
ProblemSetSolution
p960
(dp961
g3
g4
sg164
S"AnytimeBeam-w15-gf(1.3, 'exp')_with_LinearHeuristic"
p962
sg167
(dp963
g8
((lp964
(F1.1399999999994179
I29
tp965
aF40.25
tp966
sg48
((lp967
(F0.12000000000261934
I7
tp968
aF40.040000000000873
tp969
sg106
((lp970
F40.080000000001746
tp971
sg76
((lp972
(F23.330000000001746
I256
tp973
aF40.180000000000291
tp974
sg135
((lp975
F40.0
tp976
ssba(imeasure_core
ProblemSetSolution
p977
(dp978
g3
g186
sg164
g962
sg167
(dp979
g189
((lp980
F40.019999999996799
tp981
sg237
((lp982
F40.059999999997672
tp983
sg290
((lp984
(F0.27000000000407454
I8
tp985
aF40.17000000000553
tp986
sg336
((lp987
F40.069999999999709
tp988
sg387
((lp989
(F0.4699999999938882
I27
tp990
aF40.0
tp991
ssba(imeasure_core
ProblemSetSolution
p992
(dp993
g3
g450
sg164
g962
sg167
(dp994
g453
((lp995
F40.100000000005821
tp996
sg502
((lp997
F40.209999999999127
tp998
sg553
((lp999
(F18.349999999998545
I10
tp1000
aF40.649999999994179
tp1001
sg595
((lp1002
F40.190000000002328
tp1003
sg647
((lp1004
F40.080000000001746
tp1005
ssba(imeasure_core
ProblemSetSolution
p1006
(dp1007
g3
g4
sg164
S"AnytimeBeam-w25-gf(1.3, 'exp')_with_LinearHeuristic"
p1008
sg167
(dp1009
g8
((lp1010
(F1.2799999999988358
I29
tp1011
aF40.309999999997672
tp1012
sg48
((lp1013
(F0.13999999999941792
I7
tp1014
aF40.059999999997672
tp1015
sg106
((lp1016
F40.0
tp1017
sg76
((lp1018
(F35.720000000001164
I256
tp1019
aF40.05000000000291
tp1020
sg135
((lp1021
F40.299999999995634
tp1022
ssba(imeasure_core
ProblemSetSolution
p1023
(dp1024
g3
g186
sg164
g1008
sg167
(dp1025
g189
((lp1026
F40.020000000004075
tp1027
sg237
((lp1028
F40.099999999998545
tp1029
sg290
((lp1030
(F0.36000000000058208
I8
tp1031
aF40.189999999995052
tp1032
sg336
((lp1033
F40.220000000001164
tp1034
sg387
((lp1035
(F0.54000000000087311
I27
tp1036
aF40.0
tp1037
ssba(imeasure_core
ProblemSetSolution
p1038
(dp1039
g3
g450
sg164
g1008
sg167
(dp1040
g453
((lp1041
F40.279999999998836
tp1042
sg502
((lp1043
F40.090000000003783
tp1044
sg553
((lp1045
(F18.729999999995925
I10
tp1046
aF42.720000000001164
tp1047
sg595
((lp1048
F40.07999999999447
tp1049
sg647
((lp1050
F40.569999999999709
tp1051
ssba(imeasure_core
ProblemSetSolution
p1052
(dp1053
g3
g4
sg164
S"AnytimeBeam-w35-gf(1.3, 'exp')_with_LinearHeuristic"
p1054
sg167
(dp1055
g8
((lp1056
(F1.4800000000032014
I29
tp1057
aF40.25
tp1058
sg48
((lp1059
(F0.16999999999825377
I7
tp1060
aF40.040000000000873
tp1061
sg106
((lp1062
F40.080000000001746
tp1063
sg76
((lp1064
F40.029999999998836
tp1065
sg135
((lp1066
F40.080000000001746
tp1067
ssba(imeasure_core
ProblemSetSolution
p1068
(dp1069
g3
g186
sg164
g1054
sg167
(dp1070
g189
((lp1071
F40.010000000002037
tp1072
sg237
((lp1073
F40.260000000002037
tp1074
sg290
((lp1075
(F0.5
I8
tp1076
aF40.129999999997381
tp1077
sg336
((lp1078
F40.25
tp1079
sg387
((lp1080
(F0.65000000000145519
I27
tp1081
aF40.05000000000291
tp1082
ssba(imeasure_core
ProblemSetSolution
p1083
(dp1084
g3
g450
sg164
g1054
sg167
(dp1085
g453
((lp1086
F40.060000000004948
tp1087
sg502
((lp1088
F40.459999999999127
tp1089
sg553
((lp1090
(F19.370000000002619
I10
tp1091
aF43.909999999996217
tp1092
sg595
((lp1093
F40.470000000001164
tp1094
sg647
((lp1095
F41.090000000003783
tp1096
ssba(imeasure_core
ProblemSetSolution
p1097
(dp1098
g3
g4
sg164
S"AnytimeBeam-w45-gf(1.3, 'exp')_with_LinearHeuristic"
p1099
sg167
(dp1100
g8
((lp1101
(F1.6899999999950523
I29
tp1102
aF40.220000000001164
tp1103
sg48
((lp1104
(F0.18000000000029104
I7
tp1105
aF40.019999999996799
tp1106
sg106
((lp1107
F40.370000000002619
tp1108
sg76
((lp1109
F40.279999999998836
tp1110
sg135
((lp1111
F40.19999999999709
tp1112
ssba(imeasure_core
ProblemSetSolution
p1113
(dp1114
g3
g186
sg164
g1099
sg167
(dp1115
g189
((lp1116
F40.029999999998836
tp1117
sg237
((lp1118
F40.059999999997672
tp1119
sg290
((lp1120
(F0.5900000000037835
I8
tp1121
aF40.030000000006112
tp1122
sg336
((lp1123
F40.359999999993306
tp1124
sg387
((lp1125
(F0.72000000000116415
I27
tp1126
aF40.030000000006112
tp1127
ssba(imeasure_core
ProblemSetSolution
p1128
(dp1129
g3
g450
sg164
g1099
sg167
(dp1130
g453
((lp1131
F40.110000000000582
tp1132
sg502
((lp1133
F40.30000000000291
tp1134
sg553
((lp1135
(F19.690000000002328
I10
tp1136
aF44.5
tp1137
sg595
((lp1138
F40.180000000000291
tp1139
sg647
((lp1140
F41.019999999996799
tp1141
ssba.