(lp0
(imeasure_core
ProblemSetSolution
p1
(dp2
S'roomset'
p3
(imeasure_core
RoomSet
p4
(dp5
S'rooms'
p6
(dp7
(iproblems
RoomID
p8
(dp9
S'width'
p10
I9
sS'dusts'
p11
I6
sS'seed'
p12
I1164115433906158532
sS'obstacles'
p13
(I0
I4
tp14
sS'robots'
p15
I1
sS'height'
p16
I9
sb(imulti_robot_problem
MultiRobotState
p17
(dp18
S'obstacle_locations'
p19
c__builtin__
frozenset
p20
((lp21
(I0
I1
tp22
a(I1
I2
tp23
a(I1
I3
tp24
a(I1
I4
tp25
ag14
atp26
Rp27
sg10
I9
sS'dirt_locations'
p28
g20
((lp29
(I6
I4
tp30
a(I1
I8
tp31
a(I1
I6
tp32
a(I1
I0
tp33
a(I8
I5
tp34
a(I3
I5
tp35
atp36
Rp37
sg15
((I4
I5
tp38
tp39
sg16
I9
sbs(iproblems
RoomID
p40
(dp41
g10
I7
sg11
I8
sg12
I2175216119781798972
sg13
(I6
I5
tp42
sg15
I5
sg16
I8
sb(imulti_robot_problem
MultiRobotState
p43
(dp44
g19
g20
((lp45
(I1
I2
tp46
a(I2
I6
tp47
a(I6
I7
tp48
a(I6
I6
tp49
a(I5
I7
tp50
a(I2
I3
tp51
a(I0
I4
tp52
a(I1
I0
tp53
ag42
atp54
Rp55
sg10
I7
sg28
g20
((lp56
(I5
I4
tp57
a(I5
I5
tp58
a(I4
I4
tp59
a(I0
I6
tp60
a(I0
I5
tp61
a(I1
I7
tp62
a(I4
I2
tp63
a(I0
I2
tp64
atp65
Rp66
sg15
((I1
I3
tp67
(I6
I4
tp68
(I3
I7
tp69
(I6
I0
tp70
(I2
I1
tp71
tp72
sg16
I8
sbs(iproblems
RoomID
p73
(dp74
g10
I7
sg11
I9
sg12
I3872982626502034966
sg13
(I2
I2
tp75
sg15
I2
sg16
I9
sb(imulti_robot_problem
MultiRobotState
p76
(dp77
g19
g20
((lp78
(I2
I6
tp79
a(I4
I1
tp80
ag75
a(I5
I0
tp81
a(I3
I1
tp82
atp83
Rp84
sg10
I7
sg28
g20
((lp85
(I4
I7
tp86
a(I2
I8
tp87
a(I4
I4
tp88
a(I3
I2
tp89
a(I1
I4
tp90
a(I2
I1
tp91
a(I4
I2
tp92
a(I0
I3
tp93
a(I5
I8
tp94
atp95
Rp96
sg15
((I1
I6
tp97
(I1
I7
tp98
tp99
sg16
I9
sbs(iproblems
RoomID
p100
(dp101
g10
I7
sg11
I5
sg12
I8711387064946514083
sg13
(I0
I4
tp102
sg15
I5
sg16
I7
sb(imulti_robot_problem
MultiRobotState
p103
(dp104
g19
g20
((lp105
(I0
I1
tp106
a(I2
I2
tp107
a(I2
I4
tp108
a(I1
I5
tp109
ag102
a(I0
I3
tp110
a(I0
I2
tp111
a(I6
I5
tp112
atp113
Rp114
sg10
I7
sg28
g20
((lp115
(I5
I6
tp116
a(I6
I4
tp117
a(I3
I2
tp118
a(I6
I1
tp119
a(I6
I6
tp120
atp121
Rp122
sg15
((I1
I1
tp123
(I6
I0
tp124
(I5
I0
tp125
(I1
I3
tp126
(I4
I5
tp127
tp128
sg16
I7
sbs(iproblems
RoomID
p129
(dp130
g10
I10
sg11
I9
sg12
I7002664860023442459
sg13
(I6
I3
tp131
sg15
I4
sg16
I9
sb(imulti_robot_problem
MultiRobotState
p132
(dp133
g19
g20
((lp134
(I7
I4
tp135
a(I7
I3
tp136
ag131
a(I6
I5
tp137
a(I9
I7
tp138
atp139
Rp140
sg10
I10
sg28
g20
((lp141
(I8
I6
tp142
a(I2
I6
tp143
a(I6
I8
tp144
a(I2
I8
tp145
a(I5
I7
tp146
a(I0
I0
tp147
a(I5
I1
tp148
a(I4
I2
tp149
a(I8
I4
tp150
atp151
Rp152
sg15
((I7
I5
tp153
(I7
I6
tp154
(I1
I7
tp155
(I1
I6
tp156
tp157
sg16
I9
sbssS'name'
p158
S'easy_roomset'
p159
sbsS'name'
p160
S"AnytimeBeam-w5-gf(1.3, 'exp')_with_PowerHeuristic2"
p161
sS'solutions'
p162
(dp163
g8
((lp164
(F0.070000000000618456
I64
tp165
a(F0.28999999999996362
I50
tp166
a(F0.43000000000029104
I42
tp167
a(F5.4400000000005093
I40
tp168
a(F6.8100000000004002
I34
tp169
a(F7.9800000000004729
I30
tp170
a(F9.0399999999999636
I28
tp171
a(F14.820000000000618
I26
tp172
aF40.0
tp173
sg40
((lp174
(F0.4000000000005457
I5
tp175
aF40.119999999999891
tp176
sg73
((lp177
(F0.3000000000001819
I66
tp178
a(F31.640000000000327
I65
tp179
aF40.0
tp180
sg100
((lp181
(F0.17000000000007276
I4
tp182
aF40.039999999999964
tp183
sg129
((lp184
(F0.4000000000005457
I11
tp185
aF40.170000000000073
tp186
ssba(imeasure_core
ProblemSetSolution
p187
(dp188
g3
(imeasure_core
RoomSet
p189
(dp190
S'rooms'
p191
(dp192
(iproblems
RoomID
p193
(dp194
S'width'
p195
I11
sS'dusts'
p196
I6
sS'seed'
p197
I1164115433906158532
sS'obstacles'
p198
(I5
I5
tp199
sS'robots'
p200
I3
sS'height'
p201
I11
sb(imulti_robot_problem
MultiRobotState
p202
(dp203
S'obstacle_locations'
p204
g20
((lp205
(I1
I3
tp206
a(I4
I8
tp207
a(I3
I0
tp208
a(I8
I0
tp209
a(I3
I2
tp210
a(I0
I7
tp211
a(I3
I7
tp212
a(I2
I5
tp213
ag199
a(I2
I0
tp214
a(I3
I10
tp215
a(I6
I10
tp216
a(I3
I6
tp217
a(I5
I4
tp218
a(I4
I5
tp219
a(I1
I4
tp220
a(I3
I9
tp221
a(I0
I5
tp222
a(I2
I1
tp223
a(I5
I3
tp224
a(I8
I3
tp225
a(I3
I1
tp226
a(I0
I6
tp227
a(I1
I8
tp228
a(I4
I3
tp229
a(I0
I2
tp230
atp231
Rp232
sg195
I11
sS'dirt_locations'
p233
g20
((lp234
(I4
I9
tp235
a(I4
I6
tp236
a(I10
I6
tp237
a(I8
I8
tp238
a(I7
I5
tp239
a(I8
I2
tp240
atp241
Rp242
sg200
((I5
I7
tp243
(I2
I10
tp244
(I2
I8
tp245
tp246
sg201
I11
sbs(iproblems
RoomID
p247
(dp248
g195
I9
sg196
I8
sg197
I2175216119781798972
sg198
(I5
I4
tp249
sg200
I4
sg201
I10
sb(imulti_robot_problem
MultiRobotState
p250
(dp251
g204
g20
((lp252
(I6
I6
tp253
a(I2
I8
tp254
a(I0
I7
tp255
a(I6
I2
tp256
a(I1
I6
tp257
a(I2
I5
tp258
a(I5
I5
tp259
a(I8
I1
tp260
a(I7
I6
tp261
a(I6
I3
tp262
a(I2
I2
tp263
a(I8
I6
tp264
a(I6
I4
tp265
ag249
a(I8
I2
tp266
a(I7
I1
tp267
a(I1
I4
tp268
a(I7
I5
tp269
a(I8
I7
tp270
a(I1
I0
tp271
a(I6
I5
tp272
a(I3
I3
tp273
a(I8
I3
tp274
a(I7
I0
tp275
a(I6
I8
tp276
a(I7
I8
tp277
a(I7
I4
tp278
a(I0
I6
tp279
a(I1
I8
tp280
a(I8
I8
tp281
a(I4
I3
tp282
a(I1
I7
tp283
a(I3
I4
tp284
a(I0
I2
tp285
atp286
Rp287
sg195
I9
sg233
g20
((lp288
(I6
I7
tp289
a(I2
I9
tp290
a(I5
I6
tp291
a(I3
I1
tp292
a(I8
I9
tp293
a(I0
I5
tp294
a(I0
I3
tp295
a(I5
I2
tp296
atp297
Rp298
sg200
((I2
I4
tp299
(I8
I5
tp300
(I4
I9
tp301
(I7
I7
tp302
tp303
sg201
I10
sbs(iproblems
RoomID
p304
(dp305
g195
I12
sg196
I9
sg197
I4912931603392816429
sg198
(I3
I0
tp306
sg200
I3
sg201
I9
sb(imulti_robot_problem
MultiRobotState
p307
(dp308
g204
g20
((lp309
(I4
I7
tp310
a(I4
I8
tp311
a(I5
I6
tp312
a(I2
I8
tp313
a(I0
I7
tp314
a(I0
I3
tp315
a(I5
I8
tp316
a(I5
I5
tp317
a(I4
I4
tp318
ag306
a(I7
I2
tp319
a(I8
I6
tp320
a(I5
I3
tp321
a(I4
I1
tp322
a(I6
I4
tp323
a(I0
I0
tp324
a(I4
I5
tp325
a(I7
I5
tp326
a(I4
I2
tp327
a(I6
I8
tp328
a(I10
I5
tp329
a(I4
I6
tp330
a(I7
I8
tp331
a(I8
I8
tp332
a(I1
I7
tp333
a(I5
I2
tp334
atp335
Rp336
sg195
I12
sg233
g20
((lp337
(I7
I3
tp338
a(I7
I1
tp339
a(I8
I1
tp340
a(I6
I3
tp341
a(I11
I8
tp342
a(I8
I7
tp343
a(I3
I7
tp344
a(I2
I5
tp345
a(I3
I4
tp346
atp347
Rp348
sg200
((I9
I1
tp349
(I1
I6
tp350
(I8
I4
tp351
tp352
sg201
I9
sbs(iproblems
RoomID
p353
(dp354
g195
I12
sg196
I9
sg197
I7002664860023442459
sg198
(I4
I3
tp355
sg200
I4
sg201
I11
sb(imulti_robot_problem
MultiRobotState
p356
(dp357
g204
g20
((lp358
(I3
I0
tp359
a(I2
I1
tp360
a(I8
I9
tp361
a(I9
I4
tp362
a(I5
I1
tp363
a(I8
I5
tp364
a(I5
I8
tp365
a(I8
I2
tp366
a(I3
I3
tp367
a(I8
I1
tp368
a(I1
I5
tp369
a(I2
I2
tp370
a(I0
I0
tp371
a(I10
I4
tp372
a(I9
I3
tp373
a(I6
I0
tp374
a(I8
I7
tp375
a(I9
I6
tp376
a(I7
I0
tp377
a(I11
I8
tp378
a(I3
I1
tp379
a(I9
I2
tp380
a(I2
I0
tp381
ag355
a(I9
I5
tp382
a(I5
I2
tp383
a(I2
I4
tp384
atp385
Rp386
sg195
I12
sg233
g20
((lp387
(I0
I1
tp388
a(I10
I8
tp389
a(I2
I8
tp390
a(I3
I10
tp391
a(I10
I6
tp392
a(I6
I2
tp393
a(I3
I7
tp394
a(I7
I8
tp395
a(I7
I9
tp396
atp397
Rp398
sg200
((I9
I7
tp399
(I8
I8
tp400
(I2
I9
tp401
(I1
I7
tp402
tp403
sg201
I11
sbs(iproblems
RoomID
p404
(dp405
g195
I9
sg196
I9
sg197
I1885758236351349410
sg198
(I5
I3
tp406
sg200
I3
sg201
I9
sb(imulti_robot_problem
MultiRobotState
p407
(dp408
g204
g20
((lp409
(I4
I7
tp410
a(I0
I0
tp411
a(I6
I7
tp412
a(I5
I5
tp413
a(I7
I1
tp414
a(I5
I6
tp415
a(I3
I4
tp416
a(I5
I7
tp417
a(I5
I4
tp418
a(I1
I6
tp419
a(I1
I5
tp420
a(I2
I3
tp421
a(I4
I3
tp422
a(I0
I4
tp423
a(I4
I2
tp424
a(I8
I5
tp425
a(I2
I4
tp426
a(I4
I4
tp427
ag406
atp428
Rp429
sg195
I9
sg233
g20
((lp430
(I7
I3
tp431
a(I7
I0
tp432
a(I3
I0
tp433
a(I6
I1
tp434
a(I1
I4
tp435
a(I0
I5
tp436
a(I5
I0
tp437
a(I1
I1
tp438
a(I8
I4
tp439
atp440
Rp441
sg200
((I0
I1
tp442
(I2
I6
tp443
(I0
I2
tp444
tp445
sg201
I9
sbssS'name'
p446
S'mild_roomset'
p447
sbsg160
g161
sg162
(dp448
g193
((lp449
(F13.529999999999745
I158
tp450
a(F21.5600000000004
I146
tp451
aF40.109999999999673
tp452
sg247
((lp453
(F22.090000000000146
I169
tp454
aF40.0
tp455
sg304
((lp456
(F0.090000000000145519
I11
tp457
aF40.070000000000618
tp458
sg353
((lp459
(F0.30999999999949068
I11
tp460
aF40.179999999999382
tp461
sg404
((lp462
(F1.1500000000005457
I65
tp463
aF40.0
tp464
ssba(imeasure_core
ProblemSetSolution
p465
(dp466
g3
(imeasure_core
RoomSet
p467
(dp468
S'rooms'
p469
(dp470
(iproblems
RoomID
p471
(dp472
S'width'
p473
I12
sS'dusts'
p474
I11
sS'seed'
p475
I1164115433906158532
sS'obstacles'
p476
(I7
I9
tp477
sS'robots'
p478
I5
sS'height'
p479
I12
sb(imulti_robot_problem
MultiRobotState
p480
(dp481
S'obstacle_locations'
p482
g20
((lp483
(I4
I7
tp484
a(I1
I3
tp485
a(I3
I1
tp486
a(I3
I3
tp487
a(I5
I6
tp488
a(I4
I1
tp489
a(I9
I3
tp490
a(I1
I4
tp491
a(I6
I7
tp492
a(I0
I5
tp493
a(I5
I7
tp494
a(I7
I11
tp495
a(I1
I0
tp496
ag477
a(I7
I8
tp497
a(I0
I2
tp498
a(I5
I8
tp499
a(I6
I8
tp500
atp501
Rp502
sg473
I12
sS'dirt_locations'
p503
g20
((lp504
(I4
I10
tp505
a(I9
I0
tp506
a(I2
I6
tp507
a(I5
I10
tp508
a(I9
I2
tp509
a(I0
I7
tp510
a(I8
I9
tp511
a(I1
I6
tp512
a(I8
I5
tp513
a(I4
I11
tp514
a(I5
I3
tp515
atp516
Rp517
sg478
((I1
I2
tp518
(I2
I11
tp519
(I2
I0
tp520
(I2
I9
tp521
(I11
I7
tp522
tp523
sg479
I12
sbs(iproblems
RoomID
p524
(dp525
g473
I10
sg474
I10
sg475
I8711387064946514083
sg476
(I0
I7
tp526
sg478
I7
sg479
I10
sb(imulti_robot_problem
MultiRobotState
p527
(dp528
g482
g20
((lp529
(I5
I9
tp530
a(I6
I9
tp531
a(I2
I6
tp532
a(I2
I9
tp533
a(I1
I5
tp534
ag526
a(I0
I6
tp535
a(I8
I8
tp536
a(I0
I5
tp537
a(I4
I3
tp538
a(I0
I4
tp539
a(I0
I3
tp540
a(I7
I9
tp541
a(I0
I2
tp542
a(I9
I7
tp543
atp544
Rp545
sg473
I10
sg503
g20
((lp546
(I9
I0
tp547
a(I3
I3
tp548
a(I7
I1
tp549
a(I8
I1
tp550
a(I9
I8
tp551
a(I4
I4
tp552
a(I9
I9
tp553
a(I3
I6
tp554
a(I1
I7
tp555
a(I8
I6
tp556
atp557
Rp558
sg478
((I1
I1
tp559
(I8
I0
tp560
(I7
I0
tp561
(I2
I5
tp562
(I6
I7
tp563
(I8
I9
tp564
(I5
I8
tp565
tp566
sg479
I10
sbs(iproblems
RoomID
p567
(dp568
g473
I13
sg474
I14
sg475
I7002664860023442459
sg476
(I0
I3
tp569
sg478
I7
sg479
I12
sb(imulti_robot_problem
MultiRobotState
p570
(dp571
g482
g20
((lp572
(I1
I2
tp573
a(I0
I1
tp574
a(I10
I5
tp575
a(I11
I4
tp576
a(I10
I7
tp577
a(I7
I8
tp578
a(I9
I8
tp579
a(I10
I6
tp580
a(I3
I4
tp581
a(I9
I9
tp582
a(I0
I9
tp583
a(I9
I5
tp584
ag569
a(I0
I8
tp585
a(I10
I3
tp586
a(I0
I2
tp587
a(I11
I6
tp588
a(I9
I7
tp589
atp590
Rp591
sg473
I13
sg503
g20
((lp592
(I6
I4
tp593
a(I7
I4
tp594
a(I3
I1
tp595
a(I4
I6
tp596
a(I2
I9
tp597
a(I12
I2
tp598
a(I11
I9
tp599
a(I3
I11
tp600
a(I10
I10
tp601
a(I5
I9
tp602
a(I0
I0
tp603
a(I11
I5
tp604
a(I2
I5
tp605
a(I12
I9
tp606
atp607
Rp608
sg478
((I2
I10
tp609
(I1
I8
tp610
(I8
I10
tp611
(I7
I2
tp612
(I3
I8
tp613
(I6
I2
tp614
(I7
I9
tp615
tp616
sg479
I12
sbs(iproblems
RoomID
p617
(dp618
g473
I13
sg474
I10
sg475
I8999366892653588108
sg476
(I6
I7
tp619
sg478
I6
sg479
I10
sb(imulti_robot_problem
MultiRobotState
p620
(dp621
g482
g20
((lp622
(I5
I4
tp623
ag619
a(I5
I5
tp624
a(I5
I6
tp625
a(I7
I6
tp626
a(I12
I1
tp627
a(I2
I3
tp628
a(I3
I3
tp629
a(I8
I6
tp630
a(I4
I2
tp631
a(I6
I5
tp632
a(I5
I3
tp633
atp634
Rp635
sg473
I13
sg503
g20
((lp636
(I6
I9
tp637
a(I7
I0
tp638
a(I5
I7
tp639
a(I12
I6
tp640
a(I2
I1
tp641
a(I0
I5
tp642
a(I10
I1
tp643
a(I0
I3
tp644
a(I3
I5
tp645
a(I7
I9
tp646
atp647
Rp648
sg478
((I12
I0
tp649
(I6
I1
tp650
(I2
I2
tp651
(I6
I4
tp652
(I4
I6
tp653
(I7
I1
tp654
tp655
sg479
I10
sbs(iproblems
RoomID
p656
(dp657
g473
I10
sg474
I14
sg475
I3872982626502034966
sg476
(I5
I10
tp658
sg478
I5
sg479
I12
sb(imulti_robot_problem
MultiRobotState
p659
(dp660
g482
g20
((lp661
(I5
I9
tp662
a(I6
I9
tp663
a(I4
I8
tp664
a(I3
I11
tp665
a(I2
I1
tp666
a(I6
I2
tp667
a(I5
I8
tp668
a(I6
I7
tp669
a(I8
I1
tp670
a(I3
I5
tp671
a(I1
I1
tp672
a(I4
I10
tp673
a(I3
I2
tp674
a(I7
I1
tp675
a(I1
I4
tp676
a(I8
I7
tp677
a(I4
I9
tp678
a(I6
I8
tp679
ag658
a(I4
I6
tp680
a(I5
I7
tp681
a(I3
I8
tp682
a(I4
I3
tp683
a(I5
I2
tp684
atp685
Rp686
sg473
I10
sg503
g20
((lp687
(I9
I3
tp688
a(I3
I10
tp689
a(I8
I11
tp690
a(I3
I1
tp691
a(I9
I7
tp692
a(I6
I3
tp693
a(I3
I9
tp694
a(I2
I3
tp695
a(I7
I11
tp696
a(I9
I5
tp697
a(I0
I8
tp698
a(I0
I2
tp699
a(I7
I2
tp700
a(I5
I3
tp701
atp702
Rp703
sg478
((I1
I8
tp704
(I2
I9
tp705
(I1
I9
tp706
(I1
I5
tp707
(I6
I5
tp708
tp709
sg479
I12
sbssS'name'
p710
S'heavy_roomset'
p711
sbsg160
g161
sg162
(dp712
g471
((lp713
(F2.430000000000291
I20
tp714
aF40.140000000000327
tp715
sg524
((lp716
(F11.840000000000146
I7
tp717
aF40.760000000000218
tp718
sg567
((lp719
F45.609999999999673
tp720
sg617
((lp721
(F7.6499999999996362
I20
tp722
aF40.300000000000182
tp723
sg656
((lp724
F40.039999999999964
tp725
ssba(imeasure_core
ProblemSetSolution
p726
(dp727
g3
g4
sg160
S"AnytimeBeam-w15-gf(1.3, 'exp')_with_PowerHeuristic2"
p728
sg162
(dp729
g8
((lp730
(F0.13999999999941792
I50
tp731
a(F0.28999999999996362
I42
tp732
a(F4.069999999999709
I40
tp733
a(F5.4200000000000728
I34
tp734
a(F6.5999999999994543
I30
tp735
a(F7.6599999999998545
I28
tp736
a(F13.3799999999992
I26
tp737
aF40.0
tp738
sg40
((lp739
(F0.47999999999956344
I5
tp740
aF40.349999999999454
tp741
sg73
((lp742
(F0.46000000000003638
I66
tp743
a(F28.270000000000437
I65
tp744
a(F37.360000000000582
I64
tp745
aF40.010000000000218
tp746
sg100
((lp747
(F0.21000000000003638
I4
tp748
aF40.050000000000182
tp749
sg129
((lp750
(F0.52999999999974534
I11
tp751
aF40.319999999999709
tp752
ssba(imeasure_core
ProblemSetSolution
p753
(dp754
g3
g189
sg160
g728
sg162
(dp755
g193
((lp756
(F10.630000000000109
I154
tp757
a(F28.880000000000109
I146
tp758
aF40.050000000000182
tp759
sg247
((lp760
(F12.829999999999927
I169
tp761
aF40.049999999999272
tp762
sg304
((lp763
(F0.11000000000058208
I11
tp764
aF40.039999999999964
tp765
sg353
((lp766
(F0.41000000000076398
I11
tp767
aF40.130000000000109
tp768
sg404
((lp769
(F0.94000000000050932
I65
tp770
aF40.039999999999964
tp771
ssba(imeasure_core
ProblemSetSolution
p772
(dp773
g3
g467
sg160
g728
sg162
(dp774
g471
((lp775
(F2.8900000000003274
I20
tp776
aF40.210000000000036
tp777
sg524
((lp778
(F13.039999999999964
I7
tp779
aF41.539999999999964
tp780
sg567
((lp781
F45.700000000000728
tp782
sg617
((lp783
(F9.2100000000000364
I20
tp784
aF40.710000000000036
tp785
sg656
((lp786
F40.099999999999454
tp787
ssba(imeasure_core
ProblemSetSolution
p788
(dp789
g3
g4
sg160
S"AnytimeBeam-w25-gf(1.3, 'exp')_with_PowerHeuristic2"
p790
sg162
(dp791
g8
((lp792
(F0.1499999999996362
I42
tp793
a(F5.0100000000002183
I40
tp794
a(F6.3599999999996726
I34
tp795
a(F7.5299999999997453
I30
tp796
a(F8.5799999999999272
I28
tp797
a(F14.289999999999964
I26
tp798
aF40.0
tp799
sg40
((lp800
(F0.51000000000021828
I5
tp801
aF40.050000000000182
tp802
sg73
((lp803
(F0.51999999999952706
I66
tp804
a(F30.449999999999818
I65
tp805
a(F39.649999999999636
I64
tp806
aF40.009999999999309
tp807
sg100
((lp808
(F0.24000000000069122
I4
tp809
aF40.25
tp810
sg129
((lp811
(F0.57000000000061846
I11
tp812
aF40.340000000000146
tp813
ssba(imeasure_core
ProblemSetSolution
p814
(dp815
g3
g189
sg160
g790
sg162
(dp816
g193
((lp817
(F8.7400000000006912
I155
tp818
a(F16.950000000000728
I154
tp819
a(F25.430000000000291
I146
tp820
aF40.130000000000109
tp821
sg247
((lp822
(F7.7300000000004729
I169
tp823
aF40.079999999999927
tp824
sg304
((lp825
(F0.13000000000010914
I11
tp826
aF40.020000000000437
tp827
sg353
((lp828
(F0.4499999999998181
I11
tp829
aF40.159999999999854
tp830
sg404
((lp831
(F1.1099999999996726
I65
tp832
aF40.010000000000218
tp833
ssba(imeasure_core
ProblemSetSolution
p834
(dp835
g3
g467
sg160
g790
sg162
(dp836
g471
((lp837
(F3.0
I20
tp838
aF40.130000000000109
tp839
sg524
((lp840
(F13.170000000000073
I7
tp841
aF40.700000000000728
tp842
sg567
((lp843
F45.919999999999163
tp844
sg617
((lp845
(F9.430000000000291
I20
tp846
aF40.170000000000073
tp847
sg656
((lp848
F40.170000000000073
tp849
ssba(imeasure_core
ProblemSetSolution
p850
(dp851
g3
g4
sg160
S"AnytimeBeam-w35-gf(1.3, 'exp')_with_PowerHeuristic2"
p852
sg162
(dp853
g8
((lp854
(F0.1499999999996362
I42
tp855
a(F3.4600000000000364
I40
tp856
a(F4.8000000000001819
I34
tp857
a(F5.9700000000002547
I30
tp858
a(F7.0200000000004366
I28
tp859
a(F12.739999999999782
I26
tp860
aF40.0
tp861
sg40
((lp862
(F0.5500000000001819
I5
tp863
aF40.390000000000327
tp864
sg73
((lp865
(F0.60999999999967258
I66
tp866
a(F24.909999999999854
I65
tp867
a(F33.949999999999818
I64
tp868
aF40.019999999999527
tp869
sg100
((lp870
(F0.28000000000065484
I4
tp871
aF40.380000000000109
tp872
sg129
((lp873
(F0.63000000000010914
I11
tp874
aF40.180000000000291
tp875
ssba(imeasure_core
ProblemSetSolution
p876
(dp877
g3
g189
sg160
g852
sg162
(dp878
g193
((lp879
(F8.1099999999996726
I161
tp880
a(F15.889999999999418
I146
tp881
aF40.029999999999745
tp882
sg247
((lp883
(F9.7300000000004729
I169
tp884
aF40.0
tp885
sg304
((lp886
(F0.1499999999996362
I11
tp887
aF40.029999999999745
tp888
sg353
((lp889
(F0.53000000000065484
I11
tp890
aF40.150000000000546
tp891
sg404
((lp892
(F1.2099999999991269
I65
tp893
aF40.020000000000437
tp894
ssba(imeasure_core
ProblemSetSolution
p895
(dp896
g3
g467
sg160
g852
sg162
(dp897
g471
((lp898
(F3.2299999999995634
I20
tp899
aF40.25
tp900
sg524
((lp901
(F13.8799999999992
I7
tp902
aF41.75
tp903
sg567
((lp904
F45.639999999999418
tp905
sg617
((lp906
(F10.209999999999127
I20
tp907
aF40.680000000000291
tp908
sg656
((lp909
F40.019999999998618
tp910
ssba(imeasure_core
ProblemSetSolution
p911
(dp912
g3
g4
sg160
S"AnytimeBeam-w45-gf(1.3, 'exp')_with_PowerHeuristic2"
p913
sg162
(dp914
g8
((lp915
(F0.15000000000145519
I42
tp916
a(F2.8400000000001455
I40
tp917
a(F4.1900000000005093
I34
tp918
a(F5.3500000000003638
I30
tp919
a(F6.4000000000014552
I28
tp920
a(F12.1200000000008
I26
tp921
aF40.0
tp922
sg40
((lp923
(F0.6000000000003638
I5
tp924
aF40.130000000001019
tp925
sg73
((lp926
(F0.6499999999996362
I66
tp927
a(F23.039999999999054
I65
tp928
a(F32.090000000000146
I64
tp929
aF40.0
tp930
sg100
((lp931
(F0.30999999999949068
I4
tp932
aF40.059999999999491
tp933
sg129
((lp934
(F0.65999999999985448
I11
tp935
aF40.110000000000582
tp936
ssba(imeasure_core
ProblemSetSolution
p937
(dp938
g3
g189
sg160
g913
sg162
(dp939
g193
((lp940
(F8.2600000000002183
I154
tp941
a(F17.159999999999854
I146
tp942
aF40.0
tp943
sg247
((lp944
(F10.579999999999927
I169
tp945
aF40.079999999999927
tp946
sg304
((lp947
(F0.15999999999985448
I11
tp948
aF40.039999999999054
tp949
sg353
((lp950
(F0.59000000000014552
I11
tp951
aF40.079999999999927
tp952
sg404
((lp953
(F1.3000000000010914
I65
tp954
aF40.069999999999709
tp955
ssba(imeasure_core
ProblemSetSolution
p956
(dp957
g3
g467
sg160
g913
sg162
(dp958
g471
((lp959
(F3.3600000000005821
I20
tp960
aF40.110000000000582
tp961
sg524
((lp962
(F13.960000000000946
I7
tp963
aF41.690000000000509
tp964
sg567
((lp965
F45.549999999999272
tp966
sg617
((lp967
(F10.420000000000073
I20
tp968
aF40.020000000000437
tp969
sg656
((lp970
F40.049999999999272
tp971
ssba(imeasure_core
ProblemSetSolution
p972
(dp973
g3
g4
sg160
S"AnytimeBeam-w5-gf(1.3, 'exp')_with_LinearHeuristic"
p974
sg162
(dp975
g8
((lp976
(F0.040000000000873115
I28
tp977
a(F38.610000000000582
I26
tp978
aF40.0
tp979
sg40
((lp980
F40.25
tp981
sg73
((lp982
(F0.12000000000080036
I24
tp983
a(F36.900000000001455
I23
tp984
aF40.010000000000218
tp985
sg100
((lp986
(F0.52000000000043656
I10
tp987
aF40.210000000000946
tp988
sg129
((lp989
(F1.2299999999995634
I27
tp990
aF40.0
tp991
ssba(imeasure_core
ProblemSetSolution
p992
(dp993
g3
g189
sg160
g974
sg162
(dp994
g193
((lp995
F40.0
tp996
sg247
((lp997
F40.079999999999927
tp998
sg304
((lp999
(F14.759999999998399
I282
tp1000
aF40.079999999999927
tp1001
sg353
((lp1002
F40.18999999999869
tp1003
sg404
((lp1004
(F8.2000000000007276
I226
tp1005
aF40.0
tp1006
ssba(imeasure_core
ProblemSetSolution
p1007
(dp1008
g3
g467
sg160
g974
sg162
(dp1009
g471
((lp1010
F40.130000000001019
tp1011
sg524
((lp1012
(F18.940000000000509
I7
tp1013
aF41.920000000000073
tp1014
sg567
((lp1015
F50.409999999999854
tp1016
sg617
((lp1017
F40.239999999999782
tp1018
sg656
((lp1019
F40.020000000000437
tp1020
ssba(imeasure_core
ProblemSetSolution
p1021
(dp1022
g3
g4
sg160
S"AnytimeBeam-w15-gf(1.3, 'exp')_with_LinearHeuristic"
p1023
sg162
(dp1024
g8
((lp1025
(F0.019999999998617568
I28
tp1026
aF40.0
tp1027
sg40
((lp1028
F40.139999999999418
tp1029
sg73
((lp1030
(F0.37999999999919964
I27
tp1031
a(F1.0
I25
tp1032
a(F31.440000000000509
I24
tp1033
aF40.0
tp1034
sg100
((lp1035
(F0.65999999999985448
I10
tp1036
aF40.489999999999782
tp1037
sg129
((lp1038
(F1.7800000000006548
I27
tp1039
aF40.1200000000008
tp1040
ssba(imeasure_core
ProblemSetSolution
p1041
(dp1042
g3
g189
sg160
g1023
sg162
(dp1043
g193
((lp1044
F40.009999999998399
tp1045
sg247
((lp1046
F40.050000000001091
tp1047
sg304
((lp1048
(F12.059999999999491
I282
tp1049
aF40.079999999999927
tp1050
sg353
((lp1051
F40.110000000000582
tp1052
sg404
((lp1053
(F7.1700000000000728
I226
tp1054
aF40.009999999998399
tp1055
ssba(imeasure_core
ProblemSetSolution
p1056
(dp1057
g3
g467
sg160
g1023
sg162
(dp1058
g471
((lp1059
F40.260000000000218
tp1060
sg524
((lp1061
(F21.899999999999636
I7
tp1062
aF44.579999999999927
tp1063
sg567
((lp1064
F51.950000000000728
tp1065
sg617
((lp1066
F40.369999999998981
tp1067
sg656
((lp1068
F40.030000000000655
tp1069
ssba(imeasure_core
ProblemSetSolution
p1070
(dp1071
g3
g4
sg160
S"AnytimeBeam-w25-gf(1.3, 'exp')_with_LinearHeuristic"
p1072
sg162
(dp1073
g8
((lp1074
(F0.020000000000436557
I28
tp1075
aF40.0
tp1076
sg40
((lp1077
F40.200000000000728
tp1078
sg73
((lp1079
(F0.63999999999941792
I25
tp1080
a(F30.0
I24
tp1081
a(F39.219999999999345
I23
tp1082
aF40.009999999998399
tp1083
sg100
((lp1084
(F0.75
I10
tp1085
aF40.410000000001673
tp1086
sg129
((lp1087
(F2.1599999999998545
I27
tp1088
aF40.079999999999927
tp1089
ssba(imeasure_core
ProblemSetSolution
p1090
(dp1091
g3
g189
sg160
g1072
sg162
(dp1092
g193
((lp1093
F40.0
tp1094
sg247
((lp1095
F40.019999999998618
tp1096
sg304
((lp1097
F40.190000000000509
tp1098
sg353
((lp1099
F40.069999999999709
tp1100
sg404
((lp1101
(F8.3400000000001455
I226
tp1102
aF40.030000000000655
tp1103
ssba(imeasure_core
ProblemSetSolution
p1104
(dp1105
g3
g467
sg160
g1072
sg162
(dp1106
g471
((lp1107
F40.279999999998836
tp1108
sg524
((lp1109
(F22.650000000001455
I7
tp1110
aF46.590000000000146
tp1111
sg567
((lp1112
F51.899999999999636
tp1113
sg617
((lp1114
F40.25
tp1115
sg656
((lp1116
F40.090000000000146
tp1117
ssba(imeasure_core
ProblemSetSolution
p1118
(dp1119
g3
g4
sg160
S"AnytimeBeam-w35-gf(1.3, 'exp')_with_LinearHeuristic"
p1120
sg162
(dp1121
g8
((lp1122
(F0.020000000000436557
I28
tp1123
a(F34.470000000001164
I26
tp1124
aF40.0
tp1125
sg40
((lp1126
F40.260000000000218
tp1127
sg73
((lp1128
(F0.73999999999978172
I25
tp1129
a(F29.409999999999854
I24
tp1130
a(F38.600000000000364
I23
tp1131
aF40.0
tp1132
sg100
((lp1133
(F0.88000000000101863
I10
tp1134
aF40.159999999999854
tp1135
sg129
((lp1136
(F2.6900000000005093
I27
tp1137
aF40.0
tp1138
ssba(imeasure_core
ProblemSetSolution
p1139
(dp1140
g3
g189
sg160
g1120
sg162
(dp1141
g193
((lp1142
F40.06000000000131
tp1143
sg247
((lp1144
F40.159999999999854
tp1145
sg304
((lp1146
F40.209999999999127
tp1147
sg353
((lp1148
F40.170000000000073
tp1149
sg404
((lp1150
(F9.2299999999995634
I226
tp1151
aF40.090000000000146
tp1152
ssba(imeasure_core
ProblemSetSolution
p1153
(dp1154
g3
g467
sg160
g1120
sg162
(dp1155
g471
((lp1156
F40.389999999999418
tp1157
sg524
((lp1158
(F23.930000000000291
I7
tp1159
aF40.040000000000873
tp1160
sg567
((lp1161
F52.670000000000073
tp1162
sg617
((lp1163
F40.119999999998981
tp1164
sg656
((lp1165
F40.280000000000655
tp1166
ssba(imeasure_core
ProblemSetSolution
p1167
(dp1168
g3
g4
sg160
S"AnytimeBeam-w45-gf(1.3, 'exp')_with_LinearHeuristic"
p1169
sg162
(dp1170
g8
((lp1171
(F0.020000000000436557
I28
tp1172
aF40.0
tp1173
sg40
((lp1174
F40.1299999999992
tp1175
sg73
((lp1176
(F0.76000000000021828
I25
tp1177
a(F27.81000000000131
I24
tp1178
a(F36.989999999999782
I23
tp1179
aF40.010000000000218
tp1180
sg100
((lp1181
(F0.94000000000050932
I10
tp1182
aF40.229999999999563
tp1183
sg129
((lp1184
(F3.0200000000004366
I27
tp1185
aF40.100000000000364
tp1186
ssba(imeasure_core
ProblemSetSolution
p1187
(dp1188
g3
g189
sg160
g1169
sg162
(dp1189
g193
((lp1190
F40.110000000000582
tp1191
sg247
((lp1192
F40.049999999999272
tp1193
sg304
((lp1194
F40.260000000000218
tp1195
sg353
((lp1196
F40.25
tp1197
sg404
((lp1198
(F9.6900000000005093
I226
tp1199
aF40.010000000000218
tp1200
ssba(imeasure_core
ProblemSetSolution
p1201
(dp1202
g3
g467
sg160
g1169
sg162
(dp1203
g471
((lp1204
F40.360000000000582
tp1205
sg524
((lp1206
(F23.969999999999345
I7
tp1207
aF40.420000000000073
tp1208
sg567
((lp1209
F52.789999999999054
tp1210
sg617
((lp1211
F40.219999999999345
tp1212
sg656
((lp1213
F40.350000000000364
tp1214
ssba.