(lp0
(imeasure_core
ProblemSetSolution
p1
(dp2
S'roomset'
p3
(imeasure_core
RoomSet
p4
(dp5
S'rooms'
p6
(dp7
(iproblems
RoomID
p8
(dp9
S'width'
p10
I7
sS'dusts'
p11
I8
sS'seed'
p12
I7283207964119141687
sS'obstacles'
p13
(I2
I4
tp14
sS'robots'
p15
I4
sS'height'
p16
I9
sb(imulti_robot_problem
MultiRobotState
p17
(dp18
S'obstacle_locations'
p19
c__builtin__
frozenset
p20
((lp21
(I4
I6
tp22
a(I3
I0
tp23
a(I4
I3
tp24
a(I4
I2
tp25
a(I3
I4
tp26
ag14
a(I3
I3
tp27
atp28
Rp29
sg10
I7
sS'dirt_locations'
p30
g20
((lp31
(I4
I5
tp32
a(I5
I7
tp33
a(I0
I6
tp34
a(I1
I6
tp35
a(I5
I0
tp36
a(I5
I1
tp37
a(I5
I2
tp38
a(I1
I1
tp39
atp40
Rp41
sg15
((I1
I5
tp42
(I5
I5
tp43
(I3
I1
tp44
(I3
I5
tp45
tp46
sg16
I9
sbs(iproblems
RoomID
p47
(dp48
g10
I8
sg11
I8
sg12
I890727360438182992
sg13
(I4
I6
tp49
sg15
I2
sg16
I10
sb(imulti_robot_problem
MultiRobotState
p50
(dp51
g19
g20
((lp52
(I0
I0
tp53
ag49
a(I6
I6
tp54
a(I5
I6
tp55
a(I7
I6
tp56
a(I7
I4
tp57
a(I4
I2
tp58
a(I2
I4
tp59
atp60
Rp61
sg10
I8
sg30
g20
((lp62
(I7
I0
tp63
a(I7
I1
tp64
a(I6
I3
tp65
a(I1
I8
tp66
a(I0
I5
tp67
a(I5
I1
tp68
a(I1
I0
tp69
a(I0
I3
tp70
atp71
Rp72
sg15
((I2
I8
tp73
(I2
I5
tp74
tp75
sg16
I10
sbs(iproblems
RoomID
p76
(dp77
g10
I10
sg11
I7
sg12
I1585446675937841368
sg13
(I4
I1
tp78
sg15
I3
sg16
I10
sb(imulti_robot_problem
MultiRobotState
p79
(dp80
g19
g20
((lp81
(I3
I2
tp82
a(I2
I6
tp83
a(I6
I7
tp84
a(I6
I1
tp85
a(I5
I8
tp86
a(I5
I0
tp87
ag78
a(I2
I4
tp88
a(I7
I2
tp89
atp90
Rp91
sg10
I10
sg30
g20
((lp92
(I7
I3
tp93
a(I2
I9
tp94
a(I1
I7
tp95
a(I9
I4
tp96
a(I2
I2
tp97
a(I5
I2
tp98
a(I9
I7
tp99
atp100
Rp101
sg15
((I8
I9
tp102
(I4
I4
tp103
(I9
I8
tp104
tp105
sg16
I10
sbs(iproblems
RoomID
p106
(dp107
g10
I8
sg11
I5
sg12
I1736392818365009963
sg13
(I7
I3
tp108
sg15
I1
sg16
I7
sb(imulti_robot_problem
MultiRobotState
p109
(dp110
g19
g20
((lp111
g108
a(I2
I6
tp112
a(I7
I0
tp113
a(I7
I1
tp114
a(I2
I1
tp115
a(I6
I3
tp116
a(I0
I4
tp117
a(I7
I2
tp118
atp119
Rp120
sg10
I8
sg30
g20
((lp121
(I0
I1
tp122
a(I6
I2
tp123
a(I1
I6
tp124
a(I4
I4
tp125
a(I0
I0
tp126
atp127
Rp128
sg15
((I3
I1
tp129
tp130
sg16
I7
sbs(iproblems
RoomID
p131
(dp132
g10
I9
sg11
I10
sg12
I3960482443532127989
sg13
(I6
I5
tp133
sg15
I5
sg16
I8
sb(imulti_robot_problem
MultiRobotState
p134
(dp135
g19
g20
((lp136
(I4
I5
tp137
a(I5
I5
tp138
ag133
a(I6
I6
tp139
atp140
Rp141
sg10
I9
sg30
g20
((lp142
(I2
I7
tp143
a(I2
I6
tp144
a(I3
I6
tp145
a(I5
I7
tp146
a(I1
I4
tp147
a(I1
I5
tp148
a(I5
I0
tp149
a(I8
I0
tp150
a(I8
I5
tp151
a(I5
I3
tp152
atp153
Rp154
sg15
((I4
I3
tp155
(I8
I7
tp156
(I1
I6
tp157
(I7
I3
tp158
(I6
I4
tp159
tp160
sg16
I8
sbssS'name'
p161
S'easy_roomset'
p162
sbsS'name'
p163
S'AnytimeBest-d10_with_PowerHeuristic2'
p164
sS'solutions'
p165
(dp166
g8
((lp167
F40.019999999996799
tp168
sg47
((lp169
F40.0
tp170
sg76
((lp171
F40.010000000002037
tp172
sg106
((lp173
F0.15000000000145519
tp174
sg131
((lp175
(F2.0400000000008731
I10
tp176
aF40.059999999997672
tp177
ssba(imeasure_core
ProblemSetSolution
p178
(dp179
g3
(imeasure_core
RoomSet
p180
(dp181
S'rooms'
p182
(dp183
(iproblems
RoomID
p184
(dp185
S'width'
p186
I9
sS'dusts'
p187
I8
sS'seed'
p188
I7283207964119141687
sS'obstacles'
p189
(I2
I6
tp190
sS'robots'
p191
I4
sS'height'
p192
I11
sb(imulti_robot_problem
MultiRobotState
p193
(dp194
S'obstacle_locations'
p195
g20
((lp196
(I4
I7
tp197
a(I1
I3
tp198
a(I8
I9
tp199
a(I6
I2
tp200
a(I0
I10
tp201
a(I3
I7
tp202
a(I0
I3
tp203
a(I8
I5
tp204
a(I4
I0
tp205
a(I5
I5
tp206
a(I6
I10
tp207
a(I6
I3
tp208
a(I3
I6
tp209
a(I5
I3
tp210
a(I5
I4
tp211
ag190
a(I4
I5
tp212
a(I1
I4
tp213
a(I3
I5
tp214
a(I3
I4
tp215
a(I6
I1
tp216
a(I4
I3
tp217
a(I5
I2
tp218
a(I2
I4
tp219
atp220
Rp221
sg186
I9
sS'dirt_locations'
p222
g20
((lp223
(I7
I0
tp224
a(I6
I8
tp225
a(I7
I1
tp226
a(I5
I6
tp227
a(I1
I8
tp228
a(I0
I8
tp229
a(I4
I1
tp230
a(I5
I8
tp231
atp232
Rp233
sg191
((I1
I7
tp234
(I6
I6
tp235
(I4
I6
tp236
(I2
I1
tp237
tp238
sg192
I11
sbs(iproblems
RoomID
p239
(dp240
g186
I10
sg187
I8
sg188
I890727360438182992
sg189
(I3
I5
tp241
sg191
I3
sg192
I12
sb(imulti_robot_problem
MultiRobotState
p242
(dp243
g195
g20
((lp244
(I7
I8
tp245
a(I4
I7
tp246
a(I5
I7
tp247
a(I3
I0
tp248
a(I8
I9
tp249
a(I5
I8
tp250
a(I6
I7
tp251
a(I7
I10
tp252
a(I2
I2
tp253
a(I3
I2
tp254
a(I0
I0
tp255
a(I1
I4
tp256
a(I7
I5
tp257
a(I2
I3
tp258
a(I4
I11
tp259
ag241
a(I6
I8
tp260
a(I3
I4
tp261
a(I3
I1
tp262
a(I8
I8
tp263
a(I0
I9
tp264
a(I3
I9
tp265
a(I5
I2
tp266
atp267
Rp268
sg186
I10
sg222
g20
((lp269
(I9
I2
tp270
a(I6
I1
tp271
a(I8
I0
tp272
a(I2
I10
tp273
a(I0
I6
tp274
a(I0
I4
tp275
a(I9
I5
tp276
a(I1
I1
tp277
atp278
Rp279
sg191
((I2
I9
tp280
(I2
I6
tp281
(I8
I4
tp282
tp283
sg192
I12
sbs(iproblems
RoomID
p284
(dp285
g186
I10
sg187
I5
sg188
I1736392818365009963
sg189
(I7
I6
tp286
sg191
I3
sg192
I9
sb(imulti_robot_problem
MultiRobotState
p287
(dp288
g195
g20
((lp289
(I7
I3
tp290
a(I9
I1
tp291
a(I4
I8
tp292
a(I7
I7
tp293
a(I6
I2
tp294
a(I8
I5
tp295
a(I7
I2
tp296
a(I1
I2
tp297
a(I3
I8
tp298
a(I9
I0
tp299
ag286
a(I2
I2
tp300
a(I9
I3
tp301
a(I7
I5
tp302
a(I0
I5
tp303
a(I0
I4
tp304
a(I6
I5
tp305
a(I0
I1
tp306
a(I9
I2
tp307
a(I7
I4
tp308
a(I4
I3
tp309
a(I5
I2
tp310
a(I8
I4
tp311
atp312
Rp313
sg186
I10
sg222
g20
((lp314
(I1
I8
tp315
a(I3
I1
tp316
a(I4
I1
tp317
a(I0
I2
tp318
a(I5
I5
tp319
atp320
Rp321
sg191
((I4
I2
tp322
(I1
I0
tp323
(I8
I2
tp324
tp325
sg192
I9
sbs(iproblems
RoomID
p326
(dp327
g186
I12
sg187
I7
sg188
I1585446675937841368
sg189
(I6
I3
tp328
sg191
I3
sg192
I12
sb(imulti_robot_problem
MultiRobotState
p329
(dp330
g195
g20
((lp331
(I5
I9
tp332
a(I7
I3
tp333
a(I2
I8
tp334
a(I3
I11
tp335
a(I6
I2
tp336
a(I5
I1
tp337
a(I1
I11
tp338
a(I8
I5
tp339
a(I7
I2
tp340
a(I7
I8
tp341
a(I6
I7
tp342
a(I2
I9
tp343
a(I7
I6
tp344
a(I6
I6
tp345
ag328
a(I7
I10
tp346
a(I8
I6
tp347
a(I4
I10
tp348
a(I8
I2
tp349
a(I7
I1
tp350
a(I9
I3
tp351
a(I7
I7
tp352
a(I4
I11
tp353
a(I2
I7
tp354
a(I6
I8
tp355
a(I3
I4
tp356
a(I5
I7
tp357
a(I2
I11
tp358
a(I4
I3
tp359
a(I5
I2
tp360
a(I8
I4
tp361
atp362
Rp363
sg186
I12
sg222
g20
((lp364
(I3
I2
tp365
a(I11
I5
tp366
a(I11
I8
tp367
a(I6
I10
tp368
a(I1
I9
tp369
a(I9
I4
tp370
a(I2
I5
tp371
atp372
Rp373
sg191
((I10
I10
tp374
(I5
I5
tp375
(I11
I10
tp376
tp377
sg192
I12
sbs(iproblems
RoomID
p378
(dp379
g186
I10
sg187
I9
sg188
I7713914763314685786
sg189
(I1
I3
tp380
sg191
I4
sg192
I9
sb(imulti_robot_problem
MultiRobotState
p381
(dp382
g195
g20
((lp383
g380
a(I2
I1
tp384
a(I5
I1
tp385
a(I7
I2
tp386
a(I4
I0
tp387
a(I1
I2
tp388
a(I1
I5
tp389
a(I2
I2
tp390
a(I4
I1
tp391
a(I1
I1
tp392
a(I3
I2
tp393
a(I7
I1
tp394
a(I9
I3
tp395
a(I6
I0
tp396
a(I4
I2
tp397
a(I9
I6
tp398
a(I3
I5
tp399
a(I7
I0
tp400
a(I6
I1
tp401
a(I3
I1
tp402
a(I1
I8
tp403
a(I5
I2
tp404
atp405
Rp406
sg186
I10
sg222
g20
((lp407
(I7
I3
tp408
a(I5
I4
tp409
a(I7
I6
tp410
a(I7
I5
tp411
a(I0
I5
tp412
a(I8
I7
tp413
a(I8
I6
tp414
a(I8
I5
tp415
a(I9
I7
tp416
atp417
Rp418
sg191
((I3
I0
tp419
(I7
I7
tp420
(I2
I0
tp421
(I4
I6
tp422
tp423
sg192
I9
sbssS'name'
p424
S'mild_roomset'
p425
sbsg163
g164
sg165
(dp426
g184
((lp427
(F0.11000000000058208
I7
tp428
aF40.040000000000873
tp429
sg239
((lp430
F40.089999999996508
tp431
sg284
((lp432
F40.019999999996799
tp433
sg326
((lp434
F40.070000000006985
tp435
sg378
((lp436
F40.069999999999709
tp437
ssba(imeasure_core
ProblemSetSolution
p438
(dp439
g3
(imeasure_core
RoomSet
p440
(dp441
S'rooms'
p442
(dp443
(iproblems
RoomID
p444
(dp445
S'width'
p446
I10
sS'dusts'
p447
I13
sS'seed'
p448
I7283207964119141687
sS'obstacles'
p449
(I8
I4
tp450
sS'robots'
p451
I7
sS'height'
p452
I12
sb(imulti_robot_problem
MultiRobotState
p453
(dp454
S'obstacle_locations'
p455
g20
((lp456
(I7
I4
tp457
a(I3
I4
tp458
a(I6
I10
tp459
a(I6
I0
tp460
a(I6
I3
tp461
a(I0
I11
tp462
a(I6
I2
tp463
a(I3
I6
tp464
a(I2
I2
tp465
a(I0
I4
tp466
a(I5
I2
tp467
a(I5
I8
tp468
ag450
atp469
Rp470
sg446
I10
sS'dirt_locations'
p471
g20
((lp472
(I7
I3
tp473
a(I6
I7
tp474
a(I6
I8
tp475
a(I7
I1
tp476
a(I8
I1
tp477
a(I4
I4
tp478
a(I6
I6
tp479
a(I5
I6
tp480
a(I1
I9
tp481
a(I5
I0
tp482
a(I9
I10
tp483
a(I9
I6
tp484
a(I7
I9
tp485
atp486
Rp487
sg451
((I1
I7
tp488
(I7
I6
tp489
(I4
I6
tp490
(I2
I1
tp491
(I6
I4
tp492
(I0
I9
tp493
(I8
I0
tp494
tp495
sg452
I12
sbs(iproblems
RoomID
p496
(dp497
g446
I11
sg447
I13
sg448
I890727360438182992
sg449
(I8
I3
tp498
sg451
I5
sg452
I13
sb(imulti_robot_problem
MultiRobotState
p499
(dp500
g455
g20
((lp501
(I4
I10
tp502
a(I6
I9
tp503
a(I9
I0
tp504
a(I8
I2
tp505
a(I5
I9
tp506
a(I9
I8
tp507
a(I6
I10
tp508
ag498
a(I8
I8
tp509
a(I4
I12
tp510
a(I0
I10
tp511
a(I8
I7
tp512
a(I6
I8
tp513
a(I8
I6
tp514
a(I7
I8
tp515
a(I0
I2
tp516
a(I9
I1
tp517
atp518
Rp519
sg446
I11
sg471
g20
((lp520
(I10
I5
tp521
a(I0
I0
tp522
a(I4
I6
tp523
a(I1
I5
tp524
a(I9
I2
tp525
a(I8
I11
tp526
a(I2
I1
tp527
a(I9
I10
tp528
a(I0
I6
tp529
a(I0
I4
tp530
a(I0
I9
tp531
a(I5
I2
tp532
a(I4
I11
tp533
atp534
Rp535
sg451
((I3
I10
tp536
(I2
I7
tp537
(I9
I4
tp538
(I2
I11
tp539
(I7
I1
tp540
tp541
sg452
I13
sbs(iproblems
RoomID
p542
(dp543
g446
I13
sg447
I12
sg448
I1585446675937841368
sg449
(I6
I9
tp544
sg451
I6
sg452
I13
sb(imulti_robot_problem
MultiRobotState
p545
(dp546
g455
g20
((lp547
(I7
I3
tp548
ag544
a(I7
I7
tp549
a(I4
I12
tp550
a(I10
I3
tp551
a(I7
I2
tp552
a(I2
I9
tp553
a(I8
I1
tp554
a(I7
I6
tp555
a(I6
I3
tp556
a(I5
I8
tp557
a(I7
I10
tp558
a(I9
I7
tp559
a(I8
I11
tp560
a(I7
I5
tp561
a(I1
I12
tp562
a(I9
I2
tp563
a(I7
I4
tp564
a(I3
I4
tp565
a(I2
I4
tp566
a(I9
I12
tp567
a(I8
I4
tp568
atp569
Rp570
sg446
I13
sg471
g20
((lp571
(I3
I3
tp572
a(I2
I8
tp573
a(I6
I10
tp574
a(I5
I2
tp575
a(I8
I10
tp576
a(I2
I10
tp577
a(I12
I5
tp578
a(I4
I3
tp579
a(I5
I1
tp580
a(I3
I5
tp581
a(I12
I9
tp582
a(I7
I9
tp583
atp584
Rp585
sg451
((I10
I11
tp586
(I5
I5
tp587
(I12
I11
tp588
(I1
I10
tp589
(I3
I12
tp590
(I10
I4
tp591
tp592
sg452
I13
sbs(iproblems
RoomID
p593
(dp594
g446
I12
sg447
I15
sg448
I3960482443532127989
sg449
(I6
I9
tp595
sg451
I7
sg452
I11
sb(imulti_robot_problem
MultiRobotState
p596
(dp597
g455
g20
((lp598
(I5
I9
tp599
ag595
a(I9
I1
tp600
a(I6
I4
tp601
a(I5
I6
tp602
a(I7
I7
tp603
a(I9
I4
tp604
a(I1
I2
tp605
a(I6
I7
tp606
a(I2
I9
tp607
a(I8
I1
tp608
a(I6
I3
tp609
a(I8
I6
tp610
a(I9
I7
tp611
a(I4
I10
tp612
a(I2
I10
tp613
a(I3
I9
tp614
a(I6
I5
tp615
a(I8
I3
tp616
a(I5
I10
tp617
a(I5
I7
tp618
a(I7
I4
tp619
a(I10
I7
tp620
a(I0
I9
tp621
a(I7
I8
tp622
a(I11
I6
tp623
atp624
Rp625
sg446
I12
sg471
g20
((lp626
(I7
I3
tp627
a(I2
I6
tp628
a(I5
I5
tp629
a(I3
I0
tp630
a(I3
I8
tp631
a(I0
I6
tp632
a(I11
I1
tp633
a(I1
I6
tp634
a(I4
I3
tp635
a(I1
I7
tp636
a(I1
I3
tp637
a(I1
I0
tp638
a(I10
I1
tp639
a(I1
I1
tp640
a(I10
I2
tp641
atp642
Rp643
sg451
((I11
I10
tp644
(I1
I8
tp645
(I10
I5
tp646
(I11
I0
tp647
(I4
I8
tp648
(I7
I9
tp649
(I7
I1
tp650
tp651
sg452
I11
sbs(iproblems
RoomID
p652
(dp653
g446
I11
sg447
I10
sg448
I1736392818365009963
sg449
(I10
I4
tp654
sg451
I5
sg452
I10
sb(imulti_robot_problem
MultiRobotState
p655
(dp656
g455
g20
((lp657
(I0
I1
tp658
a(I1
I2
tp659
a(I3
I2
tp660
ag654
a(I4
I5
tp661
a(I7
I4
tp662
a(I6
I2
tp663
a(I2
I3
tp664
a(I10
I1
tp665
a(I3
I8
tp666
a(I10
I0
tp667
a(I10
I3
tp668
a(I10
I2
tp669
atp670
Rp671
sg446
I11
sg471
g20
((lp672
(I5
I9
tp673
a(I5
I5
tp674
a(I3
I1
tp675
a(I8
I8
tp676
a(I3
I9
tp677
a(I0
I5
tp678
a(I5
I3
tp679
a(I4
I1
tp680
a(I6
I5
tp681
a(I8
I4
tp682
atp683
Rp684
sg451
((I4
I2
tp685
(I1
I0
tp686
(I9
I3
tp687
(I1
I9
tp688
(I0
I2
tp689
tp690
sg452
I10
sbssS'name'
p691
S'heavy_roomset'
p692
sbsg163
g164
sg165
(dp693
g444
((lp694
(F39.5
I10
tp695
aF40.319999999999709
tp696
sg496
((lp697
F40.989999999997963
tp698
sg542
((lp699
F41.139999999999418
tp700
sg593
((lp701
F40.290000000000873
tp702
sg652
((lp703
(F1.2200000000011642
I9
tp704
aF40.049999999995634
tp705
ssba(imeasure_core
ProblemSetSolution
p706
(dp707
g3
g4
sg163
S'AnytimeBest-d80_with_PowerHeuristic2'
p708
sg165
(dp709
g8
((lp710
(F1.7300000000032014
I28
tp711
aF40.040000000000873
tp712
sg47
((lp713
(F0.050000000002910383
I19
tp714
a(F25.410000000003492
I18
tp715
aF40.0
tp716
sg76
((lp717
(F0.16000000000349246
I14
tp718
aF40.029999999998836
tp719
sg106
((lp720
(F0.11000000000058208
I30
tp721
a(F0.13000000000465661
I28
tp722
a(F0.59999999999854481
I27
tp723
a(F0.88999999999941792
I25
tp724
a(F1.0299999999988358
I23
tp725
a(F1.1399999999994179
I22
tp726
a(F2.7099999999991269
I21
tp727
a(F2.8000000000029104
I20
tp728
aF3.3800000000046566
tp729
sg131
((lp730
(F2.0399999999935972
I10
tp731
aF40.379999999997381
tp732
ssba(imeasure_core
ProblemSetSolution
p733
(dp734
g3
g180
sg163
g708
sg165
(dp735
g184
((lp736
(F0.11000000000058208
I7
tp737
aF40.040000000000873
tp738
sg239
((lp739
F40.099999999998545
tp740
sg284
((lp741
(F2.0400000000008731
I66
tp742
aF40.009999999994761
tp743
sg326
((lp744
(F0.23000000000320142
I20
tp745
aF40.010000000002037
tp746
sg378
((lp747
(F0.54000000000087311
I15
tp748
aF40.05000000000291
tp749
ssba(imeasure_core
ProblemSetSolution
p750
(dp751
g3
g440
sg163
g708
sg165
(dp752
g444
((lp753
(F39.299999999995634
I10
tp754
aF40.319999999999709
tp755
sg496
((lp756
F40.900000000001455
tp757
sg542
((lp758
F41.879999999997381
tp759
sg593
((lp760
F40.599999999998545
tp761
sg652
((lp762
(F1.2300000000032014
I9
tp763
aF40.05000000000291
tp764
ssba(imeasure_core
ProblemSetSolution
p765
(dp766
g3
g4
sg163
S'AnytimeBest-d150_with_PowerHeuristic2'
p767
sg165
(dp768
g8
((lp769
(F1.75
I28
tp770
aF40.040000000000873
tp771
sg47
((lp772
(F0.060000000004947651
I19
tp773
a(F25.120000000002619
I18
tp774
aF40.0
tp775
sg76
((lp776
(F0.16000000000349246
I14
tp777
aF40.020000000004075
tp778
sg106
((lp779
(F0.11000000000058208
I30
tp780
a(F0.12999999999738066
I28
tp781
a(F0.61000000000058208
I27
tp782
a(F0.9099999999962165
I25
tp783
a(F1.0499999999956344
I23
tp784
a(F1.1500000000014552
I22
tp785
a(F2.7399999999979627
I21
tp786
a(F2.8300000000017462
I20
tp787
aF3.4099999999962165
tp788
sg131
((lp789
(F2.069999999999709
I10
tp790
aF40.060000000004948
tp791
ssba(imeasure_core
ProblemSetSolution
p792
(dp793
g3
g180
sg163
g767
sg165
(dp794
g184
((lp795
(F0.11999999999534339
I7
tp796
aF40.040000000000873
tp797
sg239
((lp798
F40.07999999999447
tp799
sg284
((lp800
(F2.0100000000020373
I66
tp801
aF40.029999999998836
tp802
sg326
((lp803
(F0.22000000000116415
I20
tp804
aF40.020000000004075
tp805
sg378
((lp806
(F0.54000000000087311
I15
tp807
aF40.049999999995634
tp808
ssba(imeasure_core
ProblemSetSolution
p809
(dp810
g3
g440
sg163
g767
sg165
(dp811
g444
((lp812
(F39.520000000004075
I10
tp813
aF40.320000000006985
tp814
sg496
((lp815
F40.879999999997381
tp816
sg542
((lp817
F42.099999999998545
tp818
sg593
((lp819
F40.510000000002037
tp820
sg652
((lp821
(F1.2399999999979627
I9
tp822
aF40.059999999997672
tp823
ssba(imeasure_core
ProblemSetSolution
p824
(dp825
g3
g4
sg163
S'AnytimeBest-d250_with_PowerHeuristic2'
p826
sg165
(dp827
g8
((lp828
(F1.7600000000020373
I28
tp829
aF40.040000000000873
tp830
sg47
((lp831
(F0.059999999997671694
I19
tp832
a(F25.180000000000291
I18
tp833
aF40.0
tp834
sg76
((lp835
(F0.16000000000349246
I14
tp836
aF40.019999999996799
tp837
sg106
((lp838
(F0.11000000000058208
I30
tp839
a(F0.13000000000465661
I28
tp840
a(F0.62000000000261934
I27
tp841
a(F0.91000000000349246
I25
tp842
a(F1.0500000000029104
I23
tp843
a(F1.1500000000014552
I22
tp844
a(F2.7200000000011642
I21
tp845
a(F2.8100000000049477
I20
tp846
aF3.3900000000066939
tp847
sg131
((lp848
(F2.0299999999988358
I10
tp849
aF40.059999999997672
tp850
ssba(imeasure_core
ProblemSetSolution
p851
(dp852
g3
g180
sg163
g826
sg165
(dp853
g184
((lp854
(F0.10999999999330612
I7
tp855
aF40.039999999993597
tp856
sg239
((lp857
F40.150000000001455
tp858
sg284
((lp859
(F2.0299999999988358
I66
tp860
aF40.010000000002037
tp861
sg326
((lp862
(F0.23000000000320142
I20
tp863
aF40.010000000002037
tp864
sg378
((lp865
(F0.54999999999563443
I15
tp866
aF40.110000000000582
tp867
ssba(imeasure_core
ProblemSetSolution
p868
(dp869
g3
g440
sg163
g826
sg165
(dp870
g444
((lp871
(F39.289999999993597
I10
tp872
aF40.360000000000582
tp873
sg496
((lp874
F40.5
tp875
sg542
((lp876
F42.239999999997963
tp877
sg593
((lp878
F40.339999999996508
tp879
sg652
((lp880
(F1.2400000000052387
I9
tp881
aF40.060000000004948
tp882
ssba(imeasure_core
ProblemSetSolution
p883
(dp884
g3
g4
sg163
S'AnytimeBest-d400_with_PowerHeuristic2'
p885
sg165
(dp886
g8
((lp887
(F1.7599999999947613
I28
tp888
aF40.039999999993597
tp889
sg47
((lp890
(F0.050000000002910383
I19
tp891
a(F25.150000000001455
I18
tp892
aF40.0
tp893
sg76
((lp894
(F0.16000000000349246
I14
tp895
aF40.030000000006112
tp896
sg106
((lp897
(F0.11000000000058208
I30
tp898
a(F0.12999999999738066
I28
tp899
a(F0.61000000000058208
I27
tp900
a(F0.88999999999941792
I25
tp901
a(F1.0299999999988358
I23
tp902
a(F1.1399999999994179
I22
tp903
a(F2.6899999999950523
I21
tp904
a(F2.7799999999988358
I20
tp905
aF3.3600000000005821
tp906
sg131
((lp907
(F2.0199999999967986
I10
tp908
aF40.309999999997672
tp909
ssba(imeasure_core
ProblemSetSolution
p910
(dp911
g3
g180
sg163
g885
sg165
(dp912
g184
((lp913
(F0.12000000000261934
I7
tp914
aF40.040000000000873
tp915
sg239
((lp916
F40.080000000001746
tp917
sg284
((lp918
(F2.0299999999988358
I66
tp919
aF40.009999999994761
tp920
sg326
((lp921
(F0.23000000000320142
I20
tp922
aF40.010000000002037
tp923
sg378
((lp924
(F0.54000000000087311
I15
tp925
aF40.05000000000291
tp926
ssba(imeasure_core
ProblemSetSolution
p927
(dp928
g3
g440
sg163
g885
sg165
(dp929
g444
((lp930
(F39.67000000000553
I10
tp931
aF40.340000000003783
tp932
sg496
((lp933
F40.759999999994761
tp934
sg542
((lp935
F40.330000000001746
tp936
sg593
((lp937
F40.440000000002328
tp938
sg652
((lp939
(F1.2200000000011642
I9
tp940
aF40.059999999997672
tp941
ssba(imeasure_core
ProblemSetSolution
p942
(dp943
g3
g4
sg163
S'AnytimeBest-d1000_with_PowerHeuristic2'
p944
sg165
(dp945
g8
((lp946
(F1.7300000000032014
I28
tp947
aF40.040000000000873
tp948
sg47
((lp949
(F0.059999999997671694
I19
tp950
a(F25.139999999999418
I18
tp951
aF40.0
tp952
sg76
((lp953
(F0.1599999999962165
I14
tp954
aF40.019999999996799
tp955
sg106
((lp956
(F0.11000000000058208
I30
tp957
a(F0.13000000000465661
I28
tp958
a(F0.62000000000261934
I27
tp959
a(F0.91000000000349246
I25
tp960
a(F1.0500000000029104
I23
tp961
a(F1.1500000000014552
I22
tp962
a(F2.7099999999991269
I21
tp963
a(F2.7900000000008731
I20
tp964
aF3.3800000000046566
tp965
sg131
((lp966
(F2.0499999999956344
I10
tp967
aF40.059999999997672
tp968
ssba(imeasure_core
ProblemSetSolution
p969
(dp970
g3
g180
sg163
g944
sg165
(dp971
g184
((lp972
(F0.12000000000261934
I7
tp973
aF40.040000000000873
tp974
sg239
((lp975
F40.080000000001746
tp976
sg284
((lp977
(F2.0299999999988358
I66
tp978
aF40.009999999994761
tp979
sg326
((lp980
(F0.22000000000116415
I20
tp981
aF40.010000000002037
tp982
sg378
((lp983
(F0.54000000000087311
I15
tp984
aF40.05000000000291
tp985
ssba(imeasure_core
ProblemSetSolution
p986
(dp987
g3
g440
sg163
g944
sg165
(dp988
g444
((lp989
(F39.44999999999709
I10
tp990
aF40.339999999996508
tp991
sg496
((lp992
F40.580000000001746
tp993
sg542
((lp994
F42.059999999997672
tp995
sg593
((lp996
F40.620000000002619
tp997
sg652
((lp998
(F1.2399999999979627
I9
tp999
aF40.049999999995634
tp1000
ssba(imeasure_core
ProblemSetSolution
p1001
(dp1002
g3
g4
sg163
S'AnytimeBest-d10_with_LinearHeuristic'
p1003
sg165
(dp1004
g8
((lp1005
(F0.3400000000037835
I5
tp1006
aF40.139999999999418
tp1007
sg47
((lp1008
F40.020000000004075
tp1009
sg76
((lp1010
F40.040000000000873
tp1011
sg106
((lp1012
F0.58999999999650754
tp1013
sg131
((lp1014
(F2.3099999999976717
I10
tp1015
aF40.169999999998254
tp1016
ssba(imeasure_core
ProblemSetSolution
p1017
(dp1018
g3
g180
sg163
g1003
sg165
(dp1019
g184
((lp1020
F40.19999999999709
tp1021
sg239
((lp1022
F40.030000000006112
tp1023
sg284
((lp1024
F40.059999999997672
tp1025
sg326
((lp1026
F40.279999999998836
tp1027
sg378
((lp1028
F40.120000000002619
tp1029
ssba(imeasure_core
ProblemSetSolution
p1030
(dp1031
g3
g440
sg163
g1003
sg165
(dp1032
g444
((lp1033
F41.639999999999418
tp1034
sg496
((lp1035
F40.370000000002619
tp1036
sg542
((lp1037
F41.559999999997672
tp1038
sg593
((lp1039
F43.960000000006403
tp1040
sg652
((lp1041
F41.0
tp1042
ssba(imeasure_core
ProblemSetSolution
p1043
(dp1044
g3
g4
sg163
S'AnytimeBest-d80_with_LinearHeuristic'
p1045
sg165
(dp1046
g8
((lp1047
(F0.33000000000174623
I5
tp1048
aF40.180000000000291
tp1049
sg47
((lp1050
(F0.12000000000261934
I22
tp1051
aF40.010000000002037
tp1052
sg76
((lp1053
F40.069999999999709
tp1054
sg106
((lp1055
(F0.019999999996798579
I20
tp1056
aF6.9700000000011642
tp1057
sg131
((lp1058
(F2.3399999999965075
I10
tp1059
aF40.25
tp1060
ssba(imeasure_core
ProblemSetSolution
p1061
(dp1062
g3
g180
sg163
g1045
sg165
(dp1063
g184
((lp1064
F40.059999999997672
tp1065
sg239
((lp1066
F40.05000000000291
tp1067
sg284
((lp1068
(F0.33000000000174623
I23
tp1069
a(F9.1199999999953434
I21
tp1070
a(F12.259999999994761
I20
tp1071
a(F18.169999999998254
I19
tp1072
aF40.049999999995634
tp1073
sg326
((lp1074
F40.030000000006112
tp1075
sg378
((lp1076
F40.109999999993306
tp1077
ssba(imeasure_core
ProblemSetSolution
p1078
(dp1079
g3
g440
sg163
g1045
sg165
(dp1080
g444
((lp1081
F41.860000000000582
tp1082
sg496
((lp1083
F40.569999999999709
tp1084
sg542
((lp1085
F40.340000000003783
tp1086
sg593
((lp1087
F44.180000000000291
tp1088
sg652
((lp1089
F40.559999999997672
tp1090
ssba(imeasure_core
ProblemSetSolution
p1091
(dp1092
g3
g4
sg163
S'AnytimeBest-d150_with_LinearHeuristic'
p1093
sg165
(dp1094
g8
((lp1095
(F0.33999999999650754
I5
tp1096
aF40.180000000000291
tp1097
sg47
((lp1098
(F0.11999999999534339
I22
tp1099
aF40.009999999994761
tp1100
sg76
((lp1101
F40.060000000004948
tp1102
sg106
((lp1103
(F0.019999999996798579
I20
tp1104
aF7.069999999999709
tp1105
sg131
((lp1106
(F2.3499999999985448
I10
tp1107
aF40.430000000000291
tp1108
ssba(imeasure_core
ProblemSetSolution
p1109
(dp1110
g3
g180
sg163
g1093
sg165
(dp1111
g184
((lp1112
F40.279999999998836
tp1113
sg239
((lp1114
F40.049999999995634
tp1115
sg284
((lp1116
(F0.33000000000174623
I23
tp1117
a(F9.0200000000040745
I21
tp1118
a(F12.130000000004657
I20
tp1119
a(F17.950000000004366
I19
tp1120
aF40.060000000004948
tp1121
sg326
((lp1122
F40.029999999998836
tp1123
sg378
((lp1124
F40.069999999999709
tp1125
ssba(imeasure_core
ProblemSetSolution
p1126
(dp1127
g3
g440
sg163
g1093
sg165
(dp1128
g444
((lp1129
F41.729999999995925
tp1130
sg496
((lp1131
F40.490000000005239
tp1132
sg542
((lp1133
F40.900000000001455
tp1134
sg593
((lp1135
F43.959999999999127
tp1136
sg652
((lp1137
(F35.559999999997672
I95
tp1138
aF40.599999999998545
tp1139
ssba(imeasure_core
ProblemSetSolution
p1140
(dp1141
g3
g4
sg163
S'AnytimeBest-d250_with_LinearHeuristic'
p1142
sg165
(dp1143
g8
((lp1144
(F0.33999999999650754
I5
tp1145
aF40.139999999999418
tp1146
sg47
((lp1147
(F0.11999999999534339
I22
tp1148
aF40.009999999994761
tp1149
sg76
((lp1150
F40.060000000004948
tp1151
sg106
((lp1152
(F0.019999999996798579
I20
tp1153
aF6.9799999999959255
tp1154
sg131
((lp1155
(F2.3499999999985448
I10
tp1156
aF40.389999999999418
tp1157
ssba(imeasure_core
ProblemSetSolution
p1158
(dp1159
g3
g180
sg163
g1142
sg165
(dp1160
g184
((lp1161
(F24.559999999997672
I177
tp1162
aF40.059999999997672
tp1163
sg239
((lp1164
F40.069999999999709
tp1165
sg284
((lp1166
(F0.33000000000174623
I23
tp1167
a(F9.1000000000058208
I21
tp1168
a(F12.210000000006403
I20
tp1169
a(F18.040000000000873
I19
tp1170
aF40.05000000000291
tp1171
sg326
((lp1172
F40.080000000001746
tp1173
sg378
((lp1174
F40.309999999997672
tp1175
ssba(imeasure_core
ProblemSetSolution
p1176
(dp1177
g3
g440
sg163
g1142
sg165
(dp1178
g444
((lp1179
F41.919999999998254
tp1180
sg496
((lp1181
F40.269999999996799
tp1182
sg542
((lp1183
F40.520000000004075
tp1184
sg593
((lp1185
F44.260000000002037
tp1186
sg652
((lp1187
(F35.939999999995052
I95
tp1188
aF40.339999999996508
tp1189
ssba(imeasure_core
ProblemSetSolution
p1190
(dp1191
g3
g4
sg163
S'AnytimeBest-d400_with_LinearHeuristic'
p1192
sg165
(dp1193
g8
((lp1194
(F0.3400000000037835
I5
tp1195
aF40.239999999997963
tp1196
sg47
((lp1197
(F0.12000000000261934
I22
tp1198
aF40.010000000002037
tp1199
sg76
((lp1200
F40.05000000000291
tp1201
sg106
((lp1202
(F0.0099999999947613105
I20
tp1203
aF6.9399999999950523
tp1204
sg131
((lp1205
(F2.3400000000037835
I10
tp1206
aF40.240000000005239
tp1207
ssba(imeasure_core
ProblemSetSolution
p1208
(dp1209
g3
g180
sg163
g1192
sg165
(dp1210
g184
((lp1211
(F24.569999999999709
I177
tp1212
aF40.060000000004948
tp1213
sg239
((lp1214
F40.049999999995634
tp1215
sg284
((lp1216
(F0.31999999999970896
I23
tp1217
a(F9.0200000000040745
I21
tp1218
a(F12.120000000002619
I20
tp1219
a(F17.940000000002328
I19
tp1220
aF40.060000000004948
tp1221
sg326
((lp1222
F40.029999999998836
tp1223
sg378
((lp1224
F40.260000000002037
tp1225
ssba(imeasure_core
ProblemSetSolution
p1226
(dp1227
g3
g440
sg163
g1192
sg165
(dp1228
g444
((lp1229
F41.639999999999418
tp1230
sg496
((lp1231
F40.509999999994761
tp1232
sg542
((lp1233
F40.880000000004657
tp1234
sg593
((lp1235
F43.979999999995925
tp1236
sg652
((lp1237
(F35.770000000004075
I95
tp1238
aF40.25
tp1239
ssba(imeasure_core
ProblemSetSolution
p1240
(dp1241
g3
g4
sg163
S'AnytimeBest-d1000_with_LinearHeuristic'
p1242
sg165
(dp1243
g8
((lp1244
(F0.3400000000037835
I5
tp1245
aF40.180000000000291
tp1246
sg47
((lp1247
(F0.11000000000058208
I22
tp1248
aF40.010000000002037
tp1249
sg76
((lp1250
F40.089999999996508
tp1251
sg106
((lp1252
(F0.010000000002037268
I20
tp1253
aF6.9600000000064028
tp1254
sg131
((lp1255
(F2.3399999999965075
I10
tp1256
aF40.319999999999709
tp1257
ssba(imeasure_core
ProblemSetSolution
p1258
(dp1259
g3
g180
sg163
g1242
sg165
(dp1260
g184
((lp1261
(F24.609999999993306
I177
tp1262
aF40.059999999997672
tp1263
sg239
((lp1264
F40.059999999997672
tp1265
sg284
((lp1266
(F0.33000000000174623
I23
tp1267
a(F9.1600000000034925
I21
tp1268
a(F12.330000000001746
I20
tp1269
a(F18.139999999999418
I19
tp1270
aF40.060000000004948
tp1271
sg326
((lp1272
F40.229999999995925
tp1273
sg378
((lp1274
F40.040000000000873
tp1275
ssba(imeasure_core
ProblemSetSolution
p1276
(dp1277
g3
g440
sg163
g1242
sg165
(dp1278
g444
((lp1279
F42.049999999995634
tp1280
sg496
((lp1281
F40.270000000004075
tp1282
sg542
((lp1283
F41.110000000000582
tp1284
sg593
((lp1285
F44.189999999995052
tp1286
sg652
((lp1287
(F35.639999999999418
I95
tp1288
aF40.730000000003201
tp1289
ssba.