(lp0
(imeasure_core
ProblemSetSolution
p1
(dp2
S'roomset'
p3
(imeasure_core
RoomSet
p4
(dp5
S'rooms'
p6
(dp7
(iproblems
RoomID
p8
(dp9
S'dusts'
p10
I8
sS'obstacles'
p11
(I2
I4
tp12
sS'robots'
p13
I4
sS'height'
p14
I9
sS'width'
p15
I7
sS'seed'
p16
I7283207964119141687
sb(imulti_robot_problem
MultiRobotState
p17
(dp18
S'obstacle_locations'
p19
c__builtin__
frozenset
p20
((lp21
(I4
I6
tp22
a(I4
I3
tp23
a(I3
I0
tp24
a(I4
I2
tp25
a(I3
I4
tp26
ag12
a(I3
I3
tp27
atp28
Rp29
sg15
I7
sS'dirt_locations'
p30
g20
((lp31
(I4
I5
tp32
a(I5
I7
tp33
a(I0
I6
tp34
a(I1
I6
tp35
a(I5
I0
tp36
a(I5
I1
tp37
a(I5
I2
tp38
a(I1
I1
tp39
atp40
Rp41
sg13
((I1
I5
tp42
(I5
I5
tp43
(I3
I1
tp44
(I3
I5
tp45
tp46
sg14
I9
sbs(iproblems
RoomID
p47
(dp48
g10
I8
sg11
(I4
I6
tp49
sg13
I2
sg14
I10
sg15
I8
sg16
I890727360438182992
sb(imulti_robot_problem
MultiRobotState
p50
(dp51
g19
g20
((lp52
(I0
I0
tp53
ag49
a(I6
I6
tp54
a(I5
I6
tp55
a(I7
I6
tp56
a(I7
I4
tp57
a(I4
I2
tp58
a(I2
I4
tp59
atp60
Rp61
sg15
I8
sg30
g20
((lp62
(I7
I0
tp63
a(I7
I1
tp64
a(I6
I3
tp65
a(I1
I8
tp66
a(I0
I5
tp67
a(I5
I1
tp68
a(I1
I0
tp69
a(I0
I3
tp70
atp71
Rp72
sg13
((I2
I8
tp73
(I2
I5
tp74
tp75
sg14
I10
sbs(iproblems
RoomID
p76
(dp77
g10
I7
sg11
(I4
I1
tp78
sg13
I3
sg14
I10
sg15
I10
sg16
I1585446675937841368
sb(imulti_robot_problem
MultiRobotState
p79
(dp80
g19
g20
((lp81
(I3
I2
tp82
a(I2
I6
tp83
a(I6
I7
tp84
a(I6
I1
tp85
a(I7
I2
tp86
a(I5
I0
tp87
ag78
a(I2
I4
tp88
a(I5
I8
tp89
atp90
Rp91
sg15
I10
sg30
g20
((lp92
(I7
I3
tp93
a(I9
I4
tp94
a(I2
I9
tp95
a(I1
I7
tp96
a(I2
I2
tp97
a(I5
I2
tp98
a(I9
I7
tp99
atp100
Rp101
sg13
((I8
I9
tp102
(I4
I4
tp103
(I9
I8
tp104
tp105
sg14
I10
sbs(iproblems
RoomID
p106
(dp107
g10
I10
sg11
(I6
I5
tp108
sg13
I5
sg14
I8
sg15
I9
sg16
I3960482443532127989
sb(imulti_robot_problem
MultiRobotState
p109
(dp110
g19
g20
((lp111
(I4
I5
tp112
a(I5
I5
tp113
ag108
a(I6
I6
tp114
atp115
Rp116
sg15
I9
sg30
g20
((lp117
(I2
I7
tp118
a(I2
I6
tp119
a(I5
I0
tp120
a(I5
I7
tp121
a(I1
I4
tp122
a(I1
I5
tp123
a(I3
I6
tp124
a(I8
I0
tp125
a(I8
I5
tp126
a(I5
I3
tp127
atp128
Rp129
sg13
((I4
I3
tp130
(I8
I7
tp131
(I1
I6
tp132
(I7
I3
tp133
(I6
I4
tp134
tp135
sg14
I8
sbs(iproblems
RoomID
p136
(dp137
g10
I5
sg11
(I7
I3
tp138
sg13
I1
sg14
I7
sg15
I8
sg16
I1736392818365009963
sb(imulti_robot_problem
MultiRobotState
p139
(dp140
g19
g20
((lp141
g138
a(I2
I6
tp142
a(I7
I0
tp143
a(I7
I1
tp144
a(I2
I1
tp145
a(I6
I3
tp146
a(I0
I4
tp147
a(I7
I2
tp148
atp149
Rp150
sg15
I8
sg30
g20
((lp151
(I0
I1
tp152
a(I6
I2
tp153
a(I1
I6
tp154
a(I4
I4
tp155
a(I0
I0
tp156
atp157
Rp158
sg13
((I3
I1
tp159
tp160
sg14
I7
sbssS'name'
p161
S'easy_roomset'
p162
sbsg161
S"AnytimeBeam-w20-gf(1.3, 'exp')_with_PowerHeuristic2"
p163
sS'solutions'
p164
(dp165
g8
((lp166
(F1.7900000000008731
I28
tp167
aF40.119999999995343
tp168
sg47
((lp169
(F0.10000000000582077
I19
tp170
aF40.010000000002037
tp171
sg136
((lp172
(F0.069999999999708962
I30
tp173
a(F0.1599999999962165
I28
tp174
a(F0.48999999999796273
I27
tp175
a(F0.9099999999962165
I25
tp176
a(F1.2599999999947613
I23
tp177
a(F1.5599999999976717
I22
tp178
a(F2.7899999999935972
I21
tp179
a(F3.8699999999953434
I20
tp180
aF40.0
tp181
sg106
((lp182
(F9.1399999999994179
I10
tp183
aF41.980000000003201
tp184
sg76
((lp185
(F0.47000000000116415
I14
tp186
aF40.040000000000873
tp187
ssba(imeasure_core
ProblemSetSolution
p188
(dp189
g3
(imeasure_core
RoomSet
p190
(dp191
g6
(dp192
(iproblems
RoomID
p193
(dp194
g10
I8
sg11
(I2
I6
tp195
sg13
I4
sg14
I11
sg15
I9
sg16
I7283207964119141687
sb(imulti_robot_problem
MultiRobotState
p196
(dp197
g19
g20
((lp198
(I4
I7
tp199
a(I1
I3
tp200
a(I4
I3
tp201
a(I4
I5
tp202
a(I5
I4
tp203
a(I1
I4
tp204
a(I8
I9
tp205
a(I6
I2
tp206
a(I0
I10
tp207
a(I3
I7
tp208
a(I0
I3
tp209
a(I8
I5
tp210
a(I4
I0
tp211
a(I5
I3
tp212
a(I5
I5
tp213
a(I5
I2
tp214
a(I6
I1
tp215
a(I6
I10
tp216
ag195
a(I6
I3
tp217
a(I3
I6
tp218
a(I3
I5
tp219
a(I3
I4
tp220
a(I2
I4
tp221
atp222
Rp223
sg15
I9
sg30
g20
((lp224
(I7
I0
tp225
a(I6
I8
tp226
a(I7
I1
tp227
a(I5
I6
tp228
a(I1
I8
tp229
a(I0
I8
tp230
a(I4
I1
tp231
a(I5
I8
tp232
atp233
Rp234
sg13
((I1
I7
tp235
(I6
I6
tp236
(I4
I6
tp237
(I2
I1
tp238
tp239
sg14
I11
sbs(iproblems
RoomID
p240
(dp241
g10
I8
sg11
(I3
I5
tp242
sg13
I3
sg14
I12
sg15
I10
sg16
I890727360438182992
sb(imulti_robot_problem
MultiRobotState
p243
(dp244
g19
g20
((lp245
(I4
I7
tp246
a(I0
I0
tp247
a(I3
I0
tp248
a(I3
I2
tp249
a(I1
I4
tp250
a(I8
I9
tp251
a(I7
I5
tp252
a(I2
I3
tp253
a(I3
I4
tp254
a(I5
I8
tp255
ag242
a(I3
I1
tp256
a(I6
I7
tp257
a(I6
I8
tp258
a(I5
I2
tp259
a(I5
I7
tp260
a(I8
I8
tp261
a(I3
I9
tp262
a(I4
I11
tp263
a(I7
I10
tp264
a(I2
I2
tp265
a(I0
I9
tp266
a(I7
I8
tp267
atp268
Rp269
sg15
I10
sg30
g20
((lp270
(I9
I2
tp271
a(I6
I1
tp272
a(I8
I0
tp273
a(I2
I10
tp274
a(I0
I6
tp275
a(I0
I4
tp276
a(I9
I5
tp277
a(I1
I1
tp278
atp279
Rp280
sg13
((I2
I9
tp281
(I2
I6
tp282
(I8
I4
tp283
tp284
sg14
I12
sbs(iproblems
RoomID
p285
(dp286
g10
I9
sg11
(I1
I3
tp287
sg13
I4
sg14
I9
sg15
I10
sg16
I7713914763314685786
sb(imulti_robot_problem
MultiRobotState
p288
(dp289
g19
g20
((lp290
(I3
I2
tp291
ag287
a(I7
I1
tp292
a(I9
I3
tp293
a(I6
I0
tp294
a(I2
I1
tp295
a(I4
I2
tp296
a(I5
I1
tp297
a(I9
I6
tp298
a(I7
I2
tp299
a(I4
I0
tp300
a(I1
I2
tp301
a(I7
I0
tp302
a(I5
I2
tp303
a(I6
I1
tp304
a(I3
I1
tp305
a(I1
I5
tp306
a(I1
I8
tp307
a(I2
I2
tp308
a(I3
I5
tp309
a(I4
I1
tp310
a(I1
I1
tp311
atp312
Rp313
sg15
I10
sg30
g20
((lp314
(I7
I3
tp315
a(I5
I4
tp316
a(I7
I6
tp317
a(I7
I5
tp318
a(I0
I5
tp319
a(I8
I7
tp320
a(I8
I6
tp321
a(I8
I5
tp322
a(I9
I7
tp323
atp324
Rp325
sg13
((I3
I0
tp326
(I7
I7
tp327
(I2
I0
tp328
(I4
I6
tp329
tp330
sg14
I9
sbs(iproblems
RoomID
p331
(dp332
g10
I5
sg11
(I7
I6
tp333
sg13
I3
sg14
I9
sg15
I10
sg16
I1736392818365009963
sb(imulti_robot_problem
MultiRobotState
p334
(dp335
g19
g20
((lp336
(I7
I3
tp337
a(I9
I1
tp338
a(I4
I8
tp339
a(I9
I3
tp340
a(I7
I7
tp341
a(I6
I2
tp342
a(I0
I5
tp343
a(I0
I4
tp344
a(I8
I5
tp345
a(I7
I2
tp346
a(I1
I2
tp347
a(I3
I8
tp348
a(I9
I0
tp349
a(I9
I2
tp350
ag333
a(I7
I4
tp351
a(I7
I5
tp352
a(I6
I5
tp353
a(I4
I3
tp354
a(I2
I2
tp355
a(I0
I1
tp356
a(I5
I2
tp357
a(I8
I4
tp358
atp359
Rp360
sg15
I10
sg30
g20
((lp361
(I1
I8
tp362
a(I3
I1
tp363
a(I4
I1
tp364
a(I0
I2
tp365
a(I5
I5
tp366
atp367
Rp368
sg13
((I4
I2
tp369
(I1
I0
tp370
(I8
I2
tp371
tp372
sg14
I9
sbs(iproblems
RoomID
p373
(dp374
g10
I7
sg11
(I6
I3
tp375
sg13
I3
sg14
I12
sg15
I12
sg16
I1585446675937841368
sb(imulti_robot_problem
MultiRobotState
p376
(dp377
g19
g20
((lp378
(I5
I9
tp379
a(I4
I3
tp380
a(I5
I7
tp381
a(I8
I2
tp382
a(I4
I10
tp383
a(I7
I3
tp384
a(I2
I8
tp385
a(I9
I3
tp386
a(I3
I11
tp387
a(I7
I1
tp388
a(I7
I7
tp389
a(I6
I2
tp390
a(I5
I1
tp391
a(I1
I11
tp392
a(I8
I5
tp393
a(I7
I2
tp394
a(I2
I7
tp395
a(I6
I7
tp396
a(I6
I8
tp397
a(I2
I9
tp398
a(I5
I2
tp399
a(I7
I6
tp400
a(I6
I6
tp401
a(I2
I11
tp402
ag375
a(I4
I11
tp403
a(I7
I10
tp404
a(I3
I4
tp405
a(I8
I6
tp406
a(I7
I8
tp407
a(I8
I4
tp408
atp409
Rp410
sg15
I12
sg30
g20
((lp411
(I3
I2
tp412
a(I1
I9
tp413
a(I9
I4
tp414
a(I11
I5
tp415
a(I11
I8
tp416
a(I2
I5
tp417
a(I6
I10
tp418
atp419
Rp420
sg13
((I10
I10
tp421
(I5
I5
tp422
(I11
I10
tp423
tp424
sg14
I12
sbssg161
S'mild_roomset'
p425
sbsg161
g163
sg164
(dp426
g193
((lp427
(F0.30999999999767169
I7
tp428
aF40.19999999999709
tp429
sg240
((lp430
F40.089999999996508
tp431
sg285
((lp432
(F2.3700000000026193
I15
tp433
aF40.190000000002328
tp434
sg331
((lp435
(F6.5400000000008731
I66
tp436
aF40.099999999998545
tp437
sg373
((lp438
(F0.5900000000037835
I20
tp439
aF40.010000000002037
tp440
ssba(imeasure_core
ProblemSetSolution
p441
(dp442
g3
(imeasure_core
RoomSet
p443
(dp444
g6
(dp445
(iproblems
RoomID
p446
(dp447
g10
I13
sg11
(I8
I4
tp448
sg13
I7
sg14
I12
sg15
I10
sg16
I7283207964119141687
sb(imulti_robot_problem
MultiRobotState
p449
(dp450
g19
g20
((lp451
(I6
I3
tp452
a(I5
I2
tp453
a(I6
I10
tp454
a(I6
I0
tp455
a(I7
I4
tp456
a(I0
I11
tp457
a(I6
I2
tp458
a(I3
I6
tp459
a(I2
I2
tp460
a(I0
I4
tp461
a(I3
I4
tp462
a(I5
I8
tp463
ag448
atp464
Rp465
sg15
I10
sg30
g20
((lp466
(I7
I3
tp467
a(I6
I7
tp468
a(I6
I8
tp469
a(I7
I1
tp470
a(I8
I1
tp471
a(I4
I4
tp472
a(I6
I6
tp473
a(I5
I6
tp474
a(I1
I9
tp475
a(I5
I0
tp476
a(I9
I10
tp477
a(I9
I6
tp478
a(I7
I9
tp479
atp480
Rp481
sg13
((I1
I7
tp482
(I7
I6
tp483
(I4
I6
tp484
(I2
I1
tp485
(I6
I4
tp486
(I0
I9
tp487
(I8
I0
tp488
tp489
sg14
I12
sbs(iproblems
RoomID
p490
(dp491
g10
I13
sg11
(I8
I3
tp492
sg13
I5
sg14
I13
sg15
I11
sg16
I890727360438182992
sb(imulti_robot_problem
MultiRobotState
p493
(dp494
g19
g20
((lp495
(I4
I10
tp496
a(I6
I9
tp497
a(I8
I2
tp498
a(I5
I9
tp499
a(I9
I8
tp500
ag492
a(I4
I12
tp501
a(I0
I10
tp502
a(I8
I7
tp503
a(I9
I1
tp504
a(I9
I0
tp505
a(I6
I8
tp506
a(I6
I10
tp507
a(I8
I8
tp508
a(I8
I6
tp509
a(I7
I8
tp510
a(I0
I2
tp511
atp512
Rp513
sg15
I11
sg30
g20
((lp514
(I10
I5
tp515
a(I0
I0
tp516
a(I4
I6
tp517
a(I0
I6
tp518
a(I9
I2
tp519
a(I8
I11
tp520
a(I2
I1
tp521
a(I9
I10
tp522
a(I1
I5
tp523
a(I0
I4
tp524
a(I0
I9
tp525
a(I5
I2
tp526
a(I4
I11
tp527
atp528
Rp529
sg13
((I3
I10
tp530
(I2
I7
tp531
(I9
I4
tp532
(I2
I11
tp533
(I7
I1
tp534
tp535
sg14
I13
sbs(iproblems
RoomID
p536
(dp537
g10
I10
sg11
(I10
I4
tp538
sg13
I5
sg14
I10
sg15
I11
sg16
I1736392818365009963
sb(imulti_robot_problem
MultiRobotState
p539
(dp540
g19
g20
((lp541
(I0
I1
tp542
a(I1
I2
tp543
a(I3
I2
tp544
ag538
a(I4
I5
tp545
a(I7
I4
tp546
a(I6
I2
tp547
a(I2
I3
tp548
a(I10
I1
tp549
a(I3
I8
tp550
a(I10
I0
tp551
a(I10
I3
tp552
a(I10
I2
tp553
atp554
Rp555
sg15
I11
sg30
g20
((lp556
(I5
I9
tp557
a(I5
I5
tp558
a(I3
I1
tp559
a(I8
I8
tp560
a(I0
I5
tp561
a(I3
I9
tp562
a(I8
I4
tp563
a(I4
I1
tp564
a(I6
I5
tp565
a(I5
I3
tp566
atp567
Rp568
sg13
((I4
I2
tp569
(I1
I0
tp570
(I9
I3
tp571
(I1
I9
tp572
(I0
I2
tp573
tp574
sg14
I10
sbs(iproblems
RoomID
p575
(dp576
g10
I12
sg11
(I6
I9
tp577
sg13
I6
sg14
I13
sg15
I13
sg16
I1585446675937841368
sb(imulti_robot_problem
MultiRobotState
p578
(dp579
g19
g20
((lp580
(I7
I3
tp581
ag577
a(I8
I11
tp582
a(I7
I7
tp583
a(I4
I12
tp584
a(I10
I3
tp585
a(I5
I8
tp586
a(I7
I4
tp587
a(I1
I12
tp588
a(I2
I9
tp589
a(I8
I1
tp590
a(I7
I6
tp591
a(I6
I3
tp592
a(I9
I2
tp593
a(I7
I5
tp594
a(I7
I2
tp595
a(I7
I10
tp596
a(I8
I4
tp597
a(I3
I4
tp598
a(I2
I4
tp599
a(I9
I12
tp600
a(I9
I7
tp601
atp602
Rp603
sg15
I13
sg30
g20
((lp604
(I3
I3
tp605
a(I2
I8
tp606
a(I12
I9
tp607
a(I6
I10
tp608
a(I8
I10
tp609
a(I2
I10
tp610
a(I12
I5
tp611
a(I4
I3
tp612
a(I5
I1
tp613
a(I7
I9
tp614
a(I5
I2
tp615
a(I3
I5
tp616
atp617
Rp618
sg13
((I10
I11
tp619
(I5
I5
tp620
(I12
I11
tp621
(I1
I10
tp622
(I3
I12
tp623
(I10
I4
tp624
tp625
sg14
I13
sbs(iproblems
RoomID
p626
(dp627
g10
I15
sg11
(I6
I9
tp628
sg13
I7
sg14
I11
sg15
I12
sg16
I3960482443532127989
sb(imulti_robot_problem
MultiRobotState
p629
(dp630
g19
g20
((lp631
(I5
I9
tp632
ag628
a(I9
I1
tp633
a(I4
I10
tp634
a(I5
I6
tp635
a(I7
I7
tp636
a(I2
I10
tp637
a(I3
I9
tp638
a(I9
I4
tp639
a(I5
I10
tp640
a(I6
I4
tp641
a(I6
I5
tp642
a(I1
I2
tp643
a(I7
I4
tp644
a(I8
I3
tp645
a(I6
I7
tp646
a(I2
I9
tp647
a(I10
I7
tp648
a(I5
I7
tp649
a(I6
I3
tp650
a(I8
I1
tp651
a(I0
I9
tp652
a(I8
I6
tp653
a(I7
I8
tp654
a(I11
I6
tp655
a(I9
I7
tp656
atp657
Rp658
sg15
I12
sg30
g20
((lp659
(I7
I3
tp660
a(I2
I6
tp661
a(I5
I5
tp662
a(I3
I0
tp663
a(I3
I8
tp664
a(I0
I6
tp665
a(I11
I1
tp666
a(I1
I6
tp667
a(I4
I3
tp668
a(I1
I7
tp669
a(I1
I3
tp670
a(I1
I0
tp671
a(I10
I1
tp672
a(I1
I1
tp673
a(I10
I2
tp674
atp675
Rp676
sg13
((I11
I10
tp677
(I1
I8
tp678
(I10
I5
tp679
(I11
I0
tp680
(I4
I8
tp681
(I7
I9
tp682
(I7
I1
tp683
tp684
sg14
I11
sbssg161
S'heavy_roomset'
p685
sbsg161
g163
sg164
(dp686
g446
((lp687
F40.479999999995925
tp688
sg490
((lp689
F41.25
tp690
sg536
((lp691
(F4.9700000000011642
I9
tp692
aF40.100000000005821
tp693
sg575
((lp694
F42.119999999995343
tp695
sg626
((lp696
F41.25
tp697
ssba(imeasure_core
ProblemSetSolution
p698
(dp699
g3
g4
sg161
S"AnytimeBeam-w20-gf(1.5, 'exp')_with_PowerHeuristic2"
p700
sg164
(dp701
g8
((lp702
(F1.7700000000040745
I28
tp703
aF40.410000000003492
tp704
sg47
((lp705
(F0.099999999998544808
I19
tp706
aF40.0
tp707
sg136
((lp708
(F0.08000000000174623
I30
tp709
a(F0.16000000000349246
I28
tp710
a(F0.49000000000523869
I27
tp711
a(F0.90000000000145519
I25
tp712
a(F1.2600000000020373
I23
tp713
a(F1.5600000000049477
I22
tp714
a(F2.7799999999988358
I21
tp715
a(F3.8700000000026193
I20
tp716
aF40.0
tp717
sg106
((lp718
(F9.1100000000005821
I10
tp719
aF41.970000000001164
tp720
sg76
((lp721
(F0.47999999999592546
I14
tp722
aF40.009999999994761
tp723
ssba(imeasure_core
ProblemSetSolution
p724
(dp725
g3
g190
sg161
g700
sg164
(dp726
g193
((lp727
(F0.31999999999970896
I7
tp728
aF40.099999999998545
tp729
sg240
((lp730
F40.17000000000553
tp731
sg285
((lp732
(F2.3499999999985448
I15
tp733
aF40.07999999999447
tp734
sg331
((lp735
(F6.5400000000008731
I66
tp736
aF40.020000000004075
tp737
sg373
((lp738
(F0.58999999999650754
I20
tp739
aF40.029999999998836
tp740
ssba(imeasure_core
ProblemSetSolution
p741
(dp742
g3
g443
sg161
g700
sg164
(dp743
g446
((lp744
F40.5
tp745
sg490
((lp746
F41.30000000000291
tp747
sg536
((lp748
(F4.9199999999982538
I9
tp749
aF40.040000000000873
tp750
sg575
((lp751
F42.219999999993888
tp752
sg626
((lp753
F41.190000000002328
tp754
ssba(imeasure_core
ProblemSetSolution
p755
(dp756
g3
g4
sg161
S"AnytimeBeam-w20-gf(1.7, 'exp')_with_PowerHeuristic2"
p757
sg164
(dp758
g8
((lp759
(F1.7699999999967986
I28
tp760
aF40.029999999998836
tp761
sg47
((lp762
(F0.099999999998544808
I19
tp763
a(F29.659999999996217
I18
tp764
aF40.0
tp765
sg136
((lp766
(F0.079999999994470272
I30
tp767
a(F0.16999999999825377
I28
tp768
a(F0.48999999999796273
I27
tp769
a(F0.9099999999962165
I25
tp770
a(F1.2699999999967986
I23
tp771
a(F1.569999999999709
I22
tp772
a(F2.7999999999956344
I21
tp773
a(F3.9000000000014552
I20
tp774
aF40.0
tp775
sg106
((lp776
(F9.2000000000043656
I10
tp777
aF40.130000000004657
tp778
sg76
((lp779
(F0.47000000000116415
I14
tp780
aF40.019999999996799
tp781
ssba(imeasure_core
ProblemSetSolution
p782
(dp783
g3
g190
sg161
g757
sg164
(dp784
g193
((lp785
(F0.30999999999767169
I7
tp786
aF40.180000000000291
tp787
sg240
((lp788
F40.07999999999447
tp789
sg285
((lp790
(F2.3600000000005821
I15
tp791
aF40.150000000001455
tp792
sg331
((lp793
(F6.5800000000017462
I66
tp794
aF40.120000000002619
tp795
sg373
((lp796
(F0.59999999999854481
I20
tp797
aF40.049999999995634
tp798
ssba(imeasure_core
ProblemSetSolution
p799
(dp800
g3
g443
sg161
g757
sg164
(dp801
g446
((lp802
F40.510000000002037
tp803
sg490
((lp804
F41.30000000000291
tp805
sg536
((lp806
(F4.9000000000014552
I9
tp807
aF40.029999999998836
tp808
sg575
((lp809
F42.209999999999127
tp810
sg626
((lp811
F41.120000000002619
tp812
ssba(imeasure_core
ProblemSetSolution
p813
(dp814
g3
g4
sg161
S"AnytimeBeam-w20-gf(1.8999999999999999, 'exp')_with_PowerHeuristic2"
p815
sg164
(dp816
g8
((lp817
(F1.7799999999988358
I28
tp818
aF40.25
tp819
sg47
((lp820
(F0.099999999998544808
I19
tp821
aF40.0
tp822
sg136
((lp823
(F0.08000000000174623
I30
tp824
a(F0.1599999999962165
I28
tp825
a(F0.48999999999796273
I27
tp826
a(F0.90000000000145519
I25
tp827
a(F1.2600000000020373
I23
tp828
a(F1.5599999999976717
I22
tp829
a(F2.7799999999988358
I21
tp830
a(F3.8799999999973807
I20
tp831
aF40.0
tp832
sg106
((lp833
(F9.1399999999994179
I10
tp834
aF42.099999999998545
tp835
sg76
((lp836
(F0.47000000000116415
I14
tp837
aF40.110000000000582
tp838
ssba(imeasure_core
ProblemSetSolution
p839
(dp840
g3
g190
sg161
g815
sg164
(dp841
g193
((lp842
(F0.31999999999970896
I7
tp843
aF40.190000000002328
tp844
sg240
((lp845
F40.149999999994179
tp846
sg285
((lp847
(F2.3600000000005821
I15
tp848
aF40.180000000000291
tp849
sg331
((lp850
(F6.5400000000008731
I66
tp851
aF40.090000000003783
tp852
sg373
((lp853
(F0.59999999999854481
I20
tp854
aF40.069999999999709
tp855
ssba(imeasure_core
ProblemSetSolution
p856
(dp857
g3
g443
sg161
g815
sg164
(dp858
g446
((lp859
F51.689999999995052
tp860
sg490
((lp861
F41.290000000000873
tp862
sg536
((lp863
(F4.9500000000043656
I9
tp864
aF40.150000000001455
tp865
sg575
((lp866
F42.270000000004075
tp867
sg626
((lp868
F41.229999999995925
tp869
ssba(imeasure_core
ProblemSetSolution
p870
(dp871
g3
g4
sg161
S"AnytimeBeam-w20-gf(1.3, 'exp')_with_LinearHeuristic"
p872
sg164
(dp873
g8
((lp874
(F0.38000000000465661
I5
tp875
aF40.029999999998836
tp876
sg47
((lp877
(F0.26000000000203727
I22
tp878
aF40.0
tp879
sg136
((lp880
(F0.010000000002037268
I20
tp881
aF40.0
tp882
sg106
((lp883
(F7.569999999999709
I10
tp884
aF40.220000000001164
tp885
sg76
((lp886
F40.120000000002619
tp887
ssba(imeasure_core
ProblemSetSolution
p888
(dp889
g3
g190
sg161
g872
sg164
(dp890
g193
((lp891
F41.010000000002037
tp892
sg240
((lp893
F40.179999999993015
tp894
sg285
((lp895
F40.520000000004075
tp896
sg331
((lp897
(F1.0400000000008731
I23
tp898
a(F22.659999999996217
I21
tp899
a(F32.559999999997672
I20
tp900
aF40.040000000000873
tp901
sg373
((lp902
F40.389999999999418
tp903
ssba(imeasure_core
ProblemSetSolution
p904
(dp905
g3
g443
sg161
g872
sg164
(dp906
g446
((lp907
F87.69999999999709
tp908
sg490
((lp909
F40.919999999998254
tp910
sg536
((lp911
F41.150000000001455
tp912
sg575
((lp913
F45.269999999996799
tp914
sg626
((lp915
F47.850000000005821
tp916
ssba(imeasure_core
ProblemSetSolution
p917
(dp918
g3
g4
sg161
S"AnytimeBeam-w20-gf(1.5, 'exp')_with_LinearHeuristic"
p919
sg164
(dp920
g8
((lp921
(F0.38000000000465661
I5
tp922
aF40.220000000001164
tp923
sg47
((lp924
(F0.26000000000203727
I22
tp925
aF40.020000000004075
tp926
sg136
((lp927
(F0.019999999996798579
I20
tp928
aF40.0
tp929
sg106
((lp930
(F8.2200000000011642
I10
tp931
aF41.190000000002328
tp932
sg76
((lp933
F40.159999999996217
tp934
ssba(imeasure_core
ProblemSetSolution
p935
(dp936
g3
g190
sg161
g919
sg164
(dp937
g193
((lp938
F40.930000000000291
tp939
sg240
((lp940
F40.159999999996217
tp941
sg285
((lp942
F40.700000000004366
tp943
sg331
((lp944
(F1.0400000000008731
I23
tp945
a(F22.809999999997672
I21
tp946
a(F32.709999999999127
I20
tp947
aF40.059999999997672
tp948
sg373
((lp949
F40.099999999998545
tp950
ssba(imeasure_core
ProblemSetSolution
p951
(dp952
g3
g443
sg161
g919
sg164
(dp953
g446
((lp954
F88.30000000000291
tp955
sg490
((lp956
F41.029999999998836
tp957
sg536
((lp958
F41.340000000003783
tp959
sg575
((lp960
F45.149999999994179
tp961
sg626
((lp962
F47.870000000002619
tp963
ssba(imeasure_core
ProblemSetSolution
p964
(dp965
g3
g4
sg161
S"AnytimeBeam-w20-gf(1.7, 'exp')_with_LinearHeuristic"
p966
sg164
(dp967
g8
((lp968
(F0.37999999999738066
I5
tp969
aF40.099999999998545
tp970
sg47
((lp971
(F0.27000000000407454
I22
tp972
aF40.0
tp973
sg136
((lp974
(F0.019999999996798579
I20
tp975
aF40.0
tp976
sg106
((lp977
(F9.6899999999950523
I10
tp978
aF42.029999999998836
tp979
sg76
((lp980
F40.05000000000291
tp981
ssba(imeasure_core
ProblemSetSolution
p982
(dp983
g3
g190
sg161
g966
sg164
(dp984
g193
((lp985
F41.0
tp986
sg240
((lp987
F40.110000000000582
tp988
sg285
((lp989
F40.059999999997672
tp990
sg331
((lp991
(F1.0599999999976717
I23
tp992
a(F22.940000000002328
I21
tp993
a(F32.849999999998545
I20
tp994
aF40.0
tp995
sg373
((lp996
F40.450000000004366
tp997
ssba(imeasure_core
ProblemSetSolution
p998
(dp999
g3
g443
sg161
g966
sg164
(dp1000
g446
((lp1001
F88.049999999995634
tp1002
sg490
((lp1003
F41.010000000002037
tp1004
sg536
((lp1005
F41.330000000001746
tp1006
sg575
((lp1007
F45.089999999996508
tp1008
sg626
((lp1009
F47.870000000002619
tp1010
ssba(imeasure_core
ProblemSetSolution
p1011
(dp1012
g3
g4
sg161
S"AnytimeBeam-w20-gf(1.8999999999999999, 'exp')_with_LinearHeuristic"
p1013
sg164
(dp1014
g8
((lp1015
(F0.38999999999941792
I5
tp1016
aF40.029999999998836
tp1017
sg47
((lp1018
(F0.26000000000203727
I22
tp1019
aF40.019999999996799
tp1020
sg136
((lp1021
(F0.010000000002037268
I20
tp1022
aF40.0
tp1023
sg106
((lp1024
(F10.129999999997381
I10
tp1025
aF40.489999999997963
tp1026
sg76
((lp1027
F40.240000000005239
tp1028
ssba(imeasure_core
ProblemSetSolution
p1029
(dp1030
g3
g190
sg161
g1013
sg164
(dp1031
g193
((lp1032
F40.919999999998254
tp1033
sg240
((lp1034
F40.190000000002328
tp1035
sg285
((lp1036
F40.549999999995634
tp1037
sg331
((lp1038
(F1.0400000000008731
I23
tp1039
a(F22.960000000006403
I21
tp1040
a(F32.870000000002619
I20
tp1041
aF40.0
tp1042
sg373
((lp1043
F40.080000000001746
tp1044
ssba(imeasure_core
ProblemSetSolution
p1045
(dp1046
g3
g443
sg161
g1013
sg164
(dp1047
g446
((lp1048
F87.959999999999127
tp1049
sg490
((lp1050
F40.819999999999709
tp1051
sg536
((lp1052
F41.260000000002037
tp1053
sg575
((lp1054
F45.190000000002328
tp1055
sg626
((lp1056
F47.459999999999127
tp1057
ssba.