(lp0
(imeasure_core
ProblemSetSolution
p1
(dp2
S'roomset'
p3
(imeasure_core
RoomSet
p4
(dp5
S'rooms'
p6
(dp7
(iproblems
RoomID
p8
(dp9
S'dusts'
p10
I8
sS'obstacles'
p11
(I0
I4
tp12
sS'robots'
p13
I4
sS'height'
p14
I7
sS'width'
p15
I9
sS'seed'
p16
I1689441204489037471
sb(imulti_robot_problem
MultiRobotState
p17
(dp18
S'obstacle_locations'
p19
c__builtin__
frozenset
p20
((lp21
(I0
I1
tp22
a(I1
I2
tp23
a(I3
I2
tp24
a(I8
I1
tp25
a(I4
I3
tp26
ag12
a(I0
I3
tp27
a(I4
I0
tp28
atp29
Rp30
sg15
I9
sS'dirt_locations'
p31
g20
((lp32
(I0
I0
tp33
a(I7
I0
tp34
a(I7
I6
tp35
a(I1
I4
tp36
a(I6
I2
tp37
a(I2
I3
tp38
a(I5
I1
tp39
a(I3
I5
tp40
atp41
Rp42
sg13
((I6
I0
tp43
(I5
I4
tp44
(I6
I6
tp45
(I5
I0
tp46
tp47
sg14
I7
sbs(iproblems
RoomID
p48
(dp49
g10
I10
sg11
(I4
I5
tp50
sg13
I3
sg14
I8
sg15
I10
sg16
I6660334802794327005
sb(imulti_robot_problem
MultiRobotState
p51
(dp52
g19
g20
((lp53
(I9
I0
tp54
a(I2
I6
tp55
a(I1
I6
tp56
a(I3
I6
tp57
ag50
a(I8
I4
tp58
atp59
Rp60
sg15
I10
sg31
g20
((lp61
(I9
I1
tp62
a(I5
I6
tp63
a(I9
I6
tp64
a(I1
I5
tp65
a(I7
I5
tp66
a(I9
I4
tp67
a(I1
I7
tp68
a(I4
I1
tp69
a(I7
I2
tp70
a(I8
I2
tp71
atp72
Rp73
sg13
((I7
I3
tp74
(I4
I7
tp75
(I4
I2
tp76
tp77
sg14
I8
sbs(iproblems
RoomID
p78
(dp79
g10
I6
sg11
(I8
I4
tp80
sg13
I4
sg14
I10
sg15
I9
sg16
I3119042104763040036
sb(imulti_robot_problem
MultiRobotState
p81
(dp82
g19
g20
((lp83
(I1
I2
tp84
a(I6
I7
tp85
a(I4
I8
tp86
a(I7
I6
tp87
a(I8
I5
tp88
ag80
atp89
Rp90
sg15
I9
sg31
g20
((lp91
(I6
I8
tp92
a(I8
I7
tp93
a(I6
I6
tp94
a(I3
I0
tp95
a(I7
I2
tp96
a(I6
I5
tp97
atp98
Rp99
sg13
((I5
I9
tp100
(I6
I1
tp101
(I3
I4
tp102
(I2
I7
tp103
tp104
sg14
I10
sbs(iproblems
RoomID
p105
(dp106
g10
I7
sg11
(I2
I5
tp107
sg13
I5
sg14
I9
sg15
I9
sg16
I4640892725076559864
sb(imulti_robot_problem
MultiRobotState
p108
(dp109
g19
g20
((lp110
(I2
I6
tp111
a(I6
I7
tp112
a(I0
I6
tp113
a(I3
I1
tp114
a(I1
I5
tp115
a(I1
I6
tp116
a(I0
I4
tp117
ag107
a(I3
I4
tp118
atp119
Rp120
sg15
I9
sg31
g20
((lp121
(I3
I8
tp122
a(I7
I3
tp123
a(I7
I1
tp124
a(I8
I1
tp125
a(I8
I6
tp126
a(I4
I2
tp127
a(I5
I3
tp128
atp129
Rp130
sg13
((I6
I5
tp131
(I8
I4
tp132
(I7
I6
tp133
(I6
I0
tp134
(I6
I3
tp135
tp136
sg14
I9
sbssS'name'
p137
S'easy_roomset'
p138
sbsg137
S"AnytimeBeam-w4-gf(2, 'lin')_with_PowerHeuristic2"
p139
sS'solutions'
p140
(dp141
g8
((lp142
(F0.18137001991271973
I8
tp143
aF40.009999999998399
tp144
sg48
((lp145
F39.990000000001601
tp146
sg78
((lp147
F39.989999999997963
tp148
sg105
((lp149
(F2.8031289577484131
I6
tp150
aF40.020000000000437
tp151
ssba(imeasure_core
ProblemSetSolution
p152
(dp153
g3
(imeasure_core
RoomSet
p154
(dp155
g6
(dp156
(iproblems
RoomID
p157
(dp158
g10
I6
sg11
(I5
I5
tp159
sg13
I4
sg14
I12
sg15
I11
sg16
I3119042104763040036
sb(imulti_robot_problem
MultiRobotState
p160
(dp161
g19
g20
((lp162
(I4
I6
tp163
a(I10
I4
tp164
a(I3
I0
tp165
a(I9
I8
tp166
a(I10
I6
tp167
a(I2
I1
tp168
a(I8
I9
tp169
a(I2
I3
tp170
a(I0
I10
tp171
a(I9
I5
tp172
a(I10
I3
tp173
a(I7
I9
tp174
ag159
a(I10
I7
tp175
a(I7
I8
tp176
a(I4
I4
tp177
a(I9
I2
tp178
a(I2
I4
tp179
a(I4
I5
tp180
a(I2
I2
tp181
a(I3
I3
tp182
a(I3
I4
tp183
a(I1
I1
tp184
atp185
Rp186
sg15
I11
sg31
g20
((lp187
(I8
I3
tp188
a(I8
I8
tp189
a(I5
I10
tp190
a(I9
I4
tp191
a(I8
I6
tp192
a(I10
I9
tp193
atp194
Rp195
sg13
((I6
I11
tp196
(I7
I2
tp197
(I2
I8
tp198
(I8
I10
tp199
tp200
sg14
I12
sbs(iproblems
RoomID
p201
(dp202
g10
I6
sg11
(I4
I8
tp203
sg13
I4
sg14
I12
sg15
I9
sg16
I3914746131789064238
sb(imulti_robot_problem
MultiRobotState
p204
(dp205
g19
g20
((lp206
(I4
I6
tp207
a(I6
I6
tp208
a(I4
I5
tp209
a(I5
I7
tp210
a(I0
I5
tp211
a(I0
I10
tp212
a(I8
I7
tp213
a(I7
I0
tp214
a(I0
I3
tp215
a(I8
I5
tp216
a(I4
I0
tp217
a(I2
I3
tp218
a(I6
I7
tp219
a(I3
I3
tp220
a(I8
I1
tp221
a(I7
I6
tp222
a(I3
I1
tp223
ag203
a(I5
I0
tp224
a(I2
I2
tp225
a(I0
I9
tp226
a(I8
I6
tp227
a(I5
I3
tp228
a(I6
I1
tp229
atp230
Rp231
sg15
I9
sg31
g20
((lp232
(I1
I8
tp233
a(I1
I9
tp234
a(I4
I3
tp235
a(I4
I4
tp236
a(I2
I11
tp237
a(I2
I10
tp238
atp239
Rp240
sg13
((I1
I10
tp241
(I6
I2
tp242
(I7
I3
tp243
(I1
I11
tp244
tp245
sg14
I12
sbs(iproblems
RoomID
p246
(dp247
g10
I5
sg11
(I5
I7
tp248
sg13
I4
sg14
I9
sg15
I12
sg16
I659184109953178577
sb(imulti_robot_problem
MultiRobotState
p249
(dp250
g19
g20
((lp251
(I7
I3
tp252
a(I4
I7
tp253
a(I8
I2
tp254
a(I6
I6
tp255
a(I4
I5
tp256
a(I7
I7
tp257
a(I11
I0
tp258
a(I7
I5
tp259
a(I9
I4
tp260
a(I2
I5
tp261
a(I0
I8
tp262
a(I10
I3
tp263
a(I7
I2
tp264
a(I4
I6
tp265
a(I6
I4
tp266
a(I4
I3
tp267
a(I3
I3
tp268
a(I6
I1
tp269
ag248
a(I6
I5
tp270
a(I3
I6
tp271
a(I8
I6
tp272
a(I3
I4
tp273
atp274
Rp275
sg15
I12
sg31
g20
((lp276
(I10
I8
tp277
a(I4
I1
tp278
a(I0
I2
tp279
a(I1
I6
tp280
a(I10
I4
tp281
atp282
Rp283
sg13
((I10
I0
tp284
(I7
I0
tp285
(I2
I6
tp286
(I8
I3
tp287
tp288
sg14
I9
sbs(iproblems
RoomID
p289
(dp290
g10
I9
sg11
(I9
I9
tp291
sg13
I3
sg14
I10
sg15
I10
sg16
I3273124617966689144
sb(imulti_robot_problem
MultiRobotState
p292
(dp293
g19
g20
((lp294
(I7
I3
tp295
a(I5
I4
tp296
a(I1
I3
tp297
a(I6
I4
tp298
a(I4
I5
tp299
a(I9
I8
tp300
a(I3
I2
tp301
a(I7
I5
tp302
a(I1
I6
tp303
a(I2
I5
tp304
a(I0
I8
tp305
a(I9
I6
tp306
a(I6
I5
tp307
a(I5
I3
tp308
a(I3
I3
tp309
a(I5
I5
tp310
a(I7
I6
tp311
ag291
a(I6
I3
tp312
a(I4
I3
tp313
a(I2
I3
tp314
a(I8
I6
tp315
a(I2
I4
tp316
a(I9
I7
tp317
atp318
Rp319
sg15
I10
sg31
g20
((lp320
(I7
I0
tp321
a(I3
I0
tp322
a(I6
I1
tp323
a(I3
I1
tp324
a(I5
I0
tp325
a(I2
I2
tp326
a(I3
I4
tp327
a(I1
I1
tp328
a(I8
I4
tp329
atp330
Rp331
sg13
((I0
I7
tp332
(I2
I1
tp333
(I6
I6
tp334
tp335
sg14
I10
sbssg137
S'mild_roomset'
p336
sbsg137
g139
sg140
(dp337
g157
((lp338
F40.0
tp339
sg201
((lp340
(F0.6844019889831543
I5
tp341
aF40.170000000001892
tp342
sg246
((lp343
F40.0
tp344
sg289
((lp345
F40.0
tp346
ssba(imeasure_core
ProblemSetSolution
p347
(dp348
g3
(imeasure_core
RoomSet
p349
(dp350
g6
(dp351
(iproblems
RoomID
p352
(dp353
g10
I13
sg11
(I3
I4
tp354
sg13
I6
sg14
I10
sg15
I12
sg16
I1689441204489037471
sb(imulti_robot_problem
MultiRobotState
p355
(dp356
g19
g20
((lp357
(I7
I3
tp358
a(I1
I3
tp359
a(I8
I7
tp360
a(I10
I6
tp361
a(I7
I7
tp362
a(I6
I2
tp363
a(I1
I6
tp364
a(I9
I4
tp365
a(I4
I2
tp366
a(I5
I1
tp367
a(I10
I3
tp368
a(I2
I7
tp369
a(I9
I3
tp370
a(I9
I5
tp371
a(I0
I5
tp372
a(I11
I5
tp373
a(I8
I5
tp374
a(I5
I2
tp375
a(I0
I2
tp376
a(I3
I8
tp377
a(I4
I3
tp378
a(I0
I4
tp379
ag354
a(I8
I6
tp380
a(I4
I1
tp381
a(I1
I1
tp382
a(I8
I4
tp383
atp384
Rp385
sg15
I12
sg31
g20
((lp386
(I8
I9
tp387
a(I9
I0
tp388
a(I0
I0
tp389
a(I10
I4
tp390
a(I4
I8
tp391
a(I8
I1
tp392
a(I11
I2
tp393
a(I5
I4
tp394
a(I7
I4
tp395
a(I11
I8
tp396
a(I2
I6
tp397
a(I2
I3
tp398
a(I1
I5
tp399
atp400
Rp401
sg13
((I8
I0
tp402
(I7
I6
tp403
(I8
I8
tp404
(I7
I0
tp405
(I2
I4
tp406
(I9
I9
tp407
tp408
sg14
I10
sbs(iproblems
RoomID
p409
(dp410
g10
I15
sg11
(I10
I7
tp411
sg13
I6
sg14
I11
sg15
I13
sg16
I6660334802794327005
sb(imulti_robot_problem
MultiRobotState
p412
(dp413
g19
g20
((lp414
(I4
I7
tp415
a(I11
I7
tp416
a(I5
I6
tp417
a(I2
I8
tp418
a(I9
I9
tp419
a(I9
I10
tp420
a(I10
I8
tp421
a(I9
I0
tp422
ag411
a(I5
I7
tp423
a(I8
I10
tp424
a(I3
I8
tp425
a(I1
I5
tp426
a(I1
I8
tp427
a(I1
I10
tp428
a(I10
I0
tp429
a(I2
I4
tp430
atp431
Rp432
sg15
I13
sg31
g20
((lp433
(I2
I7
tp434
a(I12
I2
tp435
a(I6
I9
tp436
a(I6
I10
tp437
a(I12
I1
tp438
a(I2
I9
tp439
a(I12
I0
tp440
a(I12
I9
tp441
a(I11
I2
tp442
a(I10
I6
tp443
a(I1
I7
tp444
a(I12
I5
tp445
a(I6
I3
tp446
a(I10
I3
tp447
a(I12
I8
tp448
atp449
Rp450
sg13
((I9
I5
tp451
(I5
I10
tp452
(I5
I3
tp453
(I5
I1
tp454
(I9
I3
tp455
(I7
I8
tp456
tp457
sg14
I11
sbs(iproblems
RoomID
p458
(dp459
g10
I11
sg11
(I7
I6
tp460
sg13
I7
sg14
I13
sg15
I12
sg16
I3119042104763040036
sb(imulti_robot_problem
MultiRobotState
p461
(dp462
g19
g20
((lp463
(I5
I4
tp464
a(I4
I5
tp465
a(I9
I8
tp466
a(I10
I6
tp467
a(I9
I0
tp468
a(I6
I0
tp469
a(I8
I9
tp470
a(I2
I12
tp471
a(I9
I6
tp472
a(I10
I5
tp473
a(I5
I10
tp474
a(I10
I7
tp475
ag460
a(I9
I9
tp476
a(I8
I6
tp477
a(I11
I6
tp478
a(I9
I7
tp479
atp480
Rp481
sg15
I12
sg31
g20
((lp482
(I1
I2
tp483
a(I4
I4
tp484
a(I5
I11
tp485
a(I5
I6
tp486
a(I3
I4
tp487
a(I8
I0
tp488
a(I8
I10
tp489
a(I0
I11
tp490
a(I2
I3
tp491
a(I7
I8
tp492
a(I4
I0
tp493
atp494
Rp495
sg13
((I7
I12
tp496
(I8
I2
tp497
(I4
I6
tp498
(I3
I9
tp499
(I9
I11
tp500
(I11
I9
tp501
(I9
I3
tp502
tp503
sg14
I13
sbs(iproblems
RoomID
p504
(dp505
g10
I12
sg11
(I8
I7
tp506
sg13
I7
sg14
I12
sg15
I12
sg16
I4640892725076559864
sb(imulti_robot_problem
MultiRobotState
p507
(dp508
g19
g20
((lp509
(I5
I9
tp510
a(I6
I9
tp511
a(I4
I8
tp512
a(I5
I6
tp513
a(I2
I8
tp514
a(I6
I0
tp515
a(I2
I10
tp516
a(I0
I9
tp517
a(I6
I2
tp518
ag506
a(I3
I7
tp519
a(I5
I1
tp520
a(I1
I0
tp521
a(I8
I5
tp522
a(I7
I9
tp523
a(I7
I4
tp524
a(I7
I0
tp525
a(I6
I8
tp526
a(I2
I9
tp527
a(I0
I6
tp528
a(I7
I6
tp529
a(I5
I7
tp530
a(I8
I10
tp531
a(I0
I2
tp532
a(I6
I3
tp533
a(I2
I0
tp534
a(I1
I8
tp535
a(I4
I5
tp536
a(I5
I2
tp537
a(I1
I1
tp538
a(I9
I7
tp539
atp540
Rp541
sg15
I12
sg31
g20
((lp542
(I2
I7
tp543
a(I6
I4
tp544
a(I11
I10
tp545
a(I4
I6
tp546
a(I11
I8
tp547
a(I11
I2
tp548
a(I9
I3
tp549
a(I3
I2
tp550
a(I8
I8
tp551
a(I0
I5
tp552
a(I10
I3
tp553
a(I5
I3
tp554
atp555
Rp556
sg13
((I8
I6
tp557
(I11
I5
tp558
(I10
I8
tp559
(I9
I0
tp560
(I9
I4
tp561
(I9
I2
tp562
(I4
I11
tp563
tp564
sg14
I12
sbssg137
S'heavy_roomset'
p565
sbsg137
g139
sg140
(dp566
g352
((lp567
F40.419999999998254
tp568
sg409
((lp569
F42.190000000002328
tp570
sg458
((lp571
F43.459999999999127
tp572
sg504
((lp573
F40.270000000000437
tp574
ssba(imeasure_core
ProblemSetSolution
p575
(dp576
g3
(imeasure_core
RoomSet
p577
(dp578
g6
(dp579
S'complexRoom'
p580
(imulti_robot_problem
MultiRobotState
p581
(dp582
g19
g20
((lp583
(I2
I7
tp584
a(I7
I3
tp585
a(I6
I3
tp586
a(I3
I3
tp587
a(I7
I6
tp588
a(I7
I4
tp589
a(I7
I5
tp590
a(I2
I3
tp591
a(I4
I3
tp592
a(I2
I5
tp593
a(I2
I4
tp594
a(I5
I3
tp595
atp596
Rp597
sg15
I11
sg31
g20
((lp598
(I1
I0
tp599
a(I9
I0
tp600
atp601
Rp602
sg13
((I6
I4
tp603
(I1
I6
tp604
tp605
sg14
I8
sbsS'exampleProblem'
p606
(imulti_robot_problem
MultiRobotState
p607
(dp608
g19
g20
((lp609
tp610
Rp611
sg15
I5
sg31
g20
((lp612
(I1
I3
tp613
a(I3
I1
tp614
a(I1
I1
tp615
a(I3
I3
tp616
atp617
Rp618
sg13
((I2
I2
tp619
tp620
sg14
I5
sbsS'linear_test'
p621
(imulti_robot_problem
MultiRobotState
p622
(dp623
g19
g611
sg15
I12
sg31
g20
((lp624
(I11
I0
tp625
a(I1
I0
tp626
a(I9
I0
tp627
atp628
Rp629
sg13
((I3
I0
tp630
(I1
I2
tp631
tp632
sg14
I7
sbsS'obstacle_Far_CloseTest'
p633
(imulti_robot_problem
MultiRobotState
p634
(dp635
g19
g20
((lp636
(I0
I1
tp637
a(I7
I3
tp638
a(I3
I1
tp639
a(I7
I1
tp640
a(I4
I5
tp641
a(I7
I6
tp642
a(I4
I4
tp643
a(I2
I1
tp644
a(I7
I4
tp645
a(I7
I5
tp646
a(I4
I3
tp647
a(I4
I2
tp648
a(I4
I1
tp649
a(I1
I1
tp650
a(I7
I2
tp651
atp652
Rp653
sg15
I12
sg31
g20
((lp654
(I3
I2
tp655
a(I9
I6
tp656
atp657
Rp658
sg13
((I0
I0
tp659
(I6
I6
tp660
tp661
sg14
I7
sbsS'zigzag'
p662
(imulti_robot_problem
MultiRobotState
p663
(dp664
g19
g20
((lp665
(I1
I2
tp666
a(I3
I2
tp667
a(I1
I3
tp668
a(I3
I0
tp669
a(I3
I1
tp670
a(I5
I1
tp671
a(I5
I2
tp672
a(I1
I1
tp673
a(I5
I3
tp674
atp675
Rp676
sg15
I20
sg31
g20
((lp677
(I6
I3
tp678
atp679
Rp680
sg13
((I0
I3
tp681
(I19
I3
tp682
tp683
sg14
I4
sbsS'room1'
p684
(imulti_robot_problem
MultiRobotState
p685
(dp686
g19
g20
((lp687
(I6
I3
tp688
a(I7
I3
tp689
a(I8
I3
tp690
a(I2
I3
tp691
a(I3
I3
tp692
a(I4
I3
tp693
a(I5
I3
tp694
atp695
Rp696
sg15
I9
sg31
g20
((lp697
(I0
I0
tp698
a(I2
I1
tp699
atp700
Rp701
sg13
((I6
I1
tp702
(I6
I5
tp703
tp704
sg14
I6
sbsS'complexRoom2'
p705
(imulti_robot_problem
MultiRobotState
p706
(dp707
g19
g20
((lp708
(I7
I3
tp709
a(I1
I3
tp710
a(I7
I1
tp711
a(I4
I5
tp712
a(I9
I3
tp713
a(I5
I5
tp714
a(I2
I6
tp715
a(I2
I3
tp716
a(I5
I1
tp717
a(I0
I3
tp718
a(I10
I3
tp719
a(I2
I5
tp720
a(I6
I5
tp721
a(I5
I3
tp722
a(I2
I7
tp723
a(I8
I3
tp724
a(I3
I3
tp725
a(I5
I2
tp726
a(I7
I6
tp727
a(I3
I1
tp728
a(I6
I3
tp729
a(I7
I5
tp730
a(I4
I3
tp731
a(I3
I5
tp732
a(I4
I1
tp733
a(I6
I1
tp734
atp735
Rp736
sg15
I11
sg31
g20
((lp737
(I7
I2
tp738
a(I0
I7
tp739
atp740
Rp741
sg13
((I1
I2
tp742
(I3
I6
tp743
tp744
sg14
I8
sbsS'zigzagUpright'
p745
(imulti_robot_problem
MultiRobotState
p746
(dp747
g19
g20
((lp748
(I1
I3
tp749
a(I3
I1
tp750
a(I2
I1
tp751
a(I1
I1
tp752
a(I1
I5
tp753
a(I2
I3
tp754
a(I2
I5
tp755
a(I0
I3
tp756
a(I3
I5
tp757
atp758
Rp759
sg15
I4
sg31
g20
((lp760
(I3
I6
tp761
atp762
Rp763
sg13
((I3
I0
tp764
(I3
I19
tp765
tp766
sg14
I20
sbsS'ivansRevenge'
p767
(imulti_robot_problem
MultiRobotState
p768
(dp769
g19
g611
sg15
I10
sg31
g20
((lp770
(I9
I2
tp771
a(I0
I0
tp772
atp773
Rp774
sg13
((I9
I0
tp775
(I0
I2
tp776
tp777
sg14
I3
sbsS'roomLongWithObstaccle'
p778
(imulti_robot_problem
MultiRobotState
p779
(dp780
g19
g20
((lp781
(I0
I1
tp782
a(I12
I1
tp783
a(I9
I1
tp784
a(I7
I1
tp785
a(I8
I1
tp786
a(I6
I1
tp787
a(I3
I1
tp788
a(I2
I1
tp789
a(I11
I1
tp790
a(I10
I1
tp791
a(I5
I1
tp792
a(I4
I1
tp793
a(I1
I1
tp794
atp795
Rp796
sg15
I15
sg31
g20
((lp797
(I0
I2
tp798
a(I14
I6
tp799
atp800
Rp801
sg13
((I0
I0
tp802
(I0
I6
tp803
tp804
sg14
I7
sbsS'twoRobotsInOpCorners'
p805
(imulti_robot_problem
MultiRobotState
p806
(dp807
g19
g611
sg15
I5
sg31
g20
((lp808
(I0
I0
tp809
a(I4
I4
tp810
atp811
Rp812
sg13
((I3
I0
tp813
(I0
I3
tp814
tp815
sg14
I5
sbsS'split2'
p816
(imulti_robot_problem
MultiRobotState
p817
(dp818
g19
g611
sg15
I10
sg31
g20
((lp819
(I0
I9
tp820
a(I9
I0
tp821
a(I0
I0
tp822
a(I9
I9
tp823
atp824
Rp825
sg13
((I1
I1
tp826
(I8
I1
tp827
(I4
I5
tp828
(I5
I5
tp829
tp830
sg14
I10
sbsS'split3'
p831
(imulti_robot_problem
MultiRobotState
p832
(dp833
g19
g611
sg15
I10
sg31
g20
((lp834
(I0
I9
tp835
a(I9
I0
tp836
a(I0
I0
tp837
a(I9
I9
tp838
atp839
Rp840
sg13
((I1
I1
tp841
(I8
I1
tp842
(I1
I7
tp843
(I7
I7
tp844
tp845
sg14
I10
sbsS'gaintRoom'
p846
(imulti_robot_problem
MultiRobotState
p847
(dp848
g19
g611
sg15
I5
sg31
g20
((lp849
(I4
I0
tp850
a(I4
I4
tp851
a(I0
I4
tp852
atp853
Rp854
sg13
((I0
I0
tp855
tp856
sg14
I5
sbsS'gaintRoomWithWall'
p857
(imulti_robot_problem
MultiRobotState
p858
(dp859
g19
g20
((lp860
(I2
I4
tp861
atp862
Rp863
sg15
I5
sg31
g20
((lp864
(I4
I0
tp865
a(I4
I4
tp866
a(I0
I4
tp867
atp868
Rp869
sg13
((I0
I0
tp870
tp871
sg14
I5
sbsS'split'
p872
(imulti_robot_problem
MultiRobotState
p873
(dp874
g19
g611
sg15
I10
sg31
g20
((lp875
(I0
I9
tp876
a(I9
I0
tp877
a(I0
I0
tp878
a(I9
I9
tp879
atp880
Rp881
sg13
((I4
I4
tp882
(I5
I4
tp883
(I4
I5
tp884
(I5
I5
tp885
tp886
sg14
I10
sbsS'twoRobots'
p887
(imulti_robot_problem
MultiRobotState
p888
(dp889
g19
g611
sg15
I9
sg31
g20
((lp890
(I8
I0
tp891
a(I0
I0
tp892
atp893
Rp894
sg13
((I2
I0
tp895
(I0
I3
tp896
tp897
sg14
I4
sbssg137
S'static_rooms'
p898
sbsg137
g139
sg140
(dp899
g816
((lp900
F40.119999999998981
tp901
sg831
((lp902
F40.159999999999854
tp903
sg580
((lp904
F39.990000000001601
tp905
sg846
((lp906
F39.990000000001601
tp907
sg606
((lp908
F39.990000000001601
tp909
sg621
((lp910
F39.989999999997963
tp911
sg633
((lp912
F40.0
tp913
sg887
((lp914
F40.0
tp915
sg857
((lp916
F39.989999999997963
tp917
sg662
((lp918
F39.990000000001601
tp919
sg684
((lp920
F40.0
tp921
sg705
((lp922
F39.989999999997963
tp923
sg745
((lp924
F40.0
tp925
sg767
((lp926
(F0.0037128925323486328
I2
tp927
aF39.979999999999563
tp928
sg778
((lp929
F40.0
tp930
sg805
((lp931
F39.990000000001601
tp932
sg872
((lp933
F40.510000000002037
tp934
ssba(imeasure_core
ProblemSetSolution
p935
(dp936
g3
g4
sg137
S"AnytimeBeam-w4-gf(4, 'lin')_with_PowerHeuristic2"
p937
sg140
(dp938
g8
((lp939
(F0.18188619613647461
I8
tp940
aF40.139999999999418
tp941
sg48
((lp942
F39.989999999997963
tp943
sg78
((lp944
F40.040000000000873
tp945
sg105
((lp946
(F3.2068750858306885
I6
tp947
aF40.130000000001019
tp948
ssba(imeasure_core
ProblemSetSolution
p949
(dp950
g3
g154
sg137
g937
sg140
(dp951
g157
((lp952
F40.0
tp953
sg201
((lp954
(F0.74457883834838867
I5
tp955
aF40.009999999998399
tp956
sg246
((lp957
F40.0
tp958
sg289
((lp959
F40.0
tp960
ssba(imeasure_core
ProblemSetSolution
p961
(dp962
g3
g349
sg137
g937
sg140
(dp963
g352
((lp964
F40.010000000002037
tp965
sg409
((lp966
F43.270000000000437
tp967
sg458
((lp968
F43.789999999997235
tp969
sg504
((lp970
F43.110000000000582
tp971
ssba(imeasure_core
ProblemSetSolution
p972
(dp973
g3
g577
sg137
g937
sg140
(dp974
g816
((lp975
F40.020000000000437
tp976
sg831
((lp977
F40.029999999998836
tp978
sg580
((lp979
F39.989999999997963
tp980
sg846
((lp981
F39.990000000001601
tp982
sg606
((lp983
F39.990000000001601
tp984
sg621
((lp985
F39.989999999997963
tp986
sg633
((lp987
F40.0
tp988
sg887
((lp989
F39.990000000001601
tp990
sg857
((lp991
F39.989999999997963
tp992
sg662
((lp993
F39.990000000001601
tp994
sg684
((lp995
F39.990000000001601
tp996
sg705
((lp997
F39.989999999997963
tp998
sg745
((lp999
F40.0
tp1000
sg767
((lp1001
(F0.0036928653717041016
I2
tp1002
aF39.990000000001601
tp1003
sg778
((lp1004
F39.989999999997963
tp1005
sg805
((lp1006
F39.990000000001601
tp1007
sg872
((lp1008
F40.360000000000582
tp1009
ssba(imeasure_core
ProblemSetSolution
p1010
(dp1011
g3
g4
sg137
S"AnytimeBeam-w4-gf(8, 'lin')_with_PowerHeuristic2"
p1012
sg140
(dp1013
g8
((lp1014
(F0.18061995506286621
I8
tp1015
aF40.079999999998108
tp1016
sg48
((lp1017
F39.990000000001601
tp1018
sg78
((lp1019
F40.040000000000873
tp1020
sg105
((lp1021
(F3.5580079555511475
I6
tp1022
aF40.219999999997526
tp1023
ssba(imeasure_core
ProblemSetSolution
p1024
(dp1025
g3
g154
sg137
g1012
sg140
(dp1026
g157
((lp1027
F40.200000000000728
tp1028
sg201
((lp1029
(F0.74206709861755371
I5
tp1030
aF40.009999999998399
tp1031
sg246
((lp1032
F40.049999999999272
tp1033
sg289
((lp1034
F39.990000000001601
tp1035
ssba(imeasure_core
ProblemSetSolution
p1036
(dp1037
g3
g349
sg137
g1012
sg140
(dp1038
g352
((lp1039
F40.5
tp1040
sg409
((lp1041
F41.270000000000437
tp1042
sg458
((lp1043
F44.299999999999272
tp1044
sg504
((lp1045
F40.220000000001164
tp1046
ssba(imeasure_core
ProblemSetSolution
p1047
(dp1048
g3
g577
sg137
g1012
sg140
(dp1049
g816
((lp1050
F40.010000000002037
tp1051
sg831
((lp1052
F40.169999999998254
tp1053
sg580
((lp1054
F39.990000000001601
tp1055
sg846
((lp1056
F39.990000000001601
tp1057
sg606
((lp1058
F39.979999999999563
tp1059
sg621
((lp1060
F40.0
tp1061
sg633
((lp1062
F39.979999999999563
tp1063
sg887
((lp1064
F39.990000000001601
tp1065
sg857
((lp1066
F39.989999999997963
tp1067
sg662
((lp1068
F39.989999999997963
tp1069
sg684
((lp1070
F40.0
tp1071
sg705
((lp1072
F39.990000000001601
tp1073
sg745
((lp1074
F39.979999999999563
tp1075
sg767
((lp1076
(F0.0037291049957275391
I2
tp1077
aF39.990000000001601
tp1078
sg778
((lp1079
F39.989999999997963
tp1080
sg805
((lp1081
F40.0
tp1082
sg872
((lp1083
F40.220000000001164
tp1084
ssba(imeasure_core
ProblemSetSolution
p1085
(dp1086
g3
g4
sg137
S"AnytimeBeam-w4-gf(16, 'lin')_with_PowerHeuristic2"
p1087
sg140
(dp1088
g8
((lp1089
(F0.18033313751220703
I8
tp1090
aF40.43999999999869
tp1091
sg48
((lp1092
F39.989999999997963
tp1093
sg78
((lp1094
F40.100000000002183
tp1095
sg105
((lp1096
(F4.0358960628509521
I6
tp1097
aF40.149999999997817
tp1098
ssba(imeasure_core
ProblemSetSolution
p1099
(dp1100
g3
g154
sg137
g1087
sg140
(dp1101
g157
((lp1102
F40.040000000000873
tp1103
sg201
((lp1104
(F0.74084019660949707
I5
tp1105
aF40.110000000000582
tp1106
sg246
((lp1107
F40.009999999998399
tp1108
sg289
((lp1109
F40.020000000000437
tp1110
ssba(imeasure_core
ProblemSetSolution
p1111
(dp1112
g3
g349
sg137
g1087
sg140
(dp1113
g352
((lp1114
F40.900000000001455
tp1115
sg409
((lp1116
F42.68999999999869
tp1117
sg458
((lp1118
F45.240000000001601
tp1119
sg504
((lp1120
F40.950000000000728
tp1121
ssba(imeasure_core
ProblemSetSolution
p1122
(dp1123
g3
g577
sg137
g1087
sg140
(dp1124
g816
((lp1125
F40.029999999998836
tp1126
sg831
((lp1127
F40.150000000001455
tp1128
sg580
((lp1129
F39.990000000001601
tp1130
sg846
((lp1131
F39.990000000001601
tp1132
sg606
((lp1133
F39.989999999997963
tp1134
sg621
((lp1135
F39.990000000001601
tp1136
sg633
((lp1137
F39.989999999997963
tp1138
sg887
((lp1139
F39.990000000001601
tp1140
sg857
((lp1141
F39.989999999997963
tp1142
sg662
((lp1143
F39.989999999997963
tp1144
sg684
((lp1145
F39.990000000001601
tp1146
sg705
((lp1147
F39.989999999997963
tp1148
sg745
((lp1149
F39.990000000001601
tp1150
sg767
((lp1151
(F0.0037209987640380859
I2
tp1152
aF40.0
tp1153
sg778
((lp1154
F39.990000000001601
tp1155
sg805
((lp1156
F39.989999999997963
tp1157
sg872
((lp1158
F40.119999999998981
tp1159
ssba(imeasure_core
ProblemSetSolution
p1160
(dp1161
g3
g4
sg137
S"AnytimeBeam-w4-gf(2, 'lin')_with_LinearHeuristic"
p1162
sg140
(dp1163
g8
((lp1164
F40.110000000000582
tp1165
sg48
((lp1166
(F2.0362808704376221
I49
tp1167
aF40.029999999998836
tp1168
sg78
((lp1169
F40.020000000000437
tp1170
sg105
((lp1171
(F2.4735169410705566
I6
tp1172
aF40.569999999999709
tp1173
ssba(imeasure_core
ProblemSetSolution
p1174
(dp1175
g3
g154
sg137
g1162
sg140
(dp1176
g157
((lp1177
F40.089999999996508
tp1178
sg201
((lp1179
(F3.7003269195556641
I6
tp1180
aF40.0
tp1181
sg246
((lp1182
F40.030000000002474
tp1183
sg289
((lp1184
F40.029999999998836
tp1185
ssba(imeasure_core
ProblemSetSolution
p1186
(dp1187
g3
g349
sg137
g1162
sg140
(dp1188
g352
((lp1189
F40.069999999999709
tp1190
sg409
((lp1191
F40.880000000001019
tp1192
sg458
((lp1193
F44.520000000000437
tp1194
sg504
((lp1195
F40.659999999999854
tp1196
ssba(imeasure_core
ProblemSetSolution
p1197
(dp1198
g3
g577
sg137
g1162
sg140
(dp1199
g816
((lp1200
F40.409999999999854
tp1201
sg831
((lp1202
F40.409999999999854
tp1203
sg580
((lp1204
F39.989999999997963
tp1205
sg846
((lp1206
F39.990000000001601
tp1207
sg606
((lp1208
F39.990000000001601
tp1209
sg621
((lp1210
F40.0
tp1211
sg633
((lp1212
F39.990000000001601
tp1213
sg887
((lp1214
F40.0
tp1215
sg857
((lp1216
F39.989999999997963
tp1217
sg662
((lp1218
F39.989999999997963
tp1219
sg684
((lp1220
F40.010000000002037
tp1221
sg705
((lp1222
F39.989999999997963
tp1223
sg745
((lp1224
F40.0
tp1225
sg767
((lp1226
(F0.0051729679107666016
I2
tp1227
aF39.990000000001601
tp1228
sg778
((lp1229
F40.0
tp1230
sg805
((lp1231
F39.989999999997963
tp1232
sg872
((lp1233
F40.040000000000873
tp1234
ssba(imeasure_core
ProblemSetSolution
p1235
(dp1236
g3
g4
sg137
S"AnytimeBeam-w4-gf(4, 'lin')_with_LinearHeuristic"
p1237
sg140
(dp1238
g8
((lp1239
F40.099999999998545
tp1240
sg48
((lp1241
(F2.1413772106170654
I49
tp1242
aF40.06000000000131
tp1243
sg78
((lp1244
F40.0
tp1245
sg105
((lp1246
(F2.6605339050292969
I6
tp1247
aF40.369999999998981
tp1248
ssba(imeasure_core
ProblemSetSolution
p1249
(dp1250
g3
g154
sg137
g1237
sg140
(dp1251
g157
((lp1252
F40.069999999999709
tp1253
sg201
((lp1254
(F4.1145288944244385
I6
tp1255
aF40.06000000000131
tp1256
sg246
((lp1257
F40.129999999997381
tp1258
sg289
((lp1259
F40.0
tp1260
ssba(imeasure_core
ProblemSetSolution
p1261
(dp1262
g3
g349
sg137
g1237
sg140
(dp1263
g352
((lp1264
F40.279999999998836
tp1265
sg409
((lp1266
F40.700000000000728
tp1267
sg458
((lp1268
F45.430000000000291
tp1269
sg504
((lp1270
F40.540000000000873
tp1271
ssba(imeasure_core
ProblemSetSolution
p1272
(dp1273
g3
g577
sg137
g1237
sg140
(dp1274
g816
((lp1275
F40.0
tp1276
sg831
((lp1277
F40.419999999998254
tp1278
sg580
((lp1279
F39.989999999997963
tp1280
sg846
((lp1281
F39.990000000001601
tp1282
sg606
((lp1283
F39.990000000001601
tp1284
sg621
((lp1285
F39.989999999997963
tp1286
sg633
((lp1287
F40.0
tp1288
sg887
((lp1289
F39.979999999999563
tp1290
sg857
((lp1291
F40.0
tp1292
sg662
((lp1293
F39.990000000001601
tp1294
sg684
((lp1295
F40.0
tp1296
sg705
((lp1297
F39.989999999997963
tp1298
sg745
((lp1299
F39.990000000001601
tp1300
sg767
((lp1301
(F0.0052201747894287109
I2
tp1302
aF40.0
tp1303
sg778
((lp1304
F39.990000000001601
tp1305
sg805
((lp1306
F40.0
tp1307
sg872
((lp1308
F40.090000000000146
tp1309
ssba(imeasure_core
ProblemSetSolution
p1310
(dp1311
g3
g4
sg137
S"AnytimeBeam-w4-gf(8, 'lin')_with_LinearHeuristic"
p1312
sg140
(dp1313
g8
((lp1314
F40.06000000000131
tp1315
sg48
((lp1316
(F4.0331909656524658
I49
tp1317
aF40.020000000000437
tp1318
sg78
((lp1319
F40.129999999997381
tp1320
sg105
((lp1321
(F2.8945119380950928
I6
tp1322
aF40.319999999999709
tp1323
ssba(imeasure_core
ProblemSetSolution
p1324
(dp1325
g3
g154
sg137
g1312
sg140
(dp1326
g157
((lp1327
F40.020000000000437
tp1328
sg201
((lp1329
(F4.5484728813171387
I6
tp1330
aF40.069999999999709
tp1331
sg246
((lp1332
F40.130000000001019
tp1333
sg289
((lp1334
F39.990000000001601
tp1335
ssba(imeasure_core
ProblemSetSolution
p1336
(dp1337
g3
g349
sg137
g1312
sg140
(dp1338
g352
((lp1339
F40.510000000002037
tp1340
sg409
((lp1341
F41.099999999998545
tp1342
sg458
((lp1343
F45.819999999999709
tp1344
sg504
((lp1345
F41.009999999998399
tp1346
ssba(imeasure_core
ProblemSetSolution
p1347
(dp1348
g3
g577
sg137
g1312
sg140
(dp1349
g816
((lp1350
F40.340000000000146
tp1351
sg831
((lp1352
F40.299999999999272
tp1353
sg580
((lp1354
F39.989999999997963
tp1355
sg846
((lp1356
F39.990000000001601
tp1357
sg606
((lp1358
F39.990000000001601
tp1359
sg621
((lp1360
F40.0
tp1361
sg633
((lp1362
F39.990000000001601
tp1363
sg887
((lp1364
F39.990000000001601
tp1365
sg857
((lp1366
F39.989999999997963
tp1367
sg662
((lp1368
F39.989999999997963
tp1369
sg684
((lp1370
F40.0
tp1371
sg705
((lp1372
F40.0
tp1373
sg745
((lp1374
F39.979999999999563
tp1375
sg767
((lp1376
(F0.0052030086517333984
I2
tp1377
aF39.990000000001601
tp1378
sg778
((lp1379
F39.989999999997963
tp1380
sg805
((lp1381
F39.990000000001601
tp1382
sg872
((lp1383
F40.159999999999854
tp1384
ssba(imeasure_core
ProblemSetSolution
p1385
(dp1386
g3
g4
sg137
S"AnytimeBeam-w4-gf(16, 'lin')_with_LinearHeuristic"
p1387
sg140
(dp1388
g8
((lp1389
(F33.812501907348633
I223
tp1390
aF40.099999999998545
tp1391
sg48
((lp1392
(F11.099486112594604
I49
tp1393
aF40.040000000000873
tp1394
sg78
((lp1395
F39.729999999999563
tp1396
sg105
((lp1397
(F3.269521951675415
I6
tp1398
aF40.080000000001746
tp1399
ssba(imeasure_core
ProblemSetSolution
p1400
(dp1401
g3
g154
sg137
g1387
sg140
(dp1402
g157
((lp1403
F40.099999999998545
tp1404
sg201
((lp1405
(F5.0953631401062012
I6
tp1406
aF40.090000000000146
tp1407
sg246
((lp1408
F40.150000000001455
tp1409
sg289
((lp1410
F40.049999999999272
tp1411
ssba(imeasure_core
ProblemSetSolution
p1412
(dp1413
g3
g349
sg137
g1387
sg140
(dp1414
g352
((lp1415
F40.200000000000728
tp1416
sg409
((lp1417
F41.130000000001019
tp1418
sg458
((lp1419
F47.299999999999272
tp1420
sg504
((lp1421
F41.349999999998545
tp1422
ssba(imeasure_core
ProblemSetSolution
p1423
(dp1424
g3
g577
sg137
g1387
sg140
(dp1425
g816
((lp1426
F40.169999999998254
tp1427
sg831
((lp1428
F40.279999999998836
tp1429
sg580
((lp1430
F40.0
tp1431
sg846
((lp1432
F39.990000000001601
tp1433
sg606
((lp1434
F39.990000000001601
tp1435
sg621
((lp1436
F40.020000000000437
tp1437
sg633
((lp1438
F39.989999999997963
tp1439
sg887
((lp1440
F39.989999999997963
tp1441
sg857
((lp1442
F39.989999999997963
tp1443
sg662
((lp1444
F40.0
tp1445
sg684
((lp1446
F40.0
tp1447
sg705
((lp1448
F39.990000000001601
tp1449
sg745
((lp1450
F39.989999999997963
tp1451
sg767
((lp1452
(F0.005191802978515625
I2
tp1453
aF40.0
tp1454
sg778
((lp1455
F39.990000000001601
tp1456
sg805
((lp1457
F39.990000000001601
tp1458
sg872
((lp1459
F40.30000000000291
tp1460
ssba.