(lp0
(imeasure_core
ProblemSetSolution
p1
(dp2
S'roomset'
p3
(imeasure_core
RoomSet
p4
(dp5
S'rooms'
p6
(dp7
(iproblems
RoomID
p8
(dp9
S'dusts'
p10
I8
sS'obstacles'
p11
(I5
I7
tp12
sS'robots'
p13
I5
sS'height'
p14
I9
sS'width'
p15
I10
sS'seed'
p16
I5594871498841892311
sb(imulti_robot_problem
MultiRobotState
p17
(dp18
S'obstacle_locations'
p19
c__builtin__
frozenset
p20
((lp21
(I4
I7
tp22
a(I3
I6
tp23
a(I5
I1
tp24
a(I1
I0
tp25
ag12
a(I8
I3
tp26
a(I5
I8
tp27
atp28
Rp29
sg15
I10
sS'dirt_locations'
p30
g20
((lp31
(I0
I1
tp32
a(I9
I0
tp33
a(I8
I2
tp34
a(I6
I0
tp35
a(I1
I1
tp36
a(I1
I5
tp37
a(I9
I4
tp38
a(I2
I4
tp39
atp40
Rp41
sg13
((I7
I6
tp42
(I8
I4
tp43
(I5
I4
tp44
(I7
I2
tp45
(I7
I8
tp46
tp47
sg14
I9
sbs(iproblems
RoomID
p48
(dp49
g10
I6
sg11
(I4
I4
tp50
sg13
I5
sg14
I7
sg15
I8
sg16
I8833747186876682921
sb(imulti_robot_problem
MultiRobotState
p51
(dp52
g19
g20
((lp53
(I2
I2
tp54
ag50
a(I3
I4
tp55
a(I3
I3
tp56
a(I3
I5
tp57
atp58
Rp59
sg15
I8
sg30
g20
((lp60
(I6
I4
tp61
a(I5
I4
tp62
a(I1
I3
tp63
a(I5
I1
tp64
a(I0
I3
tp65
a(I5
I3
tp66
atp67
Rp68
sg13
((I2
I1
tp69
(I6
I1
tp70
(I3
I1
tp71
(I5
I0
tp72
(I7
I3
tp73
tp74
sg14
I7
sbs(iproblems
RoomID
p75
(dp76
g10
I5
sg11
(I6
I4
tp77
sg13
I2
sg14
I8
sg15
I10
sg16
I1662056218554549082
sb(imulti_robot_problem
MultiRobotState
p78
(dp79
g19
g20
((lp80
g77
a(I4
I6
tp81
a(I3
I6
tp82
a(I4
I4
tp83
a(I9
I6
tp84
a(I5
I5
tp85
atp86
Rp87
sg15
I10
sg30
g20
((lp88
(I4
I5
tp89
a(I8
I3
tp90
a(I8
I4
tp91
a(I7
I7
tp92
a(I3
I3
tp93
atp94
Rp95
sg13
((I9
I3
tp96
(I2
I0
tp97
tp98
sg14
I8
sbs(iproblems
RoomID
p99
(dp100
g10
I7
sg11
(I5
I2
tp101
sg13
I5
sg14
I8
sg15
I9
sg16
I365562409358139953
sb(imulti_robot_problem
MultiRobotState
p102
(dp103
g19
g20
((lp104
(I6
I4
tp105
a(I5
I5
tp106
a(I2
I1
tp107
a(I3
I7
tp108
a(I2
I5
tp109
ag101
a(I0
I2
tp110
a(I5
I3
tp111
atp112
Rp113
sg15
I9
sg30
g20
((lp114
(I2
I0
tp115
a(I1
I6
tp116
a(I8
I2
tp117
a(I4
I5
tp118
a(I8
I6
tp119
a(I5
I7
tp120
a(I3
I4
tp121
atp122
Rp123
sg13
((I4
I2
tp124
(I8
I3
tp125
(I6
I3
tp126
(I2
I4
tp127
(I6
I7
tp128
tp129
sg14
I8
sbssS'name'
p130
S'easy_roomset'
p131
sbsg130
S'LimitedTimeAStar_with_PowerHeuristic2'
p132
sS'solutions'
p133
(dp134
g8
((lp135
F1.8100000000004002
tp136
sg48
((lp137
F0.63999999999987267
tp138
sg75
((lp139
F0.01999999999998181
tp140
sg99
((lp141
F254.4699999999998
tp142
ssba(imeasure_core
ProblemSetSolution
p143
(dp144
g3
(imeasure_core
RoomSet
p145
(dp146
g6
(dp147
(iproblems
RoomID
p148
(dp149
g10
I8
sg11
(I9
I3
tp150
sg13
I4
sg14
I11
sg15
I12
sg16
I5594871498841892311
sb(imulti_robot_problem
MultiRobotState
p151
(dp152
g19
g20
((lp153
(I5
I9
tp154
a(I6
I9
tp155
a(I11
I9
tp156
a(I9
I1
tp157
a(I4
I8
tp158
a(I8
I0
tp159
a(I6
I0
tp160
a(I9
I9
tp161
ag150
a(I9
I4
tp162
a(I4
I2
tp163
a(I3
I7
tp164
a(I5
I8
tp165
a(I7
I9
tp166
a(I10
I8
tp167
a(I9
I0
tp168
a(I7
I0
tp169
a(I6
I8
tp170
a(I9
I2
tp171
a(I5
I7
tp172
a(I8
I10
tp173
a(I2
I0
tp174
a(I5
I0
tp175
a(I0
I9
tp176
a(I10
I0
tp177
a(I10
I2
tp178
atp179
Rp180
sg15
I12
sg30
g20
((lp181
(I2
I6
tp182
a(I11
I5
tp183
a(I6
I1
tp184
a(I11
I1
tp185
a(I2
I1
tp186
a(I8
I8
tp187
a(I0
I2
tp188
a(I3
I5
tp189
atp190
Rp191
sg13
((I9
I7
tp192
(I10
I5
tp193
(I6
I5
tp194
(I8
I3
tp195
tp196
sg14
I11
sbs(iproblems
RoomID
p197
(dp198
g10
I6
sg11
(I9
I4
tp199
sg13
I4
sg14
I9
sg15
I10
sg16
I8833747186876682921
sb(imulti_robot_problem
MultiRobotState
p200
(dp201
g19
g20
((lp202
(I4
I7
tp203
a(I4
I8
tp204
a(I4
I5
tp205
a(I2
I1
tp206
a(I7
I5
tp207
a(I2
I3
tp208
ag199
a(I2
I5
tp209
a(I6
I5
tp210
a(I3
I5
tp211
a(I2
I7
tp212
a(I8
I3
tp213
a(I5
I5
tp214
a(I3
I4
tp215
a(I7
I4
tp216
a(I5
I6
tp217
a(I8
I8
tp218
a(I3
I6
tp219
a(I4
I1
tp220
a(I1
I1
tp221
atp222
Rp223
sg15
I10
sg30
g20
((lp224
(I3
I2
tp225
a(I6
I2
tp226
a(I7
I0
tp227
a(I1
I4
tp228
a(I0
I4
tp229
a(I0
I7
tp230
atp231
Rp232
sg13
((I3
I1
tp233
(I8
I1
tp234
(I3
I3
tp235
(I4
I2
tp236
tp237
sg14
I9
sbs(iproblems
RoomID
p238
(dp239
g10
I7
sg11
(I8
I4
tp240
sg13
I4
sg14
I10
sg15
I11
sg16
I365562409358139953
sb(imulti_robot_problem
MultiRobotState
p241
(dp242
g19
g20
((lp243
(I7
I3
tp244
a(I8
I7
tp245
a(I4
I8
tp246
a(I2
I8
tp247
a(I5
I9
tp248
a(I6
I2
tp249
a(I1
I6
tp250
a(I9
I4
tp251
a(I6
I4
tp252
a(I9
I6
tp253
a(I6
I5
tp254
a(I10
I8
tp255
a(I10
I5
tp256
a(I6
I7
tp257
a(I10
I7
tp258
a(I7
I6
tp259
a(I3
I1
tp260
a(I0
I5
tp261
a(I3
I8
tp262
a(I7
I5
tp263
a(I8
I6
tp264
ag240
a(I5
I2
tp265
a(I6
I1
tp266
a(I9
I7
tp267
atp268
Rp269
sg15
I11
sg30
g20
((lp270
(I5
I6
tp271
a(I6
I9
tp272
a(I1
I7
tp273
a(I4
I5
tp274
a(I10
I3
tp275
a(I0
I2
tp276
a(I2
I1
tp277
atp278
Rp279
sg13
((I10
I4
tp280
(I7
I4
tp281
(I3
I6
tp282
(I8
I9
tp283
tp284
sg14
I10
sbs(iproblems
RoomID
p285
(dp286
g10
I10
sg11
(I4
I8
tp287
sg13
I3
sg14
I11
sg15
I9
sg16
I6645345695289302126
sb(imulti_robot_problem
MultiRobotState
p288
(dp289
g19
g20
((lp290
(I5
I9
tp291
a(I3
I2
tp292
a(I3
I1
tp293
ag287
a(I4
I5
tp294
a(I1
I4
tp295
a(I4
I2
tp296
a(I3
I7
tp297
a(I4
I6
tp298
a(I3
I3
tp299
a(I4
I1
tp300
a(I6
I1
tp301
a(I4
I4
tp302
a(I2
I4
tp303
a(I3
I8
tp304
a(I1
I5
tp305
a(I4
I3
tp306
a(I3
I5
tp307
a(I3
I4
tp308
a(I1
I1
tp309
a(I8
I4
tp310
atp311
Rp312
sg15
I9
sg30
g20
((lp313
(I0
I1
tp314
a(I5
I4
tp315
a(I6
I7
tp316
a(I8
I2
tp317
a(I8
I7
tp318
a(I8
I8
tp319
a(I2
I3
tp320
a(I3
I6
tp321
a(I1
I0
tp322
a(I5
I5
tp323
atp324
Rp325
sg13
((I1
I6
tp326
(I0
I9
tp327
(I0
I5
tp328
tp329
sg14
I11
sbssg130
S'mild_roomset'
p330
sbsg130
g132
sg133
(dp331
g148
((lp332
F0.59000000000014552
tp333
sg197
((lp334
F0.1999999999998181
tp335
sg238
((lp336
F0.24000000000023647
tp337
sg285
((lp338
F4.0
tp339
ssba(imeasure_core
ProblemSetSolution
p340
(dp341
g3
(imeasure_core
RoomSet
p342
(dp343
g6
(dp344
(iproblems
RoomID
p345
(dp346
g10
I13
sg11
(I9
I8
tp347
sg13
I7
sg14
I12
sg15
I13
sg16
I5594871498841892311
sb(imulti_robot_problem
MultiRobotState
p348
(dp349
g19
g20
((lp350
(I5
I9
tp351
a(I6
I9
tp352
a(I1
I3
tp353
a(I10
I4
tp354
a(I4
I8
tp355
ag347
a(I1
I4
tp356
a(I11
I3
tp357
a(I8
I6
tp358
a(I9
I6
tp359
a(I5
I5
tp360
a(I9
I5
tp361
a(I6
I7
tp362
a(I6
I8
tp363
a(I6
I10
tp364
a(I8
I10
tp365
a(I5
I0
tp366
a(I10
I0
tp367
a(I7
I9
tp368
a(I9
I7
tp369
atp370
Rp371
sg15
I13
sg30
g20
((lp372
(I2
I7
tp373
a(I10
I5
tp374
a(I11
I5
tp375
a(I6
I1
tp376
a(I8
I0
tp377
a(I2
I1
tp378
a(I2
I0
tp379
a(I0
I10
tp380
a(I7
I10
tp381
a(I12
I10
tp382
a(I5
I2
tp383
a(I0
I2
tp384
a(I3
I5
tp385
atp386
Rp387
sg13
((I10
I8
tp388
(I11
I6
tp389
(I7
I5
tp390
(I9
I3
tp391
(I9
I11
tp392
(I12
I1
tp393
(I9
I9
tp394
tp395
sg14
I12
sbs(iproblems
RoomID
p396
(dp397
g10
I11
sg11
(I8
I7
tp398
sg13
I7
sg14
I10
sg15
I11
sg16
I8833747186876682921
sb(imulti_robot_problem
MultiRobotState
p399
(dp400
g19
g20
((lp401
(I5
I7
tp402
a(I4
I8
tp403
a(I4
I5
tp404
a(I2
I1
tp405
ag398
a(I5
I1
tp406
a(I5
I5
tp407
a(I6
I7
tp408
a(I4
I6
tp409
a(I8
I1
tp410
a(I4
I4
tp411
a(I6
I3
tp412
a(I8
I8
tp413
a(I3
I3
tp414
a(I7
I8
tp415
a(I10
I2
tp416
atp417
Rp418
sg15
I11
sg30
g20
((lp419
(I10
I5
tp420
a(I7
I6
tp421
a(I4
I7
tp422
a(I1
I4
tp423
a(I9
I9
tp424
a(I3
I8
tp425
a(I0
I5
tp426
a(I8
I6
tp427
a(I2
I5
tp428
a(I0
I8
tp429
a(I7
I2
tp430
atp431
Rp432
sg13
((I3
I1
tp433
(I9
I1
tp434
(I5
I2
tp435
(I4
I3
tp436
(I8
I0
tp437
(I10
I4
tp438
(I8
I5
tp439
tp440
sg14
I10
sbs(iproblems
RoomID
p441
(dp442
g10
I13
sg11
(I3
I8
tp443
sg13
I5
sg14
I10
sg15
I10
sg16
I5338040351619750409
sb(imulti_robot_problem
MultiRobotState
p444
(dp445
g19
g20
((lp446
(I4
I7
tp447
a(I2
I6
tp448
a(I9
I1
tp449
a(I2
I8
tp450
a(I6
I1
tp451
a(I1
I4
tp452
ag443
a(I1
I6
tp453
a(I4
I3
tp454
a(I1
I7
tp455
a(I2
I5
tp456
a(I9
I7
tp457
a(I2
I4
tp458
a(I6
I8
tp459
atp460
Rp461
sg15
I10
sg30
g20
((lp462
(I6
I9
tp463
a(I1
I3
tp464
a(I4
I9
tp465
a(I4
I6
tp466
a(I6
I6
tp467
a(I8
I3
tp468
a(I2
I1
tp469
a(I8
I9
tp470
a(I1
I8
tp471
a(I7
I5
tp472
a(I3
I6
tp473
a(I9
I6
tp474
a(I4
I0
tp475
atp476
Rp477
sg13
((I2
I0
tp478
(I3
I5
tp479
(I5
I0
tp480
(I5
I2
tp481
(I4
I5
tp482
tp483
sg14
I10
sbs(iproblems
RoomID
p484
(dp485
g10
I12
sg11
(I0
I5
tp486
sg13
I7
sg14
I11
sg15
I12
sg16
I365562409358139953
sb(imulti_robot_problem
MultiRobotState
p487
(dp488
g19
g20
((lp489
(I1
I3
tp490
a(I6
I6
tp491
a(I0
I4
tp492
a(I7
I5
tp493
ag486
a(I8
I7
tp494
a(I4
I2
tp495
a(I2
I9
tp496
a(I10
I7
tp497
a(I7
I8
tp498
a(I7
I6
tp499
a(I3
I1
tp500
a(I4
I8
tp501
a(I3
I9
tp502
a(I2
I2
tp503
a(I8
I6
tp504
a(I5
I2
tp505
a(I11
I6
tp506
a(I8
I4
tp507
atp508
Rp509
sg15
I12
sg30
g20
((lp510
(I3
I2
tp511
a(I11
I9
tp512
a(I4
I9
tp513
a(I10
I4
tp514
a(I5
I7
tp515
a(I2
I1
tp516
a(I0
I6
tp517
a(I1
I6
tp518
a(I7
I10
tp519
a(I3
I7
tp520
a(I5
I10
tp521
a(I0
I2
tp522
atp523
Rp524
sg13
((I6
I3
tp525
(I10
I5
tp526
(I3
I6
tp527
(I8
I10
tp528
(I4
I6
tp529
(I11
I3
tp530
(I1
I8
tp531
tp532
sg14
I11
sbssg130
S'heavy_roomset'
p533
sbsg130
g132
sg133
(dp534
g345
((lp535
F74.539999999999964
tp536
sg396
((lp537
F18.610000000000127
tp538
sg441
((lp539
F290.44000000000005
tp540
sg484
((lp541
F295.29999999999973
tp542
ssba(imeasure_core
ProblemSetSolution
p543
(dp544
g3
(imeasure_core
RoomSet
p545
(dp546
g6
(dp547
S'complexRoom'
p548
(imulti_robot_problem
MultiRobotState
p549
(dp550
g19
g20
((lp551
(I2
I7
tp552
a(I7
I3
tp553
a(I6
I3
tp554
a(I3
I3
tp555
a(I7
I6
tp556
a(I7
I4
tp557
a(I7
I5
tp558
a(I2
I3
tp559
a(I4
I3
tp560
a(I2
I5
tp561
a(I2
I4
tp562
a(I5
I3
tp563
atp564
Rp565
sg15
I11
sg30
g20
((lp566
(I1
I0
tp567
a(I9
I0
tp568
atp569
Rp570
sg13
((I6
I4
tp571
(I1
I6
tp572
tp573
sg14
I8
sbsS'exampleProblem'
p574
(imulti_robot_problem
MultiRobotState
p575
(dp576
g19
g20
((lp577
tp578
Rp579
sg15
I5
sg30
g20
((lp580
(I1
I3
tp581
a(I3
I1
tp582
a(I1
I1
tp583
a(I3
I3
tp584
atp585
Rp586
sg13
((I2
I2
tp587
tp588
sg14
I5
sbsS'linear_test'
p589
(imulti_robot_problem
MultiRobotState
p590
(dp591
g19
g579
sg15
I12
sg30
g20
((lp592
(I11
I0
tp593
a(I1
I0
tp594
a(I9
I0
tp595
atp596
Rp597
sg13
((I3
I0
tp598
(I1
I2
tp599
tp600
sg14
I7
sbsS'obstacle_Far_CloseTest'
p601
(imulti_robot_problem
MultiRobotState
p602
(dp603
g19
g20
((lp604
(I0
I1
tp605
a(I7
I3
tp606
a(I3
I1
tp607
a(I7
I1
tp608
a(I4
I5
tp609
a(I7
I6
tp610
a(I4
I4
tp611
a(I2
I1
tp612
a(I7
I4
tp613
a(I7
I5
tp614
a(I4
I3
tp615
a(I4
I2
tp616
a(I4
I1
tp617
a(I1
I1
tp618
a(I7
I2
tp619
atp620
Rp621
sg15
I12
sg30
g20
((lp622
(I3
I2
tp623
a(I9
I6
tp624
atp625
Rp626
sg13
((I0
I0
tp627
(I6
I6
tp628
tp629
sg14
I7
sbsS'zigzag'
p630
(imulti_robot_problem
MultiRobotState
p631
(dp632
g19
g20
((lp633
(I1
I2
tp634
a(I3
I2
tp635
a(I1
I3
tp636
a(I3
I0
tp637
a(I3
I1
tp638
a(I5
I1
tp639
a(I5
I2
tp640
a(I1
I1
tp641
a(I5
I3
tp642
atp643
Rp644
sg15
I20
sg30
g20
((lp645
(I6
I3
tp646
atp647
Rp648
sg13
((I0
I3
tp649
(I19
I3
tp650
tp651
sg14
I4
sbsS'room1'
p652
(imulti_robot_problem
MultiRobotState
p653
(dp654
g19
g20
((lp655
(I6
I3
tp656
a(I7
I3
tp657
a(I8
I3
tp658
a(I2
I3
tp659
a(I3
I3
tp660
a(I4
I3
tp661
a(I5
I3
tp662
atp663
Rp664
sg15
I9
sg30
g20
((lp665
(I0
I0
tp666
a(I2
I1
tp667
atp668
Rp669
sg13
((I6
I1
tp670
(I6
I5
tp671
tp672
sg14
I6
sbsS'complexRoom2'
p673
(imulti_robot_problem
MultiRobotState
p674
(dp675
g19
g20
((lp676
(I7
I3
tp677
a(I1
I3
tp678
a(I7
I1
tp679
a(I4
I5
tp680
a(I9
I3
tp681
a(I5
I5
tp682
a(I2
I6
tp683
a(I2
I3
tp684
a(I5
I1
tp685
a(I0
I3
tp686
a(I10
I3
tp687
a(I2
I5
tp688
a(I6
I5
tp689
a(I5
I3
tp690
a(I2
I7
tp691
a(I8
I3
tp692
a(I3
I3
tp693
a(I5
I2
tp694
a(I7
I6
tp695
a(I3
I1
tp696
a(I6
I3
tp697
a(I7
I5
tp698
a(I4
I3
tp699
a(I3
I5
tp700
a(I4
I1
tp701
a(I6
I1
tp702
atp703
Rp704
sg15
I11
sg30
g20
((lp705
(I7
I2
tp706
a(I0
I7
tp707
atp708
Rp709
sg13
((I1
I2
tp710
(I3
I6
tp711
tp712
sg14
I8
sbsS'zigzagUpright'
p713
(imulti_robot_problem
MultiRobotState
p714
(dp715
g19
g20
((lp716
(I1
I3
tp717
a(I3
I1
tp718
a(I2
I1
tp719
a(I1
I1
tp720
a(I1
I5
tp721
a(I2
I3
tp722
a(I2
I5
tp723
a(I0
I3
tp724
a(I3
I5
tp725
atp726
Rp727
sg15
I4
sg30
g20
((lp728
(I3
I6
tp729
atp730
Rp731
sg13
((I3
I0
tp732
(I3
I19
tp733
tp734
sg14
I20
sbsS'ivansRevenge'
p735
(imulti_robot_problem
MultiRobotState
p736
(dp737
g19
g579
sg15
I10
sg30
g20
((lp738
(I9
I2
tp739
a(I0
I0
tp740
atp741
Rp742
sg13
((I9
I0
tp743
(I0
I2
tp744
tp745
sg14
I3
sbsS'roomLongWithObstaccle'
p746
(imulti_robot_problem
MultiRobotState
p747
(dp748
g19
g20
((lp749
(I0
I1
tp750
a(I12
I1
tp751
a(I9
I1
tp752
a(I7
I1
tp753
a(I8
I1
tp754
a(I6
I1
tp755
a(I3
I1
tp756
a(I2
I1
tp757
a(I11
I1
tp758
a(I10
I1
tp759
a(I5
I1
tp760
a(I4
I1
tp761
a(I1
I1
tp762
atp763
Rp764
sg15
I15
sg30
g20
((lp765
(I0
I2
tp766
a(I14
I6
tp767
atp768
Rp769
sg13
((I0
I0
tp770
(I0
I6
tp771
tp772
sg14
I7
sbsS'twoRobotsInOpCorners'
p773
(imulti_robot_problem
MultiRobotState
p774
(dp775
g19
g579
sg15
I5
sg30
g20
((lp776
(I0
I0
tp777
a(I4
I4
tp778
atp779
Rp780
sg13
((I3
I0
tp781
(I0
I3
tp782
tp783
sg14
I5
sbsS'split2'
p784
(imulti_robot_problem
MultiRobotState
p785
(dp786
g19
g579
sg15
I10
sg30
g20
((lp787
(I0
I9
tp788
a(I9
I0
tp789
a(I0
I0
tp790
a(I9
I9
tp791
atp792
Rp793
sg13
((I1
I1
tp794
(I8
I1
tp795
(I4
I5
tp796
(I5
I5
tp797
tp798
sg14
I10
sbsS'split3'
p799
(imulti_robot_problem
MultiRobotState
p800
(dp801
g19
g579
sg15
I10
sg30
g20
((lp802
(I0
I9
tp803
a(I9
I0
tp804
a(I0
I0
tp805
a(I9
I9
tp806
atp807
Rp808
sg13
((I1
I1
tp809
(I8
I1
tp810
(I1
I7
tp811
(I7
I7
tp812
tp813
sg14
I10
sbsS'gaintRoom'
p814
(imulti_robot_problem
MultiRobotState
p815
(dp816
g19
g579
sg15
I5
sg30
g20
((lp817
(I4
I0
tp818
a(I4
I4
tp819
a(I0
I4
tp820
atp821
Rp822
sg13
((I0
I0
tp823
tp824
sg14
I5
sbsS'gaintRoomWithWall'
p825
(imulti_robot_problem
MultiRobotState
p826
(dp827
g19
g20
((lp828
(I2
I4
tp829
atp830
Rp831
sg15
I5
sg30
g20
((lp832
(I4
I0
tp833
a(I4
I4
tp834
a(I0
I4
tp835
atp836
Rp837
sg13
((I0
I0
tp838
tp839
sg14
I5
sbsS'split'
p840
(imulti_robot_problem
MultiRobotState
p841
(dp842
g19
g579
sg15
I10
sg30
g20
((lp843
(I0
I9
tp844
a(I9
I0
tp845
a(I0
I0
tp846
a(I9
I9
tp847
atp848
Rp849
sg13
((I4
I4
tp850
(I5
I4
tp851
(I4
I5
tp852
(I5
I5
tp853
tp854
sg14
I10
sbsS'twoRobots'
p855
(imulti_robot_problem
MultiRobotState
p856
(dp857
g19
g579
sg15
I9
sg30
g20
((lp858
(I8
I0
tp859
a(I0
I0
tp860
atp861
Rp862
sg13
((I2
I0
tp863
(I0
I3
tp864
tp865
sg14
I4
sbssg130
S'static_rooms'
p866
sbsg130
g132
sg133
(dp867
g784
((lp868
F0.26000000000021828
tp869
sg799
((lp870
F0.11999999999989086
tp871
sg548
((lp872
F0.03999999999996362
tp873
sg814
((lp874
F0.01999999999998181
tp875
sg574
((lp876
F0.0099999999997635314
tp877
sg589
((lp878
F0.010000000000218279
tp879
sg601
((lp880
F21.269999999999982
tp881
sg855
((lp882
F0.010000000000218279
tp883
sg825
((lp884
F0.030000000000200089
tp885
sg630
((lp886
F1.4699999999997999
tp887
sg652
((lp888
F0.01999999999998181
tp889
sg673
((lp890
F6.8600000000001273
tp891
sg713
((lp892
F2.8099999999999454
tp893
sg735
((lp894
F0.0
tp895
sg746
((lp896
F11.380000000000109
tp897
sg773
((lp898
F0.0099999999997635314
tp899
sg840
((lp900
F0.25999999999976353
tp901
ssba.