(lp0
(imeasure_core
ProblemSetSolution
p1
(dp2
S'roomset'
p3
(imeasure_core
RoomSet
p4
(dp5
S'rooms'
p6
(dp7
(iproblems
RoomID
p8
(dp9
S'dusts'
p10
I8
sS'obstacles'
p11
(I2
I8
tp12
sS'robots'
p13
I4
sS'height'
p14
I10
sS'width'
p15
I7
sS'seed'
p16
I7106521602475165645
sb(imulti_robot_problem
MultiRobotState
p17
(dp18
S'obstacle_locations'
p19
c__builtin__
frozenset
p20
((lp21
(I3
I8
tp22
a(I5
I9
tp23
a(I4
I9
tp24
ag12
a(I5
I2
tp25
a(I5
I8
tp26
atp27
Rp28
sg15
I7
sS'dirt_locations'
p29
g20
((lp30
(I1
I2
tp31
a(I2
I7
tp32
a(I0
I0
tp33
a(I3
I1
tp34
a(I6
I0
tp35
a(I2
I1
tp36
a(I2
I3
tp37
a(I2
I5
tp38
atp39
Rp40
sg13
((I0
I8
tp41
(I4
I5
tp42
(I3
I9
tp43
(I1
I8
tp44
tp45
sg14
I10
sbs(iproblems
RoomID
p46
(dp47
g10
I10
sg11
(I3
I3
tp48
sg13
I4
sg14
I10
sg15
I8
sg16
I746805015404516437
sb(imulti_robot_problem
MultiRobotState
p49
(dp50
g19
g20
((lp51
(I7
I4
tp52
ag48
a(I4
I2
tp53
a(I6
I1
tp54
a(I3
I1
tp55
a(I4
I1
tp56
a(I1
I4
tp57
atp58
Rp59
sg15
I8
sg29
g20
((lp60
(I4
I6
tp61
a(I6
I3
tp62
a(I2
I0
tp63
a(I3
I9
tp64
a(I2
I3
tp65
a(I3
I6
tp66
a(I5
I1
tp67
a(I1
I0
tp68
a(I0
I8
tp69
a(I5
I8
tp70
atp71
Rp72
sg13
((I3
I8
tp73
(I4
I8
tp74
(I4
I9
tp75
(I0
I3
tp76
tp77
sg14
I10
sbs(iproblems
RoomID
p78
(dp79
g10
I6
sg11
(I7
I4
tp80
sg13
I2
sg14
I7
sg15
I9
sg16
I4029557120079369747
sb(imulti_robot_problem
MultiRobotState
p81
(dp82
g19
g20
((lp83
g80
a(I7
I5
tp84
a(I4
I1
tp85
a(I6
I1
tp86
a(I8
I5
tp87
a(I8
I4
tp88
atp89
Rp90
sg15
I9
sg29
g20
((lp91
(I2
I6
tp92
a(I6
I6
tp93
a(I3
I0
tp94
a(I2
I5
tp95
a(I1
I1
tp96
a(I5
I3
tp97
atp98
Rp99
sg13
((I6
I0
tp100
(I3
I1
tp101
tp102
sg14
I7
sbs(iproblems
RoomID
p103
(dp104
g10
I5
sg11
(I4
I5
tp105
sg13
I1
sg14
I9
sg15
I8
sg16
I6604845167042249220
sb(imulti_robot_problem
MultiRobotState
p106
(dp107
g19
g20
((lp108
(I7
I4
tp109
ag105
a(I5
I4
tp110
a(I6
I1
tp111
a(I6
I5
tp112
atp113
Rp114
sg15
I8
sg29
g20
((lp115
(I2
I8
tp116
a(I1
I0
tp117
a(I1
I1
tp118
a(I4
I3
tp119
a(I4
I8
tp120
atp121
Rp122
sg13
((I3
I6
tp123
tp124
sg14
I9
sbs(iproblems
RoomID
p125
(dp126
g10
I9
sg11
(I7
I6
tp127
sg13
I5
sg14
I9
sg15
I9
sg16
I8963783824838420066
sb(imulti_robot_problem
MultiRobotState
p128
(dp129
g19
g20
((lp130
(I2
I7
tp131
a(I5
I5
tp132
a(I6
I6
tp133
ag127
a(I4
I4
tp134
a(I7
I1
tp135
a(I7
I5
tp136
a(I2
I2
tp137
a(I6
I5
tp138
atp139
Rp140
sg15
I9
sg29
g20
((lp141
(I3
I0
tp142
a(I2
I1
tp143
a(I6
I3
tp144
a(I0
I7
tp145
a(I3
I7
tp146
a(I8
I6
tp147
a(I0
I8
tp148
a(I8
I5
tp149
a(I7
I2
tp150
atp151
Rp152
sg13
((I7
I7
tp153
(I2
I4
tp154
(I3
I2
tp155
(I4
I7
tp156
(I5
I0
tp157
tp158
sg14
I9
sbssS'name'
p159
S'easy_roomset'
p160
sbsg159
S"AnytimeBeam-w5-gf(1.3, 'exp')_with_PowerHeuristic2"
p161
sS'solutions'
p162
(dp163
g8
((lp164
(F0.39000000000000001
I15
tp165
aF40.049999999999997
tp166
sg46
((lp167
(F1.4200000000000017
I25
tp168
a(F6.4200000000000017
I20
tp169
aF40.019999999999996
tp170
sg78
((lp171
(F0.07000000000000739
I18
tp172
aF40.0
tp173
sg103
((lp174
(F0.060000000000002274
I41
tp175
a(F0.10999999999999943
I37
tp176
a(F0.26000000000000512
I35
tp177
a(F2.75
I33
tp178
a(F3.6099999999999994
I30
tp179
a(F4.2999999999999972
I26
tp180
a(F5.0799999999999983
I25
tp181
a(F5.8299999999999983
I23
tp182
a(F6.5700000000000074
I21
tp183
a(F7.8799999999999955
I20
tp184
a(F9.0999999999999943
I18
tp185
aF40.0
tp186
sg125
((lp187
(F1.1599999999999966
I7
tp188
aF40.210000000000008
tp189
ssba(imeasure_core
ProblemSetSolution
p190
(dp191
g3
(imeasure_core
RoomSet
p192
(dp193
g6
(dp194
(iproblems
RoomID
p195
(dp196
g10
I6
sg11
(I5
I8
tp197
sg13
I3
sg14
I9
sg15
I11
sg16
I4029557120079369747
sb(imulti_robot_problem
MultiRobotState
p198
(dp199
g19
g20
((lp200
(I7
I3
tp201
a(I1
I3
tp202
a(I4
I8
tp203
a(I10
I6
tp204
a(I7
I1
tp205
a(I1
I4
tp206
a(I3
I7
tp207
a(I5
I1
tp208
a(I2
I5
tp209
a(I8
I5
tp210
ag197
a(I10
I5
tp211
a(I4
I6
tp212
a(I10
I7
tp213
a(I9
I6
tp214
a(I6
I1
tp215
a(I4
I4
tp216
a(I6
I3
tp217
a(I3
I6
tp218
a(I1
I7
tp219
a(I9
I5
tp220
a(I2
I4
tp221
a(I8
I4
tp222
atp223
Rp224
sg15
I11
sg29
g20
((lp225
(I3
I8
tp226
a(I8
I8
tp227
a(I7
I2
tp228
a(I5
I2
tp229
a(I1
I1
tp230
a(I2
I1
tp231
atp232
Rp233
sg13
((I8
I0
tp234
(I3
I1
tp235
(I4
I0
tp236
tp237
sg14
I9
sbs(iproblems
RoomID
p238
(dp239
g10
I10
sg11
(I4
I4
tp240
sg13
I4
sg14
I12
sg15
I12
sg16
I2569146471088859254
sb(imulti_robot_problem
MultiRobotState
p241
(dp242
g19
g20
((lp243
(I5
I4
tp244
a(I4
I8
tp245
a(I4
I5
tp246
a(I11
I2
tp247
a(I4
I7
tp248
a(I1
I9
tp249
a(I10
I3
tp250
a(I5
I8
tp251
a(I5
I5
tp252
a(I3
I3
tp253
ag240
a(I2
I11
tp254
a(I5
I6
tp255
a(I7
I2
tp256
a(I4
I3
tp257
a(I2
I2
tp258
a(I10
I0
tp259
a(I5
I11
tp260
a(I1
I1
tp261
atp262
Rp263
sg15
I12
sg29
g20
((lp264
(I2
I7
tp265
a(I10
I10
tp266
a(I3
I0
tp267
a(I3
I11
tp268
a(I0
I2
tp269
a(I1
I5
tp270
a(I9
I4
tp271
a(I0
I8
tp272
a(I2
I4
tp273
a(I11
I6
tp274
atp275
Rp276
sg13
((I9
I11
tp277
(I7
I10
tp278
(I6
I0
tp279
(I10
I1
tp280
tp281
sg14
I12
sbs(iproblems
RoomID
p282
(dp283
g10
I6
sg11
(I4
I5
tp284
sg13
I3
sg14
I12
sg15
I12
sg16
I1360307757430227195
sb(imulti_robot_problem
MultiRobotState
p285
(dp286
g19
g20
((lp287
(I6
I4
tp288
a(I3
I2
tp289
a(I10
I4
tp290
a(I3
I0
tp291
a(I5
I4
tp292
a(I7
I5
tp293
a(I5
I1
tp294
a(I8
I5
tp295
a(I6
I5
tp296
a(I4
I0
tp297
a(I7
I4
tp298
a(I8
I3
tp299
a(I6
I7
tp300
a(I5
I5
tp301
a(I8
I10
tp302
a(I6
I3
tp303
a(I5
I6
tp304
a(I6
I2
tp305
ag284
a(I9
I5
tp306
a(I5
I3
tp307
atp308
Rp309
sg15
I12
sg29
g20
((lp310
(I3
I3
tp311
a(I4
I3
tp312
a(I9
I2
tp313
a(I5
I7
tp314
a(I0
I2
tp315
a(I11
I6
tp316
atp317
Rp318
sg13
((I11
I11
tp319
(I1
I3
tp320
(I0
I1
tp321
tp322
sg14
I12
sbs(iproblems
RoomID
p323
(dp324
g10
I7
sg11
(I5
I4
tp325
sg13
I3
sg14
I11
sg15
I12
sg16
I2577854692418029171
sb(imulti_robot_problem
MultiRobotState
p326
(dp327
g19
g20
((lp328
(I4
I7
tp329
a(I3
I0
tp330
a(I8
I0
tp331
a(I2
I1
tp332
a(I6
I2
tp333
a(I1
I6
tp334
a(I5
I1
tp335
a(I4
I0
tp336
a(I1
I2
tp337
a(I4
I9
tp338
a(I3
I3
tp339
a(I8
I1
tp340
a(I3
I10
tp341
a(I6
I3
tp342
a(I3
I6
tp343
a(I1
I10
tp344
a(I8
I6
tp345
a(I3
I5
tp346
ag325
a(I2
I6
tp347
a(I7
I1
tp348
a(I6
I0
tp349
a(I1
I9
tp350
a(I4
I2
tp351
a(I0
I8
tp352
a(I5
I3
tp353
a(I0
I1
tp354
a(I7
I0
tp355
a(I5
I2
tp356
a(I6
I1
tp357
a(I3
I1
tp358
a(I3
I8
tp359
a(I3
I4
tp360
a(I2
I4
tp361
atp362
Rp363
sg15
I12
sg29
g20
((lp364
(I4
I10
tp365
a(I10
I5
tp366
a(I10
I1
tp367
a(I2
I8
tp368
a(I7
I6
tp369
a(I4
I4
tp370
a(I9
I7
tp371
atp372
Rp373
sg13
((I10
I6
tp374
(I1
I4
tp375
(I11
I8
tp376
tp377
sg14
I11
sbs(iproblems
RoomID
p378
(dp379
g10
I6
sg11
(I2
I4
tp380
sg13
I3
sg14
I10
sg15
I10
sg16
I1821862095355237593
sb(imulti_robot_problem
MultiRobotState
p381
(dp382
g19
g20
((lp383
(I6
I4
tp384
a(I4
I7
tp385
a(I2
I6
tp386
a(I5
I6
tp387
a(I6
I0
tp388
a(I1
I9
tp389
a(I8
I5
tp390
a(I7
I2
tp391
a(I7
I9
tp392
a(I5
I3
tp393
a(I6
I7
tp394
a(I3
I3
tp395
a(I5
I5
tp396
a(I4
I4
tp397
a(I6
I3
tp398
a(I4
I5
tp399
a(I6
I5
tp400
a(I4
I3
tp401
a(I0
I4
tp402
a(I8
I6
tp403
a(I3
I5
tp404
a(I3
I4
tp405
ag380
atp406
Rp407
sg15
I10
sg29
g20
((lp408
(I0
I6
tp409
a(I7
I0
tp410
a(I5
I1
tp411
a(I2
I3
tp412
a(I2
I8
tp413
a(I9
I6
tp414
atp415
Rp416
sg13
((I2
I2
tp417
(I4
I2
tp418
(I0
I7
tp419
tp420
sg14
I10
sbssg159
S'mild_roomset'
p421
sbsg159
g161
sg162
(dp422
g195
((lp423
(F0.069999999999993179
I15
tp424
aF40.0
tp425
sg238
((lp426
(F8.25
I122
tp427
aF40.019999999999982
tp428
sg323
((lp429
(F1.9200000000000159
I118
tp430
a(F3.6899999999999977
I114
tp431
a(F4.2400000000000091
I34
tp432
a(F6.4300000000000068
I29
tp433
aF40.0
tp434
sg378
((lp435
(F0.079999999999984084
I13
tp436
aF40.03000000000003
tp437
sg282
((lp438
F40.120000000000005
tp439
ssba(imeasure_core
ProblemSetSolution
p440
(dp441
g3
(imeasure_core
RoomSet
p442
(dp443
g6
(dp444
(iproblems
RoomID
p445
(dp446
g10
I13
sg11
(I5
I3
tp447
sg13
I6
sg14
I13
sg15
I10
sg16
I7106521602475165645
sb(imulti_robot_problem
MultiRobotState
p448
(dp449
g19
g20
((lp450
(I5
I6
tp451
a(I5
I11
tp452
a(I7
I12
tp453
a(I0
I12
tp454
a(I2
I3
tp455
a(I6
I12
tp456
a(I7
I2
tp457
ag447
a(I1
I2
tp458
a(I4
I5
tp459
a(I8
I12
tp460
a(I7
I1
tp461
a(I2
I11
tp462
a(I6
I3
tp463
a(I6
I11
tp464
a(I0
I4
tp465
a(I0
I9
tp466
a(I0
I5
tp467
a(I3
I4
tp468
atp469
Rp470
sg15
I10
sg29
g20
((lp471
(I0
I1
tp472
a(I8
I3
tp473
a(I4
I6
tp474
a(I7
I11
tp475
a(I6
I9
tp476
a(I0
I11
tp477
a(I3
I9
tp478
a(I2
I12
tp479
a(I8
I6
tp480
a(I5
I1
tp481
a(I3
I7
tp482
a(I0
I3
tp483
a(I3
I5
tp484
atp485
Rp486
sg13
((I0
I10
tp487
(I6
I7
tp488
(I4
I11
tp489
(I1
I11
tp490
(I9
I0
tp491
(I3
I1
tp492
tp493
sg14
I13
sbs(iproblems
RoomID
p494
(dp495
g10
I15
sg11
(I9
I4
tp496
sg13
I6
sg14
I13
sg15
I11
sg16
I746805015404516437
sb(imulti_robot_problem
MultiRobotState
p497
(dp498
g19
g20
((lp499
(I8
I0
tp500
a(I4
I8
tp501
a(I4
I5
tp502
a(I10
I6
tp503
a(I6
I0
tp504
a(I3
I5
tp505
a(I3
I9
tp506
ag496
a(I4
I2
tp507
a(I7
I2
tp508
a(I7
I9
tp509
a(I10
I5
tp510
a(I5
I5
tp511
a(I4
I4
tp512
a(I1
I8
tp513
a(I8
I6
tp514
a(I5
I3
tp515
a(I5
I2
tp516
a(I2
I4
tp517
a(I9
I7
tp518
atp519
Rp520
sg15
I11
sg29
g20
((lp521
(I3
I12
tp522
a(I9
I1
tp523
a(I7
I1
tp524
a(I8
I1
tp525
a(I6
I10
tp526
a(I8
I9
tp527
a(I2
I0
tp528
a(I2
I3
tp529
a(I0
I10
tp530
a(I2
I2
tp531
a(I7
I11
tp532
a(I2
I5
tp533
a(I8
I5
tp534
a(I5
I8
tp535
a(I4
I11
tp536
atp537
Rp538
sg13
((I4
I10
tp539
(I6
I11
tp540
(I5
I12
tp541
(I0
I5
tp542
(I1
I0
tp543
(I7
I10
tp544
tp545
sg14
I13
sbs(iproblems
RoomID
p546
(dp547
g10
I11
sg11
(I9
I6
tp548
sg13
I6
sg14
I10
sg15
I12
sg16
I4029557120079369747
sb(imulti_robot_problem
MultiRobotState
p549
(dp550
g19
g20
((lp551
(I11
I7
tp552
a(I10
I6
tp553
a(I5
I5
tp554
a(I7
I1
tp555
a(I10
I7
tp556
a(I9
I8
tp557
a(I4
I4
tp558
a(I1
I6
tp559
a(I3
I6
tp560
a(I1
I7
tp561
ag548
a(I11
I6
tp562
atp563
Rp564
sg15
I12
sg29
g20
((lp565
(I1
I2
tp566
a(I1
I3
tp567
a(I4
I9
tp568
a(I8
I2
tp569
a(I8
I1
tp570
a(I6
I1
tp571
a(I2
I1
tp572
a(I7
I4
tp573
a(I1
I8
tp574
a(I5
I2
tp575
a(I1
I1
tp576
atp577
Rp578
sg13
((I8
I0
tp579
(I4
I1
tp580
(I4
I0
tp581
(I3
I9
tp582
(I8
I9
tp583
(I3
I8
tp584
tp585
sg14
I10
sbs(iproblems
RoomID
p586
(dp587
g10
I15
sg11
(I5
I5
tp588
sg13
I6
sg14
I13
sg15
I13
sg16
I2569146471088859254
sb(imulti_robot_problem
MultiRobotState
p589
(dp590
g19
g20
((lp591
(I12
I2
tp592
a(I5
I4
tp593
a(I3
I3
tp594
a(I5
I9
tp595
a(I4
I5
tp596
a(I6
I1
tp597
a(I10
I10
tp598
a(I8
I8
tp599
a(I4
I3
tp600
a(I2
I2
tp601
a(I9
I11
tp602
a(I8
I12
tp603
a(I1
I1
tp604
a(I12
I3
tp605
ag588
atp606
Rp607
sg15
I13
sg29
g20
((lp608
(I10
I5
tp609
a(I3
I12
tp610
a(I8
I2
tp611
a(I5
I6
tp612
a(I12
I7
tp613
a(I11
I3
tp614
a(I0
I2
tp615
a(I11
I0
tp616
a(I0
I9
tp617
a(I2
I12
tp618
a(I1
I10
tp619
a(I3
I7
tp620
a(I10
I11
tp621
a(I2
I4
tp622
a(I5
I12
tp623
atp624
Rp625
sg13
((I9
I12
tp626
(I7
I11
tp627
(I7
I0
tp628
(I10
I1
tp629
(I1
I5
tp630
(I4
I0
tp631
tp632
sg14
I13
sbs(iproblems
RoomID
p633
(dp634
g10
I10
sg11
(I6
I7
tp635
sg13
I5
sg14
I12
sg15
I11
sg16
I6604845167042249220
sb(imulti_robot_problem
MultiRobotState
p636
(dp637
g19
g20
((lp638
(I9
I0
tp639
ag635
a(I7
I1
tp640
a(I2
I8
tp641
a(I10
I6
tp642
a(I7
I7
tp643
a(I8
I8
tp644
a(I9
I4
tp645
a(I8
I6
tp646
a(I7
I11
tp647
a(I9
I7
tp648
atp649
Rp650
sg15
I11
sg29
g20
((lp651
(I10
I5
tp652
a(I3
I3
tp653
a(I5
I11
tp654
a(I8
I1
tp655
a(I9
I8
tp656
a(I6
I9
tp657
a(I0
I7
tp658
a(I0
I10
tp659
a(I4
I1
tp660
a(I8
I4
tp661
atp662
Rp663
sg13
((I4
I8
tp664
(I1
I0
tp665
(I2
I2
tp666
(I3
I11
tp667
(I6
I5
tp668
tp669
sg14
I12
sbssg159
S'heavy_roomset'
p670
sbsg159
g161
sg162
(dp671
g445
((lp672
F40.339999999999975
tp673
sg494
((lp674
F40.560000000000002
tp675
sg546
((lp676
(F6.0600000000000023
I6
tp677
aF41.060000000000002
tp678
sg586
((lp679
(F30.32000000000005
I27
tp680
aF40.629999999999995
tp681
sg633
((lp682
(F4.3899999999999864
I23
tp683
a(F14.710000000000036
I21
tp684
aF40.0
tp685
ssba(imeasure_core
ProblemSetSolution
p686
(dp687
g3
g4
sg159
S"AnytimeBeam-w15-gf(1.3, 'exp')_with_PowerHeuristic2"
p688
sg162
(dp689
g8
((lp690
(F0.53999999999996362
I15
tp691
aF40.310000000000059
tp692
sg46
((lp693
(F1.6699999999999591
I20
tp694
aF40.039999999999964
tp695
sg78
((lp696
(F0.069999999999936335
I18
tp697
aF40.0
tp698
sg103
((lp699
(F0.069999999999936335
I35
tp700
a(F2.4499999999999318
I33
tp701
a(F3.3099999999999454
I30
tp702
a(F4.0
I26
tp703
a(F4.7799999999999727
I25
tp704
a(F5.5299999999999727
I23
tp705
a(F6.2799999999999727
I21
tp706
a(F7.5900000000000318
I20
tp707
a(F8.8099999999999454
I18
tp708
aF40.0
tp709
sg125
((lp710
(F1.2899999999999636
I7
tp711
aF40.470000000000027
tp712
ssba(imeasure_core
ProblemSetSolution
p713
(dp714
g3
g192
sg159
g688
sg162
(dp715
g195
((lp716
(F0.12999999999999545
I15
tp717
aF40.029999999999973
tp718
sg238
((lp719
(F4.7300000000000182
I122
tp720
aF40.0
tp721
sg323
((lp722
(F1.67999999999995
I118
tp723
a(F2.1999999999999318
I34
tp724
a(F4.2599999999999909
I29
tp725
aF40.0
tp726
sg378
((lp727
(F0.12999999999999545
I13
tp728
aF40.0
tp729
sg282
((lp730
F40.100000000000023
tp731
ssba(imeasure_core
ProblemSetSolution
p732
(dp733
g3
g442
sg159
g688
sg162
(dp734
g445
((lp735
F40.889999999999986
tp736
sg494
((lp737
F40.490000000000009
tp738
sg546
((lp739
(F6.5099999999999909
I6
tp740
aF40.119999999999891
tp741
sg586
((lp742
(F31.930000000000064
I27
tp743
aF40.470000000000027
tp744
sg633
((lp745
(F5.25
I21
tp746
aF40.190000000000055
tp747
ssba(imeasure_core
ProblemSetSolution
p748
(dp749
g3
g4
sg159
S"AnytimeBeam-w25-gf(1.3, 'exp')_with_PowerHeuristic2"
p750
sg162
(dp751
g8
((lp752
(F0.60999999999989996
I15
tp753
aF40.059999999999945
tp754
sg46
((lp755
(F1.7999999999999545
I20
tp756
aF40.029999999999973
tp757
sg78
((lp758
(F0.090000000000145519
I18
tp759
aF40.009999999999991
tp760
sg103
((lp761
(F0.070000000000163709
I35
tp762
a(F2.8400000000001455
I33
tp763
a(F3.7000000000000455
I30
tp764
a(F4.3900000000001
I26
tp765
a(F5.1700000000000728
I25
tp766
a(F5.9200000000000728
I23
tp767
a(F6.6700000000000728
I21
tp768
a(F7.9800000000000182
I20
tp769
a(F9.2000000000000455
I18
tp770
aF40.0
tp771
sg125
((lp772
(F1.3100000000001728
I7
tp773
aF40.759999999999991
tp774
ssba(imeasure_core
ProblemSetSolution
p775
(dp776
g3
g192
sg159
g750
sg162
(dp777
g195
((lp778
(F0.15999999999985448
I15
tp779
aF40.029999999999973
tp780
sg238
((lp781
(F5.3499999999999091
I122
tp782
aF40.029999999999973
tp783
sg323
((lp784
(F0.55999999999994543
I34
tp785
a(F1.9699999999997999
I29
tp786
aF40.019999999999982
tp787
sg378
((lp788
(F0.16999999999984539
I13
tp789
aF40.029999999999973
tp790
sg282
((lp791
F40.190000000000055
tp792
ssba(imeasure_core
ProblemSetSolution
p793
(dp794
g3
g442
sg159
g750
sg162
(dp795
g445
((lp796
F40.8599999999999
tp797
sg494
((lp798
F40.519999999999982
tp799
sg546
((lp800
(F6.5599999999999454
I6
tp801
aF41.330000000000155
tp802
sg586
((lp803
(F32.25
I27
tp804
aF40.809999999999945
tp805
sg633
((lp806
(F5.3599999999999
I21
tp807
aF40.349999999999909
tp808
ssba(imeasure_core
ProblemSetSolution
p809
(dp810
g3
g4
sg159
S"AnytimeBeam-w35-gf(1.3, 'exp')_with_PowerHeuristic2"
p811
sg162
(dp812
g8
((lp813
(F0.73000000000001819
I15
tp814
aF40.059999999999945
tp815
sg46
((lp816
(F1.9400000000000546
I20
tp817
aF40.170000000000073
tp818
sg78
((lp819
(F0.10000000000013642
I18
tp820
aF40.009999999999991
tp821
sg103
((lp822
(F0.10000000000013642
I35
tp823
a(F1.8600000000001273
I33
tp824
a(F2.7300000000000182
I30
tp825
a(F3.4200000000000728
I26
tp826
a(F4.2100000000000364
I25
tp827
a(F4.9700000000000273
I23
tp828
a(F5.7200000000000273
I21
tp829
a(F7.0399999999999636
I20
tp830
a(F8.2699999999999818
I18
tp831
aF40.0
tp832
sg125
((lp833
(F1.3800000000001091
I7
tp834
aF40.259999999999991
tp835
ssba(imeasure_core
ProblemSetSolution
p836
(dp837
g3
g192
sg159
g811
sg162
(dp838
g195
((lp839
(F0.21000000000003638
I15
tp840
aF40.040000000000191
tp841
sg238
((lp842
(F5.8899999999998727
I122
tp843
aF40.039999999999964
tp844
sg323
((lp845
(F0.67999999999983629
I34
tp846
a(F1.3899999999998727
I29
tp847
aF40.079999999999927
tp848
sg378
((lp849
(F0.1999999999998181
I13
tp850
aF40.0
tp851
sg282
((lp852
F40.059999999999945
tp853
ssba(imeasure_core
ProblemSetSolution
p854
(dp855
g3
g442
sg159
g811
sg162
(dp856
g445
((lp857
F40.839999999999691
tp858
sg494
((lp859
F40.599999999999909
tp860
sg546
((lp861
(F6.8000000000001819
I6
tp862
aF40.950000000000273
tp863
sg586
((lp864
(F33.210000000000036
I27
tp865
aF41.75
tp866
sg633
((lp867
(F5.6999999999998181
I21
tp868
aF40.360000000000127
tp869
ssba(imeasure_core
ProblemSetSolution
p870
(dp871
g3
g4
sg159
S"AnytimeBeam-w45-gf(1.3, 'exp')_with_PowerHeuristic2"
p872
sg162
(dp873
g8
((lp874
(F0.78999999999996362
I15
tp875
aF40.260000000000218
tp876
sg46
((lp877
(F2.0199999999999818
I20
tp878
aF40.1899999999996
tp879
sg78
((lp880
(F0.090000000000145519
I18
tp881
aF40.010000000000218
tp882
sg103
((lp883
(F0.099999999999909051
I35
tp884
a(F1.4600000000000364
I33
tp885
a(F2.3200000000001637
I30
tp886
a(F3.0
I26
tp887
a(F3.7800000000002001
I25
tp888
a(F4.5399999999999636
I23
tp889
a(F5.2800000000002001
I21
tp890
a(F6.5999999999999091
I20
tp891
a(F7.8099999999999454
I18
tp892
aF40.0
tp893
sg125
((lp894
(F1.4099999999998545
I7
tp895
aF40.889999999999873
tp896
ssba(imeasure_core
ProblemSetSolution
p897
(dp898
g3
g192
sg159
g872
sg162
(dp899
g195
((lp900
(F0.21999999999979991
I15
tp901
aF40.019999999999982
tp902
sg238
((lp903
(F6.2899999999999636
I122
tp904
aF40.5
tp905
sg323
((lp906
(F0.71000000000003638
I29
tp907
aF40.110000000000127
tp908
sg378
((lp909
(F0.23000000000001819
I13
tp910
aF40.029999999999745
tp911
sg282
((lp912
F40.059999999999945
tp913
ssba(imeasure_core
ProblemSetSolution
p914
(dp915
g3
g442
sg159
g872
sg162
(dp916
g445
((lp917
F40.849999999999909
tp918
sg494
((lp919
F40.760000000000218
tp920
sg546
((lp921
(F6.8499999999999091
I6
tp922
aF40.599999999999909
tp923
sg586
((lp924
(F33.650000000000091
I27
tp925
aF40.369999999999891
tp926
sg633
((lp927
(F5.8400000000001455
I21
tp928
aF40.010000000000218
tp929
ssba(imeasure_core
ProblemSetSolution
p930
(dp931
g3
g4
sg159
S"AnytimeBeam-w5-gf(1.3, 'exp')_with_LinearHeuristic"
p932
sg162
(dp933
g8
((lp934
(F20.330000000000382
I155
tp935
aF40.040000000000418
tp936
sg46
((lp937
(F1.0999999999999091
I24
tp938
aF40.009999999999764
tp939
sg78
((lp940
(F0.030000000000200089
I10
tp941
aF40.010000000000218
tp942
sg103
((lp943
(F0.0099999999997635314
I18
tp944
aF40.0
tp945
sg125
((lp946
(F21.799999999999727
I91
tp947
aF40.0
tp948
ssba(imeasure_core
ProblemSetSolution
p949
(dp950
g3
g192
sg159
g932
sg162
(dp951
g195
((lp952
F40.010000000000218
tp953
sg238
((lp954
F40.059999999999945
tp955
sg323
((lp956
F40.0300000000002
tp957
sg378
((lp958
(F19.489999999999782
I134
tp959
aF40.029999999999745
tp960
sg282
((lp961
F40.159999999999854
tp962
ssba(imeasure_core
ProblemSetSolution
p963
(dp964
g3
g442
sg159
g932
sg162
(dp965
g445
((lp966
F40.349999999999909
tp967
sg494
((lp968
F41.170000000000073
tp969
sg546
((lp970
(F7.3699999999998909
I7
tp971
aF40.730000000000018
tp972
sg586
((lp973
F40.599999999999909
tp974
sg633
((lp975
F40.039999999999964
tp976
ssba(imeasure_core
ProblemSetSolution
p977
(dp978
g3
g4
sg159
S"AnytimeBeam-w15-gf(1.3, 'exp')_with_LinearHeuristic"
p979
sg162
(dp980
g8
((lp981
(F11.320000000000164
I155
tp982
aF40.0
tp983
sg46
((lp984
(F1.4000000000000909
I24
tp985
aF40.159999999999854
tp986
sg78
((lp987
(F0.03999999999996362
I10
tp988
aF40.0
tp989
sg103
((lp990
(F0.010000000000218279
I18
tp991
aF40.0
tp992
sg125
((lp993
(F13.870000000000346
I91
tp994
aF40.0
tp995
ssba(imeasure_core
ProblemSetSolution
p996
(dp997
g3
g192
sg159
g979
sg162
(dp998
g195
((lp999
F40.039999999999964
tp1000
sg238
((lp1001
F40.010000000000218
tp1002
sg323
((lp1003
(F31.110000000000127
I440
tp1004
aF40.039999999999964
tp1005
sg378
((lp1006
(F16.420000000000073
I134
tp1007
aF40.090000000000146
tp1008
sg282
((lp1009
F40.0
tp1010
ssba(imeasure_core
ProblemSetSolution
p1011
(dp1012
g3
g442
sg159
g979
sg162
(dp1013
g445
((lp1014
F40.299999999999727
tp1015
sg494
((lp1016
F40.739999999999782
tp1017
sg546
((lp1018
(F8.6400000000003274
I7
tp1019
aF41.650000000000546
tp1020
sg586
((lp1021
F41.630000000000109
tp1022
sg633
((lp1023
F40.009999999999309
tp1024
ssba(imeasure_core
ProblemSetSolution
p1025
(dp1026
g3
g4
sg159
S"AnytimeBeam-w25-gf(1.3, 'exp')_with_LinearHeuristic"
p1027
sg162
(dp1028
g8
((lp1029
(F12.100000000000364
I155
tp1030
aF40.159999999999854
tp1031
sg46
((lp1032
(F1.6300000000001091
I24
tp1033
aF40.25
tp1034
sg78
((lp1035
(F0.03999999999996362
I10
tp1036
aF40.0
tp1037
sg103
((lp1038
(F0.010000000000218279
I18
tp1039
aF40.0
tp1040
sg125
((lp1041
(F14.539999999999964
I91
tp1042
aF40.070000000000618
tp1043
ssba(imeasure_core
ProblemSetSolution
p1044
(dp1045
g3
g192
sg159
g1027
sg162
(dp1046
g195
((lp1047
F40.010000000000218
tp1048
sg238
((lp1049
F40.0
tp1050
sg323
((lp1051
F40.069999999999709
tp1052
sg378
((lp1053
(F6.2300000000004729
I134
tp1054
a(F39.529999999999745
I133
tp1055
aF40.0
tp1056
sg282
((lp1057
F40.0600000000004
tp1058
ssba(imeasure_core
ProblemSetSolution
p1059
(dp1060
g3
g442
sg159
g1027
sg162
(dp1061
g445
((lp1062
F40.3100000000004
tp1063
sg494
((lp1064
F40.839999999999236
tp1065
sg546
((lp1066
(F8.8400000000001455
I7
tp1067
aF40.490000000000691
tp1068
sg586
((lp1069
F40.119999999999891
tp1070
sg633
((lp1071
F40.220000000000255
tp1072
ssba(imeasure_core
ProblemSetSolution
p1073
(dp1074
g3
g4
sg159
S"AnytimeBeam-w35-gf(1.3, 'exp')_with_LinearHeuristic"
p1075
sg162
(dp1076
g8
((lp1077
(F13.489999999999782
I155
tp1078
aF40.149999999999636
tp1079
sg46
((lp1080
(F1.8599999999996726
I24
tp1081
aF40.130000000000109
tp1082
sg78
((lp1083
(F0.059999999999490683
I10
tp1084
aF40.0
tp1085
sg103
((lp1086
(F0.010000000000218279
I18
tp1087
aF40.0
tp1088
sg125
((lp1089
(F15.859999999999673
I91
tp1090
aF40.130000000000109
tp1091
ssba(imeasure_core
ProblemSetSolution
p1092
(dp1093
g3
g192
sg159
g1075
sg162
(dp1094
g195
((lp1095
F40.099999999999454
tp1096
sg238
((lp1097
F40.140000000000327
tp1098
sg323
((lp1099
F40.160000000000764
tp1100
sg378
((lp1101
(F6.9599999999991269
I134
tp1102
a(F24.1299999999992
I133
tp1103
a(F35.179999999999382
I132
tp1104
aF40.029999999999745
tp1105
sg282
((lp1106
F40.1899999999996
tp1107
ssba(imeasure_core
ProblemSetSolution
p1108
(dp1109
g3
g442
sg159
g1075
sg162
(dp1110
g445
((lp1111
F40.210000000000036
tp1112
sg494
((lp1113
F40.130000000000109
tp1114
sg546
((lp1115
(F9.3299999999999272
I7
tp1116
aF41.309999999999491
tp1117
sg586
((lp1118
F40.860000000000582
tp1119
sg633
((lp1120
F40.599999999999454
tp1121
ssba(imeasure_core
ProblemSetSolution
p1122
(dp1123
g3
g4
sg159
S"AnytimeBeam-w45-gf(1.3, 'exp')_with_LinearHeuristic"
p1124
sg162
(dp1125
g8
((lp1126
(F14.210000000000036
I155
tp1127
aF40.020000000000437
tp1128
sg46
((lp1129
(F1.9799999999995634
I24
tp1130
aF40.269999999999527
tp1131
sg78
((lp1132
(F0.060000000000400178
I10
tp1133
aF40.010000000000218
tp1134
sg103
((lp1135
(F0.010000000000218279
I18
tp1136
aF40.0
tp1137
sg125
((lp1138
(F16.529999999999745
I91
tp1139
aF40.079999999999927
tp1140
ssba(imeasure_core
ProblemSetSolution
p1141
(dp1142
g3
g192
sg159
g1124
sg162
(dp1143
g195
((lp1144
F40.029999999999745
tp1145
sg238
((lp1146
F40.0600000000004
tp1147
sg323
((lp1148
F40.109999999999673
tp1149
sg378
((lp1150
(F7.2600000000002183
I134
tp1151
a(F16.720000000000255
I133
tp1152
a(F27.699999999999818
I132
tp1153
a(F38.789999999999964
I131
tp1154
aF40.020000000000437
tp1155
sg282
((lp1156
F40.170000000000073
tp1157
ssba(imeasure_core
ProblemSetSolution
p1158
(dp1159
g3
g442
sg159
g1124
sg162
(dp1160
g445
((lp1161
F40.260000000000218
tp1162
sg494
((lp1163
F40.260000000000218
tp1164
sg546
((lp1165
(F9.4499999999998181
I7
tp1166
aF40.199999999999818
tp1167
sg586
((lp1168
F41.170000000000073
tp1169
sg633
((lp1170
F40.550000000000182
tp1171
ssba.