(lp0
(imeasure_core
ProblemSetSolution
p1
(dp2
S'roomset'
p3
(imeasure_core
RoomSet
p4
(dp5
S'rooms'
p6
(dp7
(iproblems
RoomID
p8
(dp9
S'dusts'
p10
I6
sS'obstacles'
p11
(I0
I4
tp12
sS'robots'
p13
I1
sS'height'
p14
I9
sS'width'
p15
I9
sS'seed'
p16
I1164115433906158532
sb(imulti_robot_problem
MultiRobotState
p17
(dp18
S'obstacle_locations'
p19
c__builtin__
frozenset
p20
((lp21
(I0
I1
tp22
a(I1
I2
tp23
a(I1
I3
tp24
a(I1
I4
tp25
ag12
atp26
Rp27
sg15
I9
sS'dirt_locations'
p28
g20
((lp29
(I6
I4
tp30
a(I1
I8
tp31
a(I1
I6
tp32
a(I1
I0
tp33
a(I8
I5
tp34
a(I3
I5
tp35
atp36
Rp37
sg13
((I4
I5
tp38
tp39
sg14
I9
sbs(iproblems
RoomID
p40
(dp41
g10
I8
sg11
(I6
I5
tp42
sg13
I5
sg14
I8
sg15
I7
sg16
I2175216119781798972
sb(imulti_robot_problem
MultiRobotState
p43
(dp44
g19
g20
((lp45
(I1
I2
tp46
a(I2
I6
tp47
a(I6
I7
tp48
a(I6
I6
tp49
a(I5
I7
tp50
a(I2
I3
tp51
a(I0
I4
tp52
a(I1
I0
tp53
ag42
atp54
Rp55
sg15
I7
sg28
g20
((lp56
(I5
I4
tp57
a(I5
I5
tp58
a(I4
I4
tp59
a(I0
I6
tp60
a(I0
I5
tp61
a(I1
I7
tp62
a(I4
I2
tp63
a(I0
I2
tp64
atp65
Rp66
sg13
((I1
I3
tp67
(I6
I4
tp68
(I3
I7
tp69
(I6
I0
tp70
(I2
I1
tp71
tp72
sg14
I8
sbs(iproblems
RoomID
p73
(dp74
g10
I5
sg11
(I0
I4
tp75
sg13
I5
sg14
I7
sg15
I7
sg16
I8711387064946514083
sb(imulti_robot_problem
MultiRobotState
p76
(dp77
g19
g20
((lp78
(I0
I1
tp79
a(I2
I2
tp80
a(I0
I2
tp81
a(I1
I5
tp82
ag75
a(I0
I3
tp83
a(I2
I4
tp84
a(I6
I5
tp85
atp86
Rp87
sg15
I7
sg28
g20
((lp88
(I5
I6
tp89
a(I6
I4
tp90
a(I3
I2
tp91
a(I6
I1
tp92
a(I6
I6
tp93
atp94
Rp95
sg13
((I1
I1
tp96
(I6
I0
tp97
(I5
I0
tp98
(I1
I3
tp99
(I4
I5
tp100
tp101
sg14
I7
sbs(iproblems
RoomID
p102
(dp103
g10
I9
sg11
(I2
I2
tp104
sg13
I2
sg14
I9
sg15
I7
sg16
I3872982626502034966
sb(imulti_robot_problem
MultiRobotState
p105
(dp106
g19
g20
((lp107
(I4
I1
tp108
a(I2
I6
tp109
a(I3
I1
tp110
a(I5
I0
tp111
ag104
atp112
Rp113
sg15
I7
sg28
g20
((lp114
(I4
I7
tp115
a(I2
I8
tp116
a(I4
I4
tp117
a(I3
I2
tp118
a(I2
I1
tp119
a(I1
I4
tp120
a(I4
I2
tp121
a(I0
I3
tp122
a(I5
I8
tp123
atp124
Rp125
sg13
((I1
I6
tp126
(I1
I7
tp127
tp128
sg14
I9
sbs(iproblems
RoomID
p129
(dp130
g10
I9
sg11
(I6
I3
tp131
sg13
I4
sg14
I9
sg15
I10
sg16
I7002664860023442459
sb(imulti_robot_problem
MultiRobotState
p132
(dp133
g19
g20
((lp134
(I7
I4
tp135
a(I7
I3
tp136
ag131
a(I6
I5
tp137
a(I9
I7
tp138
atp139
Rp140
sg15
I10
sg28
g20
((lp141
(I0
I0
tp142
a(I6
I8
tp143
a(I2
I8
tp144
a(I5
I7
tp145
a(I2
I6
tp146
a(I4
I2
tp147
a(I5
I1
tp148
a(I8
I6
tp149
a(I8
I4
tp150
atp151
Rp152
sg13
((I7
I5
tp153
(I7
I6
tp154
(I1
I7
tp155
(I1
I6
tp156
tp157
sg14
I9
sbssS'name'
p158
S'easy_roomset'
p159
sbsg158
S'AnytimeBest-dinf_with_PowerHeuristic2'
p160
sS'solutions'
p161
(dp162
g8
((lp163
(F0.25999999999999091
I42
tp164
a(F2.9300000000000637
I40
tp165
a(F3.1900000000000546
I34
tp166
a(F4.3899999999998727
I30
tp167
a(F5.0699999999999363
I28
tp168
a(F13.8599999999999
I26
tp169
aF17.0
tp170
sg40
((lp171
(F0.5
I5
tp172
aF40.119999999999891
tp173
sg73
((lp174
(F0.21000000000003638
I4
tp175
aF40.009999999999991
tp176
sg102
((lp177
(F0.73000000000001819
I66
tp178
a(F11.470000000000027
I65
tp179
a(F17.350000000000136
I64
tp180
a(F27.670000000000073
I63
tp181
a(F33.769999999999982
I62
tp182
aF40.029999999999973
tp183
sg129
((lp184
(F0.49000000000000909
I11
tp185
aF40.090000000000146
tp186
ssba(imeasure_core
ProblemSetSolution
p187
(dp188
g3
(imeasure_core
RoomSet
p189
(dp190
g6
(dp191
(iproblems
RoomID
p192
(dp193
g10
I6
sg11
(I5
I5
tp194
sg13
I3
sg14
I11
sg15
I11
sg16
I1164115433906158532
sb(imulti_robot_problem
MultiRobotState
p195
(dp196
g19
g20
((lp197
(I5
I4
tp198
a(I1
I3
tp199
a(I4
I3
tp200
a(I4
I8
tp201
a(I3
I0
tp202
a(I8
I0
tp203
a(I3
I2
tp204
a(I0
I7
tp205
a(I2
I1
tp206
a(I3
I9
tp207
a(I0
I5
tp208
a(I1
I4
tp209
a(I3
I7
tp210
a(I2
I5
tp211
a(I5
I3
tp212
a(I8
I3
tp213
a(I3
I1
tp214
ag194
a(I2
I0
tp215
a(I3
I10
tp216
a(I6
I10
tp217
a(I0
I6
tp218
a(I1
I8
tp219
a(I3
I6
tp220
a(I4
I5
tp221
a(I0
I2
tp222
atp223
Rp224
sg15
I11
sg28
g20
((lp225
(I7
I5
tp226
a(I8
I8
tp227
a(I4
I9
tp228
a(I4
I6
tp229
a(I10
I6
tp230
a(I8
I2
tp231
atp232
Rp233
sg13
((I5
I7
tp234
(I2
I10
tp235
(I2
I8
tp236
tp237
sg14
I11
sbs(iproblems
RoomID
p238
(dp239
g10
I8
sg11
(I5
I4
tp240
sg13
I4
sg14
I10
sg15
I9
sg16
I2175216119781798972
sb(imulti_robot_problem
MultiRobotState
p241
(dp242
g19
g20
((lp243
(I6
I6
tp244
a(I2
I8
tp245
a(I0
I7
tp246
a(I6
I2
tp247
a(I1
I6
tp248
a(I2
I5
tp249
a(I5
I5
tp250
a(I8
I1
tp251
a(I7
I6
tp252
a(I6
I3
tp253
a(I2
I2
tp254
a(I8
I6
tp255
a(I6
I4
tp256
ag240
a(I8
I2
tp257
a(I7
I1
tp258
a(I1
I4
tp259
a(I7
I5
tp260
a(I8
I7
tp261
a(I1
I0
tp262
a(I6
I5
tp263
a(I3
I3
tp264
a(I8
I3
tp265
a(I7
I0
tp266
a(I6
I8
tp267
a(I3
I4
tp268
a(I7
I4
tp269
a(I0
I6
tp270
a(I1
I8
tp271
a(I8
I8
tp272
a(I4
I3
tp273
a(I1
I7
tp274
a(I7
I8
tp275
a(I0
I2
tp276
atp277
Rp278
sg15
I9
sg28
g20
((lp279
(I6
I7
tp280
a(I2
I9
tp281
a(I5
I6
tp282
a(I3
I1
tp283
a(I8
I9
tp284
a(I0
I5
tp285
a(I0
I3
tp286
a(I5
I2
tp287
atp288
Rp289
sg13
((I2
I4
tp290
(I8
I5
tp291
(I4
I9
tp292
(I7
I7
tp293
tp294
sg14
I10
sbs(iproblems
RoomID
p295
(dp296
g10
I9
sg11
(I5
I3
tp297
sg13
I3
sg14
I9
sg15
I9
sg16
I1885758236351349410
sb(imulti_robot_problem
MultiRobotState
p298
(dp299
g19
g20
((lp300
(I4
I7
tp301
a(I5
I7
tp302
a(I7
I1
tp303
a(I5
I6
tp304
a(I5
I4
tp305
a(I0
I0
tp306
a(I2
I3
tp307
a(I4
I2
tp308
a(I8
I5
tp309
ag297
a(I6
I7
tp310
a(I5
I5
tp311
a(I4
I4
tp312
a(I1
I5
tp313
a(I4
I3
tp314
a(I0
I4
tp315
a(I1
I6
tp316
a(I3
I4
tp317
a(I2
I4
tp318
atp319
Rp320
sg15
I9
sg28
g20
((lp321
(I7
I3
tp322
a(I7
I0
tp323
a(I3
I0
tp324
a(I6
I1
tp325
a(I1
I4
tp326
a(I0
I5
tp327
a(I5
I0
tp328
a(I1
I1
tp329
a(I8
I4
tp330
atp331
Rp332
sg13
((I0
I1
tp333
(I2
I6
tp334
(I0
I2
tp335
tp336
sg14
I9
sbs(iproblems
RoomID
p337
(dp338
g10
I9
sg11
(I3
I0
tp339
sg13
I3
sg14
I9
sg15
I12
sg16
I4912931603392816429
sb(imulti_robot_problem
MultiRobotState
p340
(dp341
g19
g20
((lp342
(I6
I4
tp343
a(I4
I7
tp344
a(I0
I0
tp345
a(I4
I8
tp346
a(I5
I6
tp347
a(I2
I8
tp348
a(I0
I7
tp349
a(I4
I6
tp350
a(I7
I5
tp351
a(I4
I2
tp352
a(I0
I3
tp353
a(I7
I2
tp354
a(I6
I8
tp355
a(I10
I5
tp356
a(I5
I5
tp357
a(I7
I8
tp358
a(I4
I4
tp359
a(I5
I2
tp360
ag339
a(I8
I8
tp361
a(I5
I8
tp362
a(I1
I7
tp363
a(I4
I5
tp364
a(I8
I6
tp365
a(I5
I3
tp366
a(I4
I1
tp367
atp368
Rp369
sg15
I12
sg28
g20
((lp370
(I7
I3
tp371
a(I7
I1
tp372
a(I8
I1
tp373
a(I6
I3
tp374
a(I11
I8
tp375
a(I8
I7
tp376
a(I3
I7
tp377
a(I2
I5
tp378
a(I3
I4
tp379
atp380
Rp381
sg13
((I9
I1
tp382
(I1
I6
tp383
(I8
I4
tp384
tp385
sg14
I9
sbs(iproblems
RoomID
p386
(dp387
g10
I9
sg11
(I4
I3
tp388
sg13
I4
sg14
I11
sg15
I12
sg16
I7002664860023442459
sb(imulti_robot_problem
MultiRobotState
p389
(dp390
g19
g20
((lp391
(I11
I8
tp392
a(I0
I0
tp393
a(I10
I4
tp394
a(I3
I0
tp395
a(I9
I3
tp396
a(I6
I0
tp397
a(I2
I1
tp398
a(I8
I9
tp399
a(I9
I4
tp400
a(I5
I1
tp401
a(I8
I5
tp402
a(I5
I8
tp403
a(I8
I2
tp404
a(I7
I0
tp405
a(I8
I7
tp406
a(I3
I3
tp407
a(I1
I5
tp408
a(I8
I1
tp409
a(I9
I6
tp410
a(I3
I1
tp411
a(I9
I2
tp412
a(I2
I0
tp413
ag388
a(I2
I2
tp414
a(I9
I5
tp415
a(I5
I2
tp416
a(I2
I4
tp417
atp418
Rp419
sg15
I12
sg28
g20
((lp420
(I0
I1
tp421
a(I10
I8
tp422
a(I2
I8
tp423
a(I3
I10
tp424
a(I10
I6
tp425
a(I6
I2
tp426
a(I3
I7
tp427
a(I7
I8
tp428
a(I7
I9
tp429
atp430
Rp431
sg13
((I9
I7
tp432
(I8
I8
tp433
(I2
I9
tp434
(I1
I7
tp435
tp436
sg14
I11
sbssg158
S'mild_roomset'
p437
sbsg158
g160
sg161
(dp438
g192
((lp439
(F17.980000000000018
I136
tp440
aF40.1099999999999
tp441
sg238
((lp442
F40.039999999999964
tp443
sg295
((lp444
(F1.4600000000000364
I65
tp445
aF40.009999999999991
tp446
sg337
((lp447
(F0.090000000000145519
I11
tp448
aF40.009999999999991
tp449
sg386
((lp450
(F0.46000000000003638
I11
tp451
aF40.050000000000182
tp452
ssba(imeasure_core
ProblemSetSolution
p453
(dp454
g3
(imeasure_core
RoomSet
p455
(dp456
g6
(dp457
(iproblems
RoomID
p458
(dp459
g10
I11
sg11
(I7
I9
tp460
sg13
I5
sg14
I12
sg15
I12
sg16
I1164115433906158532
sb(imulti_robot_problem
MultiRobotState
p461
(dp462
g19
g20
((lp463
(I4
I7
tp464
a(I1
I3
tp465
a(I5
I6
tp466
a(I9
I3
tp467
a(I1
I4
tp468
a(I0
I5
tp469
a(I7
I11
tp470
a(I1
I0
tp471
a(I5
I8
tp472
a(I3
I3
tp473
a(I3
I1
tp474
a(I6
I7
tp475
a(I6
I8
tp476
a(I7
I8
tp477
a(I5
I7
tp478
ag460
a(I4
I1
tp479
a(I0
I2
tp480
atp481
Rp482
sg15
I12
sg28
g20
((lp483
(I4
I10
tp484
a(I9
I0
tp485
a(I2
I6
tp486
a(I5
I10
tp487
a(I9
I2
tp488
a(I0
I7
tp489
a(I8
I9
tp490
a(I1
I6
tp491
a(I8
I5
tp492
a(I4
I11
tp493
a(I5
I3
tp494
atp495
Rp496
sg13
((I1
I2
tp497
(I2
I11
tp498
(I2
I0
tp499
(I2
I9
tp500
(I11
I7
tp501
tp502
sg14
I12
sbs(iproblems
RoomID
p503
(dp504
g10
I10
sg11
(I0
I7
tp505
sg13
I7
sg14
I10
sg15
I10
sg16
I8711387064946514083
sb(imulti_robot_problem
MultiRobotState
p506
(dp507
g19
g20
((lp508
(I5
I9
tp509
a(I6
I9
tp510
a(I2
I6
tp511
a(I2
I9
tp512
a(I0
I6
tp513
ag505
a(I1
I5
tp514
a(I8
I8
tp515
a(I0
I5
tp516
a(I4
I3
tp517
a(I0
I4
tp518
a(I0
I3
tp519
a(I9
I7
tp520
a(I0
I2
tp521
a(I7
I9
tp522
atp523
Rp524
sg15
I10
sg28
g20
((lp525
(I9
I0
tp526
a(I3
I3
tp527
a(I7
I1
tp528
a(I8
I1
tp529
a(I9
I8
tp530
a(I4
I4
tp531
a(I9
I9
tp532
a(I3
I6
tp533
a(I1
I7
tp534
a(I8
I6
tp535
atp536
Rp537
sg13
((I1
I1
tp538
(I8
I0
tp539
(I7
I0
tp540
(I2
I5
tp541
(I6
I7
tp542
(I8
I9
tp543
(I5
I8
tp544
tp545
sg14
I10
sbs(iproblems
RoomID
p546
(dp547
g10
I10
sg11
(I6
I7
tp548
sg13
I6
sg14
I10
sg15
I13
sg16
I8999366892653588108
sb(imulti_robot_problem
MultiRobotState
p549
(dp550
g19
g20
((lp551
(I5
I4
tp552
ag548
a(I5
I5
tp553
a(I5
I6
tp554
a(I7
I6
tp555
a(I4
I2
tp556
a(I2
I3
tp557
a(I8
I6
tp558
a(I12
I1
tp559
a(I5
I3
tp560
a(I6
I5
tp561
a(I3
I3
tp562
atp563
Rp564
sg15
I13
sg28
g20
((lp565
(I6
I9
tp566
a(I7
I0
tp567
a(I5
I7
tp568
a(I12
I6
tp569
a(I2
I1
tp570
a(I0
I5
tp571
a(I10
I1
tp572
a(I0
I3
tp573
a(I7
I9
tp574
a(I3
I5
tp575
atp576
Rp577
sg13
((I12
I0
tp578
(I6
I1
tp579
(I2
I2
tp580
(I6
I4
tp581
(I4
I6
tp582
(I7
I1
tp583
tp584
sg14
I10
sbs(iproblems
RoomID
p585
(dp586
g10
I14
sg11
(I5
I10
tp587
sg13
I5
sg14
I12
sg15
I10
sg16
I3872982626502034966
sb(imulti_robot_problem
MultiRobotState
p588
(dp589
g19
g20
((lp590
(I5
I9
tp591
a(I6
I9
tp592
a(I5
I7
tp593
a(I3
I2
tp594
ag587
a(I4
I10
tp595
a(I4
I8
tp596
a(I3
I11
tp597
a(I2
I1
tp598
a(I6
I2
tp599
a(I1
I4
tp600
a(I8
I7
tp601
a(I6
I8
tp602
a(I6
I7
tp603
a(I5
I8
tp604
a(I3
I5
tp605
a(I4
I9
tp606
a(I4
I6
tp607
a(I8
I1
tp608
a(I7
I1
tp609
a(I3
I8
tp610
a(I4
I3
tp611
a(I5
I2
tp612
a(I1
I1
tp613
atp614
Rp615
sg15
I10
sg28
g20
((lp616
(I5
I3
tp617
a(I3
I1
tp618
a(I8
I11
tp619
a(I9
I3
tp620
a(I0
I2
tp621
a(I6
I3
tp622
a(I3
I9
tp623
a(I2
I3
tp624
a(I9
I5
tp625
a(I7
I11
tp626
a(I0
I8
tp627
a(I3
I10
tp628
a(I7
I2
tp629
a(I9
I7
tp630
atp631
Rp632
sg13
((I1
I8
tp633
(I2
I9
tp634
(I1
I9
tp635
(I1
I5
tp636
(I6
I5
tp637
tp638
sg14
I12
sbs(iproblems
RoomID
p639
(dp640
g10
I14
sg11
(I0
I3
tp641
sg13
I7
sg14
I12
sg15
I13
sg16
I7002664860023442459
sb(imulti_robot_problem
MultiRobotState
p642
(dp643
g19
g20
((lp644
(I1
I2
tp645
a(I11
I4
tp646
a(I9
I8
tp647
a(I10
I6
tp648
ag641
a(I0
I8
tp649
a(I10
I3
tp650
a(I0
I1
tp651
a(I10
I5
tp652
a(I10
I7
tp653
a(I7
I8
tp654
a(I9
I9
tp655
a(I0
I9
tp656
a(I9
I5
tp657
a(I3
I4
tp658
a(I0
I2
tp659
a(I11
I6
tp660
a(I9
I7
tp661
atp662
Rp663
sg15
I13
sg28
g20
((lp664
(I6
I4
tp665
a(I11
I9
tp666
a(I4
I6
tp667
a(I2
I9
tp668
a(I5
I9
tp669
a(I12
I2
tp670
a(I3
I1
tp671
a(I3
I11
tp672
a(I10
I10
tp673
a(I7
I4
tp674
a(I0
I0
tp675
a(I11
I5
tp676
a(I2
I5
tp677
a(I12
I9
tp678
atp679
Rp680
sg13
((I2
I10
tp681
(I1
I8
tp682
(I8
I10
tp683
(I7
I2
tp684
(I3
I8
tp685
(I6
I2
tp686
(I7
I9
tp687
tp688
sg14
I12
sbssg158
S'heavy_roomset'
p689
sbsg158
g160
sg161
(dp690
g458
((lp691
(F3.0
I20
tp692
aF40.069999999999936
tp693
sg503
((lp694
(F15.849999999999909
I7
tp695
aF41.490000000000009
tp696
sg546
((lp697
(F9.7599999999999909
I20
tp698
aF40.129999999999882
tp699
sg585
((lp700
F40.310000000000173
tp701
sg639
((lp702
F47.779999999999973
tp703
ssba(imeasure_core
ProblemSetSolution
p704
(dp705
g3
g4
sg158
S'AnytimeBest-dinf_with_LinearHeuristic'
p706
sg161
(dp707
g8
((lp708
(F0.029999999999972715
I28
tp709
a(F37.059999999999945
I26
tp710
aF40.0
tp711
sg40
((lp712
F40.119999999999891
tp713
sg73
((lp714
(F1.1900000000000546
I10
tp715
a(F10.600000000000136
I9
tp716
a(F17.8900000000001
I8
tp717
a(F25.340000000000146
I7
tp718
a(F31.870000000000118
I6
tp719
aF40.360000000000127
tp720
sg102
((lp721
(F0.51999999999998181
I25
tp722
a(F15.269999999999982
I24
tp723
a(F18.409999999999854
I23
tp724
a(F30.950000000000045
I22
tp725
a(F39.879999999999882
I19
tp726
aF40.019999999999982
tp727
sg129
((lp728
(F2.5399999999999636
I27
tp729
aF40.139999999999873
tp730
ssba(imeasure_core
ProblemSetSolution
p731
(dp732
g3
g189
sg158
g706
sg161
(dp733
g192
((lp734
F40.060000000000173
tp735
sg238
((lp736
F40.069999999999936
tp737
sg295
((lp738
(F17.809999999999945
I226
tp739
aF40.009999999999991
tp740
sg337
((lp741
F40.019999999999982
tp742
sg386
((lp743
F40.300000000000182
tp744
ssba(imeasure_core
ProblemSetSolution
p745
(dp746
g3
g455
sg158
g706
sg161
(dp747
g458
((lp748
F40.230000000000018
tp749
sg503
((lp750
(F31.089999999999691
I7
tp751
aF47.159999999999854
tp752
sg546
((lp753
F41.840000000000146
tp754
sg585
((lp755
F40.279999999999745
tp756
sg639
((lp757
F43.840000000000146
tp758
ssba.