(lp0
(imeasure_core
ProblemSetSolution
p1
(dp2
S'roomset'
p3
(imeasure_core
RoomSet
p4
(dp5
S'rooms'
p6
(dp7
(iproblems
RoomID
p8
(dp9
S'dusts'
p10
I8
sS'obstacles'
p11
(I2
I4
tp12
sS'robots'
p13
I4
sS'height'
p14
I9
sS'width'
p15
I7
sS'seed'
p16
I7283207964119141687
sb(imulti_robot_problem
MultiRobotState
p17
(dp18
S'obstacle_locations'
p19
c__builtin__
frozenset
p20
((lp21
(I4
I6
tp22
a(I4
I3
tp23
a(I3
I0
tp24
a(I4
I2
tp25
a(I3
I4
tp26
ag12
a(I3
I3
tp27
atp28
Rp29
sg15
I7
sS'dirt_locations'
p30
g20
((lp31
(I4
I5
tp32
a(I5
I7
tp33
a(I0
I6
tp34
a(I1
I6
tp35
a(I5
I0
tp36
a(I5
I1
tp37
a(I5
I2
tp38
a(I1
I1
tp39
atp40
Rp41
sg13
((I1
I5
tp42
(I5
I5
tp43
(I3
I1
tp44
(I3
I5
tp45
tp46
sg14
I9
sbs(iproblems
RoomID
p47
(dp48
g10
I8
sg11
(I4
I6
tp49
sg13
I2
sg14
I10
sg15
I8
sg16
I890727360438182992
sb(imulti_robot_problem
MultiRobotState
p50
(dp51
g19
g20
((lp52
(I0
I0
tp53
ag49
a(I6
I6
tp54
a(I5
I6
tp55
a(I7
I6
tp56
a(I7
I4
tp57
a(I4
I2
tp58
a(I2
I4
tp59
atp60
Rp61
sg15
I8
sg30
g20
((lp62
(I7
I0
tp63
a(I7
I1
tp64
a(I6
I3
tp65
a(I1
I8
tp66
a(I0
I5
tp67
a(I5
I1
tp68
a(I1
I0
tp69
a(I0
I3
tp70
atp71
Rp72
sg13
((I2
I8
tp73
(I2
I5
tp74
tp75
sg14
I10
sbs(iproblems
RoomID
p76
(dp77
g10
I10
sg11
(I6
I5
tp78
sg13
I5
sg14
I8
sg15
I9
sg16
I3960482443532127989
sb(imulti_robot_problem
MultiRobotState
p79
(dp80
g19
g20
((lp81
(I4
I5
tp82
a(I5
I5
tp83
ag78
a(I6
I6
tp84
atp85
Rp86
sg15
I9
sg30
g20
((lp87
(I2
I7
tp88
a(I2
I6
tp89
a(I5
I0
tp90
a(I5
I7
tp91
a(I1
I4
tp92
a(I1
I5
tp93
a(I3
I6
tp94
a(I8
I0
tp95
a(I8
I5
tp96
a(I5
I3
tp97
atp98
Rp99
sg13
((I4
I3
tp100
(I8
I7
tp101
(I1
I6
tp102
(I7
I3
tp103
(I6
I4
tp104
tp105
sg14
I8
sbs(iproblems
RoomID
p106
(dp107
g10
I5
sg11
(I7
I3
tp108
sg13
I1
sg14
I7
sg15
I8
sg16
I1736392818365009963
sb(imulti_robot_problem
MultiRobotState
p109
(dp110
g19
g20
((lp111
g108
a(I2
I6
tp112
a(I7
I0
tp113
a(I7
I1
tp114
a(I2
I1
tp115
a(I6
I3
tp116
a(I0
I4
tp117
a(I7
I2
tp118
atp119
Rp120
sg15
I8
sg30
g20
((lp121
(I0
I1
tp122
a(I6
I2
tp123
a(I1
I6
tp124
a(I4
I4
tp125
a(I0
I0
tp126
atp127
Rp128
sg13
((I3
I1
tp129
tp130
sg14
I7
sbs(iproblems
RoomID
p131
(dp132
g10
I7
sg11
(I4
I1
tp133
sg13
I3
sg14
I10
sg15
I10
sg16
I1585446675937841368
sb(imulti_robot_problem
MultiRobotState
p134
(dp135
g19
g20
((lp136
(I3
I2
tp137
a(I2
I6
tp138
a(I6
I7
tp139
a(I6
I1
tp140
a(I7
I2
tp141
a(I5
I0
tp142
ag133
a(I2
I4
tp143
a(I5
I8
tp144
atp145
Rp146
sg15
I10
sg30
g20
((lp147
(I7
I3
tp148
a(I9
I4
tp149
a(I2
I9
tp150
a(I1
I7
tp151
a(I2
I2
tp152
a(I5
I2
tp153
a(I9
I7
tp154
atp155
Rp156
sg13
((I8
I9
tp157
(I4
I4
tp158
(I9
I8
tp159
tp160
sg14
I10
sbssS'name'
p161
S'easy_roomset'
p162
sbsg161
S'AnytimeBest-d10_with_PowerHeuristic2'
p163
sS'solutions'
p164
(dp165
g8
((lp166
F40.020000000004075
tp167
sg47
((lp168
F40.0
tp169
sg76
((lp170
(F2.0499999999956344
I10
tp171
aF40.180000000000291
tp172
sg106
((lp173
F0.1599999999962165
tp174
sg131
((lp175
F40.010000000002037
tp176
ssba(imeasure_core
ProblemSetSolution
p177
(dp178
g3
(imeasure_core
RoomSet
p179
(dp180
g6
(dp181
(iproblems
RoomID
p182
(dp183
g10
I8
sg11
(I2
I6
tp184
sg13
I4
sg14
I11
sg15
I9
sg16
I7283207964119141687
sb(imulti_robot_problem
MultiRobotState
p185
(dp186
g19
g20
((lp187
(I4
I7
tp188
a(I1
I3
tp189
a(I4
I3
tp190
a(I4
I5
tp191
a(I5
I4
tp192
a(I1
I4
tp193
a(I8
I9
tp194
a(I6
I2
tp195
a(I0
I10
tp196
a(I3
I7
tp197
a(I0
I3
tp198
a(I8
I5
tp199
a(I4
I0
tp200
a(I5
I3
tp201
a(I5
I5
tp202
a(I5
I2
tp203
a(I6
I1
tp204
a(I6
I10
tp205
ag184
a(I6
I3
tp206
a(I3
I6
tp207
a(I3
I5
tp208
a(I3
I4
tp209
a(I2
I4
tp210
atp211
Rp212
sg15
I9
sg30
g20
((lp213
(I7
I0
tp214
a(I6
I8
tp215
a(I7
I1
tp216
a(I5
I6
tp217
a(I1
I8
tp218
a(I0
I8
tp219
a(I4
I1
tp220
a(I5
I8
tp221
atp222
Rp223
sg13
((I1
I7
tp224
(I6
I6
tp225
(I4
I6
tp226
(I2
I1
tp227
tp228
sg14
I11
sbs(iproblems
RoomID
p229
(dp230
g10
I8
sg11
(I3
I5
tp231
sg13
I3
sg14
I12
sg15
I10
sg16
I890727360438182992
sb(imulti_robot_problem
MultiRobotState
p232
(dp233
g19
g20
((lp234
(I4
I7
tp235
a(I0
I0
tp236
a(I3
I0
tp237
a(I3
I2
tp238
a(I1
I4
tp239
a(I8
I9
tp240
a(I7
I5
tp241
a(I2
I3
tp242
a(I3
I4
tp243
a(I5
I8
tp244
ag231
a(I3
I1
tp245
a(I6
I7
tp246
a(I6
I8
tp247
a(I5
I2
tp248
a(I5
I7
tp249
a(I8
I8
tp250
a(I3
I9
tp251
a(I4
I11
tp252
a(I7
I10
tp253
a(I2
I2
tp254
a(I0
I9
tp255
a(I7
I8
tp256
atp257
Rp258
sg15
I10
sg30
g20
((lp259
(I9
I2
tp260
a(I6
I1
tp261
a(I8
I0
tp262
a(I2
I10
tp263
a(I0
I6
tp264
a(I0
I4
tp265
a(I9
I5
tp266
a(I1
I1
tp267
atp268
Rp269
sg13
((I2
I9
tp270
(I2
I6
tp271
(I8
I4
tp272
tp273
sg14
I12
sbs(iproblems
RoomID
p274
(dp275
g10
I5
sg11
(I7
I6
tp276
sg13
I3
sg14
I9
sg15
I10
sg16
I1736392818365009963
sb(imulti_robot_problem
MultiRobotState
p277
(dp278
g19
g20
((lp279
(I7
I3
tp280
a(I9
I1
tp281
a(I4
I8
tp282
a(I9
I3
tp283
a(I7
I7
tp284
a(I6
I2
tp285
a(I0
I5
tp286
a(I0
I4
tp287
a(I8
I5
tp288
a(I7
I2
tp289
a(I1
I2
tp290
a(I3
I8
tp291
a(I9
I0
tp292
a(I9
I2
tp293
ag276
a(I7
I4
tp294
a(I7
I5
tp295
a(I6
I5
tp296
a(I4
I3
tp297
a(I2
I2
tp298
a(I0
I1
tp299
a(I5
I2
tp300
a(I8
I4
tp301
atp302
Rp303
sg15
I10
sg30
g20
((lp304
(I1
I8
tp305
a(I3
I1
tp306
a(I4
I1
tp307
a(I0
I2
tp308
a(I5
I5
tp309
atp310
Rp311
sg13
((I4
I2
tp312
(I1
I0
tp313
(I8
I2
tp314
tp315
sg14
I9
sbs(iproblems
RoomID
p316
(dp317
g10
I7
sg11
(I6
I3
tp318
sg13
I3
sg14
I12
sg15
I12
sg16
I1585446675937841368
sb(imulti_robot_problem
MultiRobotState
p319
(dp320
g19
g20
((lp321
(I5
I9
tp322
a(I4
I3
tp323
a(I5
I7
tp324
a(I8
I2
tp325
a(I4
I10
tp326
a(I7
I3
tp327
a(I2
I8
tp328
a(I9
I3
tp329
a(I3
I11
tp330
a(I7
I1
tp331
a(I7
I7
tp332
a(I6
I2
tp333
a(I5
I1
tp334
a(I1
I11
tp335
a(I8
I5
tp336
a(I7
I2
tp337
a(I2
I7
tp338
a(I6
I7
tp339
a(I6
I8
tp340
a(I2
I9
tp341
a(I5
I2
tp342
a(I7
I6
tp343
a(I6
I6
tp344
a(I2
I11
tp345
ag318
a(I4
I11
tp346
a(I7
I10
tp347
a(I3
I4
tp348
a(I8
I6
tp349
a(I7
I8
tp350
a(I8
I4
tp351
atp352
Rp353
sg15
I12
sg30
g20
((lp354
(I3
I2
tp355
a(I1
I9
tp356
a(I9
I4
tp357
a(I11
I5
tp358
a(I11
I8
tp359
a(I2
I5
tp360
a(I6
I10
tp361
atp362
Rp363
sg13
((I10
I10
tp364
(I5
I5
tp365
(I11
I10
tp366
tp367
sg14
I12
sbs(iproblems
RoomID
p368
(dp369
g10
I9
sg11
(I1
I3
tp370
sg13
I4
sg14
I9
sg15
I10
sg16
I7713914763314685786
sb(imulti_robot_problem
MultiRobotState
p371
(dp372
g19
g20
((lp373
(I3
I2
tp374
ag370
a(I7
I1
tp375
a(I9
I3
tp376
a(I6
I0
tp377
a(I2
I1
tp378
a(I4
I2
tp379
a(I5
I1
tp380
a(I9
I6
tp381
a(I7
I2
tp382
a(I4
I0
tp383
a(I1
I2
tp384
a(I7
I0
tp385
a(I5
I2
tp386
a(I6
I1
tp387
a(I3
I1
tp388
a(I1
I5
tp389
a(I1
I8
tp390
a(I2
I2
tp391
a(I3
I5
tp392
a(I4
I1
tp393
a(I1
I1
tp394
atp395
Rp396
sg15
I10
sg30
g20
((lp397
(I7
I3
tp398
a(I5
I4
tp399
a(I7
I6
tp400
a(I7
I5
tp401
a(I0
I5
tp402
a(I8
I7
tp403
a(I8
I6
tp404
a(I8
I5
tp405
a(I9
I7
tp406
atp407
Rp408
sg13
((I3
I0
tp409
(I7
I7
tp410
(I2
I0
tp411
(I4
I6
tp412
tp413
sg14
I9
sbssg161
S'mild_roomset'
p414
sbsg161
g163
sg164
(dp415
g182
((lp416
(F0.12000000000261934
I7
tp417
aF40.040000000000873
tp418
sg229
((lp419
F40.089999999996508
tp420
sg274
((lp421
F40.020000000004075
tp422
sg316
((lp423
F40.069999999999709
tp424
sg368
((lp425
F40.059999999997672
tp426
ssba(imeasure_core
ProblemSetSolution
p427
(dp428
g3
(imeasure_core
RoomSet
p429
(dp430
g6
(dp431
(iproblems
RoomID
p432
(dp433
g10
I13
sg11
(I8
I4
tp434
sg13
I7
sg14
I12
sg15
I10
sg16
I7283207964119141687
sb(imulti_robot_problem
MultiRobotState
p435
(dp436
g19
g20
((lp437
(I6
I3
tp438
a(I5
I2
tp439
a(I6
I10
tp440
a(I6
I0
tp441
a(I7
I4
tp442
a(I0
I11
tp443
a(I6
I2
tp444
a(I3
I6
tp445
a(I2
I2
tp446
a(I0
I4
tp447
a(I3
I4
tp448
a(I5
I8
tp449
ag434
atp450
Rp451
sg15
I10
sg30
g20
((lp452
(I7
I3
tp453
a(I6
I7
tp454
a(I6
I8
tp455
a(I7
I1
tp456
a(I8
I1
tp457
a(I4
I4
tp458
a(I6
I6
tp459
a(I5
I6
tp460
a(I1
I9
tp461
a(I5
I0
tp462
a(I9
I10
tp463
a(I9
I6
tp464
a(I7
I9
tp465
atp466
Rp467
sg13
((I1
I7
tp468
(I7
I6
tp469
(I4
I6
tp470
(I2
I1
tp471
(I6
I4
tp472
(I0
I9
tp473
(I8
I0
tp474
tp475
sg14
I12
sbs(iproblems
RoomID
p476
(dp477
g10
I13
sg11
(I8
I3
tp478
sg13
I5
sg14
I13
sg15
I11
sg16
I890727360438182992
sb(imulti_robot_problem
MultiRobotState
p479
(dp480
g19
g20
((lp481
(I4
I10
tp482
a(I6
I9
tp483
a(I8
I2
tp484
a(I5
I9
tp485
a(I9
I8
tp486
ag478
a(I4
I12
tp487
a(I0
I10
tp488
a(I8
I7
tp489
a(I9
I1
tp490
a(I9
I0
tp491
a(I6
I8
tp492
a(I6
I10
tp493
a(I8
I8
tp494
a(I8
I6
tp495
a(I7
I8
tp496
a(I0
I2
tp497
atp498
Rp499
sg15
I11
sg30
g20
((lp500
(I10
I5
tp501
a(I0
I0
tp502
a(I4
I6
tp503
a(I0
I6
tp504
a(I9
I2
tp505
a(I8
I11
tp506
a(I2
I1
tp507
a(I9
I10
tp508
a(I1
I5
tp509
a(I0
I4
tp510
a(I0
I9
tp511
a(I5
I2
tp512
a(I4
I11
tp513
atp514
Rp515
sg13
((I3
I10
tp516
(I2
I7
tp517
(I9
I4
tp518
(I2
I11
tp519
(I7
I1
tp520
tp521
sg14
I13
sbs(iproblems
RoomID
p522
(dp523
g10
I10
sg11
(I10
I4
tp524
sg13
I5
sg14
I10
sg15
I11
sg16
I1736392818365009963
sb(imulti_robot_problem
MultiRobotState
p525
(dp526
g19
g20
((lp527
(I0
I1
tp528
a(I1
I2
tp529
a(I3
I2
tp530
ag524
a(I4
I5
tp531
a(I7
I4
tp532
a(I6
I2
tp533
a(I2
I3
tp534
a(I10
I1
tp535
a(I3
I8
tp536
a(I10
I0
tp537
a(I10
I3
tp538
a(I10
I2
tp539
atp540
Rp541
sg15
I11
sg30
g20
((lp542
(I5
I9
tp543
a(I5
I5
tp544
a(I3
I1
tp545
a(I8
I8
tp546
a(I0
I5
tp547
a(I3
I9
tp548
a(I8
I4
tp549
a(I4
I1
tp550
a(I6
I5
tp551
a(I5
I3
tp552
atp553
Rp554
sg13
((I4
I2
tp555
(I1
I0
tp556
(I9
I3
tp557
(I1
I9
tp558
(I0
I2
tp559
tp560
sg14
I10
sbs(iproblems
RoomID
p561
(dp562
g10
I15
sg11
(I6
I9
tp563
sg13
I7
sg14
I11
sg15
I12
sg16
I3960482443532127989
sb(imulti_robot_problem
MultiRobotState
p564
(dp565
g19
g20
((lp566
(I5
I9
tp567
ag563
a(I9
I1
tp568
a(I4
I10
tp569
a(I5
I6
tp570
a(I7
I7
tp571
a(I2
I10
tp572
a(I3
I9
tp573
a(I9
I4
tp574
a(I5
I10
tp575
a(I6
I4
tp576
a(I6
I5
tp577
a(I1
I2
tp578
a(I7
I4
tp579
a(I8
I3
tp580
a(I6
I7
tp581
a(I2
I9
tp582
a(I10
I7
tp583
a(I5
I7
tp584
a(I6
I3
tp585
a(I8
I1
tp586
a(I0
I9
tp587
a(I8
I6
tp588
a(I7
I8
tp589
a(I11
I6
tp590
a(I9
I7
tp591
atp592
Rp593
sg15
I12
sg30
g20
((lp594
(I7
I3
tp595
a(I2
I6
tp596
a(I5
I5
tp597
a(I3
I0
tp598
a(I3
I8
tp599
a(I0
I6
tp600
a(I11
I1
tp601
a(I1
I6
tp602
a(I4
I3
tp603
a(I1
I7
tp604
a(I1
I3
tp605
a(I1
I0
tp606
a(I10
I1
tp607
a(I1
I1
tp608
a(I10
I2
tp609
atp610
Rp611
sg13
((I11
I10
tp612
(I1
I8
tp613
(I10
I5
tp614
(I11
I0
tp615
(I4
I8
tp616
(I7
I9
tp617
(I7
I1
tp618
tp619
sg14
I11
sbs(iproblems
RoomID
p620
(dp621
g10
I12
sg11
(I6
I9
tp622
sg13
I6
sg14
I13
sg15
I13
sg16
I1585446675937841368
sb(imulti_robot_problem
MultiRobotState
p623
(dp624
g19
g20
((lp625
(I7
I3
tp626
ag622
a(I8
I11
tp627
a(I7
I7
tp628
a(I4
I12
tp629
a(I10
I3
tp630
a(I5
I8
tp631
a(I7
I4
tp632
a(I1
I12
tp633
a(I2
I9
tp634
a(I8
I1
tp635
a(I7
I6
tp636
a(I6
I3
tp637
a(I9
I2
tp638
a(I7
I5
tp639
a(I7
I2
tp640
a(I7
I10
tp641
a(I8
I4
tp642
a(I3
I4
tp643
a(I2
I4
tp644
a(I9
I12
tp645
a(I9
I7
tp646
atp647
Rp648
sg15
I13
sg30
g20
((lp649
(I3
I3
tp650
a(I2
I8
tp651
a(I12
I9
tp652
a(I6
I10
tp653
a(I8
I10
tp654
a(I2
I10
tp655
a(I12
I5
tp656
a(I4
I3
tp657
a(I5
I1
tp658
a(I7
I9
tp659
a(I5
I2
tp660
a(I3
I5
tp661
atp662
Rp663
sg13
((I10
I11
tp664
(I5
I5
tp665
(I12
I11
tp666
(I1
I10
tp667
(I3
I12
tp668
(I10
I4
tp669
tp670
sg14
I13
sbssg161
S'heavy_roomset'
p671
sbsg161
g163
sg164
(dp672
g432
((lp673
(F39.540000000000873
I10
tp674
aF40.319999999999709
tp675
sg476
((lp676
F40.599999999998545
tp677
sg522
((lp678
(F1.2400000000052387
I9
tp679
aF40.060000000004948
tp680
sg561
((lp681
F41.219999999993888
tp682
sg620
((lp683
F40.560000000004948
tp684
ssba(imeasure_core
ProblemSetSolution
p685
(dp686
g3
g4
sg161
S'AnytimeBest-d80_with_PowerHeuristic2'
p687
sg164
(dp688
g8
((lp689
(F1.7400000000052387
I28
tp690
aF40.070000000006985
tp691
sg47
((lp692
(F0.049999999995634425
I19
tp693
a(F25.039999999993597
I18
tp694
aF40.0
tp695
sg76
((lp696
(F2.0599999999976717
I10
tp697
aF40.259999999994761
tp698
sg106
((lp699
(F0.11000000000058208
I30
tp700
a(F0.13000000000465661
I28
tp701
a(F0.61000000000058208
I27
tp702
a(F0.90000000000145519
I25
tp703
a(F1.0400000000008731
I23
tp704
a(F1.1500000000014552
I22
tp705
a(F2.7099999999991269
I21
tp706
a(F2.8000000000029104
I20
tp707
aF3.3899999999994179
tp708
sg131
((lp709
(F0.16000000000349246
I14
tp710
aF40.029999999998836
tp711
ssba(imeasure_core
ProblemSetSolution
p712
(dp713
g3
g179
sg161
g687
sg164
(dp714
g182
((lp715
(F0.11000000000058208
I7
tp716
aF40.110000000000582
tp717
sg229
((lp718
F40.139999999999418
tp719
sg274
((lp720
(F2.0299999999988358
I66
tp721
aF40.010000000002037
tp722
sg316
((lp723
(F0.22999999999592546
I20
tp724
aF40.010000000002037
tp725
sg368
((lp726
(F0.54000000000087311
I15
tp727
aF40.049999999995634
tp728
ssba(imeasure_core
ProblemSetSolution
p729
(dp730
g3
g429
sg161
g687
sg164
(dp731
g432
((lp732
(F39.700000000004366
I10
tp733
aF40.319999999999709
tp734
sg476
((lp735
F40.330000000001746
tp736
sg522
((lp737
(F1.2200000000011642
I9
tp738
aF40.05000000000291
tp739
sg561
((lp740
F40.879999999997381
tp741
sg620
((lp742
F40.330000000001746
tp743
ssba(imeasure_core
ProblemSetSolution
p744
(dp745
g3
g4
sg161
S'AnytimeBest-d150_with_PowerHeuristic2'
p746
sg164
(dp747
g8
((lp748
(F1.7400000000052387
I28
tp749
aF40.040000000000873
tp750
sg47
((lp751
(F0.060000000004947651
I19
tp752
a(F24.92000000000553
I18
tp753
aF40.0
tp754
sg76
((lp755
(F2.0600000000049477
I10
tp756
aF40.400000000001455
tp757
sg106
((lp758
(F0.11000000000058208
I30
tp759
a(F0.13000000000465661
I28
tp760
a(F0.61000000000058208
I27
tp761
a(F0.90000000000145519
I25
tp762
a(F1.0400000000008731
I23
tp763
a(F1.1399999999994179
I22
tp764
a(F2.7099999999991269
I21
tp765
a(F2.8000000000029104
I20
tp766
aF3.3800000000046566
tp767
sg131
((lp768
(F0.16999999999825377
I14
tp769
aF40.019999999996799
tp770
ssba(imeasure_core
ProblemSetSolution
p771
(dp772
g3
g179
sg161
g746
sg164
(dp773
g182
((lp774
(F0.12000000000261934
I7
tp775
aF40.040000000000873
tp776
sg229
((lp777
F40.180000000000291
tp778
sg274
((lp779
(F2.0400000000008731
I66
tp780
aF40.059999999997672
tp781
sg316
((lp782
(F0.23000000000320142
I20
tp783
aF40.010000000002037
tp784
sg368
((lp785
(F0.54000000000087311
I15
tp786
aF40.059999999997672
tp787
ssba(imeasure_core
ProblemSetSolution
p788
(dp789
g3
g429
sg161
g746
sg164
(dp790
g432
((lp791
(F39.75
I10
tp792
aF40.319999999999709
tp793
sg476
((lp794
F40.459999999999127
tp795
sg522
((lp796
(F1.2399999999979627
I9
tp797
aF40.330000000001746
tp798
sg561
((lp799
F41.040000000000873
tp800
sg620
((lp801
F40.819999999999709
tp802
ssba(imeasure_core
ProblemSetSolution
p803
(dp804
g3
g4
sg161
S'AnytimeBest-d250_with_PowerHeuristic2'
p805
sg164
(dp806
g8
((lp807
(F1.7300000000032014
I28
tp808
aF40.040000000000873
tp809
sg47
((lp810
(F0.060000000004947651
I19
tp811
a(F24.950000000004366
I18
tp812
aF40.0
tp813
sg76
((lp814
(F2.0600000000049477
I10
tp815
aF40.330000000001746
tp816
sg106
((lp817
(F0.11000000000058208
I30
tp818
a(F0.12999999999738066
I28
tp819
a(F0.61000000000058208
I27
tp820
a(F0.88999999999941792
I25
tp821
a(F1.0299999999988358
I23
tp822
a(F1.1399999999994179
I22
tp823
a(F2.6999999999970896
I21
tp824
a(F2.7900000000008731
I20
tp825
aF3.3700000000026193
tp826
sg131
((lp827
(F0.1599999999962165
I14
tp828
aF40.040000000000873
tp829
ssba(imeasure_core
ProblemSetSolution
p830
(dp831
g3
g179
sg161
g805
sg164
(dp832
g182
((lp833
(F0.11999999999534339
I7
tp834
aF40.099999999998545
tp835
sg229
((lp836
F40.159999999996217
tp837
sg274
((lp838
(F2.0299999999988358
I66
tp839
aF40.010000000002037
tp840
sg316
((lp841
(F0.22000000000116415
I20
tp842
aF40.010000000002037
tp843
sg368
((lp844
(F0.54000000000087311
I15
tp845
aF40.040000000000873
tp846
ssba(imeasure_core
ProblemSetSolution
p847
(dp848
g3
g429
sg161
g805
sg164
(dp849
g432
((lp850
(F39.600000000005821
I10
tp851
aF40.319999999999709
tp852
sg476
((lp853
F41.380000000004657
tp854
sg522
((lp855
(F1.2599999999947613
I9
tp856
aF40.049999999995634
tp857
sg561
((lp858
F40.680000000000291
tp859
sg620
((lp860
F40.650000000001455
tp861
ssba(imeasure_core
ProblemSetSolution
p862
(dp863
g3
g4
sg161
S'AnytimeBest-d400_with_PowerHeuristic2'
p864
sg164
(dp865
g8
((lp866
(F1.7600000000020373
I28
tp867
aF40.040000000000873
tp868
sg47
((lp869
(F0.059999999997671694
I19
tp870
a(F24.809999999997672
I18
tp871
aF40.0
tp872
sg76
((lp873
(F2.0499999999956344
I10
tp874
aF40.360000000000582
tp875
sg106
((lp876
(F0.11000000000058208
I30
tp877
a(F0.12999999999738066
I28
tp878
a(F0.59999999999854481
I27
tp879
a(F0.88999999999941792
I25
tp880
a(F1.0299999999988358
I23
tp881
a(F1.1299999999973807
I22
tp882
a(F2.6899999999950523
I21
tp883
a(F2.7699999999967986
I20
tp884
aF3.3499999999985448
tp885
sg131
((lp886
(F0.1599999999962165
I14
tp887
aF40.019999999996799
tp888
ssba(imeasure_core
ProblemSetSolution
p889
(dp890
g3
g179
sg161
g864
sg164
(dp891
g182
((lp892
(F0.11000000000058208
I7
tp893
aF40.040000000000873
tp894
sg229
((lp895
F40.089999999996508
tp896
sg274
((lp897
(F2.0500000000029104
I66
tp898
aF40.010000000002037
tp899
sg316
((lp900
(F0.22000000000116415
I20
tp901
aF40.010000000002037
tp902
sg368
((lp903
(F0.54000000000087311
I15
tp904
aF40.040000000000873
tp905
ssba(imeasure_core
ProblemSetSolution
p906
(dp907
g3
g429
sg161
g864
sg164
(dp908
g432
((lp909
F40.370000000002619
tp910
sg476
((lp911
F40.690000000002328
tp912
sg522
((lp913
(F1.2599999999947613
I9
tp914
aF40.049999999995634
tp915
sg561
((lp916
F40.67000000000553
tp917
sg620
((lp918
F40.649999999994179
tp919
ssba(imeasure_core
ProblemSetSolution
p920
(dp921
g3
g4
sg161
S'AnytimeBest-d10_with_LinearHeuristic'
p922
sg164
(dp923
g8
((lp924
(F0.3400000000037835
I5
tp925
aF40.340000000003783
tp926
sg47
((lp927
F40.019999999996799
tp928
sg76
((lp929
(F2.3499999999985448
I10
tp930
aF40.17000000000553
tp931
sg106
((lp932
F0.57999999999447027
tp933
sg131
((lp934
F40.040000000000873
tp935
ssba(imeasure_core
ProblemSetSolution
p936
(dp937
g3
g179
sg161
g922
sg164
(dp938
g182
((lp939
F40.190000000002328
tp940
sg229
((lp941
F40.039999999993597
tp942
sg274
((lp943
F40.05000000000291
tp944
sg316
((lp945
F40.099999999998545
tp946
sg368
((lp947
F40.139999999999418
tp948
ssba(imeasure_core
ProblemSetSolution
p949
(dp950
g3
g429
sg161
g922
sg164
(dp951
g432
((lp952
F41.830000000001746
tp953
sg476
((lp954
F40.519999999996799
tp955
sg522
((lp956
F40.599999999998545
tp957
sg561
((lp958
F44.67000000000553
tp959
sg620
((lp960
F42.309999999997672
tp961
ssba(imeasure_core
ProblemSetSolution
p962
(dp963
g3
g4
sg161
S'AnytimeBest-d80_with_LinearHeuristic'
p964
sg164
(dp965
g8
((lp966
(F0.33999999999650754
I5
tp967
aF40.139999999999418
tp968
sg47
((lp969
(F0.12000000000261934
I22
tp970
aF40.020000000004075
tp971
sg76
((lp972
(F2.3499999999985448
I10
tp973
aF40.19999999999709
tp974
sg106
((lp975
(F0.010000000002037268
I20
tp976
aF6.9400000000023283
tp977
sg131
((lp978
F40.049999999995634
tp979
ssba(imeasure_core
ProblemSetSolution
p980
(dp981
g3
g179
sg161
g964
sg164
(dp982
g182
((lp983
F40.060000000004948
tp984
sg229
((lp985
F40.07999999999447
tp986
sg274
((lp987
(F0.33000000000174623
I23
tp988
a(F9.0100000000020373
I21
tp989
a(F12.090000000003783
I20
tp990
a(F17.889999999999418
I19
tp991
aF40.05000000000291
tp992
sg316
((lp993
F40.049999999995634
tp994
sg368
((lp995
F40.030000000006112
tp996
ssba(imeasure_core
ProblemSetSolution
p997
(dp998
g3
g429
sg161
g964
sg164
(dp999
g432
((lp1000
F41.92000000000553
tp1001
sg476
((lp1002
F40.57999999999447
tp1003
sg522
((lp1004
F40.530000000006112
tp1005
sg561
((lp1006
F44.459999999999127
tp1007
sg620
((lp1008
F41.319999999999709
tp1009
ssba(imeasure_core
ProblemSetSolution
p1010
(dp1011
g3
g4
sg161
S'AnytimeBest-d150_with_LinearHeuristic'
p1012
sg164
(dp1013
g8
((lp1014
(F0.34999999999854481
I5
tp1015
aF40.139999999999418
tp1016
sg47
((lp1017
(F0.11000000000058208
I22
tp1018
aF40.009999999994761
tp1019
sg76
((lp1020
(F2.3500000000058208
I10
tp1021
aF40.240000000005239
tp1022
sg106
((lp1023
(F0.019999999996798579
I20
tp1024
aF6.930000000000291
tp1025
sg131
((lp1026
F40.069999999999709
tp1027
ssba(imeasure_core
ProblemSetSolution
p1028
(dp1029
g3
g179
sg161
g1012
sg164
(dp1030
g182
((lp1031
F40.069999999999709
tp1032
sg229
((lp1033
F40.049999999995634
tp1034
sg274
((lp1035
(F0.33000000000174623
I23
tp1036
a(F9.0100000000020373
I21
tp1037
a(F12.100000000005821
I20
tp1038
a(F17.92000000000553
I19
tp1039
aF40.069999999999709
tp1040
sg316
((lp1041
F40.030000000006112
tp1042
sg368
((lp1043
F40.029999999998836
tp1044
ssba(imeasure_core
ProblemSetSolution
p1045
(dp1046
g3
g429
sg161
g1012
sg164
(dp1047
g432
((lp1048
F41.600000000005821
tp1049
sg476
((lp1050
F40.459999999999127
tp1051
sg522
((lp1052
(F35.830000000001746
I95
tp1053
aF40.900000000001455
tp1054
sg561
((lp1055
F44.430000000000291
tp1056
sg620
((lp1057
F41.259999999994761
tp1058
ssba(imeasure_core
ProblemSetSolution
p1059
(dp1060
g3
g4
sg161
S'AnytimeBest-d250_with_LinearHeuristic'
p1061
sg164
(dp1062
g8
((lp1063
(F0.34999999999854481
I5
tp1064
aF40.139999999999418
tp1065
sg47
((lp1066
(F0.12000000000261934
I22
tp1067
aF40.010000000002037
tp1068
sg76
((lp1069
(F2.3499999999985448
I10
tp1070
aF40.410000000003492
tp1071
sg106
((lp1072
(F0.019999999996798579
I20
tp1073
aF6.930000000000291
tp1074
sg131
((lp1075
F40.069999999999709
tp1076
ssba(imeasure_core
ProblemSetSolution
p1077
(dp1078
g3
g179
sg161
g1061
sg164
(dp1079
g182
((lp1080
(F24.629999999997381
I177
tp1081
aF40.059999999997672
tp1082
sg229
((lp1083
F40.05000000000291
tp1084
sg274
((lp1085
(F0.31999999999970896
I23
tp1086
a(F8.9899999999979627
I21
tp1087
a(F12.080000000001746
I20
tp1088
a(F17.889999999999418
I19
tp1089
aF40.05000000000291
tp1090
sg316
((lp1091
F40.039999999993597
tp1092
sg368
((lp1093
F40.260000000002037
tp1094
ssba(imeasure_core
ProblemSetSolution
p1095
(dp1096
g3
g429
sg161
g1061
sg164
(dp1097
g432
((lp1098
F41.930000000000291
tp1099
sg476
((lp1100
F40.610000000000582
tp1101
sg522
((lp1102
(F35.730000000003201
I95
tp1103
aF40.790000000000873
tp1104
sg561
((lp1105
F44.25
tp1106
sg620
((lp1107
F40.940000000002328
tp1108
ssba(imeasure_core
ProblemSetSolution
p1109
(dp1110
g3
g4
sg161
S'AnytimeBest-d400_with_LinearHeuristic'
p1111
sg164
(dp1112
g8
((lp1113
(F0.34999999999854481
I5
tp1114
aF40.129999999997381
tp1115
sg47
((lp1116
(F0.12000000000261934
I22
tp1117
aF40.010000000002037
tp1118
sg76
((lp1119
(F2.3399999999965075
I10
tp1120
aF40.369999999995343
tp1121
sg106
((lp1122
(F0.020000000004074536
I20
tp1123
aF7.0
tp1124
sg131
((lp1125
F40.069999999999709
tp1126
ssba(imeasure_core
ProblemSetSolution
p1127
(dp1128
g3
g179
sg161
g1111
sg164
(dp1129
g182
((lp1130
(F24.580000000001746
I177
tp1131
aF40.05000000000291
tp1132
sg229
((lp1133
F40.059999999997672
tp1134
sg274
((lp1135
(F0.31999999999970896
I23
tp1136
a(F8.9599999999991269
I21
tp1137
a(F12.069999999999709
I20
tp1138
a(F17.810000000004948
I19
tp1139
aF40.05000000000291
tp1140
sg316
((lp1141
F40.040000000000873
tp1142
sg368
((lp1143
F40.299999999995634
tp1144
ssba(imeasure_core
ProblemSetSolution
p1145
(dp1146
g3
g429
sg161
g1111
sg164
(dp1147
g432
((lp1148
F42.060000000004948
tp1149
sg476
((lp1150
F40.44999999999709
tp1151
sg522
((lp1152
(F35.910000000003492
I95
tp1153
aF40.340000000003783
tp1154
sg561
((lp1155
F44.359999999993306
tp1156
sg620
((lp1157
F40.570000000006985
tp1158
ssba.