(lp0
(imeasure_core
ProblemSetSolution
p1
(dp2
S'roomset'
p3
(imeasure_core
RoomSet
p4
(dp5
S'rooms'
p6
(dp7
(iproblems
RoomID
p8
(dp9
S'dusts'
p10
I6
sS'obstacles'
p11
(I3
I2
tp12
sS'robots'
p13
I1
sS'height'
p14
I9
sS'width'
p15
I10
sS'seed'
p16
I6832892905590973747
sb(imulti_robot_problem
MultiRobotState
p17
(dp18
S'obstacle_locations'
p19
c__builtin__
frozenset
p20
((lp21
(I3
I0
tp22
a(I2
I0
tp23
ag12
a(I3
I1
tp24
atp25
Rp26
sg15
I10
sS'dirt_locations'
p27
g20
((lp28
(I1
I2
tp29
a(I2
I7
tp30
a(I0
I0
tp31
a(I0
I5
tp32
a(I5
I6
tp33
a(I0
I2
tp34
atp35
Rp36
sg13
((I8
I4
tp37
tp38
sg14
I9
sbs(iproblems
RoomID
p39
(dp40
g10
I7
sg11
(I3
I5
tp41
sg13
I5
sg14
I7
sg15
I9
sg16
I6924344268699531175
sb(imulti_robot_problem
MultiRobotState
p42
(dp43
g19
g20
((lp44
(I2
I6
tp45
a(I1
I6
tp46
a(I3
I6
tp47
ag41
atp48
Rp49
sg15
I9
sg27
g20
((lp50
(I1
I2
tp51
a(I0
I0
tp52
a(I5
I0
tp53
a(I7
I1
tp54
a(I8
I6
tp55
a(I3
I4
tp56
a(I6
I5
tp57
atp58
Rp59
sg13
((I4
I0
tp60
(I7
I2
tp61
(I1
I1
tp62
(I6
I1
tp63
(I8
I4
tp64
tp65
sg14
I7
sbs(iproblems
RoomID
p66
(dp67
g10
I5
sg11
(I4
I7
tp68
sg13
I3
sg14
I9
sg15
I7
sg16
I2524308075868763041
sb(imulti_robot_problem
MultiRobotState
p69
(dp70
g19
g20
((lp71
(I1
I2
tp72
a(I3
I8
tp73
ag68
a(I4
I6
tp74
a(I4
I1
tp75
a(I2
I4
tp76
a(I3
I5
tp77
atp78
Rp79
sg15
I7
sg27
g20
((lp80
(I2
I6
tp81
a(I5
I2
tp82
a(I3
I3
tp83
a(I0
I7
tp84
a(I3
I6
tp85
atp86
Rp87
sg13
((I0
I6
tp88
(I3
I1
tp89
(I4
I8
tp90
tp91
sg14
I9
sbs(iproblems
RoomID
p92
(dp93
g10
I6
sg11
(I3
I1
tp94
sg13
I4
sg14
I8
sg15
I7
sg16
I807570059310326234
sb(imulti_robot_problem
MultiRobotState
p95
(dp96
g19
g20
((lp97
(I6
I3
tp98
a(I4
I2
tp99
ag94
a(I5
I3
tp100
atp101
Rp102
sg15
I7
sg27
g20
((lp103
(I3
I2
tp104
a(I6
I7
tp105
a(I4
I6
tp106
a(I0
I4
tp107
a(I1
I0
tp108
a(I5
I2
tp109
atp110
Rp111
sg13
((I1
I2
tp112
(I0
I1
tp113
(I3
I7
tp114
(I2
I4
tp115
tp116
sg14
I8
sbs(iproblems
RoomID
p117
(dp118
g10
I8
sg11
(I5
I0
tp119
sg13
I4
sg14
I10
sg15
I10
sg16
I3562373307524659409
sb(imulti_robot_problem
MultiRobotState
p120
(dp121
g19
g20
((lp122
(I6
I3
tp123
a(I6
I7
tp124
ag119
a(I3
I6
tp125
a(I8
I1
tp126
a(I7
I0
tp127
a(I6
I0
tp128
atp129
Rp130
sg15
I10
sg27
g20
((lp131
(I1
I3
tp132
a(I2
I9
tp133
a(I7
I6
tp134
a(I7
I7
tp135
a(I8
I9
tp136
a(I1
I8
tp137
a(I1
I6
tp138
a(I2
I2
tp139
atp140
Rp141
sg13
((I9
I8
tp142
(I6
I5
tp143
(I5
I1
tp144
(I8
I8
tp145
tp146
sg14
I10
sbssS'name'
p147
S'easy_roomset'
p148
sbsg147
S"AnytimeBeam-w5-gf(1.3, 'exp')_with_PowerHeuristic2"
p149
sS'solutions'
p150
(dp151
g8
((lp152
(F0.060000000004947651
I62
tp153
a(F0.12000000000261934
I42
tp154
a(F3.1700000000055297
I38
tp155
a(F6.1300000000046566
I37
tp156
a(F7.7200000000011642
I35
tp157
a(F9.0
I33
tp158
a(F10.0
I31
tp159
a(F11.810000000004948
I29
tp160
a(F14.440000000002328
I27
tp161
a(F17.970000000001164
I25
tp162
a(F22.510000000002037
I22
tp163
a(F25.160000000003492
I20
tp164
aF40.0
tp165
sg39
((lp166
(F1.4500000000043656
I7
tp167
aF40.310000000004948
tp168
sg117
((lp169
(F0.34999999999854481
I10
tp170
aF40.299999999995634
tp171
sg92
((lp172
F40.140000000006694
tp173
sg66
((lp174
(F0.029999999998835847
I7
tp175
aF40.039999999993597
tp176
ssba(imeasure_core
ProblemSetSolution
p177
(dp178
g3
(imeasure_core
RoomSet
p179
(dp180
g6
(dp181
(iproblems
RoomID
p182
(dp183
g10
I6
sg11
(I6
I2
tp184
sg13
I3
sg14
I11
sg15
I12
sg16
I6832892905590973747
sb(imulti_robot_problem
MultiRobotState
p185
(dp186
g19
g20
((lp187
(I6
I4
tp188
a(I2
I6
tp189
a(I4
I3
tp190
a(I3
I0
tp191
a(I2
I8
tp192
a(I7
I7
tp193
a(I7
I5
tp194
a(I4
I2
tp195
a(I5
I3
tp196
a(I4
I1
tp197
a(I7
I6
tp198
a(I6
I3
tp199
a(I4
I5
tp200
ag184
a(I3
I6
tp201
a(I8
I6
tp202
a(I4
I0
tp203
a(I5
I2
tp204
a(I2
I4
tp205
atp206
Rp207
sg15
I12
sg27
g20
((lp208
(I1
I6
tp209
a(I6
I8
tp210
a(I2
I9
tp211
a(I0
I3
tp212
a(I0
I2
tp213
a(I7
I9
tp214
atp215
Rp216
sg13
((I10
I6
tp217
(I1
I2
tp218
(I0
I0
tp219
tp220
sg14
I11
sbs(iproblems
RoomID
p221
(dp222
g10
I7
sg11
(I3
I1
tp223
sg13
I4
sg14
I9
sg15
I11
sg16
I6924344268699531175
sb(imulti_robot_problem
MultiRobotState
p224
(dp225
g19
g20
((lp226
(I4
I7
tp227
ag223
a(I6
I6
tp228
a(I5
I6
tp229
a(I2
I8
tp230
a(I9
I8
tp231
a(I7
I7
tp232
a(I0
I7
tp233
a(I7
I5
tp234
a(I8
I7
tp235
a(I0
I3
tp236
a(I0
I8
tp237
a(I8
I5
tp238
a(I6
I3
tp239
a(I5
I2
tp240
a(I7
I6
tp241
a(I4
I8
tp242
a(I7
I4
tp243
a(I3
I8
tp244
a(I0
I6
tp245
a(I8
I8
tp246
a(I4
I1
tp247
a(I9
I7
tp248
atp249
Rp250
sg15
I11
sg27
g20
((lp251
(I8
I3
tp252
a(I1
I3
tp253
a(I4
I6
tp254
a(I4
I3
tp255
a(I0
I4
tp256
a(I10
I5
tp257
a(I0
I0
tp258
atp259
Rp260
sg13
((I6
I0
tp261
(I9
I3
tp262
(I1
I1
tp263
(I8
I1
tp264
tp265
sg14
I9
sbs(iproblems
RoomID
p266
(dp267
g10
I10
sg11
(I6
I8
tp268
sg13
I3
sg14
I11
sg15
I10
sg16
I7391799147228763464
sb(imulti_robot_problem
MultiRobotState
p269
(dp270
g19
g20
((lp271
(I5
I9
tp272
a(I4
I7
tp273
a(I4
I6
tp274
a(I4
I8
tp275
a(I4
I5
tp276
a(I6
I9
tp277
a(I0
I7
tp278
a(I1
I4
tp279
a(I3
I7
tp280
a(I5
I8
tp281
ag268
a(I2
I7
tp282
a(I3
I8
tp283
a(I4
I9
tp284
a(I3
I3
tp285
a(I9
I2
tp286
a(I6
I3
tp287
a(I3
I6
tp288
a(I1
I7
tp289
a(I0
I9
tp290
a(I7
I8
tp291
a(I0
I2
tp292
a(I1
I9
tp293
atp294
Rp295
sg15
I10
sg27
g20
((lp296
(I8
I3
tp297
a(I5
I10
tp298
a(I5
I5
tp299
a(I2
I8
tp300
a(I7
I6
tp301
a(I6
I0
tp302
a(I2
I10
tp303
a(I9
I4
tp304
a(I1
I10
tp305
a(I0
I3
tp306
atp307
Rp308
sg13
((I3
I10
tp309
(I7
I1
tp310
(I1
I5
tp311
tp312
sg14
I11
sbs(iproblems
RoomID
p313
(dp314
g10
I6
sg11
(I2
I5
tp315
sg13
I4
sg14
I10
sg15
I9
sg16
I807570059310326234
sb(imulti_robot_problem
MultiRobotState
p316
(dp317
g19
g20
((lp318
(I6
I4
tp319
a(I3
I2
tp320
a(I1
I3
tp321
a(I8
I2
tp322
a(I2
I3
tp323
a(I3
I8
tp324
ag315
a(I1
I0
tp325
a(I1
I2
tp326
a(I7
I4
tp327
a(I4
I1
tp328
a(I3
I3
tp329
a(I3
I4
tp330
a(I1
I1
tp331
a(I6
I3
tp332
a(I2
I0
tp333
a(I1
I8
tp334
a(I2
I2
tp335
a(I5
I2
tp336
a(I0
I2
tp337
a(I8
I4
tp338
atp339
Rp340
sg15
I9
sg27
g20
((lp341
(I7
I3
tp342
a(I2
I6
tp343
a(I1
I6
tp344
a(I4
I2
tp345
a(I5
I8
tp346
a(I7
I9
tp347
atp348
Rp349
sg13
((I6
I2
tp350
(I0
I1
tp351
(I3
I9
tp352
(I3
I5
tp353
tp354
sg14
I10
sbs(iproblems
RoomID
p355
(dp356
g10
I8
sg11
(I11
I7
tp357
sg13
I4
sg14
I12
sg15
I12
sg16
I3562373307524659409
sb(imulti_robot_problem
MultiRobotState
p358
(dp359
g19
g20
((lp360
(I6
I4
tp361
a(I6
I9
tp362
a(I3
I2
tp363
a(I9
I1
tp364
a(I6
I6
tp365
a(I5
I6
tp366
a(I9
I8
tp367
a(I3
I11
tp368
a(I7
I1
tp369
ag357
a(I8
I9
tp370
a(I3
I9
tp371
a(I11
I8
tp372
a(I10
I2
tp373
a(I4
I2
tp374
a(I7
I2
tp375
a(I10
I8
tp376
a(I8
I3
tp377
a(I8
I1
tp378
a(I3
I10
tp379
a(I5
I11
tp380
a(I6
I3
tp381
a(I6
I11
tp382
a(I6
I5
tp383
a(I7
I10
tp384
a(I4
I8
tp385
a(I11
I6
tp386
a(I4
I11
tp387
atp388
Rp389
sg15
I12
sg27
g20
((lp390
(I7
I3
tp391
a(I1
I3
tp392
a(I10
I11
tp393
a(I1
I7
tp394
a(I8
I8
tp395
a(I2
I2
tp396
a(I3
I7
tp397
a(I7
I9
tp398
atp399
Rp400
sg13
((I11
I10
tp401
(I7
I6
tp402
(I10
I10
tp403
(I2
I10
tp404
tp405
sg14
I12
sbssg147
S'mild_roomset'
p406
sbsg147
g149
sg150
(dp407
g182
((lp408
(F0.069999999999708962
I10
tp409
aF40.029999999998836
tp410
sg221
((lp411
(F7.1300000000046566
I106
tp412
a(F11.930000000000291
I79
tp413
aF40.010000000002037
tp414
sg313
((lp415
(F6.4799999999959255
I108
tp416
aF40.0
tp417
sg355
((lp418
(F4.930000000000291
I75
tp419
aF40.069999999999709
tp420
sg266
((lp421
(F0.37000000000261934
I36
tp422
aF40.010000000002037
tp423
ssba(imeasure_core
ProblemSetSolution
p424
(dp425
g3
(imeasure_core
RoomSet
p426
(dp427
g6
(dp428
(iproblems
RoomID
p429
(dp430
g10
I11
sg11
(I4
I2
tp431
sg13
I5
sg14
I12
sg15
I13
sg16
I6832892905590973747
sb(imulti_robot_problem
MultiRobotState
p432
(dp433
g19
g20
((lp434
(I5
I9
tp435
a(I6
I9
tp436
a(I8
I2
tp437
a(I3
I0
tp438
a(I3
I4
tp439
a(I12
I11
tp440
ag431
a(I4
I1
tp441
a(I4
I0
tp442
atp443
Rp444
sg15
I13
sg27
g20
((lp445
(I2
I7
tp446
a(I9
I0
tp447
a(I6
I8
tp448
a(I4
I5
tp449
a(I2
I8
tp450
a(I8
I10
tp451
a(I2
I10
tp452
a(I1
I7
tp453
a(I3
I7
tp454
a(I2
I5
tp455
a(I0
I8
tp456
atp457
Rp458
sg13
((I11
I6
tp459
(I1
I2
tp460
(I1
I0
tp461
(I0
I3
tp462
(I0
I2
tp463
tp464
sg14
I12
sbs(iproblems
RoomID
p465
(dp466
g10
I12
sg11
(I6
I7
tp467
sg13
I7
sg14
I10
sg15
I12
sg16
I6924344268699531175
sb(imulti_robot_problem
MultiRobotState
p468
(dp469
g19
g20
((lp470
(I4
I7
tp471
ag467
a(I2
I9
tp472
a(I4
I8
tp473
a(I9
I6
tp474
a(I5
I7
tp475
a(I0
I6
tp476
a(I3
I9
tp477
a(I0
I9
tp478
a(I4
I9
tp479
a(I4
I1
tp480
atp481
Rp482
sg15
I12
sg27
g20
((lp483
(I7
I3
tp484
a(I5
I4
tp485
a(I1
I3
tp486
a(I9
I1
tp487
a(I8
I3
tp488
a(I0
I7
tp489
a(I8
I8
tp490
a(I0
I0
tp491
a(I0
I4
tp492
a(I0
I8
tp493
a(I11
I6
tp494
a(I9
I7
tp495
atp496
Rp497
sg13
((I6
I0
tp498
(I10
I4
tp499
(I1
I1
tp500
(I8
I2
tp501
(I11
I5
tp502
(I5
I6
tp503
(I10
I9
tp504
tp505
sg14
I10
sbs(iproblems
RoomID
p506
(dp507
g10
I15
sg11
(I4
I8
tp508
sg13
I6
sg14
I12
sg15
I11
sg16
I7391799147228763464
sb(imulti_robot_problem
MultiRobotState
p509
(dp510
g19
g20
((lp511
(I6
I4
tp512
a(I4
I7
tp513
ag508
a(I5
I6
tp514
a(I2
I8
tp515
a(I5
I7
tp516
a(I6
I9
tp517
a(I4
I2
tp518
a(I9
I2
tp519
a(I1
I6
tp520
a(I10
I7
tp521
a(I8
I6
tp522
a(I2
I4
tp523
atp524
Rp525
sg15
I11
sg27
g20
((lp526
(I7
I0
tp527
a(I10
I4
tp528
a(I6
I11
tp529
a(I7
I6
tp530
a(I1
I4
tp531
a(I8
I9
tp532
a(I1
I8
tp533
a(I3
I9
tp534
a(I0
I10
tp535
a(I9
I4
tp536
a(I7
I10
tp537
a(I1
I10
tp538
a(I4
I3
tp539
a(I0
I3
tp540
a(I0
I2
tp541
atp542
Rp543
sg13
((I4
I6
tp544
(I3
I11
tp545
(I7
I1
tp546
(I2
I5
tp547
(I5
I9
tp548
(I2
I11
tp549
tp550
sg14
I12
sbs(iproblems
RoomID
p551
(dp552
g10
I13
sg11
(I7
I4
tp553
sg13
I6
sg14
I13
sg15
I13
sg16
I3562373307524659409
sb(imulti_robot_problem
MultiRobotState
p554
(dp555
g19
g20
((lp556
(I7
I3
tp557
a(I5
I4
tp558
a(I4
I9
tp559
a(I9
I1
tp560
a(I5
I9
tp561
a(I8
I1
tp562
a(I11
I2
tp563
a(I9
I3
tp564
a(I3
I11
tp565
a(I11
I7
tp566
ag553
a(I10
I1
tp567
a(I3
I10
tp568
a(I10
I5
tp569
a(I8
I2
tp570
atp571
Rp572
sg15
I13
sg27
g20
((lp573
(I8
I3
tp574
a(I3
I12
tp575
a(I4
I8
tp576
a(I6
I10
tp577
a(I9
I9
tp578
a(I12
I6
tp579
a(I8
I9
tp580
a(I1
I8
tp581
a(I4
I3
tp582
a(I2
I2
tp583
a(I4
I2
tp584
a(I11
I12
tp585
a(I2
I4
tp586
atp587
Rp588
sg13
((I12
I11
tp589
(I7
I6
tp590
(I7
I1
tp591
(I10
I11
tp592
(I2
I11
tp593
(I9
I8
tp594
tp595
sg14
I13
sbs(iproblems
RoomID
p596
(dp597
g10
I11
sg11
(I5
I1
tp598
sg13
I7
sg14
I11
sg15
I10
sg16
I807570059310326234
sb(imulti_robot_problem
MultiRobotState
p599
(dp600
g19
g20
((lp601
(I7
I3
tp602
a(I4
I6
tp603
a(I7
I4
tp604
a(I6
I2
tp605
a(I1
I9
tp606
a(I9
I4
tp607
ag598
a(I0
I3
tp608
a(I5
I2
tp609
a(I8
I4
tp610
atp611
Rp612
sg15
I10
sg27
g20
((lp613
(I5
I9
tp614
a(I6
I9
tp615
a(I2
I9
tp616
a(I4
I8
tp617
a(I9
I2
tp618
a(I2
I0
tp619
a(I1
I6
tp620
a(I9
I5
tp621
a(I4
I2
tp622
a(I1
I0
tp623
a(I3
I5
tp624
atp625
Rp626
sg13
((I1
I3
tp627
(I0
I2
tp628
(I4
I10
tp629
(I4
I5
tp630
(I8
I10
tp631
(I8
I3
tp632
(I2
I6
tp633
tp634
sg14
I11
sbssg147
S'heavy_roomset'
p635
sbsg147
g149
sg150
(dp636
g429
((lp637
(F5.9899999999979627
I24
tp638
aF40.119999999995343
tp639
sg465
((lp640
F56.540000000000873
tp641
sg506
((lp642
F40.629999999997381
tp643
sg551
((lp644
(F19.639999999999418
I15
tp645
aF40.090000000003783
tp646
sg596
((lp647
F40.69999999999709
tp648
ssba(imeasure_core
ProblemSetSolution
p649
(dp650
g3
g4
sg147
S"AnytimeBeam-w15-gf(1.3, 'exp')_with_PowerHeuristic2"
p651
sg150
(dp652
g8
((lp653
(F0.12000000000261934
I54
tp654
a(F0.27999999999883585
I50
tp655
a(F0.86000000000058208
I44
tp656
a(F3.2699999999967986
I43
tp657
a(F4.1900000000023283
I42
tp658
a(F5.1200000000026193
I38
tp659
a(F6.75
I37
tp660
a(F8.3300000000017462
I35
tp661
a(F9.6100000000005821
I33
tp662
a(F10.610000000000582
I31
tp663
a(F12.419999999998254
I29
tp664
a(F15.040000000000873
I27
tp665
a(F18.569999999999709
I25
tp666
a(F23.099999999998545
I22
tp667
a(F25.75
I20
tp668
aF40.0
tp669
sg39
((lp670
(F2.0199999999967986
I7
tp671
aF40.230000000003201
tp672
sg117
((lp673
(F0.45999999999912689
I10
tp674
aF40.180000000000291
tp675
sg92
((lp676
F40.110000000000582
tp677
sg66
((lp678
(F0.059999999997671694
I7
tp679
aF40.099999999998545
tp680
ssba(imeasure_core
ProblemSetSolution
p681
(dp682
g3
g179
sg147
g651
sg150
(dp683
g182
((lp684
(F0.11999999999534339
I10
tp685
aF40.029999999998836
tp686
sg221
((lp687
(F4.0400000000008731
I78
tp688
aF40.159999999996217
tp689
sg313
((lp690
(F4.8700000000026193
I108
tp691
aF40.020000000004075
tp692
sg355
((lp693
(F2.819999999999709
I75
tp694
aF40.120000000002619
tp695
sg266
((lp696
(F0.5
I36
tp697
aF40.029999999998836
tp698
ssba(imeasure_core
ProblemSetSolution
p699
(dp700
g3
g426
sg147
g651
sg150
(dp701
g429
((lp702
(F7.180000000000291
I24
tp703
aF40.059999999997672
tp704
sg465
((lp705
F57.019999999996799
tp706
sg506
((lp707
(F36.42000000000553
I40
tp708
aF41.569999999999709
tp709
sg551
((lp710
(F21.470000000001164
I15
tp711
aF41.120000000002619
tp712
sg596
((lp713
F40.129999999997381
tp714
ssba(imeasure_core
ProblemSetSolution
p715
(dp716
g3
g4
sg147
S"AnytimeBeam-w25-gf(1.3, 'exp')_with_PowerHeuristic2"
p717
sg150
(dp718
g8
((lp719
(F0.19000000000232831
I50
tp720
a(F0.44999999999708962
I44
tp721
a(F2.9100000000034925
I43
tp722
a(F3.8300000000017462
I42
tp723
a(F4.7600000000020373
I38
tp724
a(F6.4100000000034925
I37
tp725
a(F8.0
I35
tp726
a(F9.2900000000008731
I33
tp727
a(F10.279999999998836
I31
tp728
a(F12.069999999999709
I29
tp729
a(F14.650000000001455
I27
tp730
a(F18.150000000001455
I25
tp731
a(F22.639999999999418
I22
tp732
a(F25.260000000002037
I20
tp733
aF40.0
tp734
sg39
((lp735
(F2.069999999999709
I7
tp736
aF40.0
tp737
sg117
((lp738
(F0.52999999999883585
I10
tp739
aF40.160000000003492
tp740
sg92
((lp741
F40.229999999995925
tp742
sg66
((lp743
(F0.069999999999708962
I7
tp744
aF40.020000000004075
tp745
ssba(imeasure_core
ProblemSetSolution
p746
(dp747
g3
g179
sg147
g717
sg150
(dp748
g182
((lp749
(F0.13999999999941792
I10
tp750
aF40.020000000004075
tp751
sg221
((lp752
(F5.9700000000011642
I79
tp753
aF40.0
tp754
sg313
((lp755
(F5.5500000000029104
I108
tp756
aF40.05000000000291
tp757
sg355
((lp758
(F3.2799999999988358
I75
tp759
aF40.149999999994179
tp760
sg266
((lp761
(F0.58000000000174623
I36
tp762
aF40.029999999998836
tp763
ssba(imeasure_core
ProblemSetSolution
p764
(dp765
g3
g426
sg147
g717
sg150
(dp766
g429
((lp767
(F7.4100000000034925
I24
tp768
aF40.190000000002328
tp769
sg465
((lp770
F56.75
tp771
sg506
((lp772
(F36.639999999999418
I40
tp773
aF41.80000000000291
tp774
sg551
((lp775
(F21.549999999995634
I15
tp776
aF41.819999999999709
tp777
sg596
((lp778
F40.269999999996799
tp779
ssba(imeasure_core
ProblemSetSolution
p780
(dp781
g3
g4
sg147
S"AnytimeBeam-w35-gf(1.3, 'exp')_with_PowerHeuristic2"
p782
sg150
(dp783
g8
((lp784
(F0.26000000000203727
I44
tp785
a(F2.7600000000020373
I43
tp786
a(F3.680000000000291
I42
tp787
a(F4.6100000000005821
I38
tp788
a(F6.25
I37
tp789
a(F7.819999999999709
I35
tp790
a(F9.1100000000005821
I33
tp791
a(F10.110000000000582
I31
tp792
a(F11.930000000000291
I29
tp793
a(F14.559999999997672
I27
tp794
a(F18.090000000003783
I25
tp795
a(F22.629999999997381
I22
tp796
a(F25.270000000004075
I20
tp797
aF40.0
tp798
sg39
((lp799
(F2.3499999999985448
I7
tp800
aF40.010000000002037
tp801
sg117
((lp802
(F0.60999999999330612
I10
tp803
aF40.129999999997381
tp804
sg92
((lp805
F40.240000000005239
tp806
sg66
((lp807
(F0.069999999999708962
I7
tp808
aF40.019999999996799
tp809
ssba(imeasure_core
ProblemSetSolution
p810
(dp811
g3
g179
sg147
g782
sg150
(dp812
g182
((lp813
(F0.16999999999825377
I10
tp814
aF40.040000000000873
tp815
sg221
((lp816
(F7.2399999999979627
I79
tp817
aF40.009999999994761
tp818
sg313
((lp819
(F6.1600000000034925
I108
tp820
aF40.030000000006112
tp821
sg355
((lp822
(F3.5899999999965075
I75
tp823
aF40.339999999996508
tp824
sg266
((lp825
(F0.65000000000145519
I36
tp826
aF40.040000000000873
tp827
ssba(imeasure_core
ProblemSetSolution
p828
(dp829
g3
g426
sg147
g782
sg150
(dp830
g429
((lp831
(F8.0
I24
tp832
aF40.0
tp833
sg465
((lp834
F56.819999999999709
tp835
sg506
((lp836
(F37.830000000001746
I40
tp837
aF42.980000000003201
tp838
sg551
((lp839
(F22.549999999995634
I15
tp840
aF40.19999999999709
tp841
sg596
((lp842
F40.290000000000873
tp843
ssba(imeasure_core
ProblemSetSolution
p844
(dp845
g3
g4
sg147
S"AnytimeBeam-w45-gf(1.3, 'exp')_with_PowerHeuristic2"
p846
sg150
(dp847
g8
((lp848
(F0.26999999999679858
I44
tp849
a(F2.0100000000020373
I43
tp850
a(F2.930000000000291
I42
tp851
a(F3.8700000000026193
I38
tp852
a(F5.5
I37
tp853
a(F7.0899999999965075
I35
tp854
a(F8.3700000000026193
I33
tp855
a(F9.3700000000026193
I31
tp856
a(F11.180000000000291
I29
tp857
a(F13.809999999997672
I27
tp858
a(F17.339999999996508
I25
tp859
a(F21.879999999997381
I22
tp860
a(F24.529999999998836
I20
tp861
aF40.0
tp862
sg39
((lp863
(F2.4499999999970896
I7
tp864
aF40.409999999996217
tp865
sg117
((lp866
(F0.68000000000029104
I10
tp867
aF40.05000000000291
tp868
sg92
((lp869
F40.110000000000582
tp870
sg66
((lp871
(F0.08000000000174623
I7
tp872
aF40.080000000001746
tp873
ssba(imeasure_core
ProblemSetSolution
p874
(dp875
g3
g179
sg147
g846
sg150
(dp876
g182
((lp877
(F0.18999999999505235
I10
tp878
aF40.059999999997672
tp879
sg221
((lp880
(F7.7099999999991269
I79
tp881
aF40.010000000002037
tp882
sg313
((lp883
(F6.430000000000291
I108
tp884
aF40.110000000000582
tp885
sg355
((lp886
(F3.9199999999982538
I75
tp887
aF40.009999999994761
tp888
sg266
((lp889
(F0.69999999999708962
I36
tp890
aF40.040000000000873
tp891
ssba(imeasure_core
ProblemSetSolution
p892
(dp893
g3
g426
sg147
g846
sg150
(dp894
g429
((lp895
(F8.2200000000011642
I24
tp896
aF40.630000000004657
tp897
sg465
((lp898
F56.959999999999127
tp899
sg506
((lp900
(F38.279999999998836
I40
tp901
aF43.430000000000291
tp902
sg551
((lp903
(F22.75
I15
tp904
aF40.159999999996217
tp905
sg596
((lp906
F40.639999999999418
tp907
ssba(imeasure_core
ProblemSetSolution
p908
(dp909
g3
g4
sg147
S"AnytimeBeam-w5-gf(1.3, 'exp')_with_LinearHeuristic"
p910
sg150
(dp911
g8
((lp912
(F0.010000000002037268
I20
tp913
aF40.0
tp914
sg39
((lp915
(F1.2300000000032014
I7
tp916
aF40.360000000000582
tp917
sg117
((lp918
F40.059999999997672
tp919
sg92
((lp920
F40.029999999998836
tp921
sg66
((lp922
(F2.9400000000023283
I47
tp923
a(F12.400000000001455
I46
tp924
a(F17.529999999998836
I45
tp925
a(F23.069999999999709
I44
tp926
a(F30.059999999997672
I43
tp927
a(F36.229999999995925
I42
tp928
aF40.040000000000873
tp929
ssba(imeasure_core
ProblemSetSolution
p930
(dp931
g3
g179
sg147
g910
sg150
(dp932
g182
((lp933
(F0.12000000000261934
I12
tp934
aF40.020000000004075
tp935
sg221
((lp936
F40.029999999998836
tp937
sg313
((lp938
F40.069999999999709
tp939
sg355
((lp940
(F0.59999999999854481
I31
tp941
a(F26.259999999994761
I30
tp942
a(F32.959999999999127
I29
tp943
aF40.149999999994179
tp944
sg266
((lp945
(F0.34999999999854481
I38
tp946
aF40.080000000001746
tp947
ssba(imeasure_core
ProblemSetSolution
p948
(dp949
g3
g426
sg147
g910
sg150
(dp950
g429
((lp951
F40.140000000006694
tp952
sg465
((lp953
F40.25
tp954
sg506
((lp955
F40.409999999996217
tp956
sg551
((lp957
F40.319999999999709
tp958
sg596
((lp959
F42.55000000000291
tp960
ssba(imeasure_core
ProblemSetSolution
p961
(dp962
g3
g4
sg147
S"AnytimeBeam-w15-gf(1.3, 'exp')_with_LinearHeuristic"
p963
sg150
(dp964
g8
((lp965
(F0.010000000002037268
I20
tp966
aF40.0
tp967
sg39
((lp968
(F1.5800000000017462
I7
tp969
aF40.060000000004948
tp970
sg117
((lp971
F40.100000000005821
tp972
sg92
((lp973
F40.069999999999709
tp974
sg66
((lp975
(F0.93000000000029104
I47
tp976
a(F10.94999999999709
I46
tp977
a(F16.639999999999418
I45
tp978
a(F22.180000000000291
I44
tp979
a(F29.540000000000873
I43
tp980
a(F36.309999999997672
I42
tp981
aF40.049999999995634
tp982
ssba(imeasure_core
ProblemSetSolution
p983
(dp984
g3
g179
sg147
g963
sg150
(dp985
g182
((lp986
(F0.20999999999912689
I12
tp987
aF40.029999999998836
tp988
sg221
((lp989
F40.029999999998836
tp990
sg313
((lp991
F40.010000000002037
tp992
sg355
((lp993
(F0.89999999999417923
I31
tp994
a(F21.679999999993015
I30
tp995
a(F28.159999999996217
I29
tp996
a(F37.619999999995343
I28
tp997
aF40.109999999993306
tp998
sg266
((lp999
(F0.62000000000261934
I38
tp1000
aF40.040000000000873
tp1001
ssba(imeasure_core
ProblemSetSolution
p1002
(dp1003
g3
g426
sg147
g963
sg150
(dp1004
g429
((lp1005
F40.260000000002037
tp1006
sg465
((lp1007
F40.459999999999127
tp1008
sg506
((lp1009
F40.870000000002619
tp1010
sg551
((lp1011
F40.059999999997672
tp1012
sg596
((lp1013
F40.630000000004657
tp1014
ssba(imeasure_core
ProblemSetSolution
p1015
(dp1016
g3
g4
sg147
S"AnytimeBeam-w25-gf(1.3, 'exp')_with_LinearHeuristic"
p1017
sg150
(dp1018
g8
((lp1019
(F0.010000000002037268
I20
tp1020
aF40.0
tp1021
sg39
((lp1022
(F1.7000000000043656
I7
tp1023
aF40.060000000004948
tp1024
sg117
((lp1025
F40.319999999999709
tp1026
sg92
((lp1027
F40.099999999998545
tp1028
sg66
((lp1029
(F0.97999999999592546
I47
tp1030
a(F8.6499999999941792
I46
tp1031
a(F13.809999999997672
I45
tp1032
a(F19.379999999997381
I44
tp1033
a(F26.599999999998545
I43
tp1034
a(F33.309999999997672
I42
tp1035
aF40.019999999996799
tp1036
ssba(imeasure_core
ProblemSetSolution
p1037
(dp1038
g3
g179
sg147
g1017
sg150
(dp1039
g182
((lp1040
(F0.27999999999883585
I12
tp1041
aF40.029999999998836
tp1042
sg221
((lp1043
F40.110000000000582
tp1044
sg313
((lp1045
F40.130000000004657
tp1046
sg355
((lp1047
(F1.069999999999709
I31
tp1048
a(F24.649999999994179
I30
tp1049
a(F31.759999999994761
I29
tp1050
aF40.169999999998254
tp1051
sg266
((lp1052
(F0.73000000000320142
I38
tp1053
aF40.069999999999709
tp1054
ssba(imeasure_core
ProblemSetSolution
p1055
(dp1056
g3
g426
sg147
g1017
sg150
(dp1057
g429
((lp1058
F40.169999999998254
tp1059
sg465
((lp1060
F40.620000000002619
tp1061
sg506
((lp1062
F41.029999999998836
tp1063
sg551
((lp1064
F40.369999999995343
tp1065
sg596
((lp1066
F41.140000000006694
tp1067
ssba(imeasure_core
ProblemSetSolution
p1068
(dp1069
g3
g4
sg147
S"AnytimeBeam-w35-gf(1.3, 'exp')_with_LinearHeuristic"
p1070
sg150
(dp1071
g8
((lp1072
(F0.0
I20
tp1073
aF40.0
tp1074
sg39
((lp1075
(F2.0200000000040745
I7
tp1076
aF40.709999999999127
tp1077
sg117
((lp1078
F40.129999999997381
tp1079
sg92
((lp1080
F40.220000000001164
tp1081
sg66
((lp1082
(F1.1399999999994179
I47
tp1083
a(F7.9599999999991269
I46
tp1084
a(F13.660000000003492
I45
tp1085
a(F19.180000000000291
I44
tp1086
a(F26.569999999999709
I43
tp1087
a(F33.340000000003783
I42
tp1088
aF40.010000000002037
tp1089
ssba(imeasure_core
ProblemSetSolution
p1090
(dp1091
g3
g179
sg147
g1070
sg150
(dp1092
g182
((lp1093
(F0.33000000000174623
I12
tp1094
aF40.059999999997672
tp1095
sg221
((lp1096
F40.080000000001746
tp1097
sg313
((lp1098
F40.419999999998254
tp1099
sg355
((lp1100
(F1.3100000000049477
I31
tp1101
a(F18.590000000003783
I30
tp1102
a(F25.120000000002619
I29
tp1103
a(F34.660000000003492
I28
tp1104
aF40.020000000004075
tp1105
sg266
((lp1106
(F0.8400000000037835
I38
tp1107
aF40.040000000000873
tp1108
ssba(imeasure_core
ProblemSetSolution
p1109
(dp1110
g3
g426
sg147
g1070
sg150
(dp1111
g429
((lp1112
F40.270000000004075
tp1113
sg465
((lp1114
F40.580000000001746
tp1115
sg506
((lp1116
F41.119999999995343
tp1117
sg551
((lp1118
F40.270000000004075
tp1119
sg596
((lp1120
F42.149999999994179
tp1121
ssba(imeasure_core
ProblemSetSolution
p1122
(dp1123
g3
g4
sg147
S"AnytimeBeam-w45-gf(1.3, 'exp')_with_LinearHeuristic"
p1124
sg150
(dp1125
g8
((lp1126
(F0.0
I20
tp1127
aF40.0
tp1128
sg39
((lp1129
(F2.1699999999982538
I7
tp1130
aF40.139999999999418
tp1131
sg117
((lp1132
F40.060000000004948
tp1133
sg92
((lp1134
F40.07999999999447
tp1135
sg66
((lp1136
(F1.2099999999991269
I47
tp1137
a(F6.6200000000026193
I46
tp1138
a(F12.349999999998545
I45
tp1139
a(F17.880000000004657
I44
tp1140
a(F25.330000000001746
I43
tp1141
a(F32.190000000002328
I42
tp1142
a(F39.340000000003783
I41
tp1143
aF40.020000000004075
tp1144
ssba(imeasure_core
ProblemSetSolution
p1145
(dp1146
g3
g179
sg147
g1124
sg150
(dp1147
g182
((lp1148
(F0.37000000000261934
I12
tp1149
aF40.040000000000873
tp1150
sg221
((lp1151
F40.030000000006112
tp1152
sg313
((lp1153
F40.080000000001746
tp1154
sg355
((lp1155
(F1.5
I31
tp1156
a(F17.129999999997381
I30
tp1157
a(F23.650000000001455
I29
tp1158
a(F33.089999999996508
I28
tp1159
aF40.059999999997672
tp1160
sg266
((lp1161
(F0.89999999999417923
I38
tp1162
aF40.009999999994761
tp1163
ssba(imeasure_core
ProblemSetSolution
p1164
(dp1165
g3
g426
sg147
g1124
sg150
(dp1166
g429
((lp1167
F40.599999999998545
tp1168
sg465
((lp1169
F40.639999999999418
tp1170
sg506
((lp1171
F41.260000000002037
tp1172
sg551
((lp1173
F40.309999999997672
tp1174
sg596
((lp1175
F42.690000000002328
tp1176
ssba.