(lp0
(imeasure_core
ProblemSetSolution
p1
(dp2
S'roomset'
p3
(imeasure_core
RoomSet
p4
(dp5
S'rooms'
p6
(dp7
(iproblems
RoomID
p8
(dp9
S'dusts'
p10
I6
sS'obstacles'
p11
(I3
I2
tp12
sS'robots'
p13
I1
sS'height'
p14
I9
sS'width'
p15
I10
sS'seed'
p16
I6832892905590973747
sb(imulti_robot_problem
MultiRobotState
p17
(dp18
S'obstacle_locations'
p19
c__builtin__
frozenset
p20
((lp21
(I3
I0
tp22
a(I2
I0
tp23
ag12
a(I3
I1
tp24
atp25
Rp26
sg15
I10
sS'dirt_locations'
p27
g20
((lp28
(I1
I2
tp29
a(I2
I7
tp30
a(I0
I0
tp31
a(I0
I5
tp32
a(I5
I6
tp33
a(I0
I2
tp34
atp35
Rp36
sg13
((I8
I4
tp37
tp38
sg14
I9
sbs(iproblems
RoomID
p39
(dp40
g10
I7
sg11
(I3
I5
tp41
sg13
I5
sg14
I7
sg15
I9
sg16
I6924344268699531175
sb(imulti_robot_problem
MultiRobotState
p42
(dp43
g19
g20
((lp44
(I2
I6
tp45
a(I1
I6
tp46
a(I3
I6
tp47
ag41
atp48
Rp49
sg15
I9
sg27
g20
((lp50
(I1
I2
tp51
a(I0
I0
tp52
a(I5
I0
tp53
a(I7
I1
tp54
a(I8
I6
tp55
a(I3
I4
tp56
a(I6
I5
tp57
atp58
Rp59
sg13
((I4
I0
tp60
(I7
I2
tp61
(I1
I1
tp62
(I6
I1
tp63
(I8
I4
tp64
tp65
sg14
I7
sbs(iproblems
RoomID
p66
(dp67
g10
I5
sg11
(I4
I7
tp68
sg13
I3
sg14
I9
sg15
I7
sg16
I2524308075868763041
sb(imulti_robot_problem
MultiRobotState
p69
(dp70
g19
g20
((lp71
(I1
I2
tp72
a(I3
I8
tp73
ag68
a(I4
I6
tp74
a(I4
I1
tp75
a(I2
I4
tp76
a(I3
I5
tp77
atp78
Rp79
sg15
I7
sg27
g20
((lp80
(I2
I6
tp81
a(I5
I2
tp82
a(I3
I3
tp83
a(I0
I7
tp84
a(I3
I6
tp85
atp86
Rp87
sg13
((I0
I6
tp88
(I3
I1
tp89
(I4
I8
tp90
tp91
sg14
I9
sbs(iproblems
RoomID
p92
(dp93
g10
I6
sg11
(I3
I1
tp94
sg13
I4
sg14
I8
sg15
I7
sg16
I807570059310326234
sb(imulti_robot_problem
MultiRobotState
p95
(dp96
g19
g20
((lp97
(I6
I3
tp98
a(I4
I2
tp99
ag94
a(I5
I3
tp100
atp101
Rp102
sg15
I7
sg27
g20
((lp103
(I3
I2
tp104
a(I6
I7
tp105
a(I4
I6
tp106
a(I0
I4
tp107
a(I1
I0
tp108
a(I5
I2
tp109
atp110
Rp111
sg13
((I1
I2
tp112
(I0
I1
tp113
(I3
I7
tp114
(I2
I4
tp115
tp116
sg14
I8
sbs(iproblems
RoomID
p117
(dp118
g10
I8
sg11
(I5
I0
tp119
sg13
I4
sg14
I10
sg15
I10
sg16
I3562373307524659409
sb(imulti_robot_problem
MultiRobotState
p120
(dp121
g19
g20
((lp122
(I6
I3
tp123
a(I6
I7
tp124
ag119
a(I3
I6
tp125
a(I8
I1
tp126
a(I7
I0
tp127
a(I6
I0
tp128
atp129
Rp130
sg15
I10
sg27
g20
((lp131
(I1
I3
tp132
a(I2
I9
tp133
a(I7
I6
tp134
a(I7
I7
tp135
a(I8
I9
tp136
a(I1
I8
tp137
a(I1
I6
tp138
a(I2
I2
tp139
atp140
Rp141
sg13
((I9
I8
tp142
(I6
I5
tp143
(I5
I1
tp144
(I8
I8
tp145
tp146
sg14
I10
sbssS'name'
p147
S'easy_roomset'
p148
sbsg147
S"AnytimeBeam-w20-gf(2, 'lin')_with_PowerHeuristic2"
p149
sS'solutions'
p150
(dp151
g8
((lp152
(F0.16000000000349246
I50
tp153
a(F1.2900000000008731
I44
tp154
a(F16.190000000002328
I43
tp155
a(F17.130000000004657
I42
tp156
a(F18.069999999999709
I38
tp157
a(F39.310000000004948
I37
tp158
aF40.0
tp159
sg39
((lp160
(F2.0500000000029104
I7
tp161
aF40.709999999999127
tp162
sg66
((lp163
(F0.060000000004947651
I7
tp164
aF40.069999999999709
tp165
sg117
((lp166
(F0.5
I10
tp167
aF40.019999999996799
tp168
sg92
((lp169
F40.090000000003783
tp170
ssba(imeasure_core
ProblemSetSolution
p171
(dp172
g3
(imeasure_core
RoomSet
p173
(dp174
g6
(dp175
(iproblems
RoomID
p176
(dp177
g10
I6
sg11
(I6
I2
tp178
sg13
I3
sg14
I11
sg15
I12
sg16
I6832892905590973747
sb(imulti_robot_problem
MultiRobotState
p179
(dp180
g19
g20
((lp181
(I6
I4
tp182
a(I2
I6
tp183
a(I4
I3
tp184
a(I3
I0
tp185
a(I2
I8
tp186
a(I7
I7
tp187
a(I7
I5
tp188
a(I4
I2
tp189
a(I5
I3
tp190
a(I4
I1
tp191
a(I7
I6
tp192
a(I6
I3
tp193
a(I4
I5
tp194
ag178
a(I3
I6
tp195
a(I8
I6
tp196
a(I4
I0
tp197
a(I5
I2
tp198
a(I2
I4
tp199
atp200
Rp201
sg15
I12
sg27
g20
((lp202
(I1
I6
tp203
a(I6
I8
tp204
a(I2
I9
tp205
a(I0
I3
tp206
a(I0
I2
tp207
a(I7
I9
tp208
atp209
Rp210
sg13
((I10
I6
tp211
(I1
I2
tp212
(I0
I0
tp213
tp214
sg14
I11
sbs(iproblems
RoomID
p215
(dp216
g10
I7
sg11
(I3
I1
tp217
sg13
I4
sg14
I9
sg15
I11
sg16
I6924344268699531175
sb(imulti_robot_problem
MultiRobotState
p218
(dp219
g19
g20
((lp220
(I4
I7
tp221
ag217
a(I6
I6
tp222
a(I5
I6
tp223
a(I2
I8
tp224
a(I9
I8
tp225
a(I7
I7
tp226
a(I0
I7
tp227
a(I7
I5
tp228
a(I8
I7
tp229
a(I0
I3
tp230
a(I0
I8
tp231
a(I8
I5
tp232
a(I6
I3
tp233
a(I5
I2
tp234
a(I7
I6
tp235
a(I4
I8
tp236
a(I7
I4
tp237
a(I3
I8
tp238
a(I0
I6
tp239
a(I8
I8
tp240
a(I4
I1
tp241
a(I9
I7
tp242
atp243
Rp244
sg15
I11
sg27
g20
((lp245
(I8
I3
tp246
a(I1
I3
tp247
a(I4
I6
tp248
a(I4
I3
tp249
a(I0
I4
tp250
a(I10
I5
tp251
a(I0
I0
tp252
atp253
Rp254
sg13
((I6
I0
tp255
(I9
I3
tp256
(I1
I1
tp257
(I8
I1
tp258
tp259
sg14
I9
sbs(iproblems
RoomID
p260
(dp261
g10
I8
sg11
(I11
I7
tp262
sg13
I4
sg14
I12
sg15
I12
sg16
I3562373307524659409
sb(imulti_robot_problem
MultiRobotState
p263
(dp264
g19
g20
((lp265
(I6
I4
tp266
a(I6
I9
tp267
a(I3
I2
tp268
a(I9
I1
tp269
a(I6
I6
tp270
a(I5
I6
tp271
a(I9
I8
tp272
a(I3
I11
tp273
a(I7
I1
tp274
ag262
a(I8
I9
tp275
a(I3
I9
tp276
a(I11
I8
tp277
a(I10
I2
tp278
a(I4
I2
tp279
a(I7
I2
tp280
a(I10
I8
tp281
a(I8
I3
tp282
a(I8
I1
tp283
a(I3
I10
tp284
a(I5
I11
tp285
a(I6
I3
tp286
a(I6
I11
tp287
a(I6
I5
tp288
a(I7
I10
tp289
a(I4
I8
tp290
a(I11
I6
tp291
a(I4
I11
tp292
atp293
Rp294
sg15
I12
sg27
g20
((lp295
(I7
I3
tp296
a(I1
I3
tp297
a(I10
I11
tp298
a(I1
I7
tp299
a(I8
I8
tp300
a(I2
I2
tp301
a(I3
I7
tp302
a(I7
I9
tp303
atp304
Rp305
sg13
((I11
I10
tp306
(I7
I6
tp307
(I10
I10
tp308
(I2
I10
tp309
tp310
sg14
I12
sbs(iproblems
RoomID
p311
(dp312
g10
I10
sg11
(I6
I8
tp313
sg13
I3
sg14
I11
sg15
I10
sg16
I7391799147228763464
sb(imulti_robot_problem
MultiRobotState
p314
(dp315
g19
g20
((lp316
(I5
I9
tp317
a(I4
I7
tp318
a(I4
I6
tp319
a(I4
I8
tp320
a(I4
I5
tp321
a(I6
I9
tp322
a(I0
I7
tp323
a(I1
I4
tp324
a(I3
I7
tp325
a(I5
I8
tp326
ag313
a(I2
I7
tp327
a(I3
I8
tp328
a(I4
I9
tp329
a(I3
I3
tp330
a(I9
I2
tp331
a(I6
I3
tp332
a(I3
I6
tp333
a(I1
I7
tp334
a(I0
I9
tp335
a(I7
I8
tp336
a(I0
I2
tp337
a(I1
I9
tp338
atp339
Rp340
sg15
I10
sg27
g20
((lp341
(I8
I3
tp342
a(I5
I10
tp343
a(I5
I5
tp344
a(I2
I8
tp345
a(I7
I6
tp346
a(I6
I0
tp347
a(I2
I10
tp348
a(I9
I4
tp349
a(I1
I10
tp350
a(I0
I3
tp351
atp352
Rp353
sg13
((I3
I10
tp354
(I7
I1
tp355
(I1
I5
tp356
tp357
sg14
I11
sbs(iproblems
RoomID
p358
(dp359
g10
I6
sg11
(I2
I5
tp360
sg13
I4
sg14
I10
sg15
I9
sg16
I807570059310326234
sb(imulti_robot_problem
MultiRobotState
p361
(dp362
g19
g20
((lp363
(I6
I4
tp364
a(I3
I2
tp365
a(I1
I3
tp366
a(I8
I2
tp367
a(I2
I3
tp368
a(I3
I8
tp369
ag360
a(I1
I0
tp370
a(I1
I2
tp371
a(I7
I4
tp372
a(I4
I1
tp373
a(I3
I3
tp374
a(I3
I4
tp375
a(I1
I1
tp376
a(I6
I3
tp377
a(I2
I0
tp378
a(I1
I8
tp379
a(I2
I2
tp380
a(I5
I2
tp381
a(I0
I2
tp382
a(I8
I4
tp383
atp384
Rp385
sg15
I9
sg27
g20
((lp386
(I7
I3
tp387
a(I2
I6
tp388
a(I1
I6
tp389
a(I4
I2
tp390
a(I5
I8
tp391
a(I7
I9
tp392
atp393
Rp394
sg13
((I6
I2
tp395
(I0
I1
tp396
(I3
I9
tp397
(I3
I5
tp398
tp399
sg14
I10
sbssg147
S'mild_roomset'
p400
sbsg147
g149
sg150
(dp401
g176
((lp402
(F0.13999999999941792
I10
tp403
aF40.029999999998836
tp404
sg215
((lp405
(F5.3500000000058208
I79
tp406
aF40.0
tp407
sg260
((lp408
(F3.1500000000014552
I75
tp409
aF40.010000000002037
tp410
sg311
((lp411
(F0.55000000000291038
I36
tp412
aF40.029999999998836
tp413
sg358
((lp414
(F5.4100000000034925
I108
tp415
aF40.0
tp416
ssba(imeasure_core
ProblemSetSolution
p417
(dp418
g3
(imeasure_core
RoomSet
p419
(dp420
g6
(dp421
(iproblems
RoomID
p422
(dp423
g10
I11
sg11
(I4
I2
tp424
sg13
I5
sg14
I12
sg15
I13
sg16
I6832892905590973747
sb(imulti_robot_problem
MultiRobotState
p425
(dp426
g19
g20
((lp427
(I5
I9
tp428
a(I6
I9
tp429
a(I8
I2
tp430
a(I3
I0
tp431
a(I3
I4
tp432
a(I12
I11
tp433
ag424
a(I4
I1
tp434
a(I4
I0
tp435
atp436
Rp437
sg15
I13
sg27
g20
((lp438
(I2
I7
tp439
a(I9
I0
tp440
a(I6
I8
tp441
a(I4
I5
tp442
a(I2
I8
tp443
a(I8
I10
tp444
a(I2
I10
tp445
a(I1
I7
tp446
a(I3
I7
tp447
a(I2
I5
tp448
a(I0
I8
tp449
atp450
Rp451
sg13
((I11
I6
tp452
(I1
I2
tp453
(I1
I0
tp454
(I0
I3
tp455
(I0
I2
tp456
tp457
sg14
I12
sbs(iproblems
RoomID
p458
(dp459
g10
I12
sg11
(I6
I7
tp460
sg13
I7
sg14
I10
sg15
I12
sg16
I6924344268699531175
sb(imulti_robot_problem
MultiRobotState
p461
(dp462
g19
g20
((lp463
(I4
I7
tp464
ag460
a(I2
I9
tp465
a(I4
I8
tp466
a(I9
I6
tp467
a(I5
I7
tp468
a(I0
I6
tp469
a(I3
I9
tp470
a(I0
I9
tp471
a(I4
I9
tp472
a(I4
I1
tp473
atp474
Rp475
sg15
I12
sg27
g20
((lp476
(I7
I3
tp477
a(I5
I4
tp478
a(I1
I3
tp479
a(I9
I1
tp480
a(I8
I3
tp481
a(I0
I7
tp482
a(I8
I8
tp483
a(I0
I0
tp484
a(I0
I4
tp485
a(I0
I8
tp486
a(I11
I6
tp487
a(I9
I7
tp488
atp489
Rp490
sg13
((I6
I0
tp491
(I10
I4
tp492
(I1
I1
tp493
(I8
I2
tp494
(I11
I5
tp495
(I5
I6
tp496
(I10
I9
tp497
tp498
sg14
I10
sbs(iproblems
RoomID
p499
(dp500
g10
I15
sg11
(I4
I8
tp501
sg13
I6
sg14
I12
sg15
I11
sg16
I7391799147228763464
sb(imulti_robot_problem
MultiRobotState
p502
(dp503
g19
g20
((lp504
(I6
I4
tp505
a(I4
I7
tp506
ag501
a(I5
I6
tp507
a(I2
I8
tp508
a(I5
I7
tp509
a(I6
I9
tp510
a(I4
I2
tp511
a(I9
I2
tp512
a(I1
I6
tp513
a(I10
I7
tp514
a(I8
I6
tp515
a(I2
I4
tp516
atp517
Rp518
sg15
I11
sg27
g20
((lp519
(I7
I0
tp520
a(I10
I4
tp521
a(I6
I11
tp522
a(I7
I6
tp523
a(I1
I4
tp524
a(I8
I9
tp525
a(I1
I8
tp526
a(I3
I9
tp527
a(I0
I10
tp528
a(I9
I4
tp529
a(I7
I10
tp530
a(I1
I10
tp531
a(I4
I3
tp532
a(I0
I3
tp533
a(I0
I2
tp534
atp535
Rp536
sg13
((I4
I6
tp537
(I3
I11
tp538
(I7
I1
tp539
(I2
I5
tp540
(I5
I9
tp541
(I2
I11
tp542
tp543
sg14
I12
sbs(iproblems
RoomID
p544
(dp545
g10
I11
sg11
(I5
I1
tp546
sg13
I7
sg14
I11
sg15
I10
sg16
I807570059310326234
sb(imulti_robot_problem
MultiRobotState
p547
(dp548
g19
g20
((lp549
(I7
I3
tp550
a(I4
I6
tp551
a(I7
I4
tp552
a(I6
I2
tp553
a(I1
I9
tp554
a(I9
I4
tp555
ag546
a(I0
I3
tp556
a(I5
I2
tp557
a(I8
I4
tp558
atp559
Rp560
sg15
I10
sg27
g20
((lp561
(I5
I9
tp562
a(I6
I9
tp563
a(I2
I9
tp564
a(I4
I8
tp565
a(I9
I2
tp566
a(I2
I0
tp567
a(I1
I6
tp568
a(I9
I5
tp569
a(I4
I2
tp570
a(I1
I0
tp571
a(I3
I5
tp572
atp573
Rp574
sg13
((I1
I3
tp575
(I0
I2
tp576
(I4
I10
tp577
(I4
I5
tp578
(I8
I10
tp579
(I8
I3
tp580
(I2
I6
tp581
tp582
sg14
I11
sbs(iproblems
RoomID
p583
(dp584
g10
I13
sg11
(I7
I4
tp585
sg13
I6
sg14
I13
sg15
I13
sg16
I3562373307524659409
sb(imulti_robot_problem
MultiRobotState
p586
(dp587
g19
g20
((lp588
(I7
I3
tp589
a(I5
I4
tp590
a(I4
I9
tp591
a(I9
I1
tp592
a(I5
I9
tp593
a(I8
I1
tp594
a(I11
I2
tp595
a(I9
I3
tp596
a(I3
I11
tp597
a(I11
I7
tp598
ag585
a(I10
I1
tp599
a(I3
I10
tp600
a(I10
I5
tp601
a(I8
I2
tp602
atp603
Rp604
sg15
I13
sg27
g20
((lp605
(I8
I3
tp606
a(I3
I12
tp607
a(I4
I8
tp608
a(I6
I10
tp609
a(I9
I9
tp610
a(I12
I6
tp611
a(I8
I9
tp612
a(I1
I8
tp613
a(I4
I3
tp614
a(I2
I2
tp615
a(I4
I2
tp616
a(I11
I12
tp617
a(I2
I4
tp618
atp619
Rp620
sg13
((I12
I11
tp621
(I7
I6
tp622
(I7
I1
tp623
(I10
I11
tp624
(I2
I11
tp625
(I9
I8
tp626
tp627
sg14
I13
sbssg147
S'heavy_roomset'
p628
sbsg147
g149
sg150
(dp629
g422
((lp630
(F7.2900000000008731
I24
tp631
aF40.410000000003492
tp632
sg458
((lp633
F56.19999999999709
tp634
sg544
((lp635
F40.229999999995925
tp636
sg583
((lp637
(F21.460000000006403
I15
tp638
aF41.070000000006985
tp639
sg499
((lp640
(F36.029999999998836
I40
tp641
aF41.120000000002619
tp642
ssba(imeasure_core
ProblemSetSolution
p643
(dp644
g3
g4
sg147
S"AnytimeBeam-w20-gf(4, 'lin')_with_PowerHeuristic2"
p645
sg150
(dp646
g8
((lp647
(F0.16999999999825377
I50
tp648
a(F0.69999999999708962
I44
tp649
a(F8.2299999999959255
I43
tp650
a(F9.1799999999930151
I42
tp651
a(F10.129999999997381
I38
tp652
a(F20.769999999996799
I37
tp653
a(F22.379999999997381
I35
tp654
a(F23.689999999995052
I33
tp655
a(F24.689999999995052
I31
tp656
a(F26.509999999994761
I29
tp657
a(F29.189999999995052
I27
tp658
a(F35.539999999993597
I25
tp659
aF40.0
tp660
sg39
((lp661
(F2.0599999999976717
I7
tp662
aF40.489999999997963
tp663
sg66
((lp664
(F0.059999999997671694
I7
tp665
aF40.010000000002037
tp666
sg117
((lp667
(F0.5
I10
tp668
aF40.040000000000873
tp669
sg92
((lp670
F40.149999999994179
tp671
ssba(imeasure_core
ProblemSetSolution
p672
(dp673
g3
g173
sg147
g645
sg150
(dp674
g176
((lp675
(F0.12999999999738066
I10
tp676
aF40.0
tp677
sg215
((lp678
(F5.3499999999985448
I79
tp679
aF40.080000000001746
tp680
sg260
((lp681
(F3.1399999999994179
I75
tp682
aF40.0
tp683
sg311
((lp684
(F0.54000000000087311
I36
tp685
aF40.019999999996799
tp686
sg358
((lp687
(F5.430000000000291
I108
tp688
aF40.069999999999709
tp689
ssba(imeasure_core
ProblemSetSolution
p690
(dp691
g3
g419
sg147
g645
sg150
(dp692
g422
((lp693
(F7.2699999999967986
I24
tp694
aF40.049999999995634
tp695
sg458
((lp696
F55.810000000004948
tp697
sg544
((lp698
F40.200000000004366
tp699
sg583
((lp700
(F21.359999999993306
I15
tp701
aF40.869999999995343
tp702
sg499
((lp703
(F35.979999999995925
I40
tp704
aF41.059999999997672
tp705
ssba(imeasure_core
ProblemSetSolution
p706
(dp707
g3
g4
sg147
S"AnytimeBeam-w20-gf(8, 'lin')_with_PowerHeuristic2"
p708
sg150
(dp709
g8
((lp710
(F0.1599999999962165
I50
tp711
a(F0.40000000000145519
I44
tp712
a(F4.2399999999979627
I43
tp713
a(F5.1900000000023283
I42
tp714
a(F6.1399999999994179
I38
tp715
a(F10.650000000001455
I37
tp716
a(F12.260000000002037
I35
tp717
a(F13.569999999999709
I33
tp718
a(F14.569999999999709
I31
tp719
a(F16.419999999998254
I29
tp720
a(F19.089999999996508
I27
tp721
a(F22.659999999996217
I25
tp722
a(F27.260000000002037
I22
tp723
a(F29.940000000002328
I20
tp724
aF40.0
tp725
sg39
((lp726
(F2.0599999999976717
I7
tp727
aF40.690000000002328
tp728
sg66
((lp729
(F0.059999999997671694
I7
tp730
aF40.009999999994761
tp731
sg117
((lp732
(F0.5
I10
tp733
aF40.200000000004366
tp734
sg92
((lp735
F40.110000000000582
tp736
ssba(imeasure_core
ProblemSetSolution
p737
(dp738
g3
g173
sg147
g708
sg150
(dp739
g176
((lp740
(F0.12999999999738066
I10
tp741
aF40.019999999996799
tp742
sg215
((lp743
(F5.319999999999709
I79
tp744
aF40.0
tp745
sg260
((lp746
(F3.1100000000005821
I75
tp747
aF40.019999999996799
tp748
sg311
((lp749
(F0.55000000000291038
I36
tp750
aF40.010000000002037
tp751
sg358
((lp752
(F5.3600000000005821
I108
tp753
aF40.069999999999709
tp754
ssba(imeasure_core
ProblemSetSolution
p755
(dp756
g3
g419
sg147
g708
sg150
(dp757
g422
((lp758
(F7.2799999999988358
I24
tp759
aF40.120000000002619
tp760
sg458
((lp761
F56.110000000000582
tp762
sg544
((lp763
F40.130000000004657
tp764
sg583
((lp765
(F21.359999999993306
I15
tp766
aF40.939999999995052
tp767
sg499
((lp768
(F36.039999999993597
I40
tp769
aF41.119999999995343
tp770
ssba(imeasure_core
ProblemSetSolution
p771
(dp772
g3
g4
sg147
S"AnytimeBeam-w20-gf(16, 'lin')_with_PowerHeuristic2"
p773
sg150
(dp774
g8
((lp775
(F0.15000000000145519
I50
tp776
a(F0.4099999999962165
I44
tp777
a(F2.1599999999962165
I43
tp778
a(F3.1100000000005821
I42
tp779
a(F4.0299999999988358
I38
tp780
a(F5.6699999999982538
I37
tp781
a(F7.2799999999988358
I35
tp782
a(F8.5800000000017462
I33
tp783
a(F9.5899999999965075
I31
tp784
a(F11.419999999998254
I29
tp785
a(F14.069999999999709
I27
tp786
a(F17.639999999999418
I25
tp787
a(F22.220000000001164
I22
tp788
a(F24.900000000001455
I20
tp789
aF40.0
tp790
sg39
((lp791
(F2.0599999999976717
I7
tp792
aF40.349999999998545
tp793
sg66
((lp794
(F0.059999999997671694
I7
tp795
aF40.029999999998836
tp796
sg117
((lp797
(F0.5
I10
tp798
aF40.25
tp799
sg92
((lp800
F40.090000000003783
tp801
ssba(imeasure_core
ProblemSetSolution
p802
(dp803
g3
g173
sg147
g773
sg150
(dp804
g176
((lp805
(F0.12999999999738066
I10
tp806
aF40.0
tp807
sg215
((lp808
(F5.3600000000005821
I79
tp809
aF40.059999999997672
tp810
sg260
((lp811
(F3.0999999999985448
I75
tp812
aF40.020000000004075
tp813
sg311
((lp814
(F0.54999999999563443
I36
tp815
aF40.0
tp816
sg358
((lp817
(F5.3999999999941792
I108
tp818
aF40.159999999996217
tp819
ssba(imeasure_core
ProblemSetSolution
p820
(dp821
g3
g419
sg147
g773
sg150
(dp822
g422
((lp823
(F7.2599999999947613
I24
tp824
aF40.25
tp825
sg458
((lp826
F56.040000000000873
tp827
sg544
((lp828
F40.280000000006112
tp829
sg583
((lp830
(F21.469999999993888
I15
tp831
aF41.639999999999418
tp832
sg499
((lp833
(F36.110000000000582
I40
tp834
aF41.259999999994761
tp835
ssba(imeasure_core
ProblemSetSolution
p836
(dp837
g3
g4
sg147
S"AnytimeBeam-w20-gf(2, 'lin')_with_LinearHeuristic"
p838
sg150
(dp839
g8
((lp840
(F0.0099999999947613105
I20
tp841
aF40.0
tp842
sg39
((lp843
(F1.6599999999962165
I7
tp844
aF40.089999999996508
tp845
sg66
((lp846
(F1.0
I47
tp847
aF40.020000000004075
tp848
sg117
((lp849
F40.059999999997672
tp850
sg92
((lp851
F40.0
tp852
ssba(imeasure_core
ProblemSetSolution
p853
(dp854
g3
g173
sg147
g838
sg150
(dp855
g176
((lp856
(F0.23999999999796273
I12
tp857
aF40.019999999996799
tp858
sg215
((lp859
F40.110000000000582
tp860
sg260
((lp861
(F1.0
I31
tp862
aF40.120000000002619
tp863
sg311
((lp864
(F0.69999999999708962
I38
tp865
aF40.039999999993597
tp866
sg358
((lp867
F40.210000000006403
tp868
ssba(imeasure_core
ProblemSetSolution
p869
(dp870
g3
g419
sg147
g838
sg150
(dp871
g422
((lp872
F40.129999999997381
tp873
sg458
((lp874
F40.519999999996799
tp875
sg544
((lp876
F40.939999999995052
tp877
sg583
((lp878
F40.030000000006112
tp879
sg499
((lp880
F41.130000000004657
tp881
ssba(imeasure_core
ProblemSetSolution
p882
(dp883
g3
g4
sg147
S"AnytimeBeam-w20-gf(4, 'lin')_with_LinearHeuristic"
p884
sg150
(dp885
g8
((lp886
(F0.0099999999947613105
I20
tp887
aF40.0
tp888
sg39
((lp889
(F1.6499999999941792
I7
tp890
aF40.189999999995052
tp891
sg66
((lp892
(F0.99000000000523869
I47
tp893
a(F26.80000000000291
I46
tp894
a(F31.650000000001455
I45
tp895
a(F36.400000000001455
I44
tp896
aF40.060000000004948
tp897
sg117
((lp898
F40.089999999996508
tp899
sg92
((lp900
F40.069999999999709
tp901
ssba(imeasure_core
ProblemSetSolution
p902
(dp903
g3
g173
sg147
g884
sg150
(dp904
g176
((lp905
(F0.23999999999796273
I12
tp906
aF40.040000000000873
tp907
sg215
((lp908
F40.040000000000873
tp909
sg260
((lp910
(F1.0
I31
tp911
aF40.07999999999447
tp912
sg311
((lp913
(F0.69000000000232831
I38
tp914
aF40.010000000002037
tp915
sg358
((lp916
F40.090000000003783
tp917
ssba(imeasure_core
ProblemSetSolution
p918
(dp919
g3
g419
sg147
g884
sg150
(dp920
g422
((lp921
F40.069999999999709
tp922
sg458
((lp923
F40.44999999999709
tp924
sg544
((lp925
F40.830000000001746
tp926
sg583
((lp927
F40.340000000003783
tp928
sg499
((lp929
F41.089999999996508
tp930
ssba(imeasure_core
ProblemSetSolution
p931
(dp932
g3
g4
sg147
S"AnytimeBeam-w20-gf(8, 'lin')_with_LinearHeuristic"
p933
sg150
(dp934
g8
((lp935
(F0.0099999999947613105
I20
tp936
aF40.0
tp937
sg39
((lp938
(F1.6499999999941792
I7
tp939
aF40.57999999999447
tp940
sg66
((lp941
(F0.99000000000523869
I47
tp942
a(F15.120000000002619
I46
tp943
a(F20.110000000000582
I45
tp944
a(F24.970000000001164
I44
tp945
a(F31.090000000003783
I43
tp946
a(F35.690000000002328
I42
tp947
aF40.060000000004948
tp948
sg117
((lp949
F40.120000000002619
tp950
sg92
((lp951
F40.159999999996217
tp952
ssba(imeasure_core
ProblemSetSolution
p953
(dp954
g3
g173
sg147
g933
sg150
(dp955
g176
((lp956
(F0.23999999999796273
I12
tp957
aF40.029999999998836
tp958
sg215
((lp959
F40.119999999995343
tp960
sg260
((lp961
(F1.0
I31
tp962
aF40.060000000004948
tp963
sg311
((lp964
(F0.68000000000029104
I38
tp965
aF40.089999999996508
tp966
sg358
((lp967
F40.209999999999127
tp968
ssba(imeasure_core
ProblemSetSolution
p969
(dp970
g3
g419
sg147
g933
sg150
(dp971
g422
((lp972
F40.059999999997672
tp973
sg458
((lp974
F40.350000000005821
tp975
sg544
((lp976
F40.760000000002037
tp977
sg583
((lp978
F40.330000000001746
tp979
sg499
((lp980
F41.159999999996217
tp981
ssba(imeasure_core
ProblemSetSolution
p982
(dp983
g3
g4
sg147
S"AnytimeBeam-w20-gf(16, 'lin')_with_LinearHeuristic"
p984
sg150
(dp985
g8
((lp986
(F0.0
I20
tp987
aF40.0
tp988
sg39
((lp989
(F1.6600000000034925
I7
tp990
aF40.440000000002328
tp991
sg66
((lp992
(F0.98000000000320142
I47
tp993
a(F9.6100000000005821
I46
tp994
a(F14.849999999998545
I45
tp995
a(F20.389999999999418
I44
tp996
a(F27.360000000000582
I43
tp997
a(F32.69999999999709
I42
tp998
a(F38.220000000001164
I41
tp999
aF40.069999999999709
tp1000
sg117
((lp1001
F40.220000000001164
tp1002
sg92
((lp1003
F40.110000000000582
tp1004
ssba(imeasure_core
ProblemSetSolution
p1005
(dp1006
g3
g173
sg147
g984
sg150
(dp1007
g176
((lp1008
(F0.23999999999796273
I12
tp1009
aF40.039999999993597
tp1010
sg215
((lp1011
F40.200000000004366
tp1012
sg260
((lp1013
(F0.98999999999796273
I31
tp1014
a(F32.799999999995634
I30
tp1015
a(F39.139999999999418
I29
tp1016
aF40.0
tp1017
sg311
((lp1018
(F0.68000000000029104
I38
tp1019
aF40.099999999998545
tp1020
sg358
((lp1021
F40.0
tp1022
ssba(imeasure_core
ProblemSetSolution
p1023
(dp1024
g3
g419
sg147
g984
sg150
(dp1025
g422
((lp1026
F40.019999999996799
tp1027
sg458
((lp1028
F40.529999999998836
tp1029
sg544
((lp1030
F41.0
tp1031
sg583
((lp1032
F40.069999999999709
tp1033
sg499
((lp1034
F41.150000000001455
tp1035
ssba.