(lp0
(imeasure_core
ProblemSetSolution
p1
(dp2
S'roomset'
p3
(imeasure_core
RoomSet
p4
(dp5
S'rooms'
p6
(dp7
(iproblems
RoomID
p8
(dp9
S'dusts'
p10
I8
sS'obstacles'
p11
(I0
I4
tp12
sS'robots'
p13
I4
sS'height'
p14
I7
sS'width'
p15
I9
sS'seed'
p16
I1689441204489037471
sb(imulti_robot_problem
MultiRobotState
p17
(dp18
S'obstacle_locations'
p19
c__builtin__
frozenset
p20
((lp21
(I0
I1
tp22
a(I1
I2
tp23
a(I3
I2
tp24
a(I8
I1
tp25
a(I4
I3
tp26
ag12
a(I0
I3
tp27
a(I4
I0
tp28
atp29
Rp30
sg15
I9
sS'dirt_locations'
p31
g20
((lp32
(I0
I0
tp33
a(I7
I0
tp34
a(I7
I6
tp35
a(I1
I4
tp36
a(I6
I2
tp37
a(I2
I3
tp38
a(I5
I1
tp39
a(I3
I5
tp40
atp41
Rp42
sg13
((I6
I0
tp43
(I5
I4
tp44
(I6
I6
tp45
(I5
I0
tp46
tp47
sg14
I7
sbs(iproblems
RoomID
p48
(dp49
g10
I10
sg11
(I4
I5
tp50
sg13
I3
sg14
I8
sg15
I10
sg16
I6660334802794327005
sb(imulti_robot_problem
MultiRobotState
p51
(dp52
g19
g20
((lp53
(I9
I0
tp54
a(I2
I6
tp55
a(I1
I6
tp56
a(I3
I6
tp57
ag50
a(I8
I4
tp58
atp59
Rp60
sg15
I10
sg31
g20
((lp61
(I9
I1
tp62
a(I5
I6
tp63
a(I9
I6
tp64
a(I1
I5
tp65
a(I7
I5
tp66
a(I9
I4
tp67
a(I1
I7
tp68
a(I4
I1
tp69
a(I7
I2
tp70
a(I8
I2
tp71
atp72
Rp73
sg13
((I7
I3
tp74
(I4
I7
tp75
(I4
I2
tp76
tp77
sg14
I8
sbs(iproblems
RoomID
p78
(dp79
g10
I7
sg11
(I2
I5
tp80
sg13
I5
sg14
I9
sg15
I9
sg16
I4640892725076559864
sb(imulti_robot_problem
MultiRobotState
p81
(dp82
g19
g20
((lp83
(I2
I6
tp84
a(I6
I7
tp85
a(I0
I6
tp86
a(I3
I1
tp87
a(I1
I5
tp88
a(I1
I6
tp89
a(I0
I4
tp90
ag80
a(I3
I4
tp91
atp92
Rp93
sg15
I9
sg31
g20
((lp94
(I3
I8
tp95
a(I7
I3
tp96
a(I7
I1
tp97
a(I8
I1
tp98
a(I8
I6
tp99
a(I4
I2
tp100
a(I5
I3
tp101
atp102
Rp103
sg13
((I6
I5
tp104
(I8
I4
tp105
(I7
I6
tp106
(I6
I0
tp107
(I6
I3
tp108
tp109
sg14
I9
sbs(iproblems
RoomID
p110
(dp111
g10
I6
sg11
(I8
I4
tp112
sg13
I4
sg14
I10
sg15
I9
sg16
I3119042104763040036
sb(imulti_robot_problem
MultiRobotState
p113
(dp114
g19
g20
((lp115
(I1
I2
tp116
a(I6
I7
tp117
a(I4
I8
tp118
a(I7
I6
tp119
a(I8
I5
tp120
ag112
atp121
Rp122
sg15
I9
sg31
g20
((lp123
(I6
I8
tp124
a(I8
I7
tp125
a(I6
I6
tp126
a(I3
I0
tp127
a(I7
I2
tp128
a(I6
I5
tp129
atp130
Rp131
sg13
((I5
I9
tp132
(I6
I1
tp133
(I3
I4
tp134
(I2
I7
tp135
tp136
sg14
I10
sbs(iproblems
RoomID
p137
(dp138
g10
I6
sg11
(I3
I0
tp139
sg13
I4
sg14
I10
sg15
I7
sg16
I3914746131789064238
sb(imulti_robot_problem
MultiRobotState
p140
(dp141
g19
g20
((lp142
g139
a(I6
I1
tp143
a(I2
I3
tp144
a(I5
I0
tp145
a(I2
I2
tp146
a(I0
I3
tp147
a(I0
I8
tp148
a(I4
I1
tp149
a(I3
I5
tp150
atp151
Rp152
sg15
I7
sg31
g20
((lp153
(I6
I5
tp154
a(I3
I3
tp155
a(I1
I7
tp156
a(I0
I4
tp157
a(I3
I4
tp158
a(I0
I7
tp159
atp160
Rp161
sg13
((I1
I8
tp162
(I5
I1
tp163
(I5
I3
tp164
(I1
I9
tp165
tp166
sg14
I10
sbssS'name'
p167
S'easy_roomset'
p168
sbsg167
S"AnytimeBeam-w20-gf(2, 'lin')_with_PowerHeuristic2"
p169
sS'solutions'
p170
(dp171
g8
((lp172
(F0.34000000000014552
I8
tp173
aF40.020000000000437
tp174
sg48
((lp175
(F0.25
I23
tp176
aF40.039999999999054
tp177
sg137
((lp178
(F0.20999999999912689
I7
tp179
aF40.139999999999418
tp180
sg78
((lp181
(F1.3800000000010186
I6
tp182
aF40.059999999999491
tp183
sg110
((lp184
(F0.48000000000138243
I11
tp185
aF40.06000000000131
tp186
ssba(imeasure_core
ProblemSetSolution
p187
(dp188
g3
(imeasure_core
RoomSet
p189
(dp190
g6
(dp191
(iproblems
RoomID
p192
(dp193
g10
I6
sg11
(I5
I5
tp194
sg13
I4
sg14
I12
sg15
I11
sg16
I3119042104763040036
sb(imulti_robot_problem
MultiRobotState
p195
(dp196
g19
g20
((lp197
(I4
I6
tp198
a(I10
I4
tp199
a(I3
I0
tp200
a(I9
I8
tp201
a(I10
I6
tp202
a(I2
I1
tp203
a(I8
I9
tp204
a(I2
I3
tp205
a(I0
I10
tp206
a(I9
I5
tp207
a(I10
I3
tp208
a(I7
I9
tp209
ag194
a(I10
I7
tp210
a(I7
I8
tp211
a(I4
I4
tp212
a(I9
I2
tp213
a(I2
I4
tp214
a(I4
I5
tp215
a(I2
I2
tp216
a(I3
I3
tp217
a(I3
I4
tp218
a(I1
I1
tp219
atp220
Rp221
sg15
I11
sg31
g20
((lp222
(I8
I3
tp223
a(I8
I8
tp224
a(I5
I10
tp225
a(I9
I4
tp226
a(I8
I6
tp227
a(I10
I9
tp228
atp229
Rp230
sg13
((I6
I11
tp231
(I7
I2
tp232
(I2
I8
tp233
(I8
I10
tp234
tp235
sg14
I12
sbs(iproblems
RoomID
p236
(dp237
g10
I6
sg11
(I4
I8
tp238
sg13
I4
sg14
I12
sg15
I9
sg16
I3914746131789064238
sb(imulti_robot_problem
MultiRobotState
p239
(dp240
g19
g20
((lp241
(I4
I6
tp242
a(I6
I6
tp243
a(I4
I5
tp244
a(I5
I7
tp245
a(I0
I5
tp246
a(I0
I10
tp247
a(I8
I7
tp248
a(I7
I0
tp249
a(I0
I3
tp250
a(I8
I5
tp251
a(I4
I0
tp252
a(I2
I3
tp253
a(I6
I7
tp254
a(I3
I3
tp255
a(I8
I1
tp256
a(I7
I6
tp257
a(I3
I1
tp258
ag238
a(I5
I0
tp259
a(I2
I2
tp260
a(I0
I9
tp261
a(I8
I6
tp262
a(I5
I3
tp263
a(I6
I1
tp264
atp265
Rp266
sg15
I9
sg31
g20
((lp267
(I1
I8
tp268
a(I1
I9
tp269
a(I4
I3
tp270
a(I4
I4
tp271
a(I2
I11
tp272
a(I2
I10
tp273
atp274
Rp275
sg13
((I1
I10
tp276
(I6
I2
tp277
(I7
I3
tp278
(I1
I11
tp279
tp280
sg14
I12
sbs(iproblems
RoomID
p281
(dp282
g10
I9
sg11
(I9
I9
tp283
sg13
I3
sg14
I10
sg15
I10
sg16
I3273124617966689144
sb(imulti_robot_problem
MultiRobotState
p284
(dp285
g19
g20
((lp286
(I7
I3
tp287
a(I5
I4
tp288
a(I1
I3
tp289
a(I6
I4
tp290
a(I4
I5
tp291
a(I9
I8
tp292
a(I3
I2
tp293
a(I7
I5
tp294
a(I1
I6
tp295
a(I2
I5
tp296
a(I0
I8
tp297
a(I9
I6
tp298
a(I6
I5
tp299
a(I5
I3
tp300
a(I3
I3
tp301
a(I5
I5
tp302
a(I7
I6
tp303
ag283
a(I6
I3
tp304
a(I4
I3
tp305
a(I2
I3
tp306
a(I8
I6
tp307
a(I2
I4
tp308
a(I9
I7
tp309
atp310
Rp311
sg15
I10
sg31
g20
((lp312
(I7
I0
tp313
a(I3
I0
tp314
a(I6
I1
tp315
a(I3
I1
tp316
a(I5
I0
tp317
a(I2
I2
tp318
a(I3
I4
tp319
a(I1
I1
tp320
a(I8
I4
tp321
atp322
Rp323
sg13
((I0
I7
tp324
(I2
I1
tp325
(I6
I6
tp326
tp327
sg14
I10
sbs(iproblems
RoomID
p328
(dp329
g10
I9
sg11
(I9
I10
tp330
sg13
I3
sg14
I11
sg15
I10
sg16
I4253868527325451640
sb(imulti_robot_problem
MultiRobotState
p331
(dp332
g19
g20
((lp333
(I7
I3
tp334
a(I4
I7
tp335
a(I2
I6
tp336
a(I7
I10
tp337
a(I4
I8
tp338
a(I6
I9
tp339
ag330
a(I3
I9
tp340
a(I1
I6
tp341
a(I3
I7
tp342
a(I2
I5
tp343
a(I8
I5
tp344
a(I5
I8
tp345
a(I7
I9
tp346
a(I7
I1
tp347
a(I8
I10
tp348
a(I5
I0
tp349
a(I2
I3
tp350
a(I3
I5
tp351
a(I3
I4
tp352
a(I2
I4
tp353
atp354
Rp355
sg15
I10
sg31
g20
((lp356
(I8
I9
tp357
a(I5
I10
tp358
a(I6
I8
tp359
a(I7
I6
tp360
a(I3
I8
tp361
a(I0
I10
tp362
a(I9
I4
tp363
a(I0
I9
tp364
a(I5
I3
tp365
atp366
Rp367
sg13
((I3
I6
tp368
(I0
I8
tp369
(I2
I1
tp370
tp371
sg14
I11
sbs(iproblems
RoomID
p372
(dp373
g10
I5
sg11
(I5
I7
tp374
sg13
I4
sg14
I9
sg15
I12
sg16
I659184109953178577
sb(imulti_robot_problem
MultiRobotState
p375
(dp376
g19
g20
((lp377
(I7
I3
tp378
a(I4
I7
tp379
a(I8
I2
tp380
a(I6
I6
tp381
a(I4
I5
tp382
a(I7
I7
tp383
a(I11
I0
tp384
a(I7
I5
tp385
a(I9
I4
tp386
a(I2
I5
tp387
a(I0
I8
tp388
a(I10
I3
tp389
a(I7
I2
tp390
a(I4
I6
tp391
a(I6
I4
tp392
a(I4
I3
tp393
a(I3
I3
tp394
a(I6
I1
tp395
ag374
a(I6
I5
tp396
a(I3
I6
tp397
a(I8
I6
tp398
a(I3
I4
tp399
atp400
Rp401
sg15
I12
sg31
g20
((lp402
(I10
I8
tp403
a(I4
I1
tp404
a(I0
I2
tp405
a(I1
I6
tp406
a(I10
I4
tp407
atp408
Rp409
sg13
((I10
I0
tp410
(I7
I0
tp411
(I2
I6
tp412
(I8
I3
tp413
tp414
sg14
I9
sbssg167
S'mild_roomset'
p415
sbsg167
g169
sg170
(dp416
g192
((lp417
(F6.9200000000000728
I164
tp418
aF40.0
tp419
sg236
((lp420
(F0.22999999999956344
I6
tp421
aF40.049999999999272
tp422
sg281
((lp423
(F2.1100000000005821
I89
tp424
a(F3.9400000000005093
I67
tp425
a(F8.5500000000010914
I52
tp426
aF40.020000000000437
tp427
sg328
((lp428
(F0.38000000000101863
I32
tp429
aF40.040000000000873
tp430
sg372
((lp431
(F1.2600000000002183
I18
tp432
aF40.029999999998836
tp433
ssba(imeasure_core
ProblemSetSolution
p434
(dp435
g3
(imeasure_core
RoomSet
p436
(dp437
g6
(dp438
(iproblems
RoomID
p439
(dp440
g10
I13
sg11
(I3
I4
tp441
sg13
I6
sg14
I10
sg15
I12
sg16
I1689441204489037471
sb(imulti_robot_problem
MultiRobotState
p442
(dp443
g19
g20
((lp444
(I7
I3
tp445
a(I1
I3
tp446
a(I8
I7
tp447
a(I10
I6
tp448
a(I7
I7
tp449
a(I6
I2
tp450
a(I1
I6
tp451
a(I9
I4
tp452
a(I4
I2
tp453
a(I5
I1
tp454
a(I10
I3
tp455
a(I2
I7
tp456
a(I9
I3
tp457
a(I9
I5
tp458
a(I0
I5
tp459
a(I11
I5
tp460
a(I8
I5
tp461
a(I5
I2
tp462
a(I0
I2
tp463
a(I3
I8
tp464
a(I4
I3
tp465
a(I0
I4
tp466
ag441
a(I8
I6
tp467
a(I4
I1
tp468
a(I1
I1
tp469
a(I8
I4
tp470
atp471
Rp472
sg15
I12
sg31
g20
((lp473
(I8
I9
tp474
a(I9
I0
tp475
a(I0
I0
tp476
a(I10
I4
tp477
a(I4
I8
tp478
a(I8
I1
tp479
a(I11
I2
tp480
a(I5
I4
tp481
a(I7
I4
tp482
a(I11
I8
tp483
a(I2
I6
tp484
a(I2
I3
tp485
a(I1
I5
tp486
atp487
Rp488
sg13
((I8
I0
tp489
(I7
I6
tp490
(I8
I8
tp491
(I7
I0
tp492
(I2
I4
tp493
(I9
I9
tp494
tp495
sg14
I10
sbs(iproblems
RoomID
p496
(dp497
g10
I15
sg11
(I10
I7
tp498
sg13
I6
sg14
I11
sg15
I13
sg16
I6660334802794327005
sb(imulti_robot_problem
MultiRobotState
p499
(dp500
g19
g20
((lp501
(I4
I7
tp502
a(I11
I7
tp503
a(I5
I6
tp504
a(I2
I8
tp505
a(I9
I9
tp506
a(I9
I10
tp507
a(I10
I8
tp508
a(I9
I0
tp509
ag498
a(I5
I7
tp510
a(I8
I10
tp511
a(I3
I8
tp512
a(I1
I5
tp513
a(I1
I8
tp514
a(I1
I10
tp515
a(I10
I0
tp516
a(I2
I4
tp517
atp518
Rp519
sg15
I13
sg31
g20
((lp520
(I2
I7
tp521
a(I12
I2
tp522
a(I6
I9
tp523
a(I6
I10
tp524
a(I12
I1
tp525
a(I2
I9
tp526
a(I12
I0
tp527
a(I12
I9
tp528
a(I11
I2
tp529
a(I10
I6
tp530
a(I1
I7
tp531
a(I12
I5
tp532
a(I6
I3
tp533
a(I10
I3
tp534
a(I12
I8
tp535
atp536
Rp537
sg13
((I9
I5
tp538
(I5
I10
tp539
(I5
I3
tp540
(I5
I1
tp541
(I9
I3
tp542
(I7
I8
tp543
tp544
sg14
I11
sbs(iproblems
RoomID
p545
(dp546
g10
I11
sg11
(I6
I1
tp547
sg13
I7
sg14
I13
sg15
I10
sg16
I3914746131789064238
sb(imulti_robot_problem
MultiRobotState
p548
(dp549
g19
g20
((lp550
(I0
I0
tp551
a(I7
I0
tp552
a(I9
I1
tp553
a(I2
I9
tp554
a(I7
I1
tp555
a(I9
I2
tp556
ag547
a(I6
I3
tp557
a(I8
I1
tp558
a(I7
I2
tp559
a(I5
I1
tp560
a(I7
I8
tp561
a(I6
I5
tp562
a(I5
I5
tp563
atp564
Rp565
sg15
I10
sg31
g20
((lp566
(I4
I7
tp567
a(I3
I3
tp568
a(I4
I5
tp569
a(I4
I4
tp570
a(I1
I4
tp571
a(I0
I11
tp572
a(I0
I5
tp573
a(I0
I10
tp574
a(I8
I7
tp575
a(I9
I5
tp576
a(I5
I3
tp577
atp578
Rp579
sg13
((I1
I11
tp580
(I8
I4
tp581
(I2
I12
tp582
(I1
I9
tp583
(I2
I11
tp584
(I5
I4
tp585
(I5
I0
tp586
tp587
sg14
I13
sbs(iproblems
RoomID
p588
(dp589
g10
I12
sg11
(I8
I7
tp590
sg13
I7
sg14
I12
sg15
I12
sg16
I4640892725076559864
sb(imulti_robot_problem
MultiRobotState
p591
(dp592
g19
g20
((lp593
(I5
I9
tp594
a(I6
I9
tp595
a(I4
I8
tp596
a(I5
I6
tp597
a(I2
I8
tp598
a(I6
I0
tp599
a(I2
I10
tp600
a(I0
I9
tp601
a(I6
I2
tp602
ag590
a(I3
I7
tp603
a(I5
I1
tp604
a(I1
I0
tp605
a(I8
I5
tp606
a(I7
I9
tp607
a(I7
I4
tp608
a(I7
I0
tp609
a(I6
I8
tp610
a(I2
I9
tp611
a(I0
I6
tp612
a(I7
I6
tp613
a(I5
I7
tp614
a(I8
I10
tp615
a(I0
I2
tp616
a(I6
I3
tp617
a(I2
I0
tp618
a(I1
I8
tp619
a(I4
I5
tp620
a(I5
I2
tp621
a(I1
I1
tp622
a(I9
I7
tp623
atp624
Rp625
sg15
I12
sg31
g20
((lp626
(I2
I7
tp627
a(I6
I4
tp628
a(I11
I10
tp629
a(I4
I6
tp630
a(I11
I8
tp631
a(I11
I2
tp632
a(I9
I3
tp633
a(I3
I2
tp634
a(I8
I8
tp635
a(I0
I5
tp636
a(I10
I3
tp637
a(I5
I3
tp638
atp639
Rp640
sg13
((I8
I6
tp641
(I11
I5
tp642
(I10
I8
tp643
(I9
I0
tp644
(I9
I4
tp645
(I9
I2
tp646
(I4
I11
tp647
tp648
sg14
I12
sbs(iproblems
RoomID
p649
(dp650
g10
I11
sg11
(I7
I6
tp651
sg13
I7
sg14
I13
sg15
I12
sg16
I3119042104763040036
sb(imulti_robot_problem
MultiRobotState
p652
(dp653
g19
g20
((lp654
(I5
I4
tp655
a(I4
I5
tp656
a(I9
I8
tp657
a(I10
I6
tp658
a(I9
I0
tp659
a(I6
I0
tp660
a(I8
I9
tp661
a(I2
I12
tp662
a(I9
I6
tp663
a(I10
I5
tp664
a(I5
I10
tp665
a(I10
I7
tp666
ag651
a(I9
I9
tp667
a(I8
I6
tp668
a(I11
I6
tp669
a(I9
I7
tp670
atp671
Rp672
sg15
I12
sg31
g20
((lp673
(I1
I2
tp674
a(I4
I4
tp675
a(I5
I11
tp676
a(I5
I6
tp677
a(I3
I4
tp678
a(I8
I0
tp679
a(I8
I10
tp680
a(I0
I11
tp681
a(I2
I3
tp682
a(I7
I8
tp683
a(I4
I0
tp684
atp685
Rp686
sg13
((I7
I12
tp687
(I8
I2
tp688
(I4
I6
tp689
(I3
I9
tp690
(I9
I11
tp691
(I11
I9
tp692
(I9
I3
tp693
tp694
sg14
I13
sbssg167
S'heavy_roomset'
p695
sbsg167
g169
sg170
(dp696
g439
((lp697
F40.050000000001091
tp698
sg496
((lp699
(F16.199999999998909
I11
tp700
aF42.18999999999869
tp701
sg545
((lp702
F41.100000000000364
tp703
sg588
((lp704
F41.680000000000291
tp705
sg649
((lp706
F45.530000000000655
tp707
ssba(imeasure_core
ProblemSetSolution
p708
(dp709
g3
g4
sg167
S"AnytimeBeam-w20-gf(4, 'lin')_with_PowerHeuristic2"
p710
sg170
(dp711
g8
((lp712
(F0.34999999999854481
I8
tp713
aF40.019999999998618
tp714
sg48
((lp715
(F0.25
I23
tp716
aF40.040000000000873
tp717
sg137
((lp718
(F0.21000000000094587
I7
tp719
aF40.030000000000655
tp720
sg78
((lp721
(F1.3899999999994179
I6
tp722
aF40.770000000000437
tp723
sg110
((lp724
(F0.47999999999956344
I11
tp725
aF40.039999999999054
tp726
ssba(imeasure_core
ProblemSetSolution
p727
(dp728
g3
g189
sg167
g710
sg170
(dp729
g192
((lp730
(F6.8799999999991996
I164
tp731
aF40.0
tp732
sg236
((lp733
(F0.22999999999956344
I6
tp734
aF40.059999999999491
tp735
sg281
((lp736
(F2.1100000000005821
I89
tp737
a(F4.0200000000004366
I67
tp738
a(F6.7299999999995634
I52
tp739
aF40.0
tp740
sg328
((lp741
(F0.38999999999941792
I32
tp742
aF40.059999999999491
tp743
sg372
((lp744
(F1.25
I18
tp745
aF40.020000000000437
tp746
ssba(imeasure_core
ProblemSetSolution
p747
(dp748
g3
g436
sg167
g710
sg170
(dp749
g439
((lp750
F40.190000000000509
tp751
sg496
((lp752
(F16.159999999999854
I11
tp753
aF42.100000000000364
tp754
sg545
((lp755
F41.209999999999127
tp756
sg588
((lp757
F41.700000000000728
tp758
sg649
((lp759
F45.159999999999854
tp760
ssba(imeasure_core
ProblemSetSolution
p761
(dp762
g3
g4
sg167
S"AnytimeBeam-w20-gf(8, 'lin')_with_PowerHeuristic2"
p763
sg170
(dp764
g8
((lp765
(F0.3500000000003638
I8
tp766
aF40.119999999998981
tp767
sg48
((lp768
(F0.26000000000021828
I23
tp769
aF40.040000000000873
tp770
sg137
((lp771
(F0.21000000000094587
I7
tp772
aF40.040000000000873
tp773
sg78
((lp774
(F1.3899999999994179
I6
tp775
aF40.270000000000437
tp776
sg110
((lp777
(F0.47999999999956344
I11
tp778
aF40.029999999998836
tp779
ssba(imeasure_core
ProblemSetSolution
p780
(dp781
g3
g189
sg167
g763
sg170
(dp782
g192
((lp783
(F6.8599999999987631
I164
tp784
aF40.049999999999272
tp785
sg236
((lp786
(F0.22999999999956344
I6
tp787
aF40.040000000000873
tp788
sg281
((lp789
(F2.0899999999983265
I89
tp790
a(F4.7799999999988358
I52
tp791
aF40.0
tp792
sg328
((lp793
(F0.38999999999941792
I32
tp794
aF40.049999999999272
tp795
sg372
((lp796
(F1.25
I18
tp797
aF40.270000000000437
tp798
ssba(imeasure_core
ProblemSetSolution
p799
(dp800
g3
g436
sg167
g763
sg170
(dp801
g439
((lp802
F40.069999999999709
tp803
sg496
((lp804
(F16.149999999999636
I11
tp805
aF42.1299999999992
tp806
sg545
((lp807
F41.200000000000728
tp808
sg588
((lp809
F41.610000000000582
tp810
sg649
((lp811
F45.170000000000073
tp812
ssba(imeasure_core
ProblemSetSolution
p813
(dp814
g3
g4
sg167
S"AnytimeBeam-w20-gf(16, 'lin')_with_PowerHeuristic2"
p815
sg170
(dp816
g8
((lp817
(F0.33999999999832653
I8
tp818
aF40.049999999999272
tp819
sg48
((lp820
(F0.25
I23
tp821
aF40.049999999999272
tp822
sg137
((lp823
(F0.21000000000094587
I7
tp824
aF40.130000000001019
tp825
sg78
((lp826
(F1.3700000000008004
I6
tp827
aF40.320000000001528
tp828
sg110
((lp829
(F0.46999999999934516
I11
tp830
aF40.119999999998981
tp831
ssba(imeasure_core
ProblemSetSolution
p832
(dp833
g3
g189
sg167
g815
sg170
(dp834
g192
((lp835
(F6.8500000000003638
I164
tp836
aF40.020000000000437
tp837
sg236
((lp838
(F0.22999999999956344
I6
tp839
aF40.180000000000291
tp840
sg281
((lp841
(F2.1000000000003638
I89
tp842
a(F5.1100000000005821
I52
tp843
aF40.049999999999272
tp844
sg328
((lp845
(F0.39000000000123691
I32
tp846
aF40.010000000000218
tp847
sg372
((lp848
(F1.25
I18
tp849
aF40.06000000000131
tp850
ssba(imeasure_core
ProblemSetSolution
p851
(dp852
g3
g436
sg167
g815
sg170
(dp853
g439
((lp854
F40.579999999999927
tp855
sg496
((lp856
(F16.109999999998763
I11
tp857
aF42.469999999999345
tp858
sg545
((lp859
F40.920000000000073
tp860
sg588
((lp861
F41.649999999999636
tp862
sg649
((lp863
F45.059999999999491
tp864
ssba(imeasure_core
ProblemSetSolution
p865
(dp866
g3
g4
sg167
S"AnytimeBeam-w20-gf(2, 'lin')_with_LinearHeuristic"
p867
sg170
(dp868
g8
((lp869
(F33.390000000001237
I223
tp870
aF40.06000000000131
tp871
sg48
((lp872
(F2.180000000000291
I49
tp873
aF40.029999999998836
tp874
sg137
((lp875
F40.049999999999272
tp876
sg78
((lp877
(F1.6400000000012369
I6
tp878
aF40.31000000000131
tp879
sg110
((lp880
(F17.869999999998981
I165
tp881
aF40.059999999999491
tp882
ssba(imeasure_core
ProblemSetSolution
p883
(dp884
g3
g189
sg167
g867
sg170
(dp885
g192
((lp886
F40.270000000000437
tp887
sg236
((lp888
(F0.36000000000058208
I12
tp889
aF40.260000000000218
tp890
sg281
((lp891
F40.039999999999054
tp892
sg328
((lp893
(F6.5600000000013097
I92
tp894
aF40.030000000000655
tp895
sg372
((lp896
F40.149999999999636
tp897
ssba(imeasure_core
ProblemSetSolution
p898
(dp899
g3
g436
sg167
g867
sg170
(dp900
g439
((lp901
F40.159999999999854
tp902
sg496
((lp903
F41.550000000001091
tp904
sg545
((lp905
F41.729999999999563
tp906
sg588
((lp907
F40.1299999999992
tp908
sg649
((lp909
F43.220000000001164
tp910
ssba(imeasure_core
ProblemSetSolution
p911
(dp912
g3
g4
sg167
S"AnytimeBeam-w20-gf(4, 'lin')_with_LinearHeuristic"
p913
sg170
(dp914
g8
((lp915
(F33.420000000000073
I223
tp916
aF40.039999999999054
tp917
sg48
((lp918
(F2.1700000000000728
I49
tp919
aF40.030000000000655
tp920
sg137
((lp921
F40.010000000000218
tp922
sg78
((lp923
(F1.6399999999994179
I6
tp924
aF40.180000000000291
tp925
sg110
((lp926
(F17.819999999999709
I165
tp927
aF40.039999999999054
tp928
ssba(imeasure_core
ProblemSetSolution
p929
(dp930
g3
g189
sg167
g913
sg170
(dp931
g192
((lp932
F40.3799999999992
tp933
sg236
((lp934
(F0.36000000000058208
I12
tp935
aF40.220000000001164
tp936
sg281
((lp937
F40.029999999998836
tp938
sg328
((lp939
(F6.5500000000010914
I92
tp940
aF40.040000000000873
tp941
sg372
((lp942
F40.069999999999709
tp943
ssba(imeasure_core
ProblemSetSolution
p944
(dp945
g3
g436
sg167
g913
sg170
(dp946
g439
((lp947
F40.180000000000291
tp948
sg496
((lp949
F41.459999999999127
tp950
sg545
((lp951
F41.640000000001237
tp952
sg588
((lp953
F40.090000000000146
tp954
sg649
((lp955
F43.179999999998472
tp956
ssba(imeasure_core
ProblemSetSolution
p957
(dp958
g3
g4
sg167
S"AnytimeBeam-w20-gf(8, 'lin')_with_LinearHeuristic"
p959
sg170
(dp960
g8
((lp961
(F33.590000000000146
I223
tp962
aF40.070000000001528
tp963
sg48
((lp964
(F2.2099999999991269
I49
tp965
aF40.039999999999054
tp966
sg137
((lp967
F40.099999999998545
tp968
sg78
((lp969
(F1.6399999999994179
I6
tp970
aF40.8799999999992
tp971
sg110
((lp972
(F17.840000000000146
I165
tp973
aF40.070000000001528
tp974
ssba(imeasure_core
ProblemSetSolution
p975
(dp976
g3
g189
sg167
g959
sg170
(dp977
g192
((lp978
F40.030000000000655
tp979
sg236
((lp980
(F0.3500000000003638
I12
tp981
aF40.020000000000437
tp982
sg281
((lp983
F40.0
tp984
sg328
((lp985
(F6.6299999999991996
I92
tp986
aF40.079999999999927
tp987
sg372
((lp988
F40.159999999999854
tp989
ssba(imeasure_core
ProblemSetSolution
p990
(dp991
g3
g436
sg167
g959
sg170
(dp992
g439
((lp993
F40.199999999998909
tp994
sg496
((lp995
F41.430000000000291
tp996
sg545
((lp997
F41.770000000000437
tp998
sg588
((lp999
F40.149999999999636
tp1000
sg649
((lp1001
F43.239999999999782
tp1002
ssba(imeasure_core
ProblemSetSolution
p1003
(dp1004
g3
g4
sg167
S"AnytimeBeam-w20-gf(16, 'lin')_with_LinearHeuristic"
p1005
sg170
(dp1006
g8
((lp1007
(F33.729999999999563
I223
tp1008
aF40.020000000000437
tp1009
sg48
((lp1010
(F2.180000000000291
I49
tp1011
aF40.020000000000437
tp1012
sg137
((lp1013
F40.200000000000728
tp1014
sg78
((lp1015
(F1.6499999999996362
I6
tp1016
aF40.309999999999491
tp1017
sg110
((lp1018
(F17.940000000000509
I165
tp1019
aF40.569999999999709
tp1020
ssba(imeasure_core
ProblemSetSolution
p1021
(dp1022
g3
g189
sg167
g1005
sg170
(dp1023
g192
((lp1024
F40.020000000000437
tp1025
sg236
((lp1026
(F0.35999999999876309
I12
tp1027
aF40.029999999998836
tp1028
sg281
((lp1029
F40.069999999999709
tp1030
sg328
((lp1031
(F6.6100000000005821
I92
tp1032
aF40.020000000000437
tp1033
sg372
((lp1034
F40.389999999999418
tp1035
ssba(imeasure_core
ProblemSetSolution
p1036
(dp1037
g3
g436
sg167
g1005
sg170
(dp1038
g439
((lp1039
F40.090000000000146
tp1040
sg496
((lp1041
F41.570000000001528
tp1042
sg545
((lp1043
F41.869999999998981
tp1044
sg588
((lp1045
F40.180000000000291
tp1046
sg649
((lp1047
F43.190000000000509
tp1048
ssba.