(lp0
(imeasure_core
ProblemSetSolution
p1
(dp2
S'roomset'
p3
(imeasure_core
RoomSet
p4
(dp5
S'rooms'
p6
(dp7
(iproblems
RoomID
p8
(dp9
S'dusts'
p10
I6
sS'obstacles'
p11
(I3
I2
tp12
sS'robots'
p13
I1
sS'height'
p14
I9
sS'width'
p15
I10
sS'seed'
p16
I6832892905590973747
sb(imulti_robot_problem
MultiRobotState
p17
(dp18
S'obstacle_locations'
p19
c__builtin__
frozenset
p20
((lp21
(I3
I0
tp22
a(I2
I0
tp23
ag12
a(I3
I1
tp24
atp25
Rp26
sg15
I10
sS'dirt_locations'
p27
g20
((lp28
(I1
I2
tp29
a(I2
I7
tp30
a(I0
I0
tp31
a(I0
I5
tp32
a(I5
I6
tp33
a(I0
I2
tp34
atp35
Rp36
sg13
((I8
I4
tp37
tp38
sg14
I9
sbs(iproblems
RoomID
p39
(dp40
g10
I7
sg11
(I3
I5
tp41
sg13
I5
sg14
I7
sg15
I9
sg16
I6924344268699531175
sb(imulti_robot_problem
MultiRobotState
p42
(dp43
g19
g20
((lp44
(I2
I6
tp45
a(I1
I6
tp46
a(I3
I6
tp47
ag41
atp48
Rp49
sg15
I9
sg27
g20
((lp50
(I1
I2
tp51
a(I0
I0
tp52
a(I5
I0
tp53
a(I7
I1
tp54
a(I8
I6
tp55
a(I3
I4
tp56
a(I6
I5
tp57
atp58
Rp59
sg13
((I4
I0
tp60
(I7
I2
tp61
(I1
I1
tp62
(I6
I1
tp63
(I8
I4
tp64
tp65
sg14
I7
sbs(iproblems
RoomID
p66
(dp67
g10
I6
sg11
(I3
I1
tp68
sg13
I4
sg14
I8
sg15
I7
sg16
I807570059310326234
sb(imulti_robot_problem
MultiRobotState
p69
(dp70
g19
g20
((lp71
(I6
I3
tp72
a(I4
I2
tp73
ag68
a(I5
I3
tp74
atp75
Rp76
sg15
I7
sg27
g20
((lp77
(I3
I2
tp78
a(I6
I7
tp79
a(I4
I6
tp80
a(I0
I4
tp81
a(I1
I0
tp82
a(I5
I2
tp83
atp84
Rp85
sg13
((I1
I2
tp86
(I0
I1
tp87
(I3
I7
tp88
(I2
I4
tp89
tp90
sg14
I8
sbs(iproblems
RoomID
p91
(dp92
g10
I8
sg11
(I5
I0
tp93
sg13
I4
sg14
I10
sg15
I10
sg16
I3562373307524659409
sb(imulti_robot_problem
MultiRobotState
p94
(dp95
g19
g20
((lp96
(I6
I3
tp97
a(I6
I7
tp98
ag93
a(I3
I6
tp99
a(I8
I1
tp100
a(I7
I0
tp101
a(I6
I0
tp102
atp103
Rp104
sg15
I10
sg27
g20
((lp105
(I1
I3
tp106
a(I2
I9
tp107
a(I7
I6
tp108
a(I7
I7
tp109
a(I8
I9
tp110
a(I1
I8
tp111
a(I1
I6
tp112
a(I2
I2
tp113
atp114
Rp115
sg13
((I9
I8
tp116
(I6
I5
tp117
(I5
I1
tp118
(I8
I8
tp119
tp120
sg14
I10
sbs(iproblems
RoomID
p121
(dp122
g10
I5
sg11
(I4
I7
tp123
sg13
I3
sg14
I9
sg15
I7
sg16
I2524308075868763041
sb(imulti_robot_problem
MultiRobotState
p124
(dp125
g19
g20
((lp126
(I1
I2
tp127
a(I3
I8
tp128
ag123
a(I4
I6
tp129
a(I4
I1
tp130
a(I2
I4
tp131
a(I3
I5
tp132
atp133
Rp134
sg15
I7
sg27
g20
((lp135
(I2
I6
tp136
a(I5
I2
tp137
a(I3
I3
tp138
a(I0
I7
tp139
a(I3
I6
tp140
atp141
Rp142
sg13
((I0
I6
tp143
(I3
I1
tp144
(I4
I8
tp145
tp146
sg14
I9
sbssS'name'
p147
S'easy_roomset'
p148
sbsg147
S'LimitedTimeAStar_with_PowerHeuristic2'
p149
sS'solutions'
p150
(dp151
g8
((lp152
F0.090000000000145519
tp153
sg39
((lp154
F1.9200000000000728
tp155
sg91
((lp156
F0.4500000000007276
tp157
sg66
((lp158
F301.21999999999935
tp159
sg121
((lp160
F0.030000000000654836
tp161
ssba(imeasure_core
ProblemSetSolution
p162
(dp163
g3
(imeasure_core
RoomSet
p164
(dp165
g6
(dp166
(iproblems
RoomID
p167
(dp168
g10
I6
sg11
(I6
I2
tp169
sg13
I3
sg14
I11
sg15
I12
sg16
I6832892905590973747
sb(imulti_robot_problem
MultiRobotState
p170
(dp171
g19
g20
((lp172
(I6
I4
tp173
a(I2
I6
tp174
a(I4
I3
tp175
a(I3
I0
tp176
a(I2
I8
tp177
a(I7
I7
tp178
a(I7
I5
tp179
a(I4
I2
tp180
a(I5
I3
tp181
a(I4
I1
tp182
a(I7
I6
tp183
a(I6
I3
tp184
a(I4
I5
tp185
ag169
a(I3
I6
tp186
a(I8
I6
tp187
a(I4
I0
tp188
a(I5
I2
tp189
a(I2
I4
tp190
atp191
Rp192
sg15
I12
sg27
g20
((lp193
(I1
I6
tp194
a(I6
I8
tp195
a(I2
I9
tp196
a(I0
I3
tp197
a(I0
I2
tp198
a(I7
I9
tp199
atp200
Rp201
sg13
((I10
I6
tp202
(I1
I2
tp203
(I0
I0
tp204
tp205
sg14
I11
sbs(iproblems
RoomID
p206
(dp207
g10
I7
sg11
(I3
I1
tp208
sg13
I4
sg14
I9
sg15
I11
sg16
I6924344268699531175
sb(imulti_robot_problem
MultiRobotState
p209
(dp210
g19
g20
((lp211
(I4
I7
tp212
ag208
a(I6
I6
tp213
a(I5
I6
tp214
a(I2
I8
tp215
a(I9
I8
tp216
a(I7
I7
tp217
a(I0
I7
tp218
a(I7
I5
tp219
a(I8
I7
tp220
a(I0
I3
tp221
a(I0
I8
tp222
a(I8
I5
tp223
a(I6
I3
tp224
a(I5
I2
tp225
a(I7
I6
tp226
a(I4
I8
tp227
a(I7
I4
tp228
a(I3
I8
tp229
a(I0
I6
tp230
a(I8
I8
tp231
a(I4
I1
tp232
a(I9
I7
tp233
atp234
Rp235
sg15
I11
sg27
g20
((lp236
(I8
I3
tp237
a(I1
I3
tp238
a(I4
I6
tp239
a(I4
I3
tp240
a(I0
I4
tp241
a(I10
I5
tp242
a(I0
I0
tp243
atp244
Rp245
sg13
((I6
I0
tp246
(I9
I3
tp247
(I1
I1
tp248
(I8
I1
tp249
tp250
sg14
I9
sbs(iproblems
RoomID
p251
(dp252
g10
I10
sg11
(I6
I8
tp253
sg13
I3
sg14
I11
sg15
I10
sg16
I7391799147228763464
sb(imulti_robot_problem
MultiRobotState
p254
(dp255
g19
g20
((lp256
(I5
I9
tp257
a(I4
I7
tp258
a(I4
I6
tp259
a(I4
I8
tp260
a(I4
I5
tp261
a(I6
I9
tp262
a(I0
I7
tp263
a(I1
I4
tp264
a(I3
I7
tp265
a(I5
I8
tp266
ag253
a(I2
I7
tp267
a(I3
I8
tp268
a(I4
I9
tp269
a(I3
I3
tp270
a(I9
I2
tp271
a(I6
I3
tp272
a(I3
I6
tp273
a(I1
I7
tp274
a(I0
I9
tp275
a(I7
I8
tp276
a(I0
I2
tp277
a(I1
I9
tp278
atp279
Rp280
sg15
I10
sg27
g20
((lp281
(I8
I3
tp282
a(I5
I10
tp283
a(I5
I5
tp284
a(I2
I8
tp285
a(I7
I6
tp286
a(I6
I0
tp287
a(I2
I10
tp288
a(I9
I4
tp289
a(I1
I10
tp290
a(I0
I3
tp291
atp292
Rp293
sg13
((I3
I10
tp294
(I7
I1
tp295
(I1
I5
tp296
tp297
sg14
I11
sbs(iproblems
RoomID
p298
(dp299
g10
I6
sg11
(I2
I5
tp300
sg13
I4
sg14
I10
sg15
I9
sg16
I807570059310326234
sb(imulti_robot_problem
MultiRobotState
p301
(dp302
g19
g20
((lp303
(I6
I4
tp304
a(I3
I2
tp305
a(I1
I3
tp306
a(I8
I2
tp307
a(I2
I3
tp308
a(I3
I8
tp309
ag300
a(I1
I0
tp310
a(I1
I2
tp311
a(I7
I4
tp312
a(I4
I1
tp313
a(I3
I3
tp314
a(I3
I4
tp315
a(I1
I1
tp316
a(I6
I3
tp317
a(I2
I0
tp318
a(I1
I8
tp319
a(I2
I2
tp320
a(I5
I2
tp321
a(I0
I2
tp322
a(I8
I4
tp323
atp324
Rp325
sg15
I9
sg27
g20
((lp326
(I7
I3
tp327
a(I2
I6
tp328
a(I1
I6
tp329
a(I4
I2
tp330
a(I5
I8
tp331
a(I7
I9
tp332
atp333
Rp334
sg13
((I6
I2
tp335
(I0
I1
tp336
(I3
I9
tp337
(I3
I5
tp338
tp339
sg14
I10
sbs(iproblems
RoomID
p340
(dp341
g10
I8
sg11
(I11
I7
tp342
sg13
I4
sg14
I12
sg15
I12
sg16
I3562373307524659409
sb(imulti_robot_problem
MultiRobotState
p343
(dp344
g19
g20
((lp345
(I6
I4
tp346
a(I6
I9
tp347
a(I3
I2
tp348
a(I9
I1
tp349
a(I6
I6
tp350
a(I5
I6
tp351
a(I9
I8
tp352
a(I3
I11
tp353
a(I7
I1
tp354
ag342
a(I8
I9
tp355
a(I3
I9
tp356
a(I11
I8
tp357
a(I10
I2
tp358
a(I4
I2
tp359
a(I7
I2
tp360
a(I10
I8
tp361
a(I8
I3
tp362
a(I8
I1
tp363
a(I3
I10
tp364
a(I5
I11
tp365
a(I6
I3
tp366
a(I6
I11
tp367
a(I6
I5
tp368
a(I7
I10
tp369
a(I4
I8
tp370
a(I11
I6
tp371
a(I4
I11
tp372
atp373
Rp374
sg15
I12
sg27
g20
((lp375
(I7
I3
tp376
a(I1
I3
tp377
a(I10
I11
tp378
a(I1
I7
tp379
a(I8
I8
tp380
a(I2
I2
tp381
a(I3
I7
tp382
a(I7
I9
tp383
atp384
Rp385
sg13
((I11
I10
tp386
(I7
I6
tp387
(I10
I10
tp388
(I2
I10
tp389
tp390
sg14
I12
sbssg147
S'mild_roomset'
p391
sbsg147
g149
sg150
(dp392
g167
((lp393
F0.15999999999985448
tp394
sg206
((lp395
F9.5799999999999272
tp396
sg251
((lp397
F19.289999999999054
tp398
sg298
((lp399
F300.45000000000073
tp400
sg340
((lp401
F301.38999999999942
tp402
ssba(imeasure_core
ProblemSetSolution
p403
(dp404
g3
(imeasure_core
RoomSet
p405
(dp406
g6
(dp407
(iproblems
RoomID
p408
(dp409
g10
I11
sg11
(I4
I2
tp410
sg13
I5
sg14
I12
sg15
I13
sg16
I6832892905590973747
sb(imulti_robot_problem
MultiRobotState
p411
(dp412
g19
g20
((lp413
(I5
I9
tp414
a(I6
I9
tp415
a(I8
I2
tp416
a(I3
I0
tp417
a(I3
I4
tp418
a(I12
I11
tp419
ag410
a(I4
I1
tp420
a(I4
I0
tp421
atp422
Rp423
sg15
I13
sg27
g20
((lp424
(I2
I7
tp425
a(I9
I0
tp426
a(I6
I8
tp427
a(I4
I5
tp428
a(I2
I8
tp429
a(I8
I10
tp430
a(I2
I10
tp431
a(I1
I7
tp432
a(I3
I7
tp433
a(I2
I5
tp434
a(I0
I8
tp435
atp436
Rp437
sg13
((I11
I6
tp438
(I1
I2
tp439
(I1
I0
tp440
(I0
I3
tp441
(I0
I2
tp442
tp443
sg14
I12
sbs(iproblems
RoomID
p444
(dp445
g10
I12
sg11
(I6
I7
tp446
sg13
I7
sg14
I10
sg15
I12
sg16
I6924344268699531175
sb(imulti_robot_problem
MultiRobotState
p447
(dp448
g19
g20
((lp449
(I4
I7
tp450
ag446
a(I2
I9
tp451
a(I4
I8
tp452
a(I9
I6
tp453
a(I5
I7
tp454
a(I0
I6
tp455
a(I3
I9
tp456
a(I0
I9
tp457
a(I4
I9
tp458
a(I4
I1
tp459
atp460
Rp461
sg15
I12
sg27
g20
((lp462
(I7
I3
tp463
a(I5
I4
tp464
a(I1
I3
tp465
a(I9
I1
tp466
a(I8
I3
tp467
a(I0
I7
tp468
a(I8
I8
tp469
a(I0
I0
tp470
a(I0
I4
tp471
a(I0
I8
tp472
a(I11
I6
tp473
a(I9
I7
tp474
atp475
Rp476
sg13
((I6
I0
tp477
(I10
I4
tp478
(I1
I1
tp479
(I8
I2
tp480
(I11
I5
tp481
(I5
I6
tp482
(I10
I9
tp483
tp484
sg14
I10
sbs(iproblems
RoomID
p485
(dp486
g10
I15
sg11
(I4
I8
tp487
sg13
I6
sg14
I12
sg15
I11
sg16
I7391799147228763464
sb(imulti_robot_problem
MultiRobotState
p488
(dp489
g19
g20
((lp490
(I6
I4
tp491
a(I4
I7
tp492
ag487
a(I5
I6
tp493
a(I2
I8
tp494
a(I5
I7
tp495
a(I6
I9
tp496
a(I4
I2
tp497
a(I9
I2
tp498
a(I1
I6
tp499
a(I10
I7
tp500
a(I8
I6
tp501
a(I2
I4
tp502
atp503
Rp504
sg15
I11
sg27
g20
((lp505
(I7
I0
tp506
a(I10
I4
tp507
a(I6
I11
tp508
a(I7
I6
tp509
a(I1
I4
tp510
a(I8
I9
tp511
a(I1
I8
tp512
a(I3
I9
tp513
a(I0
I10
tp514
a(I9
I4
tp515
a(I7
I10
tp516
a(I1
I10
tp517
a(I4
I3
tp518
a(I0
I3
tp519
a(I0
I2
tp520
atp521
Rp522
sg13
((I4
I6
tp523
(I3
I11
tp524
(I7
I1
tp525
(I2
I5
tp526
(I5
I9
tp527
(I2
I11
tp528
tp529
sg14
I12
sbs(iproblems
RoomID
p530
(dp531
g10
I11
sg11
(I5
I1
tp532
sg13
I7
sg14
I11
sg15
I10
sg16
I807570059310326234
sb(imulti_robot_problem
MultiRobotState
p533
(dp534
g19
g20
((lp535
(I7
I3
tp536
a(I4
I6
tp537
a(I7
I4
tp538
a(I6
I2
tp539
a(I1
I9
tp540
a(I9
I4
tp541
ag532
a(I0
I3
tp542
a(I5
I2
tp543
a(I8
I4
tp544
atp545
Rp546
sg15
I10
sg27
g20
((lp547
(I5
I9
tp548
a(I6
I9
tp549
a(I2
I9
tp550
a(I4
I8
tp551
a(I9
I2
tp552
a(I2
I0
tp553
a(I1
I6
tp554
a(I9
I5
tp555
a(I4
I2
tp556
a(I1
I0
tp557
a(I3
I5
tp558
atp559
Rp560
sg13
((I1
I3
tp561
(I0
I2
tp562
(I4
I10
tp563
(I4
I5
tp564
(I8
I10
tp565
(I8
I3
tp566
(I2
I6
tp567
tp568
sg14
I11
sbs(iproblems
RoomID
p569
(dp570
g10
I13
sg11
(I7
I4
tp571
sg13
I6
sg14
I13
sg15
I13
sg16
I3562373307524659409
sb(imulti_robot_problem
MultiRobotState
p572
(dp573
g19
g20
((lp574
(I7
I3
tp575
a(I5
I4
tp576
a(I4
I9
tp577
a(I9
I1
tp578
a(I5
I9
tp579
a(I8
I1
tp580
a(I11
I2
tp581
a(I9
I3
tp582
a(I3
I11
tp583
a(I11
I7
tp584
ag571
a(I10
I1
tp585
a(I3
I10
tp586
a(I10
I5
tp587
a(I8
I2
tp588
atp589
Rp590
sg15
I13
sg27
g20
((lp591
(I8
I3
tp592
a(I3
I12
tp593
a(I4
I8
tp594
a(I6
I10
tp595
a(I9
I9
tp596
a(I12
I6
tp597
a(I8
I9
tp598
a(I1
I8
tp599
a(I4
I3
tp600
a(I2
I2
tp601
a(I4
I2
tp602
a(I11
I12
tp603
a(I2
I4
tp604
atp605
Rp606
sg13
((I12
I11
tp607
(I7
I6
tp608
(I7
I1
tp609
(I10
I11
tp610
(I2
I11
tp611
(I9
I8
tp612
tp613
sg14
I13
sbssg147
S'heavy_roomset'
p614
sbsg147
g149
sg150
(dp615
g408
((lp616
F302.07999999999993
tp617
sg444
((lp618
F314.88000000000102
tp619
sg569
((lp620
F23.75
tp621
sg530
((lp622
F304.65000000000146
tp623
sg485
((lp624
F29.599999999998545
tp625
ssba.