(lp0
(imeasure_core
ProblemSetSolution
p1
(dp2
S'roomset'
p3
(imeasure_core
RoomSet
p4
(dp5
S'rooms'
p6
(dp7
(iproblems
RoomID
p8
(dp9
S'dusts'
p10
I7
sS'obstacles'
p11
(I1
I3
tp12
sS'robots'
p13
I1
sS'height'
p14
I7
sS'width'
p15
I9
sS'seed'
p16
I1486246605650367638
sb(imulti_robot_problem
MultiRobotState
p17
(dp18
S'obstacle_locations'
p19
c__builtin__
frozenset
p20
((lp21
(I0
I1
tp22
a(I8
I3
tp23
ag12
a(I0
I3
tp24
a(I0
I2
tp25
atp26
Rp27
sg15
I9
sS'dirt_locations'
p28
g20
((lp29
(I7
I5
tp30
a(I7
I0
tp31
a(I0
I4
tp32
a(I1
I0
tp33
a(I4
I4
tp34
a(I6
I5
tp35
a(I4
I0
tp36
atp37
Rp38
sg13
((I5
I1
tp39
tp40
sg14
I7
sbs(iproblems
RoomID
p41
(dp42
g10
I9
sg11
(I7
I5
tp43
sg13
I4
sg14
I10
sg15
I10
sg16
I679259829289197625
sb(imulti_robot_problem
MultiRobotState
p44
(dp45
g19
g20
((lp46
(I9
I6
tp47
a(I8
I6
tp48
a(I7
I6
tp49
ag43
a(I7
I0
tp50
atp51
Rp52
sg15
I10
sg28
g20
((lp53
(I5
I4
tp54
a(I2
I6
tp55
a(I7
I1
tp56
a(I6
I1
tp57
a(I1
I6
tp58
a(I0
I5
tp59
a(I8
I7
tp60
a(I0
I9
tp61
a(I9
I5
tp62
atp63
Rp64
sg13
((I7
I8
tp65
(I6
I7
tp66
(I3
I5
tp67
(I3
I9
tp68
tp69
sg14
I10
sbs(iproblems
RoomID
p70
(dp71
g10
I6
sg11
(I4
I4
tp72
sg13
I4
sg14
I9
sg15
I9
sg16
I5891625650498269233
sb(imulti_robot_problem
MultiRobotState
p73
(dp74
g19
g20
((lp75
(I2
I7
tp76
a(I4
I5
tp77
ag72
a(I3
I6
tp78
atp79
Rp80
sg15
I9
sg28
g20
((lp81
(I7
I4
tp82
a(I8
I3
tp83
a(I0
I5
tp84
a(I5
I5
tp85
a(I6
I6
tp86
a(I4
I0
tp87
atp88
Rp89
sg13
((I4
I6
tp90
(I7
I1
tp91
(I0
I4
tp92
(I7
I2
tp93
tp94
sg14
I9
sbs(iproblems
RoomID
p95
(dp96
g10
I6
sg11
(I1
I6
tp97
sg13
I4
sg14
I8
sg15
I10
sg16
I403795515464475257
sb(imulti_robot_problem
MultiRobotState
p98
(dp99
g19
g20
((lp100
(I8
I3
tp101
a(I1
I3
tp102
a(I6
I7
tp103
a(I0
I4
tp104
ag97
a(I4
I1
tp105
a(I0
I5
tp106
atp107
Rp108
sg15
I10
sg28
g20
((lp109
(I7
I3
tp110
a(I4
I7
tp111
a(I2
I2
tp112
a(I8
I0
tp113
a(I0
I2
tp114
a(I0
I7
tp115
atp116
Rp117
sg13
((I8
I2
tp118
(I6
I1
tp119
(I5
I0
tp120
(I2
I0
tp121
tp122
sg14
I8
sbs(iproblems
RoomID
p123
(dp124
g10
I5
sg11
(I3
I4
tp125
sg13
I1
sg14
I9
sg15
I9
sg16
I2685440357799139976
sb(imulti_robot_problem
MultiRobotState
p126
(dp127
g19
g20
((lp128
(I8
I3
tp129
a(I1
I3
tp130
a(I5
I6
tp131
ag125
a(I2
I4
tp132
a(I3
I8
tp133
a(I2
I3
tp134
a(I7
I8
tp135
a(I1
I1
tp136
atp137
Rp138
sg15
I9
sg28
g20
((lp139
(I0
I1
tp140
a(I0
I0
tp141
a(I3
I1
tp142
a(I8
I7
tp143
a(I5
I0
tp144
atp145
Rp146
sg13
((I5
I5
tp147
tp148
sg14
I9
sbssS'name'
p149
S'easy_roomset'
p150
sbsg149
S"AnytimeBeam-w5-gf(1.3, 'exp')_with_PowerHeuristic2"
p151
sS'solutions'
p152
(dp153
g8
((lp154
(F0.23999999999796273
I45
tp155
a(F2.069999999999709
I44
tp156
a(F2.6999999999970896
I41
tp157
a(F3.1399999999994179
I37
tp158
a(F3.75
I36
tp159
a(F4.3799999999973807
I34
tp160
a(F6.4799999999959255
I33
tp161
a(F8.7299999999959255
I31
tp162
a(F11.69999999999709
I30
tp163
a(F14.899999999994179
I28
tp164
a(F17.339999999996508
I26
tp165
a(F22.399999999994179
I25
tp166
a(F28.899999999994179
I24
tp167
aF40.0
tp168
sg41
((lp169
(F0.54999999999563443
I20
tp170
aF40.179999999993015
tp171
sg123
((lp172
(F0.050000000002910383
I43
tp173
a(F0.090000000003783498
I41
tp174
a(F2.5600000000049477
I35
tp175
a(F3.680000000000291
I33
tp176
a(F4.9400000000023283
I31
tp177
a(F6.2400000000052387
I29
tp178
a(F8.5600000000049477
I27
tp179
a(F11.780000000006112
I25
tp180
a(F14.510000000002037
I23
tp181
aF40.0
tp182
sg70
((lp183
(F0.30000000000291038
I8
tp184
aF40.380000000004657
tp185
sg95
((lp186
(F3.8099999999976717
I134
tp187
aF40.049999999995634
tp188
ssba(imeasure_core
ProblemSetSolution
p189
(dp190
g3
(imeasure_core
RoomSet
p191
(dp192
g6
(dp193
(iproblems
RoomID
p194
(dp195
g10
I9
sg11
(I7
I7
tp196
sg13
I4
sg14
I12
sg15
I12
sg16
I679259829289197625
sb(imulti_robot_problem
MultiRobotState
p197
(dp198
g19
g20
((lp199
(I6
I4
tp200
a(I6
I9
tp201
a(I6
I6
tp202
a(I5
I6
tp203
a(I9
I8
tp204
a(I11
I9
tp205
ag196
a(I1
I4
tp206
a(I11
I7
tp207
a(I7
I5
tp208
a(I8
I7
tp209
a(I4
I2
tp210
a(I8
I5
tp211
a(I6
I5
tp212
a(I10
I8
tp213
a(I10
I5
tp214
a(I6
I7
tp215
a(I6
I8
tp216
a(I10
I7
tp217
a(I9
I6
tp218
a(I7
I6
tp219
a(I8
I10
tp220
a(I7
I4
tp221
a(I11
I8
tp222
a(I7
I10
tp223
a(I8
I6
tp224
a(I6
I1
tp225
a(I9
I7
tp226
atp227
Rp228
sg15
I12
sg28
g20
((lp229
(I2
I7
tp230
a(I9
I0
tp231
a(I8
I2
tp232
a(I7
I1
tp233
a(I11
I0
tp234
a(I0
I11
tp235
a(I1
I6
tp236
a(I1
I7
tp237
a(I11
I6
tp238
atp239
Rp240
sg13
((I9
I10
tp241
(I8
I9
tp242
(I3
I7
tp243
(I3
I11
tp244
tp245
sg14
I12
sbs(iproblems
RoomID
p246
(dp247
g10
I5
sg11
(I9
I1
tp248
sg13
I3
sg14
I11
sg15
I11
sg16
I2685440357799139976
sb(imulti_robot_problem
MultiRobotState
p249
(dp250
g19
g20
((lp251
(I7
I3
tp252
a(I10
I4
tp253
a(I9
I3
tp254
ag248
a(I7
I1
tp255
a(I5
I6
tp256
a(I10
I6
tp257
a(I1
I4
tp258
a(I9
I9
tp259
a(I3
I9
tp260
a(I9
I4
tp261
a(I6
I8
tp262
a(I9
I6
tp263
a(I3
I4
tp264
a(I10
I3
tp265
a(I7
I2
tp266
a(I5
I3
tp267
a(I8
I3
tp268
a(I5
I5
tp269
a(I10
I7
tp270
a(I8
I5
tp271
a(I9
I2
tp272
a(I3
I6
tp273
a(I4
I5
tp274
a(I6
I5
tp275
a(I7
I10
tp276
a(I9
I5
tp277
a(I3
I5
tp278
a(I7
I8
tp279
a(I2
I4
tp280
a(I10
I9
tp281
atp282
Rp283
sg15
I11
sg28
g20
((lp284
(I1
I2
tp285
a(I9
I10
tp286
a(I6
I1
tp287
a(I4
I1
tp288
a(I0
I2
tp289
atp290
Rp291
sg13
((I6
I6
tp292
(I0
I0
tp293
(I10
I8
tp294
tp295
sg14
I11
sbs(iproblems
RoomID
p296
(dp297
g10
I6
sg11
(I3
I9
tp298
sg13
I4
sg14
I11
sg15
I11
sg16
I5891625650498269233
sb(imulti_robot_problem
MultiRobotState
p299
(dp300
g19
g20
((lp301
(I7
I3
tp302
a(I4
I7
tp303
a(I6
I6
tp304
a(I5
I6
tp305
a(I2
I8
tp306
a(I6
I2
tp307
a(I5
I1
tp308
a(I3
I7
tp309
a(I8
I5
tp310
a(I5
I5
tp311
a(I2
I9
tp312
a(I7
I6
tp313
a(I4
I4
tp314
a(I2
I2
tp315
a(I1
I1
tp316
a(I9
I7
tp317
a(I3
I2
tp318
a(I10
I4
tp319
a(I4
I5
tp320
a(I9
I3
tp321
a(I10
I5
tp322
a(I2
I10
tp323
a(I7
I5
tp324
a(I2
I3
tp325
a(I8
I3
tp326
a(I4
I6
tp327
a(I5
I2
tp328
a(I6
I1
tp329
a(I3
I8
tp330
a(I1
I8
tp331
ag298
a(I4
I3
tp332
a(I9
I5
tp333
a(I3
I4
tp334
a(I8
I4
tp335
atp336
Rp337
sg15
I11
sg28
g20
((lp338
(I8
I8
tp339
a(I5
I10
tp340
a(I9
I1
tp341
a(I10
I7
tp342
a(I1
I6
tp343
a(I7
I9
tp344
atp345
Rp346
sg13
((I5
I7
tp347
(I8
I1
tp348
(I0
I5
tp349
(I4
I0
tp350
tp351
sg14
I11
sbs(iproblems
RoomID
p352
(dp353
g10
I10
sg11
(I1
I5
tp354
sg13
I4
sg14
I12
sg15
I10
sg16
I1737871632067391849
sb(imulti_robot_problem
MultiRobotState
p355
(dp356
g19
g20
((lp357
(I3
I2
tp358
a(I0
I0
tp359
a(I6
I6
tp360
a(I5
I6
tp361
a(I2
I8
tp362
a(I2
I10
tp363
a(I8
I9
tp364
a(I6
I2
tp365
a(I2
I3
tp366
a(I8
I7
tp367
a(I5
I1
tp368
a(I8
I5
tp369
a(I5
I8
tp370
a(I8
I3
tp371
a(I5
I5
tp372
a(I7
I8
tp373
a(I7
I6
tp374
a(I8
I10
tp375
ag354
a(I6
I5
tp376
a(I2
I2
tp377
a(I4
I1
tp378
a(I2
I4
tp379
atp380
Rp381
sg15
I10
sg28
g20
((lp382
(I0
I1
tp383
a(I4
I10
tp384
a(I4
I8
tp385
a(I3
I0
tp386
a(I9
I6
tp387
a(I3
I10
tp388
a(I5
I11
tp389
a(I2
I7
tp390
a(I1
I9
tp391
a(I3
I4
tp392
atp393
Rp394
sg13
((I4
I9
tp395
(I8
I11
tp396
(I4
I0
tp397
(I3
I9
tp398
tp399
sg14
I12
sbs(iproblems
RoomID
p400
(dp401
g10
I7
sg11
(I8
I8
tp402
sg13
I3
sg14
I9
sg15
I9
sg16
I7834319822419845881
sb(imulti_robot_problem
MultiRobotState
p403
(dp404
g19
g20
((lp405
(I4
I7
tp406
a(I1
I3
tp407
a(I5
I0
tp408
a(I6
I6
tp409
a(I5
I6
tp410
a(I2
I8
tp411
a(I3
I5
tp412
a(I4
I6
tp413
a(I2
I6
tp414
a(I0
I5
tp415
a(I3
I7
tp416
a(I0
I3
tp417
a(I0
I8
tp418
a(I8
I5
tp419
a(I5
I8
tp420
a(I3
I3
tp421
a(I2
I7
tp422
a(I6
I7
tp423
a(I5
I5
tp424
a(I7
I8
tp425
a(I4
I4
tp426
a(I1
I5
tp427
a(I1
I8
tp428
ag402
a(I3
I6
tp429
a(I1
I7
tp430
a(I4
I5
tp431
a(I5
I3
tp432
a(I3
I4
tp433
atp434
Rp435
sg15
I9
sg28
g20
((lp436
(I7
I4
tp437
a(I2
I0
tp438
a(I6
I2
tp439
a(I7
I0
tp440
a(I8
I7
tp441
a(I7
I1
tp442
a(I1
I4
tp443
atp444
Rp445
sg13
((I2
I1
tp446
(I2
I3
tp447
(I5
I7
tp448
tp449
sg14
I9
sbssg149
S'mild_roomset'
p450
sbsg149
g151
sg152
(dp451
g194
((lp452
F40.069999999999709
tp453
sg246
((lp454
(F4.930000000000291
I127
tp455
aF40.0
tp456
sg296
((lp457
(F3.3100000000049477
I64
tp458
aF40.210000000006403
tp459
sg352
((lp460
(F0.27999999999883585
I12
tp461
aF40.219999999993888
tp462
sg400
((lp463
(F0.090000000003783498
I26
tp464
a(F0.18000000000029104
I25
tp465
aF40.010000000002037
tp466
ssba(imeasure_core
ProblemSetSolution
p467
(dp468
g3
(imeasure_core
RoomSet
p469
(dp470
g6
(dp471
(iproblems
RoomID
p472
(dp473
g10
I12
sg11
(I6
I3
tp474
sg13
I5
sg14
I10
sg15
I12
sg16
I1486246605650367638
sb(imulti_robot_problem
MultiRobotState
p475
(dp476
g19
g20
((lp477
(I5
I9
tp478
a(I1
I3
tp479
a(I7
I1
tp480
a(I2
I7
tp481
a(I1
I4
tp482
a(I6
I2
tp483
a(I1
I6
tp484
a(I2
I1
tp485
a(I0
I3
tp486
a(I6
I5
tp487
a(I1
I2
tp488
a(I1
I5
tp489
a(I4
I1
tp490
a(I3
I1
tp491
ag474
a(I2
I0
tp492
a(I10
I0
tp493
a(I5
I2
tp494
a(I1
I1
tp495
a(I8
I4
tp496
atp497
Rp498
sg15
I12
sg28
g20
((lp499
(I11
I7
tp500
a(I11
I4
tp501
a(I9
I1
tp502
a(I11
I8
tp503
a(I2
I8
tp504
a(I6
I0
tp505
a(I0
I6
tp506
a(I11
I1
tp507
a(I0
I4
tp508
a(I4
I9
tp509
a(I10
I9
tp510
a(I9
I7
tp511
atp512
Rp513
sg13
((I2
I4
tp514
(I10
I1
tp515
(I2
I5
tp516
(I9
I8
tp517
(I6
I6
tp518
tp519
sg14
I10
sbs(iproblems
RoomID
p520
(dp521
g10
I14
sg11
(I7
I6
tp522
sg13
I7
sg14
I13
sg15
I13
sg16
I679259829289197625
sb(imulti_robot_problem
MultiRobotState
p523
(dp524
g19
g20
((lp525
(I6
I4
tp526
a(I4
I8
tp527
a(I12
I7
tp528
a(I10
I6
tp529
a(I7
I5
tp530
a(I12
I11
tp531
a(I9
I6
tp532
a(I1
I2
tp533
a(I11
I7
tp534
a(I10
I7
tp535
ag522
a(I6
I3
tp536
a(I6
I2
tp537
a(I4
I3
tp538
a(I3
I4
tp539
a(I12
I8
tp540
atp541
Rp542
sg15
I13
sg28
g20
((lp543
(I2
I7
tp544
a(I12
I1
tp545
a(I9
I2
tp546
a(I2
I8
tp547
a(I5
I7
tp548
a(I10
I0
tp549
a(I1
I4
tp550
a(I0
I12
tp551
a(I7
I4
tp552
a(I10
I9
tp553
a(I4
I2
tp554
a(I11
I4
tp555
a(I11
I6
tp556
a(I1
I9
tp557
atp558
Rp559
sg13
((I9
I11
tp560
(I9
I10
tp561
(I4
I7
tp562
(I4
I12
tp563
(I7
I1
tp564
(I1
I8
tp565
(I1
I6
tp566
tp567
sg14
I13
sbs(iproblems
RoomID
p568
(dp569
g10
I11
sg11
(I2
I7
tp570
sg13
I6
sg14
I11
sg15
I13
sg16
I403795515464475257
sb(imulti_robot_problem
MultiRobotState
p571
(dp572
g19
g20
((lp573
g570
a(I10
I8
tp574
a(I1
I7
tp575
a(I3
I10
tp576
a(I4
I4
tp577
a(I1
I4
tp578
a(I12
I5
tp579
a(I0
I6
tp580
a(I0
I5
tp581
a(I3
I6
tp582
a(I2
I2
tp583
a(I0
I8
tp584
a(I7
I9
tp585
atp586
Rp587
sg15
I13
sg28
g20
((lp588
(I6
I4
tp589
a(I0
I0
tp590
a(I2
I9
tp591
a(I11
I5
tp592
a(I8
I9
tp593
a(I11
I1
tp594
a(I2
I3
tp595
a(I1
I10
tp596
a(I12
I2
tp597
a(I0
I3
tp598
a(I5
I2
tp599
atp600
Rp601
sg13
((I10
I3
tp602
(I7
I2
tp603
(I7
I0
tp604
(I3
I1
tp605
(I5
I10
tp606
(I9
I4
tp607
tp608
sg14
I11
sbs(iproblems
RoomID
p609
(dp610
g10
I10
sg11
(I6
I9
tp611
sg13
I5
sg14
I12
sg15
I12
sg16
I2685440357799139976
sb(imulti_robot_problem
MultiRobotState
p612
(dp613
g19
g20
((lp614
(I4
I10
tp615
ag611
a(I9
I1
tp616
a(I5
I11
tp617
a(I3
I0
tp618
a(I0
I7
tp619
a(I3
I9
tp620
a(I0
I5
tp621
a(I1
I4
tp622
a(I0
I3
tp623
a(I4
I0
tp624
a(I1
I2
tp625
a(I11
I10
tp626
a(I6
I10
tp627
a(I5
I6
tp628
a(I9
I11
tp629
a(I7
I9
tp630
a(I4
I5
tp631
a(I3
I5
tp632
a(I3
I4
tp633
a(I2
I4
tp634
a(I1
I9
tp635
atp636
Rp637
sg15
I12
sg28
g20
((lp638
(I11
I7
tp639
a(I8
I3
tp640
a(I10
I11
tp641
a(I7
I1
tp642
a(I10
I5
tp643
a(I8
I10
tp644
a(I6
I3
tp645
a(I3
I6
tp646
a(I9
I10
tp647
a(I6
I5
tp648
atp649
Rp650
sg13
((I7
I7
tp651
(I0
I0
tp652
(I11
I9
tp653
(I0
I2
tp654
(I4
I1
tp655
tp656
sg14
I12
sbs(iproblems
RoomID
p657
(dp658
g10
I11
sg11
(I11
I9
tp659
sg13
I7
sg14
I12
sg15
I12
sg16
I5891625650498269233
sb(imulti_robot_problem
MultiRobotState
p660
(dp661
g19
g20
((lp662
(I4
I4
tp663
a(I4
I8
tp664
a(I5
I6
tp665
a(I8
I11
tp666
ag659
a(I7
I7
tp667
a(I7
I1
tp668
a(I9
I10
tp669
a(I3
I9
tp670
a(I1
I9
tp671
a(I6
I7
tp672
a(I10
I7
tp673
a(I7
I6
tp674
a(I5
I7
tp675
a(I2
I11
tp676
a(I6
I11
tp677
a(I9
I11
tp678
a(I7
I10
tp679
a(I10
I9
tp680
atp681
Rp682
sg15
I12
sg28
g20
((lp683
(I11
I7
tp684
a(I11
I4
tp685
a(I4
I6
tp686
a(I5
I11
tp687
a(I8
I10
tp688
a(I0
I5
tp689
a(I8
I7
tp690
a(I1
I7
tp691
a(I10
I1
tp692
a(I1
I1
tp693
a(I5
I5
tp694
atp695
Rp696
sg13
((I6
I8
tp697
(I9
I2
tp698
(I0
I6
tp699
(I10
I3
tp700
(I9
I5
tp701
(I5
I0
tp702
(I9
I8
tp703
tp704
sg14
I12
sbssg149
S'heavy_roomset'
p705
sbsg149
g151
sg152
(dp706
g472
((lp707
(F32.529999999998836
I113
tp708
aF40.069999999999709
tp709
sg520
((lp710
F42.290000000000873
tp711
sg568
((lp712
(F22.459999999999127
I19
tp713
aF40.720000000001164
tp714
sg609
((lp715
(F3.2200000000011642
I58
tp716
aF40.010000000002037
tp717
sg657
((lp718
F42.119999999995343
tp719
ssba(imeasure_core
ProblemSetSolution
p720
(dp721
g3
g4
sg149
S"AnytimeBeam-w15-gf(1.3, 'exp')_with_PowerHeuristic2"
p722
sg152
(dp723
g8
((lp724
(F0.090000000003783498
I45
tp725
a(F2.2900000000008731
I44
tp726
a(F2.9000000000014552
I37
tp727
a(F3.5
I36
tp728
a(F4.1300000000046566
I34
tp729
a(F6.1900000000023283
I33
tp730
a(F8.4100000000034925
I31
tp731
a(F11.349999999998545
I30
tp732
a(F14.540000000000873
I28
tp733
a(F16.980000000003201
I26
tp734
a(F21.959999999999127
I25
tp735
a(F28.370000000002619
I24
tp736
aF40.0
tp737
sg41
((lp738
(F0.74000000000523869
I20
tp739
aF40.160000000003492
tp740
sg123
((lp741
(F0.059999999997671694
I41
tp742
a(F2.1699999999982538
I35
tp743
a(F3.3099999999976717
I33
tp744
a(F4.5799999999944703
I31
tp745
a(F5.8999999999941792
I29
tp746
a(F8.25
I27
tp747
a(F11.5
I25
tp748
a(F14.229999999995925
I23
tp749
aF40.0
tp750
sg70
((lp751
(F0.40000000000145519
I8
tp752
aF40.069999999999709
tp753
sg95
((lp754
(F6.1599999999962165
I134
tp755
aF40.010000000002037
tp756
ssba(imeasure_core
ProblemSetSolution
p757
(dp758
g3
g191
sg149
g722
sg152
(dp759
g194
((lp760
F40.089999999996508
tp761
sg246
((lp762
(F3.3499999999985448
I127
tp763
aF40.010000000002037
tp764
sg296
((lp765
(F2.2799999999988358
I64
tp766
aF40.209999999999127
tp767
sg352
((lp768
(F0.37000000000261934
I12
tp769
aF40.040000000000873
tp770
sg400
((lp771
(F0.099999999998544808
I25
tp772
aF40.009999999994761
tp773
ssba(imeasure_core
ProblemSetSolution
p774
(dp775
g3
g469
sg149
g722
sg152
(dp776
g472
((lp777
(F15.150000000001455
I113
tp778
aF40.060000000004948
tp779
sg520
((lp780
F41.989999999997963
tp781
sg568
((lp782
(F23.299999999995634
I19
tp783
aF40.44999999999709
tp784
sg609
((lp785
(F4.3100000000049477
I58
tp786
aF40.130000000004657
tp787
sg657
((lp788
F42.159999999996217
tp789
ssba(imeasure_core
ProblemSetSolution
p790
(dp791
g3
g4
sg149
S"AnytimeBeam-w25-gf(1.3, 'exp')_with_PowerHeuristic2"
p792
sg152
(dp793
g8
((lp794
(F0.11999999999534339
I45
tp795
a(F1.7999999999956344
I44
tp796
a(F2.4099999999962165
I39
tp797
a(F2.7299999999959255
I37
tp798
a(F3.3399999999965075
I36
tp799
a(F3.9599999999991269
I34
tp800
a(F6.0199999999967986
I33
tp801
a(F8.2399999999979627
I31
tp802
a(F11.159999999996217
I30
tp803
a(F14.319999999999709
I28
tp804
a(F16.729999999995925
I26
tp805
a(F21.709999999999127
I25
tp806
a(F28.110000000000582
I24
tp807
aF40.0
tp808
sg41
((lp809
(F0.81999999999970896
I20
tp810
aF40.119999999995343
tp811
sg123
((lp812
(F0.12000000000261934
I47
tp813
a(F3.3600000000005821
I45
tp814
a(F4.3899999999994179
I43
tp815
a(F5.3800000000046566
I35
tp816
a(F6.5100000000020373
I33
tp817
a(F7.7700000000040745
I31
tp818
a(F9.069999999999709
I29
tp819
a(F11.380000000004657
I27
tp820
a(F14.580000000001746
I25
tp821
a(F17.290000000000873
I23
tp822
aF40.0
tp823
sg70
((lp824
(F0.43000000000029104
I8
tp825
aF40.040000000000873
tp826
sg95
((lp827
(F7.2099999999991269
I134
tp828
aF40.069999999999709
tp829
ssba(imeasure_core
ProblemSetSolution
p830
(dp831
g3
g191
sg149
g792
sg152
(dp832
g194
((lp833
F40.040000000000873
tp834
sg246
((lp835
(F3.8100000000049477
I127
tp836
aF40.090000000003783
tp837
sg296
((lp838
(F2.5099999999947613
I64
tp839
aF40.040000000000873
tp840
sg352
((lp841
(F0.43000000000029104
I12
tp842
aF40.039999999993597
tp843
sg400
((lp844
(F0.11000000000058208
I25
tp845
aF40.010000000002037
tp846
ssba(imeasure_core
ProblemSetSolution
p847
(dp848
g3
g469
sg149
g792
sg152
(dp849
g472
((lp850
(F16.310000000004948
I113
tp851
aF40.110000000000582
tp852
sg520
((lp853
F42.099999999998545
tp854
sg568
((lp855
(F23.459999999999127
I19
tp856
aF40.660000000003492
tp857
sg609
((lp858
(F4.6500000000014552
I58
tp859
aF40.119999999995343
tp860
sg657
((lp861
F42.140000000006694
tp862
ssba(imeasure_core
ProblemSetSolution
p863
(dp864
g3
g4
sg149
S"AnytimeBeam-w35-gf(1.3, 'exp')_with_PowerHeuristic2"
p865
sg152
(dp866
g8
((lp867
(F0.17000000000552973
I45
tp868
a(F1.5999999999985448
I44
tp869
a(F2.2200000000011642
I37
tp870
a(F2.819999999999709
I36
tp871
a(F3.4400000000023283
I34
tp872
a(F5.5
I33
tp873
a(F7.7200000000011642
I31
tp874
a(F10.639999999999418
I30
tp875
a(F13.80000000000291
I28
tp876
a(F16.209999999999127
I26
tp877
a(F21.17000000000553
I25
tp878
a(F27.560000000004948
I24
tp879
aF40.0
tp880
sg41
((lp881
(F0.92000000000552973
I20
tp882
aF40.190000000002328
tp883
sg123
((lp884
(F0.12999999999738066
I47
tp885
a(F2.4799999999959255
I45
tp886
a(F3.5
I43
tp887
a(F4.4899999999979627
I35
tp888
a(F5.6200000000026193
I33
tp889
a(F6.8799999999973807
I31
tp890
a(F8.1900000000023283
I29
tp891
a(F10.5
I27
tp892
a(F13.720000000001164
I25
tp893
a(F16.44999999999709
I23
tp894
aF40.0
tp895
sg70
((lp896
(F0.48000000000320142
I8
tp897
aF40.349999999998545
tp898
sg95
((lp899
(F7.9000000000014552
I134
tp900
aF40.010000000002037
tp901
ssba(imeasure_core
ProblemSetSolution
p902
(dp903
g3
g191
sg149
g865
sg152
(dp904
g194
((lp905
F40.349999999998545
tp906
sg246
((lp907
(F4.180000000000291
I127
tp908
aF40.029999999998836
tp909
sg296
((lp910
(F2.7600000000020373
I64
tp911
aF40.200000000004366
tp912
sg352
((lp913
(F0.50999999999476131
I12
tp914
aF40.009999999994761
tp915
sg400
((lp916
(F0.13000000000465661
I25
tp917
aF40.0
tp918
ssba(imeasure_core
ProblemSetSolution
p919
(dp920
g3
g469
sg149
g865
sg152
(dp921
g472
((lp922
(F17.180000000000291
I113
tp923
aF40.100000000005821
tp924
sg520
((lp925
F42.109999999993306
tp926
sg568
((lp927
(F23.930000000000291
I19
tp928
aF41.17000000000553
tp929
sg609
((lp930
(F5.1399999999994179
I58
tp931
aF40.110000000000582
tp932
sg657
((lp933
F42.309999999997672
tp934
ssba(imeasure_core
ProblemSetSolution
p935
(dp936
g3
g4
sg149
S"AnytimeBeam-w45-gf(1.3, 'exp')_with_PowerHeuristic2"
p937
sg152
(dp938
g8
((lp939
(F0.1599999999962165
I45
tp940
a(F1.25
I44
tp941
a(F1.8600000000005821
I37
tp942
a(F2.4700000000011642
I36
tp943
a(F3.0899999999965075
I34
tp944
a(F5.1500000000014552
I33
tp945
a(F7.3600000000005821
I31
tp946
a(F10.290000000000873
I30
tp947
a(F13.44999999999709
I28
tp948
a(F15.860000000000582
I26
tp949
a(F20.839999999996508
I25
tp950
a(F27.260000000002037
I24
tp951
aF40.0
tp952
sg41
((lp953
(F1.0100000000020373
I20
tp954
aF40.220000000001164
tp955
sg123
((lp956
(F0.15000000000145519
I47
tp957
a(F2.1200000000026193
I45
tp958
a(F3.1400000000066939
I43
tp959
a(F4.1300000000046566
I35
tp960
a(F5.2600000000020373
I33
tp961
a(F6.5300000000061118
I31
tp962
a(F7.8300000000017462
I29
tp963
a(F10.150000000001455
I27
tp964
a(F13.360000000000582
I25
tp965
a(F16.080000000001746
I23
tp966
aF40.0
tp967
sg70
((lp968
(F0.51999999999679858
I8
tp969
aF40.290000000000873
tp970
sg95
((lp971
(F8.5299999999988358
I134
tp972
aF40.32999999999447
tp973
ssba(imeasure_core
ProblemSetSolution
p974
(dp975
g3
g191
sg149
g937
sg152
(dp976
g194
((lp977
F40.120000000002619
tp978
sg246
((lp979
(F4.5
I127
tp980
aF40.020000000004075
tp981
sg296
((lp982
(F2.9899999999979627
I64
tp983
aF40.19999999999709
tp984
sg352
((lp985
(F0.55999999999767169
I12
tp986
aF40.25
tp987
sg400
((lp988
(F0.12000000000261934
I25
tp989
aF40.0
tp990
ssba(imeasure_core
ProblemSetSolution
p991
(dp992
g3
g469
sg149
g937
sg152
(dp993
g472
((lp994
(F17.709999999999127
I113
tp995
aF40.029999999998836
tp996
sg520
((lp997
F42.169999999998254
tp998
sg568
((lp999
(F24.080000000001746
I19
tp1000
aF41.370000000002619
tp1001
sg609
((lp1002
(F5.430000000000291
I58
tp1003
aF40.049999999995634
tp1004
sg657
((lp1005
F42.319999999999709
tp1006
ssba(imeasure_core
ProblemSetSolution
p1007
(dp1008
g3
g4
sg149
S"AnytimeBeam-w5-gf(1.3, 'exp')_with_LinearHeuristic"
p1009
sg152
(dp1010
g8
((lp1011
(F0.0
I24
tp1012
aF40.0
tp1013
sg41
((lp1014
F40.059999999997672
tp1015
sg123
((lp1016
(F0.019999999996798579
I23
tp1017
aF40.0
tp1018
sg70
((lp1019
(F0.17000000000552973
I4
tp1020
aF40.190000000002328
tp1021
sg95
((lp1022
F40.190000000002328
tp1023
ssba(imeasure_core
ProblemSetSolution
p1024
(dp1025
g3
g191
sg149
g1009
sg152
(dp1026
g194
((lp1027
F40.049999999995634
tp1028
sg246
((lp1029
(F20.540000000000873
I326
tp1030
aF40.029999999998836
tp1031
sg296
((lp1032
F40.010000000002037
tp1033
sg352
((lp1034
F40.040000000000873
tp1035
sg400
((lp1036
(F1.319999999999709
I60
tp1037
aF40.010000000002037
tp1038
ssba(imeasure_core
ProblemSetSolution
p1039
(dp1040
g3
g469
sg149
g1009
sg152
(dp1041
g472
((lp1042
F40.059999999997672
tp1043
sg520
((lp1044
F43.169999999998254
tp1045
sg568
((lp1046
(F15.360000000000582
I10
tp1047
aF41.400000000001455
tp1048
sg609
((lp1049
F40.220000000001164
tp1050
sg657
((lp1051
F45.970000000001164
tp1052
ssba(imeasure_core
ProblemSetSolution
p1053
(dp1054
g3
g4
sg149
S"AnytimeBeam-w15-gf(1.3, 'exp')_with_LinearHeuristic"
p1055
sg152
(dp1056
g8
((lp1057
(F0.0099999999947613105
I24
tp1058
aF40.0
tp1059
sg41
((lp1060
F40.009999999994761
tp1061
sg123
((lp1062
(F0.020000000004074536
I23
tp1063
aF40.0
tp1064
sg70
((lp1065
(F0.33000000000174623
I4
tp1066
aF40.200000000004366
tp1067
sg95
((lp1068
F40.189999999995052
tp1069
ssba(imeasure_core
ProblemSetSolution
p1070
(dp1071
g3
g191
sg149
g1055
sg152
(dp1072
g194
((lp1073
F40.139999999999418
tp1074
sg246
((lp1075
(F19.890000000006694
I326
tp1076
aF40.100000000005821
tp1077
sg296
((lp1078
F40.189999999995052
tp1079
sg352
((lp1080
F40.080000000001746
tp1081
sg400
((lp1082
(F0.55999999999767169
I60
tp1083
aF40.040000000000873
tp1084
ssba(imeasure_core
ProblemSetSolution
p1085
(dp1086
g3
g469
sg149
g1055
sg152
(dp1087
g472
((lp1088
F40.180000000000291
tp1089
sg520
((lp1090
F43.979999999995925
tp1091
sg568
((lp1092
(F16.320000000006985
I10
tp1093
aF40.740000000005239
tp1094
sg609
((lp1095
F40.400000000001455
tp1096
sg657
((lp1097
F45.819999999999709
tp1098
ssba(imeasure_core
ProblemSetSolution
p1099
(dp1100
g3
g4
sg149
S"AnytimeBeam-w25-gf(1.3, 'exp')_with_LinearHeuristic"
p1101
sg152
(dp1102
g8
((lp1103
(F0.010000000002037268
I24
tp1104
aF40.0
tp1105
sg41
((lp1106
F40.060000000004948
tp1107
sg123
((lp1108
(F0.020000000004074536
I23
tp1109
aF40.0
tp1110
sg70
((lp1111
(F0.37999999999738066
I4
tp1112
aF40.180000000000291
tp1113
sg95
((lp1114
F40.039999999993597
tp1115
ssba(imeasure_core
ProblemSetSolution
p1116
(dp1117
g3
g191
sg149
g1101
sg152
(dp1118
g194
((lp1119
F40.0
tp1120
sg246
((lp1121
(F33.090000000003783
I391
tp1122
aF40.020000000004075
tp1123
sg296
((lp1124
F40.32999999999447
tp1125
sg352
((lp1126
F40.080000000001746
tp1127
sg400
((lp1128
(F7.1300000000046566
I177
tp1129
a(F31.630000000004657
I175
tp1130
aF40.069999999999709
tp1131
ssba(imeasure_core
ProblemSetSolution
p1132
(dp1133
g3
g469
sg149
g1101
sg152
(dp1134
g472
((lp1135
F40.480000000003201
tp1136
sg520
((lp1137
F44.209999999999127
tp1138
sg568
((lp1139
(F16.529999999998836
I10
tp1140
aF40.559999999997672
tp1141
sg609
((lp1142
F40.139999999999418
tp1143
sg657
((lp1144
F46.190000000002328
tp1145
ssba(imeasure_core
ProblemSetSolution
p1146
(dp1147
g3
g4
sg149
S"AnytimeBeam-w35-gf(1.3, 'exp')_with_LinearHeuristic"
p1148
sg152
(dp1149
g8
((lp1150
(F0.019999999996798579
I24
tp1151
aF40.0
tp1152
sg41
((lp1153
F40.190000000002328
tp1154
sg123
((lp1155
(F0.019999999996798579
I23
tp1156
aF40.0
tp1157
sg70
((lp1158
(F0.44999999999708962
I4
tp1159
aF40.0
tp1160
sg95
((lp1161
F40.040000000000873
tp1162
ssba(imeasure_core
ProblemSetSolution
p1163
(dp1164
g3
g191
sg149
g1148
sg152
(dp1165
g194
((lp1166
F40.019999999996799
tp1167
sg246
((lp1168
(F36.110000000000582
I391
tp1169
aF40.0
tp1170
sg296
((lp1171
F40.169999999998254
tp1172
sg352
((lp1173
F40.180000000000291
tp1174
sg400
((lp1175
(F9.430000000000291
I177
tp1176
a(F23.169999999998254
I175
tp1177
aF40.010000000002037
tp1178
ssba(imeasure_core
ProblemSetSolution
p1179
(dp1180
g3
g469
sg149
g1148
sg152
(dp1181
g472
((lp1182
F40.180000000000291
tp1183
sg520
((lp1184
F44.720000000001164
tp1185
sg568
((lp1186
(F17.009999999994761
I10
tp1187
aF41.32999999999447
tp1188
sg609
((lp1189
F40.110000000000582
tp1190
sg657
((lp1191
F46.25
tp1192
ssba(imeasure_core
ProblemSetSolution
p1193
(dp1194
g3
g4
sg149
S"AnytimeBeam-w45-gf(1.3, 'exp')_with_LinearHeuristic"
p1195
sg152
(dp1196
g8
((lp1197
(F0.010000000002037268
I24
tp1198
aF40.0
tp1199
sg41
((lp1200
F40.0
tp1201
sg123
((lp1202
(F0.020000000004074536
I23
tp1203
aF40.0
tp1204
sg70
((lp1205
(F0.45999999999912689
I4
tp1206
aF40.0
tp1207
sg95
((lp1208
F40.239999999997963
tp1209
ssba(imeasure_core
ProblemSetSolution
p1210
(dp1211
g3
g191
sg149
g1195
sg152
(dp1212
g194
((lp1213
F40.080000000001746
tp1214
sg246
((lp1215
(F37.620000000002619
I391
tp1216
aF40.0
tp1217
sg296
((lp1218
F40.290000000000873
tp1219
sg352
((lp1220
F40.089999999996508
tp1221
sg400
((lp1222
(F10.830000000001746
I177
tp1223
a(F25.770000000004075
I175
tp1224
aF40.05000000000291
tp1225
ssba(imeasure_core
ProblemSetSolution
p1226
(dp1227
g3
g469
sg149
g1195
sg152
(dp1228
g472
((lp1229
F40.270000000004075
tp1230
sg520
((lp1231
F44.869999999995343
tp1232
sg568
((lp1233
(F17.209999999999127
I10
tp1234
aF40.430000000000291
tp1235
sg609
((lp1236
F40.029999999998836
tp1237
sg657
((lp1238
F46.240000000005239
tp1239
ssba.