(lp0
(imeasure_core
ProblemSetSolution
p1
(dp2
S'roomset'
p3
(imeasure_core
RoomSet
p4
(dp5
S'rooms'
p6
(dp7
(iproblems
RoomID
p8
(dp9
S'dusts'
p10
I8
sS'obstacles'
p11
(I0
I4
tp12
sS'robots'
p13
I4
sS'height'
p14
I7
sS'width'
p15
I9
sS'seed'
p16
I1689441204489037471
sb(imulti_robot_problem
MultiRobotState
p17
(dp18
S'obstacle_locations'
p19
c__builtin__
frozenset
p20
((lp21
(I0
I1
tp22
a(I1
I2
tp23
a(I3
I2
tp24
a(I8
I1
tp25
a(I4
I3
tp26
ag12
a(I0
I3
tp27
a(I4
I0
tp28
atp29
Rp30
sg15
I9
sS'dirt_locations'
p31
g20
((lp32
(I0
I0
tp33
a(I7
I0
tp34
a(I7
I6
tp35
a(I1
I4
tp36
a(I6
I2
tp37
a(I2
I3
tp38
a(I5
I1
tp39
a(I3
I5
tp40
atp41
Rp42
sg13
((I6
I0
tp43
(I5
I4
tp44
(I6
I6
tp45
(I5
I0
tp46
tp47
sg14
I7
sbs(iproblems
RoomID
p48
(dp49
g10
I10
sg11
(I4
I5
tp50
sg13
I3
sg14
I8
sg15
I10
sg16
I6660334802794327005
sb(imulti_robot_problem
MultiRobotState
p51
(dp52
g19
g20
((lp53
(I9
I0
tp54
a(I2
I6
tp55
a(I1
I6
tp56
a(I3
I6
tp57
ag50
a(I8
I4
tp58
atp59
Rp60
sg15
I10
sg31
g20
((lp61
(I9
I1
tp62
a(I5
I6
tp63
a(I9
I6
tp64
a(I1
I5
tp65
a(I7
I5
tp66
a(I9
I4
tp67
a(I1
I7
tp68
a(I4
I1
tp69
a(I7
I2
tp70
a(I8
I2
tp71
atp72
Rp73
sg13
((I7
I3
tp74
(I4
I7
tp75
(I4
I2
tp76
tp77
sg14
I8
sbs(iproblems
RoomID
p78
(dp79
g10
I6
sg11
(I3
I0
tp80
sg13
I4
sg14
I10
sg15
I7
sg16
I3914746131789064238
sb(imulti_robot_problem
MultiRobotState
p81
(dp82
g19
g20
((lp83
g80
a(I6
I1
tp84
a(I2
I3
tp85
a(I5
I0
tp86
a(I2
I2
tp87
a(I0
I3
tp88
a(I0
I8
tp89
a(I4
I1
tp90
a(I3
I5
tp91
atp92
Rp93
sg15
I7
sg31
g20
((lp94
(I6
I5
tp95
a(I3
I3
tp96
a(I1
I7
tp97
a(I0
I4
tp98
a(I3
I4
tp99
a(I0
I7
tp100
atp101
Rp102
sg13
((I1
I8
tp103
(I5
I1
tp104
(I5
I3
tp105
(I1
I9
tp106
tp107
sg14
I10
sbs(iproblems
RoomID
p108
(dp109
g10
I6
sg11
(I8
I4
tp110
sg13
I4
sg14
I10
sg15
I9
sg16
I3119042104763040036
sb(imulti_robot_problem
MultiRobotState
p111
(dp112
g19
g20
((lp113
(I1
I2
tp114
a(I6
I7
tp115
a(I4
I8
tp116
a(I7
I6
tp117
a(I8
I5
tp118
ag110
atp119
Rp120
sg15
I9
sg31
g20
((lp121
(I6
I8
tp122
a(I8
I7
tp123
a(I6
I6
tp124
a(I3
I0
tp125
a(I7
I2
tp126
a(I6
I5
tp127
atp128
Rp129
sg13
((I5
I9
tp130
(I6
I1
tp131
(I3
I4
tp132
(I2
I7
tp133
tp134
sg14
I10
sbs(iproblems
RoomID
p135
(dp136
g10
I7
sg11
(I2
I5
tp137
sg13
I5
sg14
I9
sg15
I9
sg16
I4640892725076559864
sb(imulti_robot_problem
MultiRobotState
p138
(dp139
g19
g20
((lp140
(I2
I6
tp141
a(I6
I7
tp142
a(I0
I6
tp143
a(I3
I1
tp144
a(I1
I5
tp145
a(I1
I6
tp146
a(I0
I4
tp147
ag137
a(I3
I4
tp148
atp149
Rp150
sg15
I9
sg31
g20
((lp151
(I3
I8
tp152
a(I7
I3
tp153
a(I7
I1
tp154
a(I8
I1
tp155
a(I8
I6
tp156
a(I4
I2
tp157
a(I5
I3
tp158
atp159
Rp160
sg13
((I6
I5
tp161
(I8
I4
tp162
(I7
I6
tp163
(I6
I0
tp164
(I6
I3
tp165
tp166
sg14
I9
sbssS'name'
p167
S'easy_roomset'
p168
sbsg167
S"AnytimeBeam-w5-gf(1.3, 'exp')_with_PowerHeuristic2"
p169
sS'solutions'
p170
(dp171
g8
((lp172
(F0.25
I8
tp173
aF40.3700000000008
tp174
sg48
((lp175
(F0.17000000000007276
I23
tp176
aF40.039999999999054
tp177
sg108
((lp178
(F0.36000000000058208
I11
tp179
aF40.100000000000364
tp180
sg78
((lp181
(F0.15999999999985448
I7
tp182
aF40.110000000000582
tp183
sg135
((lp184
(F1.0299999999988358
I6
tp185
aF40.299999999999272
tp186
ssba(imeasure_core
ProblemSetSolution
p187
(dp188
g3
(imeasure_core
RoomSet
p189
(dp190
g6
(dp191
(iproblems
RoomID
p192
(dp193
g10
I6
sg11
(I5
I5
tp194
sg13
I4
sg14
I12
sg15
I11
sg16
I3119042104763040036
sb(imulti_robot_problem
MultiRobotState
p195
(dp196
g19
g20
((lp197
(I4
I6
tp198
a(I10
I4
tp199
a(I3
I0
tp200
a(I9
I8
tp201
a(I10
I6
tp202
a(I2
I1
tp203
a(I8
I9
tp204
a(I2
I3
tp205
a(I0
I10
tp206
a(I9
I5
tp207
a(I10
I3
tp208
a(I7
I9
tp209
ag194
a(I10
I7
tp210
a(I7
I8
tp211
a(I4
I4
tp212
a(I9
I2
tp213
a(I2
I4
tp214
a(I4
I5
tp215
a(I2
I2
tp216
a(I3
I3
tp217
a(I3
I4
tp218
a(I1
I1
tp219
atp220
Rp221
sg15
I11
sg31
g20
((lp222
(I8
I3
tp223
a(I8
I8
tp224
a(I5
I10
tp225
a(I9
I4
tp226
a(I8
I6
tp227
a(I10
I9
tp228
atp229
Rp230
sg13
((I6
I11
tp231
(I7
I2
tp232
(I2
I8
tp233
(I8
I10
tp234
tp235
sg14
I12
sbs(iproblems
RoomID
p236
(dp237
g10
I6
sg11
(I4
I8
tp238
sg13
I4
sg14
I12
sg15
I9
sg16
I3914746131789064238
sb(imulti_robot_problem
MultiRobotState
p239
(dp240
g19
g20
((lp241
(I4
I6
tp242
a(I6
I6
tp243
a(I4
I5
tp244
a(I5
I7
tp245
a(I0
I5
tp246
a(I0
I10
tp247
a(I8
I7
tp248
a(I7
I0
tp249
a(I0
I3
tp250
a(I8
I5
tp251
a(I4
I0
tp252
a(I2
I3
tp253
a(I6
I7
tp254
a(I3
I3
tp255
a(I8
I1
tp256
a(I7
I6
tp257
a(I3
I1
tp258
ag238
a(I5
I0
tp259
a(I2
I2
tp260
a(I0
I9
tp261
a(I8
I6
tp262
a(I5
I3
tp263
a(I6
I1
tp264
atp265
Rp266
sg15
I9
sg31
g20
((lp267
(I1
I8
tp268
a(I1
I9
tp269
a(I4
I3
tp270
a(I4
I4
tp271
a(I2
I11
tp272
a(I2
I10
tp273
atp274
Rp275
sg13
((I1
I10
tp276
(I6
I2
tp277
(I7
I3
tp278
(I1
I11
tp279
tp280
sg14
I12
sbs(iproblems
RoomID
p281
(dp282
g10
I5
sg11
(I5
I7
tp283
sg13
I4
sg14
I9
sg15
I12
sg16
I659184109953178577
sb(imulti_robot_problem
MultiRobotState
p284
(dp285
g19
g20
((lp286
(I7
I3
tp287
a(I4
I7
tp288
a(I8
I2
tp289
a(I6
I6
tp290
a(I4
I5
tp291
a(I7
I7
tp292
a(I11
I0
tp293
a(I7
I5
tp294
a(I9
I4
tp295
a(I2
I5
tp296
a(I0
I8
tp297
a(I10
I3
tp298
a(I7
I2
tp299
a(I4
I6
tp300
a(I6
I4
tp301
a(I4
I3
tp302
a(I3
I3
tp303
a(I6
I1
tp304
ag283
a(I6
I5
tp305
a(I3
I6
tp306
a(I8
I6
tp307
a(I3
I4
tp308
atp309
Rp310
sg15
I12
sg31
g20
((lp311
(I10
I8
tp312
a(I4
I1
tp313
a(I0
I2
tp314
a(I1
I6
tp315
a(I10
I4
tp316
atp317
Rp318
sg13
((I10
I0
tp319
(I7
I0
tp320
(I2
I6
tp321
(I8
I3
tp322
tp323
sg14
I9
sbs(iproblems
RoomID
p324
(dp325
g10
I9
sg11
(I9
I10
tp326
sg13
I3
sg14
I11
sg15
I10
sg16
I4253868527325451640
sb(imulti_robot_problem
MultiRobotState
p327
(dp328
g19
g20
((lp329
(I7
I3
tp330
a(I4
I7
tp331
a(I2
I6
tp332
a(I7
I10
tp333
a(I4
I8
tp334
a(I6
I9
tp335
ag326
a(I3
I9
tp336
a(I1
I6
tp337
a(I3
I7
tp338
a(I2
I5
tp339
a(I8
I5
tp340
a(I5
I8
tp341
a(I7
I9
tp342
a(I7
I1
tp343
a(I8
I10
tp344
a(I5
I0
tp345
a(I2
I3
tp346
a(I3
I5
tp347
a(I3
I4
tp348
a(I2
I4
tp349
atp350
Rp351
sg15
I10
sg31
g20
((lp352
(I8
I9
tp353
a(I5
I10
tp354
a(I6
I8
tp355
a(I7
I6
tp356
a(I3
I8
tp357
a(I0
I10
tp358
a(I9
I4
tp359
a(I0
I9
tp360
a(I5
I3
tp361
atp362
Rp363
sg13
((I3
I6
tp364
(I0
I8
tp365
(I2
I1
tp366
tp367
sg14
I11
sbs(iproblems
RoomID
p368
(dp369
g10
I9
sg11
(I9
I9
tp370
sg13
I3
sg14
I10
sg15
I10
sg16
I3273124617966689144
sb(imulti_robot_problem
MultiRobotState
p371
(dp372
g19
g20
((lp373
(I7
I3
tp374
a(I5
I4
tp375
a(I1
I3
tp376
a(I6
I4
tp377
a(I4
I5
tp378
a(I9
I8
tp379
a(I3
I2
tp380
a(I7
I5
tp381
a(I1
I6
tp382
a(I2
I5
tp383
a(I0
I8
tp384
a(I9
I6
tp385
a(I6
I5
tp386
a(I5
I3
tp387
a(I3
I3
tp388
a(I5
I5
tp389
a(I7
I6
tp390
ag370
a(I6
I3
tp391
a(I4
I3
tp392
a(I2
I3
tp393
a(I8
I6
tp394
a(I2
I4
tp395
a(I9
I7
tp396
atp397
Rp398
sg15
I10
sg31
g20
((lp399
(I7
I0
tp400
a(I3
I0
tp401
a(I6
I1
tp402
a(I3
I1
tp403
a(I5
I0
tp404
a(I2
I2
tp405
a(I3
I4
tp406
a(I1
I1
tp407
a(I8
I4
tp408
atp409
Rp410
sg13
((I0
I7
tp411
(I2
I1
tp412
(I6
I6
tp413
tp414
sg14
I10
sbssg167
S'mild_roomset'
p415
sbsg167
g169
sg170
(dp416
g192
((lp417
(F8.180000000000291
I164
tp418
aF40.030000000000655
tp419
sg236
((lp420
(F0.15999999999985448
I6
tp421
aF40.1299999999992
tp422
sg281
((lp423
(F0.76000000000021828
I24
tp424
a(F4.2900000000008731
I18
tp425
aF40.1200000000008
tp426
sg324
((lp427
(F0.22999999999956344
I32
tp428
aF40.029999999998836
tp429
sg368
((lp430
(F4.1599999999998545
I89
tp431
a(F6.0200000000004366
I67
tp432
a(F8.75
I52
tp433
aF40.020000000000437
tp434
ssba(imeasure_core
ProblemSetSolution
p435
(dp436
g3
(imeasure_core
RoomSet
p437
(dp438
g6
(dp439
(iproblems
RoomID
p440
(dp441
g10
I13
sg11
(I3
I4
tp442
sg13
I6
sg14
I10
sg15
I12
sg16
I1689441204489037471
sb(imulti_robot_problem
MultiRobotState
p443
(dp444
g19
g20
((lp445
(I7
I3
tp446
a(I1
I3
tp447
a(I8
I7
tp448
a(I10
I6
tp449
a(I7
I7
tp450
a(I6
I2
tp451
a(I1
I6
tp452
a(I9
I4
tp453
a(I4
I2
tp454
a(I5
I1
tp455
a(I10
I3
tp456
a(I2
I7
tp457
a(I9
I3
tp458
a(I9
I5
tp459
a(I0
I5
tp460
a(I11
I5
tp461
a(I8
I5
tp462
a(I5
I2
tp463
a(I0
I2
tp464
a(I3
I8
tp465
a(I4
I3
tp466
a(I0
I4
tp467
ag442
a(I8
I6
tp468
a(I4
I1
tp469
a(I1
I1
tp470
a(I8
I4
tp471
atp472
Rp473
sg15
I12
sg31
g20
((lp474
(I8
I9
tp475
a(I9
I0
tp476
a(I0
I0
tp477
a(I10
I4
tp478
a(I4
I8
tp479
a(I8
I1
tp480
a(I11
I2
tp481
a(I5
I4
tp482
a(I7
I4
tp483
a(I11
I8
tp484
a(I2
I6
tp485
a(I2
I3
tp486
a(I1
I5
tp487
atp488
Rp489
sg13
((I8
I0
tp490
(I7
I6
tp491
(I8
I8
tp492
(I7
I0
tp493
(I2
I4
tp494
(I9
I9
tp495
tp496
sg14
I10
sbs(iproblems
RoomID
p497
(dp498
g10
I15
sg11
(I10
I7
tp499
sg13
I6
sg14
I11
sg15
I13
sg16
I6660334802794327005
sb(imulti_robot_problem
MultiRobotState
p500
(dp501
g19
g20
((lp502
(I4
I7
tp503
a(I11
I7
tp504
a(I5
I6
tp505
a(I2
I8
tp506
a(I9
I9
tp507
a(I9
I10
tp508
a(I10
I8
tp509
a(I9
I0
tp510
ag499
a(I5
I7
tp511
a(I8
I10
tp512
a(I3
I8
tp513
a(I1
I5
tp514
a(I1
I8
tp515
a(I1
I10
tp516
a(I10
I0
tp517
a(I2
I4
tp518
atp519
Rp520
sg15
I13
sg31
g20
((lp521
(I2
I7
tp522
a(I12
I2
tp523
a(I6
I9
tp524
a(I6
I10
tp525
a(I12
I1
tp526
a(I2
I9
tp527
a(I12
I0
tp528
a(I12
I9
tp529
a(I11
I2
tp530
a(I10
I6
tp531
a(I1
I7
tp532
a(I12
I5
tp533
a(I6
I3
tp534
a(I10
I3
tp535
a(I12
I8
tp536
atp537
Rp538
sg13
((I9
I5
tp539
(I5
I10
tp540
(I5
I3
tp541
(I5
I1
tp542
(I9
I3
tp543
(I7
I8
tp544
tp545
sg14
I11
sbs(iproblems
RoomID
p546
(dp547
g10
I11
sg11
(I7
I6
tp548
sg13
I7
sg14
I13
sg15
I12
sg16
I3119042104763040036
sb(imulti_robot_problem
MultiRobotState
p549
(dp550
g19
g20
((lp551
(I5
I4
tp552
a(I4
I5
tp553
a(I9
I8
tp554
a(I10
I6
tp555
a(I9
I0
tp556
a(I6
I0
tp557
a(I8
I9
tp558
a(I2
I12
tp559
a(I9
I6
tp560
a(I10
I5
tp561
a(I5
I10
tp562
a(I10
I7
tp563
ag548
a(I9
I9
tp564
a(I8
I6
tp565
a(I11
I6
tp566
a(I9
I7
tp567
atp568
Rp569
sg15
I12
sg31
g20
((lp570
(I1
I2
tp571
a(I4
I4
tp572
a(I5
I11
tp573
a(I5
I6
tp574
a(I3
I4
tp575
a(I8
I0
tp576
a(I8
I10
tp577
a(I0
I11
tp578
a(I2
I3
tp579
a(I7
I8
tp580
a(I4
I0
tp581
atp582
Rp583
sg13
((I7
I12
tp584
(I8
I2
tp585
(I4
I6
tp586
(I3
I9
tp587
(I9
I11
tp588
(I11
I9
tp589
(I9
I3
tp590
tp591
sg14
I13
sbs(iproblems
RoomID
p592
(dp593
g10
I11
sg11
(I6
I1
tp594
sg13
I7
sg14
I13
sg15
I10
sg16
I3914746131789064238
sb(imulti_robot_problem
MultiRobotState
p595
(dp596
g19
g20
((lp597
(I0
I0
tp598
a(I7
I0
tp599
a(I9
I1
tp600
a(I2
I9
tp601
a(I7
I1
tp602
a(I9
I2
tp603
ag594
a(I6
I3
tp604
a(I8
I1
tp605
a(I7
I2
tp606
a(I5
I1
tp607
a(I7
I8
tp608
a(I6
I5
tp609
a(I5
I5
tp610
atp611
Rp612
sg15
I10
sg31
g20
((lp613
(I4
I7
tp614
a(I3
I3
tp615
a(I4
I5
tp616
a(I4
I4
tp617
a(I1
I4
tp618
a(I0
I11
tp619
a(I0
I5
tp620
a(I0
I10
tp621
a(I8
I7
tp622
a(I9
I5
tp623
a(I5
I3
tp624
atp625
Rp626
sg13
((I1
I11
tp627
(I8
I4
tp628
(I2
I12
tp629
(I1
I9
tp630
(I2
I11
tp631
(I5
I4
tp632
(I5
I0
tp633
tp634
sg14
I13
sbs(iproblems
RoomID
p635
(dp636
g10
I12
sg11
(I8
I7
tp637
sg13
I7
sg14
I12
sg15
I12
sg16
I4640892725076559864
sb(imulti_robot_problem
MultiRobotState
p638
(dp639
g19
g20
((lp640
(I5
I9
tp641
a(I6
I9
tp642
a(I4
I8
tp643
a(I5
I6
tp644
a(I2
I8
tp645
a(I6
I0
tp646
a(I2
I10
tp647
a(I0
I9
tp648
a(I6
I2
tp649
ag637
a(I3
I7
tp650
a(I5
I1
tp651
a(I1
I0
tp652
a(I8
I5
tp653
a(I7
I9
tp654
a(I7
I4
tp655
a(I7
I0
tp656
a(I6
I8
tp657
a(I2
I9
tp658
a(I0
I6
tp659
a(I7
I6
tp660
a(I5
I7
tp661
a(I8
I10
tp662
a(I0
I2
tp663
a(I6
I3
tp664
a(I2
I0
tp665
a(I1
I8
tp666
a(I4
I5
tp667
a(I5
I2
tp668
a(I1
I1
tp669
a(I9
I7
tp670
atp671
Rp672
sg15
I12
sg31
g20
((lp673
(I2
I7
tp674
a(I6
I4
tp675
a(I11
I10
tp676
a(I4
I6
tp677
a(I11
I8
tp678
a(I11
I2
tp679
a(I9
I3
tp680
a(I3
I2
tp681
a(I8
I8
tp682
a(I0
I5
tp683
a(I10
I3
tp684
a(I5
I3
tp685
atp686
Rp687
sg13
((I8
I6
tp688
(I11
I5
tp689
(I10
I8
tp690
(I9
I0
tp691
(I9
I4
tp692
(I9
I2
tp693
(I4
I11
tp694
tp695
sg14
I12
sbssg167
S'heavy_roomset'
p696
sbsg167
g169
sg170
(dp697
g440
((lp698
F40.0
tp699
sg497
((lp700
(F16.010000000000218
I11
tp701
aF41.630000000001019
tp702
sg546
((lp703
F45.829999999999927
tp704
sg592
((lp705
F40.639999999999418
tp706
sg635
((lp707
F40.200000000000728
tp708
ssba(imeasure_core
ProblemSetSolution
p709
(dp710
g3
g4
sg167
S"AnytimeBeam-w15-gf(1.3, 'exp')_with_PowerHeuristic2"
p711
sg170
(dp712
g8
((lp713
(F0.32999999999992724
I8
tp714
aF40.1299999999992
tp715
sg48
((lp716
(F0.22999999999956344
I23
tp717
aF40.010000000000218
tp718
sg108
((lp719
(F0.4500000000007276
I11
tp720
aF40.059999999999491
tp721
sg78
((lp722
(F0.19999999999890861
I7
tp723
aF40.059999999999491
tp724
sg135
((lp725
(F1.3700000000008004
I6
tp726
aF40.630000000001019
tp727
ssba(imeasure_core
ProblemSetSolution
p728
(dp729
g3
g189
sg167
g711
sg170
(dp730
g192
((lp731
(F6.2199999999993452
I164
tp732
aF40.059999999999491
tp733
sg236
((lp734
(F0.22000000000116415
I6
tp735
aF40.030000000000655
tp736
sg281
((lp737
(F1.1999999999989086
I18
tp738
aF40.079999999999927
tp739
sg324
((lp740
(F0.3500000000003638
I32
tp741
aF40.010000000000218
tp742
sg368
((lp743
(F4.0499999999992724
I148
tp744
a(F6.1700000000000728
I89
tp745
a(F8.8299999999999272
I52
tp746
aF40.019999999998618
tp747
ssba(imeasure_core
ProblemSetSolution
p748
(dp749
g3
g437
sg167
g711
sg170
(dp750
g440
((lp751
F40.180000000000291
tp752
sg497
((lp753
(F16.220000000001164
I11
tp754
aF42.340000000000146
tp755
sg546
((lp756
F46.0
tp757
sg592
((lp758
F41.309999999999491
tp759
sg635
((lp760
F40.190000000000509
tp761
ssba(imeasure_core
ProblemSetSolution
p762
(dp763
g3
g4
sg167
S"AnytimeBeam-w25-gf(1.3, 'exp')_with_PowerHeuristic2"
p764
sg170
(dp765
g8
((lp766
(F0.37000000000080036
I8
tp767
aF40.219999999999345
tp768
sg48
((lp769
(F0.27000000000043656
I23
tp770
aF40.080000000001746
tp771
sg108
((lp772
(F0.5
I11
tp773
aF40.179999999998472
tp774
sg78
((lp775
(F0.22999999999956344
I7
tp776
aF40.079999999999927
tp777
sg135
((lp778
(F1.4000000000014552
I6
tp779
aF40.190000000000509
tp780
ssba(imeasure_core
ProblemSetSolution
p781
(dp782
g3
g189
sg167
g764
sg170
(dp783
g192
((lp784
(F7.0599999999994907
I164
tp785
aF40.190000000000509
tp786
sg236
((lp787
(F0.23999999999978172
I6
tp788
aF40.010000000000218
tp789
sg281
((lp790
(F1.3299999999999272
I18
tp791
aF40.139999999999418
tp792
sg324
((lp793
(F0.40999999999985448
I32
tp794
aF40.040000000000873
tp795
sg368
((lp796
(F1.9200000000000728
I67
tp797
a(F4.8399999999983265
I52
tp798
aF40.170000000000073
tp799
ssba(imeasure_core
ProblemSetSolution
p800
(dp801
g3
g437
sg167
g764
sg170
(dp802
g440
((lp803
F40.019999999998618
tp804
sg497
((lp805
(F16.340000000000146
I11
tp806
aF42.840000000000146
tp807
sg546
((lp808
F45.720000000001164
tp809
sg592
((lp810
F41.639999999999418
tp811
sg635
((lp812
F40.430000000000291
tp813
ssba(imeasure_core
ProblemSetSolution
p814
(dp815
g3
g4
sg167
S"AnytimeBeam-w35-gf(1.3, 'exp')_with_PowerHeuristic2"
p816
sg170
(dp817
g8
((lp818
(F0.42999999999847205
I8
tp819
aF40.199999999998909
tp820
sg48
((lp821
(F0.31999999999970896
I23
tp822
aF40.050000000001091
tp823
sg108
((lp824
(F0.56999999999970896
I11
tp825
aF40.459999999999127
tp826
sg78
((lp827
(F0.25999999999839929
I7
tp828
aF40.090000000000146
tp829
sg135
((lp830
(F1.569999999999709
I6
tp831
aF40.170000000000073
tp832
ssba(imeasure_core
ProblemSetSolution
p833
(dp834
g3
g189
sg167
g816
sg170
(dp835
g192
((lp836
(F7.819999999999709
I164
tp837
aF40.039999999999054
tp838
sg236
((lp839
(F0.28000000000065484
I6
tp840
aF40.079999999999927
tp841
sg281
((lp842
(F1.5
I18
tp843
aF40.240000000001601
tp844
sg324
((lp845
(F0.47999999999956344
I32
tp846
aF40.049999999999272
tp847
sg368
((lp848
(F2.9699999999993452
I52
tp849
aF40.059999999999491
tp850
ssba(imeasure_core
ProblemSetSolution
p851
(dp852
g3
g437
sg167
g816
sg170
(dp853
g440
((lp854
F40.350000000000364
tp855
sg497
((lp856
(F16.440000000000509
I11
tp857
aF43.100000000000364
tp858
sg546
((lp859
F46.309999999999491
tp860
sg592
((lp861
F43.659999999999854
tp862
sg635
((lp863
F40.739999999999782
tp864
ssba(imeasure_core
ProblemSetSolution
p865
(dp866
g3
g4
sg167
S"AnytimeBeam-w45-gf(1.3, 'exp')_with_PowerHeuristic2"
p867
sg170
(dp868
g8
((lp869
(F0.48999999999978172
I8
tp870
aF40.260000000000218
tp871
sg48
((lp872
(F0.3500000000003638
I23
tp873
aF40.069999999999709
tp874
sg108
((lp875
(F0.61000000000058208
I11
tp876
aF40.200000000000728
tp877
sg78
((lp878
(F0.29000000000087311
I7
tp879
aF40.079999999999927
tp880
sg135
((lp881
(F1.6199999999989814
I6
tp882
aF40.340000000000146
tp883
ssba(imeasure_core
ProblemSetSolution
p884
(dp885
g3
g189
sg167
g867
sg170
(dp886
g192
((lp887
(F8.1899999999986903
I164
tp888
aF40.329999999999927
tp889
sg236
((lp890
(F0.30999999999949068
I6
tp891
aF40.090000000000146
tp892
sg281
((lp893
(F1.6199999999989814
I18
tp894
aF40.069999999999709
tp895
sg324
((lp896
(F0.52999999999883585
I32
tp897
aF40.039999999999054
tp898
sg368
((lp899
(F3.2000000000007276
I52
tp900
aF40.06000000000131
tp901
ssba(imeasure_core
ProblemSetSolution
p902
(dp903
g3
g437
sg167
g867
sg170
(dp904
g440
((lp905
F40.299999999999272
tp906
sg497
((lp907
(F16.659999999999854
I11
tp908
aF40.100000000000364
tp909
sg546
((lp910
F45.8799999999992
tp911
sg592
((lp912
F43.809999999999491
tp913
sg635
((lp914
F40.530000000000655
tp915
ssba(imeasure_core
ProblemSetSolution
p916
(dp917
g3
g4
sg167
S"AnytimeBeam-w5-gf(1.3, 'exp')_with_LinearHeuristic"
p918
sg170
(dp919
g8
((lp920
F40.069999999999709
tp921
sg48
((lp922
(F0.56999999999970896
I27
tp923
aF40.010000000000218
tp924
sg108
((lp925
F40.089999999998327
tp926
sg78
((lp927
F40.040000000000873
tp928
sg135
((lp929
(F1.180000000000291
I6
tp930
aF40.040000000000873
tp931
ssba(imeasure_core
ProblemSetSolution
p932
(dp933
g3
g189
sg167
g918
sg170
(dp934
g192
((lp935
F40.209999999999127
tp936
sg236
((lp937
(F0.28000000000065484
I12
tp938
a(F30.780000000000655
I11
tp939
aF40.1200000000008
tp940
sg281
((lp941
F40.200000000000728
tp942
sg324
((lp943
(F13.25
I92
tp944
aF40.069999999999709
tp945
sg368
((lp946
F40.049999999999272
tp947
ssba(imeasure_core
ProblemSetSolution
p948
(dp949
g3
g437
sg167
g918
sg170
(dp950
g440
((lp951
F40.149999999999636
tp952
sg497
((lp953
F42.030000000000655
tp954
sg546
((lp955
F42.590000000000146
tp956
sg592
((lp957
F40.729999999999563
tp958
sg635
((lp959
F41.069999999999709
tp960
ssba(imeasure_core
ProblemSetSolution
p961
(dp962
g3
g4
sg167
S"AnytimeBeam-w15-gf(1.3, 'exp')_with_LinearHeuristic"
p963
sg170
(dp964
g8
((lp965
F40.180000000000291
tp966
sg48
((lp967
(F1.9099999999998545
I49
tp968
aF40.040000000000873
tp969
sg108
((lp970
(F16.409999999999854
I165
tp971
aF40.079999999999927
tp972
sg78
((lp973
F40.049999999999272
tp974
sg135
((lp975
(F1.5499999999992724
I6
tp976
aF40.489999999999782
tp977
ssba(imeasure_core
ProblemSetSolution
p978
(dp979
g3
g189
sg167
g963
sg170
(dp980
g192
((lp981
F40.0
tp982
sg236
((lp983
(F0.34000000000014552
I12
tp984
a(F30.600000000000364
I11
tp985
aF40.139999999999418
tp986
sg281
((lp987
F40.050000000001091
tp988
sg324
((lp989
(F4.7299999999995634
I92
tp990
aF40.020000000000437
tp991
sg368
((lp992
F40.049999999999272
tp993
ssba(imeasure_core
ProblemSetSolution
p994
(dp995
g3
g437
sg167
g963
sg170
(dp996
g440
((lp997
F40.059999999999491
tp998
sg497
((lp999
F41.360000000000582
tp1000
sg546
((lp1001
F42.899999999999636
tp1002
sg592
((lp1003
F41.779999999998836
tp1004
sg635
((lp1005
F40.190000000002328
tp1006
ssba(imeasure_core
ProblemSetSolution
p1007
(dp1008
g3
g4
sg167
S"AnytimeBeam-w25-gf(1.3, 'exp')_with_LinearHeuristic"
p1009
sg170
(dp1010
g8
((lp1011
(F34.139999999999418
I223
tp1012
aF40.090000000000146
tp1013
sg48
((lp1014
(F3.0
I49
tp1015
aF40.06000000000131
tp1016
sg108
((lp1017
(F18.43999999999869
I165
tp1018
aF40.379999999997381
tp1019
sg78
((lp1020
F40.180000000000291
tp1021
sg135
((lp1022
(F1.7200000000011642
I6
tp1023
aF40.080000000001746
tp1024
ssba(imeasure_core
ProblemSetSolution
p1025
(dp1026
g3
g189
sg167
g1009
sg170
(dp1027
g192
((lp1028
F40.209999999999127
tp1029
sg236
((lp1030
(F0.38000000000101863
I12
tp1031
a(F29.069999999999709
I11
tp1032
aF40.040000000000873
tp1033
sg281
((lp1034
F40.020000000000437
tp1035
sg324
((lp1036
(F7.8899999999994179
I92
tp1037
aF40.049999999999272
tp1038
sg368
((lp1039
F40.009999999998399
tp1040
ssba(imeasure_core
ProblemSetSolution
p1041
(dp1042
g3
g437
sg167
g1009
sg170
(dp1043
g440
((lp1044
F40.090000000000146
tp1045
sg497
((lp1046
F40.020000000000437
tp1047
sg546
((lp1048
F43.399999999997817
tp1049
sg592
((lp1050
F42.090000000000146
tp1051
sg635
((lp1052
F40.31000000000131
tp1053
ssba(imeasure_core
ProblemSetSolution
p1054
(dp1055
g3
g4
sg167
S"AnytimeBeam-w35-gf(1.3, 'exp')_with_LinearHeuristic"
p1056
sg170
(dp1057
g8
((lp1058
(F37.970000000001164
I223
tp1059
aF40.069999999999709
tp1060
sg48
((lp1061
(F6.0499999999992724
I49
tp1062
aF40.009999999998399
tp1063
sg108
((lp1064
(F20.600000000002183
I165
tp1065
aF40.020000000000437
tp1066
sg78
((lp1067
F40.110000000000582
tp1068
sg135
((lp1069
(F2.0
I6
tp1070
aF40.389999999999418
tp1071
ssba(imeasure_core
ProblemSetSolution
p1072
(dp1073
g3
g189
sg167
g1056
sg170
(dp1074
g192
((lp1075
F40.159999999999854
tp1076
sg236
((lp1077
(F0.40999999999985448
I12
tp1078
a(F28.580000000001746
I11
tp1079
aF40.020000000000437
tp1080
sg281
((lp1081
F40.350000000002183
tp1082
sg324
((lp1083
(F10.829999999998108
I92
tp1084
aF40.0
tp1085
sg368
((lp1086
F40.009999999998399
tp1087
ssba(imeasure_core
ProblemSetSolution
p1088
(dp1089
g3
g437
sg167
g1056
sg170
(dp1090
g440
((lp1091
F40.049999999999272
tp1092
sg497
((lp1093
F40.379999999997381
tp1094
sg546
((lp1095
F43.480000000003201
tp1096
sg592
((lp1097
F42.979999999999563
tp1098
sg635
((lp1099
F40.039999999997235
tp1100
ssba(imeasure_core
ProblemSetSolution
p1101
(dp1102
g3
g4
sg167
S"AnytimeBeam-w45-gf(1.3, 'exp')_with_LinearHeuristic"
p1103
sg170
(dp1104
g8
((lp1105
(F39.75
I223
tp1106
aF40.040000000000873
tp1107
sg48
((lp1108
(F7.9500000000007276
I49
tp1109
aF40.0
tp1110
sg108
((lp1111
(F21.729999999999563
I165
tp1112
aF40.039999999997235
tp1113
sg78
((lp1114
F40.010000000002037
tp1115
sg135
((lp1116
(F2.1100000000005821
I6
tp1117
aF40.350000000002183
tp1118
ssba(imeasure_core
ProblemSetSolution
p1119
(dp1120
g3
g189
sg167
g1103
sg170
(dp1121
g192
((lp1122
F40.020000000000437
tp1123
sg236
((lp1124
(F0.43999999999869033
I12
tp1125
a(F27.830000000001746
I11
tp1126
aF40.0
tp1127
sg281
((lp1128
F40.610000000000582
tp1129
sg324
((lp1130
(F16.380000000001019
I92
tp1131
aF40.06000000000131
tp1132
sg368
((lp1133
F40.059999999997672
tp1134
ssba(imeasure_core
ProblemSetSolution
p1135
(dp1136
g3
g437
sg167
g1103
sg170
(dp1137
g440
((lp1138
F40.270000000000437
tp1139
sg497
((lp1140
F40.599999999998545
tp1141
sg546
((lp1142
F43.529999999998836
tp1143
sg592
((lp1144
F43.360000000000582
tp1145
sg635
((lp1146
F40.170000000001892
tp1147
ssba.