(lp0
(imeasure_core
ProblemSetSolution
p1
(dp2
S'roomset'
p3
(imeasure_core
RoomSet
p4
(dp5
S'rooms'
p6
(dp7
(iproblems
RoomID
p8
(dp9
S'dusts'
p10
I6
sS'obstacles'
p11
(I0
I6
tp12
sS'robots'
p13
I2
sS'height'
p14
I9
sS'width'
p15
I8
sS'seed'
p16
I6540132533353807135
sb(imulti_robot_problem
MultiRobotState
p17
(dp18
S'obstacle_locations'
p19
c__builtin__
frozenset
p20
((lp21
(I1
I5
tp22
a(I2
I5
tp23
a(I1
I3
tp24
a(I0
I4
tp25
ag12
atp26
Rp27
sg15
I8
sS'dirt_locations'
p28
g20
((lp29
(I6
I3
tp30
a(I4
I2
tp31
a(I2
I8
tp32
a(I1
I0
tp33
a(I0
I8
tp34
a(I6
I0
tp35
atp36
Rp37
sg13
((I3
I5
tp38
(I2
I2
tp39
tp40
sg14
I9
sbs(iproblems
RoomID
p41
(dp42
g10
I10
sg11
(I5
I5
tp43
sg13
I3
sg14
I7
sg15
I9
sg16
I7610144520596341970
sb(imulti_robot_problem
MultiRobotState
p44
(dp45
g19
g20
((lp46
(I7
I3
tp47
a(I8
I3
tp48
ag43
a(I6
I4
tp49
a(I7
I6
tp50
a(I4
I4
tp51
a(I7
I4
tp52
a(I2
I3
tp53
a(I8
I2
tp54
atp55
Rp56
sg15
I9
sg28
g20
((lp57
(I5
I4
tp58
a(I3
I3
tp59
a(I5
I6
tp60
a(I2
I1
tp61
a(I3
I0
tp62
a(I7
I5
tp63
a(I5
I1
tp64
a(I2
I4
tp65
a(I6
I5
tp66
a(I4
I6
tp67
atp68
Rp69
sg13
((I5
I0
tp70
(I3
I6
tp71
(I8
I0
tp72
tp73
sg14
I7
sbs(iproblems
RoomID
p74
(dp75
g10
I10
sg11
(I2
I0
tp76
sg13
I5
sg14
I7
sg15
I8
sg16
I859610841317122178
sb(imulti_robot_problem
MultiRobotState
p77
(dp78
g19
g20
((lp79
(I1
I3
tp80
a(I3
I3
tp81
a(I3
I0
tp82
a(I3
I1
tp83
a(I1
I4
tp84
ag76
a(I5
I0
tp85
a(I4
I2
tp86
a(I5
I3
tp87
atp88
Rp89
sg15
I8
sg28
g20
((lp90
(I5
I6
tp91
a(I2
I2
tp92
a(I7
I4
tp93
a(I0
I6
tp94
a(I7
I5
tp95
a(I0
I5
tp96
a(I0
I4
tp97
a(I5
I2
tp98
a(I1
I1
tp99
a(I3
I5
tp100
atp101
Rp102
sg13
((I6
I6
tp103
(I7
I1
tp104
(I6
I4
tp105
(I3
I6
tp106
(I6
I5
tp107
tp108
sg14
I7
sbs(iproblems
RoomID
p109
(dp110
g10
I9
sg11
(I3
I3
tp111
sg13
I2
sg14
I7
sg15
I7
sg16
I2758748034823062123
sb(imulti_robot_problem
MultiRobotState
p112
(dp113
g19
g20
((lp114
(I5
I4
tp115
ag111
a(I2
I0
tp116
a(I6
I2
tp117
a(I2
I3
tp118
a(I0
I4
tp119
a(I4
I2
tp120
a(I5
I2
tp121
atp122
Rp123
sg15
I7
sg28
g20
((lp124
(I1
I2
tp125
a(I3
I2
tp126
a(I1
I3
tp127
a(I4
I6
tp128
a(I6
I6
tp129
a(I6
I3
tp130
a(I5
I0
tp131
a(I2
I4
tp132
a(I5
I5
tp133
atp134
Rp135
sg13
((I0
I1
tp136
(I1
I5
tp137
tp138
sg14
I7
sbs(iproblems
RoomID
p139
(dp140
g10
I5
sg11
(I5
I6
tp141
sg13
I3
sg14
I10
sg15
I8
sg16
I8286596687707316874
sb(imulti_robot_problem
MultiRobotState
p142
(dp143
g19
g20
((lp144
g141
a(I4
I7
tp145
a(I5
I7
tp146
a(I5
I8
tp147
a(I2
I1
tp148
atp149
Rp150
sg15
I8
sg28
g20
((lp151
(I1
I2
tp152
a(I1
I8
tp153
a(I0
I5
tp154
a(I7
I2
tp155
a(I0
I7
tp156
atp157
Rp158
sg13
((I2
I8
tp159
(I3
I0
tp160
(I1
I4
tp161
tp162
sg14
I10
sbssS'name'
p163
S'easy_roomset'
p164
sbsg163
S'LimitedTimeAStar_with_PowerHeuristic2'
p165
sS'solutions'
p166
(dp167
g8
((lp168
(F0.059999999999999998
I16
tp169
aF0.059999999999999998
tp170
sg41
((lp171
(F0.34999999999999998
I16
tp172
aF0.34999999999999998
tp173
sg74
((lp174
(F1.5399999999999998
I10
tp175
aF1.5599999999999998
tp176
sg139
((lp177
F300.31000000000006
tp178
sg109
((lp179
F300.10000000000002
tp180
ssba(imeasure_core
ProblemSetSolution
p181
(dp182
g3
(imeasure_core
RoomSet
p183
(dp184
g6
(dp185
(iproblems
RoomID
p186
(dp187
g10
I10
sg11
(I7
I0
tp188
sg13
I3
sg14
I9
sg15
I11
sg16
I7610144520596341970
sb(imulti_robot_problem
MultiRobotState
p189
(dp190
g19
g20
((lp191
(I6
I4
tp192
a(I5
I4
tp193
a(I4
I6
tp194
a(I10
I4
tp195
a(I7
I1
tp196
a(I4
I5
tp197
a(I9
I3
tp198
a(I8
I3
tp199
a(I0
I7
tp200
a(I7
I5
tp201
a(I0
I8
tp202
a(I8
I5
tp203
a(I7
I2
tp204
a(I3
I5
tp205
a(I7
I4
tp206
a(I9
I0
tp207
ag188
a(I5
I5
tp208
a(I7
I6
tp209
a(I3
I1
tp210
a(I2
I4
tp211
a(I3
I8
tp212
a(I3
I6
tp213
a(I5
I7
tp214
a(I10
I2
tp215
a(I6
I1
tp216
a(I8
I4
tp217
atp218
Rp219
sg15
I11
sg28
g20
((lp220
(I3
I2
tp221
a(I8
I7
tp222
a(I9
I6
tp223
a(I6
I2
tp224
a(I6
I5
tp225
a(I9
I4
tp226
a(I4
I0
tp227
a(I3
I4
tp228
a(I5
I8
tp229
a(I9
I7
tp230
atp231
Rp232
sg13
((I4
I8
tp233
(I10
I1
tp234
(I6
I8
tp235
tp236
sg14
I9
sbs(iproblems
RoomID
p237
(dp238
g10
I5
sg11
(I5
I5
tp239
sg13
I3
sg14
I12
sg15
I10
sg16
I8286596687707316874
sb(imulti_robot_problem
MultiRobotState
p240
(dp241
g19
g20
((lp242
(I6
I9
tp243
a(I3
I2
tp244
a(I6
I6
tp245
a(I5
I6
tp246
a(I7
I7
tp247
a(I2
I1
tp248
a(I5
I1
tp249
a(I5
I8
tp250
ag239
a(I6
I7
tp251
a(I6
I8
tp252
a(I3
I10
tp253
a(I4
I4
tp254
a(I2
I11
tp255
a(I2
I0
tp256
a(I8
I8
tp257
a(I2
I2
tp258
a(I0
I9
tp259
a(I3
I3
tp260
a(I1
I1
tp261
atp262
Rp263
sg15
I10
sg28
g20
((lp264
(I1
I2
tp265
a(I0
I6
tp266
a(I1
I10
tp267
a(I9
I2
tp268
a(I7
I10
tp269
atp270
Rp271
sg13
((I2
I10
tp272
(I4
I1
tp273
(I2
I5
tp274
tp275
sg14
I12
sbs(iproblems
RoomID
p276
(dp277
g10
I8
sg11
(I2
I3
tp278
sg13
I4
sg14
I11
sg15
I9
sg16
I3092027404111638304
sb(imulti_robot_problem
MultiRobotState
p279
(dp280
g19
g20
((lp281
(I5
I9
tp282
a(I6
I9
tp283
a(I4
I8
tp284
a(I3
I0
tp285
a(I4
I7
tp286
a(I2
I1
tp287
a(I7
I5
tp288
ag278
a(I1
I4
tp289
a(I4
I2
tp290
a(I5
I1
tp291
a(I7
I2
tp292
a(I4
I0
tp293
a(I1
I2
tp294
a(I3
I8
tp295
a(I4
I9
tp296
a(I4
I6
tp297
a(I3
I4
tp298
a(I6
I1
tp299
a(I6
I6
tp300
a(I8
I10
tp301
a(I6
I3
tp302
a(I8
I8
tp303
a(I2
I2
tp304
a(I3
I5
tp305
a(I4
I1
tp306
atp307
Rp308
sg15
I9
sg28
g20
((lp309
(I5
I4
tp310
a(I8
I2
tp311
a(I8
I1
tp312
a(I7
I4
tp313
a(I1
I8
tp314
a(I8
I7
tp315
a(I1
I1
tp316
a(I5
I8
tp317
atp318
Rp319
sg13
((I0
I7
tp320
(I8
I5
tp321
(I8
I3
tp322
(I2
I7
tp323
tp324
sg14
I11
sbs(iproblems
RoomID
p325
(dp326
g10
I5
sg11
(I4
I5
tp327
sg13
I4
sg14
I11
sg15
I11
sg16
I3271114635151485982
sb(imulti_robot_problem
MultiRobotState
p328
(dp329
g19
g20
((lp330
(I6
I4
tp331
a(I1
I3
tp332
a(I4
I8
tp333
a(I5
I6
tp334
a(I2
I8
tp335
a(I8
I0
tp336
a(I2
I6
tp337
a(I6
I8
tp338
a(I5
I1
tp339
a(I7
I2
tp340
a(I3
I5
tp341
a(I2
I7
tp342
a(I3
I8
tp343
a(I9
I0
tp344
a(I0
I2
tp345
a(I5
I5
tp346
a(I6
I1
tp347
a(I7
I1
tp348
a(I2
I4
tp349
a(I6
I3
tp350
ag327
a(I1
I8
tp351
a(I3
I9
tp352
a(I5
I8
tp353
a(I3
I6
tp354
a(I1
I7
tp355
a(I0
I9
tp356
a(I0
I1
tp357
a(I1
I1
tp358
atp359
Rp360
sg15
I11
sg28
g20
((lp361
(I8
I1
tp362
a(I9
I5
tp363
a(I1
I0
tp364
a(I0
I0
tp365
a(I5
I10
tp366
atp367
Rp368
sg13
((I5
I7
tp369
(I7
I0
tp370
(I1
I9
tp371
(I3
I0
tp372
tp373
sg14
I11
sbs(iproblems
RoomID
p374
(dp375
g10
I5
sg11
(I5
I9
tp376
sg13
I4
sg14
I12
sg15
I11
sg16
I3297309478387346070
sb(imulti_robot_problem
MultiRobotState
p377
(dp378
g19
g20
((lp379
g376
a(I6
I9
tp380
a(I6
I10
tp381
a(I4
I10
tp382
a(I6
I6
tp383
a(I5
I6
tp384
a(I4
I7
tp385
a(I8
I9
tp386
a(I3
I9
tp387
a(I6
I8
tp388
a(I7
I11
tp389
a(I10
I3
tp390
a(I7
I2
tp391
a(I7
I9
tp392
a(I6
I7
tp393
a(I5
I5
tp394
a(I2
I9
tp395
a(I3
I1
tp396
a(I3
I8
tp397
a(I5
I8
tp398
a(I5
I7
tp399
a(I9
I5
tp400
a(I3
I4
tp401
atp402
Rp403
sg15
I11
sg28
g20
((lp404
(I4
I2
tp405
a(I8
I3
tp406
a(I8
I0
tp407
a(I7
I8
tp408
a(I1
I9
tp409
atp410
Rp411
sg13
((I6
I11
tp412
(I9
I0
tp413
(I4
I6
tp414
(I5
I1
tp415
tp416
sg14
I12
sbssg163
S'mild_roomset'
p417
sbsg163
g165
sg166
(dp418
g186
((lp419
F300.59999999999991
tp420
sg237
((lp421
F300.48000000000002
tp422
sg374
((lp423
(F0.33999999999991815
I10
tp424
aF0.33999999999991815
tp425
sg325
((lp426
F300.47000000000003
tp427
sg276
((lp428
F300.97000000000003
tp429
ssba(imeasure_core
ProblemSetSolution
p430
(dp431
g3
(imeasure_core
RoomSet
p432
(dp433
g6
(dp434
(iproblems
RoomID
p435
(dp436
g10
I11
sg11
(I1
I8
tp437
sg13
I5
sg14
I12
sg15
I11
sg16
I6540132533353807135
sb(imulti_robot_problem
MultiRobotState
p438
(dp439
g19
g20
((lp440
(I9
I3
tp441
a(I10
I4
tp442
a(I1
I5
tp443
a(I6
I1
tp444
a(I5
I7
tp445
a(I0
I6
tp446
ag437
a(I1
I7
tp447
a(I10
I0
tp448
a(I1
I0
tp449
a(I0
I8
tp450
a(I2
I4
tp451
atp452
Rp453
sg15
I11
sg28
g20
((lp454
(I2
I7
tp455
a(I6
I4
tp456
a(I6
I7
tp457
a(I4
I8
tp458
a(I8
I1
tp459
a(I9
I9
tp460
a(I9
I11
tp461
a(I0
I10
tp462
a(I5
I0
tp463
a(I8
I4
tp464
a(I10
I2
tp465
atp466
Rp467
sg13
((I4
I7
tp468
(I3
I3
tp469
(I2
I0
tp470
(I6
I2
tp471
(I4
I11
tp472
tp473
sg14
I12
sbs(iproblems
RoomID
p474
(dp475
g10
I15
sg11
(I6
I5
tp476
sg13
I6
sg14
I10
sg15
I12
sg16
I7610144520596341970
sb(imulti_robot_problem
MultiRobotState
p477
(dp478
g19
g20
((lp479
(I4
I7
tp480
a(I10
I4
tp481
a(I7
I1
tp482
a(I11
I2
tp483
a(I5
I4
tp484
a(I7
I5
tp485
a(I0
I5
tp486
a(I8
I6
tp487
a(I3
I7
tp488
a(I0
I8
tp489
ag476
a(I9
I5
tp490
a(I3
I1
tp491
a(I11
I3
tp492
a(I3
I9
tp493
a(I10
I0
tp494
atp495
Rp496
sg15
I12
sg28
g20
((lp497
(I10
I8
tp498
a(I10
I5
tp499
a(I5
I0
tp500
a(I11
I4
tp501
a(I3
I6
tp502
a(I10
I7
tp503
a(I7
I6
tp504
a(I5
I6
tp505
a(I6
I2
tp506
a(I9
I4
tp507
a(I0
I9
tp508
a(I3
I5
tp509
a(I9
I6
tp510
a(I9
I8
tp511
a(I6
I8
tp512
atp513
Rp514
sg13
((I6
I1
tp515
(I5
I9
tp516
(I11
I1
tp517
(I6
I9
tp518
(I3
I2
tp519
(I4
I4
tp520
tp521
sg14
I10
sbs(iproblems
RoomID
p522
(dp523
g10
I10
sg11
(I3
I10
tp524
sg13
I6
sg14
I13
sg15
I11
sg16
I8286596687707316874
sb(imulti_robot_problem
MultiRobotState
p525
(dp526
g19
g20
((lp527
(I5
I9
tp528
a(I6
I9
tp529
a(I6
I10
tp530
a(I3
I12
tp531
a(I6
I8
tp532
a(I7
I3
tp533
a(I2
I8
tp534
ag524
a(I5
I7
tp535
a(I2
I11
tp536
a(I3
I11
tp537
a(I1
I5
tp538
a(I3
I2
tp539
a(I9
I8
tp540
atp541
Rp542
sg15
I11
sg28
g20
((lp543
(I6
I7
tp544
a(I9
I1
tp545
a(I6
I1
tp546
a(I0
I12
tp547
a(I6
I5
tp548
a(I2
I12
tp549
a(I2
I2
tp550
a(I1
I11
tp551
a(I5
I8
tp552
a(I0
I10
tp553
atp554
Rp555
sg13
((I5
I1
tp556
(I2
I6
tp557
(I0
I6
tp558
(I8
I11
tp559
(I1
I2
tp560
(I10
I3
tp561
tp562
sg14
I13
sbs(iproblems
RoomID
p563
(dp564
g10
I15
sg11
(I2
I2
tp565
sg13
I7
sg14
I10
sg15
I11
sg16
I859610841317122178
sb(imulti_robot_problem
MultiRobotState
p566
(dp567
g19
g20
((lp568
(I6
I4
tp569
a(I3
I2
tp570
a(I7
I1
tp571
a(I5
I6
tp572
a(I10
I6
tp573
a(I1
I4
tp574
a(I4
I2
tp575
a(I0
I8
tp576
a(I3
I5
tp577
a(I7
I4
tp578
a(I10
I5
tp579
a(I7
I0
tp580
a(I4
I1
tp581
a(I6
I3
tp582
ag565
a(I4
I0
tp583
a(I5
I2
tp584
atp585
Rp586
sg15
I11
sg28
g20
((lp587
(I7
I3
tp588
a(I4
I7
tp589
a(I2
I6
tp590
a(I3
I3
tp591
a(I10
I7
tp592
a(I4
I4
tp593
a(I0
I7
tp594
a(I8
I9
tp595
a(I1
I5
tp596
a(I2
I1
tp597
a(I7
I9
tp598
a(I9
I5
tp599
a(I9
I7
tp600
a(I9
I6
tp601
a(I1
I9
tp602
atp603
Rp604
sg13
((I5
I1
tp605
(I9
I8
tp606
(I10
I2
tp607
(I8
I7
tp608
(I5
I9
tp609
(I8
I8
tp610
(I0
I6
tp611
tp612
sg14
I10
sbs(iproblems
RoomID
p613
(dp614
g10
I14
sg11
(I3
I6
tp615
sg13
I5
sg14
I10
sg15
I10
sg16
I2758748034823062123
sb(imulti_robot_problem
MultiRobotState
p616
(dp617
g19
g20
((lp618
(I7
I3
tp619
a(I5
I4
tp620
a(I4
I6
tp621
a(I9
I1
tp622
a(I6
I6
tp623
a(I6
I0
tp624
a(I0
I7
tp625
a(I7
I5
tp626
a(I1
I9
tp627
a(I9
I4
tp628
a(I4
I2
tp629
a(I9
I6
tp630
a(I6
I5
tp631
a(I5
I3
tp632
a(I0
I1
tp633
a(I8
I3
tp634
a(I3
I3
tp635
a(I5
I5
tp636
a(I4
I4
tp637
a(I6
I3
tp638
a(I0
I6
tp639
ag615
a(I4
I3
tp640
a(I2
I4
tp641
a(I8
I4
tp642
atp643
Rp644
sg15
I10
sg28
g20
((lp645
(I5
I9
tp646
a(I4
I7
tp647
a(I1
I3
tp648
a(I6
I7
tp649
a(I1
I6
tp650
a(I3
I0
tp651
a(I9
I8
tp652
a(I7
I7
tp653
a(I1
I4
tp654
a(I0
I5
tp655
a(I2
I3
tp656
a(I2
I5
tp657
a(I7
I6
tp658
a(I3
I5
tp659
atp660
Rp661
sg13
((I0
I2
tp662
(I2
I7
tp663
(I7
I9
tp664
(I8
I8
tp665
(I8
I0
tp666
tp667
sg14
I10
sbssg163
S'heavy_roomset'
p668
sbsg163
g165
sg166
(dp669
g435
((lp670
F302.94000000000005
tp671
sg474
((lp672
F301.0
tp673
sg522
((lp674
F300.98999999999978
tp675
sg563
((lp676
F300.96000000000004
tp677
sg613
((lp678
F301.92000000000007
tp679
ssba.