(lp0
(imeasure_core
ProblemSetSolution
p1
(dp2
S'roomset'
p3
(imeasure_core
RoomSet
p4
(dp5
S'rooms'
p6
(dp7
(iproblems
RoomID
p8
(dp9
S'dusts'
p10
I7
sS'obstacles'
p11
(I1
I3
tp12
sS'robots'
p13
I1
sS'height'
p14
I7
sS'width'
p15
I9
sS'seed'
p16
I1486246605650367638
sb(imulti_robot_problem
MultiRobotState
p17
(dp18
S'obstacle_locations'
p19
c__builtin__
frozenset
p20
((lp21
(I0
I1
tp22
a(I8
I3
tp23
ag12
a(I0
I3
tp24
a(I0
I2
tp25
atp26
Rp27
sg15
I9
sS'dirt_locations'
p28
g20
((lp29
(I7
I5
tp30
a(I7
I0
tp31
a(I0
I4
tp32
a(I1
I0
tp33
a(I4
I4
tp34
a(I6
I5
tp35
a(I4
I0
tp36
atp37
Rp38
sg13
((I5
I1
tp39
tp40
sg14
I7
sbs(iproblems
RoomID
p41
(dp42
g10
I9
sg11
(I7
I5
tp43
sg13
I4
sg14
I10
sg15
I10
sg16
I679259829289197625
sb(imulti_robot_problem
MultiRobotState
p44
(dp45
g19
g20
((lp46
(I9
I6
tp47
a(I8
I6
tp48
a(I7
I6
tp49
ag43
a(I7
I0
tp50
atp51
Rp52
sg15
I10
sg28
g20
((lp53
(I5
I4
tp54
a(I2
I6
tp55
a(I7
I1
tp56
a(I6
I1
tp57
a(I1
I6
tp58
a(I0
I5
tp59
a(I8
I7
tp60
a(I0
I9
tp61
a(I9
I5
tp62
atp63
Rp64
sg13
((I7
I8
tp65
(I6
I7
tp66
(I3
I5
tp67
(I3
I9
tp68
tp69
sg14
I10
sbs(iproblems
RoomID
p70
(dp71
g10
I5
sg11
(I3
I4
tp72
sg13
I1
sg14
I9
sg15
I9
sg16
I2685440357799139976
sb(imulti_robot_problem
MultiRobotState
p73
(dp74
g19
g20
((lp75
(I8
I3
tp76
a(I1
I3
tp77
a(I5
I6
tp78
ag72
a(I2
I4
tp79
a(I3
I8
tp80
a(I2
I3
tp81
a(I7
I8
tp82
a(I1
I1
tp83
atp84
Rp85
sg15
I9
sg28
g20
((lp86
(I0
I1
tp87
a(I0
I0
tp88
a(I3
I1
tp89
a(I8
I7
tp90
a(I5
I0
tp91
atp92
Rp93
sg13
((I5
I5
tp94
tp95
sg14
I9
sbs(iproblems
RoomID
p96
(dp97
g10
I6
sg11
(I1
I6
tp98
sg13
I4
sg14
I8
sg15
I10
sg16
I403795515464475257
sb(imulti_robot_problem
MultiRobotState
p99
(dp100
g19
g20
((lp101
(I8
I3
tp102
a(I1
I3
tp103
a(I6
I7
tp104
a(I0
I4
tp105
ag98
a(I4
I1
tp106
a(I0
I5
tp107
atp108
Rp109
sg15
I10
sg28
g20
((lp110
(I7
I3
tp111
a(I4
I7
tp112
a(I2
I2
tp113
a(I8
I0
tp114
a(I0
I2
tp115
a(I0
I7
tp116
atp117
Rp118
sg13
((I8
I2
tp119
(I6
I1
tp120
(I5
I0
tp121
(I2
I0
tp122
tp123
sg14
I8
sbs(iproblems
RoomID
p124
(dp125
g10
I6
sg11
(I4
I4
tp126
sg13
I4
sg14
I9
sg15
I9
sg16
I5891625650498269233
sb(imulti_robot_problem
MultiRobotState
p127
(dp128
g19
g20
((lp129
(I2
I7
tp130
a(I4
I5
tp131
ag126
a(I3
I6
tp132
atp133
Rp134
sg15
I9
sg28
g20
((lp135
(I7
I4
tp136
a(I8
I3
tp137
a(I0
I5
tp138
a(I5
I5
tp139
a(I6
I6
tp140
a(I4
I0
tp141
atp142
Rp143
sg13
((I4
I6
tp144
(I7
I1
tp145
(I0
I4
tp146
(I7
I2
tp147
tp148
sg14
I9
sbssS'name'
p149
S'easy_roomset'
p150
sbsg149
S"AnytimeBeam-w20-gf(2, 'lin')_with_PowerHeuristic2"
p151
sS'solutions'
p152
(dp153
g8
((lp154
(F0.1099999999969441
I45
tp155
a(F8.75
I44
tp156
a(F15.109999999996944
I42
tp157
a(F15.590000000000146
I39
tp158
a(F15.899999999997817
I37
tp159
a(F16.509999999998399
I36
tp160
a(F17.139999999999418
I34
tp161
a(F19.18999999999869
I33
tp162
a(F23.899999999997817
I31
tp163
a(F34.899999999997817
I30
tp164
aF40.0
tp165
sg41
((lp166
(F0.78999999999723514
I20
tp167
aF40.0
tp168
sg70
((lp169
(F0.059999999997671694
I41
tp170
a(F8.6399999999994179
I35
tp171
a(F15.239999999997963
I33
tp172
a(F22.419999999998254
I31
tp173
a(F23.729999999999563
I29
tp174
a(F39.959999999999127
I27
tp175
aF40.0
tp176
sg96
((lp177
(F6.8599999999969441
I134
tp178
aF40.079999999998108
tp179
sg124
((lp180
(F0.42000000000189175
I8
tp181
aF40.010000000002037
tp182
ssba(imeasure_core
ProblemSetSolution
p183
(dp184
g3
(imeasure_core
RoomSet
p185
(dp186
g6
(dp187
(iproblems
RoomID
p188
(dp189
g10
I9
sg11
(I7
I7
tp190
sg13
I4
sg14
I12
sg15
I12
sg16
I679259829289197625
sb(imulti_robot_problem
MultiRobotState
p191
(dp192
g19
g20
((lp193
(I6
I4
tp194
a(I6
I9
tp195
a(I6
I6
tp196
a(I5
I6
tp197
a(I9
I8
tp198
a(I11
I9
tp199
ag190
a(I1
I4
tp200
a(I11
I7
tp201
a(I7
I5
tp202
a(I8
I7
tp203
a(I4
I2
tp204
a(I8
I5
tp205
a(I6
I5
tp206
a(I10
I8
tp207
a(I10
I5
tp208
a(I6
I7
tp209
a(I6
I8
tp210
a(I10
I7
tp211
a(I9
I6
tp212
a(I7
I6
tp213
a(I8
I10
tp214
a(I7
I4
tp215
a(I11
I8
tp216
a(I7
I10
tp217
a(I8
I6
tp218
a(I6
I1
tp219
a(I9
I7
tp220
atp221
Rp222
sg15
I12
sg28
g20
((lp223
(I2
I7
tp224
a(I9
I0
tp225
a(I8
I2
tp226
a(I7
I1
tp227
a(I11
I0
tp228
a(I0
I11
tp229
a(I1
I6
tp230
a(I1
I7
tp231
a(I11
I6
tp232
atp233
Rp234
sg13
((I9
I10
tp235
(I8
I9
tp236
(I3
I7
tp237
(I3
I11
tp238
tp239
sg14
I12
sbs(iproblems
RoomID
p240
(dp241
g10
I5
sg11
(I9
I1
tp242
sg13
I3
sg14
I11
sg15
I11
sg16
I2685440357799139976
sb(imulti_robot_problem
MultiRobotState
p243
(dp244
g19
g20
((lp245
(I7
I3
tp246
a(I10
I4
tp247
a(I9
I3
tp248
ag242
a(I7
I1
tp249
a(I5
I6
tp250
a(I10
I6
tp251
a(I1
I4
tp252
a(I9
I9
tp253
a(I3
I9
tp254
a(I9
I4
tp255
a(I6
I8
tp256
a(I9
I6
tp257
a(I3
I4
tp258
a(I10
I3
tp259
a(I7
I2
tp260
a(I5
I3
tp261
a(I8
I3
tp262
a(I5
I5
tp263
a(I10
I7
tp264
a(I8
I5
tp265
a(I9
I2
tp266
a(I3
I6
tp267
a(I4
I5
tp268
a(I6
I5
tp269
a(I7
I10
tp270
a(I9
I5
tp271
a(I3
I5
tp272
a(I7
I8
tp273
a(I2
I4
tp274
a(I10
I9
tp275
atp276
Rp277
sg15
I11
sg28
g20
((lp278
(I1
I2
tp279
a(I9
I10
tp280
a(I6
I1
tp281
a(I4
I1
tp282
a(I0
I2
tp283
atp284
Rp285
sg13
((I6
I6
tp286
(I0
I0
tp287
(I10
I8
tp288
tp289
sg14
I11
sbs(iproblems
RoomID
p290
(dp291
g10
I10
sg11
(I1
I5
tp292
sg13
I4
sg14
I12
sg15
I10
sg16
I1737871632067391849
sb(imulti_robot_problem
MultiRobotState
p293
(dp294
g19
g20
((lp295
(I3
I2
tp296
a(I0
I0
tp297
a(I6
I6
tp298
a(I5
I6
tp299
a(I2
I8
tp300
a(I2
I10
tp301
a(I8
I9
tp302
a(I6
I2
tp303
a(I2
I3
tp304
a(I8
I7
tp305
a(I5
I1
tp306
a(I8
I5
tp307
a(I5
I8
tp308
a(I8
I3
tp309
a(I5
I5
tp310
a(I7
I8
tp311
a(I7
I6
tp312
a(I8
I10
tp313
ag292
a(I6
I5
tp314
a(I2
I2
tp315
a(I4
I1
tp316
a(I2
I4
tp317
atp318
Rp319
sg15
I10
sg28
g20
((lp320
(I0
I1
tp321
a(I4
I10
tp322
a(I4
I8
tp323
a(I3
I0
tp324
a(I9
I6
tp325
a(I3
I10
tp326
a(I5
I11
tp327
a(I2
I7
tp328
a(I1
I9
tp329
a(I3
I4
tp330
atp331
Rp332
sg13
((I4
I9
tp333
(I8
I11
tp334
(I4
I0
tp335
(I3
I9
tp336
tp337
sg14
I12
sbs(iproblems
RoomID
p338
(dp339
g10
I6
sg11
(I3
I9
tp340
sg13
I4
sg14
I11
sg15
I11
sg16
I5891625650498269233
sb(imulti_robot_problem
MultiRobotState
p341
(dp342
g19
g20
((lp343
(I7
I3
tp344
a(I4
I7
tp345
a(I6
I6
tp346
a(I5
I6
tp347
a(I2
I8
tp348
a(I6
I2
tp349
a(I5
I1
tp350
a(I3
I7
tp351
a(I8
I5
tp352
a(I5
I5
tp353
a(I2
I9
tp354
a(I7
I6
tp355
a(I4
I4
tp356
a(I2
I2
tp357
a(I1
I1
tp358
a(I9
I7
tp359
a(I3
I2
tp360
a(I10
I4
tp361
a(I4
I5
tp362
a(I9
I3
tp363
a(I10
I5
tp364
a(I2
I10
tp365
a(I7
I5
tp366
a(I2
I3
tp367
a(I8
I3
tp368
a(I4
I6
tp369
a(I5
I2
tp370
a(I6
I1
tp371
a(I3
I8
tp372
a(I1
I8
tp373
ag340
a(I4
I3
tp374
a(I9
I5
tp375
a(I3
I4
tp376
a(I8
I4
tp377
atp378
Rp379
sg15
I11
sg28
g20
((lp380
(I8
I8
tp381
a(I5
I10
tp382
a(I9
I1
tp383
a(I10
I7
tp384
a(I1
I6
tp385
a(I7
I9
tp386
atp387
Rp388
sg13
((I5
I7
tp389
(I8
I1
tp390
(I0
I5
tp391
(I4
I0
tp392
tp393
sg14
I11
sbs(iproblems
RoomID
p394
(dp395
g10
I7
sg11
(I8
I8
tp396
sg13
I3
sg14
I9
sg15
I9
sg16
I7834319822419845881
sb(imulti_robot_problem
MultiRobotState
p397
(dp398
g19
g20
((lp399
(I4
I7
tp400
a(I1
I3
tp401
a(I5
I0
tp402
a(I6
I6
tp403
a(I5
I6
tp404
a(I2
I8
tp405
a(I3
I5
tp406
a(I4
I6
tp407
a(I2
I6
tp408
a(I0
I5
tp409
a(I3
I7
tp410
a(I0
I3
tp411
a(I0
I8
tp412
a(I8
I5
tp413
a(I5
I8
tp414
a(I3
I3
tp415
a(I2
I7
tp416
a(I6
I7
tp417
a(I5
I5
tp418
a(I7
I8
tp419
a(I4
I4
tp420
a(I1
I5
tp421
a(I1
I8
tp422
ag396
a(I3
I6
tp423
a(I1
I7
tp424
a(I4
I5
tp425
a(I5
I3
tp426
a(I3
I4
tp427
atp428
Rp429
sg15
I9
sg28
g20
((lp430
(I7
I4
tp431
a(I2
I0
tp432
a(I6
I2
tp433
a(I7
I0
tp434
a(I8
I7
tp435
a(I7
I1
tp436
a(I1
I4
tp437
atp438
Rp439
sg13
((I2
I1
tp440
(I2
I3
tp441
(I5
I7
tp442
tp443
sg14
I9
sbssg149
S'mild_roomset'
p444
sbsg149
g151
sg152
(dp445
g188
((lp446
F40.349999999998545
tp447
sg240
((lp448
(F3.6900000000023283
I127
tp449
aF40.020000000000437
tp450
sg290
((lp451
(F0.40999999999985448
I12
tp452
aF40.020000000000437
tp453
sg338
((lp454
(F2.430000000000291
I64
tp455
aF40.040000000000873
tp456
sg394
((lp457
(F0.11000000000058208
I25
tp458
aF40.009999999998399
tp459
ssba(imeasure_core
ProblemSetSolution
p460
(dp461
g3
(imeasure_core
RoomSet
p462
(dp463
g6
(dp464
(iproblems
RoomID
p465
(dp466
g10
I12
sg11
(I6
I3
tp467
sg13
I5
sg14
I10
sg15
I12
sg16
I1486246605650367638
sb(imulti_robot_problem
MultiRobotState
p468
(dp469
g19
g20
((lp470
(I5
I9
tp471
a(I1
I3
tp472
a(I7
I1
tp473
a(I2
I7
tp474
a(I1
I4
tp475
a(I6
I2
tp476
a(I1
I6
tp477
a(I2
I1
tp478
a(I0
I3
tp479
a(I6
I5
tp480
a(I1
I2
tp481
a(I1
I5
tp482
a(I4
I1
tp483
a(I3
I1
tp484
ag467
a(I2
I0
tp485
a(I10
I0
tp486
a(I5
I2
tp487
a(I1
I1
tp488
a(I8
I4
tp489
atp490
Rp491
sg15
I12
sg28
g20
((lp492
(I11
I7
tp493
a(I11
I4
tp494
a(I9
I1
tp495
a(I11
I8
tp496
a(I2
I8
tp497
a(I6
I0
tp498
a(I0
I6
tp499
a(I11
I1
tp500
a(I0
I4
tp501
a(I4
I9
tp502
a(I10
I9
tp503
a(I9
I7
tp504
atp505
Rp506
sg13
((I2
I4
tp507
(I10
I1
tp508
(I2
I5
tp509
(I9
I8
tp510
(I6
I6
tp511
tp512
sg14
I10
sbs(iproblems
RoomID
p513
(dp514
g10
I14
sg11
(I7
I6
tp515
sg13
I7
sg14
I13
sg15
I13
sg16
I679259829289197625
sb(imulti_robot_problem
MultiRobotState
p516
(dp517
g19
g20
((lp518
(I6
I4
tp519
a(I4
I8
tp520
a(I12
I7
tp521
a(I10
I6
tp522
a(I7
I5
tp523
a(I12
I11
tp524
a(I9
I6
tp525
a(I1
I2
tp526
a(I11
I7
tp527
a(I10
I7
tp528
ag515
a(I6
I3
tp529
a(I6
I2
tp530
a(I4
I3
tp531
a(I3
I4
tp532
a(I12
I8
tp533
atp534
Rp535
sg15
I13
sg28
g20
((lp536
(I2
I7
tp537
a(I12
I1
tp538
a(I9
I2
tp539
a(I2
I8
tp540
a(I5
I7
tp541
a(I10
I0
tp542
a(I1
I4
tp543
a(I0
I12
tp544
a(I7
I4
tp545
a(I10
I9
tp546
a(I4
I2
tp547
a(I11
I4
tp548
a(I11
I6
tp549
a(I1
I9
tp550
atp551
Rp552
sg13
((I9
I11
tp553
(I9
I10
tp554
(I4
I7
tp555
(I4
I12
tp556
(I7
I1
tp557
(I1
I8
tp558
(I1
I6
tp559
tp560
sg14
I13
sbs(iproblems
RoomID
p561
(dp562
g10
I11
sg11
(I2
I7
tp563
sg13
I6
sg14
I11
sg15
I13
sg16
I403795515464475257
sb(imulti_robot_problem
MultiRobotState
p564
(dp565
g19
g20
((lp566
g563
a(I10
I8
tp567
a(I1
I7
tp568
a(I3
I10
tp569
a(I4
I4
tp570
a(I1
I4
tp571
a(I12
I5
tp572
a(I0
I6
tp573
a(I0
I5
tp574
a(I3
I6
tp575
a(I2
I2
tp576
a(I0
I8
tp577
a(I7
I9
tp578
atp579
Rp580
sg15
I13
sg28
g20
((lp581
(I6
I4
tp582
a(I0
I0
tp583
a(I2
I9
tp584
a(I11
I5
tp585
a(I8
I9
tp586
a(I11
I1
tp587
a(I2
I3
tp588
a(I1
I10
tp589
a(I12
I2
tp590
a(I0
I3
tp591
a(I5
I2
tp592
atp593
Rp594
sg13
((I10
I3
tp595
(I7
I2
tp596
(I7
I0
tp597
(I3
I1
tp598
(I5
I10
tp599
(I9
I4
tp600
tp601
sg14
I11
sbs(iproblems
RoomID
p602
(dp603
g10
I10
sg11
(I6
I9
tp604
sg13
I5
sg14
I12
sg15
I12
sg16
I2685440357799139976
sb(imulti_robot_problem
MultiRobotState
p605
(dp606
g19
g20
((lp607
(I4
I10
tp608
ag604
a(I9
I1
tp609
a(I5
I11
tp610
a(I3
I0
tp611
a(I0
I7
tp612
a(I3
I9
tp613
a(I0
I5
tp614
a(I1
I4
tp615
a(I0
I3
tp616
a(I4
I0
tp617
a(I1
I2
tp618
a(I11
I10
tp619
a(I6
I10
tp620
a(I5
I6
tp621
a(I9
I11
tp622
a(I7
I9
tp623
a(I4
I5
tp624
a(I3
I5
tp625
a(I3
I4
tp626
a(I2
I4
tp627
a(I1
I9
tp628
atp629
Rp630
sg15
I12
sg28
g20
((lp631
(I11
I7
tp632
a(I8
I3
tp633
a(I10
I11
tp634
a(I7
I1
tp635
a(I10
I5
tp636
a(I8
I10
tp637
a(I6
I3
tp638
a(I3
I6
tp639
a(I9
I10
tp640
a(I6
I5
tp641
atp642
Rp643
sg13
((I7
I7
tp644
(I0
I0
tp645
(I11
I9
tp646
(I0
I2
tp647
(I4
I1
tp648
tp649
sg14
I12
sbs(iproblems
RoomID
p650
(dp651
g10
I11
sg11
(I11
I9
tp652
sg13
I7
sg14
I12
sg15
I12
sg16
I5891625650498269233
sb(imulti_robot_problem
MultiRobotState
p653
(dp654
g19
g20
((lp655
(I4
I4
tp656
a(I4
I8
tp657
a(I5
I6
tp658
a(I8
I11
tp659
ag652
a(I7
I7
tp660
a(I7
I1
tp661
a(I9
I10
tp662
a(I3
I9
tp663
a(I1
I9
tp664
a(I6
I7
tp665
a(I10
I7
tp666
a(I7
I6
tp667
a(I5
I7
tp668
a(I2
I11
tp669
a(I6
I11
tp670
a(I9
I11
tp671
a(I7
I10
tp672
a(I10
I9
tp673
atp674
Rp675
sg15
I12
sg28
g20
((lp676
(I11
I7
tp677
a(I11
I4
tp678
a(I4
I6
tp679
a(I5
I11
tp680
a(I8
I10
tp681
a(I0
I5
tp682
a(I8
I7
tp683
a(I1
I7
tp684
a(I10
I1
tp685
a(I1
I1
tp686
a(I5
I5
tp687
atp688
Rp689
sg13
((I6
I8
tp690
(I9
I2
tp691
(I0
I6
tp692
(I10
I3
tp693
(I9
I5
tp694
(I5
I0
tp695
(I9
I8
tp696
tp697
sg14
I12
sbssg149
S'heavy_roomset'
p698
sbsg149
g151
sg152
(dp699
g465
((lp700
(F16.069999999999709
I113
tp701
aF40.0
tp702
sg513
((lp703
F42.170000000001892
tp704
sg650
((lp705
F42.150000000001455
tp706
sg602
((lp707
(F4.5200000000004366
I58
tp708
aF40.130000000001019
tp709
sg561
((lp710
(F23.349999999998545
I19
tp711
aF40.489999999997963
tp712
ssba(imeasure_core
ProblemSetSolution
p713
(dp714
g3
g4
sg149
S"AnytimeBeam-w20-gf(4, 'lin')_with_PowerHeuristic2"
p715
sg152
(dp716
g8
((lp717
(F0.11999999999898137
I45
tp718
a(F4.7700000000004366
I44
tp719
a(F7.8499999999985448
I41
tp720
a(F8.2700000000004366
I37
tp721
a(F8.8699999999989814
I36
tp722
a(F9.4799999999995634
I34
tp723
a(F11.489999999997963
I33
tp724
a(F13.68999999999869
I31
tp725
a(F16.610000000000582
I30
tp726
a(F19.770000000000437
I28
tp727
a(F22.169999999998254
I26
tp728
a(F27.159999999999854
I25
tp729
aF40.0
tp730
sg41
((lp731
(F0.78999999999723514
I20
tp732
aF40.25
tp733
sg70
((lp734
(F0.059999999997671694
I41
tp735
a(F4.4899999999979627
I35
tp736
a(F8.4699999999975262
I33
tp737
a(F12.389999999999418
I31
tp738
a(F13.700000000000728
I29
tp739
a(F20.090000000000146
I27
tp740
a(F32.849999999998545
I25
tp741
a(F35.579999999998108
I23
tp742
aF40.0
tp743
sg96
((lp744
(F6.75
I134
tp745
aF40.009999999998399
tp746
sg124
((lp747
(F0.40999999999985448
I8
tp748
aF40.100000000002183
tp749
ssba(imeasure_core
ProblemSetSolution
p750
(dp751
g3
g185
sg149
g715
sg152
(dp752
g188
((lp753
F40.169999999998254
tp754
sg240
((lp755
(F3.6900000000023283
I127
tp756
aF40.040000000000873
tp757
sg290
((lp758
(F0.40000000000145519
I12
tp759
aF40.049999999999272
tp760
sg338
((lp761
(F2.4099999999998545
I64
tp762
aF40.010000000002037
tp763
sg394
((lp764
(F0.11000000000058208
I25
tp765
aF40.0
tp766
ssba(imeasure_core
ProblemSetSolution
p767
(dp768
g3
g462
sg149
g715
sg152
(dp769
g465
((lp770
(F16.069999999999709
I113
tp771
aF40.010000000002037
tp772
sg513
((lp773
F42.040000000000873
tp774
sg650
((lp775
F42.149999999997817
tp776
sg602
((lp777
(F4.5299999999988358
I58
tp778
aF40.010000000002037
tp779
sg561
((lp780
(F23.349999999998545
I19
tp781
aF40.489999999997963
tp782
ssba(imeasure_core
ProblemSetSolution
p783
(dp784
g3
g4
sg149
S"AnytimeBeam-w20-gf(8, 'lin')_with_PowerHeuristic2"
p785
sg152
(dp786
g8
((lp787
(F0.099999999998544808
I45
tp788
a(F2.5299999999988358
I44
tp789
a(F4.3999999999978172
I39
tp790
a(F4.7099999999991269
I37
tp791
a(F5.2999999999992724
I36
tp792
a(F5.9099999999998545
I34
tp793
a(F7.9499999999970896
I33
tp794
a(F10.159999999999854
I31
tp795
a(F13.079999999998108
I30
tp796
a(F16.239999999997963
I28
tp797
a(F18.649999999997817
I26
tp798
a(F23.639999999999418
I25
tp799
a(F30.069999999999709
I24
tp800
aF40.0
tp801
sg41
((lp802
(F0.78999999999723514
I20
tp803
aF40.19999999999709
tp804
sg70
((lp805
(F0.060000000001309672
I41
tp806
a(F2.8600000000005821
I35
tp807
a(F5.0900000000001455
I33
tp808
a(F6.3500000000021828
I31
tp809
a(F7.6500000000014552
I29
tp810
a(F9.9500000000007276
I27
tp811
a(F16.380000000001019
I25
tp812
a(F19.100000000002183
I23
tp813
aF40.0
tp814
sg96
((lp815
(F6.75
I134
tp816
aF40.140000000003056
tp817
sg124
((lp818
(F0.40999999999985448
I8
tp819
aF40.079999999998108
tp820
ssba(imeasure_core
ProblemSetSolution
p821
(dp822
g3
g185
sg149
g785
sg152
(dp823
g188
((lp824
F40.209999999999127
tp825
sg240
((lp826
(F3.6599999999998545
I127
tp827
aF40.040000000000873
tp828
sg290
((lp829
(F0.40000000000145519
I12
tp830
aF40.080000000001746
tp831
sg338
((lp832
(F2.4099999999998545
I64
tp833
aF40.0
tp834
sg394
((lp835
(F0.11999999999898137
I25
tp836
aF40.0
tp837
ssba(imeasure_core
ProblemSetSolution
p838
(dp839
g3
g462
sg149
g785
sg152
(dp840
g465
((lp841
(F16.099999999998545
I113
tp842
aF40.0
tp843
sg513
((lp844
F42.139999999999418
tp845
sg650
((lp846
F42.0
tp847
sg602
((lp848
(F4.5200000000004366
I58
tp849
aF40.06000000000131
tp850
sg561
((lp851
(F23.380000000001019
I19
tp852
aF40.520000000000437
tp853
ssba(imeasure_core
ProblemSetSolution
p854
(dp855
g3
g4
sg149
S"AnytimeBeam-w20-gf(16, 'lin')_with_PowerHeuristic2"
p856
sg152
(dp857
g8
((lp858
(F0.11000000000058208
I45
tp859
a(F1.4199999999982538
I44
tp860
a(F2.7099999999991269
I37
tp861
a(F3.3099999999976717
I36
tp862
a(F3.930000000000291
I34
tp863
a(F5.9899999999979627
I33
tp864
a(F8.2199999999975262
I31
tp865
a(F11.159999999999854
I30
tp866
a(F14.319999999999709
I28
tp867
a(F16.729999999999563
I26
tp868
a(F21.729999999999563
I25
tp869
a(F28.139999999999418
I24
tp870
aF40.0
tp871
sg41
((lp872
(F0.78999999999723514
I20
tp873
aF40.020000000000437
tp874
sg70
((lp875
(F0.059999999997671694
I41
tp876
a(F2.3099999999976717
I35
tp877
a(F3.4299999999966531
I33
tp878
a(F4.6799999999966531
I31
tp879
a(F5.9899999999979627
I29
tp880
a(F8.3099999999976717
I27
tp881
a(F11.529999999998836
I25
tp882
a(F14.259999999998399
I23
tp883
aF40.0
tp884
sg96
((lp885
(F6.7299999999995634
I134
tp886
aF40.090000000000146
tp887
sg124
((lp888
(F0.40999999999985448
I8
tp889
aF40.049999999999272
tp890
ssba(imeasure_core
ProblemSetSolution
p891
(dp892
g3
g185
sg149
g856
sg152
(dp893
g188
((lp894
F40.149999999997817
tp895
sg240
((lp896
(F3.6599999999998545
I127
tp897
aF40.010000000002037
tp898
sg290
((lp899
(F0.39999999999781721
I12
tp900
aF40.0
tp901
sg338
((lp902
(F2.4099999999998545
I64
tp903
aF40.029999999998836
tp904
sg394
((lp905
(F0.11000000000058208
I25
tp906
aF40.0
tp907
ssba(imeasure_core
ProblemSetSolution
p908
(dp909
g3
g462
sg149
g856
sg152
(dp910
g465
((lp911
(F16.079999999998108
I113
tp912
aF40.099999999998545
tp913
sg513
((lp914
F42.069999999999709
tp915
sg650
((lp916
F42.220000000001164
tp917
sg602
((lp918
(F4.5100000000020373
I58
tp919
aF40.159999999999854
tp920
sg561
((lp921
(F23.319999999999709
I19
tp922
aF40.479999999999563
tp923
ssba(imeasure_core
ProblemSetSolution
p924
(dp925
g3
g4
sg149
S"AnytimeBeam-w20-gf(2, 'lin')_with_LinearHeuristic"
p926
sg152
(dp927
g8
((lp928
(F0.010000000002037268
I24
tp929
aF40.0
tp930
sg41
((lp931
F40.25
tp932
sg70
((lp933
(F0.020000000000436557
I23
tp934
aF40.0
tp935
sg96
((lp936
F40.020000000000437
tp937
sg124
((lp938
(F0.36999999999898137
I4
tp939
aF40.220000000001164
tp940
ssba(imeasure_core
ProblemSetSolution
p941
(dp942
g3
g185
sg149
g926
sg152
(dp943
g188
((lp944
F40.059999999997672
tp945
sg240
((lp946
(F31.950000000000728
I391
tp947
aF40.0
tp948
sg290
((lp949
F40.030000000002474
tp950
sg338
((lp951
F40.069999999999709
tp952
sg394
((lp953
(F0.66999999999825377
I60
tp954
aF40.029999999998836
tp955
ssba(imeasure_core
ProblemSetSolution
p956
(dp957
g3
g462
sg149
g926
sg152
(dp958
g465
((lp959
F40.109999999996944
tp960
sg513
((lp961
F44.120000000002619
tp962
sg650
((lp963
F45.990000000001601
tp964
sg602
((lp965
F40.659999999999854
tp966
sg561
((lp967
(F16.569999999999709
I10
tp968
aF41.149999999997817
tp969
ssba(imeasure_core
ProblemSetSolution
p970
(dp971
g3
g4
sg149
S"AnytimeBeam-w20-gf(4, 'lin')_with_LinearHeuristic"
p972
sg152
(dp973
g8
((lp974
(F0.020000000000436557
I24
tp975
aF40.0
tp976
sg41
((lp977
F40.040000000000873
tp978
sg70
((lp979
(F0.020000000000436557
I23
tp980
aF40.0
tp981
sg96
((lp982
F40.110000000000582
tp983
sg124
((lp984
(F0.36999999999898137
I4
tp985
aF40.059999999997672
tp986
ssba(imeasure_core
ProblemSetSolution
p987
(dp988
g3
g185
sg149
g972
sg152
(dp989
g188
((lp990
F40.06000000000131
tp991
sg240
((lp992
(F31.979999999999563
I391
tp993
aF40.029999999998836
tp994
sg290
((lp995
F40.190000000002328
tp996
sg338
((lp997
F40.049999999999272
tp998
sg394
((lp999
(F0.66999999999825377
I60
tp1000
aF40.039999999997235
tp1001
ssba(imeasure_core
ProblemSetSolution
p1002
(dp1003
g3
g462
sg149
g972
sg152
(dp1004
g465
((lp1005
F40.200000000000728
tp1006
sg513
((lp1007
F44.020000000000437
tp1008
sg650
((lp1009
F45.870000000002619
tp1010
sg602
((lp1011
F40.009999999998399
tp1012
sg561
((lp1013
(F16.539999999997235
I10
tp1014
aF41.159999999999854
tp1015
ssba(imeasure_core
ProblemSetSolution
p1016
(dp1017
g3
g4
sg149
S"AnytimeBeam-w20-gf(8, 'lin')_with_LinearHeuristic"
p1018
sg152
(dp1019
g8
((lp1020
(F0.010000000002037268
I24
tp1021
aF40.0
tp1022
sg41
((lp1023
F40.150000000001455
tp1024
sg70
((lp1025
(F0.020000000004074536
I23
tp1026
aF40.0
tp1027
sg96
((lp1028
F40.290000000000873
tp1029
sg124
((lp1030
(F0.36000000000058208
I4
tp1031
aF40.19999999999709
tp1032
ssba(imeasure_core
ProblemSetSolution
p1033
(dp1034
g3
g185
sg149
g1018
sg152
(dp1035
g188
((lp1036
F40.05000000000291
tp1037
sg240
((lp1038
(F31.849999999998545
I391
tp1039
aF40.059999999997672
tp1040
sg290
((lp1041
F40.150000000001455
tp1042
sg338
((lp1043
F40.319999999999709
tp1044
sg394
((lp1045
(F0.66999999999825377
I60
tp1046
aF40.010000000002037
tp1047
ssba(imeasure_core
ProblemSetSolution
p1048
(dp1049
g3
g462
sg149
g1018
sg152
(dp1050
g465
((lp1051
F40.239999999997963
tp1052
sg513
((lp1053
F44.139999999999418
tp1054
sg650
((lp1055
F46.080000000001746
tp1056
sg602
((lp1057
F40.110000000000582
tp1058
sg561
((lp1059
(F16.529999999998836
I10
tp1060
aF41.239999999997963
tp1061
ssba(imeasure_core
ProblemSetSolution
p1062
(dp1063
g3
g4
sg149
S"AnytimeBeam-w20-gf(16, 'lin')_with_LinearHeuristic"
p1064
sg152
(dp1065
g8
((lp1066
(F0.019999999996798579
I24
tp1067
aF40.0
tp1068
sg41
((lp1069
F40.05000000000291
tp1070
sg70
((lp1071
(F0.019999999996798579
I23
tp1072
aF40.0
tp1073
sg96
((lp1074
F40.369999999995343
tp1075
sg124
((lp1076
(F0.36000000000058208
I4
tp1077
aF40.080000000001746
tp1078
ssba(imeasure_core
ProblemSetSolution
p1079
(dp1080
g3
g185
sg149
g1064
sg152
(dp1081
g188
((lp1082
F40.010000000002037
tp1083
sg240
((lp1084
(F32.540000000000873
I391
tp1085
aF40.099999999998545
tp1086
sg290
((lp1087
F40.120000000002619
tp1088
sg338
((lp1089
F40.259999999994761
tp1090
sg394
((lp1091
(F0.67000000000552973
I60
tp1092
aF40.020000000004075
tp1093
ssba(imeasure_core
ProblemSetSolution
p1094
(dp1095
g3
g462
sg149
g1064
sg152
(dp1096
g465
((lp1097
F40.009999999994761
tp1098
sg513
((lp1099
F44.200000000004366
tp1100
sg650
((lp1101
F46.209999999999127
tp1102
sg602
((lp1103
F40.209999999999127
tp1104
sg561
((lp1105
(F16.540000000000873
I10
tp1106
aF40.809999999997672
tp1107
ssba.