(lp0
(imeasure_core
ProblemSetSolution
p1
(dp2
S'roomset'
p3
(imeasure_core
RoomSet
p4
(dp5
S'rooms'
p6
(dp7
(iproblems
RoomID
p8
(dp9
S'dusts'
p10
I7
sS'obstacles'
p11
(I6
I2
tp12
sS'robots'
p13
I1
sS'height'
p14
I8
sS'width'
p15
I10
sS'seed'
p16
I8526009527898143175
sb(imulti_robot_problem
MultiRobotState
p17
(dp18
S'obstacle_locations'
p19
c__builtin__
frozenset
p20
((lp21
(I4
I7
tp22
a(I6
I6
tp23
a(I3
I0
tp24
ag12
a(I5
I1
tp25
a(I1
I1
tp26
a(I7
I2
tp27
a(I4
I0
tp28
atp29
Rp30
sg15
I10
sS'dirt_locations'
p31
g20
((lp32
(I0
I1
tp33
a(I6
I3
tp34
a(I1
I3
tp35
a(I3
I3
tp36
a(I2
I0
tp37
a(I5
I2
tp38
a(I6
I5
tp39
atp40
Rp41
sg13
((I9
I3
tp42
tp43
sg14
I8
sbs(iproblems
RoomID
p44
(dp45
g10
I8
sg11
(I5
I2
tp46
sg13
I5
sg14
I7
sg15
I9
sg16
I1782951451934108723
sb(imulti_robot_problem
MultiRobotState
p47
(dp48
g19
g20
((lp49
(I0
I1
tp50
a(I1
I3
tp51
a(I8
I5
tp52
a(I3
I1
tp53
a(I7
I4
tp54
a(I4
I1
tp55
a(I4
I2
tp56
ag46
atp57
Rp58
sg15
I9
sg31
g20
((lp59
(I3
I2
tp60
a(I3
I0
tp61
a(I5
I4
tp62
a(I1
I6
tp63
a(I5
I1
tp64
a(I8
I6
tp65
a(I2
I5
tp66
a(I7
I2
tp67
atp68
Rp69
sg13
((I5
I0
tp70
(I8
I4
tp71
(I7
I3
tp72
(I2
I2
tp73
(I1
I0
tp74
tp75
sg14
I7
sbs(iproblems
RoomID
p76
(dp77
g10
I10
sg11
(I6
I5
tp78
sg13
I3
sg14
I7
sg15
I8
sg16
I4360462074288489228
sb(imulti_robot_problem
MultiRobotState
p79
(dp80
g19
g20
((lp81
(I4
I5
tp82
a(I5
I5
tp83
ag78
a(I3
I6
tp84
atp85
Rp86
sg15
I8
sg31
g20
((lp87
(I1
I2
tp88
a(I7
I0
tp89
a(I4
I6
tp90
a(I7
I1
tp91
a(I3
I4
tp92
a(I1
I4
tp93
a(I7
I4
tp94
a(I0
I6
tp95
a(I4
I1
tp96
a(I5
I3
tp97
atp98
Rp99
sg13
((I3
I1
tp100
(I1
I0
tp101
(I6
I3
tp102
tp103
sg14
I7
sbs(iproblems
RoomID
p104
(dp105
g10
I7
sg11
(I6
I2
tp106
sg13
I1
sg14
I7
sg15
I9
sg16
I4112702600196473781
sb(imulti_robot_problem
MultiRobotState
p107
(dp108
g19
g20
((lp109
(I5
I4
tp110
ag106
a(I4
I5
tp111
a(I8
I6
tp112
a(I4
I4
tp113
a(I5
I3
tp114
atp115
Rp116
sg15
I9
sg31
g20
((lp117
(I0
I1
tp118
a(I6
I4
tp119
a(I1
I2
tp120
a(I6
I6
tp121
a(I0
I3
tp122
a(I6
I0
tp123
a(I0
I2
tp124
atp125
Rp126
sg13
((I4
I0
tp127
tp128
sg14
I7
sbs(iproblems
RoomID
p129
(dp130
g10
I10
sg11
(I1
I5
tp131
sg13
I3
sg14
I9
sg15
I9
sg16
I7824621506549650221
sb(imulti_robot_problem
MultiRobotState
p132
(dp133
g19
g20
((lp134
(I5
I6
tp135
a(I7
I7
tp136
ag131
a(I3
I6
tp137
a(I0
I4
tp138
a(I0
I3
tp139
a(I0
I2
tp140
a(I5
I8
tp141
atp142
Rp143
sg15
I9
sg31
g20
((lp144
(I0
I1
tp145
a(I8
I3
tp146
a(I6
I7
tp147
a(I4
I6
tp148
a(I3
I1
tp149
a(I6
I2
tp150
a(I2
I5
tp151
a(I3
I4
tp152
a(I1
I1
tp153
a(I4
I0
tp154
atp155
Rp156
sg13
((I4
I5
tp157
(I4
I8
tp158
(I7
I3
tp159
tp160
sg14
I9
sbssS'name'
p161
S'easy_roomset'
p162
sbsg161
S'LimitedTimeAStar_with_PowerHeuristic2'
p163
sS'solutions'
p164
(dp165
g8
((lp166
(F0.090000000000000011
I29
tp167
aF0.090000000000000011
tp168
sg44
((lp169
F303.31
tp170
sg76
((lp171
F300.36000000000001
tp172
sg129
((lp173
(F0.2700000000000955
I23
tp174
aF0.2700000000000955
tp175
sg104
((lp176
(F0.089999999999918145
I35
tp177
aF0.089999999999918145
tp178
ssba(imeasure_core
ProblemSetSolution
p179
(dp180
g3
(imeasure_core
RoomSet
p181
(dp182
g6
(dp183
(iproblems
RoomID
p184
(dp185
g10
I8
sg11
(I10
I0
tp186
sg13
I4
sg14
I9
sg15
I11
sg16
I1782951451934108723
sb(imulti_robot_problem
MultiRobotState
p187
(dp188
g19
g20
((lp189
(I7
I3
tp190
a(I6
I6
tp191
a(I3
I0
tp192
a(I10
I6
tp193
a(I5
I4
tp194
a(I6
I2
tp195
a(I9
I4
tp196
a(I5
I1
tp197
a(I2
I5
tp198
a(I10
I3
tp199
a(I0
I3
tp200
a(I9
I0
tp201
a(I5
I5
tp202
a(I10
I7
tp203
a(I4
I8
tp204
a(I2
I2
tp205
ag186
a(I4
I1
tp206
a(I6
I4
tp207
a(I3
I2
tp208
a(I2
I6
tp209
a(I8
I2
tp210
a(I10
I1
tp211
a(I4
I2
tp212
a(I9
I6
tp213
a(I3
I3
tp214
a(I10
I5
tp215
a(I5
I2
tp216
a(I4
I3
tp217
a(I9
I5
tp218
a(I10
I2
tp219
a(I3
I4
tp220
a(I8
I4
tp221
atp222
Rp223
sg15
I11
sg31
g20
((lp224
(I0
I1
tp225
a(I10
I8
tp226
a(I9
I2
tp227
a(I1
I4
tp228
a(I1
I8
tp229
a(I0
I4
tp230
a(I8
I6
tp231
a(I6
I5
tp232
atp233
Rp234
sg13
((I6
I1
tp235
(I2
I0
tp236
(I3
I6
tp237
(I4
I0
tp238
tp239
sg14
I9
sbs(iproblems
RoomID
p240
(dp241
g10
I10
sg11
(I7
I8
tp242
sg13
I4
sg14
I9
sg15
I10
sg16
I4360462074288489228
sb(imulti_robot_problem
MultiRobotState
p243
(dp244
g19
g20
((lp245
(I4
I7
tp246
a(I6
I8
tp247
a(I4
I8
tp248
a(I5
I6
tp249
a(I7
I7
tp250
a(I1
I4
tp251
a(I1
I6
tp252
a(I8
I6
tp253
a(I7
I0
tp254
a(I2
I5
tp255
a(I9
I6
tp256
a(I5
I8
tp257
a(I5
I5
tp258
a(I6
I7
tp259
a(I4
I6
tp260
a(I5
I7
tp261
a(I2
I0
tp262
a(I3
I6
tp263
a(I2
I3
tp264
ag242
a(I2
I4
tp265
atp266
Rp267
sg15
I10
sg31
g20
((lp268
(I9
I0
tp269
a(I1
I3
tp270
a(I4
I5
tp271
a(I7
I6
tp272
a(I7
I4
tp273
a(I1
I5
tp274
a(I1
I8
tp275
a(I0
I4
tp276
a(I9
I5
tp277
a(I5
I2
tp278
atp279
Rp280
sg13
((I4
I1
tp281
(I1
I0
tp282
(I7
I3
tp283
(I9
I2
tp284
tp285
sg14
I9
sbs(iproblems
RoomID
p286
(dp287
g10
I7
sg11
(I4
I8
tp288
sg13
I4
sg14
I11
sg15
I10
sg16
I1397683083591273672
sb(imulti_robot_problem
MultiRobotState
p289
(dp290
g19
g20
((lp291
(I6
I4
tp292
a(I4
I7
tp293
a(I0
I0
tp294
a(I9
I1
tp295
ag288
a(I3
I2
tp296
a(I1
I4
tp297
a(I8
I9
tp298
a(I2
I6
tp299
a(I2
I3
tp300
a(I8
I7
tp301
a(I3
I7
tp302
a(I2
I5
tp303
a(I5
I3
tp304
a(I1
I2
tp305
a(I4
I3
tp306
a(I4
I6
tp307
a(I7
I6
tp308
a(I3
I8
tp309
a(I7
I5
tp310
a(I3
I6
tp311
a(I8
I6
tp312
a(I7
I8
tp313
a(I6
I1
tp314
atp315
Rp316
sg15
I10
sg31
g20
((lp317
(I7
I3
tp318
a(I1
I8
tp319
a(I5
I10
tp320
a(I1
I9
tp321
a(I4
I5
tp322
a(I3
I10
tp323
a(I5
I7
tp324
atp325
Rp326
sg13
((I5
I4
tp327
(I0
I4
tp328
(I0
I7
tp329
(I9
I3
tp330
tp331
sg14
I11
sbs(iproblems
RoomID
p332
(dp333
g10
I5
sg11
(I7
I4
tp334
sg13
I3
sg14
I9
sg15
I11
sg16
I6619454674532353122
sb(imulti_robot_problem
MultiRobotState
p335
(dp336
g19
g20
((lp337
(I6
I4
tp338
a(I4
I7
tp339
a(I2
I6
tp340
a(I8
I2
tp341
a(I6
I6
tp342
a(I5
I6
tp343
a(I9
I3
tp344
a(I7
I7
tp345
a(I2
I1
tp346
a(I6
I0
tp347
a(I3
I8
tp348
a(I9
I6
tp349
a(I5
I1
tp350
a(I0
I3
tp351
a(I10
I3
tp352
a(I1
I0
tp353
a(I6
I5
tp354
a(I10
I4
tp355
a(I0
I1
tp356
a(I6
I3
tp357
a(I10
I5
tp358
a(I3
I3
tp359
a(I9
I2
tp360
a(I8
I5
tp361
a(I3
I1
tp362
a(I10
I8
tp363
ag334
a(I4
I5
tp364
a(I9
I5
tp365
a(I4
I1
tp366
atp367
Rp368
sg15
I11
sg31
g20
((lp369
(I2
I7
tp370
a(I0
I6
tp371
a(I8
I8
tp372
a(I5
I0
tp373
a(I9
I7
tp374
atp375
Rp376
sg13
((I6
I1
tp377
(I3
I0
tp378
(I8
I7
tp379
tp380
sg14
I9
sbs(iproblems
RoomID
p381
(dp382
g10
I10
sg11
(I4
I9
tp383
sg13
I3
sg14
I11
sg15
I11
sg16
I7824621506549650221
sb(imulti_robot_problem
MultiRobotState
p384
(dp385
g19
g20
((lp386
(I4
I7
tp387
a(I2
I6
tp388
a(I9
I1
tp389
a(I4
I8
tp390
a(I5
I6
tp391
a(I10
I6
tp392
a(I5
I4
tp393
a(I7
I5
tp394
a(I0
I3
tp395
a(I2
I5
tp396
a(I3
I5
tp397
a(I2
I7
tp398
ag383
a(I5
I5
tp399
a(I10
I7
tp400
a(I3
I0
tp401
a(I3
I8
tp402
a(I1
I5
tp403
a(I3
I9
tp404
a(I3
I6
tp405
a(I0
I4
tp406
a(I4
I5
tp407
a(I9
I5
tp408
a(I5
I3
tp409
a(I0
I2
tp410
atp411
Rp412
sg15
I11
sg31
g20
((lp413
(I0
I1
tp414
a(I7
I3
tp415
a(I3
I1
tp416
a(I6
I10
tp417
a(I7
I7
tp418
a(I8
I8
tp419
a(I8
I7
tp420
a(I1
I1
tp421
a(I5
I8
tp422
a(I7
I9
tp423
atp424
Rp425
sg13
((I5
I10
tp426
(I9
I4
tp427
(I5
I0
tp428
tp429
sg14
I11
sbssg161
S'mild_roomset'
p430
sbsg161
g163
sg164
(dp431
g184
((lp432
(F26.209999999999923
I26
tp433
aF26.370000000000005
tp434
sg240
((lp435
(F30.329999999999927
I15
tp436
aF30.490000000000009
tp437
sg286
((lp438
(F0.26999999999998181
I8
tp439
aF0.26999999999998181
tp440
sg381
((lp441
(F2.4200000000000728
I13
tp442
aF2.4300000000000637
tp443
sg332
((lp444
(F0.20999999999992269
I15
tp445
aF0.20999999999992269
tp446
ssba(imeasure_core
ProblemSetSolution
p447
(dp448
g3
(imeasure_core
RoomSet
p449
(dp450
g6
(dp451
(iproblems
RoomID
p452
(dp453
g10
I13
sg11
(I5
I8
tp454
sg13
I7
sg14
I10
sg15
I12
sg16
I1782951451934108723
sb(imulti_robot_problem
MultiRobotState
p455
(dp456
g19
g20
((lp457
(I6
I4
tp458
a(I4
I7
tp459
a(I2
I6
tp460
a(I8
I2
tp461
a(I4
I5
tp462
a(I4
I2
tp463
ag454
a(I3
I5
tp464
a(I2
I7
tp465
a(I6
I3
tp466
a(I4
I9
tp467
a(I4
I6
tp468
a(I10
I7
tp469
a(I3
I4
tp470
a(I7
I4
tp471
a(I0
I4
tp472
a(I10
I0
tp473
a(I5
I3
tp474
a(I5
I2
tp475
atp476
Rp477
sg15
I12
sg31
g20
((lp478
(I10
I5
tp479
a(I11
I8
tp480
a(I11
I9
tp481
a(I1
I4
tp482
a(I7
I5
tp483
a(I0
I5
tp484
a(I1
I9
tp485
a(I9
I4
tp486
a(I3
I7
tp487
a(I4
I0
tp488
a(I10
I3
tp489
a(I1
I1
tp490
a(I9
I7
tp491
atp492
Rp493
sg13
((I7
I1
tp494
(I11
I6
tp495
(I9
I5
tp496
(I3
I3
tp497
(I2
I0
tp498
(I4
I3
tp499
(I7
I6
tp500
tp501
sg14
I10
sbs(iproblems
RoomID
p502
(dp503
g10
I15
sg11
(I3
I11
tp504
sg13
I5
sg14
I12
sg15
I10
sg16
I5781121967740482655
sb(imulti_robot_problem
MultiRobotState
p505
(dp506
g19
g20
((lp507
(I1
I3
tp508
a(I5
I11
tp509
a(I6
I11
tp510
ag504
a(I2
I10
tp511
a(I0
I9
tp512
a(I0
I0
tp513
a(I0
I10
tp514
a(I5
I8
tp515
a(I4
I0
tp516
a(I2
I7
tp517
a(I6
I7
tp518
a(I4
I6
tp519
a(I2
I9
tp520
a(I9
I2
tp521
a(I3
I10
tp522
a(I5
I7
tp523
a(I2
I11
tp524
a(I7
I5
tp525
a(I4
I11
tp526
a(I2
I2
tp527
a(I1
I10
tp528
a(I3
I5
tp529
a(I7
I8
tp530
a(I2
I4
tp531
a(I1
I9
tp532
atp533
Rp534
sg15
I10
sg31
g20
((lp535
(I5
I4
tp536
a(I9
I5
tp537
a(I9
I1
tp538
a(I1
I5
tp539
a(I5
I6
tp540
a(I6
I1
tp541
a(I9
I10
tp542
a(I3
I0
tp543
a(I4
I3
tp544
a(I1
I7
tp545
a(I7
I11
tp546
a(I2
I5
tp547
a(I3
I4
tp548
a(I6
I5
tp549
a(I3
I3
tp550
atp551
Rp552
sg13
((I0
I8
tp553
(I0
I11
tp554
(I5
I1
tp555
(I7
I7
tp556
(I9
I9
tp557
tp558
sg14
I12
sbs(iproblems
RoomID
p559
(dp560
g10
I15
sg11
(I5
I6
tp561
sg13
I6
sg14
I12
sg15
I12
sg16
I7824621506549650221
sb(imulti_robot_problem
MultiRobotState
p562
(dp563
g19
g20
((lp564
(I5
I9
tp565
a(I5
I4
tp566
a(I9
I1
tp567
a(I4
I8
tp568
ag561
a(I4
I7
tp569
a(I2
I10
tp570
a(I3
I9
tp571
a(I1
I6
tp572
a(I0
I3
tp573
a(I6
I5
tp574
a(I3
I5
tp575
a(I2
I7
tp576
a(I11
I7
tp577
a(I0
I5
tp578
a(I5
I7
tp579
a(I3
I0
tp580
a(I0
I4
tp581
a(I8
I6
tp582
atp583
Rp584
sg15
I12
sg31
g20
((lp585
(I10
I5
tp586
a(I0
I2
tp587
a(I4
I6
tp588
a(I4
I5
tp589
a(I7
I8
tp590
a(I9
I8
tp591
a(I6
I9
tp592
a(I9
I9
tp593
a(I8
I9
tp594
a(I5
I8
tp595
a(I4
I2
tp596
a(I7
I11
tp597
a(I8
I5
tp598
a(I1
I1
tp599
a(I11
I6
tp600
atp601
Rp602
sg13
((I6
I6
tp603
(I5
I10
tp604
(I9
I4
tp605
(I5
I0
tp606
(I3
I7
tp607
(I8
I3
tp608
tp609
sg14
I12
sbs(iproblems
RoomID
p610
(dp611
g10
I12
sg11
(I5
I1
tp612
sg13
I5
sg14
I10
sg15
I12
sg16
I4112702600196473781
sb(imulti_robot_problem
MultiRobotState
p613
(dp614
g19
g20
((lp615
(I2
I6
tp616
a(I6
I6
tp617
a(I9
I8
tp618
a(I6
I0
tp619
a(I11
I3
tp620
a(I1
I3
tp621
a(I0
I5
tp622
ag612
a(I0
I3
tp623
a(I7
I0
tp624
a(I8
I1
tp625
a(I7
I6
tp626
a(I9
I9
tp627
a(I0
I2
tp628
a(I11
I8
tp629
a(I7
I5
tp630
a(I9
I5
tp631
a(I2
I4
tp632
a(I8
I4
tp633
atp634
Rp635
sg15
I12
sg31
g20
((lp636
(I4
I7
tp637
a(I11
I9
tp638
a(I6
I7
tp639
a(I11
I5
tp640
a(I2
I8
tp641
a(I5
I7
tp642
a(I1
I4
tp643
a(I8
I9
tp644
a(I6
I2
tp645
a(I9
I4
tp646
a(I10
I0
tp647
a(I10
I9
tp648
atp649
Rp650
sg13
((I6
I1
tp651
(I0
I4
tp652
(I5
I6
tp653
(I1
I5
tp654
(I8
I6
tp655
tp656
sg14
I10
sbs(iproblems
RoomID
p657
(dp658
g10
I10
sg11
(I4
I4
tp659
sg13
I6
sg14
I10
sg15
I12
sg16
I6619454674532353122
sb(imulti_robot_problem
MultiRobotState
p660
(dp661
g19
g20
((lp662
(I2
I6
tp663
a(I5
I0
tp664
a(I6
I6
tp665
a(I4
I5
tp666
a(I10
I6
tp667
a(I1
I4
tp668
a(I4
I6
tp669
a(I7
I5
tp670
a(I5
I1
tp671
a(I0
I3
tp672
a(I6
I5
tp673
a(I4
I0
tp674
a(I10
I8
tp675
a(I5
I5
tp676
a(I11
I5
tp677
a(I10
I7
tp678
a(I6
I1
tp679
ag659
a(I11
I9
tp680
a(I5
I2
tp681
a(I11
I6
tp682
atp683
Rp684
sg15
I12
sg31
g20
((lp685
(I2
I7
tp686
a(I6
I7
tp687
a(I3
I3
tp688
a(I3
I4
tp689
a(I9
I9
tp690
a(I2
I1
tp691
a(I9
I4
tp692
a(I11
I4
tp693
a(I4
I9
tp694
a(I9
I6
tp695
atp696
Rp697
sg13
((I4
I1
tp698
(I8
I8
tp699
(I2
I8
tp700
(I8
I9
tp701
(I0
I7
tp702
(I6
I0
tp703
tp704
sg14
I10
sbssg161
S'heavy_roomset'
p705
sbsg161
g163
sg164
(dp706
g452
((lp707
F306.80999999999995
tp708
sg502
((lp709
(F22.590000000000032
I25
tp710
aF22.740000000000009
tp711
sg559
((lp712
(F170.07999999999993
I25
tp713
aF171.36000000000013
tp714
sg610
((lp715
F302.45999999999981
tp716
sg657
((lp717
F302.98000000000002
tp718
ssba.