(lp0
(imeasure_core
ProblemSetSolution
p1
(dp2
S'roomset'
p3
(imeasure_core
RoomSet
p4
(dp5
S'rooms'
p6
(dp7
(iproblems
RoomID
p8
(dp9
S'dusts'
p10
I7
sS'obstacles'
p11
(I1
I3
tp12
sS'robots'
p13
I1
sS'height'
p14
I7
sS'width'
p15
I9
sS'seed'
p16
I1486246605650367638
sb(imulti_robot_problem
MultiRobotState
p17
(dp18
S'obstacle_locations'
p19
c__builtin__
frozenset
p20
((lp21
(I0
I1
tp22
a(I8
I3
tp23
ag12
a(I0
I3
tp24
a(I0
I2
tp25
atp26
Rp27
sg15
I9
sS'dirt_locations'
p28
g20
((lp29
(I7
I5
tp30
a(I7
I0
tp31
a(I0
I4
tp32
a(I1
I0
tp33
a(I4
I4
tp34
a(I6
I5
tp35
a(I4
I0
tp36
atp37
Rp38
sg13
((I5
I1
tp39
tp40
sg14
I7
sbs(iproblems
RoomID
p41
(dp42
g10
I9
sg11
(I7
I5
tp43
sg13
I4
sg14
I10
sg15
I10
sg16
I679259829289197625
sb(imulti_robot_problem
MultiRobotState
p44
(dp45
g19
g20
((lp46
(I9
I6
tp47
a(I8
I6
tp48
a(I7
I6
tp49
ag43
a(I7
I0
tp50
atp51
Rp52
sg15
I10
sg28
g20
((lp53
(I5
I4
tp54
a(I2
I6
tp55
a(I7
I1
tp56
a(I6
I1
tp57
a(I1
I6
tp58
a(I0
I5
tp59
a(I8
I7
tp60
a(I0
I9
tp61
a(I9
I5
tp62
atp63
Rp64
sg13
((I7
I8
tp65
(I6
I7
tp66
(I3
I5
tp67
(I3
I9
tp68
tp69
sg14
I10
sbs(iproblems
RoomID
p70
(dp71
g10
I5
sg11
(I3
I4
tp72
sg13
I1
sg14
I9
sg15
I9
sg16
I2685440357799139976
sb(imulti_robot_problem
MultiRobotState
p73
(dp74
g19
g20
((lp75
(I8
I3
tp76
a(I1
I3
tp77
a(I5
I6
tp78
ag72
a(I2
I4
tp79
a(I3
I8
tp80
a(I2
I3
tp81
a(I7
I8
tp82
a(I1
I1
tp83
atp84
Rp85
sg15
I9
sg28
g20
((lp86
(I0
I1
tp87
a(I0
I0
tp88
a(I3
I1
tp89
a(I8
I7
tp90
a(I5
I0
tp91
atp92
Rp93
sg13
((I5
I5
tp94
tp95
sg14
I9
sbs(iproblems
RoomID
p96
(dp97
g10
I6
sg11
(I1
I6
tp98
sg13
I4
sg14
I8
sg15
I10
sg16
I403795515464475257
sb(imulti_robot_problem
MultiRobotState
p99
(dp100
g19
g20
((lp101
(I8
I3
tp102
a(I1
I3
tp103
a(I6
I7
tp104
a(I0
I4
tp105
ag98
a(I4
I1
tp106
a(I0
I5
tp107
atp108
Rp109
sg15
I10
sg28
g20
((lp110
(I7
I3
tp111
a(I4
I7
tp112
a(I2
I2
tp113
a(I8
I0
tp114
a(I0
I2
tp115
a(I0
I7
tp116
atp117
Rp118
sg13
((I8
I2
tp119
(I6
I1
tp120
(I5
I0
tp121
(I2
I0
tp122
tp123
sg14
I8
sbs(iproblems
RoomID
p124
(dp125
g10
I6
sg11
(I4
I4
tp126
sg13
I4
sg14
I9
sg15
I9
sg16
I5891625650498269233
sb(imulti_robot_problem
MultiRobotState
p127
(dp128
g19
g20
((lp129
(I2
I7
tp130
a(I4
I5
tp131
ag126
a(I3
I6
tp132
atp133
Rp134
sg15
I9
sg28
g20
((lp135
(I7
I4
tp136
a(I8
I3
tp137
a(I0
I5
tp138
a(I5
I5
tp139
a(I6
I6
tp140
a(I4
I0
tp141
atp142
Rp143
sg13
((I4
I6
tp144
(I7
I1
tp145
(I0
I4
tp146
(I7
I2
tp147
tp148
sg14
I9
sbssS'name'
p149
S'easy_roomset'
p150
sbsg149
S'AnytimeBest-dinf_with_PowerHeuristic2'
p151
sS'solutions'
p152
(dp153
g8
((lp154
(F0.31000000000040018
I45
tp155
a(F1.1899999999995998
I44
tp156
a(F1.4099999999998545
I37
tp157
a(F2.0500000000001819
I36
tp158
a(F2.2600000000002183
I34
tp159
a(F5.0500000000001819
I33
tp160
a(F5.8599999999996726
I31
tp161
a(F8.1099999999996726
I30
tp162
a(F9.2600000000002183
I28
tp163
a(F9.5799999999999272
I26
tp164
a(F14.9399999999996
I25
tp165
a(F18.460000000000036
I24
tp166
aF24.289999999999964
tp167
sg41
((lp168
(F0.8000000000001819
I20
tp169
aF40.020000000000437
tp170
sg70
((lp171
(F0.27999999999974534
I47
tp172
a(F2.1499999999996362
I45
tp173
a(F2.4699999999993452
I43
tp174
a(F2.7899999999999636
I35
tp175
a(F4.3499999999994543
I33
tp176
a(F5.0199999999995271
I31
tp177
a(F5.6099999999996726
I29
tp178
a(F7.9399999999995998
I27
tp179
a(F10.3799999999992
I25
tp180
a(F10.699999999999818
I23
tp181
aF10.799999999999272
tp182
sg96
((lp183
(F11.619999999999891
I134
tp184
aF40.030000000000655
tp185
sg124
((lp186
(F0.40999999999985448
I8
tp187
aF40.049999999999272
tp188
ssba(imeasure_core
ProblemSetSolution
p189
(dp190
g3
(imeasure_core
RoomSet
p191
(dp192
g6
(dp193
(iproblems
RoomID
p194
(dp195
g10
I9
sg11
(I7
I7
tp196
sg13
I4
sg14
I12
sg15
I12
sg16
I679259829289197625
sb(imulti_robot_problem
MultiRobotState
p197
(dp198
g19
g20
((lp199
(I6
I4
tp200
a(I6
I9
tp201
a(I6
I6
tp202
a(I5
I6
tp203
a(I9
I8
tp204
a(I11
I9
tp205
ag196
a(I1
I4
tp206
a(I11
I7
tp207
a(I7
I5
tp208
a(I8
I7
tp209
a(I4
I2
tp210
a(I8
I5
tp211
a(I6
I5
tp212
a(I10
I8
tp213
a(I10
I5
tp214
a(I6
I7
tp215
a(I6
I8
tp216
a(I10
I7
tp217
a(I9
I6
tp218
a(I7
I6
tp219
a(I8
I10
tp220
a(I7
I4
tp221
a(I11
I8
tp222
a(I7
I10
tp223
a(I8
I6
tp224
a(I6
I1
tp225
a(I9
I7
tp226
atp227
Rp228
sg15
I12
sg28
g20
((lp229
(I2
I7
tp230
a(I9
I0
tp231
a(I8
I2
tp232
a(I7
I1
tp233
a(I11
I0
tp234
a(I0
I11
tp235
a(I1
I6
tp236
a(I1
I7
tp237
a(I11
I6
tp238
atp239
Rp240
sg13
((I9
I10
tp241
(I8
I9
tp242
(I3
I7
tp243
(I3
I11
tp244
tp245
sg14
I12
sbs(iproblems
RoomID
p246
(dp247
g10
I5
sg11
(I9
I1
tp248
sg13
I3
sg14
I11
sg15
I11
sg16
I2685440357799139976
sb(imulti_robot_problem
MultiRobotState
p249
(dp250
g19
g20
((lp251
(I7
I3
tp252
a(I10
I4
tp253
a(I9
I3
tp254
ag248
a(I7
I1
tp255
a(I5
I6
tp256
a(I10
I6
tp257
a(I1
I4
tp258
a(I9
I9
tp259
a(I3
I9
tp260
a(I9
I4
tp261
a(I6
I8
tp262
a(I9
I6
tp263
a(I3
I4
tp264
a(I10
I3
tp265
a(I7
I2
tp266
a(I5
I3
tp267
a(I8
I3
tp268
a(I5
I5
tp269
a(I10
I7
tp270
a(I8
I5
tp271
a(I9
I2
tp272
a(I3
I6
tp273
a(I4
I5
tp274
a(I6
I5
tp275
a(I7
I10
tp276
a(I9
I5
tp277
a(I3
I5
tp278
a(I7
I8
tp279
a(I2
I4
tp280
a(I10
I9
tp281
atp282
Rp283
sg15
I11
sg28
g20
((lp284
(I1
I2
tp285
a(I9
I10
tp286
a(I6
I1
tp287
a(I4
I1
tp288
a(I0
I2
tp289
atp290
Rp291
sg13
((I6
I6
tp292
(I0
I0
tp293
(I10
I8
tp294
tp295
sg14
I11
sbs(iproblems
RoomID
p296
(dp297
g10
I10
sg11
(I1
I5
tp298
sg13
I4
sg14
I12
sg15
I10
sg16
I1737871632067391849
sb(imulti_robot_problem
MultiRobotState
p299
(dp300
g19
g20
((lp301
(I3
I2
tp302
a(I0
I0
tp303
a(I6
I6
tp304
a(I5
I6
tp305
a(I2
I8
tp306
a(I2
I10
tp307
a(I8
I9
tp308
a(I6
I2
tp309
a(I2
I3
tp310
a(I8
I7
tp311
a(I5
I1
tp312
a(I8
I5
tp313
a(I5
I8
tp314
a(I8
I3
tp315
a(I5
I5
tp316
a(I7
I8
tp317
a(I7
I6
tp318
a(I8
I10
tp319
ag298
a(I6
I5
tp320
a(I2
I2
tp321
a(I4
I1
tp322
a(I2
I4
tp323
atp324
Rp325
sg15
I10
sg28
g20
((lp326
(I0
I1
tp327
a(I4
I10
tp328
a(I4
I8
tp329
a(I3
I0
tp330
a(I9
I6
tp331
a(I3
I10
tp332
a(I5
I11
tp333
a(I2
I7
tp334
a(I1
I9
tp335
a(I3
I4
tp336
atp337
Rp338
sg13
((I4
I9
tp339
(I8
I11
tp340
(I4
I0
tp341
(I3
I9
tp342
tp343
sg14
I12
sbs(iproblems
RoomID
p344
(dp345
g10
I7
sg11
(I8
I8
tp346
sg13
I3
sg14
I9
sg15
I9
sg16
I7834319822419845881
sb(imulti_robot_problem
MultiRobotState
p347
(dp348
g19
g20
((lp349
(I4
I7
tp350
a(I1
I3
tp351
a(I5
I0
tp352
a(I6
I6
tp353
a(I5
I6
tp354
a(I2
I8
tp355
a(I3
I5
tp356
a(I4
I6
tp357
a(I2
I6
tp358
a(I0
I5
tp359
a(I3
I7
tp360
a(I0
I3
tp361
a(I0
I8
tp362
a(I8
I5
tp363
a(I5
I8
tp364
a(I3
I3
tp365
a(I2
I7
tp366
a(I6
I7
tp367
a(I5
I5
tp368
a(I7
I8
tp369
a(I4
I4
tp370
a(I1
I5
tp371
a(I1
I8
tp372
ag346
a(I3
I6
tp373
a(I1
I7
tp374
a(I4
I5
tp375
a(I5
I3
tp376
a(I3
I4
tp377
atp378
Rp379
sg15
I9
sg28
g20
((lp380
(I7
I4
tp381
a(I2
I0
tp382
a(I6
I2
tp383
a(I7
I0
tp384
a(I8
I7
tp385
a(I7
I1
tp386
a(I1
I4
tp387
atp388
Rp389
sg13
((I2
I1
tp390
(I2
I3
tp391
(I5
I7
tp392
tp393
sg14
I9
sbs(iproblems
RoomID
p394
(dp395
g10
I6
sg11
(I3
I9
tp396
sg13
I4
sg14
I11
sg15
I11
sg16
I5891625650498269233
sb(imulti_robot_problem
MultiRobotState
p397
(dp398
g19
g20
((lp399
(I7
I3
tp400
a(I4
I7
tp401
a(I6
I6
tp402
a(I5
I6
tp403
a(I2
I8
tp404
a(I6
I2
tp405
a(I5
I1
tp406
a(I3
I7
tp407
a(I8
I5
tp408
a(I5
I5
tp409
a(I2
I9
tp410
a(I7
I6
tp411
a(I4
I4
tp412
a(I2
I2
tp413
a(I1
I1
tp414
a(I9
I7
tp415
a(I3
I2
tp416
a(I10
I4
tp417
a(I4
I5
tp418
a(I9
I3
tp419
a(I10
I5
tp420
a(I2
I10
tp421
a(I7
I5
tp422
a(I2
I3
tp423
a(I8
I3
tp424
a(I4
I6
tp425
a(I5
I2
tp426
a(I6
I1
tp427
a(I3
I8
tp428
a(I1
I8
tp429
ag396
a(I4
I3
tp430
a(I9
I5
tp431
a(I3
I4
tp432
a(I8
I4
tp433
atp434
Rp435
sg15
I11
sg28
g20
((lp436
(I8
I8
tp437
a(I5
I10
tp438
a(I9
I1
tp439
a(I10
I7
tp440
a(I1
I6
tp441
a(I7
I9
tp442
atp443
Rp444
sg13
((I5
I7
tp445
(I8
I1
tp446
(I0
I5
tp447
(I4
I0
tp448
tp449
sg14
I11
sbssg149
S'mild_roomset'
p450
sbsg149
g151
sg152
(dp451
g194
((lp452
F40.350000000000364
tp453
sg246
((lp454
(F8.6300000000001091
I127
tp455
aF40.020000000000437
tp456
sg394
((lp457
(F3.4799999999995634
I64
tp458
aF40.029999999999745
tp459
sg296
((lp460
(F0.3499999999994543
I12
tp461
aF40.029999999999745
tp462
sg344
((lp463
(F0.090000000000145519
I25
tp464
aF40.010000000000218
tp465
ssba(imeasure_core
ProblemSetSolution
p466
(dp467
g3
(imeasure_core
RoomSet
p468
(dp469
g6
(dp470
(iproblems
RoomID
p471
(dp472
g10
I12
sg11
(I6
I3
tp473
sg13
I5
sg14
I10
sg15
I12
sg16
I1486246605650367638
sb(imulti_robot_problem
MultiRobotState
p474
(dp475
g19
g20
((lp476
(I5
I9
tp477
a(I1
I3
tp478
a(I7
I1
tp479
a(I2
I7
tp480
a(I1
I4
tp481
a(I6
I2
tp482
a(I1
I6
tp483
a(I2
I1
tp484
a(I0
I3
tp485
a(I6
I5
tp486
a(I1
I2
tp487
a(I1
I5
tp488
a(I4
I1
tp489
a(I3
I1
tp490
ag473
a(I2
I0
tp491
a(I10
I0
tp492
a(I5
I2
tp493
a(I1
I1
tp494
a(I8
I4
tp495
atp496
Rp497
sg15
I12
sg28
g20
((lp498
(I11
I7
tp499
a(I11
I4
tp500
a(I9
I1
tp501
a(I11
I8
tp502
a(I2
I8
tp503
a(I6
I0
tp504
a(I0
I6
tp505
a(I11
I1
tp506
a(I0
I4
tp507
a(I4
I9
tp508
a(I10
I9
tp509
a(I9
I7
tp510
atp511
Rp512
sg13
((I2
I4
tp513
(I10
I1
tp514
(I2
I5
tp515
(I9
I8
tp516
(I6
I6
tp517
tp518
sg14
I10
sbs(iproblems
RoomID
p519
(dp520
g10
I14
sg11
(I7
I6
tp521
sg13
I7
sg14
I13
sg15
I13
sg16
I679259829289197625
sb(imulti_robot_problem
MultiRobotState
p522
(dp523
g19
g20
((lp524
(I6
I4
tp525
a(I4
I8
tp526
a(I12
I7
tp527
a(I10
I6
tp528
a(I7
I5
tp529
a(I12
I11
tp530
a(I9
I6
tp531
a(I1
I2
tp532
a(I11
I7
tp533
a(I10
I7
tp534
ag521
a(I6
I3
tp535
a(I6
I2
tp536
a(I4
I3
tp537
a(I3
I4
tp538
a(I12
I8
tp539
atp540
Rp541
sg15
I13
sg28
g20
((lp542
(I2
I7
tp543
a(I12
I1
tp544
a(I9
I2
tp545
a(I2
I8
tp546
a(I5
I7
tp547
a(I10
I0
tp548
a(I1
I4
tp549
a(I0
I12
tp550
a(I7
I4
tp551
a(I10
I9
tp552
a(I4
I2
tp553
a(I11
I4
tp554
a(I11
I6
tp555
a(I1
I9
tp556
atp557
Rp558
sg13
((I9
I11
tp559
(I9
I10
tp560
(I4
I7
tp561
(I4
I12
tp562
(I7
I1
tp563
(I1
I8
tp564
(I1
I6
tp565
tp566
sg14
I13
sbs(iproblems
RoomID
p567
(dp568
g10
I11
sg11
(I11
I9
tp569
sg13
I7
sg14
I12
sg15
I12
sg16
I5891625650498269233
sb(imulti_robot_problem
MultiRobotState
p570
(dp571
g19
g20
((lp572
(I4
I4
tp573
a(I4
I8
tp574
a(I5
I6
tp575
a(I8
I11
tp576
ag569
a(I7
I7
tp577
a(I7
I1
tp578
a(I9
I10
tp579
a(I3
I9
tp580
a(I1
I9
tp581
a(I6
I7
tp582
a(I10
I7
tp583
a(I7
I6
tp584
a(I5
I7
tp585
a(I2
I11
tp586
a(I6
I11
tp587
a(I9
I11
tp588
a(I7
I10
tp589
a(I10
I9
tp590
atp591
Rp592
sg15
I12
sg28
g20
((lp593
(I11
I7
tp594
a(I11
I4
tp595
a(I4
I6
tp596
a(I5
I11
tp597
a(I8
I10
tp598
a(I0
I5
tp599
a(I8
I7
tp600
a(I1
I7
tp601
a(I10
I1
tp602
a(I1
I1
tp603
a(I5
I5
tp604
atp605
Rp606
sg13
((I6
I8
tp607
(I9
I2
tp608
(I0
I6
tp609
(I10
I3
tp610
(I9
I5
tp611
(I5
I0
tp612
(I9
I8
tp613
tp614
sg14
I12
sbs(iproblems
RoomID
p615
(dp616
g10
I10
sg11
(I6
I9
tp617
sg13
I5
sg14
I12
sg15
I12
sg16
I2685440357799139976
sb(imulti_robot_problem
MultiRobotState
p618
(dp619
g19
g20
((lp620
(I4
I10
tp621
ag617
a(I9
I1
tp622
a(I5
I11
tp623
a(I3
I0
tp624
a(I0
I7
tp625
a(I3
I9
tp626
a(I0
I5
tp627
a(I1
I4
tp628
a(I0
I3
tp629
a(I4
I0
tp630
a(I1
I2
tp631
a(I11
I10
tp632
a(I6
I10
tp633
a(I5
I6
tp634
a(I9
I11
tp635
a(I7
I9
tp636
a(I4
I5
tp637
a(I3
I5
tp638
a(I3
I4
tp639
a(I2
I4
tp640
a(I1
I9
tp641
atp642
Rp643
sg15
I12
sg28
g20
((lp644
(I11
I7
tp645
a(I8
I3
tp646
a(I10
I11
tp647
a(I7
I1
tp648
a(I10
I5
tp649
a(I8
I10
tp650
a(I6
I3
tp651
a(I3
I6
tp652
a(I9
I10
tp653
a(I6
I5
tp654
atp655
Rp656
sg13
((I7
I7
tp657
(I0
I0
tp658
(I11
I9
tp659
(I0
I2
tp660
(I4
I1
tp661
tp662
sg14
I12
sbs(iproblems
RoomID
p663
(dp664
g10
I11
sg11
(I2
I7
tp665
sg13
I6
sg14
I11
sg15
I13
sg16
I403795515464475257
sb(imulti_robot_problem
MultiRobotState
p666
(dp667
g19
g20
((lp668
g665
a(I10
I8
tp669
a(I1
I7
tp670
a(I3
I10
tp671
a(I4
I4
tp672
a(I1
I4
tp673
a(I12
I5
tp674
a(I0
I6
tp675
a(I0
I5
tp676
a(I3
I6
tp677
a(I2
I2
tp678
a(I0
I8
tp679
a(I7
I9
tp680
atp681
Rp682
sg15
I13
sg28
g20
((lp683
(I6
I4
tp684
a(I0
I0
tp685
a(I2
I9
tp686
a(I11
I5
tp687
a(I8
I9
tp688
a(I11
I1
tp689
a(I2
I3
tp690
a(I1
I10
tp691
a(I12
I2
tp692
a(I0
I3
tp693
a(I5
I2
tp694
atp695
Rp696
sg13
((I10
I3
tp697
(I7
I2
tp698
(I7
I0
tp699
(I3
I1
tp700
(I5
I10
tp701
(I9
I4
tp702
tp703
sg14
I11
sbssg149
S'heavy_roomset'
p704
sbsg149
g151
sg152
(dp705
g471
((lp706
(F31.260000000000218
I113
tp707
aF40.1899999999996
tp708
sg519
((lp709
F43.690000000000509
tp710
sg567
((lp711
F47.380000000000109
tp712
sg615
((lp713
(F5.8999999999996362
I58
tp714
aF40.389999999999418
tp715
sg663
((lp716
(F26.0600000000004
I19
tp717
aF40.280000000000655
tp718
ssba(imeasure_core
ProblemSetSolution
p719
(dp720
g3
g4
sg149
S'AnytimeBest-dinf_with_LinearHeuristic'
p721
sg152
(dp722
g8
((lp723
(F0.019999999999527063
I24
tp724
aF40.0
tp725
sg41
((lp726
F40.069999999999709
tp727
sg70
((lp728
(F0.019999999999527063
I23
tp729
aF8.4399999999995998
tp730
sg96
((lp731
F40.100000000000364
tp732
sg124
((lp733
(F0.31999999999970896
I4
tp734
aF40.1899999999996
tp735
ssba(imeasure_core
ProblemSetSolution
p736
(dp737
g3
g191
sg149
g721
sg152
(dp738
g194
((lp739
F40.0600000000004
tp740
sg246
((lp741
F40.079999999999927
tp742
sg394
((lp743
F40.329999999999927
tp744
sg296
((lp745
F40.109999999999673
tp746
sg344
((lp747
F40.0600000000004
tp748
ssba(imeasure_core
ProblemSetSolution
p749
(dp750
g3
g468
sg149
g721
sg152
(dp751
g471
((lp752
F40.199999999999818
tp753
sg519
((lp754
F52.380000000000109
tp755
sg567
((lp756
F41.010000000000218
tp757
sg615
((lp758
F40.510000000000218
tp759
sg663
((lp760
(F21.8799999999992
I10
tp761
aF42.920000000000073
tp762
ssba.