(lp0
(imeasure_core
ProblemSetSolution
p1
(dp2
S'roomset'
p3
(imeasure_core
RoomSet
p4
(dp5
S'rooms'
p6
(dp7
(iproblems
RoomID
p8
(dp9
S'dusts'
p10
I7
sS'obstacles'
p11
(I1
I3
tp12
sS'robots'
p13
I1
sS'height'
p14
I7
sS'width'
p15
I9
sS'seed'
p16
I1486246605650367638
sb(imulti_robot_problem
MultiRobotState
p17
(dp18
S'obstacle_locations'
p19
c__builtin__
frozenset
p20
((lp21
(I0
I1
tp22
a(I8
I3
tp23
ag12
a(I0
I3
tp24
a(I0
I2
tp25
atp26
Rp27
sg15
I9
sS'dirt_locations'
p28
g20
((lp29
(I7
I5
tp30
a(I7
I0
tp31
a(I0
I4
tp32
a(I1
I0
tp33
a(I4
I4
tp34
a(I6
I5
tp35
a(I4
I0
tp36
atp37
Rp38
sg13
((I5
I1
tp39
tp40
sg14
I7
sbs(iproblems
RoomID
p41
(dp42
g10
I9
sg11
(I7
I5
tp43
sg13
I4
sg14
I10
sg15
I10
sg16
I679259829289197625
sb(imulti_robot_problem
MultiRobotState
p44
(dp45
g19
g20
((lp46
(I9
I6
tp47
a(I8
I6
tp48
a(I7
I6
tp49
ag43
a(I7
I0
tp50
atp51
Rp52
sg15
I10
sg28
g20
((lp53
(I5
I4
tp54
a(I2
I6
tp55
a(I7
I1
tp56
a(I6
I1
tp57
a(I1
I6
tp58
a(I0
I5
tp59
a(I8
I7
tp60
a(I0
I9
tp61
a(I9
I5
tp62
atp63
Rp64
sg13
((I7
I8
tp65
(I6
I7
tp66
(I3
I5
tp67
(I3
I9
tp68
tp69
sg14
I10
sbs(iproblems
RoomID
p70
(dp71
g10
I6
sg11
(I4
I4
tp72
sg13
I4
sg14
I9
sg15
I9
sg16
I5891625650498269233
sb(imulti_robot_problem
MultiRobotState
p73
(dp74
g19
g20
((lp75
(I2
I7
tp76
a(I4
I5
tp77
ag72
a(I3
I6
tp78
atp79
Rp80
sg15
I9
sg28
g20
((lp81
(I7
I4
tp82
a(I8
I3
tp83
a(I0
I5
tp84
a(I5
I5
tp85
a(I6
I6
tp86
a(I4
I0
tp87
atp88
Rp89
sg13
((I4
I6
tp90
(I7
I1
tp91
(I0
I4
tp92
(I7
I2
tp93
tp94
sg14
I9
sbs(iproblems
RoomID
p95
(dp96
g10
I6
sg11
(I1
I6
tp97
sg13
I4
sg14
I8
sg15
I10
sg16
I403795515464475257
sb(imulti_robot_problem
MultiRobotState
p98
(dp99
g19
g20
((lp100
(I8
I3
tp101
a(I1
I3
tp102
a(I6
I7
tp103
a(I0
I4
tp104
ag97
a(I4
I1
tp105
a(I0
I5
tp106
atp107
Rp108
sg15
I10
sg28
g20
((lp109
(I7
I3
tp110
a(I4
I7
tp111
a(I2
I2
tp112
a(I8
I0
tp113
a(I0
I2
tp114
a(I0
I7
tp115
atp116
Rp117
sg13
((I8
I2
tp118
(I6
I1
tp119
(I5
I0
tp120
(I2
I0
tp121
tp122
sg14
I8
sbs(iproblems
RoomID
p123
(dp124
g10
I5
sg11
(I3
I4
tp125
sg13
I1
sg14
I9
sg15
I9
sg16
I2685440357799139976
sb(imulti_robot_problem
MultiRobotState
p126
(dp127
g19
g20
((lp128
(I8
I3
tp129
a(I1
I3
tp130
a(I5
I6
tp131
ag125
a(I2
I4
tp132
a(I3
I8
tp133
a(I2
I3
tp134
a(I7
I8
tp135
a(I1
I1
tp136
atp137
Rp138
sg15
I9
sg28
g20
((lp139
(I0
I1
tp140
a(I0
I0
tp141
a(I3
I1
tp142
a(I8
I7
tp143
a(I5
I0
tp144
atp145
Rp146
sg13
((I5
I5
tp147
tp148
sg14
I9
sbssS'name'
p149
S'easy_roomset'
p150
sbsg149
S"AnytimeBeam-w20-gf(1.3, 'exp')_with_PowerHeuristic2"
p151
sS'solutions'
p152
(dp153
g8
((lp154
(F0.11000000000058208
I45
tp155
a(F2.1899999999986903
I44
tp156
a(F2.819999999999709
I37
tp157
a(F3.4399999999986903
I36
tp158
a(F4.0800000000017462
I34
tp159
a(F6.1899999999986903
I33
tp160
a(F8.4700000000011642
I31
tp161
a(F11.459999999999127
I30
tp162
a(F14.700000000000728
I28
tp163
a(F17.150000000001455
I26
tp164
a(F22.18999999999869
I25
tp165
a(F28.709999999999127
I24
tp166
aF40.0
tp167
sg41
((lp168
(F0.79000000000087311
I20
tp169
aF40.209999999999127
tp170
sg70
((lp171
(F0.42000000000189175
I8
tp172
aF40.370000000002619
tp173
sg95
((lp174
(F6.9899999999979627
I134
tp175
aF40.090000000000146
tp176
sg123
((lp177
(F0.069999999999708962
I41
tp178
a(F2.0299999999988358
I35
tp179
a(F3.1799999999966531
I33
tp180
a(F4.4499999999970896
I31
tp181
a(F5.7699999999967986
I29
tp182
a(F8.1199999999989814
I27
tp183
a(F11.389999999999418
I25
tp184
a(F14.139999999999418
I23
tp185
aF40.0
tp186
ssba(imeasure_core
ProblemSetSolution
p187
(dp188
g3
(imeasure_core
RoomSet
p189
(dp190
g6
(dp191
(iproblems
RoomID
p192
(dp193
g10
I9
sg11
(I7
I7
tp194
sg13
I4
sg14
I12
sg15
I12
sg16
I679259829289197625
sb(imulti_robot_problem
MultiRobotState
p195
(dp196
g19
g20
((lp197
(I6
I4
tp198
a(I6
I9
tp199
a(I6
I6
tp200
a(I5
I6
tp201
a(I9
I8
tp202
a(I11
I9
tp203
ag194
a(I1
I4
tp204
a(I11
I7
tp205
a(I7
I5
tp206
a(I8
I7
tp207
a(I4
I2
tp208
a(I8
I5
tp209
a(I6
I5
tp210
a(I10
I8
tp211
a(I10
I5
tp212
a(I6
I7
tp213
a(I6
I8
tp214
a(I10
I7
tp215
a(I9
I6
tp216
a(I7
I6
tp217
a(I8
I10
tp218
a(I7
I4
tp219
a(I11
I8
tp220
a(I7
I10
tp221
a(I8
I6
tp222
a(I6
I1
tp223
a(I9
I7
tp224
atp225
Rp226
sg15
I12
sg28
g20
((lp227
(I2
I7
tp228
a(I9
I0
tp229
a(I8
I2
tp230
a(I7
I1
tp231
a(I11
I0
tp232
a(I0
I11
tp233
a(I1
I6
tp234
a(I1
I7
tp235
a(I11
I6
tp236
atp237
Rp238
sg13
((I9
I10
tp239
(I8
I9
tp240
(I3
I7
tp241
(I3
I11
tp242
tp243
sg14
I12
sbs(iproblems
RoomID
p244
(dp245
g10
I5
sg11
(I9
I1
tp246
sg13
I3
sg14
I11
sg15
I11
sg16
I2685440357799139976
sb(imulti_robot_problem
MultiRobotState
p247
(dp248
g19
g20
((lp249
(I7
I3
tp250
a(I10
I4
tp251
a(I9
I3
tp252
ag246
a(I7
I1
tp253
a(I5
I6
tp254
a(I10
I6
tp255
a(I1
I4
tp256
a(I9
I9
tp257
a(I3
I9
tp258
a(I9
I4
tp259
a(I6
I8
tp260
a(I9
I6
tp261
a(I3
I4
tp262
a(I10
I3
tp263
a(I7
I2
tp264
a(I5
I3
tp265
a(I8
I3
tp266
a(I5
I5
tp267
a(I10
I7
tp268
a(I8
I5
tp269
a(I9
I2
tp270
a(I3
I6
tp271
a(I4
I5
tp272
a(I6
I5
tp273
a(I7
I10
tp274
a(I9
I5
tp275
a(I3
I5
tp276
a(I7
I8
tp277
a(I2
I4
tp278
a(I10
I9
tp279
atp280
Rp281
sg15
I11
sg28
g20
((lp282
(I1
I2
tp283
a(I9
I10
tp284
a(I6
I1
tp285
a(I4
I1
tp286
a(I0
I2
tp287
atp288
Rp289
sg13
((I6
I6
tp290
(I0
I0
tp291
(I10
I8
tp292
tp293
sg14
I11
sbs(iproblems
RoomID
p294
(dp295
g10
I6
sg11
(I3
I9
tp296
sg13
I4
sg14
I11
sg15
I11
sg16
I5891625650498269233
sb(imulti_robot_problem
MultiRobotState
p297
(dp298
g19
g20
((lp299
(I7
I3
tp300
a(I4
I7
tp301
a(I6
I6
tp302
a(I5
I6
tp303
a(I2
I8
tp304
a(I6
I2
tp305
a(I5
I1
tp306
a(I3
I7
tp307
a(I8
I5
tp308
a(I5
I5
tp309
a(I2
I9
tp310
a(I7
I6
tp311
a(I4
I4
tp312
a(I2
I2
tp313
a(I1
I1
tp314
a(I9
I7
tp315
a(I3
I2
tp316
a(I10
I4
tp317
a(I4
I5
tp318
a(I9
I3
tp319
a(I10
I5
tp320
a(I2
I10
tp321
a(I7
I5
tp322
a(I2
I3
tp323
a(I8
I3
tp324
a(I4
I6
tp325
a(I5
I2
tp326
a(I6
I1
tp327
a(I3
I8
tp328
a(I1
I8
tp329
ag296
a(I4
I3
tp330
a(I9
I5
tp331
a(I3
I4
tp332
a(I8
I4
tp333
atp334
Rp335
sg15
I11
sg28
g20
((lp336
(I8
I8
tp337
a(I5
I10
tp338
a(I9
I1
tp339
a(I10
I7
tp340
a(I1
I6
tp341
a(I7
I9
tp342
atp343
Rp344
sg13
((I5
I7
tp345
(I8
I1
tp346
(I0
I5
tp347
(I4
I0
tp348
tp349
sg14
I11
sbs(iproblems
RoomID
p350
(dp351
g10
I7
sg11
(I8
I8
tp352
sg13
I3
sg14
I9
sg15
I9
sg16
I7834319822419845881
sb(imulti_robot_problem
MultiRobotState
p353
(dp354
g19
g20
((lp355
(I4
I7
tp356
a(I1
I3
tp357
a(I5
I0
tp358
a(I6
I6
tp359
a(I5
I6
tp360
a(I2
I8
tp361
a(I3
I5
tp362
a(I4
I6
tp363
a(I2
I6
tp364
a(I0
I5
tp365
a(I3
I7
tp366
a(I0
I3
tp367
a(I0
I8
tp368
a(I8
I5
tp369
a(I5
I8
tp370
a(I3
I3
tp371
a(I2
I7
tp372
a(I6
I7
tp373
a(I5
I5
tp374
a(I7
I8
tp375
a(I4
I4
tp376
a(I1
I5
tp377
a(I1
I8
tp378
ag352
a(I3
I6
tp379
a(I1
I7
tp380
a(I4
I5
tp381
a(I5
I3
tp382
a(I3
I4
tp383
atp384
Rp385
sg15
I9
sg28
g20
((lp386
(I7
I4
tp387
a(I2
I0
tp388
a(I6
I2
tp389
a(I7
I0
tp390
a(I8
I7
tp391
a(I7
I1
tp392
a(I1
I4
tp393
atp394
Rp395
sg13
((I2
I1
tp396
(I2
I3
tp397
(I5
I7
tp398
tp399
sg14
I9
sbs(iproblems
RoomID
p400
(dp401
g10
I10
sg11
(I1
I5
tp402
sg13
I4
sg14
I12
sg15
I10
sg16
I1737871632067391849
sb(imulti_robot_problem
MultiRobotState
p403
(dp404
g19
g20
((lp405
(I3
I2
tp406
a(I0
I0
tp407
a(I6
I6
tp408
a(I5
I6
tp409
a(I2
I8
tp410
a(I2
I10
tp411
a(I8
I9
tp412
a(I6
I2
tp413
a(I2
I3
tp414
a(I8
I7
tp415
a(I5
I1
tp416
a(I8
I5
tp417
a(I5
I8
tp418
a(I8
I3
tp419
a(I5
I5
tp420
a(I7
I8
tp421
a(I7
I6
tp422
a(I8
I10
tp423
ag402
a(I6
I5
tp424
a(I2
I2
tp425
a(I4
I1
tp426
a(I2
I4
tp427
atp428
Rp429
sg15
I10
sg28
g20
((lp430
(I0
I1
tp431
a(I4
I10
tp432
a(I4
I8
tp433
a(I3
I0
tp434
a(I9
I6
tp435
a(I3
I10
tp436
a(I5
I11
tp437
a(I2
I7
tp438
a(I1
I9
tp439
a(I3
I4
tp440
atp441
Rp442
sg13
((I4
I9
tp443
(I8
I11
tp444
(I4
I0
tp445
(I3
I9
tp446
tp447
sg14
I12
sbssg149
S'mild_roomset'
p448
sbsg149
g151
sg152
(dp449
g192
((lp450
F40.289999999997235
tp451
sg244
((lp452
(F3.7600000000020373
I127
tp453
aF40.010000000002037
tp454
sg294
((lp455
(F2.4500000000007276
I64
tp456
aF40.020000000000437
tp457
sg350
((lp458
(F0.1099999999969441
I25
tp459
aF40.0
tp460
sg400
((lp461
(F0.39999999999781721
I12
tp462
aF40.209999999999127
tp463
ssba(imeasure_core
ProblemSetSolution
p464
(dp465
g3
(imeasure_core
RoomSet
p466
(dp467
g6
(dp468
(iproblems
RoomID
p469
(dp470
g10
I12
sg11
(I6
I3
tp471
sg13
I5
sg14
I10
sg15
I12
sg16
I1486246605650367638
sb(imulti_robot_problem
MultiRobotState
p472
(dp473
g19
g20
((lp474
(I5
I9
tp475
a(I1
I3
tp476
a(I7
I1
tp477
a(I2
I7
tp478
a(I1
I4
tp479
a(I6
I2
tp480
a(I1
I6
tp481
a(I2
I1
tp482
a(I0
I3
tp483
a(I6
I5
tp484
a(I1
I2
tp485
a(I1
I5
tp486
a(I4
I1
tp487
a(I3
I1
tp488
ag471
a(I2
I0
tp489
a(I10
I0
tp490
a(I5
I2
tp491
a(I1
I1
tp492
a(I8
I4
tp493
atp494
Rp495
sg15
I12
sg28
g20
((lp496
(I11
I7
tp497
a(I11
I4
tp498
a(I9
I1
tp499
a(I11
I8
tp500
a(I2
I8
tp501
a(I6
I0
tp502
a(I0
I6
tp503
a(I11
I1
tp504
a(I0
I4
tp505
a(I4
I9
tp506
a(I10
I9
tp507
a(I9
I7
tp508
atp509
Rp510
sg13
((I2
I4
tp511
(I10
I1
tp512
(I2
I5
tp513
(I9
I8
tp514
(I6
I6
tp515
tp516
sg14
I10
sbs(iproblems
RoomID
p517
(dp518
g10
I14
sg11
(I7
I6
tp519
sg13
I7
sg14
I13
sg15
I13
sg16
I679259829289197625
sb(imulti_robot_problem
MultiRobotState
p520
(dp521
g19
g20
((lp522
(I6
I4
tp523
a(I4
I8
tp524
a(I12
I7
tp525
a(I10
I6
tp526
a(I7
I5
tp527
a(I12
I11
tp528
a(I9
I6
tp529
a(I1
I2
tp530
a(I11
I7
tp531
a(I10
I7
tp532
ag519
a(I6
I3
tp533
a(I6
I2
tp534
a(I4
I3
tp535
a(I3
I4
tp536
a(I12
I8
tp537
atp538
Rp539
sg15
I13
sg28
g20
((lp540
(I2
I7
tp541
a(I12
I1
tp542
a(I9
I2
tp543
a(I2
I8
tp544
a(I5
I7
tp545
a(I10
I0
tp546
a(I1
I4
tp547
a(I0
I12
tp548
a(I7
I4
tp549
a(I10
I9
tp550
a(I4
I2
tp551
a(I11
I4
tp552
a(I11
I6
tp553
a(I1
I9
tp554
atp555
Rp556
sg13
((I9
I11
tp557
(I9
I10
tp558
(I4
I7
tp559
(I4
I12
tp560
(I7
I1
tp561
(I1
I8
tp562
(I1
I6
tp563
tp564
sg14
I13
sbs(iproblems
RoomID
p565
(dp566
g10
I11
sg11
(I2
I7
tp567
sg13
I6
sg14
I11
sg15
I13
sg16
I403795515464475257
sb(imulti_robot_problem
MultiRobotState
p568
(dp569
g19
g20
((lp570
g567
a(I10
I8
tp571
a(I1
I7
tp572
a(I3
I10
tp573
a(I4
I4
tp574
a(I1
I4
tp575
a(I12
I5
tp576
a(I0
I6
tp577
a(I0
I5
tp578
a(I3
I6
tp579
a(I2
I2
tp580
a(I0
I8
tp581
a(I7
I9
tp582
atp583
Rp584
sg15
I13
sg28
g20
((lp585
(I6
I4
tp586
a(I0
I0
tp587
a(I2
I9
tp588
a(I11
I5
tp589
a(I8
I9
tp590
a(I11
I1
tp591
a(I2
I3
tp592
a(I1
I10
tp593
a(I12
I2
tp594
a(I0
I3
tp595
a(I5
I2
tp596
atp597
Rp598
sg13
((I10
I3
tp599
(I7
I2
tp600
(I7
I0
tp601
(I3
I1
tp602
(I5
I10
tp603
(I9
I4
tp604
tp605
sg14
I11
sbs(iproblems
RoomID
p606
(dp607
g10
I11
sg11
(I11
I9
tp608
sg13
I7
sg14
I12
sg15
I12
sg16
I5891625650498269233
sb(imulti_robot_problem
MultiRobotState
p609
(dp610
g19
g20
((lp611
(I4
I4
tp612
a(I4
I8
tp613
a(I5
I6
tp614
a(I8
I11
tp615
ag608
a(I7
I7
tp616
a(I7
I1
tp617
a(I9
I10
tp618
a(I3
I9
tp619
a(I1
I9
tp620
a(I6
I7
tp621
a(I10
I7
tp622
a(I7
I6
tp623
a(I5
I7
tp624
a(I2
I11
tp625
a(I6
I11
tp626
a(I9
I11
tp627
a(I7
I10
tp628
a(I10
I9
tp629
atp630
Rp631
sg15
I12
sg28
g20
((lp632
(I11
I7
tp633
a(I11
I4
tp634
a(I4
I6
tp635
a(I5
I11
tp636
a(I8
I10
tp637
a(I0
I5
tp638
a(I8
I7
tp639
a(I1
I7
tp640
a(I10
I1
tp641
a(I1
I1
tp642
a(I5
I5
tp643
atp644
Rp645
sg13
((I6
I8
tp646
(I9
I2
tp647
(I0
I6
tp648
(I10
I3
tp649
(I9
I5
tp650
(I5
I0
tp651
(I9
I8
tp652
tp653
sg14
I12
sbs(iproblems
RoomID
p654
(dp655
g10
I10
sg11
(I6
I9
tp656
sg13
I5
sg14
I12
sg15
I12
sg16
I2685440357799139976
sb(imulti_robot_problem
MultiRobotState
p657
(dp658
g19
g20
((lp659
(I4
I10
tp660
ag656
a(I9
I1
tp661
a(I5
I11
tp662
a(I3
I0
tp663
a(I0
I7
tp664
a(I3
I9
tp665
a(I0
I5
tp666
a(I1
I4
tp667
a(I0
I3
tp668
a(I4
I0
tp669
a(I1
I2
tp670
a(I11
I10
tp671
a(I6
I10
tp672
a(I5
I6
tp673
a(I9
I11
tp674
a(I7
I9
tp675
a(I4
I5
tp676
a(I3
I5
tp677
a(I3
I4
tp678
a(I2
I4
tp679
a(I1
I9
tp680
atp681
Rp682
sg15
I12
sg28
g20
((lp683
(I11
I7
tp684
a(I8
I3
tp685
a(I10
I11
tp686
a(I7
I1
tp687
a(I10
I5
tp688
a(I8
I10
tp689
a(I6
I3
tp690
a(I3
I6
tp691
a(I9
I10
tp692
a(I6
I5
tp693
atp694
Rp695
sg13
((I7
I7
tp696
(I0
I0
tp697
(I11
I9
tp698
(I0
I2
tp699
(I4
I1
tp700
tp701
sg14
I12
sbssg149
S'heavy_roomset'
p702
sbsg149
g151
sg152
(dp703
g469
((lp704
(F16.159999999999854
I113
tp705
aF40.010000000002037
tp706
sg517
((lp707
F42.040000000000873
tp708
sg606
((lp709
F42.010000000002037
tp710
sg565
((lp711
(F23.19999999999709
I19
tp712
aF40.179999999996653
tp713
sg654
((lp714
(F4.5799999999981083
I58
tp715
aF40.180000000000291
tp716
ssba(imeasure_core
ProblemSetSolution
p717
(dp718
g3
g4
sg149
S"AnytimeBeam-w20-gf(1.5, 'exp')_with_PowerHeuristic2"
p719
sg152
(dp720
g8
((lp721
(F0.11000000000058208
I45
tp722
a(F1.3800000000010186
I44
tp723
a(F2.0200000000004366
I37
tp724
a(F2.6500000000014552
I36
tp725
a(F3.2900000000008731
I34
tp726
a(F5.4099999999998545
I33
tp727
a(F7.680000000000291
I31
tp728
a(F10.690000000002328
I30
tp729
a(F13.930000000000291
I28
tp730
a(F16.400000000001455
I26
tp731
a(F21.5
I25
tp732
a(F28.0
I24
tp733
aF40.0
tp734
sg41
((lp735
(F0.79000000000087311
I20
tp736
aF40.220000000001164
tp737
sg70
((lp738
(F0.40999999999985448
I8
tp739
aF40.239999999997963
tp740
sg95
((lp741
(F6.9200000000018917
I134
tp742
aF40.030000000002474
tp743
sg123
((lp744
(F0.069999999999708962
I41
tp745
a(F1.680000000000291
I35
tp746
a(F2.8299999999981083
I33
tp747
a(F4.1199999999989814
I31
tp748
a(F5.4699999999975262
I29
tp749
a(F7.8600000000005821
I27
tp750
a(F11.169999999998254
I25
tp751
a(F13.959999999999127
I23
tp752
aF40.0
tp753
ssba(imeasure_core
ProblemSetSolution
p754
(dp755
g3
g189
sg149
g719
sg152
(dp756
g192
((lp757
F40.259999999998399
tp758
sg244
((lp759
(F3.7900000000008731
I127
tp760
aF40.139999999999418
tp761
sg294
((lp762
(F2.4500000000007276
I64
tp763
aF40.010000000002037
tp764
sg350
((lp765
(F0.11000000000058208
I25
tp766
aF40.0
tp767
sg400
((lp768
(F0.39999999999781721
I12
tp769
aF40.090000000000146
tp770
ssba(imeasure_core
ProblemSetSolution
p771
(dp772
g3
g466
sg149
g719
sg152
(dp773
g469
((lp774
(F16.120000000002619
I113
tp775
aF40.030000000002474
tp776
sg517
((lp777
F41.889999999999418
tp778
sg606
((lp779
F41.899999999997817
tp780
sg565
((lp781
(F23.159999999999854
I19
tp782
aF40.139999999999418
tp783
sg654
((lp784
(F4.5700000000033469
I58
tp785
aF40.120000000002619
tp786
ssba(imeasure_core
ProblemSetSolution
p787
(dp788
g3
g4
sg149
S"AnytimeBeam-w20-gf(1.7, 'exp')_with_PowerHeuristic2"
p789
sg152
(dp790
g8
((lp791
(F0.11000000000058208
I45
tp792
a(F1.5499999999992724
I44
tp793
a(F2.1900000000023283
I37
tp794
a(F2.8100000000013097
I36
tp795
a(F3.4500000000007276
I34
tp796
a(F5.5499999999992724
I33
tp797
a(F7.8100000000013097
I31
tp798
a(F10.790000000000873
I30
tp799
a(F14.010000000002037
I28
tp800
a(F16.459999999999127
I26
tp801
a(F21.510000000002037
I25
tp802
a(F28.020000000000437
I24
tp803
aF40.0
tp804
sg41
((lp805
(F0.79000000000087311
I20
tp806
aF40.069999999999709
tp807
sg70
((lp808
(F0.42000000000189175
I8
tp809
aF40.06000000000131
tp810
sg95
((lp811
(F6.9899999999979627
I134
tp812
aF40.020000000000437
tp813
sg123
((lp814
(F0.069999999999708962
I41
tp815
a(F1.2299999999995634
I35
tp816
a(F2.3800000000010186
I33
tp817
a(F3.6599999999998545
I31
tp818
a(F4.9899999999979627
I29
tp819
a(F7.3499999999985448
I27
tp820
a(F10.610000000000582
I25
tp821
a(F13.360000000000582
I23
tp822
aF40.0
tp823
ssba(imeasure_core
ProblemSetSolution
p824
(dp825
g3
g189
sg149
g789
sg152
(dp826
g192
((lp827
F40.340000000000146
tp828
sg244
((lp829
(F3.7599999999983993
I127
tp830
aF40.029999999998836
tp831
sg294
((lp832
(F2.4399999999986903
I64
tp833
aF40.099999999998545
tp834
sg350
((lp835
(F0.12000000000261934
I25
tp836
aF40.010000000002037
tp837
sg400
((lp838
(F0.40000000000145519
I12
tp839
aF40.239999999997963
tp840
ssba(imeasure_core
ProblemSetSolution
p841
(dp842
g3
g466
sg149
g789
sg152
(dp843
g469
((lp844
(F16.110000000000582
I113
tp845
aF40.069999999999709
tp846
sg517
((lp847
F41.759999999998399
tp848
sg606
((lp849
F41.709999999999127
tp850
sg565
((lp851
(F23.260000000002037
I19
tp852
aF40.31000000000131
tp853
sg654
((lp854
(F4.6399999999994179
I58
tp855
aF40.030000000002474
tp856
ssba(imeasure_core
ProblemSetSolution
p857
(dp858
g3
g4
sg149
S"AnytimeBeam-w20-gf(1.8999999999999999, 'exp')_with_PowerHeuristic2"
p859
sg152
(dp860
g8
((lp861
(F0.1099999999969441
I45
tp862
a(F1.069999999999709
I44
tp863
a(F1.7299999999995634
I37
tp864
a(F2.3400000000001455
I36
tp865
a(F2.9799999999995634
I34
tp866
a(F5.0799999999981083
I33
tp867
a(F7.3299999999981083
I31
tp868
a(F10.319999999999709
I30
tp869
a(F13.539999999997235
I28
tp870
a(F15.979999999999563
I26
tp871
a(F21.049999999999272
I25
tp872
a(F27.559999999997672
I24
tp873
aF40.0
tp874
sg41
((lp875
(F0.78999999999723514
I20
tp876
aF40.209999999999127
tp877
sg70
((lp878
(F0.41999999999825377
I8
tp879
aF40.079999999998108
tp880
sg95
((lp881
(F6.9700000000011642
I134
tp882
aF40.0
tp883
sg123
((lp884
(F0.060000000001309672
I41
tp885
a(F1.2600000000020373
I35
tp886
a(F2.4099999999998545
I33
tp887
a(F3.7000000000007276
I31
tp888
a(F5.0300000000024738
I29
tp889
a(F7.3900000000030559
I27
tp890
a(F10.650000000001455
I25
tp891
a(F13.409999999999854
I23
tp892
aF40.0
tp893
ssba(imeasure_core
ProblemSetSolution
p894
(dp895
g3
g189
sg149
g859
sg152
(dp896
g192
((lp897
F40.100000000002183
tp898
sg244
((lp899
(F3.75
I127
tp900
aF40.059999999997672
tp901
sg294
((lp902
(F2.4400000000023283
I64
tp903
aF40.55000000000291
tp904
sg350
((lp905
(F0.1099999999969441
I25
tp906
aF40.0
tp907
sg400
((lp908
(F0.39999999999781721
I12
tp909
aF40.159999999999854
tp910
ssba(imeasure_core
ProblemSetSolution
p911
(dp912
g3
g466
sg149
g859
sg152
(dp913
g469
((lp914
(F16.129999999997381
I113
tp915
aF40.139999999999418
tp916
sg517
((lp917
F41.829999999998108
tp918
sg606
((lp919
F41.729999999999563
tp920
sg565
((lp921
(F23.350000000002183
I19
tp922
aF40.440000000002328
tp923
sg654
((lp924
(F4.5799999999981083
I58
tp925
aF40.139999999999418
tp926
ssba(imeasure_core
ProblemSetSolution
p927
(dp928
g3
g4
sg149
S"AnytimeBeam-w20-gf(1.3, 'exp')_with_LinearHeuristic"
p929
sg152
(dp930
g8
((lp931
(F0.0099999999983992893
I24
tp932
aF40.0
tp933
sg41
((lp934
F40.119999999998981
tp935
sg70
((lp936
(F0.37000000000261934
I4
tp937
aF40.06000000000131
tp938
sg95
((lp939
F40.150000000001455
tp940
sg123
((lp941
(F0.019999999996798579
I23
tp942
aF40.0
tp943
ssba(imeasure_core
ProblemSetSolution
p944
(dp945
g3
g189
sg149
g929
sg152
(dp946
g192
((lp947
F40.119999999998981
tp948
sg244
((lp949
(F32.779999999998836
I391
tp950
aF40.009999999998399
tp951
sg294
((lp952
F40.030000000002474
tp953
sg350
((lp954
(F0.69999999999708962
I60
tp955
aF40.0
tp956
sg400
((lp957
F40.149999999997817
tp958
ssba(imeasure_core
ProblemSetSolution
p959
(dp960
g3
g466
sg149
g929
sg152
(dp961
g469
((lp962
F40.0
tp963
sg517
((lp964
F43.919999999998254
tp965
sg606
((lp966
F45.880000000001019
tp967
sg565
((lp968
(F16.450000000000728
I10
tp969
aF41.049999999999272
tp970
sg654
((lp971
F40.270000000000437
tp972
ssba(imeasure_core
ProblemSetSolution
p973
(dp974
g3
g4
sg149
S"AnytimeBeam-w20-gf(1.5, 'exp')_with_LinearHeuristic"
p975
sg152
(dp976
g8
((lp977
(F0.020000000000436557
I24
tp978
aF40.0
tp979
sg41
((lp980
F40.180000000000291
tp981
sg70
((lp982
(F0.36999999999898137
I4
tp983
aF40.020000000000437
tp984
sg95
((lp985
F40.430000000000291
tp986
sg123
((lp987
(F0.019999999996798579
I23
tp988
aF40.0
tp989
ssba(imeasure_core
ProblemSetSolution
p990
(dp991
g3
g189
sg149
g975
sg152
(dp992
g192
((lp993
F40.019999999996799
tp994
sg244
((lp995
(F32.850000000002183
I391
tp996
aF40.090000000000146
tp997
sg294
((lp998
F40.06000000000131
tp999
sg350
((lp1000
(F0.68000000000029104
I60
tp1001
aF40.010000000002037
tp1002
sg400
((lp1003
F40.349999999998545
tp1004
ssba(imeasure_core
ProblemSetSolution
p1005
(dp1006
g3
g466
sg149
g975
sg152
(dp1007
g469
((lp1008
F40.029999999998836
tp1009
sg517
((lp1010
F43.979999999999563
tp1011
sg606
((lp1012
F45.650000000001455
tp1013
sg565
((lp1014
(F16.390000000003056
I10
tp1015
aF41.130000000001019
tp1016
sg654
((lp1017
F40.319999999999709
tp1018
ssba(imeasure_core
ProblemSetSolution
p1019
(dp1020
g3
g4
sg149
S"AnytimeBeam-w20-gf(1.7, 'exp')_with_LinearHeuristic"
p1021
sg152
(dp1022
g8
((lp1023
(F0.0099999999947613105
I24
tp1024
aF40.0
tp1025
sg41
((lp1026
F40.0
tp1027
sg70
((lp1028
(F0.36000000000058208
I4
tp1029
aF40.099999999998545
tp1030
sg95
((lp1031
F40.330000000001746
tp1032
sg123
((lp1033
(F0.019999999996798579
I23
tp1034
aF40.0
tp1035
ssba(imeasure_core
ProblemSetSolution
p1036
(dp1037
g3
g189
sg149
g1021
sg152
(dp1038
g192
((lp1039
F40.099999999998545
tp1040
sg244
((lp1041
(F32.799999999995634
I391
tp1042
aF40.029999999998836
tp1043
sg294
((lp1044
F40.129999999997381
tp1045
sg350
((lp1046
(F0.69000000000232831
I60
tp1047
aF40.010000000002037
tp1048
sg400
((lp1049
F40.120000000002619
tp1050
ssba(imeasure_core
ProblemSetSolution
p1051
(dp1052
g3
g466
sg149
g1021
sg152
(dp1053
g469
((lp1054
F40.240000000005239
tp1055
sg517
((lp1056
F44.009999999994761
tp1057
sg606
((lp1058
F45.860000000000582
tp1059
sg565
((lp1060
(F16.42000000000553
I10
tp1061
aF40.520000000004075
tp1062
sg654
((lp1063
F40.44999999999709
tp1064
ssba(imeasure_core
ProblemSetSolution
p1065
(dp1066
g3
g4
sg149
S"AnytimeBeam-w20-gf(1.8999999999999999, 'exp')_with_LinearHeuristic"
p1067
sg152
(dp1068
g8
((lp1069
(F0.010000000002037268
I24
tp1070
aF40.0
tp1071
sg41
((lp1072
F40.059999999997672
tp1073
sg70
((lp1074
(F0.37000000000261934
I4
tp1075
aF40.059999999997672
tp1076
sg95
((lp1077
F40.040000000000873
tp1078
sg123
((lp1079
(F0.010000000002037268
I23
tp1080
aF40.0
tp1081
ssba(imeasure_core
ProblemSetSolution
p1082
(dp1083
g3
g189
sg149
g1067
sg152
(dp1084
g192
((lp1085
F40.010000000002037
tp1086
sg244
((lp1087
(F32.69999999999709
I391
tp1088
aF40.099999999998545
tp1089
sg294
((lp1090
F40.099999999998545
tp1091
sg350
((lp1092
(F0.69000000000232831
I60
tp1093
aF40.010000000002037
tp1094
sg400
((lp1095
F40.290000000000873
tp1096
ssba(imeasure_core
ProblemSetSolution
p1097
(dp1098
g3
g466
sg149
g1067
sg152
(dp1099
g469
((lp1100
F40.040000000000873
tp1101
sg517
((lp1102
F43.939999999995052
tp1103
sg606
((lp1104
F45.950000000004366
tp1105
sg565
((lp1106
(F16.450000000004366
I10
tp1107
aF40.709999999999127
tp1108
sg654
((lp1109
F40.419999999998254
tp1110
ssba.