(lp0
(imeasure_core
ProblemSetSolution
p1
(dp2
S'roomset'
p3
(imeasure_core
RoomSet
p4
(dp5
S'rooms'
p6
(dp7
(iproblems
RoomID
p8
(dp9
S'dusts'
p10
I8
sS'obstacles'
p11
(I2
I8
tp12
sS'robots'
p13
I4
sS'height'
p14
I10
sS'width'
p15
I7
sS'seed'
p16
I7106521602475165645
sb(imulti_robot_problem
MultiRobotState
p17
(dp18
S'obstacle_locations'
p19
c__builtin__
frozenset
p20
((lp21
(I3
I8
tp22
a(I5
I9
tp23
a(I4
I9
tp24
ag12
a(I5
I2
tp25
a(I5
I8
tp26
atp27
Rp28
sg15
I7
sS'dirt_locations'
p29
g20
((lp30
(I1
I2
tp31
a(I2
I7
tp32
a(I0
I0
tp33
a(I3
I1
tp34
a(I6
I0
tp35
a(I2
I1
tp36
a(I2
I3
tp37
a(I2
I5
tp38
atp39
Rp40
sg13
((I0
I8
tp41
(I4
I5
tp42
(I3
I9
tp43
(I1
I8
tp44
tp45
sg14
I10
sbs(iproblems
RoomID
p46
(dp47
g10
I10
sg11
(I3
I3
tp48
sg13
I4
sg14
I10
sg15
I8
sg16
I746805015404516437
sb(imulti_robot_problem
MultiRobotState
p49
(dp50
g19
g20
((lp51
(I7
I4
tp52
ag48
a(I4
I2
tp53
a(I6
I1
tp54
a(I3
I1
tp55
a(I4
I1
tp56
a(I1
I4
tp57
atp58
Rp59
sg15
I8
sg29
g20
((lp60
(I4
I6
tp61
a(I6
I3
tp62
a(I2
I0
tp63
a(I3
I9
tp64
a(I2
I3
tp65
a(I3
I6
tp66
a(I5
I1
tp67
a(I1
I0
tp68
a(I0
I8
tp69
a(I5
I8
tp70
atp71
Rp72
sg13
((I3
I8
tp73
(I4
I8
tp74
(I4
I9
tp75
(I0
I3
tp76
tp77
sg14
I10
sbs(iproblems
RoomID
p78
(dp79
g10
I9
sg11
(I7
I6
tp80
sg13
I5
sg14
I9
sg15
I9
sg16
I8963783824838420066
sb(imulti_robot_problem
MultiRobotState
p81
(dp82
g19
g20
((lp83
(I2
I7
tp84
a(I5
I5
tp85
a(I6
I6
tp86
ag80
a(I4
I4
tp87
a(I7
I1
tp88
a(I7
I5
tp89
a(I2
I2
tp90
a(I6
I5
tp91
atp92
Rp93
sg15
I9
sg29
g20
((lp94
(I3
I0
tp95
a(I2
I1
tp96
a(I6
I3
tp97
a(I0
I7
tp98
a(I3
I7
tp99
a(I8
I6
tp100
a(I0
I8
tp101
a(I8
I5
tp102
a(I7
I2
tp103
atp104
Rp105
sg13
((I7
I7
tp106
(I2
I4
tp107
(I3
I2
tp108
(I4
I7
tp109
(I5
I0
tp110
tp111
sg14
I9
sbs(iproblems
RoomID
p112
(dp113
g10
I6
sg11
(I7
I4
tp114
sg13
I2
sg14
I7
sg15
I9
sg16
I4029557120079369747
sb(imulti_robot_problem
MultiRobotState
p115
(dp116
g19
g20
((lp117
g114
a(I7
I5
tp118
a(I4
I1
tp119
a(I6
I1
tp120
a(I8
I5
tp121
a(I8
I4
tp122
atp123
Rp124
sg15
I9
sg29
g20
((lp125
(I2
I6
tp126
a(I6
I6
tp127
a(I3
I0
tp128
a(I2
I5
tp129
a(I1
I1
tp130
a(I5
I3
tp131
atp132
Rp133
sg13
((I6
I0
tp134
(I3
I1
tp135
tp136
sg14
I7
sbs(iproblems
RoomID
p137
(dp138
g10
I5
sg11
(I4
I5
tp139
sg13
I1
sg14
I9
sg15
I8
sg16
I6604845167042249220
sb(imulti_robot_problem
MultiRobotState
p140
(dp141
g19
g20
((lp142
(I7
I4
tp143
ag139
a(I5
I4
tp144
a(I6
I1
tp145
a(I6
I5
tp146
atp147
Rp148
sg15
I8
sg29
g20
((lp149
(I2
I8
tp150
a(I1
I0
tp151
a(I1
I1
tp152
a(I4
I3
tp153
a(I4
I8
tp154
atp155
Rp156
sg13
((I3
I6
tp157
tp158
sg14
I9
sbssS'name'
p159
S'easy_roomset'
p160
sbsg159
S"AnytimeBeam-w5-gf(1.3, 'exp')_with_PowerHeuristic2"
p161
sS'solutions'
p162
(dp163
g8
((lp164
(F0.38999999999999996
I15
tp165
aF40.190000000000005
tp166
sg46
((lp167
(F1.4199999999999946
I25
tp168
a(F6.4499999999999957
I20
tp169
aF40.089999999999996
tp170
sg78
((lp171
(F1.1700000000000017
I7
tp172
aF40.070000000000007
tp173
sg112
((lp174
(F0.079999999999998295
I18
tp175
aF40.0
tp176
sg137
((lp177
(F0.049999999999982947
I41
tp178
a(F0.10999999999998522
I37
tp179
a(F0.25999999999999091
I35
tp180
a(F2.789999999999992
I33
tp181
a(F3.6599999999999966
I30
tp182
a(F4.3599999999999852
I26
tp183
a(F5.1500000000000057
I25
tp184
a(F5.9199999999999875
I23
tp185
a(F6.6699999999999875
I21
tp186
a(F8.0099999999999909
I20
tp187
a(F9.25
I18
tp188
aF40.0
tp189
ssba(imeasure_core
ProblemSetSolution
p190
(dp191
g3
(imeasure_core
RoomSet
p192
(dp193
g6
(dp194
(iproblems
RoomID
p195
(dp196
g10
I6
sg11
(I5
I8
tp197
sg13
I3
sg14
I9
sg15
I11
sg16
I4029557120079369747
sb(imulti_robot_problem
MultiRobotState
p198
(dp199
g19
g20
((lp200
(I7
I3
tp201
a(I1
I3
tp202
a(I4
I8
tp203
a(I10
I6
tp204
a(I7
I1
tp205
a(I1
I4
tp206
a(I3
I7
tp207
a(I5
I1
tp208
a(I2
I5
tp209
a(I8
I5
tp210
ag197
a(I10
I5
tp211
a(I4
I6
tp212
a(I10
I7
tp213
a(I9
I6
tp214
a(I6
I1
tp215
a(I4
I4
tp216
a(I6
I3
tp217
a(I3
I6
tp218
a(I1
I7
tp219
a(I9
I5
tp220
a(I2
I4
tp221
a(I8
I4
tp222
atp223
Rp224
sg15
I11
sg29
g20
((lp225
(I3
I8
tp226
a(I8
I8
tp227
a(I7
I2
tp228
a(I5
I2
tp229
a(I1
I1
tp230
a(I2
I1
tp231
atp232
Rp233
sg13
((I8
I0
tp234
(I3
I1
tp235
(I4
I0
tp236
tp237
sg14
I9
sbs(iproblems
RoomID
p238
(dp239
g10
I10
sg11
(I4
I4
tp240
sg13
I4
sg14
I12
sg15
I12
sg16
I2569146471088859254
sb(imulti_robot_problem
MultiRobotState
p241
(dp242
g19
g20
((lp243
(I5
I4
tp244
a(I4
I8
tp245
a(I4
I5
tp246
a(I11
I2
tp247
a(I4
I7
tp248
a(I1
I9
tp249
a(I10
I3
tp250
a(I5
I8
tp251
a(I5
I5
tp252
a(I3
I3
tp253
ag240
a(I2
I11
tp254
a(I5
I6
tp255
a(I7
I2
tp256
a(I4
I3
tp257
a(I2
I2
tp258
a(I10
I0
tp259
a(I5
I11
tp260
a(I1
I1
tp261
atp262
Rp263
sg15
I12
sg29
g20
((lp264
(I2
I7
tp265
a(I10
I10
tp266
a(I3
I0
tp267
a(I3
I11
tp268
a(I0
I2
tp269
a(I1
I5
tp270
a(I9
I4
tp271
a(I0
I8
tp272
a(I2
I4
tp273
a(I11
I6
tp274
atp275
Rp276
sg13
((I9
I11
tp277
(I7
I10
tp278
(I6
I0
tp279
(I10
I1
tp280
tp281
sg14
I12
sbs(iproblems
RoomID
p282
(dp283
g10
I6
sg11
(I2
I4
tp284
sg13
I3
sg14
I10
sg15
I10
sg16
I1821862095355237593
sb(imulti_robot_problem
MultiRobotState
p285
(dp286
g19
g20
((lp287
(I6
I4
tp288
a(I4
I7
tp289
a(I2
I6
tp290
a(I5
I6
tp291
a(I6
I0
tp292
a(I1
I9
tp293
a(I8
I5
tp294
a(I7
I2
tp295
a(I7
I9
tp296
a(I5
I3
tp297
a(I6
I7
tp298
a(I3
I3
tp299
a(I5
I5
tp300
a(I4
I4
tp301
a(I6
I3
tp302
a(I4
I5
tp303
a(I6
I5
tp304
a(I4
I3
tp305
a(I0
I4
tp306
a(I8
I6
tp307
a(I3
I5
tp308
a(I3
I4
tp309
ag284
atp310
Rp311
sg15
I10
sg29
g20
((lp312
(I0
I6
tp313
a(I7
I0
tp314
a(I5
I1
tp315
a(I2
I3
tp316
a(I2
I8
tp317
a(I9
I6
tp318
atp319
Rp320
sg13
((I2
I2
tp321
(I4
I2
tp322
(I0
I7
tp323
tp324
sg14
I10
sbs(iproblems
RoomID
p325
(dp326
g10
I6
sg11
(I4
I5
tp327
sg13
I3
sg14
I12
sg15
I12
sg16
I1360307757430227195
sb(imulti_robot_problem
MultiRobotState
p328
(dp329
g19
g20
((lp330
(I6
I4
tp331
a(I3
I2
tp332
a(I10
I4
tp333
a(I3
I0
tp334
a(I5
I4
tp335
a(I7
I5
tp336
a(I5
I1
tp337
a(I8
I5
tp338
a(I6
I5
tp339
a(I4
I0
tp340
a(I7
I4
tp341
a(I8
I3
tp342
a(I6
I7
tp343
a(I5
I5
tp344
a(I8
I10
tp345
a(I6
I3
tp346
a(I5
I6
tp347
a(I6
I2
tp348
ag327
a(I9
I5
tp349
a(I5
I3
tp350
atp351
Rp352
sg15
I12
sg29
g20
((lp353
(I3
I3
tp354
a(I4
I3
tp355
a(I9
I2
tp356
a(I5
I7
tp357
a(I0
I2
tp358
a(I11
I6
tp359
atp360
Rp361
sg13
((I11
I11
tp362
(I1
I3
tp363
(I0
I1
tp364
tp365
sg14
I12
sbs(iproblems
RoomID
p366
(dp367
g10
I7
sg11
(I5
I4
tp368
sg13
I3
sg14
I11
sg15
I12
sg16
I2577854692418029171
sb(imulti_robot_problem
MultiRobotState
p369
(dp370
g19
g20
((lp371
(I4
I7
tp372
a(I3
I0
tp373
a(I8
I0
tp374
a(I2
I1
tp375
a(I6
I2
tp376
a(I1
I6
tp377
a(I5
I1
tp378
a(I4
I0
tp379
a(I1
I2
tp380
a(I4
I9
tp381
a(I3
I3
tp382
a(I8
I1
tp383
a(I3
I10
tp384
a(I6
I3
tp385
a(I3
I6
tp386
a(I1
I10
tp387
a(I8
I6
tp388
a(I3
I5
tp389
ag368
a(I2
I6
tp390
a(I7
I1
tp391
a(I6
I0
tp392
a(I1
I9
tp393
a(I4
I2
tp394
a(I0
I8
tp395
a(I5
I3
tp396
a(I0
I1
tp397
a(I7
I0
tp398
a(I5
I2
tp399
a(I6
I1
tp400
a(I3
I1
tp401
a(I3
I8
tp402
a(I3
I4
tp403
a(I2
I4
tp404
atp405
Rp406
sg15
I12
sg29
g20
((lp407
(I4
I10
tp408
a(I10
I5
tp409
a(I10
I1
tp410
a(I2
I8
tp411
a(I7
I6
tp412
a(I4
I4
tp413
a(I9
I7
tp414
atp415
Rp416
sg13
((I10
I6
tp417
(I1
I4
tp418
(I11
I8
tp419
tp420
sg14
I11
sbssg159
S'mild_roomset'
p421
sbsg159
g161
sg162
(dp422
g195
((lp423
(F0.079999999999984084
I15
tp424
aF40.009999999999991
tp425
sg238
((lp426
(F8.25
I122
tp427
aF40.0
tp428
sg282
((lp429
(F0.079999999999984084
I13
tp430
aF40.03000000000003
tp431
sg325
((lp432
F40.049999999999955
tp433
sg366
((lp434
(F1.9000000000000341
I118
tp435
a(F3.660000000000025
I114
tp436
a(F4.2100000000000364
I34
tp437
a(F6.410000000000025
I29
tp438
aF40.020000000000039
tp439
ssba(imeasure_core
ProblemSetSolution
p440
(dp441
g3
(imeasure_core
RoomSet
p442
(dp443
g6
(dp444
(iproblems
RoomID
p445
(dp446
g10
I13
sg11
(I5
I3
tp447
sg13
I6
sg14
I13
sg15
I10
sg16
I7106521602475165645
sb(imulti_robot_problem
MultiRobotState
p448
(dp449
g19
g20
((lp450
(I5
I6
tp451
a(I5
I11
tp452
a(I7
I12
tp453
a(I0
I12
tp454
a(I2
I3
tp455
a(I6
I12
tp456
a(I7
I2
tp457
ag447
a(I1
I2
tp458
a(I4
I5
tp459
a(I8
I12
tp460
a(I7
I1
tp461
a(I2
I11
tp462
a(I6
I3
tp463
a(I6
I11
tp464
a(I0
I4
tp465
a(I0
I9
tp466
a(I0
I5
tp467
a(I3
I4
tp468
atp469
Rp470
sg15
I10
sg29
g20
((lp471
(I0
I1
tp472
a(I8
I3
tp473
a(I4
I6
tp474
a(I7
I11
tp475
a(I6
I9
tp476
a(I0
I11
tp477
a(I3
I9
tp478
a(I2
I12
tp479
a(I8
I6
tp480
a(I5
I1
tp481
a(I3
I7
tp482
a(I0
I3
tp483
a(I3
I5
tp484
atp485
Rp486
sg13
((I0
I10
tp487
(I6
I7
tp488
(I4
I11
tp489
(I1
I11
tp490
(I9
I0
tp491
(I3
I1
tp492
tp493
sg14
I13
sbs(iproblems
RoomID
p494
(dp495
g10
I15
sg11
(I9
I4
tp496
sg13
I6
sg14
I13
sg15
I11
sg16
I746805015404516437
sb(imulti_robot_problem
MultiRobotState
p497
(dp498
g19
g20
((lp499
(I8
I0
tp500
a(I4
I8
tp501
a(I4
I5
tp502
a(I10
I6
tp503
a(I6
I0
tp504
a(I3
I5
tp505
a(I3
I9
tp506
ag496
a(I4
I2
tp507
a(I7
I2
tp508
a(I7
I9
tp509
a(I10
I5
tp510
a(I5
I5
tp511
a(I4
I4
tp512
a(I1
I8
tp513
a(I8
I6
tp514
a(I5
I3
tp515
a(I5
I2
tp516
a(I2
I4
tp517
a(I9
I7
tp518
atp519
Rp520
sg15
I11
sg29
g20
((lp521
(I3
I12
tp522
a(I9
I1
tp523
a(I7
I1
tp524
a(I8
I1
tp525
a(I6
I10
tp526
a(I8
I9
tp527
a(I2
I0
tp528
a(I2
I3
tp529
a(I0
I10
tp530
a(I2
I2
tp531
a(I7
I11
tp532
a(I2
I5
tp533
a(I8
I5
tp534
a(I5
I8
tp535
a(I4
I11
tp536
atp537
Rp538
sg13
((I4
I10
tp539
(I6
I11
tp540
(I5
I12
tp541
(I0
I5
tp542
(I1
I0
tp543
(I7
I10
tp544
tp545
sg14
I13
sbs(iproblems
RoomID
p546
(dp547
g10
I11
sg11
(I9
I6
tp548
sg13
I6
sg14
I10
sg15
I12
sg16
I4029557120079369747
sb(imulti_robot_problem
MultiRobotState
p549
(dp550
g19
g20
((lp551
(I11
I7
tp552
a(I10
I6
tp553
a(I5
I5
tp554
a(I7
I1
tp555
a(I10
I7
tp556
a(I9
I8
tp557
a(I4
I4
tp558
a(I1
I6
tp559
a(I3
I6
tp560
a(I1
I7
tp561
ag548
a(I11
I6
tp562
atp563
Rp564
sg15
I12
sg29
g20
((lp565
(I1
I2
tp566
a(I1
I3
tp567
a(I4
I9
tp568
a(I8
I2
tp569
a(I8
I1
tp570
a(I6
I1
tp571
a(I2
I1
tp572
a(I7
I4
tp573
a(I1
I8
tp574
a(I5
I2
tp575
a(I1
I1
tp576
atp577
Rp578
sg13
((I8
I0
tp579
(I4
I1
tp580
(I4
I0
tp581
(I3
I9
tp582
(I8
I9
tp583
(I3
I8
tp584
tp585
sg14
I10
sbs(iproblems
RoomID
p586
(dp587
g10
I10
sg11
(I6
I7
tp588
sg13
I5
sg14
I12
sg15
I11
sg16
I6604845167042249220
sb(imulti_robot_problem
MultiRobotState
p589
(dp590
g19
g20
((lp591
(I9
I0
tp592
ag588
a(I7
I1
tp593
a(I2
I8
tp594
a(I10
I6
tp595
a(I7
I7
tp596
a(I8
I8
tp597
a(I9
I4
tp598
a(I8
I6
tp599
a(I7
I11
tp600
a(I9
I7
tp601
atp602
Rp603
sg15
I11
sg29
g20
((lp604
(I10
I5
tp605
a(I3
I3
tp606
a(I5
I11
tp607
a(I8
I1
tp608
a(I9
I8
tp609
a(I6
I9
tp610
a(I0
I7
tp611
a(I0
I10
tp612
a(I4
I1
tp613
a(I8
I4
tp614
atp615
Rp616
sg13
((I4
I8
tp617
(I1
I0
tp618
(I2
I2
tp619
(I3
I11
tp620
(I6
I5
tp621
tp622
sg14
I12
sbs(iproblems
RoomID
p623
(dp624
g10
I15
sg11
(I5
I5
tp625
sg13
I6
sg14
I13
sg15
I13
sg16
I2569146471088859254
sb(imulti_robot_problem
MultiRobotState
p626
(dp627
g19
g20
((lp628
(I12
I2
tp629
a(I5
I4
tp630
a(I3
I3
tp631
a(I5
I9
tp632
a(I4
I5
tp633
a(I6
I1
tp634
a(I10
I10
tp635
a(I8
I8
tp636
a(I4
I3
tp637
a(I2
I2
tp638
a(I9
I11
tp639
a(I8
I12
tp640
a(I1
I1
tp641
a(I12
I3
tp642
ag625
atp643
Rp644
sg15
I13
sg29
g20
((lp645
(I10
I5
tp646
a(I3
I12
tp647
a(I8
I2
tp648
a(I5
I6
tp649
a(I12
I7
tp650
a(I11
I3
tp651
a(I0
I2
tp652
a(I11
I0
tp653
a(I0
I9
tp654
a(I2
I12
tp655
a(I1
I10
tp656
a(I3
I7
tp657
a(I10
I11
tp658
a(I2
I4
tp659
a(I5
I12
tp660
atp661
Rp662
sg13
((I9
I12
tp663
(I7
I11
tp664
(I7
I0
tp665
(I10
I1
tp666
(I1
I5
tp667
(I4
I0
tp668
tp669
sg14
I13
sbssg159
S'heavy_roomset'
p670
sbsg159
g161
sg162
(dp671
g445
((lp672
F40.359999999999957
tp673
sg494
((lp674
F40.640000000000043
tp675
sg546
((lp676
(F6.0799999999999841
I6
tp677
aF41.249999999999943
tp678
sg586
((lp679
(F4.4000000000000909
I23
tp680
a(F14.700000000000045
I21
tp681
aF40.050000000000068
tp682
sg623
((lp683
(F30.360000000000014
I27
tp684
aF40.719999999999914
tp685
ssba(imeasure_core
ProblemSetSolution
p686
(dp687
g3
g4
sg159
S"AnytimeBeam-w15-gf(1.3, 'exp')_with_PowerHeuristic2"
p688
sg162
(dp689
g8
((lp690
(F0.52999999999997272
I15
tp691
aF40.039999999999964
tp692
sg46
((lp693
(F1.6899999999999409
I20
tp694
aF40.039999999999964
tp695
sg78
((lp696
(F1.2900000000000773
I7
tp697
aF40.470000000000027
tp698
sg112
((lp699
(F0.080000000000040927
I18
tp700
aF40.019999999999982
tp701
sg137
((lp702
(F0.060000000000059117
I35
tp703
a(F2.4400000000000546
I33
tp704
a(F3.3000000000000682
I30
tp705
a(F3.9800000000000182
I26
tp706
a(F4.7699999999999818
I25
tp707
a(F5.5199999999999818
I23
tp708
a(F6.2699999999999818
I21
tp709
a(F7.5800000000000409
I20
tp710
a(F8.8100000000000591
I18
tp711
aF40.0
tp712
ssba(imeasure_core
ProblemSetSolution
p713
(dp714
g3
g192
sg159
g688
sg162
(dp715
g195
((lp716
(F0.12999999999999545
I15
tp717
aF40.07000000000005
tp718
sg238
((lp719
(F4.7300000000000182
I122
tp720
aF40.029999999999973
tp721
sg282
((lp722
(F0.13999999999998636
I13
tp723
aF40.059999999999945
tp724
sg325
((lp725
F40.030000000000086
tp726
sg366
((lp727
(F1.67999999999995
I118
tp728
a(F2.2099999999999227
I34
tp729
a(F4.2699999999999818
I29
tp730
aF40.099999999999909
tp731
ssba(imeasure_core
ProblemSetSolution
p732
(dp733
g3
g442
sg159
g688
sg162
(dp734
g445
((lp735
F40.909999999999968
tp736
sg494
((lp737
F40.110000000000127
tp738
sg546
((lp739
(F6.5199999999999818
I6
tp740
aF40.409999999999854
tp741
sg586
((lp742
(F5.25
I21
tp743
aF40.170000000000073
tp744
sg623
((lp745
(F32.079999999999927
I27
tp746
aF40.670000000000073
tp747
ssba(imeasure_core
ProblemSetSolution
p748
(dp749
g3
g4
sg159
S"AnytimeBeam-w25-gf(1.3, 'exp')_with_PowerHeuristic2"
p750
sg162
(dp751
g8
((lp752
(F0.61999999999989086
I15
tp753
aF40.299999999999955
tp754
sg46
((lp755
(F1.8099999999999454
I20
tp756
aF40.1099999999999
tp757
sg78
((lp758
(F1.3200000000001637
I7
tp759
aF40.8900000000001
tp760
sg112
((lp761
(F0.089999999999918145
I18
tp762
aF40.0
tp763
sg137
((lp764
(F0.069999999999936335
I35
tp765
a(F2.8900000000001
I33
tp766
a(F3.7599999999999909
I30
tp767
a(F4.4500000000000455
I26
tp768
a(F5.25
I25
tp769
a(F6.0199999999999818
I23
tp770
a(F6.7799999999999727
I21
tp771
a(F8.1099999999999
I20
tp772
a(F9.3399999999999181
I18
tp773
aF40.0
tp774
ssba(imeasure_core
ProblemSetSolution
p775
(dp776
g3
g192
sg159
g750
sg162
(dp777
g195
((lp778
(F0.17000000000007276
I15
tp779
aF40.0
tp780
sg238
((lp781
(F5.3399999999999181
I122
tp782
aF40.029999999999973
tp783
sg282
((lp784
(F0.16000000000008185
I13
tp785
aF40.049999999999955
tp786
sg325
((lp787
F40.150000000000091
tp788
sg366
((lp789
(F0.56999999999993634
I34
tp790
a(F1.9800000000000182
I29
tp791
aF40.049999999999955
tp792
ssba(imeasure_core
ProblemSetSolution
p793
(dp794
g3
g442
sg159
g750
sg162
(dp795
g445
((lp796
F40.779999999999973
tp797
sg494
((lp798
F40.450000000000045
tp799
sg546
((lp800
(F6.5599999999999454
I6
tp801
aF41.440000000000055
tp802
sg586
((lp803
(F5.3799999999998818
I21
tp804
aF40.339999999999918
tp805
sg623
((lp806
(F32.360000000000127
I27
tp807
aF40.970000000000027
tp808
ssba(imeasure_core
ProblemSetSolution
p809
(dp810
g3
g4
sg159
S"AnytimeBeam-w35-gf(1.3, 'exp')_with_PowerHeuristic2"
p811
sg162
(dp812
g8
((lp813
(F0.71000000000003638
I15
tp814
aF40.190000000000055
tp815
sg46
((lp816
(F1.9400000000000546
I20
tp817
aF40.289999999999964
tp818
sg78
((lp819
(F1.3800000000001091
I7
tp820
aF40.279999999999973
tp821
sg112
((lp822
(F0.10000000000013642
I18
tp823
aF40.0
tp824
sg137
((lp825
(F0.10000000000013642
I35
tp826
a(F1.8500000000001364
I33
tp827
a(F2.7200000000000273
I30
tp828
a(F3.4000000000000909
I26
tp829
a(F4.1900000000000546
I25
tp830
a(F4.9400000000000546
I23
tp831
a(F5.6900000000000546
I21
tp832
a(F7.0099999999999909
I20
tp833
a(F8.2300000000000182
I18
tp834
aF40.0
tp835
ssba(imeasure_core
ProblemSetSolution
p836
(dp837
g3
g192
sg159
g811
sg162
(dp838
g195
((lp839
(F0.21000000000003638
I15
tp840
aF40.010000000000218
tp841
sg238
((lp842
(F5.8699999999998909
I122
tp843
aF40.089999999999691
tp844
sg282
((lp845
(F0.1999999999998181
I13
tp846
aF40.059999999999945
tp847
sg325
((lp848
F40.059999999999945
tp849
sg366
((lp850
(F0.67999999999983629
I34
tp851
a(F1.4000000000000909
I29
tp852
aF40.070000000000164
tp853
ssba(imeasure_core
ProblemSetSolution
p854
(dp855
g3
g442
sg159
g811
sg162
(dp856
g445
((lp857
F40.9699999999998
tp858
sg494
((lp859
F40.75
tp860
sg546
((lp861
(F6.8099999999999454
I6
tp862
aF41.070000000000164
tp863
sg586
((lp864
(F5.6900000000000546
I21
tp865
aF40.299999999999727
tp866
sg623
((lp867
(F33.309999999999945
I27
tp868
aF40.070000000000164
tp869
ssba(imeasure_core
ProblemSetSolution
p870
(dp871
g3
g4
sg159
S"AnytimeBeam-w45-gf(1.3, 'exp')_with_PowerHeuristic2"
p872
sg162
(dp873
g8
((lp874
(F0.78999999999996362
I15
tp875
aF40.009999999999764
tp876
sg46
((lp877
(F2.0500000000001819
I20
tp878
aF40.139999999999873
tp879
sg78
((lp880
(F1.4100000000003092
I7
tp881
aF41.039999999999964
tp882
sg112
((lp883
(F0.090000000000145519
I18
tp884
aF40.010000000000218
tp885
sg137
((lp886
(F0.099999999999909051
I35
tp887
a(F1.4600000000000364
I33
tp888
a(F2.3200000000001637
I30
tp889
a(F3.0099999999997635
I26
tp890
a(F3.7899999999999636
I25
tp891
a(F4.5399999999999636
I23
tp892
a(F5.2899999999999636
I21
tp893
a(F6.6100000000001273
I20
tp894
a(F7.8400000000001455
I18
tp895
aF40.0
tp896
ssba(imeasure_core
ProblemSetSolution
p897
(dp898
g3
g192
sg159
g872
sg162
(dp899
g195
((lp900
(F0.23000000000001819
I15
tp901
aF40.059999999999945
tp902
sg238
((lp903
(F6.2800000000002001
I122
tp904
aF40.449999999999818
tp905
sg282
((lp906
(F0.23000000000001819
I13
tp907
aF40.0
tp908
sg325
((lp909
F40.0300000000002
tp910
sg366
((lp911
(F0.71000000000003638
I29
tp912
aF40.0
tp913
ssba(imeasure_core
ProblemSetSolution
p914
(dp915
g3
g442
sg159
g872
sg162
(dp916
g445
((lp917
F40.119999999999891
tp918
sg494
((lp919
F40.019999999999982
tp920
sg546
((lp921
(F6.9000000000000909
I6
tp922
aF40.819999999999709
tp923
sg586
((lp924
(F5.8700000000003456
I21
tp925
aF40.0600000000004
tp926
sg623
((lp927
(F33.829999999999927
I27
tp928
aF40.629999999999654
tp929
ssba(imeasure_core
ProblemSetSolution
p930
(dp931
g3
g4
sg159
S"AnytimeBeam-w5-gf(1.3, 'exp')_with_LinearHeuristic"
p932
sg162
(dp933
g8
((lp934
(F20.380000000000109
I155
tp935
aF40.049999999999727
tp936
sg46
((lp937
(F1.1000000000003638
I24
tp938
aF40.019999999999982
tp939
sg78
((lp940
(F21.970000000000255
I91
tp941
aF40.0
tp942
sg112
((lp943
(F0.020000000000436557
I10
tp944
aF40.0
tp945
sg137
((lp946
(F0.010000000000218279
I18
tp947
aF40.0
tp948
ssba(imeasure_core
ProblemSetSolution
p949
(dp950
g3
g192
sg159
g932
sg162
(dp951
g195
((lp952
F40.080000000000382
tp953
sg238
((lp954
F40.109999999999673
tp955
sg282
((lp956
(F19.420000000000073
I134
tp957
aF40.010000000000218
tp958
sg325
((lp959
F40.130000000000109
tp960
sg366
((lp961
F40.039999999999964
tp962
ssba(imeasure_core
ProblemSetSolution
p963
(dp964
g3
g442
sg159
g932
sg162
(dp965
g445
((lp966
F40.25
tp967
sg494
((lp968
F41.569999999999709
tp969
sg546
((lp970
(F7.4500000000002728
I7
tp971
aF40.120000000000346
tp972
sg586
((lp973
F40.029999999999745
tp974
sg623
((lp975
F40.7800000000002
tp976
ssba(imeasure_core
ProblemSetSolution
p977
(dp978
g3
g4
sg159
S"AnytimeBeam-w15-gf(1.3, 'exp')_with_LinearHeuristic"
p979
sg162
(dp980
g8
((lp981
(F11.210000000000036
I155
tp982
aF40.059999999999945
tp983
sg46
((lp984
(F1.4000000000000909
I24
tp985
aF40.220000000000255
tp986
sg78
((lp987
(F13.980000000000018
I91
tp988
aF40.099999999999909
tp989
sg112
((lp990
(F0.03999999999996362
I10
tp991
aF40.010000000000218
tp992
sg137
((lp993
(F0.0099999999997635314
I18
tp994
aF40.0
tp995
ssba(imeasure_core
ProblemSetSolution
p996
(dp997
g3
g192
sg159
g979
sg162
(dp998
g195
((lp999
F40.059999999999945
tp1000
sg238
((lp1001
F40.340000000000146
tp1002
sg282
((lp1003
(F16.329999999999927
I134
tp1004
aF40.049999999999727
tp1005
sg325
((lp1006
F40.0600000000004
tp1007
sg366
((lp1008
(F30.849999999999909
I440
tp1009
aF40.029999999999745
tp1010
ssba(imeasure_core
ProblemSetSolution
p1011
(dp1012
g3
g442
sg159
g979
sg162
(dp1013
g445
((lp1014
F40.379999999999654
tp1015
sg494
((lp1016
F40.120000000000346
tp1017
sg546
((lp1018
(F8.7299999999995634
I7
tp1019
aF42.170000000000073
tp1020
sg586
((lp1021
F40.179999999999382
tp1022
sg623
((lp1023
F40.3700000000008
tp1024
ssba(imeasure_core
ProblemSetSolution
p1025
(dp1026
g3
g4
sg159
S"AnytimeBeam-w25-gf(1.3, 'exp')_with_LinearHeuristic"
p1027
sg162
(dp1028
g8
((lp1029
(F12.109999999999673
I155
tp1030
aF40.079999999999927
tp1031
sg46
((lp1032
(F1.6399999999994179
I24
tp1033
aF40.219999999999345
tp1034
sg78
((lp1035
(F14.660000000000764
I91
tp1036
aF40.0600000000004
tp1037
sg112
((lp1038
(F0.050000000000181899
I10
tp1039
aF40.0
tp1040
sg137
((lp1041
(F0.010000000000218279
I18
tp1042
aF40.0
tp1043
ssba(imeasure_core
ProblemSetSolution
p1044
(dp1045
g3
g192
sg159
g1027
sg162
(dp1046
g195
((lp1047
F40.029999999999745
tp1048
sg238
((lp1049
F40.420000000000073
tp1050
sg282
((lp1051
(F6.25
I134
tp1052
a(F39.619999999999891
I133
tp1053
aF40.069999999999709
tp1054
sg325
((lp1055
F40.020000000000437
tp1056
sg366
((lp1057
F40.119999999999891
tp1058
ssba(imeasure_core
ProblemSetSolution
p1059
(dp1060
g3
g442
sg159
g1027
sg162
(dp1061
g445
((lp1062
F40.210000000000036
tp1063
sg494
((lp1064
F40.289999999999964
tp1065
sg546
((lp1066
(F8.9499999999998181
I7
tp1067
aF40.800000000000182
tp1068
sg586
((lp1069
F40.339999999999236
tp1070
sg623
((lp1071
F40.580000000000837
tp1072
ssba(imeasure_core
ProblemSetSolution
p1073
(dp1074
g3
g4
sg159
S"AnytimeBeam-w35-gf(1.3, 'exp')_with_LinearHeuristic"
p1075
sg162
(dp1076
g8
((lp1077
(F13.479999999999563
I155
tp1078
aF40.149999999999636
tp1079
sg46
((lp1080
(F1.8699999999998909
I24
tp1081
aF40.140000000000327
tp1082
sg78
((lp1083
(F15.960000000000036
I91
tp1084
aF40.029999999999745
tp1085
sg112
((lp1086
(F0.059999999999490683
I10
tp1087
aF40.0
tp1088
sg137
((lp1089
(F0.019999999999527063
I18
tp1090
aF40.0
tp1091
ssba(imeasure_core
ProblemSetSolution
p1092
(dp1093
g3
g192
sg159
g1075
sg162
(dp1094
g195
((lp1095
F40.059999999999491
tp1096
sg238
((lp1097
F40.130000000000109
tp1098
sg282
((lp1099
(F6.8999999999996362
I134
tp1100
a(F24.090000000000146
I133
tp1101
a(F35.090000000000146
I132
tp1102
aF40.010000000000218
tp1103
sg325
((lp1104
F40.029999999999745
tp1105
sg366
((lp1106
F40.039999999999964
tp1107
ssba(imeasure_core
ProblemSetSolution
p1108
(dp1109
g3
g442
sg159
g1075
sg162
(dp1110
g445
((lp1111
F40.239999999999782
tp1112
sg494
((lp1113
F40.619999999999891
tp1114
sg546
((lp1115
(F9.430000000000291
I7
tp1116
aF40.350000000000364
tp1117
sg586
((lp1118
F40.609999999999673
tp1119
sg623
((lp1120
F41.289999999999964
tp1121
ssba(imeasure_core
ProblemSetSolution
p1122
(dp1123
g3
g4
sg159
S"AnytimeBeam-w45-gf(1.3, 'exp')_with_LinearHeuristic"
p1124
sg162
(dp1125
g8
((lp1126
(F14.070000000000618
I155
tp1127
aF40.039999999999964
tp1128
sg46
((lp1129
(F1.9900000000006912
I24
tp1130
aF40.300000000000182
tp1131
sg78
((lp1132
(F16.640000000000327
I91
tp1133
aF40.069999999999709
tp1134
sg112
((lp1135
(F0.060000000000400178
I10
tp1136
aF40.0
tp1137
sg137
((lp1138
(F0.010000000000218279
I18
tp1139
aF40.0
tp1140
ssba(imeasure_core
ProblemSetSolution
p1141
(dp1142
g3
g192
sg159
g1124
sg162
(dp1143
g195
((lp1144
F40.020000000000437
tp1145
sg238
((lp1146
F40.069999999999709
tp1147
sg282
((lp1148
(F7.25
I134
tp1149
a(F16.659999999999854
I133
tp1150
a(F27.590000000000146
I132
tp1151
a(F38.619999999999891
I131
tp1152
aF40.0
tp1153
sg325
((lp1154
F40.140000000000327
tp1155
sg366
((lp1156
F40.019999999999527
tp1157
ssba(imeasure_core
ProblemSetSolution
p1158
(dp1159
g3
g442
sg159
g1124
sg162
(dp1160
g445
((lp1161
F40.210000000000036
tp1162
sg494
((lp1163
F40.8100000000004
tp1164
sg546
((lp1165
(F9.5500000000001819
I7
tp1166
aF40.710000000000036
tp1167
sg586
((lp1168
F40.039999999999964
tp1169
sg623
((lp1170
F41.609999999999673
tp1171
ssba.