(lp0
(imeasure_core
ProblemSetSolution
p1
(dp2
S'roomset'
p3
(imeasure_core
RoomSet
p4
(dp5
S'rooms'
p6
(dp7
(iproblems
RoomID
p8
(dp9
S'dusts'
p10
I8
sS'obstacles'
p11
(I5
I7
tp12
sS'robots'
p13
I5
sS'height'
p14
I9
sS'width'
p15
I10
sS'seed'
p16
I5594871498841892311
sb(imulti_robot_problem
MultiRobotState
p17
(dp18
S'obstacle_locations'
p19
c__builtin__
frozenset
p20
((lp21
(I4
I7
tp22
a(I3
I6
tp23
a(I5
I1
tp24
a(I1
I0
tp25
ag12
a(I8
I3
tp26
a(I5
I8
tp27
atp28
Rp29
sg15
I10
sS'dirt_locations'
p30
g20
((lp31
(I0
I1
tp32
a(I9
I0
tp33
a(I8
I2
tp34
a(I6
I0
tp35
a(I1
I1
tp36
a(I1
I5
tp37
a(I9
I4
tp38
a(I2
I4
tp39
atp40
Rp41
sg13
((I7
I6
tp42
(I8
I4
tp43
(I5
I4
tp44
(I7
I2
tp45
(I7
I8
tp46
tp47
sg14
I9
sbs(iproblems
RoomID
p48
(dp49
g10
I6
sg11
(I4
I4
tp50
sg13
I5
sg14
I7
sg15
I8
sg16
I8833747186876682921
sb(imulti_robot_problem
MultiRobotState
p51
(dp52
g19
g20
((lp53
(I2
I2
tp54
ag50
a(I3
I4
tp55
a(I3
I3
tp56
a(I3
I5
tp57
atp58
Rp59
sg15
I8
sg30
g20
((lp60
(I6
I4
tp61
a(I5
I4
tp62
a(I1
I3
tp63
a(I5
I1
tp64
a(I0
I3
tp65
a(I5
I3
tp66
atp67
Rp68
sg13
((I2
I1
tp69
(I6
I1
tp70
(I3
I1
tp71
(I5
I0
tp72
(I7
I3
tp73
tp74
sg14
I7
sbs(iproblems
RoomID
p75
(dp76
g10
I6
sg11
(I2
I3
tp77
sg13
I1
sg14
I8
sg15
I8
sg16
I1085536589165212248
sb(imulti_robot_problem
MultiRobotState
p78
(dp79
g19
g20
((lp80
(I1
I5
tp81
ag77
a(I1
I4
tp82
a(I1
I6
tp83
a(I0
I7
tp84
a(I4
I0
tp85
atp86
Rp87
sg15
I8
sg30
g20
((lp88
(I0
I1
tp89
a(I1
I2
tp90
a(I7
I3
tp91
a(I5
I1
tp92
a(I6
I0
tp93
a(I2
I1
tp94
atp95
Rp96
sg13
((I3
I2
tp97
tp98
sg14
I8
sbs(iproblems
RoomID
p99
(dp100
g10
I7
sg11
(I5
I2
tp101
sg13
I5
sg14
I8
sg15
I9
sg16
I365562409358139953
sb(imulti_robot_problem
MultiRobotState
p102
(dp103
g19
g20
((lp104
(I6
I4
tp105
a(I5
I5
tp106
a(I2
I1
tp107
a(I3
I7
tp108
a(I2
I5
tp109
ag101
a(I0
I2
tp110
a(I5
I3
tp111
atp112
Rp113
sg15
I9
sg30
g20
((lp114
(I2
I0
tp115
a(I1
I6
tp116
a(I8
I2
tp117
a(I4
I5
tp118
a(I8
I6
tp119
a(I5
I7
tp120
a(I3
I4
tp121
atp122
Rp123
sg13
((I4
I2
tp124
(I8
I3
tp125
(I6
I3
tp126
(I2
I4
tp127
(I6
I7
tp128
tp129
sg14
I8
sbs(iproblems
RoomID
p130
(dp131
g10
I5
sg11
(I6
I4
tp132
sg13
I2
sg14
I8
sg15
I10
sg16
I1662056218554549082
sb(imulti_robot_problem
MultiRobotState
p133
(dp134
g19
g20
((lp135
g132
a(I4
I6
tp136
a(I3
I6
tp137
a(I4
I4
tp138
a(I9
I6
tp139
a(I5
I5
tp140
atp141
Rp142
sg15
I10
sg30
g20
((lp143
(I4
I5
tp144
a(I8
I3
tp145
a(I8
I4
tp146
a(I7
I7
tp147
a(I3
I3
tp148
atp149
Rp150
sg13
((I9
I3
tp151
(I2
I0
tp152
tp153
sg14
I8
sbssS'name'
p154
S'easy_roomset'
p155
sbsg154
S'AnytimeBest-d10_with_PowerHeuristic2'
p156
sS'solutions'
p157
(dp158
g8
((lp159
F40.049999999999272
tp160
sg48
((lp161
(F0.61000000000058208
I4
tp162
aF40.030000000002474
tp163
sg99
((lp164
F40.080000000001746
tp165
sg75
((lp166
F0.41999999999825377
tp167
sg130
((lp168
(F0.020000000000436557
I7
tp169
aF40.0
tp170
ssba(imeasure_core
ProblemSetSolution
p171
(dp172
g3
(imeasure_core
RoomSet
p173
(dp174
g6
(dp175
(iproblems
RoomID
p176
(dp177
g10
I8
sg11
(I9
I3
tp178
sg13
I4
sg14
I11
sg15
I12
sg16
I5594871498841892311
sb(imulti_robot_problem
MultiRobotState
p179
(dp180
g19
g20
((lp181
(I5
I9
tp182
a(I6
I9
tp183
a(I11
I9
tp184
a(I9
I1
tp185
a(I4
I8
tp186
a(I8
I0
tp187
a(I6
I0
tp188
a(I9
I9
tp189
ag178
a(I9
I4
tp190
a(I4
I2
tp191
a(I3
I7
tp192
a(I5
I8
tp193
a(I7
I9
tp194
a(I10
I8
tp195
a(I9
I0
tp196
a(I7
I0
tp197
a(I6
I8
tp198
a(I9
I2
tp199
a(I5
I7
tp200
a(I8
I10
tp201
a(I2
I0
tp202
a(I5
I0
tp203
a(I0
I9
tp204
a(I10
I0
tp205
a(I10
I2
tp206
atp207
Rp208
sg15
I12
sg30
g20
((lp209
(I2
I6
tp210
a(I11
I5
tp211
a(I6
I1
tp212
a(I11
I1
tp213
a(I2
I1
tp214
a(I8
I8
tp215
a(I0
I2
tp216
a(I3
I5
tp217
atp218
Rp219
sg13
((I9
I7
tp220
(I10
I5
tp221
(I6
I5
tp222
(I8
I3
tp223
tp224
sg14
I11
sbs(iproblems
RoomID
p225
(dp226
g10
I6
sg11
(I9
I4
tp227
sg13
I4
sg14
I9
sg15
I10
sg16
I8833747186876682921
sb(imulti_robot_problem
MultiRobotState
p228
(dp229
g19
g20
((lp230
(I4
I7
tp231
a(I4
I8
tp232
a(I4
I5
tp233
a(I2
I1
tp234
a(I7
I5
tp235
a(I2
I3
tp236
ag227
a(I2
I5
tp237
a(I6
I5
tp238
a(I3
I5
tp239
a(I2
I7
tp240
a(I8
I3
tp241
a(I5
I5
tp242
a(I3
I4
tp243
a(I7
I4
tp244
a(I5
I6
tp245
a(I8
I8
tp246
a(I3
I6
tp247
a(I4
I1
tp248
a(I1
I1
tp249
atp250
Rp251
sg15
I10
sg30
g20
((lp252
(I3
I2
tp253
a(I6
I2
tp254
a(I7
I0
tp255
a(I1
I4
tp256
a(I0
I4
tp257
a(I0
I7
tp258
atp259
Rp260
sg13
((I3
I1
tp261
(I8
I1
tp262
(I3
I3
tp263
(I4
I2
tp264
tp265
sg14
I9
sbs(iproblems
RoomID
p266
(dp267
g10
I10
sg11
(I4
I8
tp268
sg13
I3
sg14
I11
sg15
I9
sg16
I6645345695289302126
sb(imulti_robot_problem
MultiRobotState
p269
(dp270
g19
g20
((lp271
(I5
I9
tp272
a(I3
I2
tp273
a(I3
I1
tp274
ag268
a(I4
I5
tp275
a(I1
I4
tp276
a(I4
I2
tp277
a(I3
I7
tp278
a(I4
I6
tp279
a(I3
I3
tp280
a(I4
I1
tp281
a(I6
I1
tp282
a(I4
I4
tp283
a(I2
I4
tp284
a(I3
I8
tp285
a(I1
I5
tp286
a(I4
I3
tp287
a(I3
I5
tp288
a(I3
I4
tp289
a(I1
I1
tp290
a(I8
I4
tp291
atp292
Rp293
sg15
I9
sg30
g20
((lp294
(I0
I1
tp295
a(I5
I4
tp296
a(I6
I7
tp297
a(I8
I2
tp298
a(I8
I7
tp299
a(I8
I8
tp300
a(I2
I3
tp301
a(I3
I6
tp302
a(I1
I0
tp303
a(I5
I5
tp304
atp305
Rp306
sg13
((I1
I6
tp307
(I0
I9
tp308
(I0
I5
tp309
tp310
sg14
I11
sbs(iproblems
RoomID
p311
(dp312
g10
I8
sg11
(I4
I6
tp313
sg13
I3
sg14
I9
sg15
I12
sg16
I4800841617172907184
sb(imulti_robot_problem
MultiRobotState
p314
(dp315
g19
g20
((lp316
(I5
I4
tp317
ag313
a(I8
I7
tp318
a(I6
I6
tp319
a(I4
I5
tp320
a(I9
I8
tp321
a(I9
I3
tp322
a(I6
I0
tp323
a(I2
I1
tp324
a(I10
I1
tp325
a(I4
I2
tp326
a(I8
I5
tp327
a(I7
I2
tp328
a(I5
I3
tp329
a(I8
I3
tp330
a(I3
I1
tp331
a(I3
I3
tp332
a(I11
I8
tp333
a(I7
I1
tp334
a(I11
I3
tp335
a(I6
I3
tp336
a(I0
I6
tp337
a(I4
I3
tp338
a(I8
I6
tp339
a(I8
I4
tp340
a(I9
I7
tp341
atp342
Rp343
sg15
I12
sg30
g20
((lp344
(I11
I4
tp345
a(I8
I2
tp346
a(I10
I7
tp347
a(I7
I6
tp348
a(I1
I4
tp349
a(I11
I0
tp350
a(I9
I2
tp351
a(I0
I2
tp352
atp353
Rp354
sg13
((I9
I1
tp355
(I0
I4
tp356
(I7
I4
tp357
tp358
sg14
I9
sbs(iproblems
RoomID
p359
(dp360
g10
I7
sg11
(I8
I4
tp361
sg13
I4
sg14
I10
sg15
I11
sg16
I365562409358139953
sb(imulti_robot_problem
MultiRobotState
p362
(dp363
g19
g20
((lp364
(I7
I3
tp365
a(I8
I7
tp366
a(I4
I8
tp367
a(I2
I8
tp368
a(I5
I9
tp369
a(I6
I2
tp370
a(I1
I6
tp371
a(I9
I4
tp372
a(I6
I4
tp373
a(I9
I6
tp374
a(I6
I5
tp375
a(I10
I8
tp376
a(I10
I5
tp377
a(I6
I7
tp378
a(I10
I7
tp379
a(I7
I6
tp380
a(I3
I1
tp381
a(I0
I5
tp382
a(I3
I8
tp383
a(I7
I5
tp384
a(I8
I6
tp385
ag361
a(I5
I2
tp386
a(I6
I1
tp387
a(I9
I7
tp388
atp389
Rp390
sg15
I11
sg30
g20
((lp391
(I5
I6
tp392
a(I6
I9
tp393
a(I1
I7
tp394
a(I4
I5
tp395
a(I10
I3
tp396
a(I0
I2
tp397
a(I2
I1
tp398
atp399
Rp400
sg13
((I10
I4
tp401
(I7
I4
tp402
(I3
I6
tp403
(I8
I9
tp404
tp405
sg14
I10
sbssg154
S'mild_roomset'
p406
sbsg154
g156
sg157
(dp407
g176
((lp408
F40.190000000002328
tp409
sg225
((lp410
F40.019999999996799
tp411
sg266
((lp412
F40.090000000000146
tp413
sg311
((lp414
F40.090000000000146
tp415
sg359
((lp416
F40.030000000002474
tp417
ssba(imeasure_core
ProblemSetSolution
p418
(dp419
g3
(imeasure_core
RoomSet
p420
(dp421
g6
(dp422
(iproblems
RoomID
p423
(dp424
g10
I13
sg11
(I9
I8
tp425
sg13
I7
sg14
I12
sg15
I13
sg16
I5594871498841892311
sb(imulti_robot_problem
MultiRobotState
p426
(dp427
g19
g20
((lp428
(I5
I9
tp429
a(I6
I9
tp430
a(I1
I3
tp431
a(I10
I4
tp432
a(I4
I8
tp433
ag425
a(I1
I4
tp434
a(I11
I3
tp435
a(I8
I6
tp436
a(I9
I6
tp437
a(I5
I5
tp438
a(I9
I5
tp439
a(I6
I7
tp440
a(I6
I8
tp441
a(I6
I10
tp442
a(I8
I10
tp443
a(I5
I0
tp444
a(I10
I0
tp445
a(I7
I9
tp446
a(I9
I7
tp447
atp448
Rp449
sg15
I13
sg30
g20
((lp450
(I2
I7
tp451
a(I10
I5
tp452
a(I11
I5
tp453
a(I6
I1
tp454
a(I8
I0
tp455
a(I2
I1
tp456
a(I2
I0
tp457
a(I0
I10
tp458
a(I7
I10
tp459
a(I12
I10
tp460
a(I5
I2
tp461
a(I0
I2
tp462
a(I3
I5
tp463
atp464
Rp465
sg13
((I10
I8
tp466
(I11
I6
tp467
(I7
I5
tp468
(I9
I3
tp469
(I9
I11
tp470
(I12
I1
tp471
(I9
I9
tp472
tp473
sg14
I12
sbs(iproblems
RoomID
p474
(dp475
g10
I11
sg11
(I8
I7
tp476
sg13
I7
sg14
I10
sg15
I11
sg16
I8833747186876682921
sb(imulti_robot_problem
MultiRobotState
p477
(dp478
g19
g20
((lp479
(I5
I7
tp480
a(I4
I8
tp481
a(I4
I5
tp482
a(I2
I1
tp483
ag476
a(I5
I1
tp484
a(I5
I5
tp485
a(I6
I7
tp486
a(I4
I6
tp487
a(I8
I1
tp488
a(I4
I4
tp489
a(I6
I3
tp490
a(I8
I8
tp491
a(I3
I3
tp492
a(I7
I8
tp493
a(I10
I2
tp494
atp495
Rp496
sg15
I11
sg30
g20
((lp497
(I10
I5
tp498
a(I7
I6
tp499
a(I4
I7
tp500
a(I1
I4
tp501
a(I9
I9
tp502
a(I3
I8
tp503
a(I0
I5
tp504
a(I8
I6
tp505
a(I2
I5
tp506
a(I0
I8
tp507
a(I7
I2
tp508
atp509
Rp510
sg13
((I3
I1
tp511
(I9
I1
tp512
(I5
I2
tp513
(I4
I3
tp514
(I8
I0
tp515
(I10
I4
tp516
(I8
I5
tp517
tp518
sg14
I10
sbs(iproblems
RoomID
p519
(dp520
g10
I11
sg11
(I4
I6
tp521
sg13
I5
sg14
I11
sg15
I11
sg16
I1085536589165212248
sb(imulti_robot_problem
MultiRobotState
p522
(dp523
g19
g20
((lp524
(I10
I5
tp525
a(I2
I6
tp526
ag521
a(I9
I3
tp527
a(I3
I2
tp528
a(I9
I9
tp529
a(I1
I8
tp530
a(I1
I9
tp531
a(I1
I7
tp532
a(I3
I7
tp533
a(I6
I9
tp534
a(I5
I8
tp535
a(I3
I3
tp536
atp537
Rp538
sg15
I11
sg30
g20
((lp539
(I0
I1
tp540
a(I4
I9
tp541
a(I10
I4
tp542
a(I10
I7
tp543
a(I6
I0
tp544
a(I0
I7
tp545
a(I2
I3
tp546
a(I1
I4
tp547
a(I2
I2
tp548
a(I10
I0
tp549
a(I0
I10
tp550
atp551
Rp552
sg13
((I5
I3
tp553
(I0
I2
tp554
(I3
I1
tp555
(I7
I1
tp556
(I9
I0
tp557
tp558
sg14
I11
sbs(iproblems
RoomID
p559
(dp560
g10
I13
sg11
(I3
I8
tp561
sg13
I5
sg14
I10
sg15
I10
sg16
I5338040351619750409
sb(imulti_robot_problem
MultiRobotState
p562
(dp563
g19
g20
((lp564
(I4
I7
tp565
a(I2
I6
tp566
a(I9
I1
tp567
a(I2
I8
tp568
a(I6
I1
tp569
a(I1
I4
tp570
ag561
a(I1
I6
tp571
a(I4
I3
tp572
a(I1
I7
tp573
a(I2
I5
tp574
a(I9
I7
tp575
a(I2
I4
tp576
a(I6
I8
tp577
atp578
Rp579
sg15
I10
sg30
g20
((lp580
(I6
I9
tp581
a(I1
I3
tp582
a(I4
I9
tp583
a(I4
I6
tp584
a(I6
I6
tp585
a(I8
I3
tp586
a(I2
I1
tp587
a(I8
I9
tp588
a(I1
I8
tp589
a(I7
I5
tp590
a(I3
I6
tp591
a(I9
I6
tp592
a(I4
I0
tp593
atp594
Rp595
sg13
((I2
I0
tp596
(I3
I5
tp597
(I5
I0
tp598
(I5
I2
tp599
(I4
I5
tp600
tp601
sg14
I10
sbs(iproblems
RoomID
p602
(dp603
g10
I12
sg11
(I0
I5
tp604
sg13
I7
sg14
I11
sg15
I12
sg16
I365562409358139953
sb(imulti_robot_problem
MultiRobotState
p605
(dp606
g19
g20
((lp607
(I1
I3
tp608
a(I6
I6
tp609
a(I0
I4
tp610
a(I7
I5
tp611
ag604
a(I8
I7
tp612
a(I4
I2
tp613
a(I2
I9
tp614
a(I10
I7
tp615
a(I7
I8
tp616
a(I7
I6
tp617
a(I3
I1
tp618
a(I4
I8
tp619
a(I3
I9
tp620
a(I2
I2
tp621
a(I8
I6
tp622
a(I5
I2
tp623
a(I11
I6
tp624
a(I8
I4
tp625
atp626
Rp627
sg15
I12
sg30
g20
((lp628
(I3
I2
tp629
a(I11
I9
tp630
a(I4
I9
tp631
a(I10
I4
tp632
a(I5
I7
tp633
a(I2
I1
tp634
a(I0
I6
tp635
a(I1
I6
tp636
a(I7
I10
tp637
a(I3
I7
tp638
a(I5
I10
tp639
a(I0
I2
tp640
atp641
Rp642
sg13
((I6
I3
tp643
(I10
I5
tp644
(I3
I6
tp645
(I8
I10
tp646
(I4
I6
tp647
(I11
I3
tp648
(I1
I8
tp649
tp650
sg14
I11
sbssg154
S'heavy_roomset'
p651
sbsg154
g156
sg157
(dp652
g423
((lp653
F41.740000000001601
tp654
sg474
((lp655
F40.329999999998108
tp656
sg519
((lp657
F40.290000000000873
tp658
sg602
((lp659
F41.220000000001164
tp660
sg559
((lp661
F40.090000000000146
tp662
ssba(imeasure_core
ProblemSetSolution
p663
(dp664
g3
g4
sg154
S'AnytimeBest-d80_with_PowerHeuristic2'
p665
sg157
(dp666
g8
((lp667
(F2.4000000000014552
I13
tp668
aF40.06000000000131
tp669
sg48
((lp670
(F0.61000000000058208
I4
tp671
aF40.029999999998836
tp672
sg99
((lp673
F40.549999999999272
tp674
sg75
((lp675
(F0.08000000000174623
I30
tp676
a(F0.5
I28
tp677
a(F0.75999999999839929
I27
tp678
a(F0.90999999999985448
I25
tp679
a(F1.0499999999992724
I23
tp680
a(F1.930000000000291
I21
tp681
a(F2.9399999999986903
I20
tp682
a(F3.8699999999989814
I19
tp683
a(F4.7000000000007276
I17
tp684
a(F5.5200000000004366
I15
tp685
aF6.0400000000008731
tp686
sg130
((lp687
(F0.0099999999983992893
I7
tp688
aF40.0
tp689
ssba(imeasure_core
ProblemSetSolution
p690
(dp691
g3
g173
sg154
g665
sg157
(dp692
g176
((lp693
(F1.3600000000005821
I32
tp694
aF40.080000000001746
tp695
sg225
((lp696
(F1.4099999999998545
I32
tp697
aF40.029999999998836
tp698
sg266
((lp699
F40.120000000002619
tp700
sg311
((lp701
(F0.13999999999941792
I17
tp702
aF40.009999999998399
tp703
sg359
((lp704
(F0.25
I25
tp705
aF40.020000000000437
tp706
ssba(imeasure_core
ProblemSetSolution
p707
(dp708
g3
g420
sg154
g665
sg157
(dp709
g423
((lp710
F41.360000000000582
tp711
sg474
((lp712
(F25.400000000001455
I19
tp713
aF40.260000000002037
tp714
sg519
((lp715
(F2.1699999999982538
I15
tp716
aF40.049999999999272
tp717
sg602
((lp718
F41.510000000002037
tp719
sg559
((lp720
(F2.3400000000001455
I16
tp721
aF40.029999999998836
tp722
ssba(imeasure_core
ProblemSetSolution
p723
(dp724
g3
g4
sg154
S'AnytimeBest-d150_with_PowerHeuristic2'
p725
sg157
(dp726
g8
((lp727
(F2.4399999999986903
I13
tp728
aF40.059999999997672
tp729
sg48
((lp730
(F0.61000000000058208
I4
tp731
aF40.030000000002474
tp732
sg99
((lp733
F40.140000000003056
tp734
sg75
((lp735
(F0.079999999998108251
I30
tp736
a(F0.5
I28
tp737
a(F0.76999999999679858
I27
tp738
a(F0.90999999999985448
I25
tp739
a(F1.0499999999992724
I23
tp740
a(F1.9399999999986903
I21
tp741
a(F2.9599999999991269
I20
tp742
a(F3.8999999999978172
I19
tp743
a(F4.7299999999995634
I17
tp744
a(F5.569999999999709
I15
tp745
aF6.0899999999965075
tp746
sg130
((lp747
(F0.020000000000436557
I7
tp748
aF40.009999999998399
tp749
ssba(imeasure_core
ProblemSetSolution
p750
(dp751
g3
g173
sg154
g725
sg157
(dp752
g176
((lp753
(F1.3600000000005821
I32
tp754
aF40.069999999999709
tp755
sg225
((lp756
(F1.430000000000291
I32
tp757
aF40.029999999998836
tp758
sg266
((lp759
F40.110000000000582
tp760
sg311
((lp761
(F0.13000000000101863
I17
tp762
aF40.010000000002037
tp763
sg359
((lp764
(F0.25
I25
tp765
aF40.020000000000437
tp766
ssba(imeasure_core
ProblemSetSolution
p767
(dp768
g3
g420
sg154
g725
sg157
(dp769
g423
((lp770
F41.81000000000131
tp771
sg474
((lp772
(F25.450000000000728
I19
tp773
aF40.389999999999418
tp774
sg519
((lp775
(F2.2100000000027649
I15
tp776
aF40.05000000000291
tp777
sg602
((lp778
F41.569999999999709
tp779
sg559
((lp780
(F2.3299999999981083
I16
tp781
aF40.029999999998836
tp782
ssba(imeasure_core
ProblemSetSolution
p783
(dp784
g3
g4
sg154
S'AnytimeBest-d250_with_PowerHeuristic2'
p785
sg157
(dp786
g8
((lp787
(F2.4099999999998545
I13
tp788
aF40.450000000000728
tp789
sg48
((lp790
(F0.61000000000058208
I4
tp791
aF40.029999999998836
tp792
sg99
((lp793
F40.389999999999418
tp794
sg75
((lp795
(F0.08000000000174623
I30
tp796
a(F0.5
I28
tp797
a(F0.76000000000203727
I27
tp798
a(F0.91000000000349246
I25
tp799
a(F1.0500000000029104
I23
tp800
a(F1.930000000000291
I21
tp801
a(F2.9400000000023283
I20
tp802
a(F3.8700000000026193
I19
tp803
a(F4.7000000000007276
I17
tp804
a(F5.5300000000024738
I15
tp805
aF6.0400000000008731
tp806
sg130
((lp807
(F0.010000000002037268
I7
tp808
aF40.0
tp809
ssba(imeasure_core
ProblemSetSolution
p810
(dp811
g3
g173
sg154
g785
sg157
(dp812
g176
((lp813
(F1.3699999999989814
I32
tp814
aF40.059999999997672
tp815
sg225
((lp816
(F1.4200000000018917
I32
tp817
aF40.030000000002474
tp818
sg266
((lp819
F40.119999999998981
tp820
sg311
((lp821
(F0.13000000000101863
I17
tp822
aF40.020000000000437
tp823
sg359
((lp824
(F0.25
I25
tp825
aF40.020000000000437
tp826
ssba(imeasure_core
ProblemSetSolution
p827
(dp828
g3
g420
sg154
g785
sg157
(dp829
g423
((lp830
F41.380000000001019
tp831
sg474
((lp832
(F25.659999999999854
I19
tp833
aF40.259999999998399
tp834
sg519
((lp835
(F2.180000000000291
I15
tp836
aF40.05000000000291
tp837
sg602
((lp838
F41.169999999998254
tp839
sg559
((lp840
(F2.3099999999976717
I16
tp841
aF40.029999999998836
tp842
ssba(imeasure_core
ProblemSetSolution
p843
(dp844
g3
g4
sg154
S'AnytimeBest-d400_with_PowerHeuristic2'
p845
sg157
(dp846
g8
((lp847
(F2.4200000000018917
I13
tp848
aF40.070000000003347
tp849
sg48
((lp850
(F0.6099999999969441
I4
tp851
aF40.029999999998836
tp852
sg99
((lp853
F40.31000000000131
tp854
sg75
((lp855
(F0.079999999998108251
I30
tp856
a(F0.5
I28
tp857
a(F0.75999999999839929
I27
tp858
a(F0.90999999999985448
I25
tp859
a(F1.0499999999992724
I23
tp860
a(F1.930000000000291
I21
tp861
a(F2.9399999999986903
I20
tp862
a(F3.8699999999989814
I19
tp863
a(F4.7000000000007276
I17
tp864
a(F5.5299999999988358
I15
tp865
aF6.0499999999992724
tp866
sg130
((lp867
(F0.020000000000436557
I7
tp868
aF40.0
tp869
ssba(imeasure_core
ProblemSetSolution
p870
(dp871
g3
g173
sg154
g845
sg157
(dp872
g176
((lp873
(F1.3699999999989814
I32
tp874
aF40.040000000000873
tp875
sg225
((lp876
(F1.4199999999982538
I32
tp877
aF40.029999999998836
tp878
sg266
((lp879
F40.110000000000582
tp880
sg311
((lp881
(F0.13999999999941792
I17
tp882
aF40.009999999998399
tp883
sg359
((lp884
(F0.25
I25
tp885
aF40.020000000000437
tp886
ssba(imeasure_core
ProblemSetSolution
p887
(dp888
g3
g420
sg154
g845
sg157
(dp889
g423
((lp890
F41.419999999998254
tp891
sg474
((lp892
(F25.580000000001746
I19
tp893
aF40.420000000001892
tp894
sg519
((lp895
(F2.180000000000291
I15
tp896
aF40.149999999997817
tp897
sg602
((lp898
F41.659999999999854
tp899
sg559
((lp900
(F2.319999999999709
I16
tp901
aF40.030000000002474
tp902
ssba(imeasure_core
ProblemSetSolution
p903
(dp904
g3
g4
sg154
S'AnytimeBest-d10_with_LinearHeuristic'
p905
sg157
(dp906
g8
((lp907
F40.299999999999272
tp908
sg48
((lp909
(F1.0
I4
tp910
aF40.190000000002328
tp911
sg99
((lp912
F40.119999999998981
tp913
sg75
((lp914
F1.180000000000291
tp915
sg130
((lp916
(F0.029999999998835847
I7
tp917
aF40.020000000000437
tp918
ssba(imeasure_core
ProblemSetSolution
p919
(dp920
g3
g173
sg154
g905
sg157
(dp921
g176
((lp922
F40.149999999997817
tp923
sg225
((lp924
F40.130000000001019
tp925
sg266
((lp926
F40.100000000002183
tp927
sg311
((lp928
F40.029999999998836
tp929
sg359
((lp930
F40.059999999997672
tp931
ssba(imeasure_core
ProblemSetSolution
p932
(dp933
g3
g420
sg154
g905
sg157
(dp934
g423
((lp935
F40.759999999998399
tp936
sg474
((lp937
F40.290000000000873
tp938
sg519
((lp939
F40.830000000001746
tp940
sg602
((lp941
F40.389999999999418
tp942
sg559
((lp943
F40.319999999999709
tp944
ssba(imeasure_core
ProblemSetSolution
p945
(dp946
g3
g4
sg154
S'AnytimeBest-d80_with_LinearHeuristic'
p947
sg157
(dp948
g8
((lp949
F40.470000000001164
tp950
sg48
((lp951
(F1.0099999999983993
I4
tp952
aF40.18999999999869
tp953
sg99
((lp954
(F3.2900000000008731
I17
tp955
aF40.369999999998981
tp956
sg75
((lp957
(F0.0099999999983992893
I15
tp958
aF5.7999999999992724
tp959
sg130
((lp960
(F0.020000000000436557
I7
tp961
aF40.020000000000437
tp962
ssba(imeasure_core
ProblemSetSolution
p963
(dp964
g3
g173
sg154
g947
sg157
(dp965
g176
((lp966
F40.06000000000131
tp967
sg225
((lp968
F40.040000000000873
tp969
sg266
((lp970
F40.079999999998108
tp971
sg311
((lp972
F40.040000000000873
tp973
sg359
((lp974
F40.029999999998836
tp975
ssba(imeasure_core
ProblemSetSolution
p976
(dp977
g3
g420
sg154
g947
sg157
(dp978
g423
((lp979
F40.520000000000437
tp980
sg474
((lp981
F40.289999999997235
tp982
sg519
((lp983
F40.360000000000582
tp984
sg602
((lp985
F40.390000000003056
tp986
sg559
((lp987
F40.119999999998981
tp988
ssba(imeasure_core
ProblemSetSolution
p989
(dp990
g3
g4
sg154
S'AnytimeBest-d150_with_LinearHeuristic'
p991
sg157
(dp992
g8
((lp993
F40.900000000001455
tp994
sg48
((lp995
(F1.0099999999983993
I4
tp996
aF40.18999999999869
tp997
sg99
((lp998
(F3.2600000000020373
I17
tp999
aF40.220000000001164
tp1000
sg75
((lp1001
(F0.0099999999983992893
I15
tp1002
aF5.7799999999988358
tp1003
sg130
((lp1004
(F0.020000000000436557
I7
tp1005
aF40.020000000000437
tp1006
ssba(imeasure_core
ProblemSetSolution
p1007
(dp1008
g3
g173
sg154
g991
sg157
(dp1009
g176
((lp1010
F40.520000000000437
tp1011
sg225
((lp1012
F40.049999999999272
tp1013
sg266
((lp1014
F40.080000000001746
tp1015
sg311
((lp1016
F40.109999999996944
tp1017
sg359
((lp1018
F40.130000000001019
tp1019
ssba(imeasure_core
ProblemSetSolution
p1020
(dp1021
g3
g420
sg154
g991
sg157
(dp1022
g423
((lp1023
F40.920000000001892
tp1024
sg474
((lp1025
F40.639999999999418
tp1026
sg519
((lp1027
F40.43999999999869
tp1028
sg602
((lp1029
F40.820000000003347
tp1030
sg559
((lp1031
F40.68999999999869
tp1032
ssba(imeasure_core
ProblemSetSolution
p1033
(dp1034
g3
g4
sg154
S'AnytimeBest-d250_with_LinearHeuristic'
p1035
sg157
(dp1036
g8
((lp1037
F40.709999999999127
tp1038
sg48
((lp1039
(F1.0200000000004366
I4
tp1040
aF40.740000000001601
tp1041
sg99
((lp1042
(F3.2900000000008731
I17
tp1043
aF40.119999999998981
tp1044
sg75
((lp1045
(F0.0099999999983992893
I15
tp1046
aF5.8699999999989814
tp1047
sg130
((lp1048
(F0.020000000000436557
I7
tp1049
aF40.020000000000437
tp1050
ssba(imeasure_core
ProblemSetSolution
p1051
(dp1052
g3
g173
sg154
g1035
sg157
(dp1053
g176
((lp1054
F40.539999999997235
tp1055
sg225
((lp1056
F40.400000000001455
tp1057
sg266
((lp1058
F40.080000000001746
tp1059
sg311
((lp1060
F40.039999999997235
tp1061
sg359
((lp1062
F40.030000000002474
tp1063
ssba(imeasure_core
ProblemSetSolution
p1064
(dp1065
g3
g420
sg154
g1035
sg157
(dp1066
g423
((lp1067
F40.759999999998399
tp1068
sg474
((lp1069
F40.620000000002619
tp1070
sg519
((lp1071
F40.540000000000873
tp1072
sg602
((lp1073
F40.819999999999709
tp1074
sg559
((lp1075
F40.629999999997381
tp1076
ssba(imeasure_core
ProblemSetSolution
p1077
(dp1078
g3
g4
sg154
S'AnytimeBest-d400_with_LinearHeuristic'
p1079
sg157
(dp1080
g8
((lp1081
F40.590000000000146
tp1082
sg48
((lp1083
(F1.0200000000004366
I4
tp1084
aF40.309999999997672
tp1085
sg99
((lp1086
(F3.25
I17
tp1087
aF40.220000000001164
tp1088
sg75
((lp1089
(F0.010000000002037268
I15
tp1090
aF5.8100000000013097
tp1091
sg130
((lp1092
(F0.020000000000436557
I7
tp1093
aF40.020000000000437
tp1094
ssba(imeasure_core
ProblemSetSolution
p1095
(dp1096
g3
g173
sg154
g1079
sg157
(dp1097
g176
((lp1098
F40.080000000001746
tp1099
sg225
((lp1100
F40.209999999999127
tp1101
sg266
((lp1102
F40.139999999999418
tp1103
sg311
((lp1104
F40.110000000000582
tp1105
sg359
((lp1106
F40.290000000000873
tp1107
ssba(imeasure_core
ProblemSetSolution
p1108
(dp1109
g3
g420
sg154
g1079
sg157
(dp1110
g423
((lp1111
F40.909999999999854
tp1112
sg474
((lp1113
F40.649999999997817
tp1114
sg519
((lp1115
F40.279999999998836
tp1116
sg602
((lp1117
F40.849999999998545
tp1118
sg559
((lp1119
F40.780000000002474
tp1120
ssba.