(lp0
(imeasure_core
ProblemSetSolution
p1
(dp2
S'roomset'
p3
(imeasure_core
RoomSet
p4
(dp5
S'rooms'
p6
(dp7
(iproblems
RoomID
p8
(dp9
S'dusts'
p10
I8
sS'obstacles'
p11
(I5
I7
tp12
sS'robots'
p13
I5
sS'height'
p14
I9
sS'width'
p15
I10
sS'seed'
p16
I5594871498841892311
sb(imulti_robot_problem
MultiRobotState
p17
(dp18
S'obstacle_locations'
p19
c__builtin__
frozenset
p20
((lp21
(I4
I7
tp22
a(I3
I6
tp23
a(I5
I1
tp24
a(I1
I0
tp25
ag12
a(I8
I3
tp26
a(I5
I8
tp27
atp28
Rp29
sg15
I10
sS'dirt_locations'
p30
g20
((lp31
(I0
I1
tp32
a(I9
I0
tp33
a(I8
I2
tp34
a(I6
I0
tp35
a(I1
I1
tp36
a(I1
I5
tp37
a(I9
I4
tp38
a(I2
I4
tp39
atp40
Rp41
sg13
((I7
I6
tp42
(I8
I4
tp43
(I5
I4
tp44
(I7
I2
tp45
(I7
I8
tp46
tp47
sg14
I9
sbs(iproblems
RoomID
p48
(dp49
g10
I6
sg11
(I4
I4
tp50
sg13
I5
sg14
I7
sg15
I8
sg16
I8833747186876682921
sb(imulti_robot_problem
MultiRobotState
p51
(dp52
g19
g20
((lp53
(I2
I2
tp54
ag50
a(I3
I4
tp55
a(I3
I3
tp56
a(I3
I5
tp57
atp58
Rp59
sg15
I8
sg30
g20
((lp60
(I6
I4
tp61
a(I5
I4
tp62
a(I1
I3
tp63
a(I5
I1
tp64
a(I0
I3
tp65
a(I5
I3
tp66
atp67
Rp68
sg13
((I2
I1
tp69
(I6
I1
tp70
(I3
I1
tp71
(I5
I0
tp72
(I7
I3
tp73
tp74
sg14
I7
sbs(iproblems
RoomID
p75
(dp76
g10
I7
sg11
(I5
I2
tp77
sg13
I5
sg14
I8
sg15
I9
sg16
I365562409358139953
sb(imulti_robot_problem
MultiRobotState
p78
(dp79
g19
g20
((lp80
(I6
I4
tp81
a(I5
I5
tp82
a(I2
I1
tp83
a(I3
I7
tp84
a(I2
I5
tp85
ag77
a(I0
I2
tp86
a(I5
I3
tp87
atp88
Rp89
sg15
I9
sg30
g20
((lp90
(I2
I0
tp91
a(I1
I6
tp92
a(I8
I2
tp93
a(I4
I5
tp94
a(I8
I6
tp95
a(I5
I7
tp96
a(I3
I4
tp97
atp98
Rp99
sg13
((I4
I2
tp100
(I8
I3
tp101
(I6
I3
tp102
(I2
I4
tp103
(I6
I7
tp104
tp105
sg14
I8
sbs(iproblems
RoomID
p106
(dp107
g10
I5
sg11
(I6
I4
tp108
sg13
I2
sg14
I8
sg15
I10
sg16
I1662056218554549082
sb(imulti_robot_problem
MultiRobotState
p109
(dp110
g19
g20
((lp111
g108
a(I4
I6
tp112
a(I3
I6
tp113
a(I4
I4
tp114
a(I9
I6
tp115
a(I5
I5
tp116
atp117
Rp118
sg15
I10
sg30
g20
((lp119
(I4
I5
tp120
a(I8
I3
tp121
a(I8
I4
tp122
a(I7
I7
tp123
a(I3
I3
tp124
atp125
Rp126
sg13
((I9
I3
tp127
(I2
I0
tp128
tp129
sg14
I8
sbs(iproblems
RoomID
p130
(dp131
g10
I6
sg11
(I2
I3
tp132
sg13
I1
sg14
I8
sg15
I8
sg16
I1085536589165212248
sb(imulti_robot_problem
MultiRobotState
p133
(dp134
g19
g20
((lp135
(I1
I5
tp136
ag132
a(I1
I4
tp137
a(I1
I6
tp138
a(I0
I7
tp139
a(I4
I0
tp140
atp141
Rp142
sg15
I8
sg30
g20
((lp143
(I0
I1
tp144
a(I1
I2
tp145
a(I7
I3
tp146
a(I5
I1
tp147
a(I6
I0
tp148
a(I2
I1
tp149
atp150
Rp151
sg13
((I3
I2
tp152
tp153
sg14
I8
sbssS'name'
p154
S'easy_roomset'
p155
sbsg154
S"AnytimeBeam-w20-gf(2, 'lin')_with_PowerHeuristic2"
p156
sS'solutions'
p157
(dp158
g8
((lp159
(F2.7799999999988358
I13
tp160
aF40.169999999998254
tp161
sg48
((lp162
(F0.54000000000087311
I4
tp163
aF40.259999999998399
tp164
sg75
((lp165
F40.380000000001019
tp166
sg106
((lp167
(F0.030000000002473826
I7
tp168
aF40.0
tp169
sg130
((lp170
(F0.060000000001309672
I32
tp171
a(F0.11999999999898137
I30
tp172
a(F5.1599999999998545
I28
tp173
a(F5.5200000000004366
I27
tp174
a(F5.9000000000014552
I25
tp175
a(F6.2299999999995634
I23
tp176
a(F9.0
I21
tp177
a(F10.090000000000146
I20
tp178
a(F28.190000000002328
I19
tp179
a(F29.869999999998981
I17
tp180
a(F31.490000000001601
I15
tp181
aF40.0
tp182
ssba(imeasure_core
ProblemSetSolution
p183
(dp184
g3
(imeasure_core
RoomSet
p185
(dp186
g6
(dp187
(iproblems
RoomID
p188
(dp189
g10
I8
sg11
(I9
I3
tp190
sg13
I4
sg14
I11
sg15
I12
sg16
I5594871498841892311
sb(imulti_robot_problem
MultiRobotState
p191
(dp192
g19
g20
((lp193
(I5
I9
tp194
a(I6
I9
tp195
a(I11
I9
tp196
a(I9
I1
tp197
a(I4
I8
tp198
a(I8
I0
tp199
a(I6
I0
tp200
a(I9
I9
tp201
ag190
a(I9
I4
tp202
a(I4
I2
tp203
a(I3
I7
tp204
a(I5
I8
tp205
a(I7
I9
tp206
a(I10
I8
tp207
a(I9
I0
tp208
a(I7
I0
tp209
a(I6
I8
tp210
a(I9
I2
tp211
a(I5
I7
tp212
a(I8
I10
tp213
a(I2
I0
tp214
a(I5
I0
tp215
a(I0
I9
tp216
a(I10
I0
tp217
a(I10
I2
tp218
atp219
Rp220
sg15
I12
sg30
g20
((lp221
(I2
I6
tp222
a(I11
I5
tp223
a(I6
I1
tp224
a(I11
I1
tp225
a(I2
I1
tp226
a(I8
I8
tp227
a(I0
I2
tp228
a(I3
I5
tp229
atp230
Rp231
sg13
((I9
I7
tp232
(I10
I5
tp233
(I6
I5
tp234
(I8
I3
tp235
tp236
sg14
I11
sbs(iproblems
RoomID
p237
(dp238
g10
I6
sg11
(I9
I4
tp239
sg13
I4
sg14
I9
sg15
I10
sg16
I8833747186876682921
sb(imulti_robot_problem
MultiRobotState
p240
(dp241
g19
g20
((lp242
(I4
I7
tp243
a(I4
I8
tp244
a(I4
I5
tp245
a(I2
I1
tp246
a(I7
I5
tp247
a(I2
I3
tp248
ag239
a(I2
I5
tp249
a(I6
I5
tp250
a(I3
I5
tp251
a(I2
I7
tp252
a(I8
I3
tp253
a(I5
I5
tp254
a(I3
I4
tp255
a(I7
I4
tp256
a(I5
I6
tp257
a(I8
I8
tp258
a(I3
I6
tp259
a(I4
I1
tp260
a(I1
I1
tp261
atp262
Rp263
sg15
I10
sg30
g20
((lp264
(I3
I2
tp265
a(I6
I2
tp266
a(I7
I0
tp267
a(I1
I4
tp268
a(I0
I4
tp269
a(I0
I7
tp270
atp271
Rp272
sg13
((I3
I1
tp273
(I8
I1
tp274
(I3
I3
tp275
(I4
I2
tp276
tp277
sg14
I9
sbs(iproblems
RoomID
p278
(dp279
g10
I7
sg11
(I8
I4
tp280
sg13
I4
sg14
I10
sg15
I11
sg16
I365562409358139953
sb(imulti_robot_problem
MultiRobotState
p281
(dp282
g19
g20
((lp283
(I7
I3
tp284
a(I8
I7
tp285
a(I4
I8
tp286
a(I2
I8
tp287
a(I5
I9
tp288
a(I6
I2
tp289
a(I1
I6
tp290
a(I9
I4
tp291
a(I6
I4
tp292
a(I9
I6
tp293
a(I6
I5
tp294
a(I10
I8
tp295
a(I10
I5
tp296
a(I6
I7
tp297
a(I10
I7
tp298
a(I7
I6
tp299
a(I3
I1
tp300
a(I0
I5
tp301
a(I3
I8
tp302
a(I7
I5
tp303
a(I8
I6
tp304
ag280
a(I5
I2
tp305
a(I6
I1
tp306
a(I9
I7
tp307
atp308
Rp309
sg15
I11
sg30
g20
((lp310
(I5
I6
tp311
a(I6
I9
tp312
a(I1
I7
tp313
a(I4
I5
tp314
a(I10
I3
tp315
a(I0
I2
tp316
a(I2
I1
tp317
atp318
Rp319
sg13
((I10
I4
tp320
(I7
I4
tp321
(I3
I6
tp322
(I8
I9
tp323
tp324
sg14
I10
sbs(iproblems
RoomID
p325
(dp326
g10
I10
sg11
(I4
I8
tp327
sg13
I3
sg14
I11
sg15
I9
sg16
I6645345695289302126
sb(imulti_robot_problem
MultiRobotState
p328
(dp329
g19
g20
((lp330
(I5
I9
tp331
a(I3
I2
tp332
a(I3
I1
tp333
ag327
a(I4
I5
tp334
a(I1
I4
tp335
a(I4
I2
tp336
a(I3
I7
tp337
a(I4
I6
tp338
a(I3
I3
tp339
a(I4
I1
tp340
a(I6
I1
tp341
a(I4
I4
tp342
a(I2
I4
tp343
a(I3
I8
tp344
a(I1
I5
tp345
a(I4
I3
tp346
a(I3
I5
tp347
a(I3
I4
tp348
a(I1
I1
tp349
a(I8
I4
tp350
atp351
Rp352
sg15
I9
sg30
g20
((lp353
(I0
I1
tp354
a(I5
I4
tp355
a(I6
I7
tp356
a(I8
I2
tp357
a(I8
I7
tp358
a(I8
I8
tp359
a(I2
I3
tp360
a(I3
I6
tp361
a(I1
I0
tp362
a(I5
I5
tp363
atp364
Rp365
sg13
((I1
I6
tp366
(I0
I9
tp367
(I0
I5
tp368
tp369
sg14
I11
sbs(iproblems
RoomID
p370
(dp371
g10
I8
sg11
(I4
I6
tp372
sg13
I3
sg14
I9
sg15
I12
sg16
I4800841617172907184
sb(imulti_robot_problem
MultiRobotState
p373
(dp374
g19
g20
((lp375
(I5
I4
tp376
ag372
a(I8
I7
tp377
a(I6
I6
tp378
a(I4
I5
tp379
a(I9
I8
tp380
a(I9
I3
tp381
a(I6
I0
tp382
a(I2
I1
tp383
a(I10
I1
tp384
a(I4
I2
tp385
a(I8
I5
tp386
a(I7
I2
tp387
a(I5
I3
tp388
a(I8
I3
tp389
a(I3
I1
tp390
a(I3
I3
tp391
a(I11
I8
tp392
a(I7
I1
tp393
a(I11
I3
tp394
a(I6
I3
tp395
a(I0
I6
tp396
a(I4
I3
tp397
a(I8
I6
tp398
a(I8
I4
tp399
a(I9
I7
tp400
atp401
Rp402
sg15
I12
sg30
g20
((lp403
(I11
I4
tp404
a(I8
I2
tp405
a(I10
I7
tp406
a(I7
I6
tp407
a(I1
I4
tp408
a(I11
I0
tp409
a(I9
I2
tp410
a(I0
I2
tp411
atp412
Rp413
sg13
((I9
I1
tp414
(I0
I4
tp415
(I7
I4
tp416
tp417
sg14
I9
sbssg154
S'mild_roomset'
p418
sbsg154
g156
sg157
(dp419
g188
((lp420
(F1.1300000000010186
I32
tp421
aF40.010000000002037
tp422
sg237
((lp423
(F1.4399999999986903
I32
tp424
aF40.020000000000437
tp425
sg278
((lp426
(F0.28999999999723514
I25
tp427
aF40.0
tp428
sg325
((lp429
(F17.69999999999709
I127
tp430
aF40.009999999998399
tp431
sg370
((lp432
(F0.15999999999985448
I17
tp433
aF40.009999999998399
tp434
ssba(imeasure_core
ProblemSetSolution
p435
(dp436
g3
(imeasure_core
RoomSet
p437
(dp438
g6
(dp439
(iproblems
RoomID
p440
(dp441
g10
I13
sg11
(I9
I8
tp442
sg13
I7
sg14
I12
sg15
I13
sg16
I5594871498841892311
sb(imulti_robot_problem
MultiRobotState
p443
(dp444
g19
g20
((lp445
(I5
I9
tp446
a(I6
I9
tp447
a(I1
I3
tp448
a(I10
I4
tp449
a(I4
I8
tp450
ag442
a(I1
I4
tp451
a(I11
I3
tp452
a(I8
I6
tp453
a(I9
I6
tp454
a(I5
I5
tp455
a(I9
I5
tp456
a(I6
I7
tp457
a(I6
I8
tp458
a(I6
I10
tp459
a(I8
I10
tp460
a(I5
I0
tp461
a(I10
I0
tp462
a(I7
I9
tp463
a(I9
I7
tp464
atp465
Rp466
sg15
I13
sg30
g20
((lp467
(I2
I7
tp468
a(I10
I5
tp469
a(I11
I5
tp470
a(I6
I1
tp471
a(I8
I0
tp472
a(I2
I1
tp473
a(I2
I0
tp474
a(I0
I10
tp475
a(I7
I10
tp476
a(I12
I10
tp477
a(I5
I2
tp478
a(I0
I2
tp479
a(I3
I5
tp480
atp481
Rp482
sg13
((I10
I8
tp483
(I11
I6
tp484
(I7
I5
tp485
(I9
I3
tp486
(I9
I11
tp487
(I12
I1
tp488
(I9
I9
tp489
tp490
sg14
I12
sbs(iproblems
RoomID
p491
(dp492
g10
I11
sg11
(I8
I7
tp493
sg13
I7
sg14
I10
sg15
I11
sg16
I8833747186876682921
sb(imulti_robot_problem
MultiRobotState
p494
(dp495
g19
g20
((lp496
(I5
I7
tp497
a(I4
I8
tp498
a(I4
I5
tp499
a(I2
I1
tp500
ag493
a(I5
I1
tp501
a(I5
I5
tp502
a(I6
I7
tp503
a(I4
I6
tp504
a(I8
I1
tp505
a(I4
I4
tp506
a(I6
I3
tp507
a(I8
I8
tp508
a(I3
I3
tp509
a(I7
I8
tp510
a(I10
I2
tp511
atp512
Rp513
sg15
I11
sg30
g20
((lp514
(I10
I5
tp515
a(I7
I6
tp516
a(I4
I7
tp517
a(I1
I4
tp518
a(I9
I9
tp519
a(I3
I8
tp520
a(I0
I5
tp521
a(I8
I6
tp522
a(I2
I5
tp523
a(I0
I8
tp524
a(I7
I2
tp525
atp526
Rp527
sg13
((I3
I1
tp528
(I9
I1
tp529
(I5
I2
tp530
(I4
I3
tp531
(I8
I0
tp532
(I10
I4
tp533
(I8
I5
tp534
tp535
sg14
I10
sbs(iproblems
RoomID
p536
(dp537
g10
I12
sg11
(I0
I5
tp538
sg13
I7
sg14
I11
sg15
I12
sg16
I365562409358139953
sb(imulti_robot_problem
MultiRobotState
p539
(dp540
g19
g20
((lp541
(I1
I3
tp542
a(I6
I6
tp543
a(I0
I4
tp544
a(I7
I5
tp545
ag538
a(I8
I7
tp546
a(I4
I2
tp547
a(I2
I9
tp548
a(I10
I7
tp549
a(I7
I8
tp550
a(I7
I6
tp551
a(I3
I1
tp552
a(I4
I8
tp553
a(I3
I9
tp554
a(I2
I2
tp555
a(I8
I6
tp556
a(I5
I2
tp557
a(I11
I6
tp558
a(I8
I4
tp559
atp560
Rp561
sg15
I12
sg30
g20
((lp562
(I3
I2
tp563
a(I11
I9
tp564
a(I4
I9
tp565
a(I10
I4
tp566
a(I5
I7
tp567
a(I2
I1
tp568
a(I0
I6
tp569
a(I1
I6
tp570
a(I7
I10
tp571
a(I3
I7
tp572
a(I5
I10
tp573
a(I0
I2
tp574
atp575
Rp576
sg13
((I6
I3
tp577
(I10
I5
tp578
(I3
I6
tp579
(I8
I10
tp580
(I4
I6
tp581
(I11
I3
tp582
(I1
I8
tp583
tp584
sg14
I11
sbs(iproblems
RoomID
p585
(dp586
g10
I13
sg11
(I3
I8
tp587
sg13
I5
sg14
I10
sg15
I10
sg16
I5338040351619750409
sb(imulti_robot_problem
MultiRobotState
p588
(dp589
g19
g20
((lp590
(I4
I7
tp591
a(I2
I6
tp592
a(I9
I1
tp593
a(I2
I8
tp594
a(I6
I1
tp595
a(I1
I4
tp596
ag587
a(I1
I6
tp597
a(I4
I3
tp598
a(I1
I7
tp599
a(I2
I5
tp600
a(I9
I7
tp601
a(I2
I4
tp602
a(I6
I8
tp603
atp604
Rp605
sg15
I10
sg30
g20
((lp606
(I6
I9
tp607
a(I1
I3
tp608
a(I4
I9
tp609
a(I4
I6
tp610
a(I6
I6
tp611
a(I8
I3
tp612
a(I2
I1
tp613
a(I8
I9
tp614
a(I1
I8
tp615
a(I7
I5
tp616
a(I3
I6
tp617
a(I9
I6
tp618
a(I4
I0
tp619
atp620
Rp621
sg13
((I2
I0
tp622
(I3
I5
tp623
(I5
I0
tp624
(I5
I2
tp625
(I4
I5
tp626
tp627
sg14
I10
sbs(iproblems
RoomID
p628
(dp629
g10
I11
sg11
(I4
I6
tp630
sg13
I5
sg14
I11
sg15
I11
sg16
I1085536589165212248
sb(imulti_robot_problem
MultiRobotState
p631
(dp632
g19
g20
((lp633
(I10
I5
tp634
a(I2
I6
tp635
ag630
a(I9
I3
tp636
a(I3
I2
tp637
a(I9
I9
tp638
a(I1
I8
tp639
a(I1
I9
tp640
a(I1
I7
tp641
a(I3
I7
tp642
a(I6
I9
tp643
a(I5
I8
tp644
a(I3
I3
tp645
atp646
Rp647
sg15
I11
sg30
g20
((lp648
(I0
I1
tp649
a(I4
I9
tp650
a(I10
I4
tp651
a(I10
I7
tp652
a(I6
I0
tp653
a(I0
I7
tp654
a(I2
I3
tp655
a(I1
I4
tp656
a(I2
I2
tp657
a(I10
I0
tp658
a(I0
I10
tp659
atp660
Rp661
sg13
((I5
I3
tp662
(I0
I2
tp663
(I3
I1
tp664
(I7
I1
tp665
(I9
I0
tp666
tp667
sg14
I11
sbssg154
S'heavy_roomset'
p668
sbsg154
g156
sg157
(dp669
g440
((lp670
F40.120000000002619
tp671
sg491
((lp672
(F22.489999999997963
I19
tp673
aF40.799999999999272
tp674
sg536
((lp675
F40.090000000000146
tp676
sg585
((lp677
(F2.4700000000011642
I16
tp678
aF40.040000000000873
tp679
sg628
((lp680
(F2.0299999999988358
I15
tp681
aF40.209999999999127
tp682
ssba(imeasure_core
ProblemSetSolution
p683
(dp684
g3
g4
sg154
S"AnytimeBeam-w20-gf(4, 'lin')_with_PowerHeuristic2"
p685
sg157
(dp686
g8
((lp687
(F2.7900000000008731
I13
tp688
aF40.18999999999869
tp689
sg48
((lp690
(F0.54000000000087311
I4
tp691
aF40.0
tp692
sg75
((lp693
F40.619999999998981
tp694
sg106
((lp695
(F0.020000000000436557
I7
tp696
aF40.0
tp697
sg130
((lp698
(F0.060000000001309672
I32
tp699
a(F0.12000000000261934
I30
tp700
a(F2.5700000000033469
I28
tp701
a(F2.930000000000291
I27
tp702
a(F3.3000000000029104
I25
tp703
a(F3.6300000000010186
I23
tp704
a(F4.3600000000005821
I21
tp705
a(F5.4500000000007276
I20
tp706
a(F14.590000000000146
I19
tp707
a(F16.270000000000437
I17
tp708
a(F17.890000000003056
I15
tp709
aF40.0
tp710
ssba(imeasure_core
ProblemSetSolution
p711
(dp712
g3
g185
sg154
g685
sg157
(dp713
g188
((lp714
(F1.1199999999989814
I32
tp715
aF40.0
tp716
sg237
((lp717
(F1.430000000000291
I32
tp718
aF40.099999999998545
tp719
sg278
((lp720
(F0.29000000000087311
I25
tp721
aF40.0
tp722
sg325
((lp723
(F12.710000000002765
I127
tp724
aF40.0
tp725
sg370
((lp726
(F0.17000000000189175
I17
tp727
aF40.0
tp728
ssba(imeasure_core
ProblemSetSolution
p729
(dp730
g3
g437
sg154
g685
sg157
(dp731
g440
((lp732
F40.090000000000146
tp733
sg491
((lp734
(F22.529999999998836
I19
tp735
aF40.840000000000146
tp736
sg536
((lp737
F40.020000000000437
tp738
sg585
((lp739
(F2.4500000000007276
I16
tp740
aF40.0
tp741
sg628
((lp742
(F2.0299999999988358
I15
tp743
aF40.540000000000873
tp744
ssba(imeasure_core
ProblemSetSolution
p745
(dp746
g3
g4
sg154
S"AnytimeBeam-w20-gf(8, 'lin')_with_PowerHeuristic2"
p747
sg157
(dp748
g8
((lp749
(F2.7999999999992724
I13
tp750
aF40.5
tp751
sg48
((lp752
(F0.53000000000247383
I4
tp753
aF40.869999999998981
tp754
sg75
((lp755
F40.570000000003347
tp756
sg106
((lp757
(F0.029999999998835847
I7
tp758
aF40.0
tp759
sg130
((lp760
(F0.059999999997671694
I32
tp761
a(F0.11999999999898137
I30
tp762
a(F1.2999999999992724
I28
tp763
a(F1.6599999999998545
I27
tp764
a(F2.0399999999972351
I25
tp765
a(F2.3799999999973807
I23
tp766
a(F3.0999999999985448
I21
tp767
a(F4.1899999999986903
I20
tp768
a(F6.8499999999985448
I19
tp769
a(F8.5399999999972351
I17
tp770
a(F10.179999999996653
I15
tp771
aF40.0
tp772
ssba(imeasure_core
ProblemSetSolution
p773
(dp774
g3
g185
sg154
g747
sg157
(dp775
g188
((lp776
(F1.1299999999973807
I32
tp777
aF40.0
tp778
sg237
((lp779
(F1.4299999999966531
I32
tp780
aF40.059999999997672
tp781
sg278
((lp782
(F0.2999999999992724
I25
tp783
aF40.030000000002474
tp784
sg325
((lp785
(F10.629999999997381
I127
tp786
aF40.009999999998399
tp787
sg370
((lp788
(F0.15999999999985448
I17
tp789
aF40.020000000000437
tp790
ssba(imeasure_core
ProblemSetSolution
p791
(dp792
g3
g437
sg154
g747
sg157
(dp793
g440
((lp794
F40.18999999999869
tp795
sg491
((lp796
(F22.530000000002474
I19
tp797
aF40.040000000000873
tp798
sg536
((lp799
F40.099999999998545
tp800
sg585
((lp801
(F2.4700000000011642
I16
tp802
aF40.140000000003056
tp803
sg628
((lp804
(F2.0299999999988358
I15
tp805
aF40.229999999999563
tp806
ssba(imeasure_core
ProblemSetSolution
p807
(dp808
g3
g4
sg154
S"AnytimeBeam-w20-gf(16, 'lin')_with_PowerHeuristic2"
p809
sg157
(dp810
g8
((lp811
(F2.8099999999976717
I13
tp812
aF40.399999999997817
tp813
sg48
((lp814
(F0.54000000000087311
I4
tp815
aF40.25
tp816
sg75
((lp817
F40.450000000000728
tp818
sg106
((lp819
(F0.029999999998835847
I7
tp820
aF40.009999999998399
tp821
sg130
((lp822
(F0.060000000001309672
I32
tp823
a(F0.12000000000261934
I30
tp824
a(F0.6400000000030559
I28
tp825
a(F1.0
I27
tp826
a(F1.3800000000010186
I25
tp827
a(F1.7100000000027649
I23
tp828
a(F2.430000000000291
I21
tp829
a(F3.5
I20
tp830
a(F4.9200000000018917
I19
tp831
a(F6.5800000000017462
I17
tp832
a(F8.2000000000007276
I15
tp833
aF40.0
tp834
ssba(imeasure_core
ProblemSetSolution
p835
(dp836
g3
g185
sg154
g809
sg157
(dp837
g188
((lp838
(F1.1300000000010186
I32
tp839
aF40.040000000000873
tp840
sg237
((lp841
(F1.430000000000291
I32
tp842
aF40.0
tp843
sg278
((lp844
(F0.29000000000087311
I25
tp845
aF40.100000000002183
tp846
sg325
((lp847
(F9.4499999999970896
I127
tp848
aF40.020000000000437
tp849
sg370
((lp850
(F0.16999999999825377
I17
tp851
aF40.049999999999272
tp852
ssba(imeasure_core
ProblemSetSolution
p853
(dp854
g3
g437
sg154
g809
sg157
(dp855
g440
((lp856
F40.159999999999854
tp857
sg491
((lp858
(F22.509999999998399
I19
tp859
aF40.229999999999563
tp860
sg536
((lp861
F40.299999999999272
tp862
sg585
((lp863
(F2.4700000000011642
I16
tp864
aF40.06000000000131
tp865
sg628
((lp866
(F2.0399999999972351
I15
tp867
aF40.039999999997235
tp868
ssba(imeasure_core
ProblemSetSolution
p869
(dp870
g3
g4
sg154
S"AnytimeBeam-w20-gf(2, 'lin')_with_LinearHeuristic"
p871
sg157
(dp872
g8
((lp873
F40.110000000000582
tp874
sg48
((lp875
(F0.93999999999869033
I4
tp876
aF40.239999999997963
tp877
sg75
((lp878
(F2.7299999999995634
I17
tp879
aF40.0
tp880
sg106
((lp881
(F0.040000000000873115
I7
tp882
aF40.0
tp883
sg130
((lp884
(F0.010000000002037268
I15
tp885
aF40.0
tp886
ssba(imeasure_core
ProblemSetSolution
p887
(dp888
g3
g185
sg154
g871
sg157
(dp889
g188
((lp890
F40.190000000002328
tp891
sg237
((lp892
(F34.770000000000437
I229
tp893
aF40.020000000000437
tp894
sg278
((lp895
F40.090000000000146
tp896
sg325
((lp897
F40.009999999998399
tp898
sg370
((lp899
F40.0
tp900
ssba(imeasure_core
ProblemSetSolution
p901
(dp902
g3
g437
sg154
g871
sg157
(dp903
g440
((lp904
F43.630000000001019
tp905
sg491
((lp906
F40.149999999997817
tp907
sg536
((lp908
F40.0
tp909
sg585
((lp910
F40.569999999999709
tp911
sg628
((lp912
F40.210000000002765
tp913
ssba(imeasure_core
ProblemSetSolution
p914
(dp915
g3
g4
sg154
S"AnytimeBeam-w20-gf(4, 'lin')_with_LinearHeuristic"
p916
sg157
(dp917
g8
((lp918
F41.180000000000291
tp919
sg48
((lp920
(F0.93000000000029104
I4
tp921
aF40.040000000000873
tp922
sg75
((lp923
(F2.7199999999975262
I17
tp924
aF40.110000000000582
tp925
sg106
((lp926
(F0.029999999998835847
I7
tp927
aF40.009999999998399
tp928
sg130
((lp929
(F0.0099999999983992893
I15
tp930
aF40.0
tp931
ssba(imeasure_core
ProblemSetSolution
p932
(dp933
g3
g185
sg154
g916
sg157
(dp934
g188
((lp935
F40.06000000000131
tp936
sg237
((lp937
(F34.75
I229
tp938
aF40.0
tp939
sg278
((lp940
F40.139999999999418
tp941
sg325
((lp942
F40.020000000000437
tp943
sg370
((lp944
F40.009999999998399
tp945
ssba(imeasure_core
ProblemSetSolution
p946
(dp947
g3
g437
sg154
g916
sg157
(dp948
g440
((lp949
F43.509999999998399
tp950
sg491
((lp951
F40.080000000001746
tp952
sg536
((lp953
F40.039999999997235
tp954
sg585
((lp955
F40.430000000000291
tp956
sg628
((lp957
F40.180000000000291
tp958
ssba(imeasure_core
ProblemSetSolution
p959
(dp960
g3
g4
sg154
S"AnytimeBeam-w20-gf(8, 'lin')_with_LinearHeuristic"
p961
sg157
(dp962
g8
((lp963
F41.149999999997817
tp964
sg48
((lp965
(F0.92000000000189175
I4
tp966
aF40.220000000001164
tp967
sg75
((lp968
(F2.7200000000011642
I17
tp969
aF40.360000000000582
tp970
sg106
((lp971
(F0.029999999998835847
I7
tp972
aF40.0
tp973
sg130
((lp974
(F0.0099999999983992893
I15
tp975
aF40.0
tp976
ssba(imeasure_core
ProblemSetSolution
p977
(dp978
g3
g185
sg154
g961
sg157
(dp979
g188
((lp980
F40.009999999998399
tp981
sg237
((lp982
(F34.930000000000291
I229
tp983
aF40.029999999998836
tp984
sg278
((lp985
F40.150000000001455
tp986
sg325
((lp987
F40.110000000000582
tp988
sg370
((lp989
F40.069999999999709
tp990
ssba(imeasure_core
ProblemSetSolution
p991
(dp992
g3
g437
sg154
g961
sg157
(dp993
g440
((lp994
F43.580000000001746
tp995
sg491
((lp996
F40.049999999999272
tp997
sg536
((lp998
F40.130000000001019
tp999
sg585
((lp1000
F40.329999999998108
tp1001
sg628
((lp1002
F40.150000000001455
tp1003
ssba(imeasure_core
ProblemSetSolution
p1004
(dp1005
g3
g4
sg154
S"AnytimeBeam-w20-gf(16, 'lin')_with_LinearHeuristic"
p1006
sg157
(dp1007
g8
((lp1008
F41.099999999998545
tp1009
sg48
((lp1010
(F0.92000000000189175
I4
tp1011
aF40.180000000000291
tp1012
sg75
((lp1013
(F2.7299999999995634
I17
tp1014
aF40.010000000002037
tp1015
sg106
((lp1016
(F0.039999999997235136
I7
tp1017
aF40.0
tp1018
sg130
((lp1019
(F0.020000000000436557
I15
tp1020
aF40.0
tp1021
ssba(imeasure_core
ProblemSetSolution
p1022
(dp1023
g3
g185
sg154
g1006
sg157
(dp1024
g188
((lp1025
F40.069999999999709
tp1026
sg237
((lp1027
(F34.919999999998254
I229
tp1028
aF40.0
tp1029
sg278
((lp1030
F40.130000000001019
tp1031
sg325
((lp1032
F40.149999999997817
tp1033
sg370
((lp1034
F40.080000000001746
tp1035
ssba(imeasure_core
ProblemSetSolution
p1036
(dp1037
g3
g437
sg154
g1006
sg157
(dp1038
g440
((lp1039
F43.649999999997817
tp1040
sg491
((lp1041
F40.090000000000146
tp1042
sg536
((lp1043
F40.100000000002183
tp1044
sg585
((lp1045
F40.5
tp1046
sg628
((lp1047
F40.090000000000146
tp1048
ssba.