(lp0
(imeasure_core
ProblemSetSolution
p1
(dp2
S'roomset'
p3
(imeasure_core
RoomSet
p4
(dp5
S'rooms'
p6
(dp7
(iproblems
RoomID
p8
(dp9
S'dusts'
p10
I6
sS'obstacles'
p11
(I5
I1
tp12
sS'robots'
p13
I4
sS'height'
p14
I9
sS'width'
p15
I10
sS'seed'
p16
I2405875930906139466
sb(imulti_robot_problem
MultiRobotState
p17
(dp18
S'obstacle_locations'
p19
c__builtin__
frozenset
p20
((lp21
(I7
I0
tp22
a(I7
I1
tp23
ag12
a(I6
I1
tp24
a(I6
I0
tp25
a(I7
I2
tp26
atp27
Rp28
sg15
I10
sS'dirt_locations'
p29
g20
((lp30
(I7
I3
tp31
a(I2
I1
tp32
a(I6
I4
tp33
a(I5
I6
tp34
a(I5
I2
tp35
a(I0
I7
tp36
atp37
Rp38
sg13
((I7
I6
tp39
(I3
I3
tp40
(I8
I6
tp41
(I0
I2
tp42
tp43
sg14
I9
sbs(iproblems
RoomID
p44
(dp45
g10
I6
sg11
(I6
I7
tp46
sg13
I4
sg14
I10
sg15
I7
sg16
I8744744311366254845
sb(imulti_robot_problem
MultiRobotState
p47
(dp48
g19
g20
((lp49
(I0
I6
tp50
ag46
a(I4
I6
tp51
a(I3
I7
tp52
a(I5
I7
tp53
a(I1
I9
tp54
atp55
Rp56
sg15
I7
sg29
g20
((lp57
(I2
I7
tp58
a(I0
I1
tp59
a(I5
I4
tp60
a(I6
I0
tp61
a(I5
I8
tp62
a(I5
I3
tp63
atp64
Rp65
sg13
((I0
I8
tp66
(I4
I2
tp67
(I3
I0
tp68
(I1
I4
tp69
tp70
sg14
I10
sbs(iproblems
RoomID
p71
(dp72
g10
I6
sg11
(I4
I6
tp73
sg13
I1
sg14
I8
sg15
I7
sg16
I3537054308274871603
sb(imulti_robot_problem
MultiRobotState
p74
(dp75
g19
g20
((lp76
(I4
I7
tp77
ag73
a(I4
I5
tp78
a(I2
I5
tp79
a(I3
I5
tp80
a(I6
I0
tp81
a(I2
I4
tp82
atp83
Rp84
sg15
I7
sg29
g20
((lp85
(I0
I6
tp86
a(I6
I2
tp87
a(I5
I6
tp88
a(I4
I1
tp89
a(I1
I1
tp90
a(I5
I3
tp91
atp92
Rp93
sg13
((I0
I3
tp94
tp95
sg14
I8
sbs(iproblems
RoomID
p96
(dp97
g10
I8
sg11
(I5
I3
tp98
sg13
I3
sg14
I7
sg15
I7
sg16
I7325839828077136048
sb(imulti_robot_problem
MultiRobotState
p99
(dp100
g19
g20
((lp101
(I6
I4
tp102
a(I5
I4
tp103
a(I5
I5
tp104
a(I6
I6
tp105
a(I3
I1
tp106
a(I6
I0
tp107
a(I2
I0
tp108
a(I0
I4
tp109
ag98
atp110
Rp111
sg15
I7
sg29
g20
((lp112
(I0
I6
tp113
a(I3
I0
tp114
a(I2
I4
tp115
a(I1
I5
tp116
a(I4
I3
tp117
a(I2
I2
tp118
a(I1
I1
tp119
a(I3
I5
tp120
atp121
Rp122
sg13
((I1
I0
tp123
(I3
I3
tp124
(I6
I2
tp125
tp126
sg14
I7
sbs(iproblems
RoomID
p127
(dp128
g10
I10
sg11
(I4
I7
tp129
sg13
I5
sg14
I10
sg15
I8
sg16
I8655808914197340073
sb(imulti_robot_problem
MultiRobotState
p130
(dp131
g19
g20
((lp132
(I2
I7
tp133
ag129
a(I4
I8
tp134
a(I6
I3
tp135
a(I7
I5
tp136
a(I3
I7
tp137
a(I1
I0
tp138
a(I5
I3
tp139
atp140
Rp141
sg15
I8
sg29
g20
((lp142
(I7
I3
tp143
a(I5
I4
tp144
a(I7
I0
tp145
a(I5
I7
tp146
a(I1
I5
tp147
a(I1
I9
tp148
a(I3
I6
tp149
a(I1
I7
tp150
a(I3
I4
tp151
a(I5
I8
tp152
atp153
Rp154
sg13
((I3
I8
tp155
(I7
I9
tp156
(I6
I1
tp157
(I2
I3
tp158
(I5
I5
tp159
tp160
sg14
I10
sbssS'name'
p161
S'easy_roomset'
p162
sbsg161
S'AnytimeBest-dinf_with_PowerHeuristic2'
p163
sS'solutions'
p164
(dp165
g8
((lp166
(F0.42999999999983629
I10
tp167
aF40.049999999999727
tp168
sg44
((lp169
(F0.36000000000012733
I14
tp170
aF40.050000000000182
tp171
sg71
((lp172
(F0.19000000000005457
I49
tp173
a(F0.31999999999970896
I47
tp174
a(F0.40000000000009095
I45
tp175
a(F0.59999999999990905
I43
tp176
a(F1.1299999999996544
I41
tp177
a(F1.2599999999997635
I40
tp178
a(F2.4699999999997999
I39
tp179
a(F2.5
I38
tp180
a(F3.3299999999999272
I37
tp181
a(F3.4600000000000364
I35
tp182
a(F4.8099999999999454
I33
tp183
a(F6.6299999999996544
I31
tp184
a(F6.8799999999996544
I29
tp185
a(F7.0199999999999818
I27
tp186
a(F8.3899999999998727
I25
tp187
a(F12.940000000000055
I24
tp188
a(F13.069999999999709
I22
tp189
a(F13.710000000000036
I20
tp190
aF13.960000000000036
tp191
sg96
((lp192
(F9.9299999999998363
I144
tp193
aF40.009999999999764
tp194
sg127
((lp195
(F1.6900000000000546
I9
tp196
aF40.070000000000164
tp197
ssba(imeasure_core
ProblemSetSolution
p198
(dp199
g3
(imeasure_core
RoomSet
p200
(dp201
g6
(dp202
(iproblems
RoomID
p203
(dp204
g10
I6
sg11
(I1
I8
tp205
sg13
I4
sg14
I11
sg15
I12
sg16
I2405875930906139466
sb(imulti_robot_problem
MultiRobotState
p206
(dp207
g19
g20
((lp208
(I6
I4
tp209
a(I4
I6
tp210
a(I8
I2
tp211
a(I6
I6
tp212
a(I2
I8
tp213
a(I8
I0
tp214
a(I5
I5
tp215
a(I9
I10
tp216
a(I6
I2
tp217
a(I2
I3
tp218
a(I3
I7
tp219
a(I6
I5
tp220
a(I5
I3
tp221
a(I7
I0
tp222
a(I3
I3
tp223
a(I2
I9
tp224
a(I11
I5
tp225
a(I8
I1
tp226
a(I6
I1
tp227
a(I3
I1
tp228
a(I6
I3
tp229
a(I2
I0
tp230
ag205
a(I7
I5
tp231
a(I3
I6
tp232
a(I4
I3
tp233
a(I3
I4
tp234
atp235
Rp236
sg15
I12
sg29
g20
((lp237
(I9
I4
tp238
a(I7
I1
tp239
a(I0
I9
tp240
a(I9
I3
tp241
a(I7
I7
tp242
a(I2
I1
tp243
atp244
Rp245
sg13
((I9
I7
tp246
(I4
I4
tp247
(I10
I8
tp248
(I0
I2
tp249
tp250
sg14
I11
sbs(iproblems
RoomID
p251
(dp252
g10
I10
sg11
(I0
I5
tp253
sg13
I4
sg14
I12
sg15
I10
sg16
I8655808914197340073
sb(imulti_robot_problem
MultiRobotState
p254
(dp255
g19
g20
((lp256
(I5
I9
tp257
a(I5
I4
tp258
a(I5
I7
tp259
a(I6
I6
tp260
a(I4
I8
tp261
a(I8
I0
tp262
a(I0
I7
tp263
a(I7
I5
tp264
a(I2
I3
tp265
a(I1
I4
tp266
a(I6
I8
tp267
a(I1
I11
tp268
a(I9
I6
tp269
a(I5
I8
tp270
a(I4
I6
tp271
a(I3
I8
tp272
a(I6
I7
tp273
a(I5
I5
tp274
a(I3
I4
tp275
a(I4
I4
tp276
a(I6
I3
tp277
a(I2
I0
tp278
a(I6
I5
tp279
ag253
a(I7
I8
tp280
atp281
Rp282
sg15
I10
sg29
g20
((lp283
(I6
I9
tp284
a(I2
I9
tp285
a(I2
I11
tp286
a(I9
I0
tp287
a(I7
I7
tp288
a(I8
I3
tp289
a(I1
I7
tp290
a(I8
I6
tp291
a(I8
I4
tp292
a(I3
I5
tp293
atp294
Rp295
sg13
((I4
I9
tp296
(I8
I11
tp297
(I7
I1
tp298
(I3
I3
tp299
tp300
sg14
I12
sbs(iproblems
RoomID
p301
(dp302
g10
I10
sg11
(I3
I6
tp303
sg13
I4
sg14
I12
sg15
I11
sg16
I4278205817407065157
sb(imulti_robot_problem
MultiRobotState
p304
(dp305
g19
g20
((lp306
(I0
I1
tp307
a(I4
I7
tp308
a(I5
I6
tp309
a(I2
I8
tp310
a(I0
I10
tp311
a(I3
I7
tp312
a(I7
I11
tp313
a(I3
I3
tp314
a(I2
I7
tp315
a(I5
I3
tp316
a(I6
I7
tp317
a(I4
I6
tp318
a(I10
I7
tp319
a(I4
I4
tp320
a(I3
I8
tp321
a(I4
I5
tp322
ag303
a(I1
I10
tp323
a(I3
I5
tp324
a(I1
I9
tp325
atp326
Rp327
sg15
I11
sg29
g20
((lp328
(I1
I2
tp329
a(I8
I1
tp330
a(I9
I2
tp331
a(I6
I1
tp332
a(I5
I7
tp333
a(I8
I9
tp334
a(I3
I0
tp335
a(I9
I4
tp336
a(I0
I2
tp337
a(I4
I0
tp338
atp339
Rp340
sg13
((I6
I10
tp341
(I5
I11
tp342
(I2
I0
tp343
(I9
I1
tp344
tp345
sg14
I12
sbs(iproblems
RoomID
p346
(dp347
g10
I10
sg11
(I11
I0
tp348
sg13
I4
sg14
I9
sg15
I12
sg16
I2796939073032698495
sb(imulti_robot_problem
MultiRobotState
p349
(dp350
g19
g20
((lp351
(I7
I3
tp352
a(I5
I7
tp353
a(I9
I1
tp354
a(I6
I6
tp355
a(I8
I0
tp356
a(I7
I7
tp357
a(I5
I8
tp358
a(I3
I3
tp359
a(I8
I1
tp360
a(I4
I8
tp361
a(I6
I3
tp362
a(I7
I2
tp363
a(I3
I6
tp364
a(I6
I4
tp365
a(I5
I4
tp366
a(I2
I6
tp367
a(I7
I1
tp368
a(I4
I5
tp369
ag348
a(I2
I3
tp370
a(I10
I1
tp371
a(I1
I0
tp372
a(I6
I5
tp373
a(I5
I3
tp374
a(I8
I3
tp375
a(I7
I0
tp376
a(I6
I8
tp377
a(I9
I2
tp378
a(I6
I1
tp379
a(I3
I1
tp380
a(I8
I8
tp381
a(I4
I3
tp382
a(I5
I2
tp383
a(I10
I2
tp384
atp385
Rp386
sg15
I12
sg29
g20
((lp387
(I1
I2
tp388
a(I11
I7
tp389
a(I3
I2
tp390
a(I2
I8
tp391
a(I9
I3
tp392
a(I1
I6
tp393
a(I5
I0
tp394
a(I0
I3
tp395
a(I0
I8
tp396
a(I4
I1
tp397
atp398
Rp399
sg13
((I10
I8
tp400
(I4
I6
tp401
(I11
I4
tp402
(I7
I8
tp403
tp404
sg14
I9
sbs(iproblems
RoomID
p405
(dp406
g10
I6
sg11
(I3
I3
tp407
sg13
I4
sg14
I12
sg15
I12
sg16
I7193062864237573168
sb(imulti_robot_problem
MultiRobotState
p408
(dp409
g19
g20
((lp410
(I6
I4
tp411
a(I5
I4
tp412
a(I1
I3
tp413
a(I6
I6
tp414
a(I7
I1
tp415
a(I9
I3
tp416
a(I0
I7
tp417
a(I1
I6
tp418
a(I2
I5
tp419
a(I0
I8
tp420
a(I10
I3
tp421
a(I8
I3
tp422
a(I3
I1
tp423
ag407
a(I5
I7
tp424
a(I11
I3
tp425
a(I7
I4
tp426
a(I0
I9
tp427
a(I2
I3
tp428
a(I8
I4
tp429
a(I3
I4
tp430
a(I2
I4
tp431
a(I9
I7
tp432
atp433
Rp434
sg15
I12
sg29
g20
((lp435
(I2
I0
tp436
a(I2
I6
tp437
a(I6
I8
tp438
a(I0
I6
tp439
a(I4
I4
tp440
a(I7
I7
tp441
atp442
Rp443
sg13
((I11
I9
tp444
(I11
I2
tp445
(I4
I11
tp446
(I3
I6
tp447
tp448
sg14
I12
sbssg161
S'mild_roomset'
p449
sbsg161
g163
sg164
(dp450
g203
((lp451
(F7.3600000000001273
I24
tp452
aF40.079999999999927
tp453
sg251
((lp454
(F21.940000000000055
I171
tp455
aF40.3100000000004
tp456
sg301
((lp457
(F1.4699999999997999
I28
tp458
aF40.169999999999618
tp459
sg346
((lp460
F40.140000000000327
tp461
sg405
((lp462
(F0.90999999999985448
I25
tp463
aF40.069999999999709
tp464
ssba(imeasure_core
ProblemSetSolution
p465
(dp466
g3
(imeasure_core
RoomSet
p467
(dp468
g6
(dp469
(iproblems
RoomID
p470
(dp471
g10
I11
sg11
(I10
I1
tp472
sg13
I7
sg14
I12
sg15
I13
sg16
I2405875930906139466
sb(imulti_robot_problem
MultiRobotState
p473
(dp474
g19
g20
((lp475
(I7
I3
tp476
a(I9
I1
tp477
a(I7
I1
tp478
a(I5
I6
tp479
a(I8
I11
tp480
a(I8
I0
tp481
a(I1
I4
tp482
a(I6
I2
tp483
a(I0
I7
tp484
ag472
a(I10
I3
tp485
a(I7
I2
tp486
a(I10
I4
tp487
a(I11
I7
tp488
a(I9
I0
tp489
a(I11
I5
tp490
a(I7
I4
tp491
a(I1
I5
tp492
a(I10
I2
tp493
a(I11
I6
tp494
a(I8
I4
tp495
atp496
Rp497
sg15
I13
sg29
g20
((lp498
(I12
I5
tp499
a(I10
I11
tp500
a(I8
I1
tp501
a(I7
I8
tp502
a(I8
I6
tp503
a(I6
I3
tp504
a(I2
I0
tp505
a(I2
I3
tp506
a(I5
I1
tp507
a(I10
I0
tp508
a(I3
I4
tp509
atp510
Rp511
sg13
((I10
I8
tp512
(I9
I2
tp513
(I4
I5
tp514
(I11
I8
tp515
(I1
I2
tp516
(I3
I1
tp517
(I0
I10
tp518
tp519
sg14
I12
sbs(iproblems
RoomID
p520
(dp521
g10
I11
sg11
(I7
I9
tp522
sg13
I6
sg14
I13
sg15
I10
sg16
I8744744311366254845
sb(imulti_robot_problem
MultiRobotState
p523
(dp524
g19
g20
((lp525
(I6
I9
tp526
a(I1
I3
tp527
a(I4
I9
tp528
a(I5
I6
tp529
a(I9
I8
tp530
a(I1
I8
tp531
a(I1
I0
tp532
ag522
a(I3
I4
tp533
a(I5
I8
tp534
a(I9
I7
tp535
atp536
Rp537
sg15
I10
sg29
g20
((lp538
(I0
I1
tp539
a(I7
I3
tp540
a(I9
I0
tp541
a(I1
I12
tp542
a(I4
I10
tp543
a(I5
I11
tp544
a(I9
I10
tp545
a(I7
I11
tp546
a(I3
I7
tp547
a(I0
I8
tp548
a(I9
I6
tp549
atp550
Rp551
sg13
((I0
I10
tp552
(I6
I3
tp553
(I4
I0
tp554
(I1
I6
tp555
(I7
I5
tp556
(I9
I9
tp557
tp558
sg14
I13
sbs(iproblems
RoomID
p559
(dp560
g10
I15
sg11
(I4
I8
tp561
sg13
I6
sg14
I13
sg15
I12
sg16
I4278205817407065157
sb(imulti_robot_problem
MultiRobotState
p562
(dp563
g19
g20
((lp564
(I11
I7
tp565
a(I2
I9
tp566
ag561
a(I5
I6
tp567
a(I2
I8
tp568
a(I6
I10
tp569
a(I3
I8
tp570
a(I11
I8
tp571
a(I3
I9
tp572
a(I1
I10
tp573
a(I1
I11
tp574
a(I7
I8
tp575
a(I2
I4
tp576
atp577
Rp578
sg15
I12
sg29
g20
((lp579
(I1
I2
tp580
a(I0
I1
tp581
a(I5
I4
tp582
a(I5
I7
tp583
a(I10
I4
tp584
a(I7
I1
tp585
a(I3
I1
tp586
a(I10
I5
tp587
a(I4
I7
tp588
a(I9
I9
tp589
a(I0
I10
tp590
a(I4
I3
tp591
a(I8
I12
tp592
a(I4
I1
tp593
a(I0
I2
tp594
atp595
Rp596
sg13
((I7
I10
tp597
(I6
I12
tp598
(I2
I0
tp599
(I9
I1
tp600
(I10
I3
tp601
(I4
I0
tp602
tp603
sg14
I13
sbs(iproblems
RoomID
p604
(dp605
g10
I15
sg11
(I5
I8
tp606
sg13
I7
sg14
I13
sg15
I11
sg16
I8655808914197340073
sb(imulti_robot_problem
MultiRobotState
p607
(dp608
g19
g20
((lp609
(I5
I9
tp610
a(I6
I7
tp611
a(I6
I11
tp612
a(I1
I4
tp613
a(I0
I12
tp614
a(I0
I11
tp615
a(I7
I5
tp616
a(I1
I6
tp617
a(I0
I4
tp618
a(I5
I10
tp619
a(I3
I9
tp620
a(I4
I9
tp621
a(I10
I3
tp622
ag606
atp623
Rp624
sg15
I11
sg29
g20
((lp625
(I2
I7
tp626
a(I7
I3
tp627
a(I4
I6
tp628
a(I1
I12
tp629
a(I5
I6
tp630
a(I8
I5
tp631
a(I7
I7
tp632
a(I7
I9
tp633
a(I2
I0
tp634
a(I9
I4
tp635
a(I7
I10
tp636
a(I0
I8
tp637
a(I9
I6
tp638
a(I6
I5
tp639
a(I9
I7
tp640
atp641
Rp642
sg13
((I9
I11
tp643
(I8
I1
tp644
(I3
I4
tp645
(I8
I7
tp646
(I9
I1
tp647
(I2
I10
tp648
(I2
I12
tp649
tp650
sg14
I13
sbs(iproblems
RoomID
p651
(dp652
g10
I15
sg11
(I3
I6
tp653
sg13
I7
sg14
I10
sg15
I13
sg16
I2796939073032698495
sb(imulti_robot_problem
MultiRobotState
p654
(dp655
g19
g20
((lp656
(I5
I9
tp657
a(I6
I9
tp658
a(I4
I6
tp659
a(I5
I0
tp660
a(I6
I6
tp661
a(I4
I5
tp662
a(I5
I4
tp663
a(I6
I7
tp664
a(I6
I2
tp665
a(I0
I5
tp666
a(I8
I7
tp667
a(I5
I1
tp668
a(I6
I4
tp669
a(I12
I9
tp670
a(I5
I8
tp671
a(I5
I3
tp672
a(I2
I7
tp673
a(I4
I9
tp674
a(I5
I5
tp675
a(I3
I1
tp676
a(I4
I8
tp677
a(I2
I0
tp678
a(I3
I9
tp679
a(I6
I5
tp680
ag653
a(I5
I7
tp681
a(I7
I8
tp682
atp683
Rp684
sg15
I13
sg29
g20
((lp685
(I1
I2
tp686
a(I8
I2
tp687
a(I2
I9
tp688
a(I12
I0
tp689
a(I4
I1
tp690
a(I12
I8
tp691
a(I6
I0
tp692
a(I9
I9
tp693
a(I2
I3
tp694
a(I9
I4
tp695
a(I1
I7
tp696
a(I0
I9
tp697
a(I7
I9
tp698
a(I3
I4
tp699
a(I3
I3
tp700
atp701
Rp702
sg13
((I10
I2
tp703
(I11
I8
tp704
(I12
I5
tp705
(I8
I9
tp706
(I10
I3
tp707
(I0
I3
tp708
(I11
I2
tp709
tp710
sg14
I10
sbssg161
S'heavy_roomset'
p711
sbsg161
g163
sg164
(dp712
g470
((lp713
F46.510000000000218
tp714
sg520
((lp715
(F12.360000000000127
I13
tp716
aF40.159999999999854
tp717
sg559
((lp718
(F22.930000000000291
I15
tp719
aF40.389999999999873
tp720
sg604
((lp721
F43.369999999999891
tp722
sg651
((lp723
F40.590000000000146
tp724
ssba(imeasure_core
ProblemSetSolution
p725
(dp726
g3
g4
sg161
S'AnytimeBest-dinf_with_LinearHeuristic'
p727
sg164
(dp728
g8
((lp729
F40.130000000000109
tp730
sg44
((lp731
F40.059999999999491
tp732
sg71
((lp733
(F0.020000000000436557
I22
tp734
a(F0.22000000000025466
I20
tp735
aF11.5
tp736
sg96
((lp737
(F1.6900000000005093
I58
tp738
a(F17.570000000000618
I56
tp739
a(F33.470000000000255
I55
tp740
aF40.039999999999964
tp741
sg127
((lp742
(F1.9200000000000728
I6
tp743
aF40.180000000000291
tp744
ssba(imeasure_core
ProblemSetSolution
p745
(dp746
g3
g200
sg161
g727
sg164
(dp747
g203
((lp748
F40.409999999999854
tp749
sg251
((lp750
F40.590000000000146
tp751
sg301
((lp752
(F29.010000000000218
I146
tp753
aF40.170000000000073
tp754
sg346
((lp755
F40.069999999999709
tp756
sg405
((lp757
F40.050000000000182
tp758
ssba(imeasure_core
ProblemSetSolution
p759
(dp760
g3
g467
sg161
g727
sg164
(dp761
g470
((lp762
F43.1899999999996
tp763
sg520
((lp764
(F14.850000000000364
I8
tp765
aF40.530000000000655
tp766
sg559
((lp767
F41.460000000000036
tp768
sg604
((lp769
F47.299999999999272
tp770
sg651
((lp771
F50.8700000000008
tp772
ssba.