(lp0
(imeasure_core
ProblemSetSolution
p1
(dp2
S'roomset'
p3
(imeasure_core
RoomSet
p4
(dp5
S'rooms'
p6
(dp7
(iproblems
RoomID
p8
(dp9
S'dusts'
p10
I8
sS'obstacles'
p11
(I2
I4
tp12
sS'robots'
p13
I4
sS'height'
p14
I9
sS'width'
p15
I7
sS'seed'
p16
I7283207964119141687
sb(imulti_robot_problem
MultiRobotState
p17
(dp18
S'obstacle_locations'
p19
c__builtin__
frozenset
p20
((lp21
(I4
I6
tp22
a(I4
I3
tp23
a(I3
I0
tp24
a(I4
I2
tp25
a(I3
I4
tp26
ag12
a(I3
I3
tp27
atp28
Rp29
sg15
I7
sS'dirt_locations'
p30
g20
((lp31
(I4
I5
tp32
a(I5
I7
tp33
a(I0
I6
tp34
a(I1
I6
tp35
a(I5
I0
tp36
a(I5
I1
tp37
a(I5
I2
tp38
a(I1
I1
tp39
atp40
Rp41
sg13
((I1
I5
tp42
(I5
I5
tp43
(I3
I1
tp44
(I3
I5
tp45
tp46
sg14
I9
sbs(iproblems
RoomID
p47
(dp48
g10
I8
sg11
(I4
I6
tp49
sg13
I2
sg14
I10
sg15
I8
sg16
I890727360438182992
sb(imulti_robot_problem
MultiRobotState
p50
(dp51
g19
g20
((lp52
(I0
I0
tp53
ag49
a(I6
I6
tp54
a(I5
I6
tp55
a(I7
I6
tp56
a(I7
I4
tp57
a(I4
I2
tp58
a(I2
I4
tp59
atp60
Rp61
sg15
I8
sg30
g20
((lp62
(I7
I0
tp63
a(I7
I1
tp64
a(I6
I3
tp65
a(I1
I8
tp66
a(I0
I5
tp67
a(I5
I1
tp68
a(I1
I0
tp69
a(I0
I3
tp70
atp71
Rp72
sg13
((I2
I8
tp73
(I2
I5
tp74
tp75
sg14
I10
sbs(iproblems
RoomID
p76
(dp77
g10
I5
sg11
(I7
I3
tp78
sg13
I1
sg14
I7
sg15
I8
sg16
I1736392818365009963
sb(imulti_robot_problem
MultiRobotState
p79
(dp80
g19
g20
((lp81
g78
a(I2
I6
tp82
a(I7
I0
tp83
a(I7
I1
tp84
a(I2
I1
tp85
a(I6
I3
tp86
a(I0
I4
tp87
a(I7
I2
tp88
atp89
Rp90
sg15
I8
sg30
g20
((lp91
(I0
I1
tp92
a(I6
I2
tp93
a(I1
I6
tp94
a(I4
I4
tp95
a(I0
I0
tp96
atp97
Rp98
sg13
((I3
I1
tp99
tp100
sg14
I7
sbs(iproblems
RoomID
p101
(dp102
g10
I7
sg11
(I4
I1
tp103
sg13
I3
sg14
I10
sg15
I10
sg16
I1585446675937841368
sb(imulti_robot_problem
MultiRobotState
p104
(dp105
g19
g20
((lp106
(I3
I2
tp107
a(I2
I6
tp108
a(I6
I7
tp109
a(I6
I1
tp110
a(I7
I2
tp111
a(I5
I0
tp112
ag103
a(I2
I4
tp113
a(I5
I8
tp114
atp115
Rp116
sg15
I10
sg30
g20
((lp117
(I7
I3
tp118
a(I9
I4
tp119
a(I2
I9
tp120
a(I1
I7
tp121
a(I2
I2
tp122
a(I5
I2
tp123
a(I9
I7
tp124
atp125
Rp126
sg13
((I8
I9
tp127
(I4
I4
tp128
(I9
I8
tp129
tp130
sg14
I10
sbs(iproblems
RoomID
p131
(dp132
g10
I10
sg11
(I6
I5
tp133
sg13
I5
sg14
I8
sg15
I9
sg16
I3960482443532127989
sb(imulti_robot_problem
MultiRobotState
p134
(dp135
g19
g20
((lp136
(I4
I5
tp137
a(I5
I5
tp138
ag133
a(I6
I6
tp139
atp140
Rp141
sg15
I9
sg30
g20
((lp142
(I2
I7
tp143
a(I2
I6
tp144
a(I5
I0
tp145
a(I5
I7
tp146
a(I1
I4
tp147
a(I1
I5
tp148
a(I3
I6
tp149
a(I8
I0
tp150
a(I8
I5
tp151
a(I5
I3
tp152
atp153
Rp154
sg13
((I4
I3
tp155
(I8
I7
tp156
(I1
I6
tp157
(I7
I3
tp158
(I6
I4
tp159
tp160
sg14
I8
sbssS'name'
p161
S'easy_roomset'
p162
sbsg161
S"AnytimeBeam-w20-gf(1.3, 'exp')_with_PowerHeuristic2"
p163
sS'solutions'
p164
(dp165
g8
((lp166
(F1.7999999999956344
I28
tp167
aF40.220000000001164
tp168
sg47
((lp169
(F0.099999999998544808
I19
tp170
aF40.009999999994761
tp171
sg76
((lp172
(F0.069999999999708962
I30
tp173
a(F0.15000000000145519
I28
tp174
a(F0.98000000000320142
I27
tp175
a(F1.4000000000014552
I25
tp176
a(F1.75
I23
tp177
a(F2.0500000000029104
I22
tp178
a(F3.2799999999988358
I21
tp179
a(F4.3800000000046566
I20
tp180
aF40.0
tp181
sg101
((lp182
(F0.22000000000116415
I14
tp183
aF40.029999999998836
tp184
sg131
((lp185
(F1.8000000000029104
I10
tp186
aF40.640000000006694
tp187
ssba(imeasure_core
ProblemSetSolution
p188
(dp189
g3
(imeasure_core
RoomSet
p190
(dp191
g6
(dp192
(iproblems
RoomID
p193
(dp194
g10
I8
sg11
(I2
I6
tp195
sg13
I4
sg14
I11
sg15
I9
sg16
I7283207964119141687
sb(imulti_robot_problem
MultiRobotState
p196
(dp197
g19
g20
((lp198
(I4
I7
tp199
a(I1
I3
tp200
a(I4
I3
tp201
a(I4
I5
tp202
a(I5
I4
tp203
a(I1
I4
tp204
a(I8
I9
tp205
a(I6
I2
tp206
a(I0
I10
tp207
a(I3
I7
tp208
a(I0
I3
tp209
a(I8
I5
tp210
a(I4
I0
tp211
a(I5
I3
tp212
a(I5
I5
tp213
a(I5
I2
tp214
a(I6
I1
tp215
a(I6
I10
tp216
ag195
a(I6
I3
tp217
a(I3
I6
tp218
a(I3
I5
tp219
a(I3
I4
tp220
a(I2
I4
tp221
atp222
Rp223
sg15
I9
sg30
g20
((lp224
(I7
I0
tp225
a(I6
I8
tp226
a(I7
I1
tp227
a(I5
I6
tp228
a(I1
I8
tp229
a(I0
I8
tp230
a(I4
I1
tp231
a(I5
I8
tp232
atp233
Rp234
sg13
((I1
I7
tp235
(I6
I6
tp236
(I4
I6
tp237
(I2
I1
tp238
tp239
sg14
I11
sbs(iproblems
RoomID
p240
(dp241
g10
I8
sg11
(I3
I5
tp242
sg13
I3
sg14
I12
sg15
I10
sg16
I890727360438182992
sb(imulti_robot_problem
MultiRobotState
p243
(dp244
g19
g20
((lp245
(I4
I7
tp246
a(I0
I0
tp247
a(I3
I0
tp248
a(I3
I2
tp249
a(I1
I4
tp250
a(I8
I9
tp251
a(I7
I5
tp252
a(I2
I3
tp253
a(I3
I4
tp254
a(I5
I8
tp255
ag242
a(I3
I1
tp256
a(I6
I7
tp257
a(I6
I8
tp258
a(I5
I2
tp259
a(I5
I7
tp260
a(I8
I8
tp261
a(I3
I9
tp262
a(I4
I11
tp263
a(I7
I10
tp264
a(I2
I2
tp265
a(I0
I9
tp266
a(I7
I8
tp267
atp268
Rp269
sg15
I10
sg30
g20
((lp270
(I9
I2
tp271
a(I6
I1
tp272
a(I8
I0
tp273
a(I2
I10
tp274
a(I0
I6
tp275
a(I0
I4
tp276
a(I9
I5
tp277
a(I1
I1
tp278
atp279
Rp280
sg13
((I2
I9
tp281
(I2
I6
tp282
(I8
I4
tp283
tp284
sg14
I12
sbs(iproblems
RoomID
p285
(dp286
g10
I5
sg11
(I7
I6
tp287
sg13
I3
sg14
I9
sg15
I10
sg16
I1736392818365009963
sb(imulti_robot_problem
MultiRobotState
p288
(dp289
g19
g20
((lp290
(I7
I3
tp291
a(I9
I1
tp292
a(I4
I8
tp293
a(I9
I3
tp294
a(I7
I7
tp295
a(I6
I2
tp296
a(I0
I5
tp297
a(I0
I4
tp298
a(I8
I5
tp299
a(I7
I2
tp300
a(I1
I2
tp301
a(I3
I8
tp302
a(I9
I0
tp303
a(I9
I2
tp304
ag287
a(I7
I4
tp305
a(I7
I5
tp306
a(I6
I5
tp307
a(I4
I3
tp308
a(I2
I2
tp309
a(I0
I1
tp310
a(I5
I2
tp311
a(I8
I4
tp312
atp313
Rp314
sg15
I10
sg30
g20
((lp315
(I1
I8
tp316
a(I3
I1
tp317
a(I4
I1
tp318
a(I0
I2
tp319
a(I5
I5
tp320
atp321
Rp322
sg13
((I4
I2
tp323
(I1
I0
tp324
(I8
I2
tp325
tp326
sg14
I9
sbs(iproblems
RoomID
p327
(dp328
g10
I9
sg11
(I1
I3
tp329
sg13
I4
sg14
I9
sg15
I10
sg16
I7713914763314685786
sb(imulti_robot_problem
MultiRobotState
p330
(dp331
g19
g20
((lp332
(I3
I2
tp333
ag329
a(I7
I1
tp334
a(I9
I3
tp335
a(I6
I0
tp336
a(I2
I1
tp337
a(I4
I2
tp338
a(I5
I1
tp339
a(I9
I6
tp340
a(I7
I2
tp341
a(I4
I0
tp342
a(I1
I2
tp343
a(I7
I0
tp344
a(I5
I2
tp345
a(I6
I1
tp346
a(I3
I1
tp347
a(I1
I5
tp348
a(I1
I8
tp349
a(I2
I2
tp350
a(I3
I5
tp351
a(I4
I1
tp352
a(I1
I1
tp353
atp354
Rp355
sg15
I10
sg30
g20
((lp356
(I7
I3
tp357
a(I5
I4
tp358
a(I7
I6
tp359
a(I7
I5
tp360
a(I0
I5
tp361
a(I8
I7
tp362
a(I8
I6
tp363
a(I8
I5
tp364
a(I9
I7
tp365
atp366
Rp367
sg13
((I3
I0
tp368
(I7
I7
tp369
(I2
I0
tp370
(I4
I6
tp371
tp372
sg14
I9
sbs(iproblems
RoomID
p373
(dp374
g10
I7
sg11
(I6
I3
tp375
sg13
I3
sg14
I12
sg15
I12
sg16
I1585446675937841368
sb(imulti_robot_problem
MultiRobotState
p376
(dp377
g19
g20
((lp378
(I5
I9
tp379
a(I4
I3
tp380
a(I5
I7
tp381
a(I8
I2
tp382
a(I4
I10
tp383
a(I7
I3
tp384
a(I2
I8
tp385
a(I9
I3
tp386
a(I3
I11
tp387
a(I7
I1
tp388
a(I7
I7
tp389
a(I6
I2
tp390
a(I5
I1
tp391
a(I1
I11
tp392
a(I8
I5
tp393
a(I7
I2
tp394
a(I2
I7
tp395
a(I6
I7
tp396
a(I6
I8
tp397
a(I2
I9
tp398
a(I5
I2
tp399
a(I7
I6
tp400
a(I6
I6
tp401
a(I2
I11
tp402
ag375
a(I4
I11
tp403
a(I7
I10
tp404
a(I3
I4
tp405
a(I8
I6
tp406
a(I7
I8
tp407
a(I8
I4
tp408
atp409
Rp410
sg15
I12
sg30
g20
((lp411
(I3
I2
tp412
a(I1
I9
tp413
a(I9
I4
tp414
a(I11
I5
tp415
a(I11
I8
tp416
a(I2
I5
tp417
a(I6
I10
tp418
atp419
Rp420
sg13
((I10
I10
tp421
(I5
I5
tp422
(I11
I10
tp423
tp424
sg14
I12
sbssg161
S'mild_roomset'
p425
sbsg161
g163
sg164
(dp426
g193
((lp427
(F0.13999999999941792
I7
tp428
aF40.279999999998836
tp429
sg240
((lp430
F40.020000000004075
tp431
sg285
((lp432
(F1.3300000000017462
I66
tp433
aF40.029999999998836
tp434
sg327
((lp435
(F0.52999999999883585
I15
tp436
aF40.019999999996799
tp437
sg373
((lp438
(F0.2800000000061118
I20
tp439
aF40.020000000004075
tp440
ssba(imeasure_core
ProblemSetSolution
p441
(dp442
g3
(imeasure_core
RoomSet
p443
(dp444
g6
(dp445
(iproblems
RoomID
p446
(dp447
g10
I13
sg11
(I8
I4
tp448
sg13
I7
sg14
I12
sg15
I10
sg16
I7283207964119141687
sb(imulti_robot_problem
MultiRobotState
p449
(dp450
g19
g20
((lp451
(I6
I3
tp452
a(I5
I2
tp453
a(I6
I10
tp454
a(I6
I0
tp455
a(I7
I4
tp456
a(I0
I11
tp457
a(I6
I2
tp458
a(I3
I6
tp459
a(I2
I2
tp460
a(I0
I4
tp461
a(I3
I4
tp462
a(I5
I8
tp463
ag448
atp464
Rp465
sg15
I10
sg30
g20
((lp466
(I7
I3
tp467
a(I6
I7
tp468
a(I6
I8
tp469
a(I7
I1
tp470
a(I8
I1
tp471
a(I4
I4
tp472
a(I6
I6
tp473
a(I5
I6
tp474
a(I1
I9
tp475
a(I5
I0
tp476
a(I9
I10
tp477
a(I9
I6
tp478
a(I7
I9
tp479
atp480
Rp481
sg13
((I1
I7
tp482
(I7
I6
tp483
(I4
I6
tp484
(I2
I1
tp485
(I6
I4
tp486
(I0
I9
tp487
(I8
I0
tp488
tp489
sg14
I12
sbs(iproblems
RoomID
p490
(dp491
g10
I13
sg11
(I8
I3
tp492
sg13
I5
sg14
I13
sg15
I11
sg16
I890727360438182992
sb(imulti_robot_problem
MultiRobotState
p493
(dp494
g19
g20
((lp495
(I4
I10
tp496
a(I6
I9
tp497
a(I8
I2
tp498
a(I5
I9
tp499
a(I9
I8
tp500
ag492
a(I4
I12
tp501
a(I0
I10
tp502
a(I8
I7
tp503
a(I9
I1
tp504
a(I9
I0
tp505
a(I6
I8
tp506
a(I6
I10
tp507
a(I8
I8
tp508
a(I8
I6
tp509
a(I7
I8
tp510
a(I0
I2
tp511
atp512
Rp513
sg15
I11
sg30
g20
((lp514
(I10
I5
tp515
a(I0
I0
tp516
a(I4
I6
tp517
a(I0
I6
tp518
a(I9
I2
tp519
a(I8
I11
tp520
a(I2
I1
tp521
a(I9
I10
tp522
a(I1
I5
tp523
a(I0
I4
tp524
a(I0
I9
tp525
a(I5
I2
tp526
a(I4
I11
tp527
atp528
Rp529
sg13
((I3
I10
tp530
(I2
I7
tp531
(I9
I4
tp532
(I2
I11
tp533
(I7
I1
tp534
tp535
sg14
I13
sbs(iproblems
RoomID
p536
(dp537
g10
I10
sg11
(I10
I4
tp538
sg13
I5
sg14
I10
sg15
I11
sg16
I1736392818365009963
sb(imulti_robot_problem
MultiRobotState
p539
(dp540
g19
g20
((lp541
(I0
I1
tp542
a(I1
I2
tp543
a(I3
I2
tp544
ag538
a(I4
I5
tp545
a(I7
I4
tp546
a(I6
I2
tp547
a(I2
I3
tp548
a(I10
I1
tp549
a(I3
I8
tp550
a(I10
I0
tp551
a(I10
I3
tp552
a(I10
I2
tp553
atp554
Rp555
sg15
I11
sg30
g20
((lp556
(I5
I9
tp557
a(I5
I5
tp558
a(I3
I1
tp559
a(I8
I8
tp560
a(I0
I5
tp561
a(I3
I9
tp562
a(I8
I4
tp563
a(I4
I1
tp564
a(I6
I5
tp565
a(I5
I3
tp566
atp567
Rp568
sg13
((I4
I2
tp569
(I1
I0
tp570
(I9
I3
tp571
(I1
I9
tp572
(I0
I2
tp573
tp574
sg14
I10
sbs(iproblems
RoomID
p575
(dp576
g10
I15
sg11
(I6
I9
tp577
sg13
I7
sg14
I11
sg15
I12
sg16
I3960482443532127989
sb(imulti_robot_problem
MultiRobotState
p578
(dp579
g19
g20
((lp580
(I5
I9
tp581
ag577
a(I9
I1
tp582
a(I4
I10
tp583
a(I5
I6
tp584
a(I7
I7
tp585
a(I2
I10
tp586
a(I3
I9
tp587
a(I9
I4
tp588
a(I5
I10
tp589
a(I6
I4
tp590
a(I6
I5
tp591
a(I1
I2
tp592
a(I7
I4
tp593
a(I8
I3
tp594
a(I6
I7
tp595
a(I2
I9
tp596
a(I10
I7
tp597
a(I5
I7
tp598
a(I6
I3
tp599
a(I8
I1
tp600
a(I0
I9
tp601
a(I8
I6
tp602
a(I7
I8
tp603
a(I11
I6
tp604
a(I9
I7
tp605
atp606
Rp607
sg15
I12
sg30
g20
((lp608
(I7
I3
tp609
a(I2
I6
tp610
a(I5
I5
tp611
a(I3
I0
tp612
a(I3
I8
tp613
a(I0
I6
tp614
a(I11
I1
tp615
a(I1
I6
tp616
a(I4
I3
tp617
a(I1
I7
tp618
a(I1
I3
tp619
a(I1
I0
tp620
a(I10
I1
tp621
a(I1
I1
tp622
a(I10
I2
tp623
atp624
Rp625
sg13
((I11
I10
tp626
(I1
I8
tp627
(I10
I5
tp628
(I11
I0
tp629
(I4
I8
tp630
(I7
I9
tp631
(I7
I1
tp632
tp633
sg14
I11
sbs(iproblems
RoomID
p634
(dp635
g10
I12
sg11
(I6
I9
tp636
sg13
I6
sg14
I13
sg15
I13
sg16
I1585446675937841368
sb(imulti_robot_problem
MultiRobotState
p637
(dp638
g19
g20
((lp639
(I7
I3
tp640
ag636
a(I8
I11
tp641
a(I7
I7
tp642
a(I4
I12
tp643
a(I10
I3
tp644
a(I5
I8
tp645
a(I7
I4
tp646
a(I1
I12
tp647
a(I2
I9
tp648
a(I8
I1
tp649
a(I7
I6
tp650
a(I6
I3
tp651
a(I9
I2
tp652
a(I7
I5
tp653
a(I7
I2
tp654
a(I7
I10
tp655
a(I8
I4
tp656
a(I3
I4
tp657
a(I2
I4
tp658
a(I9
I12
tp659
a(I9
I7
tp660
atp661
Rp662
sg15
I13
sg30
g20
((lp663
(I3
I3
tp664
a(I2
I8
tp665
a(I12
I9
tp666
a(I6
I10
tp667
a(I8
I10
tp668
a(I2
I10
tp669
a(I12
I5
tp670
a(I4
I3
tp671
a(I5
I1
tp672
a(I7
I9
tp673
a(I5
I2
tp674
a(I3
I5
tp675
atp676
Rp677
sg13
((I10
I11
tp678
(I5
I5
tp679
(I12
I11
tp680
(I1
I10
tp681
(I3
I12
tp682
(I10
I4
tp683
tp684
sg14
I13
sbssg161
S'heavy_roomset'
p685
sbsg161
g163
sg164
(dp686
g446
((lp687
(F35.349999999998545
I10
tp688
aF43.680000000000291
tp689
sg490
((lp690
F40.369999999995343
tp691
sg536
((lp692
(F1.2200000000011642
I9
tp693
aF40.05000000000291
tp694
sg575
((lp695
F40.410000000003492
tp696
sg634
((lp697
F40.049999999995634
tp698
ssba(imeasure_core
ProblemSetSolution
p699
(dp700
g3
g4
sg161
S"AnytimeBeam-w20-gf(1.5, 'exp')_with_PowerHeuristic2"
p701
sg164
(dp702
g8
((lp703
(F1.8099999999976717
I28
tp704
aF40.19999999999709
tp705
sg47
((lp706
(F0.10000000000582077
I19
tp707
aF40.0
tp708
sg76
((lp709
(F0.060000000004947651
I30
tp710
a(F0.15000000000145519
I28
tp711
a(F0.80000000000291038
I27
tp712
a(F1.2200000000011642
I25
tp713
a(F1.5800000000017462
I23
tp714
a(F1.8800000000046566
I22
tp715
a(F3.1100000000005821
I21
tp716
a(F4.2000000000043656
I20
tp717
aF40.0
tp718
sg101
((lp719
(F0.22000000000116415
I14
tp720
aF40.080000000001746
tp721
sg131
((lp722
(F1.8000000000029104
I10
tp723
aF40.230000000003201
tp724
ssba(imeasure_core
ProblemSetSolution
p725
(dp726
g3
g190
sg161
g701
sg164
(dp727
g193
((lp728
(F0.14999999999417923
I7
tp729
aF40.169999999998254
tp730
sg240
((lp731
F40.150000000001455
tp732
sg285
((lp733
(F1.2999999999956344
I66
tp734
aF40.029999999998836
tp735
sg327
((lp736
(F0.54000000000087311
I15
tp737
aF40.190000000002328
tp738
sg373
((lp739
(F0.27999999999883585
I20
tp740
aF40.009999999994761
tp741
ssba(imeasure_core
ProblemSetSolution
p742
(dp743
g3
g443
sg161
g701
sg164
(dp744
g446
((lp745
(F35.510000000002037
I10
tp746
aF43.830000000001746
tp747
sg490
((lp748
F40.309999999997672
tp749
sg536
((lp750
(F1.2200000000011642
I9
tp751
aF40.209999999999127
tp752
sg575
((lp753
F40.080000000001746
tp754
sg634
((lp755
F40.330000000001746
tp756
ssba(imeasure_core
ProblemSetSolution
p757
(dp758
g3
g4
sg161
S"AnytimeBeam-w20-gf(1.7, 'exp')_with_PowerHeuristic2"
p759
sg164
(dp760
g8
((lp761
(F1.7800000000061118
I28
tp762
aF40.560000000004948
tp763
sg47
((lp764
(F0.08999999999650754
I19
tp765
aF40.009999999994761
tp766
sg76
((lp767
(F0.069999999999708962
I30
tp768
a(F0.16000000000349246
I28
tp769
a(F0.49000000000523869
I27
tp770
a(F0.91000000000349246
I25
tp771
a(F1.2700000000040745
I23
tp772
a(F1.5800000000017462
I22
tp773
a(F2.8300000000017462
I21
tp774
a(F3.930000000000291
I20
tp775
aF40.0
tp776
sg101
((lp777
(F0.22000000000116415
I14
tp778
aF40.0
tp779
sg131
((lp780
(F1.7900000000008731
I10
tp781
aF40.310000000004948
tp782
ssba(imeasure_core
ProblemSetSolution
p783
(dp784
g3
g190
sg161
g759
sg164
(dp785
g193
((lp786
(F0.15000000000145519
I7
tp787
aF40.040000000000873
tp788
sg240
((lp789
F40.07999999999447
tp790
sg285
((lp791
(F1.319999999999709
I66
tp792
aF40.030000000006112
tp793
sg327
((lp794
(F0.52999999999883585
I15
tp795
aF40.139999999999418
tp796
sg373
((lp797
(F0.27999999999883585
I20
tp798
aF40.029999999998836
tp799
ssba(imeasure_core
ProblemSetSolution
p800
(dp801
g3
g443
sg161
g759
sg164
(dp802
g446
((lp803
(F35.419999999998254
I10
tp804
aF43.75
tp805
sg490
((lp806
F40.080000000001746
tp807
sg536
((lp808
(F1.2099999999991269
I9
tp809
aF41.119999999995343
tp810
sg575
((lp811
F40.160000000003492
tp812
sg634
((lp813
F40.419999999998254
tp814
ssba(imeasure_core
ProblemSetSolution
p815
(dp816
g3
g4
sg161
S"AnytimeBeam-w20-gf(1.8999999999999999, 'exp')_with_PowerHeuristic2"
p817
sg164
(dp818
g8
((lp819
(F1.7900000000008731
I28
tp820
aF40.239999999997963
tp821
sg47
((lp822
(F0.090000000003783498
I19
tp823
aF40.010000000002037
tp824
sg76
((lp825
(F0.059999999997671694
I30
tp826
a(F0.15000000000145519
I28
tp827
a(F0.47000000000116415
I27
tp828
a(F0.88999999999941792
I25
tp829
a(F1.25
I23
tp830
a(F1.5500000000029104
I22
tp831
a(F2.7900000000008731
I21
tp832
a(F3.9000000000014552
I20
tp833
aF40.0
tp834
sg101
((lp835
(F0.22000000000116415
I14
tp836
aF40.029999999998836
tp837
sg131
((lp838
(F1.8000000000029104
I10
tp839
aF40.059999999997672
tp840
ssba(imeasure_core
ProblemSetSolution
p841
(dp842
g3
g190
sg161
g817
sg164
(dp843
g193
((lp844
(F0.13999999999941792
I7
tp845
aF40.069999999999709
tp846
sg240
((lp847
F40.029999999998836
tp848
sg285
((lp849
(F1.3300000000017462
I66
tp850
aF40.030000000006112
tp851
sg327
((lp852
(F0.52999999999883585
I15
tp853
aF40.32999999999447
tp854
sg373
((lp855
(F0.27999999999883585
I20
tp856
aF40.120000000002619
tp857
ssba(imeasure_core
ProblemSetSolution
p858
(dp859
g3
g443
sg161
g817
sg164
(dp860
g446
((lp861
(F35.330000000001746
I10
tp862
aF43.659999999996217
tp863
sg490
((lp864
F40.310000000004948
tp865
sg536
((lp866
(F1.2200000000011642
I9
tp867
aF40.040000000000873
tp868
sg575
((lp869
F40.219999999993888
tp870
sg634
((lp871
F40.410000000003492
tp872
ssba(imeasure_core
ProblemSetSolution
p873
(dp874
g3
g4
sg161
S"AnytimeBeam-w20-gf(1.3, 'exp')_with_LinearHeuristic"
p875
sg164
(dp876
g8
((lp877
(F0.37999999999738066
I5
tp878
aF40.0
tp879
sg47
((lp880
(F0.16999999999825377
I22
tp881
aF40.0
tp882
sg76
((lp883
(F0.0099999999947613105
I20
tp884
aF40.0
tp885
sg101
((lp886
(F2.8600000000005821
I67
tp887
aF40.019999999996799
tp888
sg131
((lp889
(F2.1399999999994179
I10
tp890
aF40.349999999998545
tp891
ssba(imeasure_core
ProblemSetSolution
p892
(dp893
g3
g190
sg161
g875
sg164
(dp894
g193
((lp895
(F13.25
I177
tp896
aF40.040000000000873
tp897
sg240
((lp898
F40.150000000001455
tp899
sg285
((lp900
(F0.30000000000291038
I23
tp901
a(F25.110000000000582
I21
tp902
a(F30.590000000003783
I20
tp903
aF40.029999999998836
tp904
sg327
((lp905
F40.169999999998254
tp906
sg373
((lp907
F40.130000000004657
tp908
ssba(imeasure_core
ProblemSetSolution
p909
(dp910
g3
g443
sg161
g875
sg164
(dp911
g446
((lp912
F42.719999999993888
tp913
sg490
((lp914
F40.139999999999418
tp915
sg536
((lp916
(F18.600000000005821
I95
tp917
aF41.090000000003783
tp918
sg575
((lp919
F40.110000000000582
tp920
sg634
((lp921
F40.129999999997381
tp922
ssba(imeasure_core
ProblemSetSolution
p923
(dp924
g3
g4
sg161
S"AnytimeBeam-w20-gf(1.5, 'exp')_with_LinearHeuristic"
p925
sg164
(dp926
g8
((lp927
(F0.38999999999941792
I5
tp928
aF40.099999999998545
tp929
sg47
((lp930
(F0.18000000000029104
I22
tp931
aF40.010000000002037
tp932
sg76
((lp933
(F0.010000000002037268
I20
tp934
aF40.0
tp935
sg101
((lp936
(F2.8600000000005821
I67
tp937
aF40.040000000000873
tp938
sg131
((lp939
(F2.1200000000026193
I10
tp940
aF40.019999999996799
tp941
ssba(imeasure_core
ProblemSetSolution
p942
(dp943
g3
g190
sg161
g925
sg164
(dp944
g193
((lp945
(F13.130000000004657
I177
tp946
aF40.080000000001746
tp947
sg240
((lp948
F40.129999999997381
tp949
sg285
((lp950
(F0.30000000000291038
I23
tp951
a(F13.340000000003783
I21
tp952
a(F18.790000000000873
I20
tp953
a(F28.889999999999418
I19
tp954
aF40.029999999998836
tp955
sg327
((lp956
F40.120000000002619
tp957
sg373
((lp958
F40.209999999999127
tp959
ssba(imeasure_core
ProblemSetSolution
p960
(dp961
g3
g443
sg161
g925
sg164
(dp962
g446
((lp963
F42.489999999997963
tp964
sg490
((lp965
F40.040000000000873
tp966
sg536
((lp967
(F18.44999999999709
I95
tp968
aF41.209999999999127
tp969
sg575
((lp970
F40.040000000000873
tp971
sg634
((lp972
F40.930000000000291
tp973
ssba(imeasure_core
ProblemSetSolution
p974
(dp975
g3
g4
sg161
S"AnytimeBeam-w20-gf(1.7, 'exp')_with_LinearHeuristic"
p976
sg164
(dp977
g8
((lp978
(F0.37999999999738066
I5
tp979
aF40.009999999994761
tp980
sg47
((lp981
(F0.18000000000029104
I22
tp982
aF40.010000000002037
tp983
sg76
((lp984
(F0.020000000004074536
I20
tp985
aF40.0
tp986
sg101
((lp987
(F2.8700000000026193
I67
tp988
aF40.020000000004075
tp989
sg131
((lp990
(F2.1199999999953434
I10
tp991
aF40.25
tp992
ssba(imeasure_core
ProblemSetSolution
p993
(dp994
g3
g190
sg161
g976
sg164
(dp995
g193
((lp996
(F13.150000000001455
I177
tp997
aF40.05000000000291
tp998
sg240
((lp999
F40.029999999998836
tp1000
sg285
((lp1001
(F0.30999999999767169
I23
tp1002
a(F23.029999999998836
I21
tp1003
a(F29.680000000000291
I20
tp1004
aF40.05000000000291
tp1005
sg327
((lp1006
F40.369999999995343
tp1007
sg373
((lp1008
F40.040000000000873
tp1009
ssba(imeasure_core
ProblemSetSolution
p1010
(dp1011
g3
g443
sg161
g976
sg164
(dp1012
g446
((lp1013
F42.410000000003492
tp1014
sg490
((lp1015
F40.019999999996799
tp1016
sg536
((lp1017
(F18.489999999997963
I95
tp1018
aF43.610000000000582
tp1019
sg575
((lp1020
F44.330000000001746
tp1021
sg634
((lp1022
F40.909999999996217
tp1023
ssba(imeasure_core
ProblemSetSolution
p1024
(dp1025
g3
g4
sg161
S"AnytimeBeam-w20-gf(1.8999999999999999, 'exp')_with_LinearHeuristic"
p1026
sg164
(dp1027
g8
((lp1028
(F0.37999999999738066
I5
tp1029
aF40.040000000000873
tp1030
sg47
((lp1031
(F0.18000000000029104
I22
tp1032
aF40.010000000002037
tp1033
sg76
((lp1034
(F0.0099999999947613105
I20
tp1035
aF40.0
tp1036
sg101
((lp1037
(F2.8600000000005821
I67
tp1038
aF40.059999999997672
tp1039
sg131
((lp1040
(F2.1200000000026193
I10
tp1041
aF40.180000000000291
tp1042
ssba(imeasure_core
ProblemSetSolution
p1043
(dp1044
g3
g190
sg161
g1026
sg164
(dp1045
g193
((lp1046
(F13.129999999997381
I177
tp1047
aF40.019999999996799
tp1048
sg240
((lp1049
F40.090000000003783
tp1050
sg285
((lp1051
(F0.29999999999563443
I23
tp1052
a(F12.809999999997672
I21
tp1053
a(F19.129999999997381
I20
tp1054
a(F31.139999999999418
I19
tp1055
aF40.040000000000873
tp1056
sg327
((lp1057
F40.069999999999709
tp1058
sg373
((lp1059
F40.049999999995634
tp1060
ssba(imeasure_core
ProblemSetSolution
p1061
(dp1062
g3
g443
sg161
g1026
sg164
(dp1063
g446
((lp1064
F42.620000000002619
tp1065
sg490
((lp1066
F40.040000000000873
tp1067
sg536
((lp1068
(F18.509999999994761
I95
tp1069
aF44.069999999999709
tp1070
sg575
((lp1071
F40.129999999997381
tp1072
sg634
((lp1073
F40.040000000000873
tp1074
ssba.