(lp0
(imeasure_core
ProblemSetSolution
p1
(dp2
S'roomset'
p3
(imeasure_core
RoomSet
p4
(dp5
S'rooms'
p6
(dp7
(iproblems
RoomID
p8
(dp9
S'dusts'
p10
I6
sS'obstacles'
p11
(I5
I1
tp12
sS'robots'
p13
I4
sS'height'
p14
I9
sS'width'
p15
I10
sS'seed'
p16
I2405875930906139466
sb(imulti_robot_problem
MultiRobotState
p17
(dp18
S'obstacle_locations'
p19
c__builtin__
frozenset
p20
((lp21
(I7
I0
tp22
a(I7
I1
tp23
ag12
a(I6
I1
tp24
a(I6
I0
tp25
a(I7
I2
tp26
atp27
Rp28
sg15
I10
sS'dirt_locations'
p29
g20
((lp30
(I7
I3
tp31
a(I2
I1
tp32
a(I6
I4
tp33
a(I5
I6
tp34
a(I5
I2
tp35
a(I0
I7
tp36
atp37
Rp38
sg13
((I7
I6
tp39
(I3
I3
tp40
(I8
I6
tp41
(I0
I2
tp42
tp43
sg14
I9
sbs(iproblems
RoomID
p44
(dp45
g10
I6
sg11
(I6
I7
tp46
sg13
I4
sg14
I10
sg15
I7
sg16
I8744744311366254845
sb(imulti_robot_problem
MultiRobotState
p47
(dp48
g19
g20
((lp49
(I0
I6
tp50
ag46
a(I4
I6
tp51
a(I3
I7
tp52
a(I5
I7
tp53
a(I1
I9
tp54
atp55
Rp56
sg15
I7
sg29
g20
((lp57
(I2
I7
tp58
a(I0
I1
tp59
a(I5
I4
tp60
a(I6
I0
tp61
a(I5
I8
tp62
a(I5
I3
tp63
atp64
Rp65
sg13
((I0
I8
tp66
(I4
I2
tp67
(I3
I0
tp68
(I1
I4
tp69
tp70
sg14
I10
sbs(iproblems
RoomID
p71
(dp72
g10
I6
sg11
(I4
I6
tp73
sg13
I1
sg14
I8
sg15
I7
sg16
I3537054308274871603
sb(imulti_robot_problem
MultiRobotState
p74
(dp75
g19
g20
((lp76
(I4
I7
tp77
ag73
a(I4
I5
tp78
a(I2
I5
tp79
a(I3
I5
tp80
a(I6
I0
tp81
a(I2
I4
tp82
atp83
Rp84
sg15
I7
sg29
g20
((lp85
(I0
I6
tp86
a(I6
I2
tp87
a(I5
I6
tp88
a(I4
I1
tp89
a(I1
I1
tp90
a(I5
I3
tp91
atp92
Rp93
sg13
((I0
I3
tp94
tp95
sg14
I8
sbs(iproblems
RoomID
p96
(dp97
g10
I10
sg11
(I4
I7
tp98
sg13
I5
sg14
I10
sg15
I8
sg16
I8655808914197340073
sb(imulti_robot_problem
MultiRobotState
p99
(dp100
g19
g20
((lp101
(I2
I7
tp102
ag98
a(I4
I8
tp103
a(I6
I3
tp104
a(I7
I5
tp105
a(I3
I7
tp106
a(I1
I0
tp107
a(I5
I3
tp108
atp109
Rp110
sg15
I8
sg29
g20
((lp111
(I7
I3
tp112
a(I5
I4
tp113
a(I7
I0
tp114
a(I5
I7
tp115
a(I1
I5
tp116
a(I1
I9
tp117
a(I3
I6
tp118
a(I1
I7
tp119
a(I3
I4
tp120
a(I5
I8
tp121
atp122
Rp123
sg13
((I3
I8
tp124
(I7
I9
tp125
(I6
I1
tp126
(I2
I3
tp127
(I5
I5
tp128
tp129
sg14
I10
sbs(iproblems
RoomID
p130
(dp131
g10
I8
sg11
(I5
I3
tp132
sg13
I3
sg14
I7
sg15
I7
sg16
I7325839828077136048
sb(imulti_robot_problem
MultiRobotState
p133
(dp134
g19
g20
((lp135
(I6
I4
tp136
a(I5
I4
tp137
a(I5
I5
tp138
a(I6
I6
tp139
a(I3
I1
tp140
a(I6
I0
tp141
a(I2
I0
tp142
a(I0
I4
tp143
ag132
atp144
Rp145
sg15
I7
sg29
g20
((lp146
(I0
I6
tp147
a(I3
I0
tp148
a(I2
I4
tp149
a(I1
I5
tp150
a(I4
I3
tp151
a(I2
I2
tp152
a(I1
I1
tp153
a(I3
I5
tp154
atp155
Rp156
sg13
((I1
I0
tp157
(I3
I3
tp158
(I6
I2
tp159
tp160
sg14
I7
sbssS'name'
p161
S'easy_roomset'
p162
sbsg161
S"AnytimeBeam-w20-gf(2, 'lin')_with_PowerHeuristic2"
p163
sS'solutions'
p164
(dp165
g8
((lp166
(F0.47999999999956344
I10
tp167
aF40.010000000000218
tp168
sg44
((lp169
(F0.32999999999992724
I14
tp170
aF40.029999999998836
tp171
sg71
((lp172
(F0.090000000000145519
I49
tp173
a(F1.4400000000005093
I47
tp174
a(F1.6500000000014552
I45
tp175
a(F3.9000000000014552
I43
tp176
a(F12.670000000000073
I41
tp177
a(F13.079999999999927
I40
tp178
a(F16.730000000001382
I39
tp179
a(F17.6200000000008
I38
tp180
a(F18.880000000001019
I37
tp181
a(F20.06000000000131
I35
tp182
a(F23.210000000000946
I33
tp183
a(F25.56000000000131
I31
tp184
a(F27.530000000000655
I29
tp185
a(F29.110000000000582
I27
tp186
a(F31.1200000000008
I25
tp187
a(F35.510000000000218
I24
tp188
a(F39.430000000000291
I22
tp189
aF40.0
tp190
sg96
((lp191
(F1.5100000000002183
I9
tp192
aF40.010000000000218
tp193
sg130
((lp194
(F5.0799999999999272
I144
tp195
aF40.010000000000218
tp196
ssba(imeasure_core
ProblemSetSolution
p197
(dp198
g3
(imeasure_core
RoomSet
p199
(dp200
g6
(dp201
(iproblems
RoomID
p202
(dp203
g10
I6
sg11
(I1
I8
tp204
sg13
I4
sg14
I11
sg15
I12
sg16
I2405875930906139466
sb(imulti_robot_problem
MultiRobotState
p205
(dp206
g19
g20
((lp207
(I6
I4
tp208
a(I4
I6
tp209
a(I8
I2
tp210
a(I6
I6
tp211
a(I2
I8
tp212
a(I8
I0
tp213
a(I5
I5
tp214
a(I9
I10
tp215
a(I6
I2
tp216
a(I2
I3
tp217
a(I3
I7
tp218
a(I6
I5
tp219
a(I5
I3
tp220
a(I7
I0
tp221
a(I3
I3
tp222
a(I2
I9
tp223
a(I11
I5
tp224
a(I8
I1
tp225
a(I6
I1
tp226
a(I3
I1
tp227
a(I6
I3
tp228
a(I2
I0
tp229
ag204
a(I7
I5
tp230
a(I3
I6
tp231
a(I4
I3
tp232
a(I3
I4
tp233
atp234
Rp235
sg15
I12
sg29
g20
((lp236
(I9
I4
tp237
a(I7
I1
tp238
a(I0
I9
tp239
a(I9
I3
tp240
a(I7
I7
tp241
a(I2
I1
tp242
atp243
Rp244
sg13
((I9
I7
tp245
(I4
I4
tp246
(I10
I8
tp247
(I0
I2
tp248
tp249
sg14
I11
sbs(iproblems
RoomID
p250
(dp251
g10
I10
sg11
(I0
I5
tp252
sg13
I4
sg14
I12
sg15
I10
sg16
I8655808914197340073
sb(imulti_robot_problem
MultiRobotState
p253
(dp254
g19
g20
((lp255
(I5
I9
tp256
a(I5
I4
tp257
a(I5
I7
tp258
a(I6
I6
tp259
a(I4
I8
tp260
a(I8
I0
tp261
a(I0
I7
tp262
a(I7
I5
tp263
a(I2
I3
tp264
a(I1
I4
tp265
a(I6
I8
tp266
a(I1
I11
tp267
a(I9
I6
tp268
a(I5
I8
tp269
a(I4
I6
tp270
a(I3
I8
tp271
a(I6
I7
tp272
a(I5
I5
tp273
a(I3
I4
tp274
a(I4
I4
tp275
a(I6
I3
tp276
a(I2
I0
tp277
a(I6
I5
tp278
ag252
a(I7
I8
tp279
atp280
Rp281
sg15
I10
sg29
g20
((lp282
(I6
I9
tp283
a(I2
I9
tp284
a(I2
I11
tp285
a(I9
I0
tp286
a(I7
I7
tp287
a(I8
I3
tp288
a(I1
I7
tp289
a(I8
I6
tp290
a(I8
I4
tp291
a(I3
I5
tp292
atp293
Rp294
sg13
((I4
I9
tp295
(I8
I11
tp296
(I7
I1
tp297
(I3
I3
tp298
tp299
sg14
I12
sbs(iproblems
RoomID
p300
(dp301
g10
I6
sg11
(I3
I3
tp302
sg13
I4
sg14
I12
sg15
I12
sg16
I7193062864237573168
sb(imulti_robot_problem
MultiRobotState
p303
(dp304
g19
g20
((lp305
(I6
I4
tp306
a(I5
I4
tp307
a(I1
I3
tp308
a(I6
I6
tp309
a(I7
I1
tp310
a(I9
I3
tp311
a(I0
I7
tp312
a(I1
I6
tp313
a(I2
I5
tp314
a(I0
I8
tp315
a(I10
I3
tp316
a(I8
I3
tp317
a(I3
I1
tp318
ag302
a(I5
I7
tp319
a(I11
I3
tp320
a(I7
I4
tp321
a(I0
I9
tp322
a(I2
I3
tp323
a(I8
I4
tp324
a(I3
I4
tp325
a(I2
I4
tp326
a(I9
I7
tp327
atp328
Rp329
sg15
I12
sg29
g20
((lp330
(I2
I0
tp331
a(I2
I6
tp332
a(I6
I8
tp333
a(I0
I6
tp334
a(I4
I4
tp335
a(I7
I7
tp336
atp337
Rp338
sg13
((I11
I9
tp339
(I11
I2
tp340
(I4
I11
tp341
(I3
I6
tp342
tp343
sg14
I12
sbs(iproblems
RoomID
p344
(dp345
g10
I10
sg11
(I11
I0
tp346
sg13
I4
sg14
I9
sg15
I12
sg16
I2796939073032698495
sb(imulti_robot_problem
MultiRobotState
p347
(dp348
g19
g20
((lp349
(I7
I3
tp350
a(I5
I7
tp351
a(I9
I1
tp352
a(I6
I6
tp353
a(I8
I0
tp354
a(I7
I7
tp355
a(I5
I8
tp356
a(I3
I3
tp357
a(I8
I1
tp358
a(I4
I8
tp359
a(I6
I3
tp360
a(I7
I2
tp361
a(I3
I6
tp362
a(I6
I4
tp363
a(I5
I4
tp364
a(I2
I6
tp365
a(I7
I1
tp366
a(I4
I5
tp367
ag346
a(I2
I3
tp368
a(I10
I1
tp369
a(I1
I0
tp370
a(I6
I5
tp371
a(I5
I3
tp372
a(I8
I3
tp373
a(I7
I0
tp374
a(I6
I8
tp375
a(I9
I2
tp376
a(I6
I1
tp377
a(I3
I1
tp378
a(I8
I8
tp379
a(I4
I3
tp380
a(I5
I2
tp381
a(I10
I2
tp382
atp383
Rp384
sg15
I12
sg29
g20
((lp385
(I1
I2
tp386
a(I11
I7
tp387
a(I3
I2
tp388
a(I2
I8
tp389
a(I9
I3
tp390
a(I1
I6
tp391
a(I5
I0
tp392
a(I0
I3
tp393
a(I0
I8
tp394
a(I4
I1
tp395
atp396
Rp397
sg13
((I10
I8
tp398
(I4
I6
tp399
(I11
I4
tp400
(I7
I8
tp401
tp402
sg14
I9
sbs(iproblems
RoomID
p403
(dp404
g10
I10
sg11
(I3
I6
tp405
sg13
I4
sg14
I12
sg15
I11
sg16
I4278205817407065157
sb(imulti_robot_problem
MultiRobotState
p406
(dp407
g19
g20
((lp408
(I0
I1
tp409
a(I4
I7
tp410
a(I5
I6
tp411
a(I2
I8
tp412
a(I0
I10
tp413
a(I3
I7
tp414
a(I7
I11
tp415
a(I3
I3
tp416
a(I2
I7
tp417
a(I5
I3
tp418
a(I6
I7
tp419
a(I4
I6
tp420
a(I10
I7
tp421
a(I4
I4
tp422
a(I3
I8
tp423
a(I4
I5
tp424
ag405
a(I1
I10
tp425
a(I3
I5
tp426
a(I1
I9
tp427
atp428
Rp429
sg15
I11
sg29
g20
((lp430
(I1
I2
tp431
a(I8
I1
tp432
a(I9
I2
tp433
a(I6
I1
tp434
a(I5
I7
tp435
a(I8
I9
tp436
a(I3
I0
tp437
a(I9
I4
tp438
a(I0
I2
tp439
a(I4
I0
tp440
atp441
Rp442
sg13
((I6
I10
tp443
(I5
I11
tp444
(I2
I0
tp445
(I9
I1
tp446
tp447
sg14
I12
sbssg161
S'mild_roomset'
p448
sbsg161
g163
sg164
(dp449
g202
((lp450
(F3.3999999999996362
I60
tp451
a(F10.940000000000509
I55
tp452
aF40.010000000000218
tp453
sg250
((lp454
(F12.010000000000218
I171
tp455
aF40.010000000000218
tp456
sg300
((lp457
(F0.92000000000007276
I25
tp458
aF40.090000000000146
tp459
sg344
((lp460
F40.0
tp461
sg403
((lp462
(F1.4099999999998545
I28
tp463
aF40.020000000000437
tp464
ssba(imeasure_core
ProblemSetSolution
p465
(dp466
g3
(imeasure_core
RoomSet
p467
(dp468
g6
(dp469
(iproblems
RoomID
p470
(dp471
g10
I11
sg11
(I10
I1
tp472
sg13
I7
sg14
I12
sg15
I13
sg16
I2405875930906139466
sb(imulti_robot_problem
MultiRobotState
p473
(dp474
g19
g20
((lp475
(I7
I3
tp476
a(I9
I1
tp477
a(I7
I1
tp478
a(I5
I6
tp479
a(I8
I11
tp480
a(I8
I0
tp481
a(I1
I4
tp482
a(I6
I2
tp483
a(I0
I7
tp484
ag472
a(I10
I3
tp485
a(I7
I2
tp486
a(I10
I4
tp487
a(I11
I7
tp488
a(I9
I0
tp489
a(I11
I5
tp490
a(I7
I4
tp491
a(I1
I5
tp492
a(I10
I2
tp493
a(I11
I6
tp494
a(I8
I4
tp495
atp496
Rp497
sg15
I13
sg29
g20
((lp498
(I12
I5
tp499
a(I10
I11
tp500
a(I8
I1
tp501
a(I7
I8
tp502
a(I8
I6
tp503
a(I6
I3
tp504
a(I2
I0
tp505
a(I2
I3
tp506
a(I5
I1
tp507
a(I10
I0
tp508
a(I3
I4
tp509
atp510
Rp511
sg13
((I10
I8
tp512
(I9
I2
tp513
(I4
I5
tp514
(I11
I8
tp515
(I1
I2
tp516
(I3
I1
tp517
(I0
I10
tp518
tp519
sg14
I12
sbs(iproblems
RoomID
p520
(dp521
g10
I11
sg11
(I7
I9
tp522
sg13
I6
sg14
I13
sg15
I10
sg16
I8744744311366254845
sb(imulti_robot_problem
MultiRobotState
p523
(dp524
g19
g20
((lp525
(I6
I9
tp526
a(I1
I3
tp527
a(I4
I9
tp528
a(I5
I6
tp529
a(I9
I8
tp530
a(I1
I8
tp531
a(I1
I0
tp532
ag522
a(I3
I4
tp533
a(I5
I8
tp534
a(I9
I7
tp535
atp536
Rp537
sg15
I10
sg29
g20
((lp538
(I0
I1
tp539
a(I7
I3
tp540
a(I9
I0
tp541
a(I1
I12
tp542
a(I4
I10
tp543
a(I5
I11
tp544
a(I9
I10
tp545
a(I7
I11
tp546
a(I3
I7
tp547
a(I0
I8
tp548
a(I9
I6
tp549
atp550
Rp551
sg13
((I0
I10
tp552
(I6
I3
tp553
(I4
I0
tp554
(I1
I6
tp555
(I7
I5
tp556
(I9
I9
tp557
tp558
sg14
I13
sbs(iproblems
RoomID
p559
(dp560
g10
I15
sg11
(I3
I6
tp561
sg13
I7
sg14
I10
sg15
I13
sg16
I2796939073032698495
sb(imulti_robot_problem
MultiRobotState
p562
(dp563
g19
g20
((lp564
(I5
I9
tp565
a(I6
I9
tp566
a(I4
I6
tp567
a(I5
I0
tp568
a(I6
I6
tp569
a(I4
I5
tp570
a(I5
I4
tp571
a(I6
I7
tp572
a(I6
I2
tp573
a(I0
I5
tp574
a(I8
I7
tp575
a(I5
I1
tp576
a(I6
I4
tp577
a(I12
I9
tp578
a(I5
I8
tp579
a(I5
I3
tp580
a(I2
I7
tp581
a(I4
I9
tp582
a(I5
I5
tp583
a(I3
I1
tp584
a(I4
I8
tp585
a(I2
I0
tp586
a(I3
I9
tp587
a(I6
I5
tp588
ag561
a(I5
I7
tp589
a(I7
I8
tp590
atp591
Rp592
sg15
I13
sg29
g20
((lp593
(I1
I2
tp594
a(I8
I2
tp595
a(I2
I9
tp596
a(I12
I0
tp597
a(I4
I1
tp598
a(I12
I8
tp599
a(I6
I0
tp600
a(I9
I9
tp601
a(I2
I3
tp602
a(I9
I4
tp603
a(I1
I7
tp604
a(I0
I9
tp605
a(I7
I9
tp606
a(I3
I4
tp607
a(I3
I3
tp608
atp609
Rp610
sg13
((I10
I2
tp611
(I11
I8
tp612
(I12
I5
tp613
(I8
I9
tp614
(I10
I3
tp615
(I0
I3
tp616
(I11
I2
tp617
tp618
sg14
I10
sbs(iproblems
RoomID
p619
(dp620
g10
I15
sg11
(I4
I8
tp621
sg13
I6
sg14
I13
sg15
I12
sg16
I4278205817407065157
sb(imulti_robot_problem
MultiRobotState
p622
(dp623
g19
g20
((lp624
(I11
I7
tp625
a(I2
I9
tp626
ag621
a(I5
I6
tp627
a(I2
I8
tp628
a(I6
I10
tp629
a(I3
I8
tp630
a(I11
I8
tp631
a(I3
I9
tp632
a(I1
I10
tp633
a(I1
I11
tp634
a(I7
I8
tp635
a(I2
I4
tp636
atp637
Rp638
sg15
I12
sg29
g20
((lp639
(I1
I2
tp640
a(I0
I1
tp641
a(I5
I4
tp642
a(I5
I7
tp643
a(I10
I4
tp644
a(I7
I1
tp645
a(I3
I1
tp646
a(I10
I5
tp647
a(I4
I7
tp648
a(I9
I9
tp649
a(I0
I10
tp650
a(I4
I3
tp651
a(I8
I12
tp652
a(I4
I1
tp653
a(I0
I2
tp654
atp655
Rp656
sg13
((I7
I10
tp657
(I6
I12
tp658
(I2
I0
tp659
(I9
I1
tp660
(I10
I3
tp661
(I4
I0
tp662
tp663
sg14
I13
sbs(iproblems
RoomID
p664
(dp665
g10
I15
sg11
(I5
I8
tp666
sg13
I7
sg14
I13
sg15
I11
sg16
I8655808914197340073
sb(imulti_robot_problem
MultiRobotState
p667
(dp668
g19
g20
((lp669
(I5
I9
tp670
a(I6
I7
tp671
a(I6
I11
tp672
a(I1
I4
tp673
a(I0
I12
tp674
a(I0
I11
tp675
a(I7
I5
tp676
a(I1
I6
tp677
a(I0
I4
tp678
a(I5
I10
tp679
a(I3
I9
tp680
a(I4
I9
tp681
a(I10
I3
tp682
ag666
atp683
Rp684
sg15
I11
sg29
g20
((lp685
(I2
I7
tp686
a(I7
I3
tp687
a(I4
I6
tp688
a(I1
I12
tp689
a(I5
I6
tp690
a(I8
I5
tp691
a(I7
I7
tp692
a(I7
I9
tp693
a(I2
I0
tp694
a(I9
I4
tp695
a(I7
I10
tp696
a(I0
I8
tp697
a(I9
I6
tp698
a(I6
I5
tp699
a(I9
I7
tp700
atp701
Rp702
sg13
((I9
I11
tp703
(I8
I1
tp704
(I3
I4
tp705
(I8
I7
tp706
(I9
I1
tp707
(I2
I10
tp708
(I2
I12
tp709
tp710
sg14
I13
sbssg161
S'heavy_roomset'
p711
sbsg161
g163
sg164
(dp712
g470
((lp713
F40.930000000000291
tp714
sg520
((lp715
(F12.420000000000073
I13
tp716
aF40.630000000001019
tp717
sg559
((lp718
F40.409999999999854
tp719
sg619
((lp720
(F20.889999999999418
I15
tp721
aF40.680000000000291
tp722
sg664
((lp723
F42.229999999999563
tp724
ssba(imeasure_core
ProblemSetSolution
p725
(dp726
g3
g4
sg161
S"AnytimeBeam-w20-gf(4, 'lin')_with_PowerHeuristic2"
p727
sg164
(dp728
g8
((lp729
(F0.45999999999912689
I10
tp730
aF40.079999999999927
tp731
sg44
((lp732
(F0.32999999999992724
I14
tp733
aF40.020000000000437
tp734
sg71
((lp735
(F0.099999999998544808
I49
tp736
a(F0.76999999999861757
I47
tp737
a(F0.97999999999956344
I45
tp738
a(F2.0999999999985448
I43
tp739
a(F6.1299999999991996
I41
tp740
a(F6.5599999999994907
I40
tp741
a(F8.4599999999991269
I39
tp742
a(F9.3499999999985448
I38
tp743
a(F10.609999999998763
I37
tp744
a(F11.779999999998836
I35
tp745
a(F13.419999999998254
I33
tp746
a(F15.75
I31
tp747
a(F17.709999999999127
I29
tp748
a(F19.279999999998836
I27
tp749
a(F21.289999999999054
I25
tp750
a(F25.679999999998472
I24
tp751
a(F29.599999999998545
I22
tp752
a(F32.919999999998254
I20
tp753
aF40.0
tp754
sg96
((lp755
(F1.5
I9
tp756
aF40.149999999999636
tp757
sg130
((lp758
(F5.1099999999987631
I144
tp759
aF40.029999999998836
tp760
ssba(imeasure_core
ProblemSetSolution
p761
(dp762
g3
g199
sg161
g727
sg164
(dp763
g202
((lp764
(F3.3900000000012369
I60
tp765
a(F7.2100000000009459
I55
tp766
a(F29.239999999999782
I44
tp767
a(F35.239999999999782
I32
tp768
aF40.0
tp769
sg250
((lp770
(F12.140000000001237
I171
tp771
aF40.020000000000437
tp772
sg300
((lp773
(F0.92000000000007276
I25
tp774
aF40.040000000000873
tp775
sg344
((lp776
F40.019999999998618
tp777
sg403
((lp778
(F1.4000000000014552
I28
tp779
aF40.010000000000218
tp780
ssba(imeasure_core
ProblemSetSolution
p781
(dp782
g3
g467
sg161
g727
sg164
(dp783
g470
((lp784
F41.020000000000437
tp785
sg520
((lp786
(F12.409999999999854
I13
tp787
aF40.719999999999345
tp788
sg559
((lp789
F40.5
tp790
sg619
((lp791
(F20.920000000000073
I15
tp792
aF40.020000000000437
tp793
sg664
((lp794
F42.280000000000655
tp795
ssba(imeasure_core
ProblemSetSolution
p796
(dp797
g3
g4
sg161
S"AnytimeBeam-w20-gf(8, 'lin')_with_PowerHeuristic2"
p798
sg164
(dp799
g8
((lp800
(F0.46999999999934516
I10
tp801
aF40.059999999999491
tp802
sg44
((lp803
(F0.32999999999992724
I14
tp804
aF40.1299999999992
tp805
sg71
((lp806
(F0.090000000000145519
I49
tp807
a(F0.56000000000130967
I47
tp808
a(F0.76000000000021828
I45
tp809
a(F1.0300000000006548
I43
tp810
a(F2.930000000000291
I41
tp811
a(F3.3500000000003638
I40
tp812
a(F4.3600000000005821
I39
tp813
a(F5.2600000000002183
I38
tp814
a(F6.5300000000006548
I37
tp815
a(F7.7100000000009459
I35
tp816
a(F9.3500000000003638
I33
tp817
a(F11.690000000000509
I31
tp818
a(F13.659999999999854
I29
tp819
a(F15.230000000001382
I27
tp820
a(F17.239999999999782
I25
tp821
a(F21.630000000001019
I24
tp822
a(F25.520000000000437
I22
tp823
a(F28.819999999999709
I20
tp824
aF40.0
tp825
sg96
((lp826
(F1.4899999999997817
I9
tp827
aF40.110000000000582
tp828
sg130
((lp829
(F5.0499999999992724
I144
tp830
aF40.0
tp831
ssba(imeasure_core
ProblemSetSolution
p832
(dp833
g3
g199
sg161
g798
sg164
(dp834
g202
((lp835
(F3.3799999999991996
I60
tp836
a(F7.8400000000001455
I55
tp837
a(F19.850000000000364
I32
tp838
aF40.0
tp839
sg250
((lp840
(F12.039999999999054
I171
tp841
aF40.010000000000218
tp842
sg300
((lp843
(F0.92000000000007276
I25
tp844
aF40.069999999999709
tp845
sg344
((lp846
F40.0
tp847
sg403
((lp848
(F1.3999999999996362
I28
tp849
aF40.069999999999709
tp850
ssba(imeasure_core
ProblemSetSolution
p851
(dp852
g3
g467
sg161
g798
sg164
(dp853
g470
((lp854
F41.1200000000008
tp855
sg520
((lp856
(F12.369999999998981
I13
tp857
aF41.929999999998472
tp858
sg559
((lp859
F40.010000000000218
tp860
sg619
((lp861
(F21.040000000000873
I15
tp862
aF40.159999999999854
tp863
sg664
((lp864
F42.430000000000291
tp865
ssba(imeasure_core
ProblemSetSolution
p866
(dp867
g3
g4
sg161
S"AnytimeBeam-w20-gf(16, 'lin')_with_PowerHeuristic2"
p868
sg164
(dp869
g8
((lp870
(F0.47999999999956344
I10
tp871
aF40.139999999999418
tp872
sg44
((lp873
(F0.32999999999810825
I14
tp874
aF40.149999999997817
tp875
sg71
((lp876
(F0.10000000000218279
I49
tp877
a(F0.30000000000291038
I47
tp878
a(F0.52000000000043656
I45
tp879
a(F0.79000000000087311
I43
tp880
a(F1.5900000000001455
I41
tp881
a(F2.0200000000004366
I40
tp882
a(F3.0300000000024738
I39
tp883
a(F3.9400000000023283
I38
tp884
a(F5.2000000000007276
I37
tp885
a(F6.3700000000026193
I35
tp886
a(F8.0100000000020373
I33
tp887
a(F10.350000000002183
I31
tp888
a(F12.330000000001746
I29
tp889
a(F13.909999999999854
I27
tp890
a(F15.920000000001892
I25
tp891
a(F20.31000000000131
I24
tp892
a(F24.229999999999563
I22
tp893
a(F27.56000000000131
I20
tp894
aF40.0
tp895
sg96
((lp896
(F1.5
I9
tp897
aF40.590000000000146
tp898
sg130
((lp899
(F5.1399999999994179
I144
tp900
aF40.010000000002037
tp901
ssba(imeasure_core
ProblemSetSolution
p902
(dp903
g3
g199
sg161
g868
sg164
(dp904
g202
((lp905
(F3.3799999999973807
I60
tp906
a(F9.2399999999979627
I55
tp907
a(F15.43999999999869
I32
tp908
aF40.020000000000437
tp909
sg250
((lp910
(F12.099999999998545
I171
tp911
aF40.009999999998399
tp912
sg300
((lp913
(F0.90999999999985448
I25
tp914
aF40.139999999999418
tp915
sg344
((lp916
F40.090000000000146
tp917
sg403
((lp918
(F1.4099999999998545
I28
tp919
aF40.270000000000437
tp920
ssba(imeasure_core
ProblemSetSolution
p921
(dp922
g3
g467
sg161
g868
sg164
(dp923
g470
((lp924
F40.920000000001892
tp925
sg520
((lp926
(F12.43999999999869
I13
tp927
aF40.119999999998981
tp928
sg559
((lp929
F40.459999999999127
tp930
sg619
((lp931
(F20.850000000002183
I15
tp932
aF40.81000000000131
tp933
sg664
((lp934
F42.380000000001019
tp935
ssba(imeasure_core
ProblemSetSolution
p936
(dp937
g3
g4
sg161
S"AnytimeBeam-w20-gf(2, 'lin')_with_LinearHeuristic"
p938
sg164
(dp939
g8
((lp940
F40.279999999998836
tp941
sg44
((lp942
F40.170000000001892
tp943
sg71
((lp944
(F0.020000000000436557
I22
tp945
a(F1.3799999999973807
I20
tp946
aF40.0
tp947
sg96
((lp948
(F1.9499999999970896
I6
tp949
aF40.049999999999272
tp950
sg130
((lp951
(F1.1599999999998545
I58
tp952
aF40.020000000000437
tp953
ssba(imeasure_core
ProblemSetSolution
p954
(dp955
g3
g199
sg161
g938
sg164
(dp956
g202
((lp957
F40.020000000000437
tp958
sg250
((lp959
F40.31000000000131
tp960
sg300
((lp961
F40.049999999999272
tp962
sg344
((lp963
F40.139999999999418
tp964
sg403
((lp965
(F15.420000000001892
I146
tp966
aF40.119999999998981
tp967
ssba(imeasure_core
ProblemSetSolution
p968
(dp969
g3
g467
sg161
g938
sg164
(dp970
g470
((lp971
F47.450000000000728
tp972
sg520
((lp973
(F11.430000000000291
I8
tp974
aF41.709999999999127
tp975
sg559
((lp976
F40.30000000000291
tp977
sg619
((lp978
F40.039999999997235
tp979
sg664
((lp980
F45.240000000001601
tp981
ssba(imeasure_core
ProblemSetSolution
p982
(dp983
g3
g4
sg161
S"AnytimeBeam-w20-gf(4, 'lin')_with_LinearHeuristic"
p984
sg164
(dp985
g8
((lp986
F40.420000000001892
tp987
sg44
((lp988
F40.319999999999709
tp989
sg71
((lp990
(F0.020000000000436557
I22
tp991
a(F0.77000000000043656
I20
tp992
aF40.0
tp993
sg96
((lp994
(F1.9199999999982538
I6
tp995
aF40.56000000000131
tp996
sg130
((lp997
(F1.1499999999978172
I58
tp998
aF40.029999999998836
tp999
ssba(imeasure_core
ProblemSetSolution
p1000
(dp1001
g3
g199
sg161
g984
sg164
(dp1002
g202
((lp1003
F40.040000000000873
tp1004
sg250
((lp1005
F40.200000000000728
tp1006
sg300
((lp1007
F40.009999999998399
tp1008
sg344
((lp1009
F40.139999999999418
tp1010
sg403
((lp1011
(F15.640000000003056
I146
tp1012
aF40.040000000000873
tp1013
ssba(imeasure_core
ProblemSetSolution
p1014
(dp1015
g3
g467
sg161
g984
sg164
(dp1016
g470
((lp1017
F47.510000000002037
tp1018
sg520
((lp1019
(F11.489999999997963
I8
tp1020
aF42.0
tp1021
sg559
((lp1022
F40.369999999998981
tp1023
sg619
((lp1024
F40.130000000001019
tp1025
sg664
((lp1026
F45.219999999997526
tp1027
ssba(imeasure_core
ProblemSetSolution
p1028
(dp1029
g3
g4
sg161
S"AnytimeBeam-w20-gf(8, 'lin')_with_LinearHeuristic"
p1030
sg164
(dp1031
g8
((lp1032
F40.290000000000873
tp1033
sg44
((lp1034
F40.25
tp1035
sg71
((lp1036
(F0.019999999996798579
I22
tp1037
a(F0.47999999999956344
I20
tp1038
aF40.0
tp1039
sg96
((lp1040
(F1.9499999999970896
I6
tp1041
aF40.419999999998254
tp1042
sg130
((lp1043
(F1.1500000000014552
I58
tp1044
aF40.0
tp1045
ssba(imeasure_core
ProblemSetSolution
p1046
(dp1047
g3
g199
sg161
g1030
sg164
(dp1048
g202
((lp1049
F40.099999999998545
tp1050
sg250
((lp1051
F40.260000000002037
tp1052
sg300
((lp1053
F40.029999999998836
tp1054
sg344
((lp1055
F40.229999999999563
tp1056
sg403
((lp1057
(F15.409999999999854
I146
tp1058
aF40.110000000000582
tp1059
ssba(imeasure_core
ProblemSetSolution
p1060
(dp1061
g3
g467
sg161
g1030
sg164
(dp1062
g470
((lp1063
F47.659999999999854
tp1064
sg520
((lp1065
(F11.459999999999127
I8
tp1066
aF41.119999999998981
tp1067
sg559
((lp1068
F40.479999999999563
tp1069
sg619
((lp1070
F40.06000000000131
tp1071
sg664
((lp1072
F45.049999999999272
tp1073
ssba(imeasure_core
ProblemSetSolution
p1074
(dp1075
g3
g4
sg161
S"AnytimeBeam-w20-gf(16, 'lin')_with_LinearHeuristic"
p1076
sg164
(dp1077
g8
((lp1078
F40.049999999999272
tp1079
sg44
((lp1080
F40.209999999999127
tp1081
sg71
((lp1082
(F0.020000000000436557
I22
tp1083
a(F0.25
I20
tp1084
aF40.0
tp1085
sg96
((lp1086
(F1.9500000000007276
I6
tp1087
aF40.130000000001019
tp1088
sg130
((lp1089
(F1.1599999999998545
I58
tp1090
aF40.020000000000437
tp1091
ssba(imeasure_core
ProblemSetSolution
p1092
(dp1093
g3
g199
sg161
g1076
sg164
(dp1094
g202
((lp1095
F40.069999999999709
tp1096
sg250
((lp1097
F40.450000000000728
tp1098
sg300
((lp1099
F40.099999999998545
tp1100
sg344
((lp1101
F40.010000000002037
tp1102
sg403
((lp1103
(F15.430000000000291
I146
tp1104
aF40.029999999998836
tp1105
ssba(imeasure_core
ProblemSetSolution
p1106
(dp1107
g3
g467
sg161
g1076
sg164
(dp1108
g470
((lp1109
F47.540000000000873
tp1110
sg520
((lp1111
(F11.469999999997526
I8
tp1112
aF41.270000000000437
tp1113
sg559
((lp1114
F40.399999999997817
tp1115
sg619
((lp1116
F40.040000000000873
tp1117
sg664
((lp1118
F45.409999999999854
tp1119
ssba.