(lp0
(imeasure_core
ProblemSetSolution
p1
(dp2
S'roomset'
p3
(imeasure_core
RoomSet
p4
(dp5
S'rooms'
p6
(dp7
(iproblems
RoomID
p8
(dp9
S'dusts'
p10
I8
sS'obstacles'
p11
(I4
I5
tp12
sS'robots'
p13
I2
sS'height'
p14
I8
sS'width'
p15
I9
sS'seed'
p16
I2699102171034145053
sb(imulti_robot_problem
MultiRobotState
p17
(dp18
S'obstacle_locations'
p19
c__builtin__
frozenset
p20
((lp21
(I6
I3
tp22
a(I4
I7
tp23
a(I2
I6
tp24
ag12
a(I4
I4
tp25
a(I7
I4
tp26
a(I2
I3
tp27
a(I4
I3
tp28
a(I3
I5
tp29
atp30
Rp31
sg15
I9
sS'dirt_locations'
p32
g20
((lp33
(I2
I7
tp34
a(I8
I3
tp35
a(I6
I6
tp36
a(I8
I1
tp37
a(I8
I0
tp38
a(I6
I2
tp39
a(I0
I4
tp40
a(I8
I6
tp41
atp42
Rp43
sg13
((I5
I2
tp44
(I2
I4
tp45
tp46
sg14
I8
sbs(iproblems
RoomID
p47
(dp48
g10
I6
sg11
(I0
I5
tp49
sg13
I2
sg14
I9
sg15
I9
sg16
I109763967090291015
sb(imulti_robot_problem
MultiRobotState
p50
(dp51
g19
g20
((lp52
(I2
I6
tp53
a(I1
I3
tp54
ag49
a(I0
I4
tp55
a(I0
I3
tp56
a(I4
I1
tp57
atp58
Rp59
sg15
I9
sg32
g20
((lp60
(I7
I4
tp61
a(I3
I6
tp62
a(I5
I0
tp63
a(I8
I6
tp64
a(I0
I8
tp65
a(I2
I4
tp66
atp67
Rp68
sg13
((I4
I5
tp69
(I3
I2
tp70
tp71
sg14
I9
sbs(iproblems
RoomID
p72
(dp73
g10
I9
sg11
(I4
I4
tp74
sg13
I3
sg14
I8
sg15
I8
sg16
I6785894123770846840
sb(imulti_robot_problem
MultiRobotState
p75
(dp76
g19
g20
((lp77
(I4
I5
tp78
a(I7
I3
tp79
a(I5
I4
tp80
ag74
a(I6
I4
tp81
atp82
Rp83
sg15
I8
sg32
g20
((lp84
(I5
I7
tp85
a(I6
I7
tp86
a(I3
I3
tp87
a(I5
I2
tp88
a(I6
I1
tp89
a(I3
I1
tp90
a(I2
I1
tp91
a(I1
I7
tp92
a(I4
I1
tp93
atp94
Rp95
sg13
((I2
I2
tp96
(I3
I5
tp97
(I2
I6
tp98
tp99
sg14
I8
sbs(iproblems
RoomID
p100
(dp101
g10
I10
sg11
(I4
I2
tp102
sg13
I1
sg14
I9
sg15
I9
sg16
I9040475713583525309
sb(imulti_robot_problem
MultiRobotState
p103
(dp104
g19
g20
((lp105
(I6
I4
tp106
a(I8
I2
tp107
ag102
a(I3
I1
tp108
a(I4
I1
tp109
a(I4
I0
tp110
atp111
Rp112
sg15
I9
sg32
g20
((lp113
(I1
I2
tp114
a(I0
I0
tp115
a(I8
I1
tp116
a(I2
I8
tp117
a(I8
I0
tp118
a(I1
I4
tp119
a(I0
I7
tp120
a(I0
I8
tp121
a(I2
I4
tp122
a(I7
I2
tp123
atp124
Rp125
sg13
((I5
I5
tp126
tp127
sg14
I9
sbs(iproblems
RoomID
p128
(dp129
g10
I7
sg11
(I6
I2
tp130
sg13
I4
sg14
I9
sg15
I9
sg16
I1641984006475978964
sb(imulti_robot_problem
MultiRobotState
p131
(dp132
g19
g20
((lp133
(I4
I2
tp134
ag130
a(I3
I1
tp135
a(I5
I2
tp136
atp137
Rp138
sg15
I9
sg32
g20
((lp139
(I1
I2
tp140
a(I7
I0
tp141
a(I1
I4
tp142
a(I4
I8
tp143
a(I8
I6
tp144
a(I0
I3
tp145
a(I0
I7
tp146
atp147
Rp148
sg13
((I5
I6
tp149
(I5
I3
tp150
(I0
I2
tp151
(I8
I3
tp152
tp153
sg14
I9
sbssS'name'
p154
S'easy_roomset'
p155
sbsg154
S'LimitedTimeAStar_with_PowerHeuristic2'
p156
sS'solutions'
p157
(dp158
g8
((lp159
(F0.059999999999999998
I18
tp160
aF0.059999999999999998
tp161
sg47
((lp162
(F141.59999999999999
I18
tp163
aF141.64000000000001
tp164
sg100
((lp165
F0.18999999999999773
tp166
sg72
((lp167
(F0.090000000000003411
I10
tp168
aF0.090000000000003411
tp169
sg128
((lp170
F300.44
tp171
ssba(imeasure_core
ProblemSetSolution
p172
(dp173
g3
(imeasure_core
RoomSet
p174
(dp175
g6
(dp176
(iproblems
RoomID
p177
(dp178
g10
I8
sg11
(I4
I7
tp179
sg13
I3
sg14
I10
sg15
I11
sg16
I2699102171034145053
sb(imulti_robot_problem
MultiRobotState
p180
(dp181
g19
g20
((lp182
(I5
I9
tp183
ag179
a(I4
I6
tp184
a(I5
I0
tp185
a(I4
I8
tp186
a(I5
I6
tp187
a(I7
I7
tp188
a(I2
I1
tp189
a(I8
I9
tp190
a(I3
I9
tp191
a(I8
I7
tp192
a(I5
I4
tp193
a(I6
I7
tp194
a(I0
I8
tp195
a(I5
I8
tp196
a(I6
I8
tp197
a(I3
I8
tp198
a(I4
I9
tp199
a(I5
I5
tp200
a(I7
I6
tp201
a(I5
I7
tp202
a(I9
I9
tp203
a(I7
I4
tp204
a(I4
I5
tp205
a(I3
I6
tp206
a(I1
I7
tp207
a(I0
I9
tp208
atp209
Rp210
sg15
I11
sg32
g20
((lp211
(I8
I3
tp212
a(I10
I4
tp213
a(I8
I8
tp214
a(I0
I5
tp215
a(I10
I1
tp216
a(I3
I7
tp217
a(I9
I5
tp218
a(I3
I4
tp219
atp220
Rp221
sg13
((I6
I3
tp222
(I2
I5
tp223
(I9
I7
tp224
tp225
sg14
I10
sbs(iproblems
RoomID
p226
(dp227
g10
I6
sg11
(I1
I10
tp228
sg13
I3
sg14
I11
sg15
I11
sg16
I109763967090291015
sb(imulti_robot_problem
MultiRobotState
p229
(dp230
g19
g20
((lp231
(I4
I10
tp232
a(I4
I7
tp233
a(I2
I8
tp234
a(I0
I7
tp235
a(I7
I5
tp236
a(I0
I5
tp237
a(I1
I4
tp238
a(I5
I8
tp239
a(I5
I3
tp240
a(I9
I0
tp241
a(I6
I7
tp242
a(I6
I8
tp243
a(I2
I9
tp244
a(I0
I6
tp245
a(I7
I6
tp246
a(I3
I1
tp247
a(I3
I8
tp248
a(I1
I5
tp249
a(I1
I8
tp250
a(I3
I9
tp251
a(I7
I10
tp252
ag228
a(I5
I2
tp253
a(I10
I9
tp254
a(I9
I7
tp255
atp256
Rp257
sg15
I11
sg32
g20
((lp258
(I10
I8
tp259
a(I4
I8
tp260
a(I3
I7
tp261
a(I6
I1
tp262
a(I8
I5
tp263
a(I2
I5
tp264
atp265
Rp266
sg13
((I5
I7
tp267
(I3
I2
tp268
(I4
I3
tp269
tp270
sg14
I11
sbs(iproblems
RoomID
p271
(dp272
g10
I7
sg11
(I4
I0
tp273
sg13
I4
sg14
I11
sg15
I11
sg16
I1641984006475978964
sb(imulti_robot_problem
MultiRobotState
p274
(dp275
g19
g20
((lp276
(I7
I3
tp277
a(I6
I6
tp278
a(I5
I6
tp279
a(I0
I7
tp280
a(I6
I2
tp281
a(I4
I2
tp282
a(I5
I1
tp283
a(I6
I4
tp284
a(I7
I2
tp285
ag273
a(I7
I4
tp286
a(I6
I7
tp287
a(I5
I5
tp288
a(I5
I2
tp289
a(I7
I6
tp290
a(I5
I7
tp291
a(I8
I10
tp292
a(I6
I3
tp293
a(I2
I0
tp294
a(I7
I5
tp295
a(I6
I5
tp296
a(I3
I6
tp297
a(I3
I9
tp298
a(I5
I3
tp299
a(I4
I1
tp300
atp301
Rp302
sg15
I11
sg32
g20
((lp303
(I4
I10
tp304
a(I1
I8
tp305
a(I0
I5
tp306
a(I9
I1
tp307
a(I0
I4
tp308
a(I6
I10
tp309
a(I9
I7
tp310
atp311
Rp312
sg13
((I0
I2
tp313
(I9
I4
tp314
(I1
I5
tp315
(I1
I2
tp316
tp317
sg14
I11
sbs(iproblems
RoomID
p318
(dp319
g10
I10
sg11
(I6
I1
tp320
sg13
I3
sg14
I11
sg15
I11
sg16
I9040475713583525309
sb(imulti_robot_problem
MultiRobotState
p321
(dp322
g19
g20
((lp323
(I9
I1
tp324
a(I7
I1
tp325
a(I9
I0
tp326
a(I6
I2
tp327
a(I5
I1
tp328
a(I0
I3
tp329
a(I0
I8
tp330
a(I7
I2
tp331
a(I8
I2
tp332
a(I8
I3
tp333
a(I7
I0
tp334
a(I6
I8
tp335
a(I8
I1
tp336
a(I4
I1
tp337
ag320
a(I3
I8
tp338
a(I1
I5
tp339
a(I5
I0
tp340
a(I10
I0
tp341
a(I5
I2
tp342
atp343
Rp344
sg15
I11
sg32
g20
((lp345
(I2
I6
tp346
a(I9
I2
tp347
a(I3
I10
tp348
a(I9
I3
tp349
a(I0
I0
tp350
a(I7
I5
tp351
a(I0
I10
tp352
a(I10
I1
tp353
a(I1
I3
tp354
a(I4
I2
tp355
atp356
Rp357
sg13
((I6
I7
tp358
(I1
I9
tp359
(I2
I5
tp360
tp361
sg14
I11
sbs(iproblems
RoomID
p362
(dp363
g10
I8
sg11
(I2
I6
tp364
sg13
I4
sg14
I12
sg15
I9
sg16
I4335166382476175555
sb(imulti_robot_problem
MultiRobotState
p365
(dp366
g19
g20
((lp367
(I4
I7
tp368
a(I1
I3
tp369
a(I1
I4
tp370
a(I5
I6
tp371
a(I2
I8
tp372
a(I0
I4
tp373
a(I7
I7
tp374
a(I2
I1
tp375
a(I4
I6
tp376
ag364
a(I2
I3
tp377
a(I0
I10
tp378
a(I8
I7
tp379
a(I3
I7
tp380
a(I2
I5
tp381
a(I7
I9
tp382
a(I2
I7
tp383
a(I3
I1
tp384
a(I5
I5
tp385
a(I0
I6
tp386
a(I5
I7
tp387
a(I1
I7
tp388
a(I1
I5
tp389
a(I1
I8
tp390
a(I2
I2
tp391
a(I1
I10
tp392
a(I3
I5
tp393
a(I3
I4
tp394
a(I1
I9
tp395
atp396
Rp397
sg15
I9
sg32
g20
((lp398
(I6
I9
tp399
a(I6
I7
tp400
a(I6
I8
tp401
a(I3
I0
tp402
a(I0
I11
tp403
a(I6
I5
tp404
a(I8
I5
tp405
a(I5
I8
tp406
atp407
Rp408
sg13
((I6
I11
tp409
(I4
I2
tp410
(I8
I3
tp411
(I0
I8
tp412
tp413
sg14
I12
sbssg154
S'mild_roomset'
p414
sbsg154
g156
sg157
(dp415
g177
((lp416
F300.14999999999998
tp417
sg226
((lp418
F300.18999999999994
tp419
sg271
((lp420
F300.71000000000004
tp421
sg318
((lp422
F300.23000000000002
tp423
sg362
((lp424
F300.58999999999992
tp425
ssba(imeasure_core
ProblemSetSolution
p426
(dp427
g3
(imeasure_core
RoomSet
p428
(dp429
g6
(dp430
(iproblems
RoomID
p431
(dp432
g10
I13
sg11
(I4
I9
tp433
sg13
I5
sg14
I11
sg15
I12
sg16
I2699102171034145053
sb(imulti_robot_problem
MultiRobotState
p434
(dp435
g19
g20
((lp436
(I7
I3
tp437
a(I5
I7
tp438
a(I5
I10
tp439
a(I6
I6
tp440
a(I6
I0
tp441
a(I2
I1
tp442
a(I9
I10
tp443
a(I6
I2
tp444
a(I0
I5
tp445
a(I4
I2
tp446
ag433
a(I6
I5
tp447
a(I5
I3
tp448
a(I10
I5
tp449
a(I6
I7
tp450
a(I2
I9
tp451
a(I10
I10
tp452
a(I7
I1
tp453
a(I3
I8
tp454
a(I1
I8
tp455
a(I8
I6
tp456
a(I1
I1
tp457
atp458
Rp459
sg15
I12
sg32
g20
((lp460
(I6
I10
tp461
a(I11
I5
tp462
a(I9
I8
tp463
a(I9
I3
tp464
a(I10
I6
tp465
a(I9
I9
tp466
a(I3
I9
tp467
a(I0
I10
tp468
a(I1
I7
tp469
a(I0
I9
tp470
a(I8
I4
tp471
a(I7
I6
tp472
a(I3
I5
tp473
atp474
Rp475
sg13
((I6
I3
tp476
(I3
I6
tp477
(I10
I8
tp478
(I1
I5
tp479
(I11
I1
tp480
tp481
sg14
I11
sbs(iproblems
RoomID
p482
(dp483
g10
I11
sg11
(I1
I8
tp484
sg13
I6
sg14
I12
sg15
I12
sg16
I109763967090291015
sb(imulti_robot_problem
MultiRobotState
p485
(dp486
g19
g20
((lp487
(I1
I2
tp488
a(I8
I3
tp489
a(I1
I5
tp490
a(I3
I0
tp491
a(I11
I2
tp492
a(I9
I0
tp493
a(I0
I7
tp494
a(I0
I6
tp495
ag484
a(I0
I5
tp496
a(I1
I4
tp497
a(I11
I10
tp498
a(I3
I7
tp499
atp500
Rp501
sg15
I12
sg32
g20
((lp502
(I3
I2
tp503
a(I3
I1
tp504
a(I3
I8
tp505
a(I3
I9
tp506
a(I7
I11
tp507
a(I6
I2
tp508
a(I10
I0
tp509
a(I2
I5
tp510
a(I5
I3
tp511
a(I9
I6
tp512
a(I9
I7
tp513
atp514
Rp515
sg13
((I6
I7
tp516
(I4
I3
tp517
(I7
I1
tp518
(I4
I9
tp519
(I1
I11
tp520
(I11
I9
tp521
tp522
sg14
I12
sbs(iproblems
RoomID
p523
(dp524
g10
I12
sg11
(I5
I6
tp525
sg13
I6
sg14
I12
sg15
I12
sg16
I1641984006475978964
sb(imulti_robot_problem
MultiRobotState
p526
(dp527
g19
g20
((lp528
(I7
I3
tp529
a(I4
I7
tp530
a(I6
I3
tp531
a(I6
I6
tp532
ag525
a(I0
I7
tp533
a(I7
I4
tp534
a(I9
I11
tp535
a(I4
I2
tp536
a(I7
I11
tp537
a(I6
I5
tp538
a(I5
I3
tp539
atp540
Rp541
sg15
I12
sg32
g20
((lp542
(I10
I8
tp543
a(I8
I3
tp544
a(I2
I6
tp545
a(I6
I8
tp546
a(I0
I6
tp547
a(I3
I0
tp548
a(I3
I10
tp549
a(I1
I5
tp550
a(I0
I5
tp551
a(I1
I9
tp552
a(I10
I1
tp553
a(I4
I11
tp554
atp555
Rp556
sg13
((I7
I8
tp557
(I0
I2
tp558
(I10
I4
tp559
(I2
I5
tp560
(I1
I2
tp561
(I6
I11
tp562
tp563
sg14
I12
sbs(iproblems
RoomID
p564
(dp565
g10
I14
sg11
(I1
I7
tp566
sg13
I6
sg14
I11
sg15
I11
sg16
I6785894123770846840
sb(imulti_robot_problem
MultiRobotState
p567
(dp568
g19
g20
((lp569
(I7
I3
tp570
a(I2
I6
tp571
a(I6
I6
tp572
a(I3
I0
tp573
a(I3
I9
tp574
a(I2
I3
tp575
a(I9
I5
tp576
a(I2
I5
tp577
a(I8
I5
tp578
a(I3
I5
tp579
a(I1
I2
tp580
a(I3
I3
tp581
a(I5
I2
tp582
a(I7
I6
tp583
a(I6
I2
tp584
ag566
a(I8
I6
tp585
a(I4
I1
tp586
atp587
Rp588
sg15
I11
sg32
g20
((lp589
(I9
I10
tp590
a(I9
I2
tp591
a(I6
I1
tp592
a(I3
I1
tp593
a(I7
I7
tp594
a(I6
I0
tp595
a(I6
I3
tp596
a(I0
I6
tp597
a(I7
I10
tp598
a(I5
I1
tp599
a(I4
I2
tp600
a(I0
I3
tp601
a(I7
I8
tp602
a(I7
I9
tp603
atp604
Rp605
sg13
((I3
I4
tp606
(I5
I8
tp607
(I2
I8
tp608
(I2
I9
tp609
(I5
I4
tp610
(I5
I6
tp611
tp612
sg14
I11
sbs(iproblems
RoomID
p613
(dp614
g10
I15
sg11
(I5
I2
tp615
sg13
I5
sg14
I12
sg15
I12
sg16
I9040475713583525309
sb(imulti_robot_problem
MultiRobotState
p616
(dp617
g19
g20
((lp618
(I6
I8
tp619
a(I9
I2
tp620
a(I4
I1
tp621
a(I9
I8
tp622
a(I0
I2
tp623
a(I3
I0
tp624
a(I5
I0
tp625
a(I2
I4
tp626
a(I5
I1
tp627
ag615
a(I1
I1
tp628
atp629
Rp630
sg15
I12
sg32
g20
((lp631
(I0
I0
tp632
a(I9
I1
tp633
a(I10
I3
tp634
a(I3
I11
tp635
a(I11
I0
tp636
a(I0
I9
tp637
a(I3
I9
tp638
a(I1
I6
tp639
a(I8
I6
tp640
a(I11
I1
tp641
a(I2
I3
tp642
a(I0
I3
tp643
a(I5
I3
tp644
a(I7
I8
tp645
a(I10
I2
tp646
atp647
Rp648
sg13
((I6
I7
tp649
(I1
I10
tp650
(I2
I5
tp651
(I0
I11
tp652
(I2
I6
tp653
tp654
sg14
I12
sbssg154
S'heavy_roomset'
p655
sbsg154
g156
sg157
(dp656
g431
((lp657
F300.41000000000031
tp658
sg482
((lp659
F301.19999999999982
tp660
sg523
((lp661
F301.55000000000018
tp662
sg564
((lp663
F301.17999999999984
tp664
sg613
((lp665
F300.76999999999998
tp666
ssba.