(lp0
(imeasure_core
ProblemSetSolution
p1
(dp2
S'roomset'
p3
(imeasure_core
RoomSet
p4
(dp5
S'rooms'
p6
(dp7
(iproblems
RoomID
p8
(dp9
S'dusts'
p10
I8
sS'obstacles'
p11
(I2
I8
tp12
sS'robots'
p13
I4
sS'height'
p14
I10
sS'width'
p15
I7
sS'seed'
p16
I7106521602475165645
sb(imulti_robot_problem
MultiRobotState
p17
(dp18
S'obstacle_locations'
p19
c__builtin__
frozenset
p20
((lp21
(I3
I8
tp22
a(I5
I9
tp23
a(I4
I9
tp24
ag12
a(I5
I2
tp25
a(I5
I8
tp26
atp27
Rp28
sg15
I7
sS'dirt_locations'
p29
g20
((lp30
(I1
I2
tp31
a(I2
I7
tp32
a(I0
I0
tp33
a(I3
I1
tp34
a(I6
I0
tp35
a(I2
I1
tp36
a(I2
I3
tp37
a(I2
I5
tp38
atp39
Rp40
sg13
((I0
I8
tp41
(I4
I5
tp42
(I3
I9
tp43
(I1
I8
tp44
tp45
sg14
I10
sbs(iproblems
RoomID
p46
(dp47
g10
I10
sg11
(I3
I3
tp48
sg13
I4
sg14
I10
sg15
I8
sg16
I746805015404516437
sb(imulti_robot_problem
MultiRobotState
p49
(dp50
g19
g20
((lp51
(I7
I4
tp52
ag48
a(I4
I2
tp53
a(I6
I1
tp54
a(I3
I1
tp55
a(I4
I1
tp56
a(I1
I4
tp57
atp58
Rp59
sg15
I8
sg29
g20
((lp60
(I4
I6
tp61
a(I6
I3
tp62
a(I2
I0
tp63
a(I3
I9
tp64
a(I2
I3
tp65
a(I3
I6
tp66
a(I5
I1
tp67
a(I1
I0
tp68
a(I0
I8
tp69
a(I5
I8
tp70
atp71
Rp72
sg13
((I3
I8
tp73
(I4
I8
tp74
(I4
I9
tp75
(I0
I3
tp76
tp77
sg14
I10
sbs(iproblems
RoomID
p78
(dp79
g10
I6
sg11
(I7
I4
tp80
sg13
I2
sg14
I7
sg15
I9
sg16
I4029557120079369747
sb(imulti_robot_problem
MultiRobotState
p81
(dp82
g19
g20
((lp83
g80
a(I7
I5
tp84
a(I4
I1
tp85
a(I6
I1
tp86
a(I8
I5
tp87
a(I8
I4
tp88
atp89
Rp90
sg15
I9
sg29
g20
((lp91
(I2
I6
tp92
a(I6
I6
tp93
a(I3
I0
tp94
a(I2
I5
tp95
a(I1
I1
tp96
a(I5
I3
tp97
atp98
Rp99
sg13
((I6
I0
tp100
(I3
I1
tp101
tp102
sg14
I7
sbs(iproblems
RoomID
p103
(dp104
g10
I5
sg11
(I4
I5
tp105
sg13
I1
sg14
I9
sg15
I8
sg16
I6604845167042249220
sb(imulti_robot_problem
MultiRobotState
p106
(dp107
g19
g20
((lp108
(I7
I4
tp109
ag105
a(I5
I4
tp110
a(I6
I1
tp111
a(I6
I5
tp112
atp113
Rp114
sg15
I8
sg29
g20
((lp115
(I2
I8
tp116
a(I1
I0
tp117
a(I1
I1
tp118
a(I4
I3
tp119
a(I4
I8
tp120
atp121
Rp122
sg13
((I3
I6
tp123
tp124
sg14
I9
sbs(iproblems
RoomID
p125
(dp126
g10
I9
sg11
(I7
I6
tp127
sg13
I5
sg14
I9
sg15
I9
sg16
I8963783824838420066
sb(imulti_robot_problem
MultiRobotState
p128
(dp129
g19
g20
((lp130
(I2
I7
tp131
a(I5
I5
tp132
a(I6
I6
tp133
ag127
a(I4
I4
tp134
a(I7
I1
tp135
a(I7
I5
tp136
a(I2
I2
tp137
a(I6
I5
tp138
atp139
Rp140
sg15
I9
sg29
g20
((lp141
(I3
I0
tp142
a(I2
I1
tp143
a(I6
I3
tp144
a(I0
I7
tp145
a(I3
I7
tp146
a(I8
I6
tp147
a(I0
I8
tp148
a(I8
I5
tp149
a(I7
I2
tp150
atp151
Rp152
sg13
((I7
I7
tp153
(I2
I4
tp154
(I3
I2
tp155
(I4
I7
tp156
(I5
I0
tp157
tp158
sg14
I9
sbssS'name'
p159
S'easy_roomset'
p160
sbsg159
S"AnytimeBeam-w20-gf(1.3, 'exp')_with_PowerHeuristic2"
p161
sS'solutions'
p162
(dp163
g8
((lp164
(F0.59000000000000008
I15
tp165
aF40.200000000000003
tp166
sg46
((lp167
(F1.759999999999998
I20
tp168
aF40.019999999999996
tp169
sg78
((lp170
(F0.090000000000003411
I18
tp171
aF40.010000000000005
tp172
sg103
((lp173
(F0.069999999999993179
I35
tp174
a(F2.3599999999999994
I33
tp175
a(F3.2399999999999949
I30
tp176
a(F3.9399999999999977
I26
tp177
a(F4.730000000000004
I25
tp178
a(F5.5
I23
tp179
a(F6.25
I21
tp180
a(F7.5900000000000034
I20
tp181
a(F8.8199999999999932
I18
tp182
aF40.0
tp183
sg125
((lp184
(F1.3000000000000114
I7
tp185
aF40.109999999999985
tp186
ssba(imeasure_core
ProblemSetSolution
p187
(dp188
g3
(imeasure_core
RoomSet
p189
(dp190
g6
(dp191
(iproblems
RoomID
p192
(dp193
g10
I6
sg11
(I5
I8
tp194
sg13
I3
sg14
I9
sg15
I11
sg16
I4029557120079369747
sb(imulti_robot_problem
MultiRobotState
p195
(dp196
g19
g20
((lp197
(I7
I3
tp198
a(I1
I3
tp199
a(I4
I8
tp200
a(I10
I6
tp201
a(I7
I1
tp202
a(I1
I4
tp203
a(I3
I7
tp204
a(I5
I1
tp205
a(I2
I5
tp206
a(I8
I5
tp207
ag194
a(I10
I5
tp208
a(I4
I6
tp209
a(I10
I7
tp210
a(I9
I6
tp211
a(I6
I1
tp212
a(I4
I4
tp213
a(I6
I3
tp214
a(I3
I6
tp215
a(I1
I7
tp216
a(I9
I5
tp217
a(I2
I4
tp218
a(I8
I4
tp219
atp220
Rp221
sg15
I11
sg29
g20
((lp222
(I3
I8
tp223
a(I8
I8
tp224
a(I7
I2
tp225
a(I5
I2
tp226
a(I1
I1
tp227
a(I2
I1
tp228
atp229
Rp230
sg13
((I8
I0
tp231
(I3
I1
tp232
(I4
I0
tp233
tp234
sg14
I9
sbs(iproblems
RoomID
p235
(dp236
g10
I10
sg11
(I4
I4
tp237
sg13
I4
sg14
I12
sg15
I12
sg16
I2569146471088859254
sb(imulti_robot_problem
MultiRobotState
p238
(dp239
g19
g20
((lp240
(I5
I4
tp241
a(I4
I8
tp242
a(I4
I5
tp243
a(I11
I2
tp244
a(I4
I7
tp245
a(I1
I9
tp246
a(I10
I3
tp247
a(I5
I8
tp248
a(I5
I5
tp249
a(I3
I3
tp250
ag237
a(I2
I11
tp251
a(I5
I6
tp252
a(I7
I2
tp253
a(I4
I3
tp254
a(I2
I2
tp255
a(I10
I0
tp256
a(I5
I11
tp257
a(I1
I1
tp258
atp259
Rp260
sg15
I12
sg29
g20
((lp261
(I2
I7
tp262
a(I10
I10
tp263
a(I3
I0
tp264
a(I3
I11
tp265
a(I0
I2
tp266
a(I1
I5
tp267
a(I9
I4
tp268
a(I0
I8
tp269
a(I2
I4
tp270
a(I11
I6
tp271
atp272
Rp273
sg13
((I9
I11
tp274
(I7
I10
tp275
(I6
I0
tp276
(I10
I1
tp277
tp278
sg14
I12
sbs(iproblems
RoomID
p279
(dp280
g10
I7
sg11
(I5
I4
tp281
sg13
I3
sg14
I11
sg15
I12
sg16
I2577854692418029171
sb(imulti_robot_problem
MultiRobotState
p282
(dp283
g19
g20
((lp284
(I4
I7
tp285
a(I3
I0
tp286
a(I8
I0
tp287
a(I2
I1
tp288
a(I6
I2
tp289
a(I1
I6
tp290
a(I5
I1
tp291
a(I4
I0
tp292
a(I1
I2
tp293
a(I4
I9
tp294
a(I3
I3
tp295
a(I8
I1
tp296
a(I3
I10
tp297
a(I6
I3
tp298
a(I3
I6
tp299
a(I1
I10
tp300
a(I8
I6
tp301
a(I3
I5
tp302
ag281
a(I2
I6
tp303
a(I7
I1
tp304
a(I6
I0
tp305
a(I1
I9
tp306
a(I4
I2
tp307
a(I0
I8
tp308
a(I5
I3
tp309
a(I0
I1
tp310
a(I7
I0
tp311
a(I5
I2
tp312
a(I6
I1
tp313
a(I3
I1
tp314
a(I3
I8
tp315
a(I3
I4
tp316
a(I2
I4
tp317
atp318
Rp319
sg15
I12
sg29
g20
((lp320
(I4
I10
tp321
a(I10
I5
tp322
a(I10
I1
tp323
a(I2
I8
tp324
a(I7
I6
tp325
a(I4
I4
tp326
a(I9
I7
tp327
atp328
Rp329
sg13
((I10
I6
tp330
(I1
I4
tp331
(I11
I8
tp332
tp333
sg14
I11
sbs(iproblems
RoomID
p334
(dp335
g10
I6
sg11
(I4
I5
tp336
sg13
I3
sg14
I12
sg15
I12
sg16
I1360307757430227195
sb(imulti_robot_problem
MultiRobotState
p337
(dp338
g19
g20
((lp339
(I6
I4
tp340
a(I3
I2
tp341
a(I10
I4
tp342
a(I3
I0
tp343
a(I5
I4
tp344
a(I7
I5
tp345
a(I5
I1
tp346
a(I8
I5
tp347
a(I6
I5
tp348
a(I4
I0
tp349
a(I7
I4
tp350
a(I8
I3
tp351
a(I6
I7
tp352
a(I5
I5
tp353
a(I8
I10
tp354
a(I6
I3
tp355
a(I5
I6
tp356
a(I6
I2
tp357
ag336
a(I9
I5
tp358
a(I5
I3
tp359
atp360
Rp361
sg15
I12
sg29
g20
((lp362
(I3
I3
tp363
a(I4
I3
tp364
a(I9
I2
tp365
a(I5
I7
tp366
a(I0
I2
tp367
a(I11
I6
tp368
atp369
Rp370
sg13
((I11
I11
tp371
(I1
I3
tp372
(I0
I1
tp373
tp374
sg14
I12
sbs(iproblems
RoomID
p375
(dp376
g10
I6
sg11
(I2
I4
tp377
sg13
I3
sg14
I10
sg15
I10
sg16
I1821862095355237593
sb(imulti_robot_problem
MultiRobotState
p378
(dp379
g19
g20
((lp380
(I6
I4
tp381
a(I4
I7
tp382
a(I2
I6
tp383
a(I5
I6
tp384
a(I6
I0
tp385
a(I1
I9
tp386
a(I8
I5
tp387
a(I7
I2
tp388
a(I7
I9
tp389
a(I5
I3
tp390
a(I6
I7
tp391
a(I3
I3
tp392
a(I5
I5
tp393
a(I4
I4
tp394
a(I6
I3
tp395
a(I4
I5
tp396
a(I6
I5
tp397
a(I4
I3
tp398
a(I0
I4
tp399
a(I8
I6
tp400
a(I3
I5
tp401
a(I3
I4
tp402
ag377
atp403
Rp404
sg15
I10
sg29
g20
((lp405
(I0
I6
tp406
a(I7
I0
tp407
a(I5
I1
tp408
a(I2
I3
tp409
a(I2
I8
tp410
a(I9
I6
tp411
atp412
Rp413
sg13
((I2
I2
tp414
(I4
I2
tp415
(I0
I7
tp416
tp417
sg14
I10
sbssg159
S'mild_roomset'
p418
sbsg159
g161
sg162
(dp419
g192
((lp420
(F0.15000000000000568
I15
tp421
aF40.0
tp422
sg235
((lp423
(F5.1999999999999886
I122
tp424
aF40.529999999999973
tp425
sg279
((lp426
(F0.53000000000002956
I34
tp427
a(F2.6000000000000227
I29
tp428
aF40.03000000000003
tp429
sg375
((lp430
(F0.14999999999997726
I13
tp431
aF40.060000000000002
tp432
sg334
((lp433
F40.120000000000005
tp434
ssba(imeasure_core
ProblemSetSolution
p435
(dp436
g3
(imeasure_core
RoomSet
p437
(dp438
g6
(dp439
(iproblems
RoomID
p440
(dp441
g10
I13
sg11
(I5
I3
tp442
sg13
I6
sg14
I13
sg15
I10
sg16
I7106521602475165645
sb(imulti_robot_problem
MultiRobotState
p443
(dp444
g19
g20
((lp445
(I5
I6
tp446
a(I5
I11
tp447
a(I7
I12
tp448
a(I0
I12
tp449
a(I2
I3
tp450
a(I6
I12
tp451
a(I7
I2
tp452
ag442
a(I1
I2
tp453
a(I4
I5
tp454
a(I8
I12
tp455
a(I7
I1
tp456
a(I2
I11
tp457
a(I6
I3
tp458
a(I6
I11
tp459
a(I0
I4
tp460
a(I0
I9
tp461
a(I0
I5
tp462
a(I3
I4
tp463
atp464
Rp465
sg15
I10
sg29
g20
((lp466
(I0
I1
tp467
a(I8
I3
tp468
a(I4
I6
tp469
a(I7
I11
tp470
a(I6
I9
tp471
a(I0
I11
tp472
a(I3
I9
tp473
a(I2
I12
tp474
a(I8
I6
tp475
a(I5
I1
tp476
a(I3
I7
tp477
a(I0
I3
tp478
a(I3
I5
tp479
atp480
Rp481
sg13
((I0
I10
tp482
(I6
I7
tp483
(I4
I11
tp484
(I1
I11
tp485
(I9
I0
tp486
(I3
I1
tp487
tp488
sg14
I13
sbs(iproblems
RoomID
p489
(dp490
g10
I15
sg11
(I9
I4
tp491
sg13
I6
sg14
I13
sg15
I11
sg16
I746805015404516437
sb(imulti_robot_problem
MultiRobotState
p492
(dp493
g19
g20
((lp494
(I8
I0
tp495
a(I4
I8
tp496
a(I4
I5
tp497
a(I10
I6
tp498
a(I6
I0
tp499
a(I3
I5
tp500
a(I3
I9
tp501
ag491
a(I4
I2
tp502
a(I7
I2
tp503
a(I7
I9
tp504
a(I10
I5
tp505
a(I5
I5
tp506
a(I4
I4
tp507
a(I1
I8
tp508
a(I8
I6
tp509
a(I5
I3
tp510
a(I5
I2
tp511
a(I2
I4
tp512
a(I9
I7
tp513
atp514
Rp515
sg15
I11
sg29
g20
((lp516
(I3
I12
tp517
a(I9
I1
tp518
a(I7
I1
tp519
a(I8
I1
tp520
a(I6
I10
tp521
a(I8
I9
tp522
a(I2
I0
tp523
a(I2
I3
tp524
a(I0
I10
tp525
a(I2
I2
tp526
a(I7
I11
tp527
a(I2
I5
tp528
a(I8
I5
tp529
a(I5
I8
tp530
a(I4
I11
tp531
atp532
Rp533
sg13
((I4
I10
tp534
(I6
I11
tp535
(I5
I12
tp536
(I0
I5
tp537
(I1
I0
tp538
(I7
I10
tp539
tp540
sg14
I13
sbs(iproblems
RoomID
p541
(dp542
g10
I11
sg11
(I9
I6
tp543
sg13
I6
sg14
I10
sg15
I12
sg16
I4029557120079369747
sb(imulti_robot_problem
MultiRobotState
p544
(dp545
g19
g20
((lp546
(I11
I7
tp547
a(I10
I6
tp548
a(I5
I5
tp549
a(I7
I1
tp550
a(I10
I7
tp551
a(I9
I8
tp552
a(I4
I4
tp553
a(I1
I6
tp554
a(I3
I6
tp555
a(I1
I7
tp556
ag543
a(I11
I6
tp557
atp558
Rp559
sg15
I12
sg29
g20
((lp560
(I1
I2
tp561
a(I1
I3
tp562
a(I4
I9
tp563
a(I8
I2
tp564
a(I8
I1
tp565
a(I6
I1
tp566
a(I2
I1
tp567
a(I7
I4
tp568
a(I1
I8
tp569
a(I5
I2
tp570
a(I1
I1
tp571
atp572
Rp573
sg13
((I8
I0
tp574
(I4
I1
tp575
(I4
I0
tp576
(I3
I9
tp577
(I8
I9
tp578
(I3
I8
tp579
tp580
sg14
I10
sbs(iproblems
RoomID
p581
(dp582
g10
I15
sg11
(I5
I5
tp583
sg13
I6
sg14
I13
sg15
I13
sg16
I2569146471088859254
sb(imulti_robot_problem
MultiRobotState
p584
(dp585
g19
g20
((lp586
(I12
I2
tp587
a(I5
I4
tp588
a(I3
I3
tp589
a(I5
I9
tp590
a(I4
I5
tp591
a(I6
I1
tp592
a(I10
I10
tp593
a(I8
I8
tp594
a(I4
I3
tp595
a(I2
I2
tp596
a(I9
I11
tp597
a(I8
I12
tp598
a(I1
I1
tp599
a(I12
I3
tp600
ag583
atp601
Rp602
sg15
I13
sg29
g20
((lp603
(I10
I5
tp604
a(I3
I12
tp605
a(I8
I2
tp606
a(I5
I6
tp607
a(I12
I7
tp608
a(I11
I3
tp609
a(I0
I2
tp610
a(I11
I0
tp611
a(I0
I9
tp612
a(I2
I12
tp613
a(I1
I10
tp614
a(I3
I7
tp615
a(I10
I11
tp616
a(I2
I4
tp617
a(I5
I12
tp618
atp619
Rp620
sg13
((I9
I12
tp621
(I7
I11
tp622
(I7
I0
tp623
(I10
I1
tp624
(I1
I5
tp625
(I4
I0
tp626
tp627
sg14
I13
sbs(iproblems
RoomID
p628
(dp629
g10
I10
sg11
(I6
I7
tp630
sg13
I5
sg14
I12
sg15
I11
sg16
I6604845167042249220
sb(imulti_robot_problem
MultiRobotState
p631
(dp632
g19
g20
((lp633
(I9
I0
tp634
ag630
a(I7
I1
tp635
a(I2
I8
tp636
a(I10
I6
tp637
a(I7
I7
tp638
a(I8
I8
tp639
a(I9
I4
tp640
a(I8
I6
tp641
a(I7
I11
tp642
a(I9
I7
tp643
atp644
Rp645
sg15
I11
sg29
g20
((lp646
(I10
I5
tp647
a(I3
I3
tp648
a(I5
I11
tp649
a(I8
I1
tp650
a(I9
I8
tp651
a(I6
I9
tp652
a(I0
I7
tp653
a(I0
I10
tp654
a(I4
I1
tp655
a(I8
I4
tp656
atp657
Rp658
sg13
((I4
I8
tp659
(I1
I0
tp660
(I2
I2
tp661
(I3
I11
tp662
(I6
I5
tp663
tp664
sg14
I12
sbssg159
S'heavy_roomset'
p665
sbsg159
g161
sg162
(dp666
g440
((lp667
F40.579999999999984
tp668
sg489
((lp669
F40.189999999999998
tp670
sg541
((lp671
(F6.5
I6
tp672
aF40.349999999999966
tp673
sg581
((lp674
(F32.180000000000064
I27
tp675
aF40.740000000000009
tp676
sg628
((lp677
(F5.3000000000000682
I21
tp678
aF40.060000000000059
tp679
ssba(imeasure_core
ProblemSetSolution
p680
(dp681
g3
g4
sg159
S"AnytimeBeam-w20-gf(1.5, 'exp')_with_PowerHeuristic2"
p682
sg162
(dp683
g8
((lp684
(F0.57999999999992724
I15
tp685
aF40.049999999999955
tp686
sg46
((lp687
(F1.7599999999999909
I20
tp688
aF40.090000000000032
tp689
sg78
((lp690
(F0.090000000000031832
I18
tp691
aF40.0
tp692
sg103
((lp693
(F0.069999999999936335
I35
tp694
a(F2.0699999999999363
I33
tp695
a(F2.9399999999999409
I30
tp696
a(F3.6299999999999955
I26
tp697
a(F4.4199999999999591
I25
tp698
a(F5.1899999999999409
I23
tp699
a(F5.9399999999999409
I21
tp700
a(F7.2799999999999727
I20
tp701
a(F8.5199999999999818
I18
tp702
aF40.0
tp703
sg125
((lp704
(F1.2899999999999636
I7
tp705
aF41.110000000000014
tp706
ssba(imeasure_core
ProblemSetSolution
p707
(dp708
g3
g189
sg159
g682
sg162
(dp709
g192
((lp710
(F0.14999999999997726
I15
tp711
aF40.049999999999955
tp712
sg235
((lp713
(F5.1700000000000728
I122
tp714
aF40.0
tp715
sg279
((lp716
(F0.5300000000000864
I34
tp717
a(F1.9200000000000728
I29
tp718
aF40.030000000000086
tp719
sg375
((lp720
(F0.14999999999997726
I13
tp721
aF40.059999999999945
tp722
sg334
((lp723
F40.039999999999964
tp724
ssba(imeasure_core
ProblemSetSolution
p725
(dp726
g3
g437
sg159
g682
sg162
(dp727
g440
((lp728
F40.710000000000036
tp729
sg489
((lp730
F40.299999999999955
tp731
sg541
((lp732
(F6.5399999999999636
I6
tp733
aF41.620000000000118
tp734
sg581
((lp735
(F32.25
I27
tp736
aF40.799999999999955
tp737
sg628
((lp738
(F5.3199999999999363
I21
tp739
aF40.289999999999964
tp740
ssba(imeasure_core
ProblemSetSolution
p741
(dp742
g3
g4
sg159
S"AnytimeBeam-w20-gf(1.7, 'exp')_with_PowerHeuristic2"
p743
sg162
(dp744
g8
((lp745
(F0.56999999999993634
I15
tp746
aF40.130000000000109
tp747
sg46
((lp748
(F1.7400000000000091
I20
tp749
aF40.319999999999936
tp750
sg78
((lp751
(F0.07999999999992724
I18
tp752
aF40.009999999999991
tp753
sg103
((lp754
(F0.069999999999936335
I35
tp755
a(F1.7599999999999909
I33
tp756
a(F2.6299999999998818
I30
tp757
a(F3.3299999999999272
I26
tp758
a(F4.1199999999998909
I25
tp759
a(F4.8899999999998727
I23
tp760
a(F5.6600000000000819
I21
tp761
a(F7.0
I20
tp762
a(F8.25
I18
tp763
aF40.0
tp764
sg125
((lp765
(F1.2999999999999545
I7
tp766
aF40.079999999999927
tp767
ssba(imeasure_core
ProblemSetSolution
p768
(dp769
g3
g189
sg159
g743
sg162
(dp770
g192
((lp771
(F0.14000000000010004
I15
tp772
aF40.0
tp773
sg235
((lp774
(F5.2000000000000455
I122
tp775
aF40.190000000000055
tp776
sg279
((lp777
(F0.52999999999997272
I34
tp778
a(F2.0299999999999727
I29
tp779
aF40.009999999999991
tp780
sg375
((lp781
(F0.14999999999986358
I13
tp782
aF40.009999999999991
tp783
sg334
((lp784
F40.110000000000127
tp785
ssba(imeasure_core
ProblemSetSolution
p786
(dp787
g3
g437
sg159
g743
sg162
(dp788
g440
((lp789
F40.529999999999973
tp790
sg489
((lp791
F40.179999999999836
tp792
sg541
((lp793
(F6.5099999999999909
I6
tp794
aF40.8900000000001
tp795
sg581
((lp796
(F32.1400000000001
I27
tp797
aF40.75
tp798
sg628
((lp799
(F5.2999999999999545
I21
tp800
aF40.539999999999964
tp801
ssba(imeasure_core
ProblemSetSolution
p802
(dp803
g3
g4
sg159
S"AnytimeBeam-w20-gf(1.8999999999999999, 'exp')_with_PowerHeuristic2"
p804
sg162
(dp805
g8
((lp806
(F0.57999999999992724
I15
tp807
aF40.180000000000064
tp808
sg46
((lp809
(F1.75
I20
tp810
aF40.170000000000073
tp811
sg78
((lp812
(F0.089999999999918145
I18
tp813
aF40.009999999999991
tp814
sg103
((lp815
(F0.069999999999936335
I35
tp816
a(F1.9900000000000091
I33
tp817
a(F2.8599999999999
I30
tp818
a(F3.5599999999999454
I26
tp819
a(F4.3599999999999
I25
tp820
a(F5.1199999999998909
I23
tp821
a(F5.8799999999998818
I21
tp822
a(F7.209999999999809
I20
tp823
a(F8.4499999999998181
I18
tp824
aF40.0
tp825
sg125
((lp826
(F1.2999999999999545
I7
tp827
aF40.459999999999809
tp828
ssba(imeasure_core
ProblemSetSolution
p829
(dp830
g3
g189
sg159
g804
sg162
(dp831
g192
((lp832
(F0.15000000000009095
I15
tp833
aF40.099999999999909
tp834
sg235
((lp835
(F5.1700000000000728
I122
tp836
aF40.180000000000291
tp837
sg279
((lp838
(F0.51999999999998181
I34
tp839
a(F2.1300000000001091
I29
tp840
aF40.049999999999727
tp841
sg375
((lp842
(F0.15000000000009095
I13
tp843
aF40.0
tp844
sg334
((lp845
F40.050000000000182
tp846
ssba(imeasure_core
ProblemSetSolution
p847
(dp848
g3
g437
sg159
g804
sg162
(dp849
g440
((lp850
F40.539999999999964
tp851
sg489
((lp852
F40.1899999999996
tp853
sg541
((lp854
(F6.4800000000000182
I6
tp855
aF41.350000000000364
tp856
sg581
((lp857
(F32.129999999999654
I27
tp858
aF40.690000000000055
tp859
sg628
((lp860
(F5.2999999999997272
I21
tp861
aF40.079999999999927
tp862
ssba(imeasure_core
ProblemSetSolution
p863
(dp864
g3
g4
sg159
S"AnytimeBeam-w20-gf(1.3, 'exp')_with_LinearHeuristic"
p865
sg162
(dp866
g8
((lp867
(F12.049999999999727
I155
tp868
aF40.009999999999764
tp869
sg46
((lp870
(F1.5700000000001637
I24
tp871
aF40.039999999999964
tp872
sg78
((lp873
(F0.03999999999996362
I10
tp874
aF40.0
tp875
sg103
((lp876
(F0.01999999999998181
I18
tp877
aF40.0
tp878
sg125
((lp879
(F14.539999999999964
I91
tp880
aF40.010000000000218
tp881
ssba(imeasure_core
ProblemSetSolution
p882
(dp883
g3
g189
sg159
g865
sg162
(dp884
g192
((lp885
F40.019999999999982
tp886
sg235
((lp887
F40.150000000000091
tp888
sg279
((lp889
F40.190000000000055
tp890
sg375
((lp891
(F11.769999999999982
I134
tp892
a(F36.059999999999945
I133
tp893
aF40.039999999999964
tp894
sg334
((lp895
F40.090000000000146
tp896
ssba(imeasure_core
ProblemSetSolution
p897
(dp898
g3
g437
sg159
g865
sg162
(dp899
g440
((lp900
F40.309999999999945
tp901
sg489
((lp902
F40.7800000000002
tp903
sg541
((lp904
(F8.8200000000001637
I7
tp905
aF40.360000000000127
tp906
sg581
((lp907
F40.069999999999709
tp908
sg628
((lp909
F40.160000000000309
tp910
ssba(imeasure_core
ProblemSetSolution
p911
(dp912
g3
g4
sg159
S"AnytimeBeam-w20-gf(1.5, 'exp')_with_LinearHeuristic"
p913
sg162
(dp914
g8
((lp915
(F12.050000000000182
I155
tp916
aF40.510000000000218
tp917
sg46
((lp918
(F1.5599999999999454
I24
tp919
aF40.029999999999745
tp920
sg78
((lp921
(F0.03999999999996362
I10
tp922
aF40.0
tp923
sg103
((lp924
(F0.01999999999998181
I18
tp925
aF40.0
tp926
sg125
((lp927
(F14.570000000000164
I91
tp928
aF40.050000000000182
tp929
ssba(imeasure_core
ProblemSetSolution
p930
(dp931
g3
g189
sg159
g913
sg162
(dp932
g192
((lp933
F40.0
tp934
sg235
((lp935
F40.140000000000327
tp936
sg279
((lp937
F40.019999999999982
tp938
sg375
((lp939
(F11.909999999999854
I134
tp940
a(F29.869999999999891
I133
tp941
aF40.009999999999764
tp942
sg334
((lp943
F40.130000000000109
tp944
ssba(imeasure_core
ProblemSetSolution
p945
(dp946
g3
g437
sg159
g913
sg162
(dp947
g440
((lp948
F40.309999999999945
tp949
sg489
((lp950
F40.950000000000273
tp951
sg541
((lp952
(F8.8499999999999091
I7
tp953
aF41.119999999999891
tp954
sg581
((lp955
F40.259999999999764
tp956
sg628
((lp957
F40.150000000000091
tp958
ssba(imeasure_core
ProblemSetSolution
p959
(dp960
g3
g4
sg159
S"AnytimeBeam-w20-gf(1.7, 'exp')_with_LinearHeuristic"
p961
sg162
(dp962
g8
((lp963
(F12.109999999999673
I155
tp964
aF40.210000000000036
tp965
sg46
((lp966
(F1.569999999999709
I24
tp967
aF40.069999999999709
tp968
sg78
((lp969
(F0.03999999999996362
I10
tp970
aF40.010000000000218
tp971
sg103
((lp972
(F0.01999999999998181
I18
tp973
aF40.0
tp974
sg125
((lp975
(F14.589999999999691
I91
tp976
aF40.079999999999927
tp977
ssba(imeasure_core
ProblemSetSolution
p978
(dp979
g3
g189
sg159
g961
sg162
(dp980
g192
((lp981
F40.099999999999909
tp982
sg235
((lp983
F40.340000000000146
tp984
sg279
((lp985
F40.069999999999709
tp986
sg375
((lp987
(F12.509999999999764
I134
tp988
a(F34.070000000000164
I133
tp989
aF40.009999999999764
tp990
sg334
((lp991
F40.260000000000218
tp992
ssba(imeasure_core
ProblemSetSolution
p993
(dp994
g3
g437
sg159
g961
sg162
(dp995
g440
((lp996
F40.2800000000002
tp997
sg489
((lp998
F40.75
tp999
sg541
((lp1000
(F8.819999999999709
I7
tp1001
aF41.149999999999636
tp1002
sg581
((lp1003
F40.100000000000364
tp1004
sg628
((lp1005
F40.349999999999454
tp1006
ssba(imeasure_core
ProblemSetSolution
p1007
(dp1008
g3
g4
sg159
S"AnytimeBeam-w20-gf(1.8999999999999999, 'exp')_with_LinearHeuristic"
p1009
sg162
(dp1010
g8
((lp1011
(F12.070000000000618
I155
tp1012
aF40.140000000000327
tp1013
sg46
((lp1014
(F1.5600000000004002
I24
tp1015
aF40.6899999999996
tp1016
sg78
((lp1017
(F0.03999999999996362
I10
tp1018
aF40.010000000000218
tp1019
sg103
((lp1020
(F0.010000000000218279
I18
tp1021
aF40.0
tp1022
sg125
((lp1023
(F14.650000000000546
I91
tp1024
aF40.010000000000218
tp1025
ssba(imeasure_core
ProblemSetSolution
p1026
(dp1027
g3
g189
sg159
g1009
sg162
(dp1028
g192
((lp1029
F40.029999999999745
tp1030
sg235
((lp1031
F40.319999999999709
tp1032
sg279
((lp1033
F40.110000000000582
tp1034
sg375
((lp1035
(F12.670000000000073
I134
tp1036
a(F23.180000000000291
I133
tp1037
a(F35.780000000000655
I132
tp1038
aF40.070000000000618
tp1039
sg334
((lp1040
F40.179999999999382
tp1041
ssba(imeasure_core
ProblemSetSolution
p1042
(dp1043
g3
g437
sg159
g1009
sg162
(dp1044
g440
((lp1045
F40.059999999999491
tp1046
sg489
((lp1047
F40.900000000000546
tp1048
sg541
((lp1049
(F8.8599999999996726
I7
tp1050
aF40.049999999999272
tp1051
sg581
((lp1052
F40.190000000000509
tp1053
sg628
((lp1054
F40.229999999999563
tp1055
ssba.