(lp0
(imeasure_core
ProblemSetSolution
p1
(dp2
S'roomset'
p3
(imeasure_core
RoomSet
p4
(dp5
S'rooms'
p6
(dp7
(iproblems
RoomID
p8
(dp9
S'dusts'
p10
I6
sS'obstacles'
p11
(I0
I4
tp12
sS'robots'
p13
I1
sS'height'
p14
I9
sS'width'
p15
I9
sS'seed'
p16
I1164115433906158532
sb(imulti_robot_problem
MultiRobotState
p17
(dp18
S'obstacle_locations'
p19
c__builtin__
frozenset
p20
((lp21
(I0
I1
tp22
a(I1
I2
tp23
a(I1
I3
tp24
a(I1
I4
tp25
ag12
atp26
Rp27
sg15
I9
sS'dirt_locations'
p28
g20
((lp29
(I6
I4
tp30
a(I1
I8
tp31
a(I1
I6
tp32
a(I1
I0
tp33
a(I8
I5
tp34
a(I3
I5
tp35
atp36
Rp37
sg13
((I4
I5
tp38
tp39
sg14
I9
sbs(iproblems
RoomID
p40
(dp41
g10
I8
sg11
(I6
I5
tp42
sg13
I5
sg14
I8
sg15
I7
sg16
I2175216119781798972
sb(imulti_robot_problem
MultiRobotState
p43
(dp44
g19
g20
((lp45
(I1
I2
tp46
a(I2
I6
tp47
a(I6
I7
tp48
a(I6
I6
tp49
a(I5
I7
tp50
a(I2
I3
tp51
a(I0
I4
tp52
a(I1
I0
tp53
ag42
atp54
Rp55
sg15
I7
sg28
g20
((lp56
(I5
I4
tp57
a(I5
I5
tp58
a(I4
I4
tp59
a(I0
I6
tp60
a(I0
I5
tp61
a(I1
I7
tp62
a(I4
I2
tp63
a(I0
I2
tp64
atp65
Rp66
sg13
((I1
I3
tp67
(I6
I4
tp68
(I3
I7
tp69
(I6
I0
tp70
(I2
I1
tp71
tp72
sg14
I8
sbs(iproblems
RoomID
p73
(dp74
g10
I5
sg11
(I0
I4
tp75
sg13
I5
sg14
I7
sg15
I7
sg16
I8711387064946514083
sb(imulti_robot_problem
MultiRobotState
p76
(dp77
g19
g20
((lp78
(I0
I1
tp79
a(I2
I2
tp80
a(I0
I2
tp81
a(I1
I5
tp82
ag75
a(I0
I3
tp83
a(I2
I4
tp84
a(I6
I5
tp85
atp86
Rp87
sg15
I7
sg28
g20
((lp88
(I5
I6
tp89
a(I6
I4
tp90
a(I3
I2
tp91
a(I6
I1
tp92
a(I6
I6
tp93
atp94
Rp95
sg13
((I1
I1
tp96
(I6
I0
tp97
(I5
I0
tp98
(I1
I3
tp99
(I4
I5
tp100
tp101
sg14
I7
sbs(iproblems
RoomID
p102
(dp103
g10
I9
sg11
(I6
I3
tp104
sg13
I4
sg14
I9
sg15
I10
sg16
I7002664860023442459
sb(imulti_robot_problem
MultiRobotState
p105
(dp106
g19
g20
((lp107
(I7
I4
tp108
a(I7
I3
tp109
ag104
a(I6
I5
tp110
a(I9
I7
tp111
atp112
Rp113
sg15
I10
sg28
g20
((lp114
(I0
I0
tp115
a(I6
I8
tp116
a(I2
I8
tp117
a(I5
I7
tp118
a(I2
I6
tp119
a(I4
I2
tp120
a(I5
I1
tp121
a(I8
I6
tp122
a(I8
I4
tp123
atp124
Rp125
sg13
((I7
I5
tp126
(I7
I6
tp127
(I1
I7
tp128
(I1
I6
tp129
tp130
sg14
I9
sbs(iproblems
RoomID
p131
(dp132
g10
I9
sg11
(I2
I2
tp133
sg13
I2
sg14
I9
sg15
I7
sg16
I3872982626502034966
sb(imulti_robot_problem
MultiRobotState
p134
(dp135
g19
g20
((lp136
(I4
I1
tp137
a(I2
I6
tp138
a(I3
I1
tp139
a(I5
I0
tp140
ag133
atp141
Rp142
sg15
I7
sg28
g20
((lp143
(I4
I7
tp144
a(I2
I8
tp145
a(I4
I4
tp146
a(I3
I2
tp147
a(I2
I1
tp148
a(I1
I4
tp149
a(I4
I2
tp150
a(I0
I3
tp151
a(I5
I8
tp152
atp153
Rp154
sg13
((I1
I6
tp155
(I1
I7
tp156
tp157
sg14
I9
sbssS'name'
p158
S'easy_roomset'
p159
sbsg158
S'AnytimeBest-d10_with_PowerHeuristic2'
p160
sS'solutions'
p161
(dp162
g8
((lp163
F0.42000000000007276
tp164
sg40
((lp165
(F0.5
I5
tp166
aF40.050000000000182
tp167
sg73
((lp168
(F0.1999999999998181
I4
tp169
aF40.010000000000218
tp170
sg102
((lp171
F40.039999999999964
tp172
sg131
((lp173
F40.039999999999964
tp174
ssba(imeasure_core
ProblemSetSolution
p175
(dp176
g3
(imeasure_core
RoomSet
p177
(dp178
g6
(dp179
(iproblems
RoomID
p180
(dp181
g10
I6
sg11
(I5
I5
tp182
sg13
I3
sg14
I11
sg15
I11
sg16
I1164115433906158532
sb(imulti_robot_problem
MultiRobotState
p183
(dp184
g19
g20
((lp185
(I5
I4
tp186
a(I1
I3
tp187
a(I4
I3
tp188
a(I4
I8
tp189
a(I3
I0
tp190
a(I8
I0
tp191
a(I3
I2
tp192
a(I0
I7
tp193
a(I2
I1
tp194
a(I3
I9
tp195
a(I0
I5
tp196
a(I1
I4
tp197
a(I3
I7
tp198
a(I2
I5
tp199
a(I5
I3
tp200
a(I8
I3
tp201
a(I3
I1
tp202
ag182
a(I2
I0
tp203
a(I3
I10
tp204
a(I6
I10
tp205
a(I0
I6
tp206
a(I1
I8
tp207
a(I3
I6
tp208
a(I4
I5
tp209
a(I0
I2
tp210
atp211
Rp212
sg15
I11
sg28
g20
((lp213
(I7
I5
tp214
a(I8
I8
tp215
a(I4
I9
tp216
a(I4
I6
tp217
a(I10
I6
tp218
a(I8
I2
tp219
atp220
Rp221
sg13
((I5
I7
tp222
(I2
I10
tp223
(I2
I8
tp224
tp225
sg14
I11
sbs(iproblems
RoomID
p226
(dp227
g10
I8
sg11
(I5
I4
tp228
sg13
I4
sg14
I10
sg15
I9
sg16
I2175216119781798972
sb(imulti_robot_problem
MultiRobotState
p229
(dp230
g19
g20
((lp231
(I6
I6
tp232
a(I2
I8
tp233
a(I0
I7
tp234
a(I6
I2
tp235
a(I1
I6
tp236
a(I2
I5
tp237
a(I5
I5
tp238
a(I8
I1
tp239
a(I7
I6
tp240
a(I6
I3
tp241
a(I2
I2
tp242
a(I8
I6
tp243
a(I6
I4
tp244
ag228
a(I8
I2
tp245
a(I7
I1
tp246
a(I1
I4
tp247
a(I7
I5
tp248
a(I8
I7
tp249
a(I1
I0
tp250
a(I6
I5
tp251
a(I3
I3
tp252
a(I8
I3
tp253
a(I7
I0
tp254
a(I6
I8
tp255
a(I3
I4
tp256
a(I7
I4
tp257
a(I0
I6
tp258
a(I1
I8
tp259
a(I8
I8
tp260
a(I4
I3
tp261
a(I1
I7
tp262
a(I7
I8
tp263
a(I0
I2
tp264
atp265
Rp266
sg15
I9
sg28
g20
((lp267
(I6
I7
tp268
a(I2
I9
tp269
a(I5
I6
tp270
a(I3
I1
tp271
a(I8
I9
tp272
a(I0
I5
tp273
a(I0
I3
tp274
a(I5
I2
tp275
atp276
Rp277
sg13
((I2
I4
tp278
(I8
I5
tp279
(I4
I9
tp280
(I7
I7
tp281
tp282
sg14
I10
sbs(iproblems
RoomID
p283
(dp284
g10
I9
sg11
(I5
I3
tp285
sg13
I3
sg14
I9
sg15
I9
sg16
I1885758236351349410
sb(imulti_robot_problem
MultiRobotState
p286
(dp287
g19
g20
((lp288
(I4
I7
tp289
a(I5
I7
tp290
a(I7
I1
tp291
a(I5
I6
tp292
a(I5
I4
tp293
a(I0
I0
tp294
a(I2
I3
tp295
a(I4
I2
tp296
a(I8
I5
tp297
ag285
a(I6
I7
tp298
a(I5
I5
tp299
a(I4
I4
tp300
a(I1
I5
tp301
a(I4
I3
tp302
a(I0
I4
tp303
a(I1
I6
tp304
a(I3
I4
tp305
a(I2
I4
tp306
atp307
Rp308
sg15
I9
sg28
g20
((lp309
(I7
I3
tp310
a(I7
I0
tp311
a(I3
I0
tp312
a(I6
I1
tp313
a(I1
I4
tp314
a(I0
I5
tp315
a(I5
I0
tp316
a(I1
I1
tp317
a(I8
I4
tp318
atp319
Rp320
sg13
((I0
I1
tp321
(I2
I6
tp322
(I0
I2
tp323
tp324
sg14
I9
sbs(iproblems
RoomID
p325
(dp326
g10
I9
sg11
(I4
I3
tp327
sg13
I4
sg14
I11
sg15
I12
sg16
I7002664860023442459
sb(imulti_robot_problem
MultiRobotState
p328
(dp329
g19
g20
((lp330
(I11
I8
tp331
a(I0
I0
tp332
a(I10
I4
tp333
a(I3
I0
tp334
a(I9
I3
tp335
a(I6
I0
tp336
a(I2
I1
tp337
a(I8
I9
tp338
a(I9
I4
tp339
a(I5
I1
tp340
a(I8
I5
tp341
a(I5
I8
tp342
a(I8
I2
tp343
a(I7
I0
tp344
a(I8
I7
tp345
a(I3
I3
tp346
a(I1
I5
tp347
a(I8
I1
tp348
a(I9
I6
tp349
a(I3
I1
tp350
a(I9
I2
tp351
a(I2
I0
tp352
ag327
a(I2
I2
tp353
a(I9
I5
tp354
a(I5
I2
tp355
a(I2
I4
tp356
atp357
Rp358
sg15
I12
sg28
g20
((lp359
(I0
I1
tp360
a(I10
I8
tp361
a(I2
I8
tp362
a(I3
I10
tp363
a(I10
I6
tp364
a(I6
I2
tp365
a(I3
I7
tp366
a(I7
I8
tp367
a(I7
I9
tp368
atp369
Rp370
sg13
((I9
I7
tp371
(I8
I8
tp372
(I2
I9
tp373
(I1
I7
tp374
tp375
sg14
I11
sbs(iproblems
RoomID
p376
(dp377
g10
I9
sg11
(I3
I0
tp378
sg13
I3
sg14
I9
sg15
I12
sg16
I4912931603392816429
sb(imulti_robot_problem
MultiRobotState
p379
(dp380
g19
g20
((lp381
(I6
I4
tp382
a(I4
I7
tp383
a(I0
I0
tp384
a(I4
I8
tp385
a(I5
I6
tp386
a(I2
I8
tp387
a(I0
I7
tp388
a(I4
I6
tp389
a(I7
I5
tp390
a(I4
I2
tp391
a(I0
I3
tp392
a(I7
I2
tp393
a(I6
I8
tp394
a(I10
I5
tp395
a(I5
I5
tp396
a(I7
I8
tp397
a(I4
I4
tp398
a(I5
I2
tp399
ag378
a(I8
I8
tp400
a(I5
I8
tp401
a(I1
I7
tp402
a(I4
I5
tp403
a(I8
I6
tp404
a(I5
I3
tp405
a(I4
I1
tp406
atp407
Rp408
sg15
I12
sg28
g20
((lp409
(I7
I3
tp410
a(I7
I1
tp411
a(I8
I1
tp412
a(I6
I3
tp413
a(I11
I8
tp414
a(I8
I7
tp415
a(I3
I7
tp416
a(I2
I5
tp417
a(I3
I4
tp418
atp419
Rp420
sg13
((I9
I1
tp421
(I1
I6
tp422
(I8
I4
tp423
tp424
sg14
I9
sbssg158
S'mild_roomset'
p425
sbsg158
g160
sg161
(dp426
g180
((lp427
F40.099999999999454
tp428
sg226
((lp429
F40.110000000000582
tp430
sg325
((lp431
F40.030000000000655
tp432
sg283
((lp433
F40.049999999999272
tp434
sg376
((lp435
F40.019999999999527
tp436
ssba(imeasure_core
ProblemSetSolution
p437
(dp438
g3
(imeasure_core
RoomSet
p439
(dp440
g6
(dp441
(iproblems
RoomID
p442
(dp443
g10
I11
sg11
(I7
I9
tp444
sg13
I5
sg14
I12
sg15
I12
sg16
I1164115433906158532
sb(imulti_robot_problem
MultiRobotState
p445
(dp446
g19
g20
((lp447
(I4
I7
tp448
a(I1
I3
tp449
a(I5
I6
tp450
a(I9
I3
tp451
a(I1
I4
tp452
a(I0
I5
tp453
a(I7
I11
tp454
a(I1
I0
tp455
a(I5
I8
tp456
a(I3
I3
tp457
a(I3
I1
tp458
a(I6
I7
tp459
a(I6
I8
tp460
a(I7
I8
tp461
a(I5
I7
tp462
ag444
a(I4
I1
tp463
a(I0
I2
tp464
atp465
Rp466
sg15
I12
sg28
g20
((lp467
(I4
I10
tp468
a(I9
I0
tp469
a(I2
I6
tp470
a(I5
I10
tp471
a(I9
I2
tp472
a(I0
I7
tp473
a(I8
I9
tp474
a(I1
I6
tp475
a(I8
I5
tp476
a(I4
I11
tp477
a(I5
I3
tp478
atp479
Rp480
sg13
((I1
I2
tp481
(I2
I11
tp482
(I2
I0
tp483
(I2
I9
tp484
(I11
I7
tp485
tp486
sg14
I12
sbs(iproblems
RoomID
p487
(dp488
g10
I10
sg11
(I0
I7
tp489
sg13
I7
sg14
I10
sg15
I10
sg16
I8711387064946514083
sb(imulti_robot_problem
MultiRobotState
p490
(dp491
g19
g20
((lp492
(I5
I9
tp493
a(I6
I9
tp494
a(I2
I6
tp495
a(I2
I9
tp496
a(I0
I6
tp497
ag489
a(I1
I5
tp498
a(I8
I8
tp499
a(I0
I5
tp500
a(I4
I3
tp501
a(I0
I4
tp502
a(I0
I3
tp503
a(I9
I7
tp504
a(I0
I2
tp505
a(I7
I9
tp506
atp507
Rp508
sg15
I10
sg28
g20
((lp509
(I9
I0
tp510
a(I3
I3
tp511
a(I7
I1
tp512
a(I8
I1
tp513
a(I9
I8
tp514
a(I4
I4
tp515
a(I9
I9
tp516
a(I3
I6
tp517
a(I1
I7
tp518
a(I8
I6
tp519
atp520
Rp521
sg13
((I1
I1
tp522
(I8
I0
tp523
(I7
I0
tp524
(I2
I5
tp525
(I6
I7
tp526
(I8
I9
tp527
(I5
I8
tp528
tp529
sg14
I10
sbs(iproblems
RoomID
p530
(dp531
g10
I10
sg11
(I6
I7
tp532
sg13
I6
sg14
I10
sg15
I13
sg16
I8999366892653588108
sb(imulti_robot_problem
MultiRobotState
p533
(dp534
g19
g20
((lp535
(I5
I4
tp536
ag532
a(I5
I5
tp537
a(I5
I6
tp538
a(I7
I6
tp539
a(I4
I2
tp540
a(I2
I3
tp541
a(I8
I6
tp542
a(I12
I1
tp543
a(I5
I3
tp544
a(I6
I5
tp545
a(I3
I3
tp546
atp547
Rp548
sg15
I13
sg28
g20
((lp549
(I6
I9
tp550
a(I7
I0
tp551
a(I5
I7
tp552
a(I12
I6
tp553
a(I2
I1
tp554
a(I0
I5
tp555
a(I10
I1
tp556
a(I0
I3
tp557
a(I7
I9
tp558
a(I3
I5
tp559
atp560
Rp561
sg13
((I12
I0
tp562
(I6
I1
tp563
(I2
I2
tp564
(I6
I4
tp565
(I4
I6
tp566
(I7
I1
tp567
tp568
sg14
I10
sbs(iproblems
RoomID
p569
(dp570
g10
I14
sg11
(I0
I3
tp571
sg13
I7
sg14
I12
sg15
I13
sg16
I7002664860023442459
sb(imulti_robot_problem
MultiRobotState
p572
(dp573
g19
g20
((lp574
(I1
I2
tp575
a(I11
I4
tp576
a(I9
I8
tp577
a(I10
I6
tp578
ag571
a(I0
I8
tp579
a(I10
I3
tp580
a(I0
I1
tp581
a(I10
I5
tp582
a(I10
I7
tp583
a(I7
I8
tp584
a(I9
I9
tp585
a(I0
I9
tp586
a(I9
I5
tp587
a(I3
I4
tp588
a(I0
I2
tp589
a(I11
I6
tp590
a(I9
I7
tp591
atp592
Rp593
sg15
I13
sg28
g20
((lp594
(I6
I4
tp595
a(I11
I9
tp596
a(I4
I6
tp597
a(I2
I9
tp598
a(I5
I9
tp599
a(I12
I2
tp600
a(I3
I1
tp601
a(I3
I11
tp602
a(I10
I10
tp603
a(I7
I4
tp604
a(I0
I0
tp605
a(I11
I5
tp606
a(I2
I5
tp607
a(I12
I9
tp608
atp609
Rp610
sg13
((I2
I10
tp611
(I1
I8
tp612
(I8
I10
tp613
(I7
I2
tp614
(I3
I8
tp615
(I6
I2
tp616
(I7
I9
tp617
tp618
sg14
I12
sbs(iproblems
RoomID
p619
(dp620
g10
I14
sg11
(I5
I10
tp621
sg13
I5
sg14
I12
sg15
I10
sg16
I3872982626502034966
sb(imulti_robot_problem
MultiRobotState
p622
(dp623
g19
g20
((lp624
(I5
I9
tp625
a(I6
I9
tp626
a(I5
I7
tp627
a(I3
I2
tp628
ag621
a(I4
I10
tp629
a(I4
I8
tp630
a(I3
I11
tp631
a(I2
I1
tp632
a(I6
I2
tp633
a(I1
I4
tp634
a(I8
I7
tp635
a(I6
I8
tp636
a(I6
I7
tp637
a(I5
I8
tp638
a(I3
I5
tp639
a(I4
I9
tp640
a(I4
I6
tp641
a(I8
I1
tp642
a(I7
I1
tp643
a(I3
I8
tp644
a(I4
I3
tp645
a(I5
I2
tp646
a(I1
I1
tp647
atp648
Rp649
sg15
I10
sg28
g20
((lp650
(I5
I3
tp651
a(I3
I1
tp652
a(I8
I11
tp653
a(I9
I3
tp654
a(I0
I2
tp655
a(I6
I3
tp656
a(I3
I9
tp657
a(I2
I3
tp658
a(I9
I5
tp659
a(I7
I11
tp660
a(I0
I8
tp661
a(I3
I10
tp662
a(I7
I2
tp663
a(I9
I7
tp664
atp665
Rp666
sg13
((I1
I8
tp667
(I2
I9
tp668
(I1
I9
tp669
(I1
I5
tp670
(I6
I5
tp671
tp672
sg14
I12
sbssg158
S'heavy_roomset'
p673
sbsg158
g160
sg161
(dp674
g442
((lp675
F40.180000000000291
tp676
sg487
((lp677
(F15.840000000000146
I7
tp678
aF41.309999999999491
tp679
sg530
((lp680
F40.460000000000036
tp681
sg569
((lp682
F48.119999999999891
tp683
sg619
((lp684
F40.450000000000728
tp685
ssba(imeasure_core
ProblemSetSolution
p686
(dp687
g3
g4
sg158
S'AnytimeBest-d80_with_PowerHeuristic2'
p688
sg161
(dp689
g8
((lp690
(F0.25999999999930878
I42
tp691
a(F2.8599999999996726
I40
tp692
a(F3.1199999999998909
I34
tp693
a(F4.2899999999999636
I30
tp694
a(F4.9499999999998181
I28
tp695
a(F13.559999999999491
I26
tp696
aF16.630000000000109
tp697
sg40
((lp698
(F0.5
I5
tp699
aF40.049999999999272
tp700
sg73
((lp701
(F0.2000000000007276
I4
tp702
aF40.010000000000218
tp703
sg102
((lp704
(F0.48999999999978172
I11
tp705
aF40.090000000000146
tp706
sg131
((lp707
(F0.72000000000025466
I66
tp708
a(F11.079999999999927
I65
tp709
a(F16.8100000000004
I64
tp710
a(F26.899999999999636
I63
tp711
a(F32.789999999999964
I62
tp712
aF40.0
tp713
ssba(imeasure_core
ProblemSetSolution
p714
(dp715
g3
g177
sg158
g688
sg161
(dp716
g180
((lp717
F40.069999999999709
tp718
sg226
((lp719
F40.039999999999964
tp720
sg325
((lp721
(F0.4500000000007276
I11
tp722
aF40.050000000000182
tp723
sg283
((lp724
(F1.430000000000291
I65
tp725
aF40.029999999999745
tp726
sg376
((lp727
(F0.1000000000003638
I11
tp728
aF40.010000000000218
tp729
ssba(imeasure_core
ProblemSetSolution
p730
(dp731
g3
g439
sg158
g688
sg161
(dp732
g442
((lp733
(F2.9600000000000364
I20
tp734
aF40.069999999999709
tp735
sg487
((lp736
(F16.069999999999709
I7
tp737
aF41.140000000000327
tp738
sg530
((lp739
(F9.6399999999994179
I20
tp740
aF40.130000000000109
tp741
sg569
((lp742
F48.169999999999163
tp743
sg619
((lp744
F40.360000000000582
tp745
ssba(imeasure_core
ProblemSetSolution
p746
(dp747
g3
g4
sg158
S'AnytimeBest-d150_with_PowerHeuristic2'
p748
sg161
(dp749
g8
((lp750
(F0.25999999999930878
I42
tp751
a(F2.8299999999999272
I40
tp752
a(F3.089999999999236
I34
tp753
a(F4.2599999999993088
I30
tp754
a(F4.9199999999991633
I28
tp755
a(F13.489999999999782
I26
tp756
aF16.559999999999491
tp757
sg40
((lp758
(F0.48999999999978172
I5
tp759
aF40.369999999999891
tp760
sg73
((lp761
(F0.1999999999998181
I4
tp762
aF40.010000000000218
tp763
sg102
((lp764
(F0.47999999999956344
I11
tp765
aF40.050000000000182
tp766
sg131
((lp767
(F0.72000000000025466
I66
tp768
a(F11.010000000000218
I65
tp769
a(F16.729999999999563
I64
tp770
a(F26.769999999999527
I63
tp771
a(F32.639999999999418
I62
tp772
aF40.019999999999527
tp773
ssba(imeasure_core
ProblemSetSolution
p774
(dp775
g3
g177
sg158
g748
sg161
(dp776
g180
((lp777
(F17.449999999999818
I136
tp778
aF40.050000000000182
tp779
sg226
((lp780
F40.039999999999964
tp781
sg325
((lp782
(F0.43999999999959982
I11
tp783
aF40.050000000000182
tp784
sg283
((lp785
(F1.430000000000291
I65
tp786
aF40.0
tp787
sg376
((lp788
(F0.099999999999454303
I11
tp789
aF40.019999999999527
tp790
ssba(imeasure_core
ProblemSetSolution
p791
(dp792
g3
g439
sg158
g748
sg161
(dp793
g442
((lp794
(F2.9499999999998181
I20
tp795
aF40.069999999999709
tp796
sg487
((lp797
(F15.930000000000291
I7
tp798
aF40.860000000000582
tp799
sg530
((lp800
(F9.7899999999999636
I20
tp801
aF40.130000000000109
tp802
sg569
((lp803
F47.960000000000036
tp804
sg619
((lp805
F40.449999999999818
tp806
ssba(imeasure_core
ProblemSetSolution
p807
(dp808
g3
g4
sg158
S'AnytimeBest-d250_with_PowerHeuristic2'
p809
sg161
(dp810
g8
((lp811
(F0.26000000000021828
I42
tp812
a(F2.8800000000001091
I40
tp813
a(F3.1400000000003274
I34
tp814
a(F4.3200000000006185
I30
tp815
a(F4.9800000000004729
I28
tp816
a(F13.650000000000546
I26
tp817
aF16.75
tp818
sg40
((lp819
(F0.5
I5
tp820
aF40.25
tp821
sg73
((lp822
(F0.2000000000007276
I4
tp823
aF40.010000000000218
tp824
sg102
((lp825
(F0.48999999999978172
I11
tp826
aF40.050000000000182
tp827
sg131
((lp828
(F0.72000000000025466
I66
tp829
a(F11.0600000000004
I65
tp830
a(F16.779999999999745
I64
tp831
a(F26.850000000000364
I63
tp832
a(F32.720000000000255
I62
tp833
aF40.010000000000218
tp834
ssba(imeasure_core
ProblemSetSolution
p835
(dp836
g3
g177
sg158
g809
sg161
(dp837
g180
((lp838
(F17.479999999999563
I136
tp839
aF40.090000000000146
tp840
sg226
((lp841
F40.039999999999964
tp842
sg325
((lp843
(F0.44000000000050932
I11
tp844
aF40.1200000000008
tp845
sg283
((lp846
(F1.4299999999993815
I65
tp847
aF40.009999999999309
tp848
sg376
((lp849
(F0.099999999999454303
I11
tp850
aF40.009999999999309
tp851
ssba(imeasure_core
ProblemSetSolution
p852
(dp853
g3
g439
sg158
g809
sg161
(dp854
g442
((lp855
(F2.9700000000002547
I20
tp856
aF40.069999999999709
tp857
sg487
((lp858
(F15.770000000000437
I7
tp859
aF41.190000000000509
tp860
sg530
((lp861
(F9.6999999999998181
I20
tp862
aF40.130000000000109
tp863
sg569
((lp864
F47.769999999999527
tp865
sg619
((lp866
F40.449999999999818
tp867
ssba(imeasure_core
ProblemSetSolution
p868
(dp869
g3
g4
sg158
S'AnytimeBest-d400_with_PowerHeuristic2'
p870
sg161
(dp871
g8
((lp872
(F0.25
I42
tp873
a(F2.8400000000001455
I40
tp874
a(F3.1000000000003638
I34
tp875
a(F4.2700000000004366
I30
tp876
a(F4.930000000000291
I28
tp877
a(F13.520000000000437
I26
tp878
aF16.590000000000146
tp879
sg40
((lp880
(F0.51000000000021828
I5
tp881
aF40.159999999999854
tp882
sg73
((lp883
(F0.21000000000003638
I4
tp884
aF40.010000000000218
tp885
sg102
((lp886
(F0.5
I11
tp887
aF40.140000000000327
tp888
sg131
((lp889
(F0.72999999999956344
I66
tp890
a(F11.159999999999854
I65
tp891
a(F16.909999999999854
I64
tp892
a(F27.029999999998836
I63
tp893
a(F32.979999999999563
I62
tp894
aF40.020000000000437
tp895
ssba(imeasure_core
ProblemSetSolution
p896
(dp897
g3
g177
sg158
g870
sg161
(dp898
g180
((lp899
(F17.479999999999563
I136
tp900
aF40.049999999999272
tp901
sg226
((lp902
F40.039999999999054
tp903
sg325
((lp904
(F0.44000000000050932
I11
tp905
aF40.050000000001091
tp906
sg283
((lp907
(F1.4200000000000728
I65
tp908
aF40.0
tp909
sg376
((lp910
(F0.1000000000003638
I11
tp911
aF40.010000000000218
tp912
ssba(imeasure_core
ProblemSetSolution
p913
(dp914
g3
g439
sg158
g870
sg161
(dp915
g442
((lp916
(F2.9499999999989086
I20
tp917
aF40.069999999999709
tp918
sg487
((lp919
(F15.989999999999782
I7
tp920
aF40.859999999998763
tp921
sg530
((lp922
(F9.6100000000005821
I20
tp923
aF40.130000000001019
tp924
sg569
((lp925
F48.0
tp926
sg619
((lp927
F40.299999999999272
tp928
ssba(imeasure_core
ProblemSetSolution
p929
(dp930
g3
g4
sg158
S'AnytimeBest-d10_with_LinearHeuristic'
p931
sg161
(dp932
g8
((lp933
F1.8299999999999272
tp934
sg40
((lp935
F40.159999999999854
tp936
sg73
((lp937
(F1.180000000000291
I10
tp938
a(F10.340000000000146
I9
tp939
a(F17.610000000000582
I8
tp940
a(F25.0
I7
tp941
a(F31.180000000000291
I6
tp942
aF40.260000000000218
tp943
sg102
((lp944
F40.200000000000728
tp945
sg131
((lp946
F40.010000000000218
tp947
ssba(imeasure_core
ProblemSetSolution
p948
(dp949
g3
g177
sg158
g931
sg161
(dp950
g180
((lp951
F40.059999999999491
tp952
sg226
((lp953
F40.199999999998909
tp954
sg325
((lp955
F40.199999999998909
tp956
sg283
((lp957
F40.070000000001528
tp958
sg376
((lp959
F40.100000000000364
tp960
ssba(imeasure_core
ProblemSetSolution
p961
(dp962
g3
g439
sg158
g931
sg161
(dp963
g442
((lp964
F40.299999999999272
tp965
sg487
((lp966
(F31.170000000000073
I7
tp967
aF47.190000000000509
tp968
sg530
((lp969
F40.739999999999782
tp970
sg569
((lp971
F43.909999999999854
tp972
sg619
((lp973
F40.610000000000582
tp974
ssba(imeasure_core
ProblemSetSolution
p975
(dp976
g3
g4
sg158
S'AnytimeBest-d80_with_LinearHeuristic'
p977
sg161
(dp978
g8
((lp979
(F0.020000000000436557
I28
tp980
a(F35.899999999999636
I26
tp981
aF40.0
tp982
sg40
((lp983
F40.110000000000582
tp984
sg73
((lp985
(F1.179999999998472
I10
tp986
a(F10.399999999999636
I9
tp987
a(F17.739999999999782
I8
tp988
a(F25.159999999999854
I7
tp989
a(F31.389999999999418
I6
tp990
aF40.309999999999491
tp991
sg102
((lp992
(F2.5100000000002183
I27
tp993
aF40.079999999999927
tp994
sg131
((lp995
(F0.52000000000043656
I25
tp996
a(F14.979999999999563
I24
tp997
a(F18.069999999999709
I23
tp998
a(F30.289999999999054
I22
tp999
a(F39.039999999999054
I19
tp1000
aF40.020000000000437
tp1001
ssba(imeasure_core
ProblemSetSolution
p1002
(dp1003
g3
g177
sg158
g977
sg161
(dp1004
g180
((lp1005
F40.049999999999272
tp1006
sg226
((lp1007
F40.180000000000291
tp1008
sg325
((lp1009
F40.119999999998981
tp1010
sg283
((lp1011
F40.010000000000218
tp1012
sg376
((lp1013
F40.040000000000873
tp1014
ssba(imeasure_core
ProblemSetSolution
p1015
(dp1016
g3
g439
sg158
g977
sg161
(dp1017
g442
((lp1018
F40.600000000000364
tp1019
sg487
((lp1020
(F31.289999999999054
I7
tp1021
aF46.679999999998472
tp1022
sg530
((lp1023
F40.940000000000509
tp1024
sg569
((lp1025
F43.880000000001019
tp1026
sg619
((lp1027
F40.420000000000073
tp1028
ssba(imeasure_core
ProblemSetSolution
p1029
(dp1030
g3
g4
sg158
S'AnytimeBest-d150_with_LinearHeuristic'
p1031
sg161
(dp1032
g8
((lp1033
(F0.029999999998835847
I28
tp1034
a(F35.769999999998618
I26
tp1035
aF40.0
tp1036
sg40
((lp1037
F40.619999999998981
tp1038
sg73
((lp1039
(F1.180000000000291
I10
tp1040
a(F10.5
I9
tp1041
a(F17.710000000000946
I8
tp1042
a(F25.090000000000146
I7
tp1043
a(F31.579999999999927
I6
tp1044
aF40.350000000000364
tp1045
sg102
((lp1046
(F2.5
I27
tp1047
aF40.100000000000364
tp1048
sg131
((lp1049
(F0.52000000000043656
I25
tp1050
a(F15.039999999999054
I24
tp1051
a(F18.119999999998981
I23
tp1052
a(F30.389999999999418
I22
tp1053
a(F39.109999999998763
I19
tp1054
aF40.020000000000437
tp1055
ssba(imeasure_core
ProblemSetSolution
p1056
(dp1057
g3
g177
sg158
g1031
sg161
(dp1058
g180
((lp1059
F40.109999999998763
tp1060
sg226
((lp1061
F40.210000000000946
tp1062
sg325
((lp1063
F40.059999999999491
tp1064
sg283
((lp1065
F40.010000000000218
tp1066
sg376
((lp1067
F40.059999999999491
tp1068
ssba(imeasure_core
ProblemSetSolution
p1069
(dp1070
g3
g439
sg158
g1031
sg161
(dp1071
g442
((lp1072
F40.579999999999927
tp1073
sg487
((lp1074
(F31.260000000000218
I7
tp1075
aF47.290000000000873
tp1076
sg530
((lp1077
F40.859999999998763
tp1078
sg569
((lp1079
F43.790000000000873
tp1080
sg619
((lp1081
F40.559999999999491
tp1082
ssba(imeasure_core
ProblemSetSolution
p1083
(dp1084
g3
g4
sg158
S'AnytimeBest-d250_with_LinearHeuristic'
p1085
sg161
(dp1086
g8
((lp1087
(F0.020000000000436557
I28
tp1088
a(F35.700000000000728
I26
tp1089
aF40.0
tp1090
sg40
((lp1091
F40.619999999998981
tp1092
sg73
((lp1093
(F1.1700000000000728
I10
tp1094
a(F10.410000000001673
I9
tp1095
a(F17.56000000000131
I8
tp1096
a(F24.930000000000291
I7
tp1097
a(F31.450000000000728
I6
tp1098
aF40.220000000001164
tp1099
sg102
((lp1100
(F2.5200000000004366
I27
tp1101
aF40.079999999999927
tp1102
sg131
((lp1103
(F0.51000000000021828
I25
tp1104
a(F14.969999999999345
I24
tp1105
a(F18.049999999999272
I23
tp1106
a(F30.260000000000218
I22
tp1107
a(F38.969999999999345
I19
tp1108
aF40.020000000000437
tp1109
ssba(imeasure_core
ProblemSetSolution
p1110
(dp1111
g3
g177
sg158
g1085
sg161
(dp1112
g180
((lp1113
F40.029999999998836
tp1114
sg226
((lp1115
F40.130000000001019
tp1116
sg325
((lp1117
F40.180000000000291
tp1118
sg283
((lp1119
(F17.229999999999563
I226
tp1120
aF40.039999999999054
tp1121
sg376
((lp1122
F40.130000000001019
tp1123
ssba(imeasure_core
ProblemSetSolution
p1124
(dp1125
g3
g439
sg158
g1085
sg161
(dp1126
g442
((lp1127
F40.56000000000131
tp1128
sg487
((lp1129
(F31.239999999999782
I7
tp1130
aF47.319999999999709
tp1131
sg530
((lp1132
F41.079999999999927
tp1133
sg569
((lp1134
F43.940000000000509
tp1135
sg619
((lp1136
F40.959999999999127
tp1137
ssba(imeasure_core
ProblemSetSolution
p1138
(dp1139
g3
g4
sg158
S'AnytimeBest-d400_with_LinearHeuristic'
p1140
sg161
(dp1141
g8
((lp1142
(F0.020000000000436557
I28
tp1143
a(F35.75
I26
tp1144
aF40.0
tp1145
sg40
((lp1146
F40.600000000000364
tp1147
sg73
((lp1148
(F1.1700000000000728
I10
tp1149
a(F10.399999999999636
I9
tp1150
a(F17.569999999999709
I8
tp1151
a(F24.930000000000291
I7
tp1152
a(F31.399999999999636
I6
tp1153
aF40.359999999998763
tp1154
sg102
((lp1155
(F2.5
I27
tp1156
aF40.079999999999927
tp1157
sg131
((lp1158
(F0.51000000000021828
I25
tp1159
a(F14.990000000001601
I24
tp1160
a(F18.070000000001528
I23
tp1161
a(F30.280000000000655
I22
tp1162
a(F39.010000000000218
I19
tp1163
aF40.020000000000437
tp1164
ssba(imeasure_core
ProblemSetSolution
p1165
(dp1166
g3
g177
sg158
g1140
sg161
(dp1167
g180
((lp1168
F40.030000000000655
tp1169
sg226
((lp1170
F40.100000000000364
tp1171
sg325
((lp1172
F40.070000000001528
tp1173
sg283
((lp1174
(F17.229999999999563
I226
tp1175
aF40.099999999998545
tp1176
sg376
((lp1177
F40.079999999999927
tp1178
ssba(imeasure_core
ProblemSetSolution
p1179
(dp1180
g3
g439
sg158
g1140
sg161
(dp1181
g442
((lp1182
F40.459999999999127
tp1183
sg487
((lp1184
(F30.960000000000946
I7
tp1185
aF46.989999999999782
tp1186
sg530
((lp1187
F40.829999999999927
tp1188
sg569
((lp1189
F43.760000000000218
tp1190
sg619
((lp1191
F40.309999999999491
tp1192
ssba.