(lp0
(imeasure_core
ProblemSetSolution
p1
(dp2
S'roomset'
p3
(imeasure_core
RoomSet
p4
(dp5
S'rooms'
p6
(dp7
(iproblems
RoomID
p8
(dp9
S'dusts'
p10
I6
sS'obstacles'
p11
(I0
I4
tp12
sS'robots'
p13
I1
sS'height'
p14
I9
sS'width'
p15
I9
sS'seed'
p16
I1164115433906158532
sb(imulti_robot_problem
MultiRobotState
p17
(dp18
S'obstacle_locations'
p19
c__builtin__
frozenset
p20
((lp21
(I0
I1
tp22
a(I1
I2
tp23
a(I1
I3
tp24
a(I1
I4
tp25
ag12
atp26
Rp27
sg15
I9
sS'dirt_locations'
p28
g20
((lp29
(I6
I4
tp30
a(I1
I8
tp31
a(I1
I6
tp32
a(I1
I0
tp33
a(I8
I5
tp34
a(I3
I5
tp35
atp36
Rp37
sg13
((I4
I5
tp38
tp39
sg14
I9
sbs(iproblems
RoomID
p40
(dp41
g10
I8
sg11
(I6
I5
tp42
sg13
I5
sg14
I8
sg15
I7
sg16
I2175216119781798972
sb(imulti_robot_problem
MultiRobotState
p43
(dp44
g19
g20
((lp45
(I1
I2
tp46
a(I2
I6
tp47
a(I6
I7
tp48
a(I6
I6
tp49
a(I5
I7
tp50
a(I2
I3
tp51
a(I0
I4
tp52
a(I1
I0
tp53
ag42
atp54
Rp55
sg15
I7
sg28
g20
((lp56
(I5
I4
tp57
a(I5
I5
tp58
a(I4
I4
tp59
a(I0
I6
tp60
a(I0
I5
tp61
a(I1
I7
tp62
a(I4
I2
tp63
a(I0
I2
tp64
atp65
Rp66
sg13
((I1
I3
tp67
(I6
I4
tp68
(I3
I7
tp69
(I6
I0
tp70
(I2
I1
tp71
tp72
sg14
I8
sbs(iproblems
RoomID
p73
(dp74
g10
I9
sg11
(I6
I3
tp75
sg13
I4
sg14
I9
sg15
I10
sg16
I7002664860023442459
sb(imulti_robot_problem
MultiRobotState
p76
(dp77
g19
g20
((lp78
(I7
I4
tp79
a(I7
I3
tp80
ag75
a(I6
I5
tp81
a(I9
I7
tp82
atp83
Rp84
sg15
I10
sg28
g20
((lp85
(I0
I0
tp86
a(I6
I8
tp87
a(I2
I8
tp88
a(I5
I7
tp89
a(I2
I6
tp90
a(I4
I2
tp91
a(I5
I1
tp92
a(I8
I6
tp93
a(I8
I4
tp94
atp95
Rp96
sg13
((I7
I5
tp97
(I7
I6
tp98
(I1
I7
tp99
(I1
I6
tp100
tp101
sg14
I9
sbs(iproblems
RoomID
p102
(dp103
g10
I5
sg11
(I0
I4
tp104
sg13
I5
sg14
I7
sg15
I7
sg16
I8711387064946514083
sb(imulti_robot_problem
MultiRobotState
p105
(dp106
g19
g20
((lp107
(I0
I1
tp108
a(I2
I2
tp109
a(I0
I2
tp110
a(I1
I5
tp111
ag104
a(I0
I3
tp112
a(I2
I4
tp113
a(I6
I5
tp114
atp115
Rp116
sg15
I7
sg28
g20
((lp117
(I5
I6
tp118
a(I6
I4
tp119
a(I3
I2
tp120
a(I6
I1
tp121
a(I6
I6
tp122
atp123
Rp124
sg13
((I1
I1
tp125
(I6
I0
tp126
(I5
I0
tp127
(I1
I3
tp128
(I4
I5
tp129
tp130
sg14
I7
sbs(iproblems
RoomID
p131
(dp132
g10
I9
sg11
(I2
I2
tp133
sg13
I2
sg14
I9
sg15
I7
sg16
I3872982626502034966
sb(imulti_robot_problem
MultiRobotState
p134
(dp135
g19
g20
((lp136
(I4
I1
tp137
a(I2
I6
tp138
a(I3
I1
tp139
a(I5
I0
tp140
ag133
atp141
Rp142
sg15
I7
sg28
g20
((lp143
(I4
I7
tp144
a(I2
I8
tp145
a(I4
I4
tp146
a(I3
I2
tp147
a(I2
I1
tp148
a(I1
I4
tp149
a(I4
I2
tp150
a(I0
I3
tp151
a(I5
I8
tp152
atp153
Rp154
sg13
((I1
I6
tp155
(I1
I7
tp156
tp157
sg14
I9
sbssS'name'
p158
S'easy_roomset'
p159
sbsg158
S"AnytimeBeam-w20-gf(2, 'lin')_with_PowerHeuristic2"
p160
sS'solutions'
p161
(dp162
g8
((lp163
(F0.1500000000005457
I42
tp164
a(F16.520000000000437
I36
tp165
a(F24.199999999999818
I34
tp166
a(F34.230000000000473
I32
tp167
a(F35.480000000000473
I30
tp168
a(F36.5600000000004
I28
tp169
aF40.0
tp170
sg40
((lp171
(F0.5
I5
tp172
aF40.530000000000655
tp173
sg73
((lp174
(F0.55999999999949068
I11
tp175
aF40.229999999999563
tp176
sg102
((lp177
(F0.22000000000025466
I4
tp178
aF40.020000000000437
tp179
sg131
((lp180
(F0.5
I66
tp181
aF40.009999999999309
tp182
ssba(imeasure_core
ProblemSetSolution
p183
(dp184
g3
(imeasure_core
RoomSet
p185
(dp186
g6
(dp187
(iproblems
RoomID
p188
(dp189
g10
I6
sg11
(I5
I5
tp190
sg13
I3
sg14
I11
sg15
I11
sg16
I1164115433906158532
sb(imulti_robot_problem
MultiRobotState
p191
(dp192
g19
g20
((lp193
(I5
I4
tp194
a(I1
I3
tp195
a(I4
I3
tp196
a(I4
I8
tp197
a(I3
I0
tp198
a(I8
I0
tp199
a(I3
I2
tp200
a(I0
I7
tp201
a(I2
I1
tp202
a(I3
I9
tp203
a(I0
I5
tp204
a(I1
I4
tp205
a(I3
I7
tp206
a(I2
I5
tp207
a(I5
I3
tp208
a(I8
I3
tp209
a(I3
I1
tp210
ag190
a(I2
I0
tp211
a(I3
I10
tp212
a(I6
I10
tp213
a(I0
I6
tp214
a(I1
I8
tp215
a(I3
I6
tp216
a(I4
I5
tp217
a(I0
I2
tp218
atp219
Rp220
sg15
I11
sg28
g20
((lp221
(I7
I5
tp222
a(I8
I8
tp223
a(I4
I9
tp224
a(I4
I6
tp225
a(I10
I6
tp226
a(I8
I2
tp227
atp228
Rp229
sg13
((I5
I7
tp230
(I2
I10
tp231
(I2
I8
tp232
tp233
sg14
I11
sbs(iproblems
RoomID
p234
(dp235
g10
I8
sg11
(I5
I4
tp236
sg13
I4
sg14
I10
sg15
I9
sg16
I2175216119781798972
sb(imulti_robot_problem
MultiRobotState
p237
(dp238
g19
g20
((lp239
(I6
I6
tp240
a(I2
I8
tp241
a(I0
I7
tp242
a(I6
I2
tp243
a(I1
I6
tp244
a(I2
I5
tp245
a(I5
I5
tp246
a(I8
I1
tp247
a(I7
I6
tp248
a(I6
I3
tp249
a(I2
I2
tp250
a(I8
I6
tp251
a(I6
I4
tp252
ag236
a(I8
I2
tp253
a(I7
I1
tp254
a(I1
I4
tp255
a(I7
I5
tp256
a(I8
I7
tp257
a(I1
I0
tp258
a(I6
I5
tp259
a(I3
I3
tp260
a(I8
I3
tp261
a(I7
I0
tp262
a(I6
I8
tp263
a(I3
I4
tp264
a(I7
I4
tp265
a(I0
I6
tp266
a(I1
I8
tp267
a(I8
I8
tp268
a(I4
I3
tp269
a(I1
I7
tp270
a(I7
I8
tp271
a(I0
I2
tp272
atp273
Rp274
sg15
I9
sg28
g20
((lp275
(I6
I7
tp276
a(I2
I9
tp277
a(I5
I6
tp278
a(I3
I1
tp279
a(I8
I9
tp280
a(I0
I5
tp281
a(I0
I3
tp282
a(I5
I2
tp283
atp284
Rp285
sg13
((I2
I4
tp286
(I8
I5
tp287
(I4
I9
tp288
(I7
I7
tp289
tp290
sg14
I10
sbs(iproblems
RoomID
p291
(dp292
g10
I9
sg11
(I5
I3
tp293
sg13
I3
sg14
I9
sg15
I9
sg16
I1885758236351349410
sb(imulti_robot_problem
MultiRobotState
p294
(dp295
g19
g20
((lp296
(I4
I7
tp297
a(I5
I7
tp298
a(I7
I1
tp299
a(I5
I6
tp300
a(I5
I4
tp301
a(I0
I0
tp302
a(I2
I3
tp303
a(I4
I2
tp304
a(I8
I5
tp305
ag293
a(I6
I7
tp306
a(I5
I5
tp307
a(I4
I4
tp308
a(I1
I5
tp309
a(I4
I3
tp310
a(I0
I4
tp311
a(I1
I6
tp312
a(I3
I4
tp313
a(I2
I4
tp314
atp315
Rp316
sg15
I9
sg28
g20
((lp317
(I7
I3
tp318
a(I7
I0
tp319
a(I3
I0
tp320
a(I6
I1
tp321
a(I1
I4
tp322
a(I0
I5
tp323
a(I5
I0
tp324
a(I1
I1
tp325
a(I8
I4
tp326
atp327
Rp328
sg13
((I0
I1
tp329
(I2
I6
tp330
(I0
I2
tp331
tp332
sg14
I9
sbs(iproblems
RoomID
p333
(dp334
g10
I9
sg11
(I3
I0
tp335
sg13
I3
sg14
I9
sg15
I12
sg16
I4912931603392816429
sb(imulti_robot_problem
MultiRobotState
p336
(dp337
g19
g20
((lp338
(I6
I4
tp339
a(I4
I7
tp340
a(I0
I0
tp341
a(I4
I8
tp342
a(I5
I6
tp343
a(I2
I8
tp344
a(I0
I7
tp345
a(I4
I6
tp346
a(I7
I5
tp347
a(I4
I2
tp348
a(I0
I3
tp349
a(I7
I2
tp350
a(I6
I8
tp351
a(I10
I5
tp352
a(I5
I5
tp353
a(I7
I8
tp354
a(I4
I4
tp355
a(I5
I2
tp356
ag335
a(I8
I8
tp357
a(I5
I8
tp358
a(I1
I7
tp359
a(I4
I5
tp360
a(I8
I6
tp361
a(I5
I3
tp362
a(I4
I1
tp363
atp364
Rp365
sg15
I12
sg28
g20
((lp366
(I7
I3
tp367
a(I7
I1
tp368
a(I8
I1
tp369
a(I6
I3
tp370
a(I11
I8
tp371
a(I8
I7
tp372
a(I3
I7
tp373
a(I2
I5
tp374
a(I3
I4
tp375
atp376
Rp377
sg13
((I9
I1
tp378
(I1
I6
tp379
(I8
I4
tp380
tp381
sg14
I9
sbs(iproblems
RoomID
p382
(dp383
g10
I9
sg11
(I4
I3
tp384
sg13
I4
sg14
I11
sg15
I12
sg16
I7002664860023442459
sb(imulti_robot_problem
MultiRobotState
p385
(dp386
g19
g20
((lp387
(I11
I8
tp388
a(I0
I0
tp389
a(I10
I4
tp390
a(I3
I0
tp391
a(I9
I3
tp392
a(I6
I0
tp393
a(I2
I1
tp394
a(I8
I9
tp395
a(I9
I4
tp396
a(I5
I1
tp397
a(I8
I5
tp398
a(I5
I8
tp399
a(I8
I2
tp400
a(I7
I0
tp401
a(I8
I7
tp402
a(I3
I3
tp403
a(I1
I5
tp404
a(I8
I1
tp405
a(I9
I6
tp406
a(I3
I1
tp407
a(I9
I2
tp408
a(I2
I0
tp409
ag384
a(I2
I2
tp410
a(I9
I5
tp411
a(I5
I2
tp412
a(I2
I4
tp413
atp414
Rp415
sg15
I12
sg28
g20
((lp416
(I0
I1
tp417
a(I10
I8
tp418
a(I2
I8
tp419
a(I3
I10
tp420
a(I10
I6
tp421
a(I6
I2
tp422
a(I3
I7
tp423
a(I7
I8
tp424
a(I7
I9
tp425
atp426
Rp427
sg13
((I9
I7
tp428
(I8
I8
tp429
(I2
I9
tp430
(I1
I7
tp431
tp432
sg14
I11
sbssg158
S'mild_roomset'
p433
sbsg158
g160
sg161
(dp434
g188
((lp435
(F15.340000000000146
I155
tp436
a(F22.899999999999636
I154
tp437
aF40.039999999999964
tp438
sg234
((lp439
(F7.430000000000291
I169
tp440
aF40.079999999999927
tp441
sg291
((lp442
(F1.0900000000001455
I65
tp443
aF40.0
tp444
sg333
((lp445
(F0.11999999999989086
I11
tp446
aF40.050000000000182
tp447
sg382
((lp448
(F0.43999999999959982
I11
tp449
aF40.050000000000182
tp450
ssba(imeasure_core
ProblemSetSolution
p451
(dp452
g3
(imeasure_core
RoomSet
p453
(dp454
g6
(dp455
(iproblems
RoomID
p456
(dp457
g10
I11
sg11
(I7
I9
tp458
sg13
I5
sg14
I12
sg15
I12
sg16
I1164115433906158532
sb(imulti_robot_problem
MultiRobotState
p459
(dp460
g19
g20
((lp461
(I4
I7
tp462
a(I1
I3
tp463
a(I5
I6
tp464
a(I9
I3
tp465
a(I1
I4
tp466
a(I0
I5
tp467
a(I7
I11
tp468
a(I1
I0
tp469
a(I5
I8
tp470
a(I3
I3
tp471
a(I3
I1
tp472
a(I6
I7
tp473
a(I6
I8
tp474
a(I7
I8
tp475
a(I5
I7
tp476
ag458
a(I4
I1
tp477
a(I0
I2
tp478
atp479
Rp480
sg15
I12
sg28
g20
((lp481
(I4
I10
tp482
a(I9
I0
tp483
a(I2
I6
tp484
a(I5
I10
tp485
a(I9
I2
tp486
a(I0
I7
tp487
a(I8
I9
tp488
a(I1
I6
tp489
a(I8
I5
tp490
a(I4
I11
tp491
a(I5
I3
tp492
atp493
Rp494
sg13
((I1
I2
tp495
(I2
I11
tp496
(I2
I0
tp497
(I2
I9
tp498
(I11
I7
tp499
tp500
sg14
I12
sbs(iproblems
RoomID
p501
(dp502
g10
I10
sg11
(I0
I7
tp503
sg13
I7
sg14
I10
sg15
I10
sg16
I8711387064946514083
sb(imulti_robot_problem
MultiRobotState
p504
(dp505
g19
g20
((lp506
(I5
I9
tp507
a(I6
I9
tp508
a(I2
I6
tp509
a(I2
I9
tp510
a(I0
I6
tp511
ag503
a(I1
I5
tp512
a(I8
I8
tp513
a(I0
I5
tp514
a(I4
I3
tp515
a(I0
I4
tp516
a(I0
I3
tp517
a(I9
I7
tp518
a(I0
I2
tp519
a(I7
I9
tp520
atp521
Rp522
sg15
I10
sg28
g20
((lp523
(I9
I0
tp524
a(I3
I3
tp525
a(I7
I1
tp526
a(I8
I1
tp527
a(I9
I8
tp528
a(I4
I4
tp529
a(I9
I9
tp530
a(I3
I6
tp531
a(I1
I7
tp532
a(I8
I6
tp533
atp534
Rp535
sg13
((I1
I1
tp536
(I8
I0
tp537
(I7
I0
tp538
(I2
I5
tp539
(I6
I7
tp540
(I8
I9
tp541
(I5
I8
tp542
tp543
sg14
I10
sbs(iproblems
RoomID
p544
(dp545
g10
I14
sg11
(I0
I3
tp546
sg13
I7
sg14
I12
sg15
I13
sg16
I7002664860023442459
sb(imulti_robot_problem
MultiRobotState
p547
(dp548
g19
g20
((lp549
(I1
I2
tp550
a(I11
I4
tp551
a(I9
I8
tp552
a(I10
I6
tp553
ag546
a(I0
I8
tp554
a(I10
I3
tp555
a(I0
I1
tp556
a(I10
I5
tp557
a(I10
I7
tp558
a(I7
I8
tp559
a(I9
I9
tp560
a(I0
I9
tp561
a(I9
I5
tp562
a(I3
I4
tp563
a(I0
I2
tp564
a(I11
I6
tp565
a(I9
I7
tp566
atp567
Rp568
sg15
I13
sg28
g20
((lp569
(I6
I4
tp570
a(I11
I9
tp571
a(I4
I6
tp572
a(I2
I9
tp573
a(I5
I9
tp574
a(I12
I2
tp575
a(I3
I1
tp576
a(I3
I11
tp577
a(I10
I10
tp578
a(I7
I4
tp579
a(I0
I0
tp580
a(I11
I5
tp581
a(I2
I5
tp582
a(I12
I9
tp583
atp584
Rp585
sg13
((I2
I10
tp586
(I1
I8
tp587
(I8
I10
tp588
(I7
I2
tp589
(I3
I8
tp590
(I6
I2
tp591
(I7
I9
tp592
tp593
sg14
I12
sbs(iproblems
RoomID
p594
(dp595
g10
I14
sg11
(I5
I10
tp596
sg13
I5
sg14
I12
sg15
I10
sg16
I3872982626502034966
sb(imulti_robot_problem
MultiRobotState
p597
(dp598
g19
g20
((lp599
(I5
I9
tp600
a(I6
I9
tp601
a(I5
I7
tp602
a(I3
I2
tp603
ag596
a(I4
I10
tp604
a(I4
I8
tp605
a(I3
I11
tp606
a(I2
I1
tp607
a(I6
I2
tp608
a(I1
I4
tp609
a(I8
I7
tp610
a(I6
I8
tp611
a(I6
I7
tp612
a(I5
I8
tp613
a(I3
I5
tp614
a(I4
I9
tp615
a(I4
I6
tp616
a(I8
I1
tp617
a(I7
I1
tp618
a(I3
I8
tp619
a(I4
I3
tp620
a(I5
I2
tp621
a(I1
I1
tp622
atp623
Rp624
sg15
I10
sg28
g20
((lp625
(I5
I3
tp626
a(I3
I1
tp627
a(I8
I11
tp628
a(I9
I3
tp629
a(I0
I2
tp630
a(I6
I3
tp631
a(I3
I9
tp632
a(I2
I3
tp633
a(I9
I5
tp634
a(I7
I11
tp635
a(I0
I8
tp636
a(I3
I10
tp637
a(I7
I2
tp638
a(I9
I7
tp639
atp640
Rp641
sg13
((I1
I8
tp642
(I2
I9
tp643
(I1
I9
tp644
(I1
I5
tp645
(I6
I5
tp646
tp647
sg14
I12
sbs(iproblems
RoomID
p648
(dp649
g10
I10
sg11
(I6
I7
tp650
sg13
I6
sg14
I10
sg15
I13
sg16
I8999366892653588108
sb(imulti_robot_problem
MultiRobotState
p651
(dp652
g19
g20
((lp653
(I5
I4
tp654
ag650
a(I5
I5
tp655
a(I5
I6
tp656
a(I7
I6
tp657
a(I4
I2
tp658
a(I2
I3
tp659
a(I8
I6
tp660
a(I12
I1
tp661
a(I5
I3
tp662
a(I6
I5
tp663
a(I3
I3
tp664
atp665
Rp666
sg15
I13
sg28
g20
((lp667
(I6
I9
tp668
a(I7
I0
tp669
a(I5
I7
tp670
a(I12
I6
tp671
a(I2
I1
tp672
a(I0
I5
tp673
a(I10
I1
tp674
a(I0
I3
tp675
a(I7
I9
tp676
a(I3
I5
tp677
atp678
Rp679
sg13
((I12
I0
tp680
(I6
I1
tp681
(I2
I2
tp682
(I6
I4
tp683
(I4
I6
tp684
(I7
I1
tp685
tp686
sg14
I10
sbssg158
S'heavy_roomset'
p687
sbsg158
g160
sg161
(dp688
g456
((lp689
(F2.9700000000002547
I20
tp690
aF40.279999999999745
tp691
sg501
((lp692
(F13.170000000000073
I7
tp693
aF41.980000000000473
tp694
sg544
((lp695
F45.979999999999563
tp696
sg594
((lp697
F40.1899999999996
tp698
sg648
((lp699
(F9.3800000000001091
I20
tp700
aF40.150000000000546
tp701
ssba(imeasure_core
ProblemSetSolution
p702
(dp703
g3
g4
sg158
S"AnytimeBeam-w20-gf(4, 'lin')_with_PowerHeuristic2"
p704
sg161
(dp705
g8
((lp706
(F0.13999999999941792
I42
tp707
a(F8.9200000000000728
I36
tp708
a(F11.979999999999563
I34
tp709
a(F17.069999999999709
I32
tp710
a(F18.0
I30
tp711
a(F19.069999999999709
I28
tp712
a(F38.239999999999782
I26
tp713
aF40.0
tp714
sg40
((lp715
(F0.5
I5
tp716
aF40.019999999999527
tp717
sg73
((lp718
(F0.5500000000001819
I11
tp719
aF40.079999999999927
tp720
sg102
((lp721
(F0.22000000000025466
I4
tp722
aF40.020000000000437
tp723
sg131
((lp724
(F0.5
I66
tp725
aF40.0
tp726
ssba(imeasure_core
ProblemSetSolution
p727
(dp728
g3
g185
sg158
g704
sg161
(dp729
g188
((lp730
(F11.399999999999636
I155
tp731
a(F38.729999999999563
I154
tp732
aF40.0
tp733
sg234
((lp734
(F7.5199999999995271
I169
tp735
aF40.029999999999745
tp736
sg291
((lp737
(F1.0999999999994543
I65
tp738
aF40.0
tp739
sg333
((lp740
(F0.11999999999989086
I11
tp741
aF40.0
tp742
sg382
((lp743
(F0.42999999999938154
I11
tp744
aF40.0
tp745
ssba(imeasure_core
ProblemSetSolution
p746
(dp747
g3
g453
sg158
g704
sg161
(dp748
g456
((lp749
(F2.9700000000002547
I20
tp750
aF40.179999999999382
tp751
sg501
((lp752
(F13.190000000000509
I7
tp753
aF41.850000000000364
tp754
sg544
((lp755
F45.890000000000327
tp756
sg594
((lp757
F40.229999999999563
tp758
sg648
((lp759
(F9.4099999999998545
I20
tp760
aF40.340000000000146
tp761
ssba(imeasure_core
ProblemSetSolution
p762
(dp763
g3
g4
sg158
S"AnytimeBeam-w20-gf(8, 'lin')_with_PowerHeuristic2"
p764
sg161
(dp765
g8
((lp766
(F0.1499999999996362
I42
tp767
a(F4.7899999999999636
I36
tp768
a(F6.7200000000002547
I34
tp769
a(F8.8800000000001091
I32
tp770
a(F9.819999999999709
I30
tp771
a(F10.899999999999636
I28
tp772
a(F20.659999999999854
I26
tp773
aF40.0
tp774
sg40
((lp775
(F0.5
I5
tp776
aF40.289999999999964
tp777
sg73
((lp778
(F0.56000000000040018
I11
tp779
aF40.159999999999854
tp780
sg102
((lp781
(F0.23000000000047294
I4
tp782
aF40.170000000000073
tp783
sg131
((lp784
(F0.48999999999978172
I66
tp785
aF40.0
tp786
ssba(imeasure_core
ProblemSetSolution
p787
(dp788
g3
g185
sg158
g764
sg161
(dp789
g188
((lp790
(F11.100000000000364
I161
tp791
a(F19.550000000000182
I154
tp792
a(F27.789999999999964
I146
tp793
aF40.220000000000255
tp794
sg234
((lp795
(F7.4699999999993452
I169
tp796
aF40.019999999999527
tp797
sg291
((lp798
(F1.0900000000001455
I65
tp799
aF40.029999999999745
tp800
sg333
((lp801
(F0.11000000000058208
I11
tp802
aF40.030000000000655
tp803
sg382
((lp804
(F0.42999999999938154
I11
tp805
aF40.009999999999309
tp806
ssba(imeasure_core
ProblemSetSolution
p807
(dp808
g3
g453
sg158
g764
sg161
(dp809
g456
((lp810
(F2.9800000000004729
I20
tp811
aF40.140000000000327
tp812
sg501
((lp813
(F13.199999999999818
I7
tp814
aF41.949999999999818
tp815
sg544
((lp816
F45.909999999999854
tp817
sg594
((lp818
F40.260000000000218
tp819
sg648
((lp820
(F9.4200000000000728
I20
tp821
aF40.050000000000182
tp822
ssba(imeasure_core
ProblemSetSolution
p823
(dp824
g3
g4
sg158
S"AnytimeBeam-w20-gf(16, 'lin')_with_PowerHeuristic2"
p825
sg161
(dp826
g8
((lp827
(F0.1499999999996362
I42
tp828
a(F2.5999999999994543
I36
tp829
a(F3.3699999999998909
I34
tp830
a(F4.5399999999999636
I32
tp831
a(F5.4799999999995634
I30
tp832
a(F6.5500000000001819
I28
tp833
a(F12.409999999999854
I26
tp834
aF40.0
tp835
sg40
((lp836
(F0.5
I5
tp837
aF40.380000000000109
tp838
sg73
((lp839
(F0.5499999999992724
I11
tp840
aF40.109999999999673
tp841
sg102
((lp842
(F0.22000000000025466
I4
tp843
aF40.0
tp844
sg131
((lp845
(F0.5
I66
tp846
aF40.0
tp847
ssba(imeasure_core
ProblemSetSolution
p848
(dp849
g3
g185
sg158
g825
sg161
(dp850
g188
((lp851
(F9.6799999999993815
I161
tp852
a(F17.949999999999818
I146
tp853
aF40.079999999999927
tp854
sg234
((lp855
(F7.4399999999995998
I169
tp856
aF40.059999999999491
tp857
sg291
((lp858
(F1.0800000000008367
I65
tp859
aF40.0
tp860
sg333
((lp861
(F0.12000000000080036
I11
tp862
aF40.0
tp863
sg382
((lp864
(F0.44000000000050932
I11
tp865
aF40.140000000000327
tp866
ssba(imeasure_core
ProblemSetSolution
p867
(dp868
g3
g453
sg158
g825
sg161
(dp869
g456
((lp870
(F2.9600000000000364
I20
tp871
aF40.050000000000182
tp872
sg501
((lp873
(F13.090000000000146
I7
tp874
aF40.659999999999854
tp875
sg544
((lp876
F45.75
tp877
sg594
((lp878
F40.069999999999709
tp879
sg648
((lp880
(F9.3400000000001455
I20
tp881
aF40.0
tp882
ssba(imeasure_core
ProblemSetSolution
p883
(dp884
g3
g4
sg158
S"AnytimeBeam-w20-gf(2, 'lin')_with_LinearHeuristic"
p885
sg161
(dp886
g8
((lp887
(F0.020000000000436557
I28
tp888
aF40.0
tp889
sg40
((lp890
F40.150000000000546
tp891
sg73
((lp892
(F1.9899999999997817
I27
tp893
aF40.099999999999454
tp894
sg102
((lp895
(F0.72000000000025466
I10
tp896
aF40.029999999999745
tp897
sg131
((lp898
(F0.63000000000010914
I25
tp899
aF40.0
tp900
ssba(imeasure_core
ProblemSetSolution
p901
(dp902
g3
g185
sg158
g885
sg161
(dp903
g188
((lp904
F40.010000000000218
tp905
sg234
((lp906
F40.050000000000182
tp907
sg291
((lp908
(F8.2100000000000364
I226
tp909
aF40.039999999999964
tp910
sg333
((lp911
(F15.029999999999745
I282
tp912
aF40.0
tp913
sg382
((lp914
F40.050000000000182
tp915
ssba(imeasure_core
ProblemSetSolution
p916
(dp917
g3
g453
sg158
g885
sg161
(dp918
g456
((lp919
F40.019999999999527
tp920
sg501
((lp921
(F22.619999999999891
I7
tp922
aF45.390000000000327
tp923
sg544
((lp924
F51.840000000000146
tp925
sg594
((lp926
F40.239999999999782
tp927
sg648
((lp928
F40.389999999999418
tp929
ssba(imeasure_core
ProblemSetSolution
p930
(dp931
g3
g4
sg158
S"AnytimeBeam-w20-gf(4, 'lin')_with_LinearHeuristic"
p932
sg161
(dp933
g8
((lp934
(F0.020000000000436557
I28
tp935
aF40.0
tp936
sg40
((lp937
F40.199999999999818
tp938
sg73
((lp939
(F1.9900000000006912
I27
tp940
aF40.0
tp941
sg102
((lp942
(F0.73000000000047294
I10
tp943
aF40.190000000000509
tp944
sg131
((lp945
(F0.63000000000010914
I25
tp946
aF40.0
tp947
ssba(imeasure_core
ProblemSetSolution
p948
(dp949
g3
g185
sg158
g932
sg161
(dp950
g188
((lp951
F40.090000000000146
tp952
sg234
((lp953
F40.019999999999527
tp954
sg291
((lp955
(F8.2100000000000364
I226
tp956
aF40.009999999999309
tp957
sg333
((lp958
(F15.070000000001528
I282
tp959
aF40.06000000000131
tp960
sg382
((lp961
F40.159999999999854
tp962
ssba(imeasure_core
ProblemSetSolution
p963
(dp964
g3
g453
sg158
g932
sg161
(dp965
g456
((lp966
F40.100000000000364
tp967
sg501
((lp968
(F22.579999999999927
I7
tp969
aF45.340000000000146
tp970
sg544
((lp971
F52.239999999999782
tp972
sg594
((lp973
F40.059999999999491
tp974
sg648
((lp975
F40.059999999999491
tp976
ssba(imeasure_core
ProblemSetSolution
p977
(dp978
g3
g4
sg158
S"AnytimeBeam-w20-gf(8, 'lin')_with_LinearHeuristic"
p979
sg161
(dp980
g8
((lp981
(F0.020000000000436557
I28
tp982
aF40.0
tp983
sg40
((lp984
F40.139999999999418
tp985
sg73
((lp986
(F1.9800000000013824
I27
tp987
aF40.06000000000131
tp988
sg102
((lp989
(F0.71999999999934516
I10
tp990
aF40.350000000000364
tp991
sg131
((lp992
(F0.62999999999919964
I25
tp993
aF40.0
tp994
ssba(imeasure_core
ProblemSetSolution
p995
(dp996
g3
g185
sg158
g979
sg161
(dp997
g188
((lp998
F40.019999999998618
tp999
sg234
((lp1000
F40.0
tp1001
sg291
((lp1002
(F8.2000000000007276
I226
tp1003
aF40.0
tp1004
sg333
((lp1005
(F15.020000000000437
I282
tp1006
aF40.0
tp1007
sg382
((lp1008
F40.069999999999709
tp1009
ssba(imeasure_core
ProblemSetSolution
p1010
(dp1011
g3
g453
sg158
g979
sg161
(dp1012
g456
((lp1013
F40.010000000000218
tp1014
sg501
((lp1015
(F22.489999999999782
I7
tp1016
aF45.239999999999782
tp1017
sg544
((lp1018
F51.880000000001019
tp1019
sg594
((lp1020
F40.180000000000291
tp1021
sg648
((lp1022
F40.009999999998399
tp1023
ssba(imeasure_core
ProblemSetSolution
p1024
(dp1025
g3
g4
sg158
S"AnytimeBeam-w20-gf(16, 'lin')_with_LinearHeuristic"
p1026
sg161
(dp1027
g8
((lp1028
(F0.020000000000436557
I28
tp1029
aF40.0
tp1030
sg40
((lp1031
F40.140000000001237
tp1032
sg73
((lp1033
(F1.9899999999997817
I27
tp1034
aF40.399999999999636
tp1035
sg102
((lp1036
(F0.71999999999934516
I10
tp1037
aF40.619999999998981
tp1038
sg131
((lp1039
(F0.64000000000123691
I25
tp1040
aF40.0
tp1041
ssba(imeasure_core
ProblemSetSolution
p1042
(dp1043
g3
g185
sg158
g1026
sg161
(dp1044
g188
((lp1045
F40.020000000000437
tp1046
sg234
((lp1047
F40.079999999999927
tp1048
sg291
((lp1049
(F8.2199999999993452
I226
tp1050
aF40.090000000000146
tp1051
sg333
((lp1052
(F15.059999999999491
I282
tp1053
aF40.020000000000437
tp1054
sg382
((lp1055
F40.0
tp1056
ssba(imeasure_core
ProblemSetSolution
p1057
(dp1058
g3
g453
sg158
g1026
sg161
(dp1059
g456
((lp1060
F40.069999999999709
tp1061
sg501
((lp1062
(F22.510000000000218
I7
tp1063
aF46.420000000000073
tp1064
sg544
((lp1065
F51.799999999999272
tp1066
sg594
((lp1067
F40.040000000000873
tp1068
sg648
((lp1069
F40.360000000000582
tp1070
ssba.