(lp0
(imeasure_core
ProblemSetSolution
p1
(dp2
S'roomset'
p3
(imeasure_core
RoomSet
p4
(dp5
S'rooms'
p6
(dp7
(iproblems
RoomID
p8
(dp9
S'dusts'
p10
I8
sS'obstacles'
p11
(I5
I7
tp12
sS'robots'
p13
I5
sS'height'
p14
I9
sS'width'
p15
I10
sS'seed'
p16
I5594871498841892311
sb(imulti_robot_problem
MultiRobotState
p17
(dp18
S'obstacle_locations'
p19
c__builtin__
frozenset
p20
((lp21
(I4
I7
tp22
a(I3
I6
tp23
a(I5
I1
tp24
a(I1
I0
tp25
ag12
a(I8
I3
tp26
a(I5
I8
tp27
atp28
Rp29
sg15
I10
sS'dirt_locations'
p30
g20
((lp31
(I0
I1
tp32
a(I9
I0
tp33
a(I8
I2
tp34
a(I6
I0
tp35
a(I1
I1
tp36
a(I1
I5
tp37
a(I9
I4
tp38
a(I2
I4
tp39
atp40
Rp41
sg13
((I7
I6
tp42
(I8
I4
tp43
(I5
I4
tp44
(I7
I2
tp45
(I7
I8
tp46
tp47
sg14
I9
sbs(iproblems
RoomID
p48
(dp49
g10
I6
sg11
(I4
I4
tp50
sg13
I5
sg14
I7
sg15
I8
sg16
I8833747186876682921
sb(imulti_robot_problem
MultiRobotState
p51
(dp52
g19
g20
((lp53
(I2
I2
tp54
ag50
a(I3
I4
tp55
a(I3
I3
tp56
a(I3
I5
tp57
atp58
Rp59
sg15
I8
sg30
g20
((lp60
(I6
I4
tp61
a(I5
I4
tp62
a(I1
I3
tp63
a(I5
I1
tp64
a(I0
I3
tp65
a(I5
I3
tp66
atp67
Rp68
sg13
((I2
I1
tp69
(I6
I1
tp70
(I3
I1
tp71
(I5
I0
tp72
(I7
I3
tp73
tp74
sg14
I7
sbs(iproblems
RoomID
p75
(dp76
g10
I6
sg11
(I2
I3
tp77
sg13
I1
sg14
I8
sg15
I8
sg16
I1085536589165212248
sb(imulti_robot_problem
MultiRobotState
p78
(dp79
g19
g20
((lp80
(I1
I5
tp81
ag77
a(I1
I4
tp82
a(I1
I6
tp83
a(I0
I7
tp84
a(I4
I0
tp85
atp86
Rp87
sg15
I8
sg30
g20
((lp88
(I0
I1
tp89
a(I1
I2
tp90
a(I7
I3
tp91
a(I5
I1
tp92
a(I6
I0
tp93
a(I2
I1
tp94
atp95
Rp96
sg13
((I3
I2
tp97
tp98
sg14
I8
sbs(iproblems
RoomID
p99
(dp100
g10
I7
sg11
(I5
I2
tp101
sg13
I5
sg14
I8
sg15
I9
sg16
I365562409358139953
sb(imulti_robot_problem
MultiRobotState
p102
(dp103
g19
g20
((lp104
(I6
I4
tp105
a(I5
I5
tp106
a(I2
I1
tp107
a(I3
I7
tp108
a(I2
I5
tp109
ag101
a(I0
I2
tp110
a(I5
I3
tp111
atp112
Rp113
sg15
I9
sg30
g20
((lp114
(I2
I0
tp115
a(I1
I6
tp116
a(I8
I2
tp117
a(I4
I5
tp118
a(I8
I6
tp119
a(I5
I7
tp120
a(I3
I4
tp121
atp122
Rp123
sg13
((I4
I2
tp124
(I8
I3
tp125
(I6
I3
tp126
(I2
I4
tp127
(I6
I7
tp128
tp129
sg14
I8
sbs(iproblems
RoomID
p130
(dp131
g10
I5
sg11
(I6
I4
tp132
sg13
I2
sg14
I8
sg15
I10
sg16
I1662056218554549082
sb(imulti_robot_problem
MultiRobotState
p133
(dp134
g19
g20
((lp135
g132
a(I4
I6
tp136
a(I3
I6
tp137
a(I4
I4
tp138
a(I9
I6
tp139
a(I5
I5
tp140
atp141
Rp142
sg15
I10
sg30
g20
((lp143
(I4
I5
tp144
a(I8
I3
tp145
a(I8
I4
tp146
a(I7
I7
tp147
a(I3
I3
tp148
atp149
Rp150
sg13
((I9
I3
tp151
(I2
I0
tp152
tp153
sg14
I8
sbssS'name'
p154
S'easy_roomset'
p155
sbsg154
S'LimitedTimeAStar_with_PowerHeuristic2'
p156
sS'solutions'
p157
(dp158
g8
((lp159
F13.880000000000109
tp160
sg48
((lp161
F0.60999999999967258
tp162
sg75
((lp163
F0.03999999999996362
tp164
sg99
((lp165
F302.30000000000018
tp166
sg130
((lp167
F0.010000000000218279
tp168
ssba(imeasure_core
ProblemSetSolution
p169
(dp170
g3
(imeasure_core
RoomSet
p171
(dp172
g6
(dp173
(iproblems
RoomID
p174
(dp175
g10
I8
sg11
(I9
I3
tp176
sg13
I4
sg14
I11
sg15
I12
sg16
I5594871498841892311
sb(imulti_robot_problem
MultiRobotState
p177
(dp178
g19
g20
((lp179
(I5
I9
tp180
a(I6
I9
tp181
a(I11
I9
tp182
a(I9
I1
tp183
a(I4
I8
tp184
a(I8
I0
tp185
a(I6
I0
tp186
a(I9
I9
tp187
ag176
a(I9
I4
tp188
a(I4
I2
tp189
a(I3
I7
tp190
a(I5
I8
tp191
a(I7
I9
tp192
a(I10
I8
tp193
a(I9
I0
tp194
a(I7
I0
tp195
a(I6
I8
tp196
a(I9
I2
tp197
a(I5
I7
tp198
a(I8
I10
tp199
a(I2
I0
tp200
a(I5
I0
tp201
a(I0
I9
tp202
a(I10
I0
tp203
a(I10
I2
tp204
atp205
Rp206
sg15
I12
sg30
g20
((lp207
(I2
I6
tp208
a(I11
I5
tp209
a(I6
I1
tp210
a(I11
I1
tp211
a(I2
I1
tp212
a(I8
I8
tp213
a(I0
I2
tp214
a(I3
I5
tp215
atp216
Rp217
sg13
((I9
I7
tp218
(I10
I5
tp219
(I6
I5
tp220
(I8
I3
tp221
tp222
sg14
I11
sbs(iproblems
RoomID
p223
(dp224
g10
I6
sg11
(I9
I4
tp225
sg13
I4
sg14
I9
sg15
I10
sg16
I8833747186876682921
sb(imulti_robot_problem
MultiRobotState
p226
(dp227
g19
g20
((lp228
(I4
I7
tp229
a(I4
I8
tp230
a(I4
I5
tp231
a(I2
I1
tp232
a(I7
I5
tp233
a(I2
I3
tp234
ag225
a(I2
I5
tp235
a(I6
I5
tp236
a(I3
I5
tp237
a(I2
I7
tp238
a(I8
I3
tp239
a(I5
I5
tp240
a(I3
I4
tp241
a(I7
I4
tp242
a(I5
I6
tp243
a(I8
I8
tp244
a(I3
I6
tp245
a(I4
I1
tp246
a(I1
I1
tp247
atp248
Rp249
sg15
I10
sg30
g20
((lp250
(I3
I2
tp251
a(I6
I2
tp252
a(I7
I0
tp253
a(I1
I4
tp254
a(I0
I4
tp255
a(I0
I7
tp256
atp257
Rp258
sg13
((I3
I1
tp259
(I8
I1
tp260
(I3
I3
tp261
(I4
I2
tp262
tp263
sg14
I9
sbs(iproblems
RoomID
p264
(dp265
g10
I8
sg11
(I4
I6
tp266
sg13
I3
sg14
I9
sg15
I12
sg16
I4800841617172907184
sb(imulti_robot_problem
MultiRobotState
p267
(dp268
g19
g20
((lp269
(I5
I4
tp270
ag266
a(I8
I7
tp271
a(I6
I6
tp272
a(I4
I5
tp273
a(I9
I8
tp274
a(I9
I3
tp275
a(I6
I0
tp276
a(I2
I1
tp277
a(I10
I1
tp278
a(I4
I2
tp279
a(I8
I5
tp280
a(I7
I2
tp281
a(I5
I3
tp282
a(I8
I3
tp283
a(I3
I1
tp284
a(I3
I3
tp285
a(I11
I8
tp286
a(I7
I1
tp287
a(I11
I3
tp288
a(I6
I3
tp289
a(I0
I6
tp290
a(I4
I3
tp291
a(I8
I6
tp292
a(I8
I4
tp293
a(I9
I7
tp294
atp295
Rp296
sg15
I12
sg30
g20
((lp297
(I11
I4
tp298
a(I8
I2
tp299
a(I10
I7
tp300
a(I7
I6
tp301
a(I1
I4
tp302
a(I11
I0
tp303
a(I9
I2
tp304
a(I0
I2
tp305
atp306
Rp307
sg13
((I9
I1
tp308
(I0
I4
tp309
(I7
I4
tp310
tp311
sg14
I9
sbs(iproblems
RoomID
p312
(dp313
g10
I7
sg11
(I8
I4
tp314
sg13
I4
sg14
I10
sg15
I11
sg16
I365562409358139953
sb(imulti_robot_problem
MultiRobotState
p315
(dp316
g19
g20
((lp317
(I7
I3
tp318
a(I8
I7
tp319
a(I4
I8
tp320
a(I2
I8
tp321
a(I5
I9
tp322
a(I6
I2
tp323
a(I1
I6
tp324
a(I9
I4
tp325
a(I6
I4
tp326
a(I9
I6
tp327
a(I6
I5
tp328
a(I10
I8
tp329
a(I10
I5
tp330
a(I6
I7
tp331
a(I10
I7
tp332
a(I7
I6
tp333
a(I3
I1
tp334
a(I0
I5
tp335
a(I3
I8
tp336
a(I7
I5
tp337
a(I8
I6
tp338
ag314
a(I5
I2
tp339
a(I6
I1
tp340
a(I9
I7
tp341
atp342
Rp343
sg15
I11
sg30
g20
((lp344
(I5
I6
tp345
a(I6
I9
tp346
a(I1
I7
tp347
a(I4
I5
tp348
a(I10
I3
tp349
a(I0
I2
tp350
a(I2
I1
tp351
atp352
Rp353
sg13
((I10
I4
tp354
(I7
I4
tp355
(I3
I6
tp356
(I8
I9
tp357
tp358
sg14
I10
sbs(iproblems
RoomID
p359
(dp360
g10
I10
sg11
(I4
I8
tp361
sg13
I3
sg14
I11
sg15
I9
sg16
I6645345695289302126
sb(imulti_robot_problem
MultiRobotState
p362
(dp363
g19
g20
((lp364
(I5
I9
tp365
a(I3
I2
tp366
a(I3
I1
tp367
ag361
a(I4
I5
tp368
a(I1
I4
tp369
a(I4
I2
tp370
a(I3
I7
tp371
a(I4
I6
tp372
a(I3
I3
tp373
a(I4
I1
tp374
a(I6
I1
tp375
a(I4
I4
tp376
a(I2
I4
tp377
a(I3
I8
tp378
a(I1
I5
tp379
a(I4
I3
tp380
a(I3
I5
tp381
a(I3
I4
tp382
a(I1
I1
tp383
a(I8
I4
tp384
atp385
Rp386
sg15
I9
sg30
g20
((lp387
(I0
I1
tp388
a(I5
I4
tp389
a(I6
I7
tp390
a(I8
I2
tp391
a(I8
I7
tp392
a(I8
I8
tp393
a(I2
I3
tp394
a(I3
I6
tp395
a(I1
I0
tp396
a(I5
I5
tp397
atp398
Rp399
sg13
((I1
I6
tp400
(I0
I9
tp401
(I0
I5
tp402
tp403
sg14
I11
sbssg154
S'mild_roomset'
p404
sbsg154
g156
sg157
(dp405
g174
((lp406
F0.63000000000010914
tp407
sg223
((lp408
F301.38999999999942
tp409
sg359
((lp410
F13.349999999999454
tp411
sg312
((lp412
F0.16000000000076398
tp413
sg264
((lp414
F0.11999999999989086
tp415
ssba(imeasure_core
ProblemSetSolution
p416
(dp417
g3
(imeasure_core
RoomSet
p418
(dp419
g6
(dp420
(iproblems
RoomID
p421
(dp422
g10
I13
sg11
(I9
I8
tp423
sg13
I7
sg14
I12
sg15
I13
sg16
I5594871498841892311
sb(imulti_robot_problem
MultiRobotState
p424
(dp425
g19
g20
((lp426
(I5
I9
tp427
a(I6
I9
tp428
a(I1
I3
tp429
a(I10
I4
tp430
a(I4
I8
tp431
ag423
a(I1
I4
tp432
a(I11
I3
tp433
a(I8
I6
tp434
a(I9
I6
tp435
a(I5
I5
tp436
a(I9
I5
tp437
a(I6
I7
tp438
a(I6
I8
tp439
a(I6
I10
tp440
a(I8
I10
tp441
a(I5
I0
tp442
a(I10
I0
tp443
a(I7
I9
tp444
a(I9
I7
tp445
atp446
Rp447
sg15
I13
sg30
g20
((lp448
(I2
I7
tp449
a(I10
I5
tp450
a(I11
I5
tp451
a(I6
I1
tp452
a(I8
I0
tp453
a(I2
I1
tp454
a(I2
I0
tp455
a(I0
I10
tp456
a(I7
I10
tp457
a(I12
I10
tp458
a(I5
I2
tp459
a(I0
I2
tp460
a(I3
I5
tp461
atp462
Rp463
sg13
((I10
I8
tp464
(I11
I6
tp465
(I7
I5
tp466
(I9
I3
tp467
(I9
I11
tp468
(I12
I1
tp469
(I9
I9
tp470
tp471
sg14
I12
sbs(iproblems
RoomID
p472
(dp473
g10
I11
sg11
(I8
I7
tp474
sg13
I7
sg14
I10
sg15
I11
sg16
I8833747186876682921
sb(imulti_robot_problem
MultiRobotState
p475
(dp476
g19
g20
((lp477
(I5
I7
tp478
a(I4
I8
tp479
a(I4
I5
tp480
a(I2
I1
tp481
ag474
a(I5
I1
tp482
a(I5
I5
tp483
a(I6
I7
tp484
a(I4
I6
tp485
a(I8
I1
tp486
a(I4
I4
tp487
a(I6
I3
tp488
a(I8
I8
tp489
a(I3
I3
tp490
a(I7
I8
tp491
a(I10
I2
tp492
atp493
Rp494
sg15
I11
sg30
g20
((lp495
(I10
I5
tp496
a(I7
I6
tp497
a(I4
I7
tp498
a(I1
I4
tp499
a(I9
I9
tp500
a(I3
I8
tp501
a(I0
I5
tp502
a(I8
I6
tp503
a(I2
I5
tp504
a(I0
I8
tp505
a(I7
I2
tp506
atp507
Rp508
sg13
((I3
I1
tp509
(I9
I1
tp510
(I5
I2
tp511
(I4
I3
tp512
(I8
I0
tp513
(I10
I4
tp514
(I8
I5
tp515
tp516
sg14
I10
sbs(iproblems
RoomID
p517
(dp518
g10
I12
sg11
(I0
I5
tp519
sg13
I7
sg14
I11
sg15
I12
sg16
I365562409358139953
sb(imulti_robot_problem
MultiRobotState
p520
(dp521
g19
g20
((lp522
(I1
I3
tp523
a(I6
I6
tp524
a(I0
I4
tp525
a(I7
I5
tp526
ag519
a(I8
I7
tp527
a(I4
I2
tp528
a(I2
I9
tp529
a(I10
I7
tp530
a(I7
I8
tp531
a(I7
I6
tp532
a(I3
I1
tp533
a(I4
I8
tp534
a(I3
I9
tp535
a(I2
I2
tp536
a(I8
I6
tp537
a(I5
I2
tp538
a(I11
I6
tp539
a(I8
I4
tp540
atp541
Rp542
sg15
I12
sg30
g20
((lp543
(I3
I2
tp544
a(I11
I9
tp545
a(I4
I9
tp546
a(I10
I4
tp547
a(I5
I7
tp548
a(I2
I1
tp549
a(I0
I6
tp550
a(I1
I6
tp551
a(I7
I10
tp552
a(I3
I7
tp553
a(I5
I10
tp554
a(I0
I2
tp555
atp556
Rp557
sg13
((I6
I3
tp558
(I10
I5
tp559
(I3
I6
tp560
(I8
I10
tp561
(I4
I6
tp562
(I11
I3
tp563
(I1
I8
tp564
tp565
sg14
I11
sbs(iproblems
RoomID
p566
(dp567
g10
I11
sg11
(I4
I6
tp568
sg13
I5
sg14
I11
sg15
I11
sg16
I1085536589165212248
sb(imulti_robot_problem
MultiRobotState
p569
(dp570
g19
g20
((lp571
(I10
I5
tp572
a(I2
I6
tp573
ag568
a(I9
I3
tp574
a(I3
I2
tp575
a(I9
I9
tp576
a(I1
I8
tp577
a(I1
I9
tp578
a(I1
I7
tp579
a(I3
I7
tp580
a(I6
I9
tp581
a(I5
I8
tp582
a(I3
I3
tp583
atp584
Rp585
sg15
I11
sg30
g20
((lp586
(I0
I1
tp587
a(I4
I9
tp588
a(I10
I4
tp589
a(I10
I7
tp590
a(I6
I0
tp591
a(I0
I7
tp592
a(I2
I3
tp593
a(I1
I4
tp594
a(I2
I2
tp595
a(I10
I0
tp596
a(I0
I10
tp597
atp598
Rp599
sg13
((I5
I3
tp600
(I0
I2
tp601
(I3
I1
tp602
(I7
I1
tp603
(I9
I0
tp604
tp605
sg14
I11
sbs(iproblems
RoomID
p606
(dp607
g10
I13
sg11
(I3
I8
tp608
sg13
I5
sg14
I10
sg15
I10
sg16
I5338040351619750409
sb(imulti_robot_problem
MultiRobotState
p609
(dp610
g19
g20
((lp611
(I4
I7
tp612
a(I2
I6
tp613
a(I9
I1
tp614
a(I2
I8
tp615
a(I6
I1
tp616
a(I1
I4
tp617
ag608
a(I1
I6
tp618
a(I4
I3
tp619
a(I1
I7
tp620
a(I2
I5
tp621
a(I9
I7
tp622
a(I2
I4
tp623
a(I6
I8
tp624
atp625
Rp626
sg15
I10
sg30
g20
((lp627
(I6
I9
tp628
a(I1
I3
tp629
a(I4
I9
tp630
a(I4
I6
tp631
a(I6
I6
tp632
a(I8
I3
tp633
a(I2
I1
tp634
a(I8
I9
tp635
a(I1
I8
tp636
a(I7
I5
tp637
a(I3
I6
tp638
a(I9
I6
tp639
a(I4
I0
tp640
atp641
Rp642
sg13
((I2
I0
tp643
(I3
I5
tp644
(I5
I0
tp645
(I5
I2
tp646
(I4
I5
tp647
tp648
sg14
I10
sbssg154
S'heavy_roomset'
p649
sbsg154
g156
sg157
(dp650
g421
((lp651
F276.48999999999978
tp652
sg472
((lp653
F25.780000000000655
tp654
sg517
((lp655
F305.65999999999985
tp656
sg566
((lp657
F2.5500000000001819
tp658
sg606
((lp659
F302.4399999999996
tp660
ssba.