(lp0
(imeasure_core
ProblemSetSolution
p1
(dp2
S'roomset'
p3
(imeasure_core
RoomSet
p4
(dp5
S'rooms'
p6
(dp7
(iproblems
RoomID
p8
(dp9
S'dusts'
p10
I8
sS'obstacles'
p11
(I0
I4
tp12
sS'robots'
p13
I4
sS'height'
p14
I7
sS'width'
p15
I9
sS'seed'
p16
I1689441204489037471
sb(imulti_robot_problem
MultiRobotState
p17
(dp18
S'obstacle_locations'
p19
c__builtin__
frozenset
p20
((lp21
(I0
I1
tp22
a(I1
I2
tp23
a(I3
I2
tp24
a(I8
I1
tp25
a(I4
I3
tp26
ag12
a(I0
I3
tp27
a(I4
I0
tp28
atp29
Rp30
sg15
I9
sS'dirt_locations'
p31
g20
((lp32
(I0
I0
tp33
a(I7
I0
tp34
a(I7
I6
tp35
a(I1
I4
tp36
a(I6
I2
tp37
a(I2
I3
tp38
a(I5
I1
tp39
a(I3
I5
tp40
atp41
Rp42
sg13
((I6
I0
tp43
(I5
I4
tp44
(I6
I6
tp45
(I5
I0
tp46
tp47
sg14
I7
sbs(iproblems
RoomID
p48
(dp49
g10
I10
sg11
(I4
I5
tp50
sg13
I3
sg14
I8
sg15
I10
sg16
I6660334802794327005
sb(imulti_robot_problem
MultiRobotState
p51
(dp52
g19
g20
((lp53
(I9
I0
tp54
a(I2
I6
tp55
a(I1
I6
tp56
a(I3
I6
tp57
ag50
a(I8
I4
tp58
atp59
Rp60
sg15
I10
sg31
g20
((lp61
(I9
I1
tp62
a(I5
I6
tp63
a(I9
I6
tp64
a(I1
I5
tp65
a(I7
I5
tp66
a(I9
I4
tp67
a(I1
I7
tp68
a(I4
I1
tp69
a(I7
I2
tp70
a(I8
I2
tp71
atp72
Rp73
sg13
((I7
I3
tp74
(I4
I7
tp75
(I4
I2
tp76
tp77
sg14
I8
sbs(iproblems
RoomID
p78
(dp79
g10
I6
sg11
(I3
I0
tp80
sg13
I4
sg14
I10
sg15
I7
sg16
I3914746131789064238
sb(imulti_robot_problem
MultiRobotState
p81
(dp82
g19
g20
((lp83
g80
a(I6
I1
tp84
a(I2
I3
tp85
a(I5
I0
tp86
a(I2
I2
tp87
a(I0
I3
tp88
a(I0
I8
tp89
a(I4
I1
tp90
a(I3
I5
tp91
atp92
Rp93
sg15
I7
sg31
g20
((lp94
(I6
I5
tp95
a(I3
I3
tp96
a(I1
I7
tp97
a(I0
I4
tp98
a(I3
I4
tp99
a(I0
I7
tp100
atp101
Rp102
sg13
((I1
I8
tp103
(I5
I1
tp104
(I5
I3
tp105
(I1
I9
tp106
tp107
sg14
I10
sbs(iproblems
RoomID
p108
(dp109
g10
I7
sg11
(I2
I5
tp110
sg13
I5
sg14
I9
sg15
I9
sg16
I4640892725076559864
sb(imulti_robot_problem
MultiRobotState
p111
(dp112
g19
g20
((lp113
(I2
I6
tp114
a(I6
I7
tp115
a(I0
I6
tp116
a(I3
I1
tp117
a(I1
I5
tp118
a(I1
I6
tp119
a(I0
I4
tp120
ag110
a(I3
I4
tp121
atp122
Rp123
sg15
I9
sg31
g20
((lp124
(I3
I8
tp125
a(I7
I3
tp126
a(I7
I1
tp127
a(I8
I1
tp128
a(I8
I6
tp129
a(I4
I2
tp130
a(I5
I3
tp131
atp132
Rp133
sg13
((I6
I5
tp134
(I8
I4
tp135
(I7
I6
tp136
(I6
I0
tp137
(I6
I3
tp138
tp139
sg14
I9
sbs(iproblems
RoomID
p140
(dp141
g10
I6
sg11
(I8
I4
tp142
sg13
I4
sg14
I10
sg15
I9
sg16
I3119042104763040036
sb(imulti_robot_problem
MultiRobotState
p143
(dp144
g19
g20
((lp145
(I1
I2
tp146
a(I6
I7
tp147
a(I4
I8
tp148
a(I7
I6
tp149
a(I8
I5
tp150
ag142
atp151
Rp152
sg15
I9
sg31
g20
((lp153
(I6
I8
tp154
a(I8
I7
tp155
a(I6
I6
tp156
a(I3
I0
tp157
a(I7
I2
tp158
a(I6
I5
tp159
atp160
Rp161
sg13
((I5
I9
tp162
(I6
I1
tp163
(I3
I4
tp164
(I2
I7
tp165
tp166
sg14
I10
sbssS'name'
p167
S'easy_roomset'
p168
sbsg167
S'AnytimeBest-dinf_with_PowerHeuristic2'
p169
sS'solutions'
p170
(dp171
g8
((lp172
(F0.30999999999994543
I8
tp173
aF40.0300000000002
tp174
sg48
((lp175
(F0.23999999999978172
I23
tp176
aF40.0
tp177
sg78
((lp178
(F0.18999999999959982
I7
tp179
aF40.029999999999745
tp180
sg108
((lp181
(F1.2200000000002547
I6
tp182
aF40.050000000000182
tp183
sg140
((lp184
(F0.46000000000003638
I11
tp185
aF40.069999999999709
tp186
ssba(imeasure_core
ProblemSetSolution
p187
(dp188
g3
(imeasure_core
RoomSet
p189
(dp190
g6
(dp191
(iproblems
RoomID
p192
(dp193
g10
I6
sg11
(I5
I5
tp194
sg13
I4
sg14
I12
sg15
I11
sg16
I3119042104763040036
sb(imulti_robot_problem
MultiRobotState
p195
(dp196
g19
g20
((lp197
(I4
I6
tp198
a(I10
I4
tp199
a(I3
I0
tp200
a(I9
I8
tp201
a(I10
I6
tp202
a(I2
I1
tp203
a(I8
I9
tp204
a(I2
I3
tp205
a(I0
I10
tp206
a(I9
I5
tp207
a(I10
I3
tp208
a(I7
I9
tp209
ag194
a(I10
I7
tp210
a(I7
I8
tp211
a(I4
I4
tp212
a(I9
I2
tp213
a(I2
I4
tp214
a(I4
I5
tp215
a(I2
I2
tp216
a(I3
I3
tp217
a(I3
I4
tp218
a(I1
I1
tp219
atp220
Rp221
sg15
I11
sg31
g20
((lp222
(I8
I3
tp223
a(I8
I8
tp224
a(I5
I10
tp225
a(I9
I4
tp226
a(I8
I6
tp227
a(I10
I9
tp228
atp229
Rp230
sg13
((I6
I11
tp231
(I7
I2
tp232
(I2
I8
tp233
(I8
I10
tp234
tp235
sg14
I12
sbs(iproblems
RoomID
p236
(dp237
g10
I6
sg11
(I4
I8
tp238
sg13
I4
sg14
I12
sg15
I9
sg16
I3914746131789064238
sb(imulti_robot_problem
MultiRobotState
p239
(dp240
g19
g20
((lp241
(I4
I6
tp242
a(I6
I6
tp243
a(I4
I5
tp244
a(I5
I7
tp245
a(I0
I5
tp246
a(I0
I10
tp247
a(I8
I7
tp248
a(I7
I0
tp249
a(I0
I3
tp250
a(I8
I5
tp251
a(I4
I0
tp252
a(I2
I3
tp253
a(I6
I7
tp254
a(I3
I3
tp255
a(I8
I1
tp256
a(I7
I6
tp257
a(I3
I1
tp258
ag238
a(I5
I0
tp259
a(I2
I2
tp260
a(I0
I9
tp261
a(I8
I6
tp262
a(I5
I3
tp263
a(I6
I1
tp264
atp265
Rp266
sg15
I9
sg31
g20
((lp267
(I1
I8
tp268
a(I1
I9
tp269
a(I4
I3
tp270
a(I4
I4
tp271
a(I2
I11
tp272
a(I2
I10
tp273
atp274
Rp275
sg13
((I1
I10
tp276
(I6
I2
tp277
(I7
I3
tp278
(I1
I11
tp279
tp280
sg14
I12
sbs(iproblems
RoomID
p281
(dp282
g10
I9
sg11
(I9
I9
tp283
sg13
I3
sg14
I10
sg15
I10
sg16
I3273124617966689144
sb(imulti_robot_problem
MultiRobotState
p284
(dp285
g19
g20
((lp286
(I7
I3
tp287
a(I5
I4
tp288
a(I1
I3
tp289
a(I6
I4
tp290
a(I4
I5
tp291
a(I9
I8
tp292
a(I3
I2
tp293
a(I7
I5
tp294
a(I1
I6
tp295
a(I2
I5
tp296
a(I0
I8
tp297
a(I9
I6
tp298
a(I6
I5
tp299
a(I5
I3
tp300
a(I3
I3
tp301
a(I5
I5
tp302
a(I7
I6
tp303
ag283
a(I6
I3
tp304
a(I4
I3
tp305
a(I2
I3
tp306
a(I8
I6
tp307
a(I2
I4
tp308
a(I9
I7
tp309
atp310
Rp311
sg15
I10
sg31
g20
((lp312
(I7
I0
tp313
a(I3
I0
tp314
a(I6
I1
tp315
a(I3
I1
tp316
a(I5
I0
tp317
a(I2
I2
tp318
a(I3
I4
tp319
a(I1
I1
tp320
a(I8
I4
tp321
atp322
Rp323
sg13
((I0
I7
tp324
(I2
I1
tp325
(I6
I6
tp326
tp327
sg14
I10
sbs(iproblems
RoomID
p328
(dp329
g10
I9
sg11
(I9
I10
tp330
sg13
I3
sg14
I11
sg15
I10
sg16
I4253868527325451640
sb(imulti_robot_problem
MultiRobotState
p331
(dp332
g19
g20
((lp333
(I7
I3
tp334
a(I4
I7
tp335
a(I2
I6
tp336
a(I7
I10
tp337
a(I4
I8
tp338
a(I6
I9
tp339
ag330
a(I3
I9
tp340
a(I1
I6
tp341
a(I3
I7
tp342
a(I2
I5
tp343
a(I8
I5
tp344
a(I5
I8
tp345
a(I7
I9
tp346
a(I7
I1
tp347
a(I8
I10
tp348
a(I5
I0
tp349
a(I2
I3
tp350
a(I3
I5
tp351
a(I3
I4
tp352
a(I2
I4
tp353
atp354
Rp355
sg15
I10
sg31
g20
((lp356
(I8
I9
tp357
a(I5
I10
tp358
a(I6
I8
tp359
a(I7
I6
tp360
a(I3
I8
tp361
a(I0
I10
tp362
a(I9
I4
tp363
a(I0
I9
tp364
a(I5
I3
tp365
atp366
Rp367
sg13
((I3
I6
tp368
(I0
I8
tp369
(I2
I1
tp370
tp371
sg14
I11
sbs(iproblems
RoomID
p372
(dp373
g10
I5
sg11
(I5
I7
tp374
sg13
I4
sg14
I9
sg15
I12
sg16
I659184109953178577
sb(imulti_robot_problem
MultiRobotState
p375
(dp376
g19
g20
((lp377
(I7
I3
tp378
a(I4
I7
tp379
a(I8
I2
tp380
a(I6
I6
tp381
a(I4
I5
tp382
a(I7
I7
tp383
a(I11
I0
tp384
a(I7
I5
tp385
a(I9
I4
tp386
a(I2
I5
tp387
a(I0
I8
tp388
a(I10
I3
tp389
a(I7
I2
tp390
a(I4
I6
tp391
a(I6
I4
tp392
a(I4
I3
tp393
a(I3
I3
tp394
a(I6
I1
tp395
ag374
a(I6
I5
tp396
a(I3
I6
tp397
a(I8
I6
tp398
a(I3
I4
tp399
atp400
Rp401
sg15
I12
sg31
g20
((lp402
(I10
I8
tp403
a(I4
I1
tp404
a(I0
I2
tp405
a(I1
I6
tp406
a(I10
I4
tp407
atp408
Rp409
sg13
((I10
I0
tp410
(I7
I0
tp411
(I2
I6
tp412
(I8
I3
tp413
tp414
sg14
I9
sbssg167
S'mild_roomset'
p415
sbsg167
g169
sg170
(dp416
g192
((lp417
(F15.840000000000146
I164
tp418
aF40.050000000000182
tp419
sg236
((lp420
(F0.1999999999998181
I6
tp421
aF40.039999999999964
tp422
sg281
((lp423
(F16.170000000000073
I47
tp424
aF40.059999999999945
tp425
sg328
((lp426
(F0.38000000000010914
I32
tp427
aF40.010000000000218
tp428
sg372
((lp429
(F1.1499999999996362
I18
tp430
aF40.029999999999745
tp431
ssba(imeasure_core
ProblemSetSolution
p432
(dp433
g3
(imeasure_core
RoomSet
p434
(dp435
g6
(dp436
(iproblems
RoomID
p437
(dp438
g10
I13
sg11
(I3
I4
tp439
sg13
I6
sg14
I10
sg15
I12
sg16
I1689441204489037471
sb(imulti_robot_problem
MultiRobotState
p440
(dp441
g19
g20
((lp442
(I7
I3
tp443
a(I1
I3
tp444
a(I8
I7
tp445
a(I10
I6
tp446
a(I7
I7
tp447
a(I6
I2
tp448
a(I1
I6
tp449
a(I9
I4
tp450
a(I4
I2
tp451
a(I5
I1
tp452
a(I10
I3
tp453
a(I2
I7
tp454
a(I9
I3
tp455
a(I9
I5
tp456
a(I0
I5
tp457
a(I11
I5
tp458
a(I8
I5
tp459
a(I5
I2
tp460
a(I0
I2
tp461
a(I3
I8
tp462
a(I4
I3
tp463
a(I0
I4
tp464
ag439
a(I8
I6
tp465
a(I4
I1
tp466
a(I1
I1
tp467
a(I8
I4
tp468
atp469
Rp470
sg15
I12
sg31
g20
((lp471
(I8
I9
tp472
a(I9
I0
tp473
a(I0
I0
tp474
a(I10
I4
tp475
a(I4
I8
tp476
a(I8
I1
tp477
a(I11
I2
tp478
a(I5
I4
tp479
a(I7
I4
tp480
a(I11
I8
tp481
a(I2
I6
tp482
a(I2
I3
tp483
a(I1
I5
tp484
atp485
Rp486
sg13
((I8
I0
tp487
(I7
I6
tp488
(I8
I8
tp489
(I7
I0
tp490
(I2
I4
tp491
(I9
I9
tp492
tp493
sg14
I10
sbs(iproblems
RoomID
p494
(dp495
g10
I15
sg11
(I10
I7
tp496
sg13
I6
sg14
I11
sg15
I13
sg16
I6660334802794327005
sb(imulti_robot_problem
MultiRobotState
p497
(dp498
g19
g20
((lp499
(I4
I7
tp500
a(I11
I7
tp501
a(I5
I6
tp502
a(I2
I8
tp503
a(I9
I9
tp504
a(I9
I10
tp505
a(I10
I8
tp506
a(I9
I0
tp507
ag496
a(I5
I7
tp508
a(I8
I10
tp509
a(I3
I8
tp510
a(I1
I5
tp511
a(I1
I8
tp512
a(I1
I10
tp513
a(I10
I0
tp514
a(I2
I4
tp515
atp516
Rp517
sg15
I13
sg31
g20
((lp518
(I2
I7
tp519
a(I12
I2
tp520
a(I6
I9
tp521
a(I6
I10
tp522
a(I12
I1
tp523
a(I2
I9
tp524
a(I12
I0
tp525
a(I12
I9
tp526
a(I11
I2
tp527
a(I10
I6
tp528
a(I1
I7
tp529
a(I12
I5
tp530
a(I6
I3
tp531
a(I10
I3
tp532
a(I12
I8
tp533
atp534
Rp535
sg13
((I9
I5
tp536
(I5
I10
tp537
(I5
I3
tp538
(I5
I1
tp539
(I9
I3
tp540
(I7
I8
tp541
tp542
sg14
I11
sbs(iproblems
RoomID
p543
(dp544
g10
I11
sg11
(I6
I1
tp545
sg13
I7
sg14
I13
sg15
I10
sg16
I3914746131789064238
sb(imulti_robot_problem
MultiRobotState
p546
(dp547
g19
g20
((lp548
(I0
I0
tp549
a(I7
I0
tp550
a(I9
I1
tp551
a(I2
I9
tp552
a(I7
I1
tp553
a(I9
I2
tp554
ag545
a(I6
I3
tp555
a(I8
I1
tp556
a(I7
I2
tp557
a(I5
I1
tp558
a(I7
I8
tp559
a(I6
I5
tp560
a(I5
I5
tp561
atp562
Rp563
sg15
I10
sg31
g20
((lp564
(I4
I7
tp565
a(I3
I3
tp566
a(I4
I5
tp567
a(I4
I4
tp568
a(I1
I4
tp569
a(I0
I11
tp570
a(I0
I5
tp571
a(I0
I10
tp572
a(I8
I7
tp573
a(I9
I5
tp574
a(I5
I3
tp575
atp576
Rp577
sg13
((I1
I11
tp578
(I8
I4
tp579
(I2
I12
tp580
(I1
I9
tp581
(I2
I11
tp582
(I5
I4
tp583
(I5
I0
tp584
tp585
sg14
I13
sbs(iproblems
RoomID
p586
(dp587
g10
I11
sg11
(I7
I6
tp588
sg13
I7
sg14
I13
sg15
I12
sg16
I3119042104763040036
sb(imulti_robot_problem
MultiRobotState
p589
(dp590
g19
g20
((lp591
(I5
I4
tp592
a(I4
I5
tp593
a(I9
I8
tp594
a(I10
I6
tp595
a(I9
I0
tp596
a(I6
I0
tp597
a(I8
I9
tp598
a(I2
I12
tp599
a(I9
I6
tp600
a(I10
I5
tp601
a(I5
I10
tp602
a(I10
I7
tp603
ag588
a(I9
I9
tp604
a(I8
I6
tp605
a(I11
I6
tp606
a(I9
I7
tp607
atp608
Rp609
sg15
I12
sg31
g20
((lp610
(I1
I2
tp611
a(I4
I4
tp612
a(I5
I11
tp613
a(I5
I6
tp614
a(I3
I4
tp615
a(I8
I0
tp616
a(I8
I10
tp617
a(I0
I11
tp618
a(I2
I3
tp619
a(I7
I8
tp620
a(I4
I0
tp621
atp622
Rp623
sg13
((I7
I12
tp624
(I8
I2
tp625
(I4
I6
tp626
(I3
I9
tp627
(I9
I11
tp628
(I11
I9
tp629
(I9
I3
tp630
tp631
sg14
I13
sbs(iproblems
RoomID
p632
(dp633
g10
I12
sg11
(I8
I7
tp634
sg13
I7
sg14
I12
sg15
I12
sg16
I4640892725076559864
sb(imulti_robot_problem
MultiRobotState
p635
(dp636
g19
g20
((lp637
(I5
I9
tp638
a(I6
I9
tp639
a(I4
I8
tp640
a(I5
I6
tp641
a(I2
I8
tp642
a(I6
I0
tp643
a(I2
I10
tp644
a(I0
I9
tp645
a(I6
I2
tp646
ag634
a(I3
I7
tp647
a(I5
I1
tp648
a(I1
I0
tp649
a(I8
I5
tp650
a(I7
I9
tp651
a(I7
I4
tp652
a(I7
I0
tp653
a(I6
I8
tp654
a(I2
I9
tp655
a(I0
I6
tp656
a(I7
I6
tp657
a(I5
I7
tp658
a(I8
I10
tp659
a(I0
I2
tp660
a(I6
I3
tp661
a(I2
I0
tp662
a(I1
I8
tp663
a(I4
I5
tp664
a(I5
I2
tp665
a(I1
I1
tp666
a(I9
I7
tp667
atp668
Rp669
sg15
I12
sg31
g20
((lp670
(I2
I7
tp671
a(I6
I4
tp672
a(I11
I10
tp673
a(I4
I6
tp674
a(I11
I8
tp675
a(I11
I2
tp676
a(I9
I3
tp677
a(I3
I2
tp678
a(I8
I8
tp679
a(I0
I5
tp680
a(I10
I3
tp681
a(I5
I3
tp682
atp683
Rp684
sg13
((I8
I6
tp685
(I11
I5
tp686
(I10
I8
tp687
(I9
I0
tp688
(I9
I4
tp689
(I9
I2
tp690
(I4
I11
tp691
tp692
sg14
I12
sbssg167
S'heavy_roomset'
p693
sbsg167
g169
sg170
(dp694
g437
((lp695
F40.2199999999998
tp696
sg494
((lp697
(F17.130000000000109
I11
tp698
aF40.170000000000073
tp699
sg543
((lp700
F41.019999999999982
tp701
sg586
((lp702
F50.0
tp703
sg632
((lp704
F40.740000000000236
tp705
ssba(imeasure_core
ProblemSetSolution
p706
(dp707
g3
g4
sg167
S'AnytimeBest-dinf_with_LinearHeuristic'
p708
sg170
(dp709
g8
((lp710
F40.340000000000146
tp711
sg48
((lp712
F40.069999999999709
tp713
sg78
((lp714
F40.269999999999982
tp715
sg108
((lp716
(F1.9400000000000546
I6
tp717
aF40.830000000000382
tp718
sg140
((lp719
(F34.649999999999636
I165
tp720
aF40.2199999999998
tp721
ssba(imeasure_core
ProblemSetSolution
p722
(dp723
g3
g189
sg167
g708
sg170
(dp724
g192
((lp725
F40.599999999999909
tp726
sg236
((lp727
(F0.46999999999979991
I12
tp728
a(F4.569999999999709
I11
tp729
a(F7.9600000000000364
I10
tp730
a(F18.319999999999709
I9
tp731
a(F28.259999999999764
I8
tp732
aF40.25
tp733
sg281
((lp734
F40.029999999999745
tp735
sg328
((lp736
F40.050000000000182
tp737
sg372
((lp738
F40.049999999999727
tp739
ssba(imeasure_core
ProblemSetSolution
p740
(dp741
g3
g434
sg167
g708
sg170
(dp742
g437
((lp743
F40.300000000000182
tp744
sg494
((lp745
F41.630000000000109
tp746
sg543
((lp747
F46.590000000000146
tp748
sg586
((lp749
F56.889999999999873
tp750
sg632
((lp751
F40.799999999999727
tp752
ssba.