(lp0
(imeasure_core
ProblemSetSolution
p1
(dp2
S'roomset'
p3
(imeasure_core
RoomSet
p4
(dp5
S'rooms'
p6
(dp7
(iproblems
RoomID
p8
(dp9
S'dusts'
p10
I6
sS'obstacles'
p11
(I3
I2
tp12
sS'robots'
p13
I1
sS'height'
p14
I9
sS'width'
p15
I10
sS'seed'
p16
I6832892905590973747
sb(imulti_robot_problem
MultiRobotState
p17
(dp18
S'obstacle_locations'
p19
c__builtin__
frozenset
p20
((lp21
(I3
I0
tp22
a(I2
I0
tp23
ag12
a(I3
I1
tp24
atp25
Rp26
sg15
I10
sS'dirt_locations'
p27
g20
((lp28
(I1
I2
tp29
a(I2
I7
tp30
a(I0
I0
tp31
a(I0
I5
tp32
a(I5
I6
tp33
a(I0
I2
tp34
atp35
Rp36
sg13
((I8
I4
tp37
tp38
sg14
I9
sbs(iproblems
RoomID
p39
(dp40
g10
I7
sg11
(I3
I5
tp41
sg13
I5
sg14
I7
sg15
I9
sg16
I6924344268699531175
sb(imulti_robot_problem
MultiRobotState
p42
(dp43
g19
g20
((lp44
(I2
I6
tp45
a(I1
I6
tp46
a(I3
I6
tp47
ag41
atp48
Rp49
sg15
I9
sg27
g20
((lp50
(I1
I2
tp51
a(I0
I0
tp52
a(I5
I0
tp53
a(I7
I1
tp54
a(I8
I6
tp55
a(I3
I4
tp56
a(I6
I5
tp57
atp58
Rp59
sg13
((I4
I0
tp60
(I7
I2
tp61
(I1
I1
tp62
(I6
I1
tp63
(I8
I4
tp64
tp65
sg14
I7
sbs(iproblems
RoomID
p66
(dp67
g10
I8
sg11
(I5
I0
tp68
sg13
I4
sg14
I10
sg15
I10
sg16
I3562373307524659409
sb(imulti_robot_problem
MultiRobotState
p69
(dp70
g19
g20
((lp71
(I6
I3
tp72
a(I6
I7
tp73
ag68
a(I3
I6
tp74
a(I8
I1
tp75
a(I7
I0
tp76
a(I6
I0
tp77
atp78
Rp79
sg15
I10
sg27
g20
((lp80
(I1
I3
tp81
a(I2
I9
tp82
a(I7
I6
tp83
a(I7
I7
tp84
a(I8
I9
tp85
a(I1
I8
tp86
a(I1
I6
tp87
a(I2
I2
tp88
atp89
Rp90
sg13
((I9
I8
tp91
(I6
I5
tp92
(I5
I1
tp93
(I8
I8
tp94
tp95
sg14
I10
sbs(iproblems
RoomID
p96
(dp97
g10
I6
sg11
(I3
I1
tp98
sg13
I4
sg14
I8
sg15
I7
sg16
I807570059310326234
sb(imulti_robot_problem
MultiRobotState
p99
(dp100
g19
g20
((lp101
(I6
I3
tp102
a(I4
I2
tp103
ag98
a(I5
I3
tp104
atp105
Rp106
sg15
I7
sg27
g20
((lp107
(I3
I2
tp108
a(I6
I7
tp109
a(I4
I6
tp110
a(I0
I4
tp111
a(I1
I0
tp112
a(I5
I2
tp113
atp114
Rp115
sg13
((I1
I2
tp116
(I0
I1
tp117
(I3
I7
tp118
(I2
I4
tp119
tp120
sg14
I8
sbs(iproblems
RoomID
p121
(dp122
g10
I5
sg11
(I4
I7
tp123
sg13
I3
sg14
I9
sg15
I7
sg16
I2524308075868763041
sb(imulti_robot_problem
MultiRobotState
p124
(dp125
g19
g20
((lp126
(I1
I2
tp127
a(I3
I8
tp128
ag123
a(I4
I6
tp129
a(I4
I1
tp130
a(I2
I4
tp131
a(I3
I5
tp132
atp133
Rp134
sg15
I7
sg27
g20
((lp135
(I2
I6
tp136
a(I5
I2
tp137
a(I3
I3
tp138
a(I0
I7
tp139
a(I3
I6
tp140
atp141
Rp142
sg13
((I0
I6
tp143
(I3
I1
tp144
(I4
I8
tp145
tp146
sg14
I9
sbssS'name'
p147
S'easy_roomset'
p148
sbsg147
S"AnytimeBeam-w20-gf(1.3, 'exp')_with_PowerHeuristic2"
p149
sS'solutions'
p150
(dp151
g8
((lp152
(F0.16000000000349246
I50
tp153
a(F0.75
I44
tp154
a(F3.25
I43
tp155
a(F4.1900000000023283
I42
tp156
a(F5.1500000000014552
I38
tp157
a(F6.8100000000049477
I37
tp158
a(F8.4100000000034925
I35
tp159
a(F9.7099999999991269
I33
tp160
a(F10.730000000003201
I31
tp161
a(F12.569999999999709
I29
tp162
a(F15.230000000003201
I27
tp163
a(F18.779999999998836
I25
tp164
a(F23.330000000001746
I22
tp165
a(F25.980000000003201
I20
tp166
aF40.0
tp167
sg39
((lp168
(F2.0500000000029104
I7
tp169
aF41.480000000003201
tp170
sg66
((lp171
(F0.48999999999796273
I10
tp172
aF40.080000000001746
tp173
sg96
((lp174
F40.169999999998254
tp175
sg121
((lp176
(F0.059999999997671694
I7
tp177
aF40.0
tp178
ssba(imeasure_core
ProblemSetSolution
p179
(dp180
g3
(imeasure_core
RoomSet
p181
(dp182
g6
(dp183
(iproblems
RoomID
p184
(dp185
g10
I6
sg11
(I6
I2
tp186
sg13
I3
sg14
I11
sg15
I12
sg16
I6832892905590973747
sb(imulti_robot_problem
MultiRobotState
p187
(dp188
g19
g20
((lp189
(I6
I4
tp190
a(I2
I6
tp191
a(I4
I3
tp192
a(I3
I0
tp193
a(I2
I8
tp194
a(I7
I7
tp195
a(I7
I5
tp196
a(I4
I2
tp197
a(I5
I3
tp198
a(I4
I1
tp199
a(I7
I6
tp200
a(I6
I3
tp201
a(I4
I5
tp202
ag186
a(I3
I6
tp203
a(I8
I6
tp204
a(I4
I0
tp205
a(I5
I2
tp206
a(I2
I4
tp207
atp208
Rp209
sg15
I12
sg27
g20
((lp210
(I1
I6
tp211
a(I6
I8
tp212
a(I2
I9
tp213
a(I0
I3
tp214
a(I0
I2
tp215
a(I7
I9
tp216
atp217
Rp218
sg13
((I10
I6
tp219
(I1
I2
tp220
(I0
I0
tp221
tp222
sg14
I11
sbs(iproblems
RoomID
p223
(dp224
g10
I7
sg11
(I3
I1
tp225
sg13
I4
sg14
I9
sg15
I11
sg16
I6924344268699531175
sb(imulti_robot_problem
MultiRobotState
p226
(dp227
g19
g20
((lp228
(I4
I7
tp229
ag225
a(I6
I6
tp230
a(I5
I6
tp231
a(I2
I8
tp232
a(I9
I8
tp233
a(I7
I7
tp234
a(I0
I7
tp235
a(I7
I5
tp236
a(I8
I7
tp237
a(I0
I3
tp238
a(I0
I8
tp239
a(I8
I5
tp240
a(I6
I3
tp241
a(I5
I2
tp242
a(I7
I6
tp243
a(I4
I8
tp244
a(I7
I4
tp245
a(I3
I8
tp246
a(I0
I6
tp247
a(I8
I8
tp248
a(I4
I1
tp249
a(I9
I7
tp250
atp251
Rp252
sg15
I11
sg27
g20
((lp253
(I8
I3
tp254
a(I1
I3
tp255
a(I4
I6
tp256
a(I4
I3
tp257
a(I0
I4
tp258
a(I10
I5
tp259
a(I0
I0
tp260
atp261
Rp262
sg13
((I6
I0
tp263
(I9
I3
tp264
(I1
I1
tp265
(I8
I1
tp266
tp267
sg14
I9
sbs(iproblems
RoomID
p268
(dp269
g10
I10
sg11
(I6
I8
tp270
sg13
I3
sg14
I11
sg15
I10
sg16
I7391799147228763464
sb(imulti_robot_problem
MultiRobotState
p271
(dp272
g19
g20
((lp273
(I5
I9
tp274
a(I4
I7
tp275
a(I4
I6
tp276
a(I4
I8
tp277
a(I4
I5
tp278
a(I6
I9
tp279
a(I0
I7
tp280
a(I1
I4
tp281
a(I3
I7
tp282
a(I5
I8
tp283
ag270
a(I2
I7
tp284
a(I3
I8
tp285
a(I4
I9
tp286
a(I3
I3
tp287
a(I9
I2
tp288
a(I6
I3
tp289
a(I3
I6
tp290
a(I1
I7
tp291
a(I0
I9
tp292
a(I7
I8
tp293
a(I0
I2
tp294
a(I1
I9
tp295
atp296
Rp297
sg15
I10
sg27
g20
((lp298
(I8
I3
tp299
a(I5
I10
tp300
a(I5
I5
tp301
a(I2
I8
tp302
a(I7
I6
tp303
a(I6
I0
tp304
a(I2
I10
tp305
a(I9
I4
tp306
a(I1
I10
tp307
a(I0
I3
tp308
atp309
Rp310
sg13
((I3
I10
tp311
(I7
I1
tp312
(I1
I5
tp313
tp314
sg14
I11
sbs(iproblems
RoomID
p315
(dp316
g10
I8
sg11
(I11
I7
tp317
sg13
I4
sg14
I12
sg15
I12
sg16
I3562373307524659409
sb(imulti_robot_problem
MultiRobotState
p318
(dp319
g19
g20
((lp320
(I6
I4
tp321
a(I6
I9
tp322
a(I3
I2
tp323
a(I9
I1
tp324
a(I6
I6
tp325
a(I5
I6
tp326
a(I9
I8
tp327
a(I3
I11
tp328
a(I7
I1
tp329
ag317
a(I8
I9
tp330
a(I3
I9
tp331
a(I11
I8
tp332
a(I10
I2
tp333
a(I4
I2
tp334
a(I7
I2
tp335
a(I10
I8
tp336
a(I8
I3
tp337
a(I8
I1
tp338
a(I3
I10
tp339
a(I5
I11
tp340
a(I6
I3
tp341
a(I6
I11
tp342
a(I6
I5
tp343
a(I7
I10
tp344
a(I4
I8
tp345
a(I11
I6
tp346
a(I4
I11
tp347
atp348
Rp349
sg15
I12
sg27
g20
((lp350
(I7
I3
tp351
a(I1
I3
tp352
a(I10
I11
tp353
a(I1
I7
tp354
a(I8
I8
tp355
a(I2
I2
tp356
a(I3
I7
tp357
a(I7
I9
tp358
atp359
Rp360
sg13
((I11
I10
tp361
(I7
I6
tp362
(I10
I10
tp363
(I2
I10
tp364
tp365
sg14
I12
sbs(iproblems
RoomID
p366
(dp367
g10
I6
sg11
(I2
I5
tp368
sg13
I4
sg14
I10
sg15
I9
sg16
I807570059310326234
sb(imulti_robot_problem
MultiRobotState
p369
(dp370
g19
g20
((lp371
(I6
I4
tp372
a(I3
I2
tp373
a(I1
I3
tp374
a(I8
I2
tp375
a(I2
I3
tp376
a(I3
I8
tp377
ag368
a(I1
I0
tp378
a(I1
I2
tp379
a(I7
I4
tp380
a(I4
I1
tp381
a(I3
I3
tp382
a(I3
I4
tp383
a(I1
I1
tp384
a(I6
I3
tp385
a(I2
I0
tp386
a(I1
I8
tp387
a(I2
I2
tp388
a(I5
I2
tp389
a(I0
I2
tp390
a(I8
I4
tp391
atp392
Rp393
sg15
I9
sg27
g20
((lp394
(I7
I3
tp395
a(I2
I6
tp396
a(I1
I6
tp397
a(I4
I2
tp398
a(I5
I8
tp399
a(I7
I9
tp400
atp401
Rp402
sg13
((I6
I2
tp403
(I0
I1
tp404
(I3
I9
tp405
(I3
I5
tp406
tp407
sg14
I10
sbssg147
S'mild_roomset'
p408
sbsg147
g149
sg150
(dp409
g184
((lp410
(F0.11999999999534339
I10
tp411
aF40.019999999996799
tp412
sg223
((lp413
(F5.3399999999965075
I79
tp414
aF40.0
tp415
sg268
((lp416
(F0.55000000000291038
I36
tp417
aF40.0
tp418
sg315
((lp419
(F3.1200000000026193
I75
tp420
aF40.0
tp421
sg366
((lp422
(F5.4100000000034925
I108
tp423
aF40.069999999999709
tp424
ssba(imeasure_core
ProblemSetSolution
p425
(dp426
g3
(imeasure_core
RoomSet
p427
(dp428
g6
(dp429
(iproblems
RoomID
p430
(dp431
g10
I11
sg11
(I4
I2
tp432
sg13
I5
sg14
I12
sg15
I13
sg16
I6832892905590973747
sb(imulti_robot_problem
MultiRobotState
p433
(dp434
g19
g20
((lp435
(I5
I9
tp436
a(I6
I9
tp437
a(I8
I2
tp438
a(I3
I0
tp439
a(I3
I4
tp440
a(I12
I11
tp441
ag432
a(I4
I1
tp442
a(I4
I0
tp443
atp444
Rp445
sg15
I13
sg27
g20
((lp446
(I2
I7
tp447
a(I9
I0
tp448
a(I6
I8
tp449
a(I4
I5
tp450
a(I2
I8
tp451
a(I8
I10
tp452
a(I2
I10
tp453
a(I1
I7
tp454
a(I3
I7
tp455
a(I2
I5
tp456
a(I0
I8
tp457
atp458
Rp459
sg13
((I11
I6
tp460
(I1
I2
tp461
(I1
I0
tp462
(I0
I3
tp463
(I0
I2
tp464
tp465
sg14
I12
sbs(iproblems
RoomID
p466
(dp467
g10
I12
sg11
(I6
I7
tp468
sg13
I7
sg14
I10
sg15
I12
sg16
I6924344268699531175
sb(imulti_robot_problem
MultiRobotState
p469
(dp470
g19
g20
((lp471
(I4
I7
tp472
ag468
a(I2
I9
tp473
a(I4
I8
tp474
a(I9
I6
tp475
a(I5
I7
tp476
a(I0
I6
tp477
a(I3
I9
tp478
a(I0
I9
tp479
a(I4
I9
tp480
a(I4
I1
tp481
atp482
Rp483
sg15
I12
sg27
g20
((lp484
(I7
I3
tp485
a(I5
I4
tp486
a(I1
I3
tp487
a(I9
I1
tp488
a(I8
I3
tp489
a(I0
I7
tp490
a(I8
I8
tp491
a(I0
I0
tp492
a(I0
I4
tp493
a(I0
I8
tp494
a(I11
I6
tp495
a(I9
I7
tp496
atp497
Rp498
sg13
((I6
I0
tp499
(I10
I4
tp500
(I1
I1
tp501
(I8
I2
tp502
(I11
I5
tp503
(I5
I6
tp504
(I10
I9
tp505
tp506
sg14
I10
sbs(iproblems
RoomID
p507
(dp508
g10
I15
sg11
(I4
I8
tp509
sg13
I6
sg14
I12
sg15
I11
sg16
I7391799147228763464
sb(imulti_robot_problem
MultiRobotState
p510
(dp511
g19
g20
((lp512
(I6
I4
tp513
a(I4
I7
tp514
ag509
a(I5
I6
tp515
a(I2
I8
tp516
a(I5
I7
tp517
a(I6
I9
tp518
a(I4
I2
tp519
a(I9
I2
tp520
a(I1
I6
tp521
a(I10
I7
tp522
a(I8
I6
tp523
a(I2
I4
tp524
atp525
Rp526
sg15
I11
sg27
g20
((lp527
(I7
I0
tp528
a(I10
I4
tp529
a(I6
I11
tp530
a(I7
I6
tp531
a(I1
I4
tp532
a(I8
I9
tp533
a(I1
I8
tp534
a(I3
I9
tp535
a(I0
I10
tp536
a(I9
I4
tp537
a(I7
I10
tp538
a(I1
I10
tp539
a(I4
I3
tp540
a(I0
I3
tp541
a(I0
I2
tp542
atp543
Rp544
sg13
((I4
I6
tp545
(I3
I11
tp546
(I7
I1
tp547
(I2
I5
tp548
(I5
I9
tp549
(I2
I11
tp550
tp551
sg14
I12
sbs(iproblems
RoomID
p552
(dp553
g10
I11
sg11
(I5
I1
tp554
sg13
I7
sg14
I11
sg15
I10
sg16
I807570059310326234
sb(imulti_robot_problem
MultiRobotState
p555
(dp556
g19
g20
((lp557
(I7
I3
tp558
a(I4
I6
tp559
a(I7
I4
tp560
a(I6
I2
tp561
a(I1
I9
tp562
a(I9
I4
tp563
ag554
a(I0
I3
tp564
a(I5
I2
tp565
a(I8
I4
tp566
atp567
Rp568
sg15
I10
sg27
g20
((lp569
(I5
I9
tp570
a(I6
I9
tp571
a(I2
I9
tp572
a(I4
I8
tp573
a(I9
I2
tp574
a(I2
I0
tp575
a(I1
I6
tp576
a(I9
I5
tp577
a(I4
I2
tp578
a(I1
I0
tp579
a(I3
I5
tp580
atp581
Rp582
sg13
((I1
I3
tp583
(I0
I2
tp584
(I4
I10
tp585
(I4
I5
tp586
(I8
I10
tp587
(I8
I3
tp588
(I2
I6
tp589
tp590
sg14
I11
sbs(iproblems
RoomID
p591
(dp592
g10
I13
sg11
(I7
I4
tp593
sg13
I6
sg14
I13
sg15
I13
sg16
I3562373307524659409
sb(imulti_robot_problem
MultiRobotState
p594
(dp595
g19
g20
((lp596
(I7
I3
tp597
a(I5
I4
tp598
a(I4
I9
tp599
a(I9
I1
tp600
a(I5
I9
tp601
a(I8
I1
tp602
a(I11
I2
tp603
a(I9
I3
tp604
a(I3
I11
tp605
a(I11
I7
tp606
ag593
a(I10
I1
tp607
a(I3
I10
tp608
a(I10
I5
tp609
a(I8
I2
tp610
atp611
Rp612
sg15
I13
sg27
g20
((lp613
(I8
I3
tp614
a(I3
I12
tp615
a(I4
I8
tp616
a(I6
I10
tp617
a(I9
I9
tp618
a(I12
I6
tp619
a(I8
I9
tp620
a(I1
I8
tp621
a(I4
I3
tp622
a(I2
I2
tp623
a(I4
I2
tp624
a(I11
I12
tp625
a(I2
I4
tp626
atp627
Rp628
sg13
((I12
I11
tp629
(I7
I6
tp630
(I7
I1
tp631
(I10
I11
tp632
(I2
I11
tp633
(I9
I8
tp634
tp635
sg14
I13
sbssg147
S'heavy_roomset'
p636
sbsg147
g149
sg150
(dp637
g430
((lp638
(F7.3099999999976717
I24
tp639
aF40.260000000002037
tp640
sg466
((lp641
F55.919999999998254
tp642
sg507
((lp643
(F35.959999999999127
I40
tp644
aF41.029999999998836
tp645
sg552
((lp646
F40.0
tp647
sg591
((lp648
(F21.309999999997672
I15
tp649
aF40.790000000000873
tp650
ssba(imeasure_core
ProblemSetSolution
p651
(dp652
g3
g4
sg147
S"AnytimeBeam-w20-gf(1.5, 'exp')_with_PowerHeuristic2"
p653
sg150
(dp654
g8
((lp655
(F0.16000000000349246
I50
tp656
a(F0.41000000000349246
I44
tp657
a(F2.0900000000037835
I43
tp658
a(F3.0199999999967986
I42
tp659
a(F3.9499999999970896
I38
tp660
a(F5.5999999999985448
I37
tp661
a(F7.1999999999970896
I35
tp662
a(F8.4899999999979627
I33
tp663
a(F9.4899999999979627
I31
tp664
a(F11.319999999999709
I29
tp665
a(F13.970000000001164
I27
tp666
a(F17.510000000002037
I25
tp667
a(F22.05000000000291
I22
tp668
a(F24.709999999999127
I20
tp669
aF40.0
tp670
sg39
((lp671
(F2.0500000000029104
I7
tp672
aF40.150000000001455
tp673
sg66
((lp674
(F0.5
I10
tp675
aF40.040000000000873
tp676
sg96
((lp677
F40.099999999998545
tp678
sg121
((lp679
(F0.059999999997671694
I7
tp680
aF40.019999999996799
tp681
ssba(imeasure_core
ProblemSetSolution
p682
(dp683
g3
g181
sg147
g653
sg150
(dp684
g184
((lp685
(F0.12999999999738066
I10
tp686
aF40.040000000000873
tp687
sg223
((lp688
(F5.3399999999965075
I79
tp689
aF40.0
tp690
sg268
((lp691
(F0.55000000000291038
I36
tp692
aF40.0
tp693
sg315
((lp694
(F3.1299999999973807
I75
tp695
aF40.089999999996508
tp696
sg366
((lp697
(F5.4500000000043656
I108
tp698
aF40.080000000001746
tp699
ssba(imeasure_core
ProblemSetSolution
p700
(dp701
g3
g427
sg147
g653
sg150
(dp702
g430
((lp703
(F7.3099999999976717
I24
tp704
aF40.25
tp705
sg466
((lp706
F55.989999999997963
tp707
sg507
((lp708
(F36.040000000000873
I40
tp709
aF41.150000000001455
tp710
sg552
((lp711
F40.150000000001455
tp712
sg591
((lp713
(F21.439999999995052
I15
tp714
aF40.989999999997963
tp715
ssba(imeasure_core
ProblemSetSolution
p716
(dp717
g3
g4
sg147
S"AnytimeBeam-w20-gf(1.7, 'exp')_with_PowerHeuristic2"
p718
sg150
(dp719
g8
((lp720
(F0.15000000000145519
I50
tp721
a(F0.4099999999962165
I44
tp722
a(F2.1599999999962165
I43
tp723
a(F3.0800000000017462
I42
tp724
a(F4.0100000000020373
I38
tp725
a(F5.6599999999962165
I37
tp726
a(F7.25
I35
tp727
a(F8.5499999999956344
I33
tp728
a(F9.5599999999976717
I31
tp729
a(F11.400000000001455
I29
tp730
a(F14.059999999997672
I27
tp731
a(F17.619999999995343
I25
tp732
a(F22.169999999998254
I22
tp733
a(F24.830000000001746
I20
tp734
aF40.0
tp735
sg39
((lp736
(F2.0599999999976717
I7
tp737
aF40.269999999996799
tp738
sg66
((lp739
(F0.49000000000523869
I10
tp740
aF40.040000000000873
tp741
sg96
((lp742
F40.069999999999709
tp743
sg121
((lp744
(F0.059999999997671694
I7
tp745
aF40.0
tp746
ssba(imeasure_core
ProblemSetSolution
p747
(dp748
g3
g181
sg147
g718
sg150
(dp749
g184
((lp750
(F0.13000000000465661
I10
tp751
aF40.040000000000873
tp752
sg223
((lp753
(F5.3499999999985448
I79
tp754
aF40.010000000002037
tp755
sg268
((lp756
(F0.54999999999563443
I36
tp757
aF40.009999999994761
tp758
sg315
((lp759
(F3.1300000000046566
I75
tp760
aF40.140000000006694
tp761
sg366
((lp762
(F5.4399999999950523
I108
tp763
aF40.009999999994761
tp764
ssba(imeasure_core
ProblemSetSolution
p765
(dp766
g3
g427
sg147
g718
sg150
(dp767
g430
((lp768
(F7.3099999999976717
I24
tp769
aF40.339999999996508
tp770
sg466
((lp771
F55.92000000000553
tp772
sg507
((lp773
(F35.959999999999127
I40
tp774
aF41.029999999998836
tp775
sg552
((lp776
F40.080000000001746
tp777
sg591
((lp778
(F21.369999999995343
I15
tp779
aF41.479999999995925
tp780
ssba(imeasure_core
ProblemSetSolution
p781
(dp782
g3
g4
sg147
S"AnytimeBeam-w20-gf(1.8999999999999999, 'exp')_with_PowerHeuristic2"
p783
sg150
(dp784
g8
((lp785
(F0.1599999999962165
I50
tp786
a(F0.43000000000029104
I44
tp787
a(F1.3899999999994179
I43
tp788
a(F2.3300000000017462
I42
tp789
a(F3.2600000000020373
I38
tp790
a(F4.9099999999962165
I37
tp791
a(F6.5299999999988358
I35
tp792
a(F7.8300000000017462
I33
tp793
a(F8.8499999999985448
I31
tp794
a(F10.690000000002328
I29
tp795
a(F13.360000000000582
I27
tp796
a(F16.94999999999709
I25
tp797
a(F21.55000000000291
I22
tp798
a(F24.220000000001164
I20
tp799
aF40.0
tp800
sg39
((lp801
(F2.069999999999709
I7
tp802
aF40.659999999996217
tp803
sg66
((lp804
(F0.5
I10
tp805
aF40.490000000005239
tp806
sg96
((lp807
F40.259999999994761
tp808
sg121
((lp809
(F0.050000000002910383
I7
tp810
aF40.020000000004075
tp811
ssba(imeasure_core
ProblemSetSolution
p812
(dp813
g3
g181
sg147
g783
sg150
(dp814
g184
((lp815
(F0.12999999999738066
I10
tp816
aF40.059999999997672
tp817
sg223
((lp818
(F5.3899999999994179
I79
tp819
aF40.010000000002037
tp820
sg268
((lp821
(F0.55000000000291038
I36
tp822
aF40.029999999998836
tp823
sg315
((lp824
(F3.1200000000026193
I75
tp825
aF40.209999999999127
tp826
sg366
((lp827
(F5.3899999999994179
I108
tp828
aF40.220000000001164
tp829
ssba(imeasure_core
ProblemSetSolution
p830
(dp831
g3
g427
sg147
g783
sg150
(dp832
g430
((lp833
(F7.2799999999988358
I24
tp834
aF40.349999999998545
tp835
sg466
((lp836
F55.990000000005239
tp837
sg507
((lp838
(F35.989999999997963
I40
tp839
aF41.049999999995634
tp840
sg552
((lp841
F40.129999999997381
tp842
sg591
((lp843
(F21.370000000002619
I15
tp844
aF41.5
tp845
ssba(imeasure_core
ProblemSetSolution
p846
(dp847
g3
g4
sg147
S"AnytimeBeam-w20-gf(1.3, 'exp')_with_LinearHeuristic"
p848
sg150
(dp849
g8
((lp850
(F0.020000000004074536
I20
tp851
aF40.0
tp852
sg39
((lp853
(F1.6400000000066939
I7
tp854
aF40.440000000002328
tp855
sg66
((lp856
F40.150000000001455
tp857
sg96
((lp858
F40.110000000000582
tp859
sg121
((lp860
(F0.98999999999796273
I47
tp861
a(F10.110000000000582
I46
tp862
a(F15.909999999996217
I45
tp863
a(F21.540000000000873
I44
tp864
a(F29.049999999995634
I43
tp865
a(F35.930000000000291
I42
tp866
aF40.110000000000582
tp867
ssba(imeasure_core
ProblemSetSolution
p868
(dp869
g3
g181
sg147
g848
sg150
(dp870
g184
((lp871
(F0.23999999999796273
I12
tp872
aF40.049999999995634
tp873
sg223
((lp874
F40.069999999999709
tp875
sg268
((lp876
(F0.70000000000436557
I38
tp877
aF40.0
tp878
sg315
((lp879
(F1.0
I31
tp880
a(F21.020000000004075
I30
tp881
a(F27.559999999997672
I29
tp882
a(F37.080000000001746
I28
tp883
aF40.059999999997672
tp884
sg366
((lp885
F40.230000000003201
tp886
ssba(imeasure_core
ProblemSetSolution
p887
(dp888
g3
g427
sg147
g848
sg150
(dp889
g430
((lp890
F40.489999999997963
tp891
sg466
((lp892
F40.230000000003201
tp893
sg507
((lp894
F40.680000000000291
tp895
sg552
((lp896
F40.879999999997381
tp897
sg591
((lp898
F40.30000000000291
tp899
ssba(imeasure_core
ProblemSetSolution
p900
(dp901
g3
g4
sg147
S"AnytimeBeam-w20-gf(1.5, 'exp')_with_LinearHeuristic"
p902
sg150
(dp903
g8
((lp904
(F0.0099999999947613105
I20
tp905
aF40.0
tp906
sg39
((lp907
(F1.6599999999962165
I7
tp908
aF40.049999999995634
tp909
sg66
((lp910
F40.0
tp911
sg96
((lp912
F40.029999999998836
tp913
sg121
((lp914
(F0.99000000000523869
I47
tp915
a(F7.2799999999988358
I46
tp916
a(F13.17000000000553
I45
tp917
a(F19.42000000000553
I44
tp918
a(F28.020000000004075
I43
tp919
a(F36.190000000002328
I42
tp920
aF40.029999999998836
tp921
ssba(imeasure_core
ProblemSetSolution
p922
(dp923
g3
g181
sg147
g902
sg150
(dp924
g184
((lp925
(F0.24000000000523869
I12
tp926
aF40.020000000004075
tp927
sg223
((lp928
F40.099999999998545
tp929
sg268
((lp930
(F0.69000000000232831
I38
tp931
aF40.029999999998836
tp932
sg315
((lp933
(F1.0
I31
tp934
a(F18.510000000002037
I30
tp935
a(F25.880000000004657
I29
tp936
a(F36.30000000000291
I28
tp937
aF40.110000000000582
tp938
sg366
((lp939
F40.200000000004366
tp940
ssba(imeasure_core
ProblemSetSolution
p941
(dp942
g3
g427
sg147
g902
sg150
(dp943
g430
((lp944
F40.080000000001746
tp945
sg466
((lp946
F40.480000000003201
tp947
sg507
((lp948
F40.819999999999709
tp949
sg552
((lp950
F40.729999999995925
tp951
sg591
((lp952
F40.330000000001746
tp953
ssba(imeasure_core
ProblemSetSolution
p954
(dp955
g3
g4
sg147
S"AnytimeBeam-w20-gf(1.7, 'exp')_with_LinearHeuristic"
p956
sg150
(dp957
g8
((lp958
(F0.0099999999947613105
I20
tp959
aF40.0
tp960
sg39
((lp961
(F1.6399999999994179
I7
tp962
aF41.189999999995052
tp963
sg66
((lp964
F40.090000000003783
tp965
sg96
((lp966
F40.279999999998836
tp967
sg121
((lp968
(F0.98000000000320142
I47
tp969
a(F5.8899999999994179
I46
tp970
a(F11.75
I45
tp971
a(F18.809999999997672
I44
tp972
a(F28.190000000002328
I43
tp973
a(F36.80000000000291
I42
tp974
aF40.069999999999709
tp975
ssba(imeasure_core
ProblemSetSolution
p976
(dp977
g3
g181
sg147
g956
sg150
(dp978
g184
((lp979
(F0.22999999999592546
I12
tp980
aF40.029999999998836
tp981
sg223
((lp982
F40.220000000001164
tp983
sg268
((lp984
(F0.68000000000029104
I38
tp985
aF40.019999999996799
tp986
sg315
((lp987
(F0.98999999999796273
I31
tp988
a(F12.720000000001164
I30
tp989
a(F19.950000000004366
I29
tp990
a(F29.919999999998254
I28
tp991
aF40.160000000003492
tp992
sg366
((lp993
F40.220000000001164
tp994
ssba(imeasure_core
ProblemSetSolution
p995
(dp996
g3
g427
sg147
g956
sg150
(dp997
g430
((lp998
F40.479999999995925
tp999
sg466
((lp1000
F40.139999999999418
tp1001
sg507
((lp1002
F40.590000000003783
tp1003
sg552
((lp1004
F40.790000000000873
tp1005
sg591
((lp1006
F40.309999999997672
tp1007
ssba(imeasure_core
ProblemSetSolution
p1008
(dp1009
g3
g4
sg147
S"AnytimeBeam-w20-gf(1.8999999999999999, 'exp')_with_LinearHeuristic"
p1010
sg150
(dp1011
g8
((lp1012
(F0.010000000002037268
I20
tp1013
aF40.0
tp1014
sg39
((lp1015
(F1.6399999999994179
I7
tp1016
aF40.290000000000873
tp1017
sg66
((lp1018
F40.279999999998836
tp1019
sg96
((lp1020
F40.129999999997381
tp1021
sg121
((lp1022
(F0.99000000000523869
I47
tp1023
a(F6.5999999999985448
I46
tp1024
a(F13.650000000001455
I45
tp1025
a(F21.440000000002328
I44
tp1026
a(F32.110000000000582
I43
tp1027
aF40.05000000000291
tp1028
ssba(imeasure_core
ProblemSetSolution
p1029
(dp1030
g3
g181
sg147
g1010
sg150
(dp1031
g184
((lp1032
(F0.23999999999796273
I12
tp1033
aF40.0
tp1034
sg223
((lp1035
F40.150000000001455
tp1036
sg268
((lp1037
(F0.68999999999505235
I38
tp1038
aF40.069999999999709
tp1039
sg315
((lp1040
(F1.0
I31
tp1041
a(F14.360000000000582
I30
tp1042
a(F21.919999999998254
I29
tp1043
a(F32.790000000000873
I28
tp1044
aF40.099999999998545
tp1045
sg366
((lp1046
F40.25
tp1047
ssba(imeasure_core
ProblemSetSolution
p1048
(dp1049
g3
g427
sg147
g1010
sg150
(dp1050
g430
((lp1051
F40.470000000001164
tp1052
sg466
((lp1053
F40.180000000000291
tp1054
sg507
((lp1055
F40.610000000000582
tp1056
sg552
((lp1057
F40.849999999998545
tp1058
sg591
((lp1059
F40.220000000001164
tp1060
ssba.