(lp0
(imeasure_core
ProblemSetSolution
p1
(dp2
S'roomset'
p3
(imeasure_core
RoomSet
p4
(dp5
S'rooms'
p6
(dp7
(iproblems
RoomID
p8
(dp9
S'dusts'
p10
I6
sS'obstacles'
p11
(I5
I1
tp12
sS'robots'
p13
I4
sS'height'
p14
I9
sS'width'
p15
I10
sS'seed'
p16
I2405875930906139466
sb(imulti_robot_problem
MultiRobotState
p17
(dp18
S'obstacle_locations'
p19
c__builtin__
frozenset
p20
((lp21
(I7
I0
tp22
a(I7
I1
tp23
ag12
a(I6
I1
tp24
a(I6
I0
tp25
a(I7
I2
tp26
atp27
Rp28
sg15
I10
sS'dirt_locations'
p29
g20
((lp30
(I7
I3
tp31
a(I2
I1
tp32
a(I6
I4
tp33
a(I5
I6
tp34
a(I5
I2
tp35
a(I0
I7
tp36
atp37
Rp38
sg13
((I7
I6
tp39
(I3
I3
tp40
(I8
I6
tp41
(I0
I2
tp42
tp43
sg14
I9
sbs(iproblems
RoomID
p44
(dp45
g10
I6
sg11
(I6
I7
tp46
sg13
I4
sg14
I10
sg15
I7
sg16
I8744744311366254845
sb(imulti_robot_problem
MultiRobotState
p47
(dp48
g19
g20
((lp49
(I0
I6
tp50
ag46
a(I4
I6
tp51
a(I3
I7
tp52
a(I5
I7
tp53
a(I1
I9
tp54
atp55
Rp56
sg15
I7
sg29
g20
((lp57
(I2
I7
tp58
a(I0
I1
tp59
a(I5
I4
tp60
a(I6
I0
tp61
a(I5
I8
tp62
a(I5
I3
tp63
atp64
Rp65
sg13
((I0
I8
tp66
(I4
I2
tp67
(I3
I0
tp68
(I1
I4
tp69
tp70
sg14
I10
sbs(iproblems
RoomID
p71
(dp72
g10
I8
sg11
(I5
I3
tp73
sg13
I3
sg14
I7
sg15
I7
sg16
I7325839828077136048
sb(imulti_robot_problem
MultiRobotState
p74
(dp75
g19
g20
((lp76
(I6
I4
tp77
a(I5
I4
tp78
a(I5
I5
tp79
a(I6
I6
tp80
a(I3
I1
tp81
a(I6
I0
tp82
a(I2
I0
tp83
a(I0
I4
tp84
ag73
atp85
Rp86
sg15
I7
sg29
g20
((lp87
(I0
I6
tp88
a(I3
I0
tp89
a(I2
I4
tp90
a(I1
I5
tp91
a(I4
I3
tp92
a(I2
I2
tp93
a(I1
I1
tp94
a(I3
I5
tp95
atp96
Rp97
sg13
((I1
I0
tp98
(I3
I3
tp99
(I6
I2
tp100
tp101
sg14
I7
sbs(iproblems
RoomID
p102
(dp103
g10
I6
sg11
(I4
I6
tp104
sg13
I1
sg14
I8
sg15
I7
sg16
I3537054308274871603
sb(imulti_robot_problem
MultiRobotState
p105
(dp106
g19
g20
((lp107
(I4
I7
tp108
ag104
a(I4
I5
tp109
a(I2
I5
tp110
a(I3
I5
tp111
a(I6
I0
tp112
a(I2
I4
tp113
atp114
Rp115
sg15
I7
sg29
g20
((lp116
(I0
I6
tp117
a(I6
I2
tp118
a(I5
I6
tp119
a(I4
I1
tp120
a(I1
I1
tp121
a(I5
I3
tp122
atp123
Rp124
sg13
((I0
I3
tp125
tp126
sg14
I8
sbs(iproblems
RoomID
p127
(dp128
g10
I10
sg11
(I4
I7
tp129
sg13
I5
sg14
I10
sg15
I8
sg16
I8655808914197340073
sb(imulti_robot_problem
MultiRobotState
p130
(dp131
g19
g20
((lp132
(I2
I7
tp133
ag129
a(I4
I8
tp134
a(I6
I3
tp135
a(I7
I5
tp136
a(I3
I7
tp137
a(I1
I0
tp138
a(I5
I3
tp139
atp140
Rp141
sg15
I8
sg29
g20
((lp142
(I7
I3
tp143
a(I5
I4
tp144
a(I7
I0
tp145
a(I5
I7
tp146
a(I1
I5
tp147
a(I1
I9
tp148
a(I3
I6
tp149
a(I1
I7
tp150
a(I3
I4
tp151
a(I5
I8
tp152
atp153
Rp154
sg13
((I3
I8
tp155
(I7
I9
tp156
(I6
I1
tp157
(I2
I3
tp158
(I5
I5
tp159
tp160
sg14
I10
sbssS'name'
p161
S'easy_roomset'
p162
sbsg161
S'LimitedTimeAStar_with_PowerHeuristic2'
p163
sS'solutions'
p164
(dp165
g8
((lp166
F0.42999999999983629
tp167
sg44
((lp168
F0.65000000000009095
tp169
sg71
((lp170
F0.71000000000003638
tp171
sg102
((lp172
F0.07999999999992724
tp173
sg127
((lp174
F7.5799999999999272
tp175
ssba(imeasure_core
ProblemSetSolution
p176
(dp177
g3
(imeasure_core
RoomSet
p178
(dp179
g6
(dp180
(iproblems
RoomID
p181
(dp182
g10
I6
sg11
(I1
I8
tp183
sg13
I4
sg14
I11
sg15
I12
sg16
I2405875930906139466
sb(imulti_robot_problem
MultiRobotState
p184
(dp185
g19
g20
((lp186
(I6
I4
tp187
a(I4
I6
tp188
a(I8
I2
tp189
a(I6
I6
tp190
a(I2
I8
tp191
a(I8
I0
tp192
a(I5
I5
tp193
a(I9
I10
tp194
a(I6
I2
tp195
a(I2
I3
tp196
a(I3
I7
tp197
a(I6
I5
tp198
a(I5
I3
tp199
a(I7
I0
tp200
a(I3
I3
tp201
a(I2
I9
tp202
a(I11
I5
tp203
a(I8
I1
tp204
a(I6
I1
tp205
a(I3
I1
tp206
a(I6
I3
tp207
a(I2
I0
tp208
ag183
a(I7
I5
tp209
a(I3
I6
tp210
a(I4
I3
tp211
a(I3
I4
tp212
atp213
Rp214
sg15
I12
sg29
g20
((lp215
(I9
I4
tp216
a(I7
I1
tp217
a(I0
I9
tp218
a(I9
I3
tp219
a(I7
I7
tp220
a(I2
I1
tp221
atp222
Rp223
sg13
((I9
I7
tp224
(I4
I4
tp225
(I10
I8
tp226
(I0
I2
tp227
tp228
sg14
I11
sbs(iproblems
RoomID
p229
(dp230
g10
I10
sg11
(I0
I5
tp231
sg13
I4
sg14
I12
sg15
I10
sg16
I8655808914197340073
sb(imulti_robot_problem
MultiRobotState
p232
(dp233
g19
g20
((lp234
(I5
I9
tp235
a(I5
I4
tp236
a(I5
I7
tp237
a(I6
I6
tp238
a(I4
I8
tp239
a(I8
I0
tp240
a(I0
I7
tp241
a(I7
I5
tp242
a(I2
I3
tp243
a(I1
I4
tp244
a(I6
I8
tp245
a(I1
I11
tp246
a(I9
I6
tp247
a(I5
I8
tp248
a(I4
I6
tp249
a(I3
I8
tp250
a(I6
I7
tp251
a(I5
I5
tp252
a(I3
I4
tp253
a(I4
I4
tp254
a(I6
I3
tp255
a(I2
I0
tp256
a(I6
I5
tp257
ag231
a(I7
I8
tp258
atp259
Rp260
sg15
I10
sg29
g20
((lp261
(I6
I9
tp262
a(I2
I9
tp263
a(I2
I11
tp264
a(I9
I0
tp265
a(I7
I7
tp266
a(I8
I3
tp267
a(I1
I7
tp268
a(I8
I6
tp269
a(I8
I4
tp270
a(I3
I5
tp271
atp272
Rp273
sg13
((I4
I9
tp274
(I8
I11
tp275
(I7
I1
tp276
(I3
I3
tp277
tp278
sg14
I12
sbs(iproblems
RoomID
p279
(dp280
g10
I10
sg11
(I3
I6
tp281
sg13
I4
sg14
I12
sg15
I11
sg16
I4278205817407065157
sb(imulti_robot_problem
MultiRobotState
p282
(dp283
g19
g20
((lp284
(I0
I1
tp285
a(I4
I7
tp286
a(I5
I6
tp287
a(I2
I8
tp288
a(I0
I10
tp289
a(I3
I7
tp290
a(I7
I11
tp291
a(I3
I3
tp292
a(I2
I7
tp293
a(I5
I3
tp294
a(I6
I7
tp295
a(I4
I6
tp296
a(I10
I7
tp297
a(I4
I4
tp298
a(I3
I8
tp299
a(I4
I5
tp300
ag281
a(I1
I10
tp301
a(I3
I5
tp302
a(I1
I9
tp303
atp304
Rp305
sg15
I11
sg29
g20
((lp306
(I1
I2
tp307
a(I8
I1
tp308
a(I9
I2
tp309
a(I6
I1
tp310
a(I5
I7
tp311
a(I8
I9
tp312
a(I3
I0
tp313
a(I9
I4
tp314
a(I0
I2
tp315
a(I4
I0
tp316
atp317
Rp318
sg13
((I6
I10
tp319
(I5
I11
tp320
(I2
I0
tp321
(I9
I1
tp322
tp323
sg14
I12
sbs(iproblems
RoomID
p324
(dp325
g10
I6
sg11
(I3
I3
tp326
sg13
I4
sg14
I12
sg15
I12
sg16
I7193062864237573168
sb(imulti_robot_problem
MultiRobotState
p327
(dp328
g19
g20
((lp329
(I6
I4
tp330
a(I5
I4
tp331
a(I1
I3
tp332
a(I6
I6
tp333
a(I7
I1
tp334
a(I9
I3
tp335
a(I0
I7
tp336
a(I1
I6
tp337
a(I2
I5
tp338
a(I0
I8
tp339
a(I10
I3
tp340
a(I8
I3
tp341
a(I3
I1
tp342
ag326
a(I5
I7
tp343
a(I11
I3
tp344
a(I7
I4
tp345
a(I0
I9
tp346
a(I2
I3
tp347
a(I8
I4
tp348
a(I3
I4
tp349
a(I2
I4
tp350
a(I9
I7
tp351
atp352
Rp353
sg15
I12
sg29
g20
((lp354
(I2
I0
tp355
a(I2
I6
tp356
a(I6
I8
tp357
a(I0
I6
tp358
a(I4
I4
tp359
a(I7
I7
tp360
atp361
Rp362
sg13
((I11
I9
tp363
(I11
I2
tp364
(I4
I11
tp365
(I3
I6
tp366
tp367
sg14
I12
sbs(iproblems
RoomID
p368
(dp369
g10
I10
sg11
(I11
I0
tp370
sg13
I4
sg14
I9
sg15
I12
sg16
I2796939073032698495
sb(imulti_robot_problem
MultiRobotState
p371
(dp372
g19
g20
((lp373
(I7
I3
tp374
a(I5
I7
tp375
a(I9
I1
tp376
a(I6
I6
tp377
a(I8
I0
tp378
a(I7
I7
tp379
a(I5
I8
tp380
a(I3
I3
tp381
a(I8
I1
tp382
a(I4
I8
tp383
a(I6
I3
tp384
a(I7
I2
tp385
a(I3
I6
tp386
a(I6
I4
tp387
a(I5
I4
tp388
a(I2
I6
tp389
a(I7
I1
tp390
a(I4
I5
tp391
ag370
a(I2
I3
tp392
a(I10
I1
tp393
a(I1
I0
tp394
a(I6
I5
tp395
a(I5
I3
tp396
a(I8
I3
tp397
a(I7
I0
tp398
a(I6
I8
tp399
a(I9
I2
tp400
a(I6
I1
tp401
a(I3
I1
tp402
a(I8
I8
tp403
a(I4
I3
tp404
a(I5
I2
tp405
a(I10
I2
tp406
atp407
Rp408
sg15
I12
sg29
g20
((lp409
(I1
I2
tp410
a(I11
I7
tp411
a(I3
I2
tp412
a(I2
I8
tp413
a(I9
I3
tp414
a(I1
I6
tp415
a(I5
I0
tp416
a(I0
I3
tp417
a(I0
I8
tp418
a(I4
I1
tp419
atp420
Rp421
sg13
((I10
I8
tp422
(I4
I6
tp423
(I11
I4
tp424
(I7
I8
tp425
tp426
sg14
I9
sbssg161
S'mild_roomset'
p427
sbsg161
g163
sg164
(dp428
g181
((lp429
F1.569999999999709
tp430
sg229
((lp431
F72.119999999999891
tp432
sg279
((lp433
F13.570000000000164
tp434
sg324
((lp435
F300.80999999999995
tp436
sg368
((lp437
F300.32999999999993
tp438
ssba(imeasure_core
ProblemSetSolution
p439
(dp440
g3
(imeasure_core
RoomSet
p441
(dp442
g6
(dp443
(iproblems
RoomID
p444
(dp445
g10
I11
sg11
(I10
I1
tp446
sg13
I7
sg14
I12
sg15
I13
sg16
I2405875930906139466
sb(imulti_robot_problem
MultiRobotState
p447
(dp448
g19
g20
((lp449
(I7
I3
tp450
a(I9
I1
tp451
a(I7
I1
tp452
a(I5
I6
tp453
a(I8
I11
tp454
a(I8
I0
tp455
a(I1
I4
tp456
a(I6
I2
tp457
a(I0
I7
tp458
ag446
a(I10
I3
tp459
a(I7
I2
tp460
a(I10
I4
tp461
a(I11
I7
tp462
a(I9
I0
tp463
a(I11
I5
tp464
a(I7
I4
tp465
a(I1
I5
tp466
a(I10
I2
tp467
a(I11
I6
tp468
a(I8
I4
tp469
atp470
Rp471
sg15
I13
sg29
g20
((lp472
(I12
I5
tp473
a(I10
I11
tp474
a(I8
I1
tp475
a(I7
I8
tp476
a(I8
I6
tp477
a(I6
I3
tp478
a(I2
I0
tp479
a(I2
I3
tp480
a(I5
I1
tp481
a(I10
I0
tp482
a(I3
I4
tp483
atp484
Rp485
sg13
((I10
I8
tp486
(I9
I2
tp487
(I4
I5
tp488
(I11
I8
tp489
(I1
I2
tp490
(I3
I1
tp491
(I0
I10
tp492
tp493
sg14
I12
sbs(iproblems
RoomID
p494
(dp495
g10
I11
sg11
(I7
I9
tp496
sg13
I6
sg14
I13
sg15
I10
sg16
I8744744311366254845
sb(imulti_robot_problem
MultiRobotState
p497
(dp498
g19
g20
((lp499
(I6
I9
tp500
a(I1
I3
tp501
a(I4
I9
tp502
a(I5
I6
tp503
a(I9
I8
tp504
a(I1
I8
tp505
a(I1
I0
tp506
ag496
a(I3
I4
tp507
a(I5
I8
tp508
a(I9
I7
tp509
atp510
Rp511
sg15
I10
sg29
g20
((lp512
(I0
I1
tp513
a(I7
I3
tp514
a(I9
I0
tp515
a(I1
I12
tp516
a(I4
I10
tp517
a(I5
I11
tp518
a(I9
I10
tp519
a(I7
I11
tp520
a(I3
I7
tp521
a(I0
I8
tp522
a(I9
I6
tp523
atp524
Rp525
sg13
((I0
I10
tp526
(I6
I3
tp527
(I4
I0
tp528
(I1
I6
tp529
(I7
I5
tp530
(I9
I9
tp531
tp532
sg14
I13
sbs(iproblems
RoomID
p533
(dp534
g10
I15
sg11
(I3
I6
tp535
sg13
I7
sg14
I10
sg15
I13
sg16
I2796939073032698495
sb(imulti_robot_problem
MultiRobotState
p536
(dp537
g19
g20
((lp538
(I5
I9
tp539
a(I6
I9
tp540
a(I4
I6
tp541
a(I5
I0
tp542
a(I6
I6
tp543
a(I4
I5
tp544
a(I5
I4
tp545
a(I6
I7
tp546
a(I6
I2
tp547
a(I0
I5
tp548
a(I8
I7
tp549
a(I5
I1
tp550
a(I6
I4
tp551
a(I12
I9
tp552
a(I5
I8
tp553
a(I5
I3
tp554
a(I2
I7
tp555
a(I4
I9
tp556
a(I5
I5
tp557
a(I3
I1
tp558
a(I4
I8
tp559
a(I2
I0
tp560
a(I3
I9
tp561
a(I6
I5
tp562
ag535
a(I5
I7
tp563
a(I7
I8
tp564
atp565
Rp566
sg15
I13
sg29
g20
((lp567
(I1
I2
tp568
a(I8
I2
tp569
a(I2
I9
tp570
a(I12
I0
tp571
a(I4
I1
tp572
a(I12
I8
tp573
a(I6
I0
tp574
a(I9
I9
tp575
a(I2
I3
tp576
a(I9
I4
tp577
a(I1
I7
tp578
a(I0
I9
tp579
a(I7
I9
tp580
a(I3
I4
tp581
a(I3
I3
tp582
atp583
Rp584
sg13
((I10
I2
tp585
(I11
I8
tp586
(I12
I5
tp587
(I8
I9
tp588
(I10
I3
tp589
(I0
I3
tp590
(I11
I2
tp591
tp592
sg14
I10
sbs(iproblems
RoomID
p593
(dp594
g10
I15
sg11
(I5
I8
tp595
sg13
I7
sg14
I13
sg15
I11
sg16
I8655808914197340073
sb(imulti_robot_problem
MultiRobotState
p596
(dp597
g19
g20
((lp598
(I5
I9
tp599
a(I6
I7
tp600
a(I6
I11
tp601
a(I1
I4
tp602
a(I0
I12
tp603
a(I0
I11
tp604
a(I7
I5
tp605
a(I1
I6
tp606
a(I0
I4
tp607
a(I5
I10
tp608
a(I3
I9
tp609
a(I4
I9
tp610
a(I10
I3
tp611
ag595
atp612
Rp613
sg15
I11
sg29
g20
((lp614
(I2
I7
tp615
a(I7
I3
tp616
a(I4
I6
tp617
a(I1
I12
tp618
a(I5
I6
tp619
a(I8
I5
tp620
a(I7
I7
tp621
a(I7
I9
tp622
a(I2
I0
tp623
a(I9
I4
tp624
a(I7
I10
tp625
a(I0
I8
tp626
a(I9
I6
tp627
a(I6
I5
tp628
a(I9
I7
tp629
atp630
Rp631
sg13
((I9
I11
tp632
(I8
I1
tp633
(I3
I4
tp634
(I8
I7
tp635
(I9
I1
tp636
(I2
I10
tp637
(I2
I12
tp638
tp639
sg14
I13
sbs(iproblems
RoomID
p640
(dp641
g10
I15
sg11
(I4
I8
tp642
sg13
I6
sg14
I13
sg15
I12
sg16
I4278205817407065157
sb(imulti_robot_problem
MultiRobotState
p643
(dp644
g19
g20
((lp645
(I11
I7
tp646
a(I2
I9
tp647
ag642
a(I5
I6
tp648
a(I2
I8
tp649
a(I6
I10
tp650
a(I3
I8
tp651
a(I11
I8
tp652
a(I3
I9
tp653
a(I1
I10
tp654
a(I1
I11
tp655
a(I7
I8
tp656
a(I2
I4
tp657
atp658
Rp659
sg15
I12
sg29
g20
((lp660
(I1
I2
tp661
a(I0
I1
tp662
a(I5
I4
tp663
a(I5
I7
tp664
a(I10
I4
tp665
a(I7
I1
tp666
a(I3
I1
tp667
a(I10
I5
tp668
a(I4
I7
tp669
a(I9
I9
tp670
a(I0
I10
tp671
a(I4
I3
tp672
a(I8
I12
tp673
a(I4
I1
tp674
a(I0
I2
tp675
atp676
Rp677
sg13
((I7
I10
tp678
(I6
I12
tp679
(I2
I0
tp680
(I9
I1
tp681
(I10
I3
tp682
(I4
I0
tp683
tp684
sg14
I13
sbssg161
S'heavy_roomset'
p685
sbsg161
g163
sg164
(dp686
g444
((lp687
F307.16999999999962
tp688
sg494
((lp689
F12.410000000000764
tp690
sg533
((lp691
F304.05999999999949
tp692
sg593
((lp693
F127.25
tp694
sg640
((lp695
F302.06999999999971
tp696
ssba.