(lp0
(imeasure_core
ProblemSetSolution
p1
(dp2
S'roomset'
p3
(imeasure_core
RoomSet
p4
(dp5
S'rooms'
p6
(dp7
(iproblems
RoomID
p8
(dp9
S'dusts'
p10
I8
sS'obstacles'
p11
(I1
I6
tp12
sS'robots'
p13
I4
sS'height'
p14
I10
sS'width'
p15
I9
sS'seed'
p16
I3433768247134474666
sb(imulti_robot_problem
MultiRobotState
p17
(dp18
S'obstacle_locations'
p19
c__builtin__
frozenset
p20
((lp21
(I4
I9
tp22
a(I4
I6
tp23
a(I0
I7
tp24
ag12
a(I0
I9
tp25
a(I8
I6
tp26
a(I0
I8
tp27
a(I3
I3
tp28
atp29
Rp30
sg15
I9
sS'dirt_locations'
p31
g20
((lp32
(I3
I2
tp33
a(I7
I7
tp34
a(I1
I9
tp35
a(I8
I7
tp36
a(I5
I4
tp37
a(I1
I1
tp38
a(I5
I8
tp39
a(I7
I9
tp40
atp41
Rp42
sg13
((I5
I9
tp43
(I5
I5
tp44
(I6
I9
tp45
(I2
I0
tp46
tp47
sg14
I10
sbs(iproblems
RoomID
p48
(dp49
g10
I7
sg11
(I2
I2
tp50
sg13
I3
sg14
I9
sg15
I9
sg16
I6241004153072892496
sb(imulti_robot_problem
MultiRobotState
p51
(dp52
g19
g20
((lp53
(I7
I3
tp54
a(I3
I2
tp55
a(I7
I1
tp56
a(I5
I1
tp57
ag50
a(I4
I1
tp58
a(I7
I7
tp59
atp60
Rp61
sg15
I9
sg31
g20
((lp62
(I3
I8
tp63
a(I1
I5
tp64
a(I4
I8
tp65
a(I3
I7
tp66
a(I5
I7
tp67
a(I3
I4
tp68
a(I6
I0
tp69
atp70
Rp71
sg13
((I6
I5
tp72
(I4
I3
tp73
(I3
I5
tp74
tp75
sg14
I9
sbs(iproblems
RoomID
p76
(dp77
g10
I9
sg11
(I4
I3
tp78
sg13
I3
sg14
I9
sg15
I8
sg16
I6161655336973386967
sb(imulti_robot_problem
MultiRobotState
p79
(dp80
g19
g20
((lp81
(I6
I3
tp82
a(I7
I3
tp83
a(I5
I4
tp84
ag78
a(I6
I6
tp85
a(I5
I2
tp86
a(I2
I1
tp87
atp88
Rp89
sg15
I8
sg31
g20
((lp90
(I6
I4
tp91
a(I6
I8
tp92
a(I2
I0
tp93
a(I5
I7
tp94
a(I1
I4
tp95
a(I1
I5
tp96
a(I0
I5
tp97
a(I2
I5
tp98
a(I4
I1
tp99
atp100
Rp101
sg13
((I3
I5
tp102
(I4
I6
tp103
(I4
I5
tp104
tp105
sg14
I9
sbs(iproblems
RoomID
p106
(dp107
g10
I10
sg11
(I6
I4
tp108
sg13
I4
sg14
I7
sg15
I10
sg16
I3125140389427113411
sb(imulti_robot_problem
MultiRobotState
p109
(dp110
g19
g20
((lp111
(I6
I3
tp112
a(I5
I1
tp113
a(I5
I2
tp114
ag108
atp115
Rp116
sg15
I10
sg31
g20
((lp117
(I1
I2
tp118
a(I7
I3
tp119
a(I0
I0
tp120
a(I3
I3
tp121
a(I6
I2
tp122
a(I1
I6
tp123
a(I9
I4
tp124
a(I2
I5
tp125
a(I0
I2
tp126
a(I7
I2
tp127
atp128
Rp129
sg13
((I9
I0
tp130
(I6
I5
tp131
(I1
I4
tp132
(I1
I3
tp133
tp134
sg14
I7
sbs(iproblems
RoomID
p135
(dp136
g10
I6
sg11
(I7
I4
tp137
sg13
I4
sg14
I8
sg15
I9
sg16
I8554152435637441414
sb(imulti_robot_problem
MultiRobotState
p138
(dp139
g19
g20
((lp140
(I6
I6
tp141
a(I5
I7
tp142
ag137
a(I2
I0
tp143
a(I7
I5
tp144
a(I3
I7
tp145
a(I0
I3
tp146
a(I4
I1
tp147
atp148
Rp149
sg15
I9
sg31
g20
((lp150
(I7
I3
tp151
a(I1
I6
tp152
a(I5
I1
tp153
a(I8
I6
tp154
a(I0
I2
tp155
a(I4
I0
tp156
atp157
Rp158
sg13
((I5
I3
tp159
(I6
I2
tp160
(I6
I3
tp161
(I6
I4
tp162
tp163
sg14
I8
sbssS'name'
p164
S'easy_roomset'
p165
sbsg164
S'AnytimeBest-d10_with_PowerHeuristic2'
p166
sS'solutions'
p167
(dp168
g8
((lp169
(F0.37000000000261934
I10
tp170
aF40.040000000000873
tp171
sg48
((lp172
(F0.08000000000174623
I8
tp173
aF40.019999999996799
tp174
sg76
((lp175
F40.030000000006112
tp176
sg135
((lp177
(F0.26000000000203727
I8
tp178
aF40.05000000000291
tp179
sg106
((lp180
F40.089999999996508
tp181
ssba(imeasure_core
ProblemSetSolution
p182
(dp183
g3
(imeasure_core
RoomSet
p184
(dp185
g6
(dp186
(iproblems
RoomID
p187
(dp188
g10
I10
sg11
(I1
I6
tp189
sg13
I3
sg14
I12
sg15
I9
sg16
I4927760411464392432
sb(imulti_robot_problem
MultiRobotState
p190
(dp191
g19
g20
((lp192
(I5
I9
tp193
a(I1
I3
tp194
a(I4
I5
tp195
a(I7
I7
tp196
a(I6
I0
tp197
a(I3
I9
tp198
ag189
a(I8
I7
tp199
a(I3
I7
tp200
a(I2
I5
tp201
a(I7
I9
tp202
a(I3
I1
tp203
a(I4
I6
tp204
a(I2
I9
tp205
a(I3
I10
tp206
a(I6
I10
tp207
a(I2
I11
tp208
a(I3
I8
tp209
a(I0
I6
tp210
a(I3
I6
tp211
a(I2
I2
tp212
a(I2
I3
tp213
a(I3
I4
tp214
a(I7
I6
tp215
atp216
Rp217
sg15
I9
sg31
g20
((lp218
(I1
I2
tp219
a(I6
I4
tp220
a(I6
I9
tp221
a(I8
I2
tp222
a(I8
I0
tp223
a(I1
I10
tp224
a(I0
I9
tp225
a(I1
I0
tp226
a(I0
I2
tp227
a(I4
I11
tp228
atp229
Rp230
sg13
((I1
I11
tp231
(I0
I11
tp232
(I7
I5
tp233
tp234
sg14
I12
sbs(iproblems
RoomID
p235
(dp236
g10
I8
sg11
(I1
I11
tp237
sg13
I4
sg14
I12
sg15
I11
sg16
I3433768247134474666
sb(imulti_robot_problem
MultiRobotState
p238
(dp239
g19
g20
((lp240
(I9
I3
tp241
a(I3
I6
tp242
a(I4
I8
tp243
a(I4
I5
tp244
a(I2
I8
tp245
a(I10
I6
tp246
a(I2
I10
tp247
a(I8
I7
tp248
a(I2
I3
tp249
a(I0
I10
tp250
a(I9
I4
tp251
a(I3
I7
tp252
ag237
a(I10
I3
tp253
a(I5
I8
tp254
a(I10
I4
tp255
a(I2
I7
tp256
a(I10
I5
tp257
a(I6
I7
tp258
a(I2
I9
tp259
a(I9
I6
tp260
a(I1
I8
tp261
a(I3
I8
tp262
a(I0
I11
tp263
a(I8
I8
tp264
a(I4
I11
tp265
a(I5
I0
tp266
a(I0
I9
tp267
a(I4
I9
tp268
a(I7
I8
tp269
atp270
Rp271
sg15
I11
sg31
g20
((lp272
(I4
I3
tp273
a(I5
I11
tp274
a(I9
I8
tp275
a(I2
I11
tp276
a(I9
I11
tp277
a(I7
I10
tp278
a(I1
I1
tp279
a(I6
I5
tp280
atp281
Rp282
sg13
((I7
I11
tp283
(I7
I7
tp284
(I2
I0
tp285
(I10
I9
tp286
tp287
sg14
I12
sbs(iproblems
RoomID
p288
(dp289
g10
I10
sg11
(I5
I4
tp290
sg13
I4
sg14
I9
sg15
I12
sg16
I3125140389427113411
sb(imulti_robot_problem
MultiRobotState
p291
(dp292
g19
g20
((lp293
(I7
I3
tp294
a(I4
I7
tp295
a(I2
I6
tp296
a(I2
I7
tp297
a(I6
I6
tp298
a(I5
I6
tp299
ag290
a(I1
I4
tp300
a(I6
I2
tp301
a(I10
I1
tp302
a(I3
I7
tp303
a(I5
I1
tp304
a(I2
I5
tp305
a(I6
I5
tp306
a(I3
I3
tp307
a(I6
I4
tp308
a(I9
I5
tp309
a(I6
I7
tp310
a(I5
I5
tp311
a(I10
I7
tp312
a(I6
I1
tp313
a(I7
I4
tp314
a(I8
I6
tp315
a(I5
I3
tp316
a(I5
I2
tp317
a(I8
I4
tp318
atp319
Rp320
sg15
I12
sg31
g20
((lp321
(I0
I0
tp322
a(I11
I4
tp323
a(I8
I2
tp324
a(I3
I0
tp325
a(I6
I0
tp326
a(I1
I8
tp327
a(I2
I3
tp328
a(I0
I3
tp329
a(I11
I6
tp330
a(I3
I5
tp331
atp332
Rp333
sg13
((I11
I0
tp334
(I7
I7
tp335
(I1
I5
tp336
(I2
I4
tp337
tp338
sg14
I9
sbs(iproblems
RoomID
p339
(dp340
g10
I7
sg11
(I10
I3
tp341
sg13
I3
sg14
I11
sg15
I11
sg16
I6241004153072892496
sb(imulti_robot_problem
MultiRobotState
p342
(dp343
g19
g20
((lp344
(I3
I2
tp345
a(I0
I0
tp346
a(I9
I8
tp347
a(I7
I7
tp348
a(I8
I9
tp349
a(I6
I2
tp350
a(I2
I3
tp351
a(I9
I4
tp352
a(I4
I2
tp353
a(I5
I1
tp354
a(I0
I3
tp355
ag341
a(I1
I2
tp356
a(I9
I5
tp357
a(I5
I5
tp358
a(I10
I7
tp359
a(I8
I5
tp360
a(I6
I1
tp361
a(I1
I8
tp362
a(I8
I8
tp363
a(I8
I6
tp364
a(I7
I8
tp365
a(I2
I4
tp366
atp367
Rp368
sg15
I11
sg31
g20
((lp369
(I4
I10
tp370
a(I6
I9
tp371
a(I4
I9
tp372
a(I9
I1
tp373
a(I5
I10
tp374
a(I3
I10
tp375
a(I8
I0
tp376
atp377
Rp378
sg13
((I5
I4
tp379
(I4
I6
tp380
(I1
I6
tp381
tp382
sg14
I11
sbs(iproblems
RoomID
p383
(dp384
g10
I6
sg11
(I5
I4
tp385
sg13
I4
sg14
I10
sg15
I11
sg16
I8554152435637441414
sb(imulti_robot_problem
MultiRobotState
p386
(dp387
g19
g20
((lp388
(I6
I4
tp389
ag385
a(I4
I5
tp390
a(I2
I8
tp391
a(I9
I3
tp392
a(I7
I7
tp393
a(I0
I7
tp394
a(I6
I2
tp395
a(I2
I1
tp396
a(I3
I7
tp397
a(I5
I1
tp398
a(I0
I3
tp399
a(I8
I5
tp400
a(I5
I3
tp401
a(I3
I8
tp402
a(I8
I3
tp403
a(I4
I9
tp404
a(I6
I8
tp405
a(I7
I0
tp406
a(I6
I3
tp407
a(I7
I5
tp408
a(I3
I6
tp409
a(I8
I6
tp410
a(I7
I8
tp411
a(I10
I9
tp412
atp413
Rp414
sg15
I11
sg31
g20
((lp415
(I1
I3
tp416
a(I9
I4
tp417
a(I5
I0
tp418
a(I3
I0
tp419
a(I4
I2
tp420
a(I7
I2
tp421
atp422
Rp423
sg13
((I8
I2
tp424
(I8
I4
tp425
(I9
I7
tp426
(I0
I2
tp427
tp428
sg14
I10
sbssg164
S'mild_roomset'
p429
sbsg164
g166
sg167
(dp430
g187
((lp431
F40.220000000001164
tp432
sg235
((lp433
F40.040000000000873
tp434
sg288
((lp435
F40.090000000003783
tp436
sg339
((lp437
(F8.930000000000291
I10
tp438
aF40.029999999998836
tp439
sg383
((lp440
F40.089999999996508
tp441
ssba(imeasure_core
ProblemSetSolution
p442
(dp443
g3
(imeasure_core
RoomSet
p444
(dp445
g6
(dp446
(iproblems
RoomID
p447
(dp448
g10
I15
sg11
(I3
I3
tp449
sg13
I5
sg14
I13
sg15
I10
sg16
I4927760411464392432
sb(imulti_robot_problem
MultiRobotState
p450
(dp451
g19
g20
((lp452
(I6
I10
tp453
a(I6
I11
tp454
a(I3
I11
tp455
a(I2
I1
tp456
a(I2
I10
tp457
a(I3
I9
tp458
a(I2
I3
tp459
a(I1
I0
tp460
a(I4
I0
tp461
a(I1
I2
tp462
ag449
a(I7
I6
tp463
a(I3
I1
tp464
a(I1
I1
tp465
a(I1
I7
tp466
a(I1
I3
tp467
a(I3
I10
tp468
a(I9
I12
tp469
atp470
Rp471
sg15
I10
sg31
g20
((lp472
(I9
I0
tp473
a(I9
I7
tp474
a(I7
I0
tp475
a(I8
I2
tp476
a(I5
I5
tp477
a(I8
I10
tp478
a(I1
I4
tp479
a(I8
I8
tp480
a(I2
I12
tp481
a(I8
I7
tp482
a(I1
I10
tp483
a(I7
I11
tp484
a(I4
I12
tp485
a(I0
I2
tp486
a(I0
I10
tp487
atp488
Rp489
sg13
((I1
I12
tp490
(I0
I12
tp491
(I8
I5
tp492
(I7
I9
tp493
(I7
I4
tp494
tp495
sg14
I13
sbs(iproblems
RoomID
p496
(dp497
g10
I13
sg11
(I4
I11
tp498
sg13
I6
sg14
I13
sg15
I12
sg16
I3433768247134474666
sb(imulti_robot_problem
MultiRobotState
p499
(dp500
g19
g20
((lp501
(I4
I10
tp502
a(I5
I11
tp503
a(I6
I11
tp504
a(I9
I8
tp505
a(I6
I0
tp506
a(I0
I12
tp507
a(I4
I12
tp508
a(I2
I3
tp509
a(I2
I12
tp510
a(I10
I3
tp511
ag498
a(I11
I7
tp512
a(I3
I12
tp513
a(I3
I10
tp514
a(I11
I3
tp515
a(I0
I11
tp516
a(I8
I8
tp517
a(I1
I9
tp518
a(I1
I6
tp519
a(I1
I1
tp520
a(I0
I10
tp521
atp522
Rp523
sg15
I12
sg31
g20
((lp524
(I10
I8
tp525
a(I10
I5
tp526
a(I6
I7
tp527
a(I6
I8
tp528
a(I4
I4
tp529
a(I10
I12
tp530
a(I9
I9
tp531
a(I8
I10
tp532
a(I7
I5
tp533
a(I7
I10
tp534
a(I6
I12
tp535
a(I5
I10
tp536
a(I5
I3
tp537
atp538
Rp539
sg13
((I7
I12
tp540
(I7
I7
tp541
(I8
I12
tp542
(I2
I0
tp543
(I11
I9
tp544
(I1
I2
tp545
tp546
sg14
I13
sbs(iproblems
RoomID
p547
(dp548
g10
I12
sg11
(I3
I3
tp549
sg13
I6
sg14
I12
sg15
I12
sg16
I6241004153072892496
sb(imulti_robot_problem
MultiRobotState
p550
(dp551
g19
g20
((lp552
(I9
I3
tp553
ag549
a(I2
I9
tp554
a(I7
I1
tp555
a(I11
I8
tp556
a(I3
I4
tp557
a(I6
I1
tp558
a(I3
I1
tp559
a(I5
I2
tp560
a(I4
I3
tp561
a(I4
I2
tp562
a(I8
I5
tp563
a(I11
I6
tp564
atp565
Rp566
sg15
I12
sg31
g20
((lp567
(I4
I10
tp568
a(I0
I0
tp569
a(I7
I10
tp570
a(I5
I11
tp571
a(I8
I0
tp572
a(I9
I10
tp573
a(I8
I7
tp574
a(I10
I1
tp575
a(I2
I5
tp576
a(I8
I9
tp577
a(I4
I11
tp578
a(I10
I4
tp579
atp580
Rp581
sg13
((I8
I6
tp582
(I5
I4
tp583
(I7
I2
tp584
(I4
I7
tp585
(I1
I7
tp586
(I5
I6
tp587
tp588
sg14
I12
sbs(iproblems
RoomID
p589
(dp590
g10
I15
sg11
(I1
I6
tp591
sg13
I6
sg14
I10
sg15
I13
sg16
I3125140389427113411
sb(imulti_robot_problem
MultiRobotState
p592
(dp593
g19
g20
((lp594
(I7
I3
tp595
a(I3
I3
tp596
a(I1
I5
tp597
a(I6
I1
tp598
a(I1
I4
tp599
a(I7
I4
tp600
a(I2
I0
tp601
a(I11
I1
tp602
a(I2
I3
tp603
a(I0
I7
tp604
a(I8
I7
tp605
a(I6
I2
tp606
ag591
atp607
Rp608
sg15
I13
sg31
g20
((lp609
(I0
I1
tp610
a(I2
I6
tp611
a(I2
I9
tp612
a(I11
I8
tp613
a(I2
I8
tp614
a(I9
I3
tp615
a(I6
I0
tp616
a(I3
I0
tp617
a(I7
I7
tp618
a(I6
I3
tp619
a(I9
I2
tp620
a(I12
I4
tp621
a(I0
I4
tp622
a(I2
I4
tp623
a(I9
I7
tp624
atp625
Rp626
sg13
((I12
I0
tp627
(I7
I8
tp628
(I2
I5
tp629
(I4
I5
tp630
(I12
I7
tp631
(I9
I4
tp632
tp633
sg14
I10
sbs(iproblems
RoomID
p634
(dp635
g10
I11
sg11
(I3
I6
tp636
sg13
I7
sg14
I11
sg15
I12
sg16
I8554152435637441414
sb(imulti_robot_problem
MultiRobotState
p637
(dp638
g19
g20
((lp639
(I3
I1
tp640
a(I3
I8
tp641
a(I4
I5
tp642
a(I2
I8
tp643
a(I11
I2
tp644
a(I1
I7
tp645
a(I7
I5
tp646
a(I9
I4
tp647
a(I3
I7
tp648
a(I5
I1
tp649
a(I9
I6
tp650
a(I7
I9
tp651
a(I6
I3
tp652
a(I7
I6
tp653
a(I4
I4
tp654
a(I7
I4
tp655
a(I1
I8
tp656
a(I8
I8
tp657
ag636
a(I0
I4
tp658
a(I0
I9
tp659
a(I8
I6
tp660
a(I9
I7
tp661
atp662
Rp663
sg15
I12
sg31
g20
((lp664
(I11
I10
tp665
a(I4
I9
tp666
a(I2
I9
tp667
a(I3
I0
tp668
a(I8
I0
tp669
a(I4
I7
tp670
a(I1
I4
tp671
a(I0
I3
tp672
a(I0
I8
tp673
a(I5
I2
tp674
a(I7
I2
tp675
atp676
Rp677
sg13
((I6
I4
tp678
(I8
I2
tp679
(I8
I5
tp680
(I10
I8
tp681
(I1
I2
tp682
(I6
I0
tp683
(I10
I4
tp684
tp685
sg14
I11
sbssg164
S'heavy_roomset'
p686
sbsg164
g166
sg167
(dp687
g447
((lp688
F40.400000000001455
tp689
sg496
((lp690
F41.879999999997381
tp691
sg547
((lp692
F41.819999999999709
tp693
sg589
((lp694
F41.260000000002037
tp695
sg634
((lp696
F41.610000000000582
tp697
ssba(imeasure_core
ProblemSetSolution
p698
(dp699
g3
g4
sg164
S'AnytimeBest-d80_with_PowerHeuristic2'
p700
sg167
(dp701
g8
((lp702
(F0.37000000000261934
I10
tp703
aF40.069999999999709
tp704
sg48
((lp705
(F0.090000000003783498
I8
tp706
aF40.020000000004075
tp707
sg76
((lp708
(F0.98999999999796273
I48
tp709
aF40.009999999994761
tp710
sg135
((lp711
(F0.26000000000203727
I8
tp712
aF40.05000000000291
tp713
sg106
((lp714
(F0.55000000000291038
I13
tp715
aF40.040000000000873
tp716
ssba(imeasure_core
ProblemSetSolution
p717
(dp718
g3
g184
sg164
g700
sg167
(dp719
g187
((lp720
F40.259999999994761
tp721
sg235
((lp722
(F1.1100000000005821
I30
tp723
aF40.020000000004075
tp724
sg288
((lp725
F40.299999999995634
tp726
sg339
((lp727
(F0.22000000000116415
I13
tp728
aF40.040000000000873
tp729
sg383
((lp730
(F3.2400000000052387
I55
tp731
aF40.040000000000873
tp732
ssba(imeasure_core
ProblemSetSolution
p733
(dp734
g3
g444
sg164
g700
sg167
(dp735
g447
((lp736
F40.099999999998545
tp737
sg496
((lp738
(F21.100000000005821
I17
tp739
aF40.25
tp740
sg547
((lp741
F40.770000000004075
tp742
sg589
((lp743
(F22.690000000002328
I29
tp744
aF40.239999999997963
tp745
sg634
((lp746
F41.180000000000291
tp747
ssba(imeasure_core
ProblemSetSolution
p748
(dp749
g3
g4
sg164
S'AnytimeBest-d150_with_PowerHeuristic2'
p750
sg167
(dp751
g8
((lp752
(F0.36000000000058208
I10
tp753
aF40.040000000000873
tp754
sg48
((lp755
(F0.08999999999650754
I8
tp756
aF40.019999999996799
tp757
sg76
((lp758
(F0.98999999999796273
I48
tp759
aF40.010000000002037
tp760
sg135
((lp761
(F0.25999999999476131
I8
tp762
aF40.049999999995634
tp763
sg106
((lp764
(F0.55999999999767169
I13
tp765
aF40.040000000000873
tp766
ssba(imeasure_core
ProblemSetSolution
p767
(dp768
g3
g184
sg164
g750
sg167
(dp769
g187
((lp770
F40.260000000002037
tp771
sg235
((lp772
(F1.1100000000005821
I30
tp773
aF40.020000000004075
tp774
sg288
((lp775
F40.32999999999447
tp776
sg339
((lp777
(F0.23000000000320142
I13
tp778
aF40.029999999998836
tp779
sg383
((lp780
(F3.2200000000011642
I55
tp781
aF40.190000000002328
tp782
ssba(imeasure_core
ProblemSetSolution
p783
(dp784
g3
g444
sg164
g750
sg167
(dp785
g447
((lp786
F40.440000000002328
tp787
sg496
((lp788
(F21.169999999998254
I17
tp789
aF40.239999999997963
tp790
sg547
((lp791
F40.809999999997672
tp792
sg589
((lp793
(F22.709999999999127
I29
tp794
aF40.239999999997963
tp795
sg634
((lp796
F41.230000000003201
tp797
ssba(imeasure_core
ProblemSetSolution
p798
(dp799
g3
g4
sg164
S'AnytimeBest-d250_with_PowerHeuristic2'
p800
sg167
(dp801
g8
((lp802
(F0.36000000000058208
I10
tp803
aF40.040000000000873
tp804
sg48
((lp805
(F0.08000000000174623
I8
tp806
aF40.019999999996799
tp807
sg76
((lp808
(F0.99000000000523869
I48
tp809
aF40.029999999998836
tp810
sg135
((lp811
(F0.26000000000203727
I8
tp812
aF40.05000000000291
tp813
sg106
((lp814
(F0.56000000000494765
I13
tp815
aF40.040000000000873
tp816
ssba(imeasure_core
ProblemSetSolution
p817
(dp818
g3
g184
sg164
g800
sg167
(dp819
g187
((lp820
F40.25
tp821
sg235
((lp822
(F1.1299999999973807
I30
tp823
aF40.019999999996799
tp824
sg288
((lp825
F40.30000000000291
tp826
sg339
((lp827
(F0.23000000000320142
I13
tp828
aF40.029999999998836
tp829
sg383
((lp830
(F3.2200000000011642
I55
tp831
aF40.160000000003492
tp832
ssba(imeasure_core
ProblemSetSolution
p833
(dp834
g3
g444
sg164
g800
sg167
(dp835
g447
((lp836
F40.139999999999418
tp837
sg496
((lp838
(F21.110000000000582
I17
tp839
aF40.459999999999127
tp840
sg547
((lp841
F40.799999999995634
tp842
sg589
((lp843
(F22.590000000003783
I29
tp844
aF40.240000000005239
tp845
sg634
((lp846
F41.029999999998836
tp847
ssba(imeasure_core
ProblemSetSolution
p848
(dp849
g3
g4
sg164
S'AnytimeBest-d400_with_PowerHeuristic2'
p850
sg167
(dp851
g8
((lp852
(F0.36000000000058208
I10
tp853
aF40.039999999993597
tp854
sg48
((lp855
(F0.08000000000174623
I8
tp856
aF40.020000000004075
tp857
sg76
((lp858
(F0.98999999999796273
I48
tp859
aF40.010000000002037
tp860
sg135
((lp861
(F0.25999999999476131
I8
tp862
aF40.049999999995634
tp863
sg106
((lp864
(F0.55999999999767169
I13
tp865
aF40.040000000000873
tp866
ssba(imeasure_core
ProblemSetSolution
p867
(dp868
g3
g184
sg164
g850
sg167
(dp869
g187
((lp870
F40.450000000004366
tp871
sg235
((lp872
(F1.0999999999985448
I30
tp873
aF40.019999999996799
tp874
sg288
((lp875
F40.309999999997672
tp876
sg339
((lp877
(F0.23000000000320142
I13
tp878
aF40.020000000004075
tp879
sg383
((lp880
(F3.2200000000011642
I55
tp881
aF40.059999999997672
tp882
ssba(imeasure_core
ProblemSetSolution
p883
(dp884
g3
g444
sg164
g850
sg167
(dp885
g447
((lp886
F40.229999999995925
tp887
sg496
((lp888
(F21.090000000003783
I17
tp889
aF40.860000000000582
tp890
sg547
((lp891
F40.720000000001164
tp892
sg589
((lp893
(F22.529999999998836
I29
tp894
aF40.239999999997963
tp895
sg634
((lp896
F41.67000000000553
tp897
ssba(imeasure_core
ProblemSetSolution
p898
(dp899
g3
g4
sg164
S'AnytimeBest-d10_with_LinearHeuristic'
p900
sg167
(dp901
g8
((lp902
F40.149999999994179
tp903
sg48
((lp904
(F0.090000000003783498
I7
tp905
aF40.069999999999709
tp906
sg76
((lp907
F40.069999999999709
tp908
sg135
((lp909
F40.099999999998545
tp910
sg106
((lp911
F40.120000000002619
tp912
ssba(imeasure_core
ProblemSetSolution
p913
(dp914
g3
g184
sg164
g900
sg167
(dp915
g187
((lp916
F40.040000000000873
tp917
sg235
((lp918
F40.180000000000291
tp919
sg288
((lp920
F40.05000000000291
tp921
sg339
((lp922
F40.059999999997672
tp923
sg383
((lp924
(F0.29000000000087311
I8
tp925
aF40.059999999997672
tp926
ssba(imeasure_core
ProblemSetSolution
p927
(dp928
g3
g444
sg164
g900
sg167
(dp929
g447
((lp930
F40.389999999999418
tp931
sg496
((lp932
F40.480000000003201
tp933
sg547
((lp934
(F23.220000000001164
I10
tp935
aF40.540000000000873
tp936
sg589
((lp937
F42.049999999995634
tp938
sg634
((lp939
F41.349999999998545
tp940
ssba(imeasure_core
ProblemSetSolution
p941
(dp942
g3
g4
sg164
S'AnytimeBest-d80_with_LinearHeuristic'
p943
sg167
(dp944
g8
((lp945
(F1.8899999999994179
I29
tp946
aF40.069999999999709
tp947
sg48
((lp948
(F0.090000000003783498
I7
tp949
aF40.080000000001746
tp950
sg76
((lp951
F40.040000000000873
tp952
sg135
((lp953
F40.05000000000291
tp954
sg106
((lp955
F40.339999999996508
tp956
ssba(imeasure_core
ProblemSetSolution
p957
(dp958
g3
g184
sg164
g943
sg167
(dp959
g187
((lp960
F40.05000000000291
tp961
sg235
((lp962
F40.229999999995925
tp963
sg288
((lp964
F40.05000000000291
tp965
sg339
((lp966
(F0.56999999999970896
I27
tp967
aF40.040000000000873
tp968
sg383
((lp969
(F0.28999999999359716
I8
tp970
aF40.099999999998545
tp971
ssba(imeasure_core
ProblemSetSolution
p972
(dp973
g3
g444
sg164
g943
sg167
(dp974
g447
((lp975
F40.180000000000291
tp976
sg496
((lp977
F41.280000000006112
tp978
sg547
((lp979
(F23.379999999997381
I10
tp980
aF40.32999999999447
tp981
sg589
((lp982
F40.630000000004657
tp983
sg634
((lp984
F40.849999999998545
tp985
ssba(imeasure_core
ProblemSetSolution
p986
(dp987
g3
g4
sg164
S'AnytimeBest-d150_with_LinearHeuristic'
p988
sg167
(dp989
g8
((lp990
(F1.9000000000014552
I29
tp991
aF40.150000000001455
tp992
sg48
((lp993
(F0.08999999999650754
I7
tp994
aF40.069999999999709
tp995
sg76
((lp996
F40.089999999996508
tp997
sg135
((lp998
F40.059999999997672
tp999
sg106
((lp1000
F40.110000000000582
tp1001
ssba(imeasure_core
ProblemSetSolution
p1002
(dp1003
g3
g184
sg164
g988
sg167
(dp1004
g187
((lp1005
F40.080000000001746
tp1006
sg235
((lp1007
F40.059999999997672
tp1008
sg288
((lp1009
F40.069999999999709
tp1010
sg339
((lp1011
(F0.56999999999970896
I27
tp1012
aF40.040000000000873
tp1013
sg383
((lp1014
(F0.29000000000087311
I8
tp1015
aF40.130000000004657
tp1016
ssba(imeasure_core
ProblemSetSolution
p1017
(dp1018
g3
g444
sg164
g988
sg167
(dp1019
g447
((lp1020
F40.669999999998254
tp1021
sg496
((lp1022
F41.309999999997672
tp1023
sg547
((lp1024
(F23.319999999999709
I10
tp1025
aF40.730000000003201
tp1026
sg589
((lp1027
F40.629999999997381
tp1028
sg634
((lp1029
F40.769999999996799
tp1030
ssba(imeasure_core
ProblemSetSolution
p1031
(dp1032
g3
g4
sg164
S'AnytimeBest-d250_with_LinearHeuristic'
p1033
sg167
(dp1034
g8
((lp1035
(F1.8900000000066939
I29
tp1036
aF40.220000000001164
tp1037
sg48
((lp1038
(F0.090000000003783498
I7
tp1039
aF40.080000000001746
tp1040
sg76
((lp1041
F40.059999999997672
tp1042
sg135
((lp1043
F40.119999999995343
tp1044
sg106
((lp1045
F40.530000000006112
tp1046
ssba(imeasure_core
ProblemSetSolution
p1047
(dp1048
g3
g184
sg164
g1033
sg167
(dp1049
g187
((lp1050
F40.080000000001746
tp1051
sg235
((lp1052
F40.169999999998254
tp1053
sg288
((lp1054
F40.040000000000873
tp1055
sg339
((lp1056
(F0.56999999999970896
I27
tp1057
aF40.040000000000873
tp1058
sg383
((lp1059
(F0.29000000000087311
I8
tp1060
aF40.120000000002619
tp1061
ssba(imeasure_core
ProblemSetSolution
p1062
(dp1063
g3
g444
sg164
g1033
sg167
(dp1064
g447
((lp1065
F40.569999999999709
tp1066
sg496
((lp1067
F41.319999999999709
tp1068
sg547
((lp1069
(F23.540000000000873
I10
tp1070
aF40.410000000003492
tp1071
sg589
((lp1072
F40.979999999995925
tp1073
sg634
((lp1074
F41.130000000004657
tp1075
ssba(imeasure_core
ProblemSetSolution
p1076
(dp1077
g3
g4
sg164
S'AnytimeBest-d400_with_LinearHeuristic'
p1078
sg167
(dp1079
g8
((lp1080
(F1.8799999999973807
I29
tp1081
aF40.059999999997672
tp1082
sg48
((lp1083
(F0.08999999999650754
I7
tp1084
aF40.080000000001746
tp1085
sg76
((lp1086
F40.029999999998836
tp1087
sg135
((lp1088
F40.150000000001455
tp1089
sg106
((lp1090
F40.44999999999709
tp1091
ssba(imeasure_core
ProblemSetSolution
p1092
(dp1093
g3
g184
sg164
g1078
sg167
(dp1094
g187
((lp1095
F40.059999999997672
tp1096
sg235
((lp1097
F40.220000000001164
tp1098
sg288
((lp1099
F40.180000000000291
tp1100
sg339
((lp1101
(F0.55999999999767169
I27
tp1102
aF40.120000000002619
tp1103
sg383
((lp1104
(F0.27999999999883585
I8
tp1105
aF40.069999999999709
tp1106
ssba(imeasure_core
ProblemSetSolution
p1107
(dp1108
g3
g444
sg164
g1078
sg167
(dp1109
g447
((lp1110
F40.529999999998836
tp1111
sg496
((lp1112
F41.580000000001746
tp1113
sg547
((lp1114
(F23.379999999997381
I10
tp1115
aF40.339999999996508
tp1116
sg589
((lp1117
F40.870000000002619
tp1118
sg634
((lp1119
F41.069999999999709
tp1120
ssba.