(lp0
(imeasure_core
ProblemSetSolution
p1
(dp2
S'roomset'
p3
(imeasure_core
RoomSet
p4
(dp5
S'rooms'
p6
(dp7
(iproblems
RoomID
p8
(dp9
S'dusts'
p10
I8
sS'obstacles'
p11
(I2
I4
tp12
sS'robots'
p13
I4
sS'height'
p14
I9
sS'width'
p15
I7
sS'seed'
p16
I7283207964119141687
sb(imulti_robot_problem
MultiRobotState
p17
(dp18
S'obstacle_locations'
p19
c__builtin__
frozenset
p20
((lp21
(I4
I6
tp22
a(I4
I3
tp23
a(I3
I0
tp24
a(I4
I2
tp25
a(I3
I4
tp26
ag12
a(I3
I3
tp27
atp28
Rp29
sg15
I7
sS'dirt_locations'
p30
g20
((lp31
(I4
I5
tp32
a(I5
I7
tp33
a(I0
I6
tp34
a(I1
I6
tp35
a(I5
I0
tp36
a(I5
I1
tp37
a(I5
I2
tp38
a(I1
I1
tp39
atp40
Rp41
sg13
((I1
I5
tp42
(I5
I5
tp43
(I3
I1
tp44
(I3
I5
tp45
tp46
sg14
I9
sbs(iproblems
RoomID
p47
(dp48
g10
I8
sg11
(I4
I6
tp49
sg13
I2
sg14
I10
sg15
I8
sg16
I890727360438182992
sb(imulti_robot_problem
MultiRobotState
p50
(dp51
g19
g20
((lp52
(I0
I0
tp53
ag49
a(I6
I6
tp54
a(I5
I6
tp55
a(I7
I6
tp56
a(I7
I4
tp57
a(I4
I2
tp58
a(I2
I4
tp59
atp60
Rp61
sg15
I8
sg30
g20
((lp62
(I7
I0
tp63
a(I7
I1
tp64
a(I6
I3
tp65
a(I1
I8
tp66
a(I0
I5
tp67
a(I5
I1
tp68
a(I1
I0
tp69
a(I0
I3
tp70
atp71
Rp72
sg13
((I2
I8
tp73
(I2
I5
tp74
tp75
sg14
I10
sbs(iproblems
RoomID
p76
(dp77
g10
I7
sg11
(I4
I1
tp78
sg13
I3
sg14
I10
sg15
I10
sg16
I1585446675937841368
sb(imulti_robot_problem
MultiRobotState
p79
(dp80
g19
g20
((lp81
(I3
I2
tp82
a(I2
I6
tp83
a(I6
I7
tp84
a(I6
I1
tp85
a(I7
I2
tp86
a(I5
I0
tp87
ag78
a(I2
I4
tp88
a(I5
I8
tp89
atp90
Rp91
sg15
I10
sg30
g20
((lp92
(I7
I3
tp93
a(I9
I4
tp94
a(I2
I9
tp95
a(I1
I7
tp96
a(I2
I2
tp97
a(I5
I2
tp98
a(I9
I7
tp99
atp100
Rp101
sg13
((I8
I9
tp102
(I4
I4
tp103
(I9
I8
tp104
tp105
sg14
I10
sbs(iproblems
RoomID
p106
(dp107
g10
I10
sg11
(I6
I5
tp108
sg13
I5
sg14
I8
sg15
I9
sg16
I3960482443532127989
sb(imulti_robot_problem
MultiRobotState
p109
(dp110
g19
g20
((lp111
(I4
I5
tp112
a(I5
I5
tp113
ag108
a(I6
I6
tp114
atp115
Rp116
sg15
I9
sg30
g20
((lp117
(I2
I7
tp118
a(I2
I6
tp119
a(I5
I0
tp120
a(I5
I7
tp121
a(I1
I4
tp122
a(I1
I5
tp123
a(I3
I6
tp124
a(I8
I0
tp125
a(I8
I5
tp126
a(I5
I3
tp127
atp128
Rp129
sg13
((I4
I3
tp130
(I8
I7
tp131
(I1
I6
tp132
(I7
I3
tp133
(I6
I4
tp134
tp135
sg14
I8
sbs(iproblems
RoomID
p136
(dp137
g10
I5
sg11
(I7
I3
tp138
sg13
I1
sg14
I7
sg15
I8
sg16
I1736392818365009963
sb(imulti_robot_problem
MultiRobotState
p139
(dp140
g19
g20
((lp141
g138
a(I2
I6
tp142
a(I7
I0
tp143
a(I7
I1
tp144
a(I2
I1
tp145
a(I6
I3
tp146
a(I0
I4
tp147
a(I7
I2
tp148
atp149
Rp150
sg15
I8
sg30
g20
((lp151
(I0
I1
tp152
a(I6
I2
tp153
a(I1
I6
tp154
a(I4
I4
tp155
a(I0
I0
tp156
atp157
Rp158
sg13
((I3
I1
tp159
tp160
sg14
I7
sbssS'name'
p161
S'easy_roomset'
p162
sbsg161
S'AnytimeBest-dinf_with_PowerHeuristic2'
p163
sS'solutions'
p164
(dp165
g8
((lp166
(F1.7700000000004366
I28
tp167
aF40.180000000000291
tp168
sg47
((lp169
(F0.049999999999272404
I19
tp170
a(F25.389999999999418
I18
tp171
aF40.0
tp172
sg76
((lp173
(F0.15999999999985448
I14
tp174
aF40.020000000000437
tp175
sg106
((lp176
(F2.0399999999990541
I10
tp177
aF40.059999999999491
tp178
sg136
((lp179
(F0.11999999999898137
I30
tp180
a(F0.12999999999919964
I28
tp181
a(F0.61999999999898137
I27
tp182
a(F0.92000000000007276
I25
tp183
a(F1.0599999999994907
I23
tp184
a(F1.1700000000000728
I22
tp185
a(F2.7600000000002183
I21
tp186
a(F2.8500000000003638
I20
tp187
aF3.4400000000005093
tp188
ssba(imeasure_core
ProblemSetSolution
p189
(dp190
g3
(imeasure_core
RoomSet
p191
(dp192
g6
(dp193
(iproblems
RoomID
p194
(dp195
g10
I8
sg11
(I2
I6
tp196
sg13
I4
sg14
I11
sg15
I9
sg16
I7283207964119141687
sb(imulti_robot_problem
MultiRobotState
p197
(dp198
g19
g20
((lp199
(I4
I7
tp200
a(I1
I3
tp201
a(I4
I3
tp202
a(I4
I5
tp203
a(I5
I4
tp204
a(I1
I4
tp205
a(I8
I9
tp206
a(I6
I2
tp207
a(I0
I10
tp208
a(I3
I7
tp209
a(I0
I3
tp210
a(I8
I5
tp211
a(I4
I0
tp212
a(I5
I3
tp213
a(I5
I5
tp214
a(I5
I2
tp215
a(I6
I1
tp216
a(I6
I10
tp217
ag196
a(I6
I3
tp218
a(I3
I6
tp219
a(I3
I5
tp220
a(I3
I4
tp221
a(I2
I4
tp222
atp223
Rp224
sg15
I9
sg30
g20
((lp225
(I7
I0
tp226
a(I6
I8
tp227
a(I7
I1
tp228
a(I5
I6
tp229
a(I1
I8
tp230
a(I0
I8
tp231
a(I4
I1
tp232
a(I5
I8
tp233
atp234
Rp235
sg13
((I1
I7
tp236
(I6
I6
tp237
(I4
I6
tp238
(I2
I1
tp239
tp240
sg14
I11
sbs(iproblems
RoomID
p241
(dp242
g10
I8
sg11
(I3
I5
tp243
sg13
I3
sg14
I12
sg15
I10
sg16
I890727360438182992
sb(imulti_robot_problem
MultiRobotState
p244
(dp245
g19
g20
((lp246
(I4
I7
tp247
a(I0
I0
tp248
a(I3
I0
tp249
a(I3
I2
tp250
a(I1
I4
tp251
a(I8
I9
tp252
a(I7
I5
tp253
a(I2
I3
tp254
a(I3
I4
tp255
a(I5
I8
tp256
ag243
a(I3
I1
tp257
a(I6
I7
tp258
a(I6
I8
tp259
a(I5
I2
tp260
a(I5
I7
tp261
a(I8
I8
tp262
a(I3
I9
tp263
a(I4
I11
tp264
a(I7
I10
tp265
a(I2
I2
tp266
a(I0
I9
tp267
a(I7
I8
tp268
atp269
Rp270
sg15
I10
sg30
g20
((lp271
(I9
I2
tp272
a(I6
I1
tp273
a(I8
I0
tp274
a(I2
I10
tp275
a(I0
I6
tp276
a(I0
I4
tp277
a(I9
I5
tp278
a(I1
I1
tp279
atp280
Rp281
sg13
((I2
I9
tp282
(I2
I6
tp283
(I8
I4
tp284
tp285
sg14
I12
sbs(iproblems
RoomID
p286
(dp287
g10
I9
sg11
(I1
I3
tp288
sg13
I4
sg14
I9
sg15
I10
sg16
I7713914763314685786
sb(imulti_robot_problem
MultiRobotState
p289
(dp290
g19
g20
((lp291
(I3
I2
tp292
ag288
a(I7
I1
tp293
a(I9
I3
tp294
a(I6
I0
tp295
a(I2
I1
tp296
a(I4
I2
tp297
a(I5
I1
tp298
a(I9
I6
tp299
a(I7
I2
tp300
a(I4
I0
tp301
a(I1
I2
tp302
a(I7
I0
tp303
a(I5
I2
tp304
a(I6
I1
tp305
a(I3
I1
tp306
a(I1
I5
tp307
a(I1
I8
tp308
a(I2
I2
tp309
a(I3
I5
tp310
a(I4
I1
tp311
a(I1
I1
tp312
atp313
Rp314
sg15
I10
sg30
g20
((lp315
(I7
I3
tp316
a(I5
I4
tp317
a(I7
I6
tp318
a(I7
I5
tp319
a(I0
I5
tp320
a(I8
I7
tp321
a(I8
I6
tp322
a(I8
I5
tp323
a(I9
I7
tp324
atp325
Rp326
sg13
((I3
I0
tp327
(I7
I7
tp328
(I2
I0
tp329
(I4
I6
tp330
tp331
sg14
I9
sbs(iproblems
RoomID
p332
(dp333
g10
I7
sg11
(I6
I3
tp334
sg13
I3
sg14
I12
sg15
I12
sg16
I1585446675937841368
sb(imulti_robot_problem
MultiRobotState
p335
(dp336
g19
g20
((lp337
(I5
I9
tp338
a(I4
I3
tp339
a(I5
I7
tp340
a(I8
I2
tp341
a(I4
I10
tp342
a(I7
I3
tp343
a(I2
I8
tp344
a(I9
I3
tp345
a(I3
I11
tp346
a(I7
I1
tp347
a(I7
I7
tp348
a(I6
I2
tp349
a(I5
I1
tp350
a(I1
I11
tp351
a(I8
I5
tp352
a(I7
I2
tp353
a(I2
I7
tp354
a(I6
I7
tp355
a(I6
I8
tp356
a(I2
I9
tp357
a(I5
I2
tp358
a(I7
I6
tp359
a(I6
I6
tp360
a(I2
I11
tp361
ag334
a(I4
I11
tp362
a(I7
I10
tp363
a(I3
I4
tp364
a(I8
I6
tp365
a(I7
I8
tp366
a(I8
I4
tp367
atp368
Rp369
sg15
I12
sg30
g20
((lp370
(I3
I2
tp371
a(I1
I9
tp372
a(I9
I4
tp373
a(I11
I5
tp374
a(I11
I8
tp375
a(I2
I5
tp376
a(I6
I10
tp377
atp378
Rp379
sg13
((I10
I10
tp380
(I5
I5
tp381
(I11
I10
tp382
tp383
sg14
I12
sbs(iproblems
RoomID
p384
(dp385
g10
I5
sg11
(I7
I6
tp386
sg13
I3
sg14
I9
sg15
I10
sg16
I1736392818365009963
sb(imulti_robot_problem
MultiRobotState
p387
(dp388
g19
g20
((lp389
(I7
I3
tp390
a(I9
I1
tp391
a(I4
I8
tp392
a(I9
I3
tp393
a(I7
I7
tp394
a(I6
I2
tp395
a(I0
I5
tp396
a(I0
I4
tp397
a(I8
I5
tp398
a(I7
I2
tp399
a(I1
I2
tp400
a(I3
I8
tp401
a(I9
I0
tp402
a(I9
I2
tp403
ag386
a(I7
I4
tp404
a(I7
I5
tp405
a(I6
I5
tp406
a(I4
I3
tp407
a(I2
I2
tp408
a(I0
I1
tp409
a(I5
I2
tp410
a(I8
I4
tp411
atp412
Rp413
sg15
I10
sg30
g20
((lp414
(I1
I8
tp415
a(I3
I1
tp416
a(I4
I1
tp417
a(I0
I2
tp418
a(I5
I5
tp419
atp420
Rp421
sg13
((I4
I2
tp422
(I1
I0
tp423
(I8
I2
tp424
tp425
sg14
I9
sbssg161
S'mild_roomset'
p426
sbsg161
g163
sg164
(dp427
g194
((lp428
(F0.10999999999876309
I7
tp429
aF40.039999999999054
tp430
sg241
((lp431
F40.139999999999418
tp432
sg332
((lp433
(F0.22999999999956344
I20
tp434
aF40.010000000000218
tp435
sg286
((lp436
(F0.55000000000109139
I15
tp437
aF40.050000000001091
tp438
sg384
((lp439
(F2.0499999999992724
I66
tp440
aF40.010000000000218
tp441
ssba(imeasure_core
ProblemSetSolution
p442
(dp443
g3
(imeasure_core
RoomSet
p444
(dp445
g6
(dp446
(iproblems
RoomID
p447
(dp448
g10
I13
sg11
(I8
I4
tp449
sg13
I7
sg14
I12
sg15
I10
sg16
I7283207964119141687
sb(imulti_robot_problem
MultiRobotState
p450
(dp451
g19
g20
((lp452
(I6
I3
tp453
a(I5
I2
tp454
a(I6
I10
tp455
a(I6
I0
tp456
a(I7
I4
tp457
a(I0
I11
tp458
a(I6
I2
tp459
a(I3
I6
tp460
a(I2
I2
tp461
a(I0
I4
tp462
a(I3
I4
tp463
a(I5
I8
tp464
ag449
atp465
Rp466
sg15
I10
sg30
g20
((lp467
(I7
I3
tp468
a(I6
I7
tp469
a(I6
I8
tp470
a(I7
I1
tp471
a(I8
I1
tp472
a(I4
I4
tp473
a(I6
I6
tp474
a(I5
I6
tp475
a(I1
I9
tp476
a(I5
I0
tp477
a(I9
I10
tp478
a(I9
I6
tp479
a(I7
I9
tp480
atp481
Rp482
sg13
((I1
I7
tp483
(I7
I6
tp484
(I4
I6
tp485
(I2
I1
tp486
(I6
I4
tp487
(I0
I9
tp488
(I8
I0
tp489
tp490
sg14
I12
sbs(iproblems
RoomID
p491
(dp492
g10
I13
sg11
(I8
I3
tp493
sg13
I5
sg14
I13
sg15
I11
sg16
I890727360438182992
sb(imulti_robot_problem
MultiRobotState
p494
(dp495
g19
g20
((lp496
(I4
I10
tp497
a(I6
I9
tp498
a(I8
I2
tp499
a(I5
I9
tp500
a(I9
I8
tp501
ag493
a(I4
I12
tp502
a(I0
I10
tp503
a(I8
I7
tp504
a(I9
I1
tp505
a(I9
I0
tp506
a(I6
I8
tp507
a(I6
I10
tp508
a(I8
I8
tp509
a(I8
I6
tp510
a(I7
I8
tp511
a(I0
I2
tp512
atp513
Rp514
sg15
I11
sg30
g20
((lp515
(I10
I5
tp516
a(I0
I0
tp517
a(I4
I6
tp518
a(I0
I6
tp519
a(I9
I2
tp520
a(I8
I11
tp521
a(I2
I1
tp522
a(I9
I10
tp523
a(I1
I5
tp524
a(I0
I4
tp525
a(I0
I9
tp526
a(I5
I2
tp527
a(I4
I11
tp528
atp529
Rp530
sg13
((I3
I10
tp531
(I2
I7
tp532
(I9
I4
tp533
(I2
I11
tp534
(I7
I1
tp535
tp536
sg14
I13
sbs(iproblems
RoomID
p537
(dp538
g10
I12
sg11
(I6
I9
tp539
sg13
I6
sg14
I13
sg15
I13
sg16
I1585446675937841368
sb(imulti_robot_problem
MultiRobotState
p540
(dp541
g19
g20
((lp542
(I7
I3
tp543
ag539
a(I8
I11
tp544
a(I7
I7
tp545
a(I4
I12
tp546
a(I10
I3
tp547
a(I5
I8
tp548
a(I7
I4
tp549
a(I1
I12
tp550
a(I2
I9
tp551
a(I8
I1
tp552
a(I7
I6
tp553
a(I6
I3
tp554
a(I9
I2
tp555
a(I7
I5
tp556
a(I7
I2
tp557
a(I7
I10
tp558
a(I8
I4
tp559
a(I3
I4
tp560
a(I2
I4
tp561
a(I9
I12
tp562
a(I9
I7
tp563
atp564
Rp565
sg15
I13
sg30
g20
((lp566
(I3
I3
tp567
a(I2
I8
tp568
a(I12
I9
tp569
a(I6
I10
tp570
a(I8
I10
tp571
a(I2
I10
tp572
a(I12
I5
tp573
a(I4
I3
tp574
a(I5
I1
tp575
a(I7
I9
tp576
a(I5
I2
tp577
a(I3
I5
tp578
atp579
Rp580
sg13
((I10
I11
tp581
(I5
I5
tp582
(I12
I11
tp583
(I1
I10
tp584
(I3
I12
tp585
(I10
I4
tp586
tp587
sg14
I13
sbs(iproblems
RoomID
p588
(dp589
g10
I10
sg11
(I10
I4
tp590
sg13
I5
sg14
I10
sg15
I11
sg16
I1736392818365009963
sb(imulti_robot_problem
MultiRobotState
p591
(dp592
g19
g20
((lp593
(I0
I1
tp594
a(I1
I2
tp595
a(I3
I2
tp596
ag590
a(I4
I5
tp597
a(I7
I4
tp598
a(I6
I2
tp599
a(I2
I3
tp600
a(I10
I1
tp601
a(I3
I8
tp602
a(I10
I0
tp603
a(I10
I3
tp604
a(I10
I2
tp605
atp606
Rp607
sg15
I11
sg30
g20
((lp608
(I5
I9
tp609
a(I5
I5
tp610
a(I3
I1
tp611
a(I8
I8
tp612
a(I0
I5
tp613
a(I3
I9
tp614
a(I8
I4
tp615
a(I4
I1
tp616
a(I6
I5
tp617
a(I5
I3
tp618
atp619
Rp620
sg13
((I4
I2
tp621
(I1
I0
tp622
(I9
I3
tp623
(I1
I9
tp624
(I0
I2
tp625
tp626
sg14
I10
sbs(iproblems
RoomID
p627
(dp628
g10
I15
sg11
(I6
I9
tp629
sg13
I7
sg14
I11
sg15
I12
sg16
I3960482443532127989
sb(imulti_robot_problem
MultiRobotState
p630
(dp631
g19
g20
((lp632
(I5
I9
tp633
ag629
a(I9
I1
tp634
a(I4
I10
tp635
a(I5
I6
tp636
a(I7
I7
tp637
a(I2
I10
tp638
a(I3
I9
tp639
a(I9
I4
tp640
a(I5
I10
tp641
a(I6
I4
tp642
a(I6
I5
tp643
a(I1
I2
tp644
a(I7
I4
tp645
a(I8
I3
tp646
a(I6
I7
tp647
a(I2
I9
tp648
a(I10
I7
tp649
a(I5
I7
tp650
a(I6
I3
tp651
a(I8
I1
tp652
a(I0
I9
tp653
a(I8
I6
tp654
a(I7
I8
tp655
a(I11
I6
tp656
a(I9
I7
tp657
atp658
Rp659
sg15
I12
sg30
g20
((lp660
(I7
I3
tp661
a(I2
I6
tp662
a(I5
I5
tp663
a(I3
I0
tp664
a(I3
I8
tp665
a(I0
I6
tp666
a(I11
I1
tp667
a(I1
I6
tp668
a(I4
I3
tp669
a(I1
I7
tp670
a(I1
I3
tp671
a(I1
I0
tp672
a(I10
I1
tp673
a(I1
I1
tp674
a(I10
I2
tp675
atp676
Rp677
sg13
((I11
I10
tp678
(I1
I8
tp679
(I10
I5
tp680
(I11
I0
tp681
(I4
I8
tp682
(I7
I9
tp683
(I7
I1
tp684
tp685
sg14
I11
sbssg161
S'heavy_roomset'
p686
sbsg161
g163
sg164
(dp687
g447
((lp688
(F39.409999999999854
I10
tp689
aF40.319999999999709
tp690
sg491
((lp691
F41.149999999999636
tp692
sg627
((lp693
F40.590000000000146
tp694
sg588
((lp695
(F1.25
I9
tp696
aF40.049999999999272
tp697
sg537
((lp698
F40.670000000000073
tp699
ssba(imeasure_core
ProblemSetSolution
p700
(dp701
g3
g4
sg161
S'AnytimeBest-dinf_with_LinearHeuristic'
p702
sg164
(dp703
g8
((lp704
(F0.34000000000014552
I5
tp705
aF40.130000000001019
tp706
sg47
((lp707
(F0.11999999999898137
I22
tp708
aF40.009999999998399
tp709
sg76
((lp710
F40.100000000000364
tp711
sg106
((lp712
(F2.3400000000001455
I10
tp713
aF40.170000000000073
tp714
sg136
((lp715
(F0.010000000000218279
I20
tp716
aF7.1499999999996362
tp717
ssba(imeasure_core
ProblemSetSolution
p718
(dp719
g3
g191
sg161
g702
sg164
(dp720
g194
((lp721
(F24.989999999999782
I177
tp722
aF40.1200000000008
tp723
sg241
((lp724
F40.049999999999272
tp725
sg332
((lp726
F40.029999999998836
tp727
sg286
((lp728
F40.040000000000873
tp729
sg384
((lp730
(F0.32999999999992724
I23
tp731
a(F9.1400000000012369
I21
tp732
a(F12.329999999999927
I20
tp733
a(F18.180000000000291
I19
tp734
aF40.06000000000131
tp735
ssba(imeasure_core
ProblemSetSolution
p736
(dp737
g3
g444
sg161
g702
sg164
(dp738
g447
((lp739
F41.739999999999782
tp740
sg491
((lp741
F40.440000000000509
tp742
sg627
((lp743
F44.299999999999272
tp744
sg588
((lp745
(F36.420000000000073
I95
tp746
aF40.920000000000073
tp747
sg537
((lp748
F40.869999999998981
tp749
ssba.