(lp0
(imeasure_core
ProblemSetSolution
p1
(dp2
S'roomset'
p3
(imeasure_core
RoomSet
p4
(dp5
S'rooms'
p6
(dp7
(iproblems
RoomID
p8
(dp9
S'dusts'
p10
I10
sS'obstacles'
p11
(I0
I8
tp12
sS'robots'
p13
I4
sS'height'
p14
I10
sS'width'
p15
I9
sS'seed'
p16
I4712128852136459333
sb(imulti_robot_problem
MultiRobotState
p17
(dp18
S'obstacle_locations'
p19
c__builtin__
frozenset
p20
((lp21
(I0
I6
tp22
ag12
a(I2
I3
tp23
a(I1
I5
tp24
a(I8
I0
tp25
a(I1
I1
tp26
a(I0
I7
tp27
atp28
Rp29
sg15
I9
sS'dirt_locations'
p30
g20
((lp31
(I4
I7
tp32
a(I1
I3
tp33
a(I4
I9
tp34
a(I8
I1
tp35
a(I7
I6
tp36
a(I2
I6
tp37
a(I8
I7
tp38
a(I2
I2
tp39
a(I4
I1
tp40
a(I2
I4
tp41
atp42
Rp43
sg13
((I5
I8
tp44
(I6
I9
tp45
(I5
I0
tp46
(I3
I1
tp47
tp48
sg14
I10
sbs(iproblems
RoomID
p49
(dp50
g10
I9
sg11
(I3
I4
tp51
sg13
I1
sg14
I7
sg15
I8
sg16
I6613812840851947673
sb(imulti_robot_problem
MultiRobotState
p52
(dp53
g19
g20
((lp54
(I3
I5
tp55
ag51
a(I2
I4
tp56
a(I2
I1
tp57
a(I1
I4
tp58
atp59
Rp60
sg15
I8
sg30
g20
((lp61
(I6
I4
tp62
a(I5
I4
tp63
a(I6
I0
tp64
a(I7
I5
tp65
a(I1
I6
tp66
a(I2
I2
tp67
a(I0
I5
tp68
a(I4
I1
tp69
a(I4
I0
tp70
atp71
Rp72
sg13
((I3
I1
tp73
tp74
sg14
I7
sbs(iproblems
RoomID
p75
(dp76
g10
I9
sg11
(I5
I3
tp77
sg13
I3
sg14
I7
sg15
I8
sg16
I4594210616595436404
sb(imulti_robot_problem
MultiRobotState
p78
(dp79
g19
g20
((lp80
(I0
I1
tp81
a(I3
I3
tp82
a(I4
I3
tp83
a(I4
I2
tp84
a(I6
I1
tp85
ag77
atp86
Rp87
sg15
I8
sg30
g20
((lp88
(I6
I6
tp89
a(I5
I6
tp90
a(I4
I4
tp91
a(I1
I4
tp92
a(I0
I6
tp93
a(I5
I1
tp94
a(I1
I0
tp95
a(I0
I3
tp96
a(I1
I1
tp97
atp98
Rp99
sg13
((I2
I1
tp100
(I3
I4
tp101
(I3
I6
tp102
tp103
sg14
I7
sbs(iproblems
RoomID
p104
(dp105
g10
I10
sg11
(I4
I8
tp106
sg13
I4
sg14
I10
sg15
I7
sg16
I956523682424107605
sb(imulti_robot_problem
MultiRobotState
p107
(dp108
g19
g20
((lp109
(I2
I8
tp110
ag106
a(I3
I7
tp111
a(I2
I9
tp112
a(I4
I2
tp113
atp114
Rp115
sg15
I7
sg30
g20
((lp116
(I5
I9
tp117
a(I4
I7
tp118
a(I1
I3
tp119
a(I3
I3
tp120
a(I5
I5
tp121
a(I6
I1
tp122
a(I5
I4
tp123
a(I0
I4
tp124
a(I5
I2
tp125
a(I5
I3
tp126
atp127
Rp128
sg13
((I1
I9
tp129
(I4
I9
tp130
(I1
I8
tp131
(I0
I3
tp132
tp133
sg14
I10
sbs(iproblems
RoomID
p134
(dp135
g10
I10
sg11
(I4
I5
tp136
sg13
I1
sg14
I8
sg15
I8
sg16
I2893396244277848635
sb(imulti_robot_problem
MultiRobotState
p137
(dp138
g19
g20
((lp139
g136
a(I3
I7
tp140
a(I2
I6
tp141
a(I4
I6
tp142
atp143
Rp144
sg15
I8
sg30
g20
((lp145
(I6
I4
tp146
a(I0
I0
tp147
a(I6
I7
tp148
a(I3
I0
tp149
a(I2
I1
tp150
a(I0
I6
tp151
a(I7
I2
tp152
a(I2
I4
tp153
a(I6
I5
tp154
a(I5
I3
tp155
atp156
Rp157
sg13
((I2
I3
tp158
tp159
sg14
I8
sbssS'name'
p160
S'easy_roomset'
p161
sbsg160
S'AnytimeBest-dinf_with_PowerHeuristic2'
p162
sS'solutions'
p163
(dp164
g8
((lp165
(F3.3300000000008367
I51
tp166
aF40.040000000000873
tp167
sg49
((lp168
(F0.13999999999941792
I36
tp169
a(F1.569999999999709
I30
tp170
a(F2.3699999999998909
I29
tp171
a(F9.5399999999999636
I28
tp172
a(F13.25
I27
tp173
a(F24.329999999999927
I26
tp174
a(F24.399999999999636
I25
tp175
aF40.009999999999309
tp176
sg75
((lp177
(F2.1700000000000728
I26
tp178
aF40.0600000000004
tp179
sg104
((lp180
(F0.34000000000014552
I10
tp181
aF40.050000000000182
tp182
sg134
((lp183
(F0.71000000000003638
I61
tp184
a(F2.0999999999994543
I57
tp185
a(F2.6700000000000728
I56
tp186
a(F3.4399999999995998
I54
tp187
a(F3.6899999999995998
I52
tp188
a(F5.7899999999999636
I51
tp189
a(F8.0599999999994907
I50
tp190
a(F8.6499999999996362
I48
tp191
a(F9.9600000000000364
I46
tp192
a(F11.210000000000036
I44
tp193
a(F22.449999999999818
I43
tp194
a(F23.069999999999709
I42
tp195
a(F23.819999999999709
I41
tp196
a(F25.029999999999745
I40
tp197
a(F26.479999999999563
I39
tp198
a(F30.009999999999309
I37
tp199
a(F30.429999999999382
I35
tp200
a(F31.409999999999854
I33
tp201
aF40.0
tp202
ssba(imeasure_core
ProblemSetSolution
p203
(dp204
g3
(imeasure_core
RoomSet
p205
(dp206
g6
(dp207
(iproblems
RoomID
p208
(dp209
g10
I10
sg11
(I8
I7
tp210
sg13
I4
sg14
I12
sg15
I11
sg16
I4712128852136459333
sb(imulti_robot_problem
MultiRobotState
p211
(dp212
g19
g20
((lp213
(I6
I4
tp214
a(I4
I7
tp215
ag210
a(I4
I5
tp216
a(I3
I11
tp217
a(I0
I7
tp218
a(I7
I7
tp219
a(I1
I6
tp220
a(I1
I9
tp221
a(I2
I10
tp222
a(I4
I2
tp223
a(I1
I11
tp224
a(I6
I5
tp225
a(I5
I3
tp226
a(I9
I0
tp227
a(I0
I8
tp228
a(I5
I5
tp229
a(I7
I6
tp230
a(I3
I1
tp231
a(I2
I11
tp232
a(I0
I9
tp233
a(I2
I3
tp234
a(I4
I1
tp235
a(I1
I1
tp236
atp237
Rp238
sg15
I11
sg30
g20
((lp239
(I2
I7
tp240
a(I9
I1
tp241
a(I9
I8
tp242
a(I5
I1
tp243
a(I2
I5
tp244
a(I9
I7
tp245
a(I3
I4
tp246
a(I2
I4
tp247
a(I5
I8
tp248
a(I3
I3
tp249
atp250
Rp251
sg13
((I6
I10
tp252
(I8
I10
tp253
(I7
I0
tp254
(I5
I11
tp255
tp256
sg14
I12
sbs(iproblems
RoomID
p257
(dp258
g10
I9
sg11
(I4
I4
tp259
sg13
I3
sg14
I9
sg15
I10
sg16
I4594210616595436404
sb(imulti_robot_problem
MultiRobotState
p260
(dp261
g19
g20
((lp262
(I1
I3
tp263
a(I3
I0
tp264
a(I2
I1
tp265
a(I1
I6
tp266
a(I9
I4
tp267
a(I3
I7
tp268
a(I0
I3
tp269
a(I1
I2
tp270
a(I5
I5
tp271
a(I1
I5
tp272
a(I7
I6
tp273
ag259
a(I6
I3
tp274
a(I5
I6
tp275
a(I3
I6
tp276
a(I0
I4
tp277
a(I8
I6
tp278
a(I3
I5
tp279
a(I1
I1
tp280
a(I5
I4
tp281
a(I4
I5
tp282
a(I0
I5
tp283
a(I5
I3
tp284
a(I0
I1
tp285
a(I5
I2
tp286
a(I0
I6
tp287
a(I2
I0
tp288
a(I1
I8
tp289
a(I2
I3
tp290
a(I9
I5
tp291
a(I3
I4
tp292
a(I0
I2
tp293
atp294
Rp295
sg15
I10
sg30
g20
((lp296
(I7
I8
tp297
a(I7
I0
tp298
a(I6
I8
tp299
a(I2
I8
tp300
a(I8
I8
tp301
a(I0
I8
tp302
a(I8
I5
tp303
a(I5
I8
tp304
a(I8
I2
tp305
atp306
Rp307
sg13
((I4
I6
tp308
(I2
I5
tp309
(I6
I1
tp310
tp311
sg14
I9
sbs(iproblems
RoomID
p312
(dp313
g10
I8
sg11
(I5
I0
tp314
sg13
I4
sg14
I9
sg15
I9
sg16
I6858376947525423350
sb(imulti_robot_problem
MultiRobotState
p315
(dp316
g19
g20
((lp317
(I6
I4
tp318
a(I4
I7
tp319
a(I1
I3
tp320
a(I4
I3
tp321
a(I7
I1
tp322
a(I3
I0
tp323
a(I2
I8
tp324
a(I6
I0
tp325
a(I2
I1
tp326
a(I1
I6
tp327
a(I5
I1
tp328
a(I2
I5
tp329
a(I0
I8
tp330
a(I7
I2
tp331
a(I2
I7
tp332
a(I3
I8
tp333
a(I5
I5
tp334
a(I6
I1
tp335
a(I5
I7
tp336
a(I6
I3
tp337
a(I1
I8
tp338
ag314
a(I2
I2
tp339
a(I2
I3
tp340
a(I3
I4
tp341
a(I2
I4
tp342
atp343
Rp344
sg15
I9
sg30
g20
((lp345
(I8
I3
tp346
a(I7
I0
tp347
a(I4
I6
tp348
a(I6
I6
tp349
a(I7
I5
tp350
a(I8
I0
tp351
a(I8
I8
tp352
a(I8
I4
tp353
atp354
Rp355
sg13
((I1
I1
tp356
(I6
I5
tp357
(I8
I2
tp358
(I1
I5
tp359
tp360
sg14
I9
sbs(iproblems
RoomID
p361
(dp362
g10
I5
sg11
(I4
I9
tp363
sg13
I4
sg14
I11
sg15
I11
sg16
I1881095652490078568
sb(imulti_robot_problem
MultiRobotState
p364
(dp365
g19
g20
((lp366
(I6
I9
tp367
a(I6
I6
tp368
a(I4
I5
tp369
a(I2
I8
tp370
a(I9
I3
tp371
a(I4
I7
tp372
a(I7
I5
tp373
a(I5
I4
tp374
ag363
a(I6
I5
tp375
a(I3
I5
tp376
a(I7
I4
tp377
a(I1
I7
tp378
a(I6
I7
tp379
a(I4
I6
tp380
a(I7
I6
tp381
a(I4
I4
tp382
a(I8
I10
tp383
a(I6
I3
tp384
a(I7
I10
tp385
a(I2
I2
tp386
a(I4
I8
tp387
a(I7
I8
tp388
a(I1
I1
tp389
a(I8
I4
tp390
atp391
Rp392
sg15
I11
sg30
g20
((lp393
(I1
I10
tp394
a(I5
I9
tp395
a(I0
I0
tp396
a(I10
I2
tp397
a(I9
I7
tp398
atp399
Rp400
sg13
((I5
I7
tp401
(I8
I1
tp402
(I3
I1
tp403
(I8
I8
tp404
tp405
sg14
I11
sbs(iproblems
RoomID
p406
(dp407
g10
I6
sg11
(I8
I8
tp408
sg13
I4
sg14
I11
sg15
I12
sg16
I7529058068588108450
sb(imulti_robot_problem
MultiRobotState
p409
(dp410
g19
g20
((lp411
(I5
I9
tp412
a(I6
I9
tp413
a(I2
I6
tp414
a(I3
I2
tp415
a(I9
I1
tp416
a(I4
I10
tp417
a(I6
I6
tp418
a(I7
I7
tp419
a(I7
I1
tp420
a(I4
I6
tp421
a(I10
I4
tp422
a(I7
I5
tp423
a(I6
I8
tp424
a(I3
I7
tp425
a(I5
I8
tp426
a(I8
I2
tp427
a(I5
I5
tp428
a(I7
I6
tp429
a(I4
I4
tp430
a(I7
I4
tp431
a(I1
I5
tp432
ag408
a(I7
I2
tp433
a(I3
I6
tp434
a(I2
I2
tp435
a(I1
I10
tp436
a(I7
I8
tp437
a(I3
I10
tp438
atp439
Rp440
sg15
I12
sg30
g20
((lp441
(I7
I3
tp442
a(I0
I5
tp443
a(I4
I0
tp444
a(I11
I3
tp445
a(I11
I6
tp446
a(I6
I0
tp447
atp448
Rp449
sg13
((I11
I7
tp450
(I6
I2
tp451
(I11
I5
tp452
(I6
I7
tp453
tp454
sg14
I11
sbssg160
S'mild_roomset'
p455
sbsg160
g162
sg163
(dp456
g208
((lp457
(F1.2600000000002183
I23
tp458
aF40.079999999999927
tp459
sg257
((lp460
F40.140000000000327
tp461
sg312
((lp462
(F0.27000000000043656
I16
tp463
aF40.0600000000004
tp464
sg361
((lp465
(F0.15999999999985448
I7
tp466
aF40.0
tp467
sg406
((lp468
(F0.93999999999959982
I33
tp469
aF40.019999999999527
tp470
ssba(imeasure_core
ProblemSetSolution
p471
(dp472
g3
(imeasure_core
RoomSet
p473
(dp474
g6
(dp475
(iproblems
RoomID
p476
(dp477
g10
I15
sg11
(I5
I9
tp478
sg13
I7
sg14
I13
sg15
I12
sg16
I4712128852136459333
sb(imulti_robot_problem
MultiRobotState
p479
(dp480
g19
g20
((lp481
g478
a(I4
I9
tp482
a(I5
I5
tp483
a(I4
I12
tp484
a(I2
I8
tp485
a(I3
I1
tp486
a(I3
I9
tp487
a(I9
I4
tp488
a(I1
I7
tp489
a(I1
I10
tp490
a(I3
I12
tp491
a(I0
I8
tp492
a(I5
I2
tp493
atp494
Rp495
sg15
I12
sg30
g20
((lp496
(I6
I9
tp497
a(I3
I3
tp498
a(I1
I12
tp499
a(I5
I6
tp500
a(I7
I7
tp501
a(I3
I5
tp502
a(I3
I8
tp503
a(I8
I8
tp504
a(I10
I0
tp505
a(I2
I5
tp506
a(I10
I2
tp507
a(I3
I4
tp508
a(I1
I1
tp509
a(I5
I8
tp510
a(I9
I7
tp511
atp512
Rp513
sg13
((I6
I11
tp514
(I8
I11
tp515
(I7
I0
tp516
(I4
I1
tp517
(I6
I12
tp518
(I10
I9
tp519
(I6
I1
tp520
tp521
sg14
I13
sbs(iproblems
RoomID
p522
(dp523
g10
I14
sg11
(I5
I5
tp524
sg13
I5
sg14
I10
sg15
I11
sg16
I6613812840851947673
sb(imulti_robot_problem
MultiRobotState
p525
(dp526
g19
g20
((lp527
(I4
I7
tp528
a(I2
I6
tp529
a(I6
I6
tp530
a(I4
I5
tp531
a(I7
I5
tp532
a(I1
I6
tp533
a(I8
I7
tp534
a(I3
I7
tp535
a(I10
I3
tp536
a(I3
I5
tp537
a(I10
I8
tp538
a(I6
I3
tp539
ag524
a(I8
I5
tp540
a(I7
I4
tp541
a(I3
I8
tp542
a(I0
I6
tp543
a(I3
I6
tp544
a(I1
I3
tp545
a(I8
I6
tp546
a(I2
I4
tp547
atp548
Rp549
sg15
I11
sg30
g20
((lp550
(I6
I4
tp551
a(I3
I2
tp552
a(I4
I6
tp553
a(I4
I9
tp554
a(I3
I3
tp555
a(I9
I8
tp556
a(I8
I0
tp557
a(I8
I8
tp558
a(I5
I0
tp559
a(I1
I0
tp560
a(I8
I4
tp561
a(I5
I2
tp562
a(I6
I1
tp563
a(I9
I7
tp564
atp565
Rp566
sg13
((I5
I1
tp567
(I0
I8
tp568
(I2
I9
tp569
(I4
I1
tp570
(I7
I6
tp571
tp572
sg14
I10
sbs(iproblems
RoomID
p573
(dp574
g10
I13
sg11
(I1
I6
tp575
sg13
I7
sg14
I10
sg15
I10
sg16
I6858376947525423350
sb(imulti_robot_problem
MultiRobotState
p576
(dp577
g19
g20
((lp578
(I4
I7
tp579
a(I1
I3
tp580
a(I2
I8
tp581
a(I2
I2
tp582
a(I2
I1
tp583
a(I2
I3
tp584
a(I9
I5
tp585
a(I2
I5
tp586
a(I2
I7
tp587
a(I2
I9
tp588
a(I8
I1
tp589
ag575
a(I1
I7
tp590
a(I0
I9
tp591
a(I8
I6
tp592
a(I2
I4
tp593
atp594
Rp595
sg15
I10
sg30
g20
((lp596
(I8
I0
tp597
a(I4
I9
tp598
a(I3
I3
tp599
a(I3
I0
tp600
a(I7
I6
tp601
a(I5
I7
tp602
a(I9
I9
tp603
a(I4
I4
tp604
a(I6
I2
tp605
a(I9
I4
tp606
a(I8
I5
tp607
a(I5
I8
tp608
a(I5
I3
tp609
atp610
Rp611
sg13
((I1
I2
tp612
(I7
I5
tp613
(I7
I2
tp614
(I9
I2
tp615
(I1
I5
tp616
(I9
I0
tp617
(I6
I6
tp618
tp619
sg14
I10
sbs(iproblems
RoomID
p620
(dp621
g10
I15
sg11
(I4
I8
tp622
sg13
I6
sg14
I13
sg15
I10
sg16
I956523682424107605
sb(imulti_robot_problem
MultiRobotState
p623
(dp624
g19
g20
((lp625
(I5
I9
tp626
a(I6
I9
tp627
a(I7
I10
tp628
ag622
a(I5
I6
tp629
a(I3
I11
tp630
a(I9
I4
tp631
a(I4
I9
tp632
a(I5
I8
tp633
a(I2
I7
tp634
a(I5
I10
tp635
a(I5
I5
tp636
a(I3
I10
tp637
a(I5
I7
tp638
a(I9
I9
tp639
a(I5
I0
tp640
a(I7
I8
tp641
a(I1
I1
tp642
atp643
Rp644
sg15
I10
sg30
g20
((lp645
(I6
I10
tp646
a(I8
I3
tp647
a(I1
I3
tp648
a(I6
I6
tp649
a(I7
I6
tp650
a(I8
I12
tp651
a(I5
I4
tp652
a(I1
I4
tp653
a(I2
I10
tp654
a(I7
I4
tp655
a(I1
I5
tp656
a(I7
I5
tp657
a(I0
I9
tp658
a(I7
I11
tp659
a(I6
I2
tp660
atp661
Rp662
sg13
((I1
I12
tp663
(I6
I12
tp664
(I2
I11
tp665
(I0
I4
tp666
(I9
I1
tp667
(I7
I7
tp668
tp669
sg14
I13
sbs(iproblems
RoomID
p670
(dp671
g10
I15
sg11
(I6
I6
tp672
sg13
I5
sg14
I11
sg15
I11
sg16
I2893396244277848635
sb(imulti_robot_problem
MultiRobotState
p673
(dp674
g19
g20
((lp675
(I7
I3
tp676
a(I4
I7
tp677
a(I5
I5
tp678
a(I4
I8
tp679
a(I5
I6
tp680
a(I2
I8
tp681
ag672
a(I3
I2
tp682
a(I3
I9
tp683
a(I4
I3
tp684
a(I1
I7
tp685
a(I6
I9
tp686
atp687
Rp688
sg15
I11
sg30
g20
((lp689
(I2
I6
tp690
a(I8
I7
tp691
a(I3
I10
tp692
a(I3
I1
tp693
a(I2
I10
tp694
a(I0
I5
tp695
a(I6
I5
tp696
a(I3
I6
tp697
a(I8
I6
tp698
a(I4
I0
tp699
a(I3
I7
tp700
a(I7
I9
tp701
a(I4
I1
tp702
a(I5
I8
tp703
a(I5
I3
tp704
atp705
Rp706
sg13
((I4
I5
tp707
(I0
I9
tp708
(I0
I1
tp709
(I9
I2
tp710
(I8
I10
tp711
tp712
sg14
I11
sbssg160
S'heavy_roomset'
p713
sbsg160
g162
sg163
(dp714
g476
((lp715
F46.180000000000291
tp716
sg522
((lp717
F40.389999999999418
tp718
sg670
((lp719
(F8.3999999999996362
I27
tp720
aF40.109999999999673
tp721
sg620
((lp722
(F12.690000000000509
I10
tp723
aF40.170000000000073
tp724
sg573
((lp725
(F35.699999999999818
I14
tp726
aF40.340000000000146
tp727
ssba(imeasure_core
ProblemSetSolution
p728
(dp729
g3
g4
sg160
S'AnytimeBest-dinf_with_LinearHeuristic'
p730
sg163
(dp731
g8
((lp732
F40.390000000000327
tp733
sg49
((lp734
(F0.020000000000436557
I25
tp735
aF40.0
tp736
sg75
((lp737
(F0.10999999999967258
I8
tp738
aF40.0600000000004
tp739
sg104
((lp740
F40.059999999999491
tp741
sg134
((lp742
(F0.029999999999745341
I32
tp743
a(F1.1100000000005821
I30
tp744
aF40.0
tp745
ssba(imeasure_core
ProblemSetSolution
p746
(dp747
g3
g205
sg160
g730
sg163
(dp748
g208
((lp749
F40.539999999999964
tp750
sg257
((lp751
(F13.020000000000437
I14
tp752
aF40.039999999999964
tp753
sg312
((lp754
F40.180000000000291
tp755
sg361
((lp756
(F0.3500000000003638
I7
tp757
aF40.079999999999927
tp758
sg406
((lp759
F40.350000000000364
tp760
ssba(imeasure_core
ProblemSetSolution
p761
(dp762
g3
g473
sg160
g730
sg163
(dp763
g476
((lp764
F47.75
tp765
sg522
((lp766
F40.149999999999636
tp767
sg670
((lp768
F40.389999999999418
tp769
sg620
((lp770
F40.739999999999782
tp771
sg573
((lp772
F42.3100000000004
tp773
ssba.