(lp0
(imeasure_core
ProblemSetSolution
p1
(dp2
S'roomset'
p3
(imeasure_core
RoomSet
p4
(dp5
S'rooms'
p6
(dp7
(iproblems
RoomID
p8
(dp9
S'dusts'
p10
I10
sS'obstacles'
p11
(I0
I8
tp12
sS'robots'
p13
I4
sS'height'
p14
I10
sS'width'
p15
I9
sS'seed'
p16
I4712128852136459333
sb(imulti_robot_problem
MultiRobotState
p17
(dp18
S'obstacle_locations'
p19
c__builtin__
frozenset
p20
((lp21
(I0
I6
tp22
ag12
a(I2
I3
tp23
a(I1
I5
tp24
a(I8
I0
tp25
a(I1
I1
tp26
a(I0
I7
tp27
atp28
Rp29
sg15
I9
sS'dirt_locations'
p30
g20
((lp31
(I4
I7
tp32
a(I1
I3
tp33
a(I4
I9
tp34
a(I8
I1
tp35
a(I7
I6
tp36
a(I2
I6
tp37
a(I8
I7
tp38
a(I2
I2
tp39
a(I4
I1
tp40
a(I2
I4
tp41
atp42
Rp43
sg13
((I5
I8
tp44
(I6
I9
tp45
(I5
I0
tp46
(I3
I1
tp47
tp48
sg14
I10
sbs(iproblems
RoomID
p49
(dp50
g10
I9
sg11
(I3
I4
tp51
sg13
I1
sg14
I7
sg15
I8
sg16
I6613812840851947673
sb(imulti_robot_problem
MultiRobotState
p52
(dp53
g19
g20
((lp54
(I3
I5
tp55
ag51
a(I2
I4
tp56
a(I2
I1
tp57
a(I1
I4
tp58
atp59
Rp60
sg15
I8
sg30
g20
((lp61
(I6
I4
tp62
a(I5
I4
tp63
a(I6
I0
tp64
a(I7
I5
tp65
a(I1
I6
tp66
a(I2
I2
tp67
a(I0
I5
tp68
a(I4
I1
tp69
a(I4
I0
tp70
atp71
Rp72
sg13
((I3
I1
tp73
tp74
sg14
I7
sbs(iproblems
RoomID
p75
(dp76
g10
I10
sg11
(I4
I5
tp77
sg13
I1
sg14
I8
sg15
I8
sg16
I2893396244277848635
sb(imulti_robot_problem
MultiRobotState
p78
(dp79
g19
g20
((lp80
g77
a(I3
I7
tp81
a(I2
I6
tp82
a(I4
I6
tp83
atp84
Rp85
sg15
I8
sg30
g20
((lp86
(I6
I4
tp87
a(I0
I0
tp88
a(I6
I7
tp89
a(I3
I0
tp90
a(I2
I1
tp91
a(I0
I6
tp92
a(I7
I2
tp93
a(I2
I4
tp94
a(I6
I5
tp95
a(I5
I3
tp96
atp97
Rp98
sg13
((I2
I3
tp99
tp100
sg14
I8
sbs(iproblems
RoomID
p101
(dp102
g10
I10
sg11
(I4
I8
tp103
sg13
I4
sg14
I10
sg15
I7
sg16
I956523682424107605
sb(imulti_robot_problem
MultiRobotState
p104
(dp105
g19
g20
((lp106
(I2
I8
tp107
ag103
a(I3
I7
tp108
a(I2
I9
tp109
a(I4
I2
tp110
atp111
Rp112
sg15
I7
sg30
g20
((lp113
(I5
I9
tp114
a(I4
I7
tp115
a(I1
I3
tp116
a(I3
I3
tp117
a(I5
I5
tp118
a(I6
I1
tp119
a(I5
I4
tp120
a(I0
I4
tp121
a(I5
I2
tp122
a(I5
I3
tp123
atp124
Rp125
sg13
((I1
I9
tp126
(I4
I9
tp127
(I1
I8
tp128
(I0
I3
tp129
tp130
sg14
I10
sbs(iproblems
RoomID
p131
(dp132
g10
I9
sg11
(I5
I3
tp133
sg13
I3
sg14
I7
sg15
I8
sg16
I4594210616595436404
sb(imulti_robot_problem
MultiRobotState
p134
(dp135
g19
g20
((lp136
(I0
I1
tp137
a(I3
I3
tp138
a(I4
I3
tp139
a(I4
I2
tp140
a(I6
I1
tp141
ag133
atp142
Rp143
sg15
I8
sg30
g20
((lp144
(I6
I6
tp145
a(I5
I6
tp146
a(I4
I4
tp147
a(I1
I4
tp148
a(I0
I6
tp149
a(I5
I1
tp150
a(I1
I0
tp151
a(I0
I3
tp152
a(I1
I1
tp153
atp154
Rp155
sg13
((I2
I1
tp156
(I3
I4
tp157
(I3
I6
tp158
tp159
sg14
I7
sbssS'name'
p160
S'easy_roomset'
p161
sbsg160
S"AnytimeBeam-w20-gf(2, 'lin')_with_PowerHeuristic2"
p162
sS'solutions'
p163
(dp164
g8
((lp165
(F2.9000000000014552
I51
tp166
aF40.06000000000131
tp167
sg49
((lp168
(F0.08000000000174623
I36
tp169
a(F14.630000000001019
I30
tp170
a(F15.360000000000582
I29
tp171
aF40.0
tp172
sg75
((lp173
(F0.36999999999898137
I76
tp174
a(F0.61999999999898137
I63
tp175
a(F6.3300000000017462
I61
tp176
a(F21.139999999999418
I59
tp177
a(F21.959999999999127
I57
tp178
a(F22.880000000001019
I56
tp179
a(F24.110000000000582
I54
tp180
a(F25.25
I52
tp181
a(F33.240000000001601
I51
tp182
aF40.0
tp183
sg101
((lp184
(F0.34000000000014552
I10
tp185
aF40.090000000000146
tp186
sg131
((lp187
(F1.2400000000016007
I31
tp188
a(F20.180000000000291
I29
tp189
aF40.0
tp190
ssba(imeasure_core
ProblemSetSolution
p191
(dp192
g3
(imeasure_core
RoomSet
p193
(dp194
g6
(dp195
(iproblems
RoomID
p196
(dp197
g10
I10
sg11
(I8
I7
tp198
sg13
I4
sg14
I12
sg15
I11
sg16
I4712128852136459333
sb(imulti_robot_problem
MultiRobotState
p199
(dp200
g19
g20
((lp201
(I6
I4
tp202
a(I4
I7
tp203
ag198
a(I4
I5
tp204
a(I3
I11
tp205
a(I0
I7
tp206
a(I7
I7
tp207
a(I1
I6
tp208
a(I1
I9
tp209
a(I2
I10
tp210
a(I4
I2
tp211
a(I1
I11
tp212
a(I6
I5
tp213
a(I5
I3
tp214
a(I9
I0
tp215
a(I0
I8
tp216
a(I5
I5
tp217
a(I7
I6
tp218
a(I3
I1
tp219
a(I2
I11
tp220
a(I0
I9
tp221
a(I2
I3
tp222
a(I4
I1
tp223
a(I1
I1
tp224
atp225
Rp226
sg15
I11
sg30
g20
((lp227
(I2
I7
tp228
a(I9
I1
tp229
a(I9
I8
tp230
a(I5
I1
tp231
a(I2
I5
tp232
a(I9
I7
tp233
a(I3
I4
tp234
a(I2
I4
tp235
a(I5
I8
tp236
a(I3
I3
tp237
atp238
Rp239
sg13
((I6
I10
tp240
(I8
I10
tp241
(I7
I0
tp242
(I5
I11
tp243
tp244
sg14
I12
sbs(iproblems
RoomID
p245
(dp246
g10
I9
sg11
(I4
I4
tp247
sg13
I3
sg14
I9
sg15
I10
sg16
I4594210616595436404
sb(imulti_robot_problem
MultiRobotState
p248
(dp249
g19
g20
((lp250
(I1
I3
tp251
a(I3
I0
tp252
a(I2
I1
tp253
a(I1
I6
tp254
a(I9
I4
tp255
a(I3
I7
tp256
a(I0
I3
tp257
a(I1
I2
tp258
a(I5
I5
tp259
a(I1
I5
tp260
a(I7
I6
tp261
ag247
a(I6
I3
tp262
a(I5
I6
tp263
a(I3
I6
tp264
a(I0
I4
tp265
a(I8
I6
tp266
a(I3
I5
tp267
a(I1
I1
tp268
a(I5
I4
tp269
a(I4
I5
tp270
a(I0
I5
tp271
a(I5
I3
tp272
a(I0
I1
tp273
a(I5
I2
tp274
a(I0
I6
tp275
a(I2
I0
tp276
a(I1
I8
tp277
a(I2
I3
tp278
a(I9
I5
tp279
a(I3
I4
tp280
a(I0
I2
tp281
atp282
Rp283
sg15
I10
sg30
g20
((lp284
(I7
I8
tp285
a(I7
I0
tp286
a(I6
I8
tp287
a(I2
I8
tp288
a(I8
I8
tp289
a(I0
I8
tp290
a(I8
I5
tp291
a(I5
I8
tp292
a(I8
I2
tp293
atp294
Rp295
sg13
((I4
I6
tp296
(I2
I5
tp297
(I6
I1
tp298
tp299
sg14
I9
sbs(iproblems
RoomID
p300
(dp301
g10
I5
sg11
(I4
I9
tp302
sg13
I4
sg14
I11
sg15
I11
sg16
I1881095652490078568
sb(imulti_robot_problem
MultiRobotState
p303
(dp304
g19
g20
((lp305
(I6
I9
tp306
a(I6
I6
tp307
a(I4
I5
tp308
a(I2
I8
tp309
a(I9
I3
tp310
a(I4
I7
tp311
a(I7
I5
tp312
a(I5
I4
tp313
ag302
a(I6
I5
tp314
a(I3
I5
tp315
a(I7
I4
tp316
a(I1
I7
tp317
a(I6
I7
tp318
a(I4
I6
tp319
a(I7
I6
tp320
a(I4
I4
tp321
a(I8
I10
tp322
a(I6
I3
tp323
a(I7
I10
tp324
a(I2
I2
tp325
a(I4
I8
tp326
a(I7
I8
tp327
a(I1
I1
tp328
a(I8
I4
tp329
atp330
Rp331
sg15
I11
sg30
g20
((lp332
(I1
I10
tp333
a(I5
I9
tp334
a(I0
I0
tp335
a(I10
I2
tp336
a(I9
I7
tp337
atp338
Rp339
sg13
((I5
I7
tp340
(I8
I1
tp341
(I3
I1
tp342
(I8
I8
tp343
tp344
sg14
I11
sbs(iproblems
RoomID
p345
(dp346
g10
I6
sg11
(I8
I8
tp347
sg13
I4
sg14
I11
sg15
I12
sg16
I7529058068588108450
sb(imulti_robot_problem
MultiRobotState
p348
(dp349
g19
g20
((lp350
(I5
I9
tp351
a(I6
I9
tp352
a(I2
I6
tp353
a(I3
I2
tp354
a(I9
I1
tp355
a(I4
I10
tp356
a(I6
I6
tp357
a(I7
I7
tp358
a(I7
I1
tp359
a(I4
I6
tp360
a(I10
I4
tp361
a(I7
I5
tp362
a(I6
I8
tp363
a(I3
I7
tp364
a(I5
I8
tp365
a(I8
I2
tp366
a(I5
I5
tp367
a(I7
I6
tp368
a(I4
I4
tp369
a(I7
I4
tp370
a(I1
I5
tp371
ag347
a(I7
I2
tp372
a(I3
I6
tp373
a(I2
I2
tp374
a(I1
I10
tp375
a(I7
I8
tp376
a(I3
I10
tp377
atp378
Rp379
sg15
I12
sg30
g20
((lp380
(I7
I3
tp381
a(I0
I5
tp382
a(I4
I0
tp383
a(I11
I3
tp384
a(I11
I6
tp385
a(I6
I0
tp386
atp387
Rp388
sg13
((I11
I7
tp389
(I6
I2
tp390
(I11
I5
tp391
(I6
I7
tp392
tp393
sg14
I11
sbs(iproblems
RoomID
p394
(dp395
g10
I8
sg11
(I5
I0
tp396
sg13
I4
sg14
I9
sg15
I9
sg16
I6858376947525423350
sb(imulti_robot_problem
MultiRobotState
p397
(dp398
g19
g20
((lp399
(I6
I4
tp400
a(I4
I7
tp401
a(I1
I3
tp402
a(I4
I3
tp403
a(I7
I1
tp404
a(I3
I0
tp405
a(I2
I8
tp406
a(I6
I0
tp407
a(I2
I1
tp408
a(I1
I6
tp409
a(I5
I1
tp410
a(I2
I5
tp411
a(I0
I8
tp412
a(I7
I2
tp413
a(I2
I7
tp414
a(I3
I8
tp415
a(I5
I5
tp416
a(I6
I1
tp417
a(I5
I7
tp418
a(I6
I3
tp419
a(I1
I8
tp420
ag396
a(I2
I2
tp421
a(I2
I3
tp422
a(I3
I4
tp423
a(I2
I4
tp424
atp425
Rp426
sg15
I9
sg30
g20
((lp427
(I8
I3
tp428
a(I7
I0
tp429
a(I4
I6
tp430
a(I6
I6
tp431
a(I7
I5
tp432
a(I8
I0
tp433
a(I8
I8
tp434
a(I8
I4
tp435
atp436
Rp437
sg13
((I1
I1
tp438
(I6
I5
tp439
(I8
I2
tp440
(I1
I5
tp441
tp442
sg14
I9
sbssg160
S'mild_roomset'
p443
sbsg160
g162
sg163
(dp444
g196
((lp445
(F1.1900000000023283
I23
tp446
aF40.030000000002474
tp447
sg245
((lp448
F40.119999999998981
tp449
sg300
((lp450
(F0.17000000000189175
I7
tp451
aF40.06000000000131
tp452
sg345
((lp453
(F0.81999999999970896
I33
tp454
aF40.0
tp455
sg394
((lp456
(F0.2999999999992724
I16
tp457
aF40.0
tp458
ssba(imeasure_core
ProblemSetSolution
p459
(dp460
g3
(imeasure_core
RoomSet
p461
(dp462
g6
(dp463
(iproblems
RoomID
p464
(dp465
g10
I15
sg11
(I5
I9
tp466
sg13
I7
sg14
I13
sg15
I12
sg16
I4712128852136459333
sb(imulti_robot_problem
MultiRobotState
p467
(dp468
g19
g20
((lp469
g466
a(I4
I9
tp470
a(I5
I5
tp471
a(I4
I12
tp472
a(I2
I8
tp473
a(I3
I1
tp474
a(I3
I9
tp475
a(I9
I4
tp476
a(I1
I7
tp477
a(I1
I10
tp478
a(I3
I12
tp479
a(I0
I8
tp480
a(I5
I2
tp481
atp482
Rp483
sg15
I12
sg30
g20
((lp484
(I6
I9
tp485
a(I3
I3
tp486
a(I1
I12
tp487
a(I5
I6
tp488
a(I7
I7
tp489
a(I3
I5
tp490
a(I3
I8
tp491
a(I8
I8
tp492
a(I10
I0
tp493
a(I2
I5
tp494
a(I10
I2
tp495
a(I3
I4
tp496
a(I1
I1
tp497
a(I5
I8
tp498
a(I9
I7
tp499
atp500
Rp501
sg13
((I6
I11
tp502
(I8
I11
tp503
(I7
I0
tp504
(I4
I1
tp505
(I6
I12
tp506
(I10
I9
tp507
(I6
I1
tp508
tp509
sg14
I13
sbs(iproblems
RoomID
p510
(dp511
g10
I14
sg11
(I5
I5
tp512
sg13
I5
sg14
I10
sg15
I11
sg16
I6613812840851947673
sb(imulti_robot_problem
MultiRobotState
p513
(dp514
g19
g20
((lp515
(I4
I7
tp516
a(I2
I6
tp517
a(I6
I6
tp518
a(I4
I5
tp519
a(I7
I5
tp520
a(I1
I6
tp521
a(I8
I7
tp522
a(I3
I7
tp523
a(I10
I3
tp524
a(I3
I5
tp525
a(I10
I8
tp526
a(I6
I3
tp527
ag512
a(I8
I5
tp528
a(I7
I4
tp529
a(I3
I8
tp530
a(I0
I6
tp531
a(I3
I6
tp532
a(I1
I3
tp533
a(I8
I6
tp534
a(I2
I4
tp535
atp536
Rp537
sg15
I11
sg30
g20
((lp538
(I6
I4
tp539
a(I3
I2
tp540
a(I4
I6
tp541
a(I4
I9
tp542
a(I3
I3
tp543
a(I9
I8
tp544
a(I8
I0
tp545
a(I8
I8
tp546
a(I5
I0
tp547
a(I1
I0
tp548
a(I8
I4
tp549
a(I5
I2
tp550
a(I6
I1
tp551
a(I9
I7
tp552
atp553
Rp554
sg13
((I5
I1
tp555
(I0
I8
tp556
(I2
I9
tp557
(I4
I1
tp558
(I7
I6
tp559
tp560
sg14
I10
sbs(iproblems
RoomID
p561
(dp562
g10
I15
sg11
(I4
I8
tp563
sg13
I6
sg14
I13
sg15
I10
sg16
I956523682424107605
sb(imulti_robot_problem
MultiRobotState
p564
(dp565
g19
g20
((lp566
(I5
I9
tp567
a(I6
I9
tp568
a(I7
I10
tp569
ag563
a(I5
I6
tp570
a(I3
I11
tp571
a(I9
I4
tp572
a(I4
I9
tp573
a(I5
I8
tp574
a(I2
I7
tp575
a(I5
I10
tp576
a(I5
I5
tp577
a(I3
I10
tp578
a(I5
I7
tp579
a(I9
I9
tp580
a(I5
I0
tp581
a(I7
I8
tp582
a(I1
I1
tp583
atp584
Rp585
sg15
I10
sg30
g20
((lp586
(I6
I10
tp587
a(I8
I3
tp588
a(I1
I3
tp589
a(I6
I6
tp590
a(I7
I6
tp591
a(I8
I12
tp592
a(I5
I4
tp593
a(I1
I4
tp594
a(I2
I10
tp595
a(I7
I4
tp596
a(I1
I5
tp597
a(I7
I5
tp598
a(I0
I9
tp599
a(I7
I11
tp600
a(I6
I2
tp601
atp602
Rp603
sg13
((I1
I12
tp604
(I6
I12
tp605
(I2
I11
tp606
(I0
I4
tp607
(I9
I1
tp608
(I7
I7
tp609
tp610
sg14
I13
sbs(iproblems
RoomID
p611
(dp612
g10
I15
sg11
(I6
I6
tp613
sg13
I5
sg14
I11
sg15
I11
sg16
I2893396244277848635
sb(imulti_robot_problem
MultiRobotState
p614
(dp615
g19
g20
((lp616
(I7
I3
tp617
a(I4
I7
tp618
a(I5
I5
tp619
a(I4
I8
tp620
a(I5
I6
tp621
a(I2
I8
tp622
ag613
a(I3
I2
tp623
a(I3
I9
tp624
a(I4
I3
tp625
a(I1
I7
tp626
a(I6
I9
tp627
atp628
Rp629
sg15
I11
sg30
g20
((lp630
(I2
I6
tp631
a(I8
I7
tp632
a(I3
I10
tp633
a(I3
I1
tp634
a(I2
I10
tp635
a(I0
I5
tp636
a(I6
I5
tp637
a(I3
I6
tp638
a(I8
I6
tp639
a(I4
I0
tp640
a(I3
I7
tp641
a(I7
I9
tp642
a(I4
I1
tp643
a(I5
I8
tp644
a(I5
I3
tp645
atp646
Rp647
sg13
((I4
I5
tp648
(I0
I9
tp649
(I0
I1
tp650
(I9
I2
tp651
(I8
I10
tp652
tp653
sg14
I11
sbs(iproblems
RoomID
p654
(dp655
g10
I13
sg11
(I1
I6
tp656
sg13
I7
sg14
I10
sg15
I10
sg16
I6858376947525423350
sb(imulti_robot_problem
MultiRobotState
p657
(dp658
g19
g20
((lp659
(I4
I7
tp660
a(I1
I3
tp661
a(I2
I8
tp662
a(I2
I2
tp663
a(I2
I1
tp664
a(I2
I3
tp665
a(I9
I5
tp666
a(I2
I5
tp667
a(I2
I7
tp668
a(I2
I9
tp669
a(I8
I1
tp670
ag656
a(I1
I7
tp671
a(I0
I9
tp672
a(I8
I6
tp673
a(I2
I4
tp674
atp675
Rp676
sg15
I10
sg30
g20
((lp677
(I8
I0
tp678
a(I4
I9
tp679
a(I3
I3
tp680
a(I3
I0
tp681
a(I7
I6
tp682
a(I5
I7
tp683
a(I9
I9
tp684
a(I4
I4
tp685
a(I6
I2
tp686
a(I9
I4
tp687
a(I8
I5
tp688
a(I5
I8
tp689
a(I5
I3
tp690
atp691
Rp692
sg13
((I1
I2
tp693
(I7
I5
tp694
(I7
I2
tp695
(I9
I2
tp696
(I1
I5
tp697
(I9
I0
tp698
(I6
I6
tp699
tp700
sg14
I10
sbssg160
S'heavy_roomset'
p701
sbsg160
g162
sg163
(dp702
g464
((lp703
F44.720000000001164
tp704
sg510
((lp705
F40.239999999997963
tp706
sg561
((lp707
(F11.380000000001019
I10
tp708
aF40.729999999999563
tp709
sg611
((lp710
(F7.9500000000007276
I27
tp711
aF40.130000000001019
tp712
sg654
((lp713
(F31.770000000000437
I14
tp714
aF44.680000000000291
tp715
ssba(imeasure_core
ProblemSetSolution
p716
(dp717
g3
g4
sg160
S"AnytimeBeam-w20-gf(4, 'lin')_with_PowerHeuristic2"
p718
sg163
(dp719
g8
((lp720
(F2.9200000000018917
I51
tp721
aF40.020000000000437
tp722
sg49
((lp723
(F0.08000000000174623
I36
tp724
a(F8.1599999999998545
I30
tp725
a(F8.8800000000010186
I29
tp726
a(F27.049999999999272
I28
tp727
aF40.0
tp728
sg75
((lp729
(F0.38999999999941792
I63
tp730
a(F3.1199999999989814
I61
tp731
a(F11.130000000001019
I59
tp732
a(F11.93999999999869
I57
tp733
a(F12.860000000000582
I56
tp734
a(F14.080000000001746
I54
tp735
a(F15.220000000001164
I52
tp736
a(F17.209999999999127
I51
tp737
a(F28.110000000000582
I50
tp738
a(F33.75
I48
tp739
a(F36.849999999998545
I46
tp740
aF40.0
tp741
sg101
((lp742
(F0.34000000000014552
I10
tp743
aF40.009999999998399
tp744
sg131
((lp745
(F1.2400000000016007
I31
tp746
a(F13.510000000002037
I29
tp747
a(F21.370000000002619
I26
tp748
aF40.010000000002037
tp749
ssba(imeasure_core
ProblemSetSolution
p750
(dp751
g3
g193
sg160
g718
sg163
(dp752
g196
((lp753
(F1.2000000000007276
I23
tp754
aF40.159999999999854
tp755
sg245
((lp756
F40.069999999999709
tp757
sg300
((lp758
(F0.17000000000189175
I7
tp759
aF40.020000000000437
tp760
sg345
((lp761
(F0.81000000000130967
I33
tp762
aF40.0
tp763
sg394
((lp764
(F0.30000000000291038
I16
tp765
aF40.0
tp766
ssba(imeasure_core
ProblemSetSolution
p767
(dp768
g3
g461
sg160
g718
sg163
(dp769
g464
((lp770
F44.75
tp771
sg510
((lp772
F40.099999999998545
tp773
sg561
((lp774
(F11.400000000001455
I10
tp775
aF40.81000000000131
tp776
sg611
((lp777
(F7.9399999999986903
I27
tp778
aF40.029999999998836
tp779
sg654
((lp780
(F31.799999999999272
I14
tp781
aF44.709999999999127
tp782
ssba(imeasure_core
ProblemSetSolution
p783
(dp784
g3
g4
sg160
S"AnytimeBeam-w20-gf(8, 'lin')_with_PowerHeuristic2"
p785
sg163
(dp786
g8
((lp787
(F2.9200000000018917
I51
tp788
aF40.020000000000437
tp789
sg49
((lp790
(F0.08000000000174623
I36
tp791
a(F4.2299999999995634
I30
tp792
a(F4.9400000000023283
I29
tp793
a(F12.600000000002183
I28
tp794
aF40.0
tp795
sg75
((lp796
(F0.40000000000145519
I63
tp797
a(F1.4400000000023283
I61
tp798
a(F5.5200000000004366
I59
tp799
a(F6.3300000000017462
I57
tp800
a(F7.2400000000016007
I56
tp801
a(F8.4599999999991269
I54
tp802
a(F9.6100000000005821
I52
tp803
a(F11.600000000002183
I51
tp804
a(F14.530000000002474
I50
tp805
a(F17.440000000002328
I48
tp806
a(F20.5
I46
tp807
a(F23.670000000001892
I44
tp808
a(F32.530000000002474
I43
tp809
aF40.0
tp810
sg101
((lp811
(F0.34000000000014552
I10
tp812
aF40.030000000002474
tp813
sg131
((lp814
(F1.2199999999975262
I31
tp815
a(F7.3400000000001455
I29
tp816
a(F11.119999999998981
I26
tp817
aF40.019999999996799
tp818
ssba(imeasure_core
ProblemSetSolution
p819
(dp820
g3
g193
sg160
g785
sg163
(dp821
g196
((lp822
(F1.2100000000027649
I23
tp823
aF40.010000000002037
tp824
sg245
((lp825
F40.049999999999272
tp826
sg300
((lp827
(F0.17000000000189175
I7
tp828
aF40.069999999999709
tp829
sg345
((lp830
(F0.81000000000130967
I33
tp831
aF40.029999999998836
tp832
sg394
((lp833
(F0.30000000000291038
I16
tp834
aF40.0
tp835
ssba(imeasure_core
ProblemSetSolution
p836
(dp837
g3
g461
sg160
g785
sg163
(dp838
g464
((lp839
F44.569999999999709
tp840
sg510
((lp841
F40.299999999999272
tp842
sg561
((lp843
(F11.389999999999418
I10
tp844
aF41.610000000000582
tp845
sg611
((lp846
(F7.8899999999994179
I27
tp847
aF40.200000000000728
tp848
sg654
((lp849
(F31.770000000000437
I14
tp850
aF44.669999999998254
tp851
ssba(imeasure_core
ProblemSetSolution
p852
(dp853
g3
g4
sg160
S"AnytimeBeam-w20-gf(16, 'lin')_with_PowerHeuristic2"
p854
sg163
(dp855
g8
((lp856
(F2.8899999999994179
I51
tp857
aF40.090000000000146
tp858
sg49
((lp859
(F0.079999999998108251
I36
tp860
a(F2.3799999999973807
I30
tp861
a(F3.0999999999985448
I29
tp862
a(F8.0399999999972351
I28
tp863
a(F39.779999999998836
I27
tp864
aF40.0
tp865
sg75
((lp866
(F0.50999999999839929
I63
tp867
a(F0.84999999999854481
I61
tp868
a(F2.6399999999994179
I59
tp869
a(F3.430000000000291
I57
tp870
a(F4.3400000000001455
I56
tp871
a(F5.5799999999981083
I54
tp872
a(F6.75
I52
tp873
a(F8.75
I51
tp874
a(F11.68999999999869
I50
tp875
a(F14.599999999998545
I48
tp876
a(F17.659999999999854
I46
tp877
a(F20.819999999999709
I44
tp878
a(F29.68999999999869
I43
tp879
a(F38.020000000000437
I42
tp880
aF40.0
tp881
sg101
((lp882
(F0.34000000000014552
I10
tp883
aF40.029999999998836
tp884
sg131
((lp885
(F1.2299999999995634
I31
tp886
a(F4.4099999999998545
I29
tp887
a(F6.1599999999998545
I26
tp888
aF40.009999999998399
tp889
ssba(imeasure_core
ProblemSetSolution
p890
(dp891
g3
g193
sg160
g854
sg163
(dp892
g196
((lp893
(F1.2100000000027649
I23
tp894
aF40.160000000003492
tp895
sg245
((lp896
F40.019999999996799
tp897
sg300
((lp898
(F0.17000000000189175
I7
tp899
aF40.05000000000291
tp900
sg345
((lp901
(F0.80999999999767169
I33
tp902
aF40.209999999999127
tp903
sg394
((lp904
(F0.2999999999992724
I16
tp905
aF40.069999999999709
tp906
ssba(imeasure_core
ProblemSetSolution
p907
(dp908
g3
g461
sg160
g854
sg163
(dp909
g464
((lp910
F44.850000000002183
tp911
sg510
((lp912
F40.389999999999418
tp913
sg561
((lp914
(F11.389999999999418
I10
tp915
aF40.729999999999563
tp916
sg611
((lp917
(F7.9900000000016007
I27
tp918
aF40.080000000001746
tp919
sg654
((lp920
(F31.879999999997381
I14
tp921
aF44.819999999999709
tp922
ssba(imeasure_core
ProblemSetSolution
p923
(dp924
g3
g4
sg160
S"AnytimeBeam-w20-gf(2, 'lin')_with_LinearHeuristic"
p925
sg163
(dp926
g8
((lp927
F40.549999999999272
tp928
sg49
((lp929
(F0.020000000000436557
I25
tp930
aF40.0
tp931
sg75
((lp932
(F0.029999999998835847
I32
tp933
a(F4.3099999999976717
I30
tp934
aF40.0
tp935
sg101
((lp936
(F38.360000000000582
I286
tp937
aF40.009999999998399
tp938
sg131
((lp939
(F0.18000000000029104
I8
tp940
aF40.0
tp941
ssba(imeasure_core
ProblemSetSolution
p942
(dp943
g3
g193
sg160
g925
sg163
(dp944
g196
((lp945
F40.090000000000146
tp946
sg245
((lp947
(F1.680000000000291
I50
tp948
aF40.009999999998399
tp949
sg300
((lp950
(F0.47999999999956344
I7
tp951
aF40.170000000001892
tp952
sg345
((lp953
F40.109999999996944
tp954
sg394
((lp955
F40.040000000000873
tp956
ssba(imeasure_core
ProblemSetSolution
p957
(dp958
g3
g461
sg160
g925
sg163
(dp959
g464
((lp960
F41.44999999999709
tp961
sg510
((lp962
F40.420000000001892
tp963
sg561
((lp964
F40.159999999999854
tp965
sg611
((lp966
F40.110000000000582
tp967
sg654
((lp968
F40.509999999998399
tp969
ssba(imeasure_core
ProblemSetSolution
p970
(dp971
g3
g4
sg160
S"AnytimeBeam-w20-gf(4, 'lin')_with_LinearHeuristic"
p972
sg163
(dp973
g8
((lp974
F40.120000000002619
tp975
sg49
((lp976
(F0.019999999996798579
I25
tp977
aF40.0
tp978
sg75
((lp979
(F0.029999999998835847
I32
tp980
a(F2.3899999999994179
I30
tp981
aF40.0
tp982
sg101
((lp983
(F38.329999999998108
I286
tp984
aF40.0
tp985
sg131
((lp986
(F0.17999999999665306
I8
tp987
aF40.029999999998836
tp988
ssba(imeasure_core
ProblemSetSolution
p989
(dp990
g3
g193
sg160
g972
sg163
(dp991
g196
((lp992
F40.100000000002183
tp993
sg245
((lp994
(F1.680000000000291
I50
tp995
a(F32.119999999998981
I49
tp996
a(F39.139999999999418
I48
tp997
aF40.0
tp998
sg300
((lp999
(F0.46999999999752617
I7
tp1000
aF40.029999999998836
tp1001
sg345
((lp1002
F40.029999999998836
tp1003
sg394
((lp1004
F40.06000000000131
tp1005
ssba(imeasure_core
ProblemSetSolution
p1006
(dp1007
g3
g461
sg160
g972
sg163
(dp1008
g464
((lp1009
F41.720000000001164
tp1010
sg510
((lp1011
F40.469999999997526
tp1012
sg561
((lp1013
F40.30000000000291
tp1014
sg611
((lp1015
F40.049999999999272
tp1016
sg654
((lp1017
F40.090000000000146
tp1018
ssba(imeasure_core
ProblemSetSolution
p1019
(dp1020
g3
g4
sg160
S"AnytimeBeam-w20-gf(8, 'lin')_with_LinearHeuristic"
p1021
sg163
(dp1022
g8
((lp1023
F40.559999999997672
tp1024
sg49
((lp1025
(F0.020000000000436557
I25
tp1026
aF40.0
tp1027
sg75
((lp1028
(F0.030000000002473826
I32
tp1029
a(F1.319999999999709
I30
tp1030
aF40.0
tp1031
sg101
((lp1032
(F38.260000000002037
I286
tp1033
aF40.010000000002037
tp1034
sg131
((lp1035
(F0.18000000000029104
I8
tp1036
aF40.029999999998836
tp1037
ssba(imeasure_core
ProblemSetSolution
p1038
(dp1039
g3
g193
sg160
g1021
sg163
(dp1040
g196
((lp1041
F40.229999999999563
tp1042
sg245
((lp1043
(F1.6700000000018917
I50
tp1044
a(F18.619999999998981
I49
tp1045
a(F26.270000000000437
I48
tp1046
a(F36.979999999999563
I47
tp1047
aF40.010000000002037
tp1048
sg300
((lp1049
(F0.48999999999796273
I7
tp1050
aF40.029999999998836
tp1051
sg345
((lp1052
F40.029999999998836
tp1053
sg394
((lp1054
F40.090000000000146
tp1055
ssba(imeasure_core
ProblemSetSolution
p1056
(dp1057
g3
g461
sg160
g1021
sg163
(dp1058
g464
((lp1059
F41.520000000000437
tp1060
sg510
((lp1061
F40.430000000000291
tp1062
sg561
((lp1063
F40.180000000000291
tp1064
sg611
((lp1065
F40.020000000000437
tp1066
sg654
((lp1067
F40.020000000000437
tp1068
ssba(imeasure_core
ProblemSetSolution
p1069
(dp1070
g3
g4
sg160
S"AnytimeBeam-w20-gf(16, 'lin')_with_LinearHeuristic"
p1071
sg163
(dp1072
g8
((lp1073
F40.009999999998399
tp1074
sg49
((lp1075
(F0.020000000000436557
I25
tp1076
aF40.0
tp1077
sg75
((lp1078
(F0.029999999998835847
I32
tp1079
a(F0.76000000000203727
I30
tp1080
aF40.0
tp1081
sg101
((lp1082
(F38.279999999998836
I286
tp1083
aF40.040000000000873
tp1084
sg131
((lp1085
(F0.18000000000029104
I8
tp1086
aF40.009999999998399
tp1087
ssba(imeasure_core
ProblemSetSolution
p1088
(dp1089
g3
g193
sg160
g1071
sg163
(dp1090
g196
((lp1091
F40.139999999999418
tp1092
sg245
((lp1093
(F1.6899999999986903
I50
tp1094
a(F12.079999999998108
I49
tp1095
a(F22.279999999998836
I48
tp1096
a(F36.380000000001019
I47
tp1097
aF40.020000000000437
tp1098
sg300
((lp1099
(F0.48999999999796273
I7
tp1100
aF40.279999999998836
tp1101
sg345
((lp1102
F40.069999999999709
tp1103
sg394
((lp1104
F40.030000000002474
tp1105
ssba(imeasure_core
ProblemSetSolution
p1106
(dp1107
g3
g461
sg160
g1071
sg163
(dp1108
g464
((lp1109
F41.639999999999418
tp1110
sg510
((lp1111
F40.290000000000873
tp1112
sg561
((lp1113
F40.239999999997963
tp1114
sg611
((lp1115
F40.150000000001455
tp1116
sg654
((lp1117
F40.090000000000146
tp1118
ssba.