(lp0
(imeasure_core
ProblemSetSolution
p1
(dp2
S'roomset'
p3
(imeasure_core
RoomSet
p4
(dp5
S'rooms'
p6
(dp7
(iproblems
RoomID
p8
(dp9
S'dusts'
p10
I8
sS'obstacles'
p11
(I1
I6
tp12
sS'robots'
p13
I4
sS'height'
p14
I10
sS'width'
p15
I9
sS'seed'
p16
I3433768247134474666
sb(imulti_robot_problem
MultiRobotState
p17
(dp18
S'obstacle_locations'
p19
c__builtin__
frozenset
p20
((lp21
(I4
I9
tp22
a(I4
I6
tp23
a(I0
I7
tp24
ag12
a(I0
I9
tp25
a(I8
I6
tp26
a(I0
I8
tp27
a(I3
I3
tp28
atp29
Rp30
sg15
I9
sS'dirt_locations'
p31
g20
((lp32
(I3
I2
tp33
a(I7
I7
tp34
a(I1
I9
tp35
a(I8
I7
tp36
a(I5
I4
tp37
a(I1
I1
tp38
a(I5
I8
tp39
a(I7
I9
tp40
atp41
Rp42
sg13
((I5
I9
tp43
(I5
I5
tp44
(I6
I9
tp45
(I2
I0
tp46
tp47
sg14
I10
sbs(iproblems
RoomID
p48
(dp49
g10
I7
sg11
(I2
I2
tp50
sg13
I3
sg14
I9
sg15
I9
sg16
I6241004153072892496
sb(imulti_robot_problem
MultiRobotState
p51
(dp52
g19
g20
((lp53
(I7
I3
tp54
a(I3
I2
tp55
a(I7
I1
tp56
a(I5
I1
tp57
ag50
a(I4
I1
tp58
a(I7
I7
tp59
atp60
Rp61
sg15
I9
sg31
g20
((lp62
(I3
I8
tp63
a(I1
I5
tp64
a(I4
I8
tp65
a(I3
I7
tp66
a(I5
I7
tp67
a(I3
I4
tp68
a(I6
I0
tp69
atp70
Rp71
sg13
((I6
I5
tp72
(I4
I3
tp73
(I3
I5
tp74
tp75
sg14
I9
sbs(iproblems
RoomID
p76
(dp77
g10
I10
sg11
(I6
I4
tp78
sg13
I4
sg14
I7
sg15
I10
sg16
I3125140389427113411
sb(imulti_robot_problem
MultiRobotState
p79
(dp80
g19
g20
((lp81
(I6
I3
tp82
a(I5
I1
tp83
a(I5
I2
tp84
ag78
atp85
Rp86
sg15
I10
sg31
g20
((lp87
(I1
I2
tp88
a(I7
I3
tp89
a(I0
I0
tp90
a(I3
I3
tp91
a(I6
I2
tp92
a(I1
I6
tp93
a(I9
I4
tp94
a(I2
I5
tp95
a(I0
I2
tp96
a(I7
I2
tp97
atp98
Rp99
sg13
((I9
I0
tp100
(I6
I5
tp101
(I1
I4
tp102
(I1
I3
tp103
tp104
sg14
I7
sbs(iproblems
RoomID
p105
(dp106
g10
I9
sg11
(I4
I3
tp107
sg13
I3
sg14
I9
sg15
I8
sg16
I6161655336973386967
sb(imulti_robot_problem
MultiRobotState
p108
(dp109
g19
g20
((lp110
(I6
I3
tp111
a(I7
I3
tp112
a(I5
I4
tp113
ag107
a(I6
I6
tp114
a(I5
I2
tp115
a(I2
I1
tp116
atp117
Rp118
sg15
I8
sg31
g20
((lp119
(I6
I4
tp120
a(I6
I8
tp121
a(I2
I0
tp122
a(I5
I7
tp123
a(I1
I4
tp124
a(I1
I5
tp125
a(I0
I5
tp126
a(I2
I5
tp127
a(I4
I1
tp128
atp129
Rp130
sg13
((I3
I5
tp131
(I4
I6
tp132
(I4
I5
tp133
tp134
sg14
I9
sbs(iproblems
RoomID
p135
(dp136
g10
I6
sg11
(I7
I4
tp137
sg13
I4
sg14
I8
sg15
I9
sg16
I8554152435637441414
sb(imulti_robot_problem
MultiRobotState
p138
(dp139
g19
g20
((lp140
(I6
I6
tp141
a(I5
I7
tp142
ag137
a(I2
I0
tp143
a(I7
I5
tp144
a(I3
I7
tp145
a(I0
I3
tp146
a(I4
I1
tp147
atp148
Rp149
sg15
I9
sg31
g20
((lp150
(I7
I3
tp151
a(I1
I6
tp152
a(I5
I1
tp153
a(I8
I6
tp154
a(I0
I2
tp155
a(I4
I0
tp156
atp157
Rp158
sg13
((I5
I3
tp159
(I6
I2
tp160
(I6
I3
tp161
(I6
I4
tp162
tp163
sg14
I8
sbssS'name'
p164
S'easy_roomset'
p165
sbsg164
S"AnytimeBeam-w20-gf(2, 'lin')_with_PowerHeuristic2"
p166
sS'solutions'
p167
(dp168
g8
((lp169
(F0.40000000000145519
I10
tp170
aF40.05000000000291
tp171
sg48
((lp172
(F0.099999999998544808
I8
tp173
aF40.020000000004075
tp174
sg76
((lp175
(F0.55999999999767169
I13
tp176
aF40.019999999996799
tp177
sg105
((lp178
(F0.72000000000116415
I48
tp179
aF40.05000000000291
tp180
sg135
((lp181
(F0.28999999999359716
I8
tp182
aF40.189999999995052
tp183
ssba(imeasure_core
ProblemSetSolution
p184
(dp185
g3
(imeasure_core
RoomSet
p186
(dp187
g6
(dp188
(iproblems
RoomID
p189
(dp190
g10
I10
sg11
(I1
I6
tp191
sg13
I3
sg14
I12
sg15
I9
sg16
I4927760411464392432
sb(imulti_robot_problem
MultiRobotState
p192
(dp193
g19
g20
((lp194
(I5
I9
tp195
a(I1
I3
tp196
a(I4
I5
tp197
a(I7
I7
tp198
a(I6
I0
tp199
a(I3
I9
tp200
ag191
a(I8
I7
tp201
a(I3
I7
tp202
a(I2
I5
tp203
a(I7
I9
tp204
a(I3
I1
tp205
a(I4
I6
tp206
a(I2
I9
tp207
a(I3
I10
tp208
a(I6
I10
tp209
a(I2
I11
tp210
a(I3
I8
tp211
a(I0
I6
tp212
a(I3
I6
tp213
a(I2
I2
tp214
a(I2
I3
tp215
a(I3
I4
tp216
a(I7
I6
tp217
atp218
Rp219
sg15
I9
sg31
g20
((lp220
(I1
I2
tp221
a(I6
I4
tp222
a(I6
I9
tp223
a(I8
I2
tp224
a(I8
I0
tp225
a(I1
I10
tp226
a(I0
I9
tp227
a(I1
I0
tp228
a(I0
I2
tp229
a(I4
I11
tp230
atp231
Rp232
sg13
((I1
I11
tp233
(I0
I11
tp234
(I7
I5
tp235
tp236
sg14
I12
sbs(iproblems
RoomID
p237
(dp238
g10
I8
sg11
(I1
I11
tp239
sg13
I4
sg14
I12
sg15
I11
sg16
I3433768247134474666
sb(imulti_robot_problem
MultiRobotState
p240
(dp241
g19
g20
((lp242
(I9
I3
tp243
a(I3
I6
tp244
a(I4
I8
tp245
a(I4
I5
tp246
a(I2
I8
tp247
a(I10
I6
tp248
a(I2
I10
tp249
a(I8
I7
tp250
a(I2
I3
tp251
a(I0
I10
tp252
a(I9
I4
tp253
a(I3
I7
tp254
ag239
a(I10
I3
tp255
a(I5
I8
tp256
a(I10
I4
tp257
a(I2
I7
tp258
a(I10
I5
tp259
a(I6
I7
tp260
a(I2
I9
tp261
a(I9
I6
tp262
a(I1
I8
tp263
a(I3
I8
tp264
a(I0
I11
tp265
a(I8
I8
tp266
a(I4
I11
tp267
a(I5
I0
tp268
a(I0
I9
tp269
a(I4
I9
tp270
a(I7
I8
tp271
atp272
Rp273
sg15
I11
sg31
g20
((lp274
(I4
I3
tp275
a(I5
I11
tp276
a(I9
I8
tp277
a(I2
I11
tp278
a(I9
I11
tp279
a(I7
I10
tp280
a(I1
I1
tp281
a(I6
I5
tp282
atp283
Rp284
sg13
((I7
I11
tp285
(I7
I7
tp286
(I2
I0
tp287
(I10
I9
tp288
tp289
sg14
I12
sbs(iproblems
RoomID
p290
(dp291
g10
I10
sg11
(I5
I4
tp292
sg13
I4
sg14
I9
sg15
I12
sg16
I3125140389427113411
sb(imulti_robot_problem
MultiRobotState
p293
(dp294
g19
g20
((lp295
(I7
I3
tp296
a(I4
I7
tp297
a(I2
I6
tp298
a(I2
I7
tp299
a(I6
I6
tp300
a(I5
I6
tp301
ag292
a(I1
I4
tp302
a(I6
I2
tp303
a(I10
I1
tp304
a(I3
I7
tp305
a(I5
I1
tp306
a(I2
I5
tp307
a(I6
I5
tp308
a(I3
I3
tp309
a(I6
I4
tp310
a(I9
I5
tp311
a(I6
I7
tp312
a(I5
I5
tp313
a(I10
I7
tp314
a(I6
I1
tp315
a(I7
I4
tp316
a(I8
I6
tp317
a(I5
I3
tp318
a(I5
I2
tp319
a(I8
I4
tp320
atp321
Rp322
sg15
I12
sg31
g20
((lp323
(I0
I0
tp324
a(I11
I4
tp325
a(I8
I2
tp326
a(I3
I0
tp327
a(I6
I0
tp328
a(I1
I8
tp329
a(I2
I3
tp330
a(I0
I3
tp331
a(I11
I6
tp332
a(I3
I5
tp333
atp334
Rp335
sg13
((I11
I0
tp336
(I7
I7
tp337
(I1
I5
tp338
(I2
I4
tp339
tp340
sg14
I9
sbs(iproblems
RoomID
p341
(dp342
g10
I7
sg11
(I10
I3
tp343
sg13
I3
sg14
I11
sg15
I11
sg16
I6241004153072892496
sb(imulti_robot_problem
MultiRobotState
p344
(dp345
g19
g20
((lp346
(I3
I2
tp347
a(I0
I0
tp348
a(I9
I8
tp349
a(I7
I7
tp350
a(I8
I9
tp351
a(I6
I2
tp352
a(I2
I3
tp353
a(I9
I4
tp354
a(I4
I2
tp355
a(I5
I1
tp356
a(I0
I3
tp357
ag343
a(I1
I2
tp358
a(I9
I5
tp359
a(I5
I5
tp360
a(I10
I7
tp361
a(I8
I5
tp362
a(I6
I1
tp363
a(I1
I8
tp364
a(I8
I8
tp365
a(I8
I6
tp366
a(I7
I8
tp367
a(I2
I4
tp368
atp369
Rp370
sg15
I11
sg31
g20
((lp371
(I4
I10
tp372
a(I6
I9
tp373
a(I4
I9
tp374
a(I9
I1
tp375
a(I5
I10
tp376
a(I3
I10
tp377
a(I8
I0
tp378
atp379
Rp380
sg13
((I5
I4
tp381
(I4
I6
tp382
(I1
I6
tp383
tp384
sg14
I11
sbs(iproblems
RoomID
p385
(dp386
g10
I6
sg11
(I5
I4
tp387
sg13
I4
sg14
I10
sg15
I11
sg16
I8554152435637441414
sb(imulti_robot_problem
MultiRobotState
p388
(dp389
g19
g20
((lp390
(I6
I4
tp391
ag387
a(I4
I5
tp392
a(I2
I8
tp393
a(I9
I3
tp394
a(I7
I7
tp395
a(I0
I7
tp396
a(I6
I2
tp397
a(I2
I1
tp398
a(I3
I7
tp399
a(I5
I1
tp400
a(I0
I3
tp401
a(I8
I5
tp402
a(I5
I3
tp403
a(I3
I8
tp404
a(I8
I3
tp405
a(I4
I9
tp406
a(I6
I8
tp407
a(I7
I0
tp408
a(I6
I3
tp409
a(I7
I5
tp410
a(I3
I6
tp411
a(I8
I6
tp412
a(I7
I8
tp413
a(I10
I9
tp414
atp415
Rp416
sg15
I11
sg31
g20
((lp417
(I1
I3
tp418
a(I9
I4
tp419
a(I5
I0
tp420
a(I3
I0
tp421
a(I4
I2
tp422
a(I7
I2
tp423
atp424
Rp425
sg13
((I8
I2
tp426
(I8
I4
tp427
(I9
I7
tp428
(I0
I2
tp429
tp430
sg14
I10
sbssg164
S'mild_roomset'
p431
sbsg164
g166
sg167
(dp432
g189
((lp433
F40.010000000002037
tp434
sg237
((lp435
(F1.0199999999967986
I30
tp436
aF40.029999999998836
tp437
sg290
((lp438
(F28.190000000002328
I288
tp439
aF40.020000000004075
tp440
sg341
((lp441
(F0.23999999999796273
I13
tp442
aF40.009999999994761
tp443
sg385
((lp444
(F2.4400000000023283
I55
tp445
aF40.090000000003783
tp446
ssba(imeasure_core
ProblemSetSolution
p447
(dp448
g3
(imeasure_core
RoomSet
p449
(dp450
g6
(dp451
(iproblems
RoomID
p452
(dp453
g10
I15
sg11
(I3
I3
tp454
sg13
I5
sg14
I13
sg15
I10
sg16
I4927760411464392432
sb(imulti_robot_problem
MultiRobotState
p455
(dp456
g19
g20
((lp457
(I6
I10
tp458
a(I6
I11
tp459
a(I3
I11
tp460
a(I2
I1
tp461
a(I2
I10
tp462
a(I3
I9
tp463
a(I2
I3
tp464
a(I1
I0
tp465
a(I4
I0
tp466
a(I1
I2
tp467
ag454
a(I7
I6
tp468
a(I3
I1
tp469
a(I1
I1
tp470
a(I1
I7
tp471
a(I1
I3
tp472
a(I3
I10
tp473
a(I9
I12
tp474
atp475
Rp476
sg15
I10
sg31
g20
((lp477
(I9
I0
tp478
a(I9
I7
tp479
a(I7
I0
tp480
a(I8
I2
tp481
a(I5
I5
tp482
a(I8
I10
tp483
a(I1
I4
tp484
a(I8
I8
tp485
a(I2
I12
tp486
a(I8
I7
tp487
a(I1
I10
tp488
a(I7
I11
tp489
a(I4
I12
tp490
a(I0
I2
tp491
a(I0
I10
tp492
atp493
Rp494
sg13
((I1
I12
tp495
(I0
I12
tp496
(I8
I5
tp497
(I7
I9
tp498
(I7
I4
tp499
tp500
sg14
I13
sbs(iproblems
RoomID
p501
(dp502
g10
I13
sg11
(I4
I11
tp503
sg13
I6
sg14
I13
sg15
I12
sg16
I3433768247134474666
sb(imulti_robot_problem
MultiRobotState
p504
(dp505
g19
g20
((lp506
(I4
I10
tp507
a(I5
I11
tp508
a(I6
I11
tp509
a(I9
I8
tp510
a(I6
I0
tp511
a(I0
I12
tp512
a(I4
I12
tp513
a(I2
I3
tp514
a(I2
I12
tp515
a(I10
I3
tp516
ag503
a(I11
I7
tp517
a(I3
I12
tp518
a(I3
I10
tp519
a(I11
I3
tp520
a(I0
I11
tp521
a(I8
I8
tp522
a(I1
I9
tp523
a(I1
I6
tp524
a(I1
I1
tp525
a(I0
I10
tp526
atp527
Rp528
sg15
I12
sg31
g20
((lp529
(I10
I8
tp530
a(I10
I5
tp531
a(I6
I7
tp532
a(I6
I8
tp533
a(I4
I4
tp534
a(I10
I12
tp535
a(I9
I9
tp536
a(I8
I10
tp537
a(I7
I5
tp538
a(I7
I10
tp539
a(I6
I12
tp540
a(I5
I10
tp541
a(I5
I3
tp542
atp543
Rp544
sg13
((I7
I12
tp545
(I7
I7
tp546
(I8
I12
tp547
(I2
I0
tp548
(I11
I9
tp549
(I1
I2
tp550
tp551
sg14
I13
sbs(iproblems
RoomID
p552
(dp553
g10
I15
sg11
(I1
I6
tp554
sg13
I6
sg14
I10
sg15
I13
sg16
I3125140389427113411
sb(imulti_robot_problem
MultiRobotState
p555
(dp556
g19
g20
((lp557
(I7
I3
tp558
a(I3
I3
tp559
a(I1
I5
tp560
a(I6
I1
tp561
a(I1
I4
tp562
a(I7
I4
tp563
a(I2
I0
tp564
a(I11
I1
tp565
a(I2
I3
tp566
a(I0
I7
tp567
a(I8
I7
tp568
a(I6
I2
tp569
ag554
atp570
Rp571
sg15
I13
sg31
g20
((lp572
(I0
I1
tp573
a(I2
I6
tp574
a(I2
I9
tp575
a(I11
I8
tp576
a(I2
I8
tp577
a(I9
I3
tp578
a(I6
I0
tp579
a(I3
I0
tp580
a(I7
I7
tp581
a(I6
I3
tp582
a(I9
I2
tp583
a(I12
I4
tp584
a(I0
I4
tp585
a(I2
I4
tp586
a(I9
I7
tp587
atp588
Rp589
sg13
((I12
I0
tp590
(I7
I8
tp591
(I2
I5
tp592
(I4
I5
tp593
(I12
I7
tp594
(I9
I4
tp595
tp596
sg14
I10
sbs(iproblems
RoomID
p597
(dp598
g10
I11
sg11
(I3
I6
tp599
sg13
I7
sg14
I11
sg15
I12
sg16
I8554152435637441414
sb(imulti_robot_problem
MultiRobotState
p600
(dp601
g19
g20
((lp602
(I3
I1
tp603
a(I3
I8
tp604
a(I4
I5
tp605
a(I2
I8
tp606
a(I11
I2
tp607
a(I1
I7
tp608
a(I7
I5
tp609
a(I9
I4
tp610
a(I3
I7
tp611
a(I5
I1
tp612
a(I9
I6
tp613
a(I7
I9
tp614
a(I6
I3
tp615
a(I7
I6
tp616
a(I4
I4
tp617
a(I7
I4
tp618
a(I1
I8
tp619
a(I8
I8
tp620
ag599
a(I0
I4
tp621
a(I0
I9
tp622
a(I8
I6
tp623
a(I9
I7
tp624
atp625
Rp626
sg15
I12
sg31
g20
((lp627
(I11
I10
tp628
a(I4
I9
tp629
a(I2
I9
tp630
a(I3
I0
tp631
a(I8
I0
tp632
a(I4
I7
tp633
a(I1
I4
tp634
a(I0
I3
tp635
a(I0
I8
tp636
a(I5
I2
tp637
a(I7
I2
tp638
atp639
Rp640
sg13
((I6
I4
tp641
(I8
I2
tp642
(I8
I5
tp643
(I10
I8
tp644
(I1
I2
tp645
(I6
I0
tp646
(I10
I4
tp647
tp648
sg14
I11
sbs(iproblems
RoomID
p649
(dp650
g10
I12
sg11
(I3
I3
tp651
sg13
I6
sg14
I12
sg15
I12
sg16
I6241004153072892496
sb(imulti_robot_problem
MultiRobotState
p652
(dp653
g19
g20
((lp654
(I9
I3
tp655
ag651
a(I2
I9
tp656
a(I7
I1
tp657
a(I11
I8
tp658
a(I3
I4
tp659
a(I6
I1
tp660
a(I3
I1
tp661
a(I5
I2
tp662
a(I4
I3
tp663
a(I4
I2
tp664
a(I8
I5
tp665
a(I11
I6
tp666
atp667
Rp668
sg15
I12
sg31
g20
((lp669
(I4
I10
tp670
a(I0
I0
tp671
a(I7
I10
tp672
a(I5
I11
tp673
a(I8
I0
tp674
a(I9
I10
tp675
a(I8
I7
tp676
a(I10
I1
tp677
a(I2
I5
tp678
a(I8
I9
tp679
a(I4
I11
tp680
a(I10
I4
tp681
atp682
Rp683
sg13
((I8
I6
tp684
(I5
I4
tp685
(I7
I2
tp686
(I4
I7
tp687
(I1
I7
tp688
(I5
I6
tp689
tp690
sg14
I12
sbssg164
S'heavy_roomset'
p691
sbsg164
g166
sg167
(dp692
g452
((lp693
F40.290000000000873
tp694
sg501
((lp695
(F18.290000000000873
I17
tp696
aF41.270000000004075
tp697
sg552
((lp698
(F18.339999999996508
I29
tp699
aF40.760000000002037
tp700
sg597
((lp701
(F37.919999999998254
I14
tp702
aF44.689999999995052
tp703
sg649
((lp704
F40.360000000000582
tp705
ssba(imeasure_core
ProblemSetSolution
p706
(dp707
g3
g4
sg164
S"AnytimeBeam-w20-gf(4, 'lin')_with_PowerHeuristic2"
p708
sg167
(dp709
g8
((lp710
(F0.4099999999962165
I10
tp711
aF40.069999999999709
tp712
sg48
((lp713
(F0.11000000000058208
I8
tp714
aF40.019999999996799
tp715
sg76
((lp716
(F0.56999999999970896
I13
tp717
aF40.0
tp718
sg105
((lp719
(F0.72000000000116415
I48
tp720
aF40.069999999999709
tp721
sg135
((lp722
(F0.29000000000087311
I8
tp723
aF40.290000000000873
tp724
ssba(imeasure_core
ProblemSetSolution
p725
(dp726
g3
g186
sg164
g708
sg167
(dp727
g189
((lp728
F40.0
tp729
sg237
((lp730
(F1.0199999999967986
I30
tp731
aF40.019999999996799
tp732
sg290
((lp733
(F31.069999999999709
I288
tp734
aF40.020000000004075
tp735
sg341
((lp736
(F0.23999999999796273
I13
tp737
aF40.010000000002037
tp738
sg385
((lp739
(F2.4599999999991269
I55
tp740
aF40.019999999996799
tp741
ssba(imeasure_core
ProblemSetSolution
p742
(dp743
g3
g449
sg164
g708
sg167
(dp744
g452
((lp745
F40.110000000000582
tp746
sg501
((lp747
(F18.299999999995634
I17
tp748
aF41.290000000000873
tp749
sg552
((lp750
(F18.359999999993306
I29
tp751
aF40.969999999993888
tp752
sg597
((lp753
(F37.970000000001164
I14
tp754
aF44.75
tp755
sg649
((lp756
F40.30000000000291
tp757
ssba(imeasure_core
ProblemSetSolution
p758
(dp759
g3
g4
sg164
S"AnytimeBeam-w20-gf(8, 'lin')_with_PowerHeuristic2"
p760
sg167
(dp761
g8
((lp762
(F0.4099999999962165
I10
tp763
aF40.009999999994761
tp764
sg48
((lp765
(F0.10000000000582077
I8
tp766
aF40.069999999999709
tp767
sg76
((lp768
(F0.56999999999970896
I13
tp769
aF40.30000000000291
tp770
sg105
((lp771
(F0.73999999999796273
I48
tp772
aF40.040000000000873
tp773
sg135
((lp774
(F0.29000000000087311
I8
tp775
aF40.019999999996799
tp776
ssba(imeasure_core
ProblemSetSolution
p777
(dp778
g3
g186
sg164
g760
sg167
(dp779
g189
((lp780
F40.010000000002037
tp781
sg237
((lp782
(F1.0199999999967986
I30
tp783
aF40.0
tp784
sg290
((lp785
(F32.169999999998254
I288
tp786
aF40.019999999996799
tp787
sg341
((lp788
(F0.25
I13
tp789
aF40.040000000000873
tp790
sg385
((lp791
(F2.4400000000023283
I55
tp792
aF40.150000000001455
tp793
ssba(imeasure_core
ProblemSetSolution
p794
(dp795
g3
g449
sg164
g760
sg167
(dp796
g452
((lp797
F40.019999999996799
tp798
sg501
((lp799
(F18.330000000001746
I17
tp800
aF41.410000000003492
tp801
sg552
((lp802
(F18.32999999999447
I29
tp803
aF41.0
tp804
sg597
((lp805
(F38.049999999995634
I14
tp806
aF44.82999999999447
tp807
sg649
((lp808
F40.459999999999127
tp809
ssba(imeasure_core
ProblemSetSolution
p810
(dp811
g3
g4
sg164
S"AnytimeBeam-w20-gf(16, 'lin')_with_PowerHeuristic2"
p812
sg167
(dp813
g8
((lp814
(F0.42000000000552973
I10
tp815
aF40.140000000006694
tp816
sg48
((lp817
(F0.10999999999330612
I8
tp818
aF40.0
tp819
sg76
((lp820
(F0.56999999999970896
I13
tp821
aF40.279999999998836
tp822
sg105
((lp823
(F0.72000000000116415
I48
tp824
aF40.0
tp825
sg135
((lp826
(F0.29000000000087311
I8
tp827
aF40.019999999996799
tp828
ssba(imeasure_core
ProblemSetSolution
p829
(dp830
g3
g186
sg164
g812
sg167
(dp831
g189
((lp832
F40.010000000002037
tp833
sg237
((lp834
(F1.0099999999947613
I30
tp835
aF40.0
tp836
sg290
((lp837
(F38.930000000000291
I281
tp838
aF40.0
tp839
sg341
((lp840
(F0.23999999999796273
I13
tp841
aF40.009999999994761
tp842
sg385
((lp843
(F2.4500000000043656
I55
tp844
aF40.040000000000873
tp845
ssba(imeasure_core
ProblemSetSolution
p846
(dp847
g3
g449
sg164
g812
sg167
(dp848
g452
((lp849
F40.370000000002619
tp850
sg501
((lp851
(F18.289999999993597
I17
tp852
aF41.889999999999418
tp853
sg552
((lp854
(F18.290000000000873
I29
tp855
aF42.069999999999709
tp856
sg597
((lp857
(F38.07999999999447
I14
tp858
aF44.869999999995343
tp859
sg649
((lp860
F40.380000000004657
tp861
ssba(imeasure_core
ProblemSetSolution
p862
(dp863
g3
g4
sg164
S"AnytimeBeam-w20-gf(2, 'lin')_with_LinearHeuristic"
p864
sg167
(dp865
g8
((lp866
(F1.25
I29
tp867
aF40.040000000000873
tp868
sg48
((lp869
(F0.12999999999738066
I7
tp870
aF40.049999999995634
tp871
sg76
((lp872
F40.110000000000582
tp873
sg105
((lp874
(F31.180000000000291
I256
tp875
aF40.040000000000873
tp876
sg135
((lp877
F40.040000000000873
tp878
ssba(imeasure_core
ProblemSetSolution
p879
(dp880
g3
g186
sg164
g864
sg167
(dp881
g189
((lp882
F40.049999999995634
tp883
sg237
((lp884
F40.260000000002037
tp885
sg290
((lp886
F40.190000000002328
tp887
sg341
((lp888
(F0.51000000000203727
I27
tp889
aF40.0
tp890
sg385
((lp891
(F0.31999999999970896
I8
tp892
aF40.019999999996799
tp893
ssba(imeasure_core
ProblemSetSolution
p894
(dp895
g3
g449
sg164
g864
sg167
(dp896
g452
((lp897
F40.150000000001455
tp898
sg501
((lp899
F40.019999999996799
tp900
sg552
((lp901
F40.599999999998545
tp902
sg597
((lp903
F40.290000000000873
tp904
sg649
((lp905
(F18.870000000002619
I10
tp906
aF41.560000000004948
tp907
ssba(imeasure_core
ProblemSetSolution
p908
(dp909
g3
g4
sg164
S"AnytimeBeam-w20-gf(4, 'lin')_with_LinearHeuristic"
p910
sg167
(dp911
g8
((lp912
(F1.2400000000052387
I29
tp913
aF40.0
tp914
sg48
((lp915
(F0.13000000000465661
I7
tp916
aF40.010000000002037
tp917
sg76
((lp918
F40.0
tp919
sg105
((lp920
(F31.040000000000873
I256
tp921
aF40.05000000000291
tp922
sg135
((lp923
F40.0
tp924
ssba(imeasure_core
ProblemSetSolution
p925
(dp926
g3
g186
sg164
g910
sg167
(dp927
g189
((lp928
F40.0
tp929
sg237
((lp930
F40.220000000001164
tp931
sg290
((lp932
F40.049999999995634
tp933
sg341
((lp934
(F0.52000000000407454
I27
tp935
aF40.029999999998836
tp936
sg385
((lp937
(F0.31999999999970896
I8
tp938
aF40.139999999999418
tp939
ssba(imeasure_core
ProblemSetSolution
p940
(dp941
g3
g449
sg164
g910
sg167
(dp942
g452
((lp943
F40.169999999998254
tp944
sg501
((lp945
F40.040000000000873
tp946
sg552
((lp947
F40.5
tp948
sg597
((lp949
F40.040000000000873
tp950
sg649
((lp951
(F18.69999999999709
I10
tp952
aF41.370000000002619
tp953
ssba(imeasure_core
ProblemSetSolution
p954
(dp955
g3
g4
sg164
S"AnytimeBeam-w20-gf(8, 'lin')_with_LinearHeuristic"
p956
sg167
(dp957
g8
((lp958
(F1.2599999999947613
I29
tp959
aF40.049999999995634
tp960
sg48
((lp961
(F0.13000000000465661
I7
tp962
aF40.020000000004075
tp963
sg76
((lp964
F40.099999999998545
tp965
sg105
((lp966
(F30.980000000003201
I256
tp967
aF40.209999999999127
tp968
sg135
((lp969
F40.25
tp970
ssba(imeasure_core
ProblemSetSolution
p971
(dp972
g3
g186
sg164
g956
sg167
(dp973
g189
((lp974
F40.010000000002037
tp975
sg237
((lp976
F40.0
tp977
sg290
((lp978
F40.289999999993597
tp979
sg341
((lp980
(F0.51000000000203727
I27
tp981
aF40.069999999999709
tp982
sg385
((lp983
(F0.31999999999970896
I8
tp984
aF40.110000000000582
tp985
ssba(imeasure_core
ProblemSetSolution
p986
(dp987
g3
g449
sg164
g956
sg167
(dp988
g452
((lp989
F40.150000000001455
tp990
sg501
((lp991
F40.480000000003201
tp992
sg552
((lp993
F40.439999999995052
tp994
sg597
((lp995
F40.410000000003492
tp996
sg649
((lp997
(F18.69999999999709
I10
tp998
aF41.379999999997381
tp999
ssba(imeasure_core
ProblemSetSolution
p1000
(dp1001
g3
g4
sg164
S"AnytimeBeam-w20-gf(16, 'lin')_with_LinearHeuristic"
p1002
sg167
(dp1003
g8
((lp1004
(F1.2300000000032014
I29
tp1005
aF40.209999999999127
tp1006
sg48
((lp1007
(F0.12999999999738066
I7
tp1008
aF40.029999999998836
tp1009
sg76
((lp1010
F40.139999999999418
tp1011
sg105
((lp1012
(F31.150000000001455
I256
tp1013
aF40.080000000001746
tp1014
sg135
((lp1015
F40.029999999998836
tp1016
ssba(imeasure_core
ProblemSetSolution
p1017
(dp1018
g3
g186
sg164
g1002
sg167
(dp1019
g189
((lp1020
F40.010000000002037
tp1021
sg237
((lp1022
F40.040000000000873
tp1023
sg290
((lp1024
F40.659999999996217
tp1025
sg341
((lp1026
(F0.51000000000203727
I27
tp1027
aF40.020000000004075
tp1028
sg385
((lp1029
(F0.31999999999970896
I8
tp1030
aF40.190000000002328
tp1031
ssba(imeasure_core
ProblemSetSolution
p1032
(dp1033
g3
g449
sg164
g1002
sg167
(dp1034
g452
((lp1035
F40.139999999999418
tp1036
sg501
((lp1037
F40.019999999996799
tp1038
sg552
((lp1039
F40.459999999999127
tp1040
sg597
((lp1041
F40.069999999999709
tp1042
sg649
((lp1043
(F18.690000000002328
I10
tp1044
aF42.950000000004366
tp1045
ssba.