(lp0
(imeasure_core
ProblemSetSolution
p1
(dp2
S'roomset'
p3
(imeasure_core
RoomSet
p4
(dp5
S'rooms'
p6
(dp7
(iproblems
RoomID
p8
(dp9
S'dusts'
p10
I6
sS'obstacles'
p11
(I0
I4
tp12
sS'robots'
p13
I1
sS'height'
p14
I9
sS'width'
p15
I9
sS'seed'
p16
I1164115433906158532
sb(imulti_robot_problem
MultiRobotState
p17
(dp18
S'obstacle_locations'
p19
c__builtin__
frozenset
p20
((lp21
(I0
I1
tp22
a(I1
I2
tp23
a(I1
I3
tp24
a(I1
I4
tp25
ag12
atp26
Rp27
sg15
I9
sS'dirt_locations'
p28
g20
((lp29
(I6
I4
tp30
a(I1
I8
tp31
a(I1
I6
tp32
a(I1
I0
tp33
a(I8
I5
tp34
a(I3
I5
tp35
atp36
Rp37
sg13
((I4
I5
tp38
tp39
sg14
I9
sbs(iproblems
RoomID
p40
(dp41
g10
I8
sg11
(I6
I5
tp42
sg13
I5
sg14
I8
sg15
I7
sg16
I2175216119781798972
sb(imulti_robot_problem
MultiRobotState
p43
(dp44
g19
g20
((lp45
(I1
I2
tp46
a(I2
I6
tp47
a(I6
I7
tp48
a(I6
I6
tp49
a(I5
I7
tp50
a(I2
I3
tp51
a(I0
I4
tp52
a(I1
I0
tp53
ag42
atp54
Rp55
sg15
I7
sg28
g20
((lp56
(I5
I4
tp57
a(I5
I5
tp58
a(I4
I4
tp59
a(I0
I6
tp60
a(I0
I5
tp61
a(I1
I7
tp62
a(I4
I2
tp63
a(I0
I2
tp64
atp65
Rp66
sg13
((I1
I3
tp67
(I6
I4
tp68
(I3
I7
tp69
(I6
I0
tp70
(I2
I1
tp71
tp72
sg14
I8
sbs(iproblems
RoomID
p73
(dp74
g10
I9
sg11
(I2
I2
tp75
sg13
I2
sg14
I9
sg15
I7
sg16
I3872982626502034966
sb(imulti_robot_problem
MultiRobotState
p76
(dp77
g19
g20
((lp78
(I4
I1
tp79
a(I2
I6
tp80
a(I3
I1
tp81
a(I5
I0
tp82
ag75
atp83
Rp84
sg15
I7
sg28
g20
((lp85
(I4
I7
tp86
a(I2
I8
tp87
a(I4
I4
tp88
a(I3
I2
tp89
a(I2
I1
tp90
a(I1
I4
tp91
a(I4
I2
tp92
a(I0
I3
tp93
a(I5
I8
tp94
atp95
Rp96
sg13
((I1
I6
tp97
(I1
I7
tp98
tp99
sg14
I9
sbs(iproblems
RoomID
p100
(dp101
g10
I5
sg11
(I0
I4
tp102
sg13
I5
sg14
I7
sg15
I7
sg16
I8711387064946514083
sb(imulti_robot_problem
MultiRobotState
p103
(dp104
g19
g20
((lp105
(I0
I1
tp106
a(I2
I2
tp107
a(I0
I2
tp108
a(I1
I5
tp109
ag102
a(I0
I3
tp110
a(I2
I4
tp111
a(I6
I5
tp112
atp113
Rp114
sg15
I7
sg28
g20
((lp115
(I5
I6
tp116
a(I6
I4
tp117
a(I3
I2
tp118
a(I6
I1
tp119
a(I6
I6
tp120
atp121
Rp122
sg13
((I1
I1
tp123
(I6
I0
tp124
(I5
I0
tp125
(I1
I3
tp126
(I4
I5
tp127
tp128
sg14
I7
sbs(iproblems
RoomID
p129
(dp130
g10
I9
sg11
(I6
I3
tp131
sg13
I4
sg14
I9
sg15
I10
sg16
I7002664860023442459
sb(imulti_robot_problem
MultiRobotState
p132
(dp133
g19
g20
((lp134
(I7
I4
tp135
a(I7
I3
tp136
ag131
a(I6
I5
tp137
a(I9
I7
tp138
atp139
Rp140
sg15
I10
sg28
g20
((lp141
(I0
I0
tp142
a(I6
I8
tp143
a(I2
I8
tp144
a(I5
I7
tp145
a(I2
I6
tp146
a(I4
I2
tp147
a(I5
I1
tp148
a(I8
I6
tp149
a(I8
I4
tp150
atp151
Rp152
sg13
((I7
I5
tp153
(I7
I6
tp154
(I1
I7
tp155
(I1
I6
tp156
tp157
sg14
I9
sbssS'name'
p158
S'easy_roomset'
p159
sbsg158
S"AnytimeBeam-w5-gf(1.3, 'exp')_with_PowerHeuristic2"
p160
sS'solutions'
p161
(dp162
g8
((lp163
(F0.069999999999708962
I64
tp164
a(F0.28999999999996362
I50
tp165
a(F0.43999999999959982
I42
tp166
a(F5.4899999999997817
I40
tp167
a(F6.8599999999996726
I34
tp168
a(F8.0499999999992724
I30
tp169
a(F9.1099999999996726
I28
tp170
a(F14.909999999999854
I26
tp171
aF40.0
tp172
sg40
((lp173
(F0.3999999999996362
I5
tp174
aF40.880000000000109
tp175
sg100
((lp176
(F0.15999999999985448
I4
tp177
aF40.090000000000146
tp178
sg73
((lp179
(F0.2999999999992724
I66
tp180
a(F32.069999999999709
I65
tp181
aF40.029999999999745
tp182
sg129
((lp183
(F0.40999999999985448
I11
tp184
aF40.009999999999309
tp185
ssba(imeasure_core
ProblemSetSolution
p186
(dp187
g3
(imeasure_core
RoomSet
p188
(dp189
g6
(dp190
(iproblems
RoomID
p191
(dp192
g10
I6
sg11
(I5
I5
tp193
sg13
I3
sg14
I11
sg15
I11
sg16
I1164115433906158532
sb(imulti_robot_problem
MultiRobotState
p194
(dp195
g19
g20
((lp196
(I5
I4
tp197
a(I1
I3
tp198
a(I4
I3
tp199
a(I4
I8
tp200
a(I3
I0
tp201
a(I8
I0
tp202
a(I3
I2
tp203
a(I0
I7
tp204
a(I2
I1
tp205
a(I3
I9
tp206
a(I0
I5
tp207
a(I1
I4
tp208
a(I3
I7
tp209
a(I2
I5
tp210
a(I5
I3
tp211
a(I8
I3
tp212
a(I3
I1
tp213
ag193
a(I2
I0
tp214
a(I3
I10
tp215
a(I6
I10
tp216
a(I0
I6
tp217
a(I1
I8
tp218
a(I3
I6
tp219
a(I4
I5
tp220
a(I0
I2
tp221
atp222
Rp223
sg15
I11
sg28
g20
((lp224
(I7
I5
tp225
a(I8
I8
tp226
a(I4
I9
tp227
a(I4
I6
tp228
a(I10
I6
tp229
a(I8
I2
tp230
atp231
Rp232
sg13
((I5
I7
tp233
(I2
I10
tp234
(I2
I8
tp235
tp236
sg14
I11
sbs(iproblems
RoomID
p237
(dp238
g10
I8
sg11
(I5
I4
tp239
sg13
I4
sg14
I10
sg15
I9
sg16
I2175216119781798972
sb(imulti_robot_problem
MultiRobotState
p240
(dp241
g19
g20
((lp242
(I6
I6
tp243
a(I2
I8
tp244
a(I0
I7
tp245
a(I6
I2
tp246
a(I1
I6
tp247
a(I2
I5
tp248
a(I5
I5
tp249
a(I8
I1
tp250
a(I7
I6
tp251
a(I6
I3
tp252
a(I2
I2
tp253
a(I8
I6
tp254
a(I6
I4
tp255
ag239
a(I8
I2
tp256
a(I7
I1
tp257
a(I1
I4
tp258
a(I7
I5
tp259
a(I8
I7
tp260
a(I1
I0
tp261
a(I6
I5
tp262
a(I3
I3
tp263
a(I8
I3
tp264
a(I7
I0
tp265
a(I6
I8
tp266
a(I3
I4
tp267
a(I7
I4
tp268
a(I0
I6
tp269
a(I1
I8
tp270
a(I8
I8
tp271
a(I4
I3
tp272
a(I1
I7
tp273
a(I7
I8
tp274
a(I0
I2
tp275
atp276
Rp277
sg15
I9
sg28
g20
((lp278
(I6
I7
tp279
a(I2
I9
tp280
a(I5
I6
tp281
a(I3
I1
tp282
a(I8
I9
tp283
a(I0
I5
tp284
a(I0
I3
tp285
a(I5
I2
tp286
atp287
Rp288
sg13
((I2
I4
tp289
(I8
I5
tp290
(I4
I9
tp291
(I7
I7
tp292
tp293
sg14
I10
sbs(iproblems
RoomID
p294
(dp295
g10
I9
sg11
(I3
I0
tp296
sg13
I3
sg14
I9
sg15
I12
sg16
I4912931603392816429
sb(imulti_robot_problem
MultiRobotState
p297
(dp298
g19
g20
((lp299
(I6
I4
tp300
a(I4
I7
tp301
a(I0
I0
tp302
a(I4
I8
tp303
a(I5
I6
tp304
a(I2
I8
tp305
a(I0
I7
tp306
a(I4
I6
tp307
a(I7
I5
tp308
a(I4
I2
tp309
a(I0
I3
tp310
a(I7
I2
tp311
a(I6
I8
tp312
a(I10
I5
tp313
a(I5
I5
tp314
a(I7
I8
tp315
a(I4
I4
tp316
a(I5
I2
tp317
ag296
a(I8
I8
tp318
a(I5
I8
tp319
a(I1
I7
tp320
a(I4
I5
tp321
a(I8
I6
tp322
a(I5
I3
tp323
a(I4
I1
tp324
atp325
Rp326
sg15
I12
sg28
g20
((lp327
(I7
I3
tp328
a(I7
I1
tp329
a(I8
I1
tp330
a(I6
I3
tp331
a(I11
I8
tp332
a(I8
I7
tp333
a(I3
I7
tp334
a(I2
I5
tp335
a(I3
I4
tp336
atp337
Rp338
sg13
((I9
I1
tp339
(I1
I6
tp340
(I8
I4
tp341
tp342
sg14
I9
sbs(iproblems
RoomID
p343
(dp344
g10
I9
sg11
(I4
I3
tp345
sg13
I4
sg14
I11
sg15
I12
sg16
I7002664860023442459
sb(imulti_robot_problem
MultiRobotState
p346
(dp347
g19
g20
((lp348
(I11
I8
tp349
a(I0
I0
tp350
a(I10
I4
tp351
a(I3
I0
tp352
a(I9
I3
tp353
a(I6
I0
tp354
a(I2
I1
tp355
a(I8
I9
tp356
a(I9
I4
tp357
a(I5
I1
tp358
a(I8
I5
tp359
a(I5
I8
tp360
a(I8
I2
tp361
a(I7
I0
tp362
a(I8
I7
tp363
a(I3
I3
tp364
a(I1
I5
tp365
a(I8
I1
tp366
a(I9
I6
tp367
a(I3
I1
tp368
a(I9
I2
tp369
a(I2
I0
tp370
ag345
a(I2
I2
tp371
a(I9
I5
tp372
a(I5
I2
tp373
a(I2
I4
tp374
atp375
Rp376
sg15
I12
sg28
g20
((lp377
(I0
I1
tp378
a(I10
I8
tp379
a(I2
I8
tp380
a(I3
I10
tp381
a(I10
I6
tp382
a(I6
I2
tp383
a(I3
I7
tp384
a(I7
I8
tp385
a(I7
I9
tp386
atp387
Rp388
sg13
((I9
I7
tp389
(I8
I8
tp390
(I2
I9
tp391
(I1
I7
tp392
tp393
sg14
I11
sbs(iproblems
RoomID
p394
(dp395
g10
I9
sg11
(I5
I3
tp396
sg13
I3
sg14
I9
sg15
I9
sg16
I1885758236351349410
sb(imulti_robot_problem
MultiRobotState
p397
(dp398
g19
g20
((lp399
(I4
I7
tp400
a(I5
I7
tp401
a(I7
I1
tp402
a(I5
I6
tp403
a(I5
I4
tp404
a(I0
I0
tp405
a(I2
I3
tp406
a(I4
I2
tp407
a(I8
I5
tp408
ag396
a(I6
I7
tp409
a(I5
I5
tp410
a(I4
I4
tp411
a(I1
I5
tp412
a(I4
I3
tp413
a(I0
I4
tp414
a(I1
I6
tp415
a(I3
I4
tp416
a(I2
I4
tp417
atp418
Rp419
sg15
I9
sg28
g20
((lp420
(I7
I3
tp421
a(I7
I0
tp422
a(I3
I0
tp423
a(I6
I1
tp424
a(I1
I4
tp425
a(I0
I5
tp426
a(I5
I0
tp427
a(I1
I1
tp428
a(I8
I4
tp429
atp430
Rp431
sg13
((I0
I1
tp432
(I2
I6
tp433
(I0
I2
tp434
tp435
sg14
I9
sbssg158
S'mild_roomset'
p436
sbsg158
g160
sg161
(dp437
g191
((lp438
(F13.740000000000691
I158
tp439
a(F21.860000000000582
I146
tp440
aF40.0
tp441
sg237
((lp442
(F22.380000000000109
I169
tp443
aF40.010000000000218
tp444
sg343
((lp445
(F0.31000000000040018
I11
tp446
aF40.110000000000582
tp447
sg294
((lp448
(F0.07999999999992724
I11
tp449
aF40.0
tp450
sg394
((lp451
(F1.1499999999996362
I65
tp452
aF40.019999999999527
tp453
ssba(imeasure_core
ProblemSetSolution
p454
(dp455
g3
(imeasure_core
RoomSet
p456
(dp457
g6
(dp458
(iproblems
RoomID
p459
(dp460
g10
I11
sg11
(I7
I9
tp461
sg13
I5
sg14
I12
sg15
I12
sg16
I1164115433906158532
sb(imulti_robot_problem
MultiRobotState
p462
(dp463
g19
g20
((lp464
(I4
I7
tp465
a(I1
I3
tp466
a(I5
I6
tp467
a(I9
I3
tp468
a(I1
I4
tp469
a(I0
I5
tp470
a(I7
I11
tp471
a(I1
I0
tp472
a(I5
I8
tp473
a(I3
I3
tp474
a(I3
I1
tp475
a(I6
I7
tp476
a(I6
I8
tp477
a(I7
I8
tp478
a(I5
I7
tp479
ag461
a(I4
I1
tp480
a(I0
I2
tp481
atp482
Rp483
sg15
I12
sg28
g20
((lp484
(I4
I10
tp485
a(I9
I0
tp486
a(I2
I6
tp487
a(I5
I10
tp488
a(I9
I2
tp489
a(I0
I7
tp490
a(I8
I9
tp491
a(I1
I6
tp492
a(I8
I5
tp493
a(I4
I11
tp494
a(I5
I3
tp495
atp496
Rp497
sg13
((I1
I2
tp498
(I2
I11
tp499
(I2
I0
tp500
(I2
I9
tp501
(I11
I7
tp502
tp503
sg14
I12
sbs(iproblems
RoomID
p504
(dp505
g10
I10
sg11
(I0
I7
tp506
sg13
I7
sg14
I10
sg15
I10
sg16
I8711387064946514083
sb(imulti_robot_problem
MultiRobotState
p507
(dp508
g19
g20
((lp509
(I5
I9
tp510
a(I6
I9
tp511
a(I2
I6
tp512
a(I2
I9
tp513
a(I0
I6
tp514
ag506
a(I1
I5
tp515
a(I8
I8
tp516
a(I0
I5
tp517
a(I4
I3
tp518
a(I0
I4
tp519
a(I0
I3
tp520
a(I9
I7
tp521
a(I0
I2
tp522
a(I7
I9
tp523
atp524
Rp525
sg15
I10
sg28
g20
((lp526
(I9
I0
tp527
a(I3
I3
tp528
a(I7
I1
tp529
a(I8
I1
tp530
a(I9
I8
tp531
a(I4
I4
tp532
a(I9
I9
tp533
a(I3
I6
tp534
a(I1
I7
tp535
a(I8
I6
tp536
atp537
Rp538
sg13
((I1
I1
tp539
(I8
I0
tp540
(I7
I0
tp541
(I2
I5
tp542
(I6
I7
tp543
(I8
I9
tp544
(I5
I8
tp545
tp546
sg14
I10
sbs(iproblems
RoomID
p547
(dp548
g10
I14
sg11
(I0
I3
tp549
sg13
I7
sg14
I12
sg15
I13
sg16
I7002664860023442459
sb(imulti_robot_problem
MultiRobotState
p550
(dp551
g19
g20
((lp552
(I1
I2
tp553
a(I11
I4
tp554
a(I9
I8
tp555
a(I10
I6
tp556
ag549
a(I0
I8
tp557
a(I10
I3
tp558
a(I0
I1
tp559
a(I10
I5
tp560
a(I10
I7
tp561
a(I7
I8
tp562
a(I9
I9
tp563
a(I0
I9
tp564
a(I9
I5
tp565
a(I3
I4
tp566
a(I0
I2
tp567
a(I11
I6
tp568
a(I9
I7
tp569
atp570
Rp571
sg15
I13
sg28
g20
((lp572
(I6
I4
tp573
a(I11
I9
tp574
a(I4
I6
tp575
a(I2
I9
tp576
a(I5
I9
tp577
a(I12
I2
tp578
a(I3
I1
tp579
a(I3
I11
tp580
a(I10
I10
tp581
a(I7
I4
tp582
a(I0
I0
tp583
a(I11
I5
tp584
a(I2
I5
tp585
a(I12
I9
tp586
atp587
Rp588
sg13
((I2
I10
tp589
(I1
I8
tp590
(I8
I10
tp591
(I7
I2
tp592
(I3
I8
tp593
(I6
I2
tp594
(I7
I9
tp595
tp596
sg14
I12
sbs(iproblems
RoomID
p597
(dp598
g10
I14
sg11
(I5
I10
tp599
sg13
I5
sg14
I12
sg15
I10
sg16
I3872982626502034966
sb(imulti_robot_problem
MultiRobotState
p600
(dp601
g19
g20
((lp602
(I5
I9
tp603
a(I6
I9
tp604
a(I5
I7
tp605
a(I3
I2
tp606
ag599
a(I4
I10
tp607
a(I4
I8
tp608
a(I3
I11
tp609
a(I2
I1
tp610
a(I6
I2
tp611
a(I1
I4
tp612
a(I8
I7
tp613
a(I6
I8
tp614
a(I6
I7
tp615
a(I5
I8
tp616
a(I3
I5
tp617
a(I4
I9
tp618
a(I4
I6
tp619
a(I8
I1
tp620
a(I7
I1
tp621
a(I3
I8
tp622
a(I4
I3
tp623
a(I5
I2
tp624
a(I1
I1
tp625
atp626
Rp627
sg15
I10
sg28
g20
((lp628
(I5
I3
tp629
a(I3
I1
tp630
a(I8
I11
tp631
a(I9
I3
tp632
a(I0
I2
tp633
a(I6
I3
tp634
a(I3
I9
tp635
a(I2
I3
tp636
a(I9
I5
tp637
a(I7
I11
tp638
a(I0
I8
tp639
a(I3
I10
tp640
a(I7
I2
tp641
a(I9
I7
tp642
atp643
Rp644
sg13
((I1
I8
tp645
(I2
I9
tp646
(I1
I9
tp647
(I1
I5
tp648
(I6
I5
tp649
tp650
sg14
I12
sbs(iproblems
RoomID
p651
(dp652
g10
I10
sg11
(I6
I7
tp653
sg13
I6
sg14
I10
sg15
I13
sg16
I8999366892653588108
sb(imulti_robot_problem
MultiRobotState
p654
(dp655
g19
g20
((lp656
(I5
I4
tp657
ag653
a(I5
I5
tp658
a(I5
I6
tp659
a(I7
I6
tp660
a(I4
I2
tp661
a(I2
I3
tp662
a(I8
I6
tp663
a(I12
I1
tp664
a(I5
I3
tp665
a(I6
I5
tp666
a(I3
I3
tp667
atp668
Rp669
sg15
I13
sg28
g20
((lp670
(I6
I9
tp671
a(I7
I0
tp672
a(I5
I7
tp673
a(I12
I6
tp674
a(I2
I1
tp675
a(I0
I5
tp676
a(I10
I1
tp677
a(I0
I3
tp678
a(I7
I9
tp679
a(I3
I5
tp680
atp681
Rp682
sg13
((I12
I0
tp683
(I6
I1
tp684
(I2
I2
tp685
(I6
I4
tp686
(I4
I6
tp687
(I7
I1
tp688
tp689
sg14
I10
sbssg158
S'heavy_roomset'
p690
sbsg158
g160
sg161
(dp691
g459
((lp692
(F2.4600000000000364
I20
tp693
aF40.170000000000073
tp694
sg504
((lp695
(F11.859999999999673
I7
tp696
aF40.760000000000218
tp697
sg547
((lp698
F45.929999999999382
tp699
sg597
((lp700
F40.050000000000182
tp701
sg651
((lp702
(F7.6700000000000728
I20
tp703
aF40.3100000000004
tp704
ssba(imeasure_core
ProblemSetSolution
p705
(dp706
g3
g4
sg158
S"AnytimeBeam-w15-gf(1.3, 'exp')_with_PowerHeuristic2"
p707
sg161
(dp708
g8
((lp709
(F0.1499999999996362
I50
tp710
a(F0.28999999999996362
I42
tp711
a(F4.069999999999709
I40
tp712
a(F5.4299999999993815
I34
tp713
a(F6.6099999999996726
I30
tp714
a(F7.6799999999993815
I28
tp715
a(F13.449999999999818
I26
tp716
aF40.0
tp717
sg40
((lp718
(F0.47999999999956344
I5
tp719
aF40.109999999999673
tp720
sg100
((lp721
(F0.21000000000003638
I4
tp722
aF40.050000000000182
tp723
sg73
((lp724
(F0.4499999999998181
I66
tp725
a(F28.430000000000291
I65
tp726
a(F37.649999999999636
I64
tp727
aF40.050000000000182
tp728
sg129
((lp729
(F0.52999999999974534
I11
tp730
aF40.25
tp731
ssba(imeasure_core
ProblemSetSolution
p732
(dp733
g3
g188
sg158
g707
sg161
(dp734
g191
((lp735
(F10.75
I154
tp736
a(F29.210000000000036
I146
tp737
aF40.0
tp738
sg237
((lp739
(F13.090000000000146
I169
tp740
aF40.0600000000004
tp741
sg343
((lp742
(F0.40999999999985448
I11
tp743
aF40.059999999999491
tp744
sg294
((lp745
(F0.11999999999989086
I11
tp746
aF40.039999999999964
tp747
sg394
((lp748
(F0.9500000000007276
I65
tp749
aF40.080000000000837
tp750
ssba(imeasure_core
ProblemSetSolution
p751
(dp752
g3
g456
sg158
g707
sg161
(dp753
g459
((lp754
(F2.930000000000291
I20
tp755
aF40.090000000000146
tp756
sg504
((lp757
(F13.180000000000291
I7
tp758
aF41.800000000000182
tp759
sg547
((lp760
F45.949999999999818
tp761
sg597
((lp762
F40.029999999999745
tp763
sg651
((lp764
(F9.3100000000004002
I20
tp765
aF40.020000000000437
tp766
ssba(imeasure_core
ProblemSetSolution
p767
(dp768
g3
g4
sg158
S"AnytimeBeam-w25-gf(1.3, 'exp')_with_PowerHeuristic2"
p769
sg161
(dp770
g8
((lp771
(F0.15999999999985448
I42
tp772
a(F5.1000000000003638
I40
tp773
a(F6.4700000000002547
I34
tp774
a(F7.6499999999996362
I30
tp775
a(F8.7200000000002547
I28
tp776
a(F14.5
I26
tp777
aF40.0
tp778
sg40
((lp779
(F0.51000000000021828
I5
tp780
aF40.319999999999709
tp781
sg100
((lp782
(F0.23999999999978172
I4
tp783
aF40.049999999999272
tp784
sg73
((lp785
(F0.53999999999996362
I66
tp786
a(F30.670000000000073
I65
tp787
aF40.030000000000655
tp788
sg129
((lp789
(F0.56000000000040018
I11
tp790
aF40.320000000000618
tp791
ssba(imeasure_core
ProblemSetSolution
p792
(dp793
g3
g188
sg158
g769
sg161
(dp794
g191
((lp795
(F8.819999999999709
I155
tp796
a(F17.130000000000109
I154
tp797
a(F25.699999999999818
I146
tp798
aF40.059999999999491
tp799
sg237
((lp800
(F7.9200000000000728
I169
tp801
aF40.0
tp802
sg343
((lp803
(F0.46000000000003638
I11
tp804
aF40.079999999999927
tp805
sg294
((lp806
(F0.13000000000010914
I11
tp807
aF40.039999999999964
tp808
sg394
((lp809
(F1.1199999999998909
I65
tp810
aF40.0
tp811
ssba(imeasure_core
ProblemSetSolution
p812
(dp813
g3
g456
sg158
g769
sg161
(dp814
g459
((lp815
(F3.0300000000006548
I20
tp816
aF40.119999999999891
tp817
sg504
((lp818
(F13.260000000000218
I7
tp819
aF40.960000000000036
tp820
sg547
((lp821
F45.940000000000509
tp822
sg597
((lp823
F40.029999999999745
tp824
sg651
((lp825
(F9.5100000000002183
I20
tp826
aF40.150000000000546
tp827
ssba(imeasure_core
ProblemSetSolution
p828
(dp829
g3
g4
sg158
S"AnytimeBeam-w35-gf(1.3, 'exp')_with_PowerHeuristic2"
p830
sg161
(dp831
g8
((lp832
(F0.1500000000005457
I42
tp833
a(F3.5100000000002183
I40
tp834
a(F4.8800000000001091
I34
tp835
a(F6.0600000000004002
I30
tp836
a(F7.1300000000001091
I28
tp837
a(F12.930000000000291
I26
tp838
aF40.0
tp839
sg40
((lp840
(F0.56000000000040018
I5
tp841
aF40.680000000000291
tp842
sg100
((lp843
(F0.28000000000065484
I4
tp844
aF40.039999999999964
tp845
sg73
((lp846
(F0.61999999999989086
I66
tp847
a(F25.649999999999636
I65
tp848
a(F34.970000000000255
I64
tp849
aF40.029999999999745
tp850
sg129
((lp851
(F0.63000000000010914
I11
tp852
aF40.230000000000473
tp853
ssba(imeasure_core
ProblemSetSolution
p854
(dp855
g3
g188
sg158
g830
sg161
(dp856
g191
((lp857
(F8.2299999999995634
I161
tp858
a(F16.139999999999418
I146
tp859
aF40.079999999999927
tp860
sg237
((lp861
(F9.8799999999991996
I169
tp862
aF40.0
tp863
sg343
((lp864
(F0.52000000000043656
I11
tp865
aF40.1200000000008
tp866
sg294
((lp867
(F0.1499999999996362
I11
tp868
aF40.059999999999491
tp869
sg394
((lp870
(F1.2199999999993452
I65
tp871
aF40.019999999998618
tp872
ssba(imeasure_core
ProblemSetSolution
p873
(dp874
g3
g456
sg158
g830
sg161
(dp875
g459
((lp876
(F3.25
I20
tp877
aF40.100000000000364
tp878
sg504
((lp879
(F13.940000000000509
I7
tp880
aF41.639999999999418
tp881
sg547
((lp882
F45.940000000000509
tp883
sg597
((lp884
F40.100000000000364
tp885
sg651
((lp886
(F10.280000000000655
I20
tp887
aF40.340000000000146
tp888
ssba(imeasure_core
ProblemSetSolution
p889
(dp890
g3
g4
sg158
S"AnytimeBeam-w45-gf(1.3, 'exp')_with_PowerHeuristic2"
p891
sg161
(dp892
g8
((lp893
(F0.1499999999996362
I42
tp894
a(F2.8899999999994179
I40
tp895
a(F4.2600000000002183
I34
tp896
a(F5.4499999999989086
I30
tp897
a(F6.5100000000002183
I28
tp898
a(F12.319999999999709
I26
tp899
aF40.0
tp900
sg40
((lp901
(F0.6000000000003638
I5
tp902
aF40.059999999999491
tp903
sg100
((lp904
(F0.2999999999992724
I4
tp905
aF40.190000000000509
tp906
sg73
((lp907
(F0.6499999999996362
I66
tp908
a(F23.190000000000509
I65
tp909
a(F32.329999999999927
I64
tp910
aF40.010000000000218
tp911
sg129
((lp912
(F0.67000000000007276
I11
tp913
aF40.399999999999636
tp914
ssba(imeasure_core
ProblemSetSolution
p915
(dp916
g3
g188
sg158
g891
sg161
(dp917
g191
((lp918
(F8.3400000000001455
I154
tp919
a(F17.369999999998981
I146
tp920
aF40.010000000000218
tp921
sg237
((lp922
(F10.729999999999563
I169
tp923
aF40.059999999999491
tp924
sg343
((lp925
(F0.59000000000014552
I11
tp926
aF40.239999999999782
tp927
sg294
((lp928
(F0.15999999999985448
I11
tp929
aF40.059999999999491
tp930
sg394
((lp931
(F1.3100000000013097
I65
tp932
aF40.040000000000873
tp933
ssba(imeasure_core
ProblemSetSolution
p934
(dp935
g3
g456
sg158
g891
sg161
(dp936
g459
((lp937
(F3.3999999999996362
I20
tp938
aF40.299999999999272
tp939
sg504
((lp940
(F14.090000000000146
I7
tp941
aF41.970000000001164
tp942
sg547
((lp943
F45.850000000000364
tp944
sg597
((lp945
F40.089999999998327
tp946
sg651
((lp947
(F10.490000000001601
I20
tp948
aF40.260000000000218
tp949
ssba(imeasure_core
ProblemSetSolution
p950
(dp951
g3
g4
sg158
S"AnytimeBeam-w5-gf(1.3, 'exp')_with_LinearHeuristic"
p952
sg161
(dp953
g8
((lp954
(F0.050000000001091394
I28
tp955
a(F39.06000000000131
I26
tp956
aF40.0
tp957
sg40
((lp958
F40.3700000000008
tp959
sg100
((lp960
(F0.52000000000043656
I10
tp961
aF40.260000000000218
tp962
sg73
((lp963
(F0.11000000000058208
I24
tp964
a(F37.280000000000655
I23
tp965
aF40.010000000000218
tp966
sg129
((lp967
(F1.2299999999995634
I27
tp968
aF40.019999999998618
tp969
ssba(imeasure_core
ProblemSetSolution
p970
(dp971
g3
g188
sg158
g952
sg161
(dp972
g191
((lp973
F40.050000000001091
tp974
sg237
((lp975
F40.039999999999054
tp976
sg343
((lp977
F40.100000000000364
tp978
sg294
((lp979
(F14.899999999999636
I282
tp980
aF40.069999999999709
tp981
sg394
((lp982
(F8.2600000000002183
I226
tp983
aF40.0
tp984
ssba(imeasure_core
ProblemSetSolution
p985
(dp986
g3
g456
sg158
g952
sg161
(dp987
g459
((lp988
F40.110000000000582
tp989
sg504
((lp990
(F19.030000000000655
I7
tp991
aF42.190000000000509
tp992
sg547
((lp993
F50.469999999999345
tp994
sg597
((lp995
F40.229999999999563
tp996
sg651
((lp997
F40.069999999999709
tp998
ssba(imeasure_core
ProblemSetSolution
p999
(dp1000
g3
g4
sg158
S"AnytimeBeam-w15-gf(1.3, 'exp')_with_LinearHeuristic"
p1001
sg161
(dp1002
g8
((lp1003
(F0.020000000000436557
I28
tp1004
aF40.0
tp1005
sg40
((lp1006
F40.25
tp1007
sg100
((lp1008
(F0.67000000000007276
I10
tp1009
aF40.229999999999563
tp1010
sg73
((lp1011
(F0.39000000000123691
I27
tp1012
a(F1.0100000000002183
I25
tp1013
a(F31.550000000001091
I24
tp1014
aF40.010000000000218
tp1015
sg129
((lp1016
(F1.7800000000006548
I27
tp1017
aF40.090000000000146
tp1018
ssba(imeasure_core
ProblemSetSolution
p1019
(dp1020
g3
g188
sg158
g1001
sg161
(dp1021
g191
((lp1022
F40.0
tp1023
sg237
((lp1024
F40.079999999999927
tp1025
sg343
((lp1026
F40.159999999999854
tp1027
sg294
((lp1028
(F12.159999999999854
I282
tp1029
aF40.06000000000131
tp1030
sg394
((lp1031
(F7.2099999999991269
I226
tp1032
aF40.059999999999491
tp1033
ssba(imeasure_core
ProblemSetSolution
p1034
(dp1035
g3
g456
sg158
g1001
sg161
(dp1036
g459
((lp1037
F40.1299999999992
tp1038
sg504
((lp1039
(F22.040000000000873
I7
tp1040
aF44.680000000000291
tp1041
sg547
((lp1042
F51.760000000000218
tp1043
sg597
((lp1044
F40.260000000000218
tp1045
sg651
((lp1046
F40.139999999999418
tp1047
ssba(imeasure_core
ProblemSetSolution
p1048
(dp1049
g3
g4
sg158
S"AnytimeBeam-w25-gf(1.3, 'exp')_with_LinearHeuristic"
p1050
sg161
(dp1051
g8
((lp1052
(F0.020000000000436557
I28
tp1053
aF40.0
tp1054
sg40
((lp1055
F40.630000000001019
tp1056
sg100
((lp1057
(F0.75
I10
tp1058
aF40.309999999999491
tp1059
sg73
((lp1060
(F0.6499999999996362
I25
tp1061
a(F30.049999999999272
I24
tp1062
a(F39.25
I23
tp1063
aF40.0
tp1064
sg129
((lp1065
(F2.1599999999998545
I27
tp1066
aF40.059999999999491
tp1067
ssba(imeasure_core
ProblemSetSolution
p1068
(dp1069
g3
g188
sg158
g1050
sg161
(dp1070
g191
((lp1071
F40.010000000000218
tp1072
sg237
((lp1073
F40.020000000000437
tp1074
sg343
((lp1075
F40.229999999999563
tp1076
sg294
((lp1077
F40.0
tp1078
sg394
((lp1079
(F8.4200000000000728
I226
tp1080
aF40.020000000000437
tp1081
ssba(imeasure_core
ProblemSetSolution
p1082
(dp1083
g3
g456
sg158
g1050
sg161
(dp1084
g459
((lp1085
F40.239999999999782
tp1086
sg504
((lp1087
(F22.450000000000728
I7
tp1088
aF46.209999999999127
tp1089
sg547
((lp1090
F51.920000000000073
tp1091
sg597
((lp1092
F40.100000000000364
tp1093
sg651
((lp1094
F40.170000000000073
tp1095
ssba(imeasure_core
ProblemSetSolution
p1096
(dp1097
g3
g4
sg158
S"AnytimeBeam-w35-gf(1.3, 'exp')_with_LinearHeuristic"
p1098
sg161
(dp1099
g8
((lp1100
(F0.020000000000436557
I28
tp1101
a(F34.479999999999563
I26
tp1102
aF40.0
tp1103
sg40
((lp1104
F40.059999999999491
tp1105
sg100
((lp1106
(F0.88000000000101863
I10
tp1107
aF40.149999999999636
tp1108
sg73
((lp1109
(F0.75
I25
tp1110
a(F29.280000000000655
I24
tp1111
a(F38.440000000000509
I23
tp1112
aF40.010000000000218
tp1113
sg129
((lp1114
(F2.680000000000291
I27
tp1115
aF40.070000000001528
tp1116
ssba(imeasure_core
ProblemSetSolution
p1117
(dp1118
g3
g188
sg158
g1098
sg161
(dp1119
g191
((lp1120
F40.079999999999927
tp1121
sg237
((lp1122
F40.020000000000437
tp1123
sg343
((lp1124
F40.019999999998618
tp1125
sg294
((lp1126
F40.210000000000946
tp1127
sg394
((lp1128
(F9.2900000000008731
I226
tp1129
aF40.080000000001746
tp1130
ssba(imeasure_core
ProblemSetSolution
p1131
(dp1132
g3
g456
sg158
g1098
sg161
(dp1133
g459
((lp1134
F40.510000000000218
tp1135
sg504
((lp1136
(F23.659999999999854
I7
tp1137
aF47.600000000000364
tp1138
sg547
((lp1139
F52.290000000000873
tp1140
sg597
((lp1141
F40.049999999999272
tp1142
sg651
((lp1143
F40.209999999999127
tp1144
ssba(imeasure_core
ProblemSetSolution
p1145
(dp1146
g3
g4
sg158
S"AnytimeBeam-w45-gf(1.3, 'exp')_with_LinearHeuristic"
p1147
sg161
(dp1148
g8
((lp1149
(F0.020000000000436557
I28
tp1150
aF40.0
tp1151
sg40
((lp1152
F40.340000000000146
tp1153
sg100
((lp1154
(F0.94000000000050932
I10
tp1155
aF40.1200000000008
tp1156
sg73
((lp1157
(F0.78000000000065484
I25
tp1158
a(F28.260000000000218
I24
tp1159
a(F37.600000000000364
I23
tp1160
aF40.0
tp1161
sg129
((lp1162
(F3.0299999999988358
I27
tp1163
aF40.0
tp1164
ssba(imeasure_core
ProblemSetSolution
p1165
(dp1166
g3
g188
sg158
g1147
sg161
(dp1167
g191
((lp1168
F40.019999999998618
tp1169
sg237
((lp1170
F40.150000000001455
tp1171
sg343
((lp1172
F40.039999999999054
tp1173
sg294
((lp1174
F40.079999999999927
tp1175
sg394
((lp1176
(F9.8299999999999272
I226
tp1177
aF40.050000000001091
tp1178
ssba(imeasure_core
ProblemSetSolution
p1179
(dp1180
g3
g456
sg158
g1147
sg161
(dp1181
g459
((lp1182
F40.369999999998981
tp1183
sg504
((lp1184
(F24.1200000000008
I7
tp1185
aF40.639999999999418
tp1186
sg547
((lp1187
F52.460000000000946
tp1188
sg597
((lp1189
F40.209999999999127
tp1190
sg651
((lp1191
F40.030000000000655
tp1192
ssba.