(lp0
(imeasure_core
ProblemSetSolution
p1
(dp2
S'roomset'
p3
(imeasure_core
RoomSet
p4
(dp5
S'rooms'
p6
(dp7
(iproblems
RoomID
p8
(dp9
S'dusts'
p10
I6
sS'obstacles'
p11
(I4
I3
tp12
sS'robots'
p13
I1
sS'height'
p14
I7
sS'width'
p15
I8
sS'seed'
p16
I8486355351578056966
sb(imulti_robot_problem
MultiRobotState
p17
(dp18
S'obstacle_locations'
p19
c__builtin__
frozenset
p20
((lp21
(I6
I4
tp22
a(I5
I4
tp23
a(I6
I5
tp24
ag12
a(I6
I6
tp25
atp26
Rp27
sg15
I8
sS'dirt_locations'
p28
g20
((lp29
(I0
I1
tp30
a(I7
I4
tp31
a(I3
I3
tp32
a(I5
I0
tp33
a(I1
I4
tp34
a(I3
I5
tp35
atp36
Rp37
sg13
((I3
I0
tp38
tp39
sg14
I7
sbs(iproblems
RoomID
p40
(dp41
g10
I9
sg11
(I6
I3
tp42
sg13
I3
sg14
I8
sg15
I9
sg16
I5537388114198284799
sb(imulti_robot_problem
MultiRobotState
p43
(dp44
g19
g20
((lp45
(I7
I4
tp46
a(I6
I4
tp47
a(I7
I5
tp48
a(I8
I1
tp49
ag42
atp50
Rp51
sg15
I9
sg28
g20
((lp52
(I7
I3
tp53
a(I7
I0
tp54
a(I3
I1
tp55
a(I0
I7
tp56
a(I0
I6
tp57
a(I1
I6
tp58
a(I0
I4
tp59
a(I2
I4
tp60
a(I6
I5
tp61
atp62
Rp63
sg13
((I4
I2
tp64
(I4
I5
tp65
(I2
I3
tp66
tp67
sg14
I8
sbs(iproblems
RoomID
p68
(dp69
g10
I8
sg11
(I2
I5
tp70
sg13
I2
sg14
I7
sg15
I10
sg16
I6446524242829424457
sb(imulti_robot_problem
MultiRobotState
p71
(dp72
g19
g20
((lp73
(I1
I5
tp74
a(I8
I3
tp75
a(I2
I6
tp76
a(I5
I0
tp77
a(I0
I6
tp78
ag70
atp79
Rp80
sg15
I10
sg28
g20
((lp81
(I8
I6
tp82
a(I9
I2
tp83
a(I7
I6
tp84
a(I8
I0
tp85
a(I2
I2
tp86
a(I9
I5
tp87
a(I8
I4
tp88
a(I4
I0
tp89
atp90
Rp91
sg13
((I7
I1
tp92
(I3
I3
tp93
tp94
sg14
I7
sbs(iproblems
RoomID
p95
(dp96
g10
I7
sg11
(I6
I2
tp97
sg13
I5
sg14
I9
sg15
I9
sg16
I6713787463551035793
sb(imulti_robot_problem
MultiRobotState
p98
(dp99
g19
g20
((lp100
(I7
I4
tp101
a(I6
I7
tp102
a(I5
I6
tp103
a(I0
I7
tp104
a(I6
I3
tp105
ag97
a(I2
I2
tp106
a(I6
I5
tp107
a(I5
I3
tp108
atp109
Rp110
sg15
I9
sg28
g20
((lp111
(I1
I2
tp112
a(I0
I6
tp113
a(I4
I7
tp114
a(I8
I8
tp115
a(I8
I7
tp116
a(I4
I3
tp117
a(I2
I4
tp118
atp119
Rp120
sg13
((I5
I5
tp121
(I7
I3
tp122
(I8
I4
tp123
(I8
I6
tp124
(I5
I7
tp125
tp126
sg14
I9
sbs(iproblems
RoomID
p127
(dp128
g10
I5
sg11
(I3
I1
tp129
sg13
I2
sg14
I7
sg15
I9
sg16
I7160033630608934649
sb(imulti_robot_problem
MultiRobotState
p130
(dp131
g19
g20
((lp132
(I8
I3
tp133
a(I8
I2
tp134
ag129
a(I6
I0
tp135
a(I1
I1
tp136
a(I5
I0
tp137
a(I2
I5
tp138
a(I0
I2
tp139
a(I4
I0
tp140
atp141
Rp142
sg15
I9
sg28
g20
((lp143
(I8
I6
tp144
a(I7
I5
tp145
a(I0
I5
tp146
a(I3
I6
tp147
a(I0
I4
tp148
atp149
Rp150
sg13
((I6
I1
tp151
(I2
I0
tp152
tp153
sg14
I7
sbssS'name'
p154
S'easy_roomset'
p155
sbsg154
S'LimitedTimeAStar_with_PowerHeuristic2'
p156
sS'solutions'
p157
(dp158
g8
((lp159
(F0.069999999999999993
I32
tp160
aF0.069999999999999993
tp161
sg40
((lp162
(F0.27000000000000002
I17
tp163
aF0.27000000000000002
tp164
sg68
((lp165
(F0.19
I21
tp166
aF0.19
tp167
sg95
((lp168
(F0.90000000000000002
I9
tp169
aF0.91000000000000003
tp170
sg127
((lp171
(F0.020000000000000018
I11
tp172
aF0.020000000000000018
tp173
ssba(imeasure_core
ProblemSetSolution
p174
(dp175
g3
(imeasure_core
RoomSet
p176
(dp177
g6
(dp178
(iproblems
RoomID
p179
(dp180
g10
I9
sg11
(I4
I4
tp181
sg13
I4
sg14
I10
sg15
I11
sg16
I5537388114198284799
sb(imulti_robot_problem
MultiRobotState
p182
(dp183
g19
g20
((lp184
(I7
I3
tp185
a(I6
I6
tp186
a(I7
I7
tp187
a(I7
I5
tp188
a(I8
I7
tp189
a(I5
I5
tp190
a(I6
I3
tp191
a(I6
I7
tp192
a(I6
I8
tp193
a(I10
I7
tp194
a(I7
I6
tp195
ag181
a(I7
I4
tp196
a(I2
I0
tp197
a(I8
I8
tp198
a(I3
I6
tp199
a(I8
I6
tp200
a(I8
I4
tp201
a(I7
I8
tp202
a(I10
I2
tp203
atp204
Rp205
sg15
I11
sg28
g20
((lp206
(I3
I2
tp207
a(I9
I1
tp208
a(I3
I4
tp209
a(I0
I7
tp210
a(I0
I5
tp211
a(I9
I4
tp212
a(I0
I9
tp213
a(I9
I6
tp214
a(I3
I5
tp215
atp216
Rp217
sg13
((I5
I3
tp218
(I5
I7
tp219
(I2
I4
tp220
(I2
I8
tp221
tp222
sg14
I10
sbs(iproblems
RoomID
p223
(dp224
g10
I8
sg11
(I9
I2
tp225
sg13
I3
sg14
I9
sg15
I12
sg16
I6446524242829424457
sb(imulti_robot_problem
MultiRobotState
p226
(dp227
g19
g20
((lp228
(I11
I8
tp229
a(I2
I6
tp230
a(I10
I4
tp231
a(I2
I8
tp232
a(I10
I6
tp233
a(I10
I5
tp234
a(I4
I6
tp235
a(I9
I4
tp236
a(I3
I7
tp237
a(I0
I8
tp238
a(I10
I3
tp239
a(I6
I5
tp240
a(I5
I5
tp241
a(I2
I7
tp242
a(I10
I8
tp243
a(I9
I3
tp244
a(I6
I7
tp245
a(I3
I3
tp246
a(I10
I7
tp247
a(I9
I6
tp248
a(I5
I7
tp249
a(I3
I8
tp250
ag225
a(I11
I1
tp251
a(I4
I3
tp252
a(I1
I7
tp253
a(I7
I8
tp254
atp255
Rp256
sg15
I12
sg28
g20
((lp257
(I11
I3
tp258
a(I1
I4
tp259
a(I6
I0
tp260
a(I6
I2
tp261
a(I2
I3
tp262
a(I10
I0
tp263
a(I9
I5
tp264
a(I9
I7
tp265
atp266
Rp267
sg13
((I9
I1
tp268
(I3
I4
tp269
(I5
I0
tp270
tp271
sg14
I9
sbs(iproblems
RoomID
p272
(dp273
g10
I10
sg11
(I4
I6
tp274
sg13
I4
sg14
I9
sg15
I9
sg16
I2548854849785010530
sb(imulti_robot_problem
MultiRobotState
p275
(dp276
g19
g20
((lp277
(I4
I7
tp278
a(I0
I0
tp279
a(I8
I2
tp280
a(I5
I6
tp281
a(I2
I8
tp282
a(I0
I4
tp283
a(I3
I2
tp284
a(I2
I1
tp285
a(I2
I3
tp286
a(I1
I4
tp287
a(I5
I4
tp288
a(I3
I7
tp289
ag274
a(I1
I2
tp290
a(I5
I5
tp291
a(I2
I0
tp292
a(I4
I4
tp293
a(I4
I5
tp294
a(I4
I3
tp295
a(I2
I2
tp296
a(I5
I7
tp297
a(I3
I4
tp298
a(I2
I4
tp299
atp300
Rp301
sg15
I9
sg28
g20
((lp302
(I8
I3
tp303
a(I7
I7
tp304
a(I0
I6
tp305
a(I7
I5
tp306
a(I0
I5
tp307
a(I6
I5
tp308
a(I4
I2
tp309
a(I2
I5
tp310
a(I4
I1
tp311
a(I7
I2
tp312
atp313
Rp314
sg13
((I1
I1
tp315
(I7
I8
tp316
(I1
I5
tp317
(I0
I2
tp318
tp319
sg14
I9
sbs(iproblems
RoomID
p320
(dp321
g10
I6
sg11
(I6
I7
tp322
sg13
I3
sg14
I12
sg15
I10
sg16
I4012307110687896631
sb(imulti_robot_problem
MultiRobotState
p323
(dp324
g19
g20
((lp325
(I6
I4
tp326
a(I5
I4
tp327
a(I1
I3
tp328
a(I6
I6
tp329
a(I4
I5
tp330
a(I8
I0
tp331
a(I1
I4
tp332
a(I4
I6
tp333
a(I0
I5
tp334
a(I6
I2
tp335
a(I1
I6
tp336
a(I2
I5
tp337
a(I5
I3
tp338
a(I1
I2
tp339
a(I9
I3
tp340
a(I3
I1
tp341
ag322
a(I5
I5
tp342
a(I0
I2
tp343
a(I6
I1
tp344
a(I6
I10
tp345
a(I4
I4
tp346
a(I2
I4
tp347
a(I6
I3
tp348
a(I1
I5
tp349
a(I3
I3
tp350
a(I4
I3
tp351
a(I2
I2
tp352
a(I5
I7
tp353
a(I3
I4
tp354
a(I1
I1
tp355
atp356
Rp357
sg15
I10
sg28
g20
((lp358
(I2
I0
tp359
a(I7
I0
tp360
a(I0
I7
tp361
a(I7
I6
tp362
a(I2
I1
tp363
a(I0
I10
tp364
atp365
Rp366
sg13
((I3
I11
tp367
(I0
I3
tp368
(I9
I11
tp369
tp370
sg14
I12
sbs(iproblems
RoomID
p371
(dp372
g10
I9
sg11
(I6
I6
tp373
sg13
I4
sg14
I10
sg15
I11
sg16
I5069507967843178763
sb(imulti_robot_problem
MultiRobotState
p374
(dp375
g19
g20
((lp376
(I3
I2
tp377
a(I8
I2
tp378
ag373
a(I9
I8
tp379
a(I9
I3
tp380
a(I7
I7
tp381
a(I8
I7
tp382
a(I10
I1
tp383
a(I5
I4
tp384
a(I2
I5
tp385
a(I8
I5
tp386
a(I5
I8
tp387
a(I5
I3
tp388
a(I7
I4
tp389
a(I6
I7
tp390
a(I7
I6
tp391
a(I5
I7
tp392
a(I6
I3
tp393
a(I5
I0
tp394
a(I2
I2
tp395
a(I4
I3
tp396
a(I7
I9
tp397
a(I10
I9
tp398
atp399
Rp400
sg15
I11
sg28
g20
((lp401
(I1
I2
tp402
a(I10
I4
tp403
a(I3
I0
tp404
a(I3
I4
tp405
a(I9
I2
tp406
a(I7
I5
tp407
a(I3
I7
tp408
a(I1
I0
tp409
a(I5
I2
tp410
atp411
Rp412
sg13
((I6
I2
tp413
(I7
I8
tp414
(I8
I0
tp415
(I2
I3
tp416
tp417
sg14
I10
sbssg154
S'mild_roomset'
p418
sbsg154
g156
sg157
(dp419
g179
((lp420
(F0.58999999999999986
I14
tp421
aF0.58999999999999986
tp422
sg223
((lp423
(F0.25
I17
tp424
aF0.25
tp425
sg272
((lp426
F300.63999999999999
tp427
sg371
((lp428
F301.20000000000005
tp429
sg320
((lp430
(F17.319999999999993
I38
tp431
aF17.350000000000023
tp432
ssba(imeasure_core
ProblemSetSolution
p433
(dp434
g3
(imeasure_core
RoomSet
p435
(dp436
g6
(dp437
(iproblems
RoomID
p438
(dp439
g10
I11
sg11
(I0
I4
tp440
sg13
I5
sg14
I10
sg15
I11
sg16
I8486355351578056966
sb(imulti_robot_problem
MultiRobotState
p441
(dp442
g19
g20
((lp443
(I6
I4
tp444
a(I5
I4
tp445
a(I1
I3
tp446
a(I8
I2
tp447
a(I9
I8
tp448
a(I9
I3
tp449
a(I7
I5
tp450
a(I8
I7
tp451
a(I6
I5
tp452
a(I7
I9
tp453
a(I3
I3
tp454
a(I7
I6
tp455
a(I4
I4
tp456
a(I9
I9
tp457
a(I1
I5
tp458
a(I6
I2
tp459
a(I4
I3
tp460
ag440
a(I5
I3
tp461
a(I2
I4
tp462
atp463
Rp464
sg15
I11
sg28
g20
((lp465
(I4
I7
tp466
a(I2
I6
tp467
a(I10
I4
tp468
a(I9
I2
tp469
a(I8
I3
tp470
a(I7
I7
tp471
a(I5
I6
tp472
a(I10
I1
tp473
a(I8
I6
tp474
a(I0
I8
tp475
a(I4
I1
tp476
atp477
Rp478
sg13
((I4
I0
tp479
(I0
I2
tp480
(I2
I5
tp481
(I10
I7
tp482
(I7
I1
tp483
tp484
sg14
I10
sbs(iproblems
RoomID
p485
(dp486
g10
I14
sg11
(I8
I4
tp487
sg13
I6
sg14
I11
sg15
I12
sg16
I5537388114198284799
sb(imulti_robot_problem
MultiRobotState
p488
(dp489
g19
g20
((lp490
(I9
I10
tp491
a(I10
I5
tp492
a(I6
I8
tp493
a(I7
I1
tp494
a(I9
I6
tp495
a(I10
I6
tp496
a(I6
I9
tp497
a(I3
I8
tp498
a(I6
I2
tp499
a(I8
I6
tp500
a(I9
I5
tp501
a(I9
I7
tp502
a(I8
I5
tp503
ag487
atp504
Rp505
sg15
I12
sg28
g20
((lp506
(I3
I5
tp507
a(I7
I3
tp508
a(I10
I1
tp509
a(I11
I8
tp510
a(I11
I2
tp511
a(I6
I0
tp512
a(I0
I7
tp513
a(I2
I0
tp514
a(I0
I10
tp515
a(I3
I6
tp516
a(I4
I2
tp517
a(I0
I8
tp518
a(I11
I6
tp519
a(I7
I9
tp520
atp521
Rp522
sg13
((I6
I3
tp523
(I6
I7
tp524
(I2
I5
tp525
(I2
I8
tp526
(I8
I7
tp527
(I0
I5
tp528
tp529
sg14
I11
sbs(iproblems
RoomID
p530
(dp531
g10
I12
sg11
(I8
I8
tp532
sg13
I7
sg14
I12
sg15
I12
sg16
I6713787463551035793
sb(imulti_robot_problem
MultiRobotState
p533
(dp534
g19
g20
((lp535
(I5
I9
tp536
a(I8
I2
tp537
a(I4
I10
tp538
a(I6
I6
tp539
a(I5
I6
tp540
a(I7
I7
tp541
a(I7
I5
tp542
a(I0
I5
tp543
a(I8
I7
tp544
a(I1
I0
tp545
a(I5
I8
tp546
a(I2
I7
tp547
a(I5
I10
tp548
a(I6
I8
tp549
a(I5
I11
tp550
ag532
a(I6
I3
tp551
a(I4
I5
tp552
a(I3
I9
tp553
a(I4
I11
tp554
a(I1
I7
tp555
a(I8
I6
tp556
a(I3
I4
tp557
a(I2
I4
tp558
atp559
Rp560
sg15
I12
sg28
g20
((lp561
(I1
I3
tp562
a(I10
I11
tp563
a(I3
I3
tp564
a(I9
I2
tp565
a(I11
I9
tp566
a(I8
I10
tp567
a(I7
I4
tp568
a(I2
I3
tp569
a(I0
I9
tp570
a(I0
I8
tp571
a(I11
I6
tp572
a(I7
I9
tp573
atp574
Rp575
sg13
((I10
I4
tp576
(I11
I5
tp577
(I11
I8
tp578
(I6
I9
tp579
(I3
I6
tp580
(I11
I11
tp581
(I6
I4
tp582
tp583
sg14
I12
sbs(iproblems
RoomID
p584
(dp585
g10
I14
sg11
(I7
I3
tp586
sg13
I6
sg14
I11
sg15
I10
sg16
I7286857133437440962
sb(imulti_robot_problem
MultiRobotState
p587
(dp588
g19
g20
((lp589
g586
a(I5
I4
tp590
a(I7
I6
tp591
a(I8
I7
tp592
a(I6
I6
tp593
a(I1
I6
tp594
a(I9
I4
tp595
a(I4
I2
tp596
a(I6
I4
tp597
a(I9
I6
tp598
a(I6
I5
tp599
a(I5
I3
tp600
a(I7
I4
tp601
a(I4
I9
tp602
a(I8
I1
tp603
a(I7
I8
tp604
a(I3
I10
tp605
a(I6
I3
tp606
a(I1
I8
tp607
a(I3
I4
tp608
a(I2
I4
tp609
a(I8
I4
tp610
atp611
Rp612
sg15
I10
sg28
g20
((lp613
(I0
I0
tp614
a(I4
I6
tp615
a(I2
I9
tp616
a(I4
I5
tp617
a(I3
I1
tp618
a(I2
I1
tp619
a(I2
I3
tp620
a(I0
I10
tp621
a(I0
I4
tp622
a(I5
I1
tp623
a(I7
I9
tp624
a(I5
I2
tp625
a(I7
I2
tp626
a(I9
I7
tp627
atp628
Rp629
sg13
((I0
I2
tp630
(I5
I8
tp631
(I9
I5
tp632
(I5
I10
tp633
(I4
I7
tp634
(I5
I9
tp635
tp636
sg14
I11
sbs(iproblems
RoomID
p637
(dp638
g10
I13
sg11
(I4
I7
tp639
sg13
I5
sg14
I10
sg15
I13
sg16
I6446524242829424457
sb(imulti_robot_problem
MultiRobotState
p640
(dp641
g19
g20
((lp642
g639
a(I2
I6
tp643
a(I3
I3
tp644
a(I2
I9
tp645
a(I2
I8
tp646
a(I4
I4
tp647
a(I3
I8
tp648
a(I1
I8
tp649
a(I7
I5
tp650
a(I0
I4
tp651
a(I0
I9
tp652
a(I3
I9
tp653
a(I12
I9
tp654
a(I6
I5
tp655
atp656
Rp657
sg15
I13
sg28
g20
((lp658
(I2
I7
tp659
a(I11
I7
tp660
a(I7
I0
tp661
a(I10
I8
tp662
a(I11
I8
tp663
a(I10
I6
tp664
a(I12
I1
tp665
a(I6
I3
tp666
a(I1
I5
tp667
a(I2
I3
tp668
a(I1
I7
tp669
a(I11
I5
tp670
a(I11
I6
tp671
atp672
Rp673
sg13
((I10
I1
tp674
(I4
I5
tp675
(I5
I0
tp676
(I10
I0
tp677
(I12
I4
tp678
tp679
sg14
I10
sbssg154
S'heavy_roomset'
p680
sbsg154
g156
sg157
(dp681
g438
((lp682
(F5.4699999999999136
I22
tp683
aF5.5299999999999727
tp684
sg485
((lp685
F301.84000000000003
tp686
sg530
((lp687
F312.45000000000005
tp688
sg584
((lp689
(F57.990000000000009
I29
tp690
aF58.3599999999999
tp691
sg637
((lp692
(F122.6099999999999
I13
tp693
aF123.40000000000009
tp694
ssba.