(lp0
(imeasure_core
ProblemSetSolution
p1
(dp2
S'roomset'
p3
(imeasure_core
RoomSet
p4
(dp5
S'rooms'
p6
(dp7
(iproblems
RoomID
p8
(dp9
S'dusts'
p10
I8
sS'obstacles'
p11
(I2
I4
tp12
sS'robots'
p13
I4
sS'height'
p14
I9
sS'width'
p15
I7
sS'seed'
p16
I7283207964119141687
sb(imulti_robot_problem
MultiRobotState
p17
(dp18
S'obstacle_locations'
p19
c__builtin__
frozenset
p20
((lp21
(I4
I6
tp22
a(I4
I3
tp23
a(I3
I0
tp24
a(I4
I2
tp25
a(I3
I4
tp26
ag12
a(I3
I3
tp27
atp28
Rp29
sg15
I7
sS'dirt_locations'
p30
g20
((lp31
(I4
I5
tp32
a(I5
I7
tp33
a(I0
I6
tp34
a(I1
I6
tp35
a(I5
I0
tp36
a(I5
I1
tp37
a(I5
I2
tp38
a(I1
I1
tp39
atp40
Rp41
sg13
((I1
I5
tp42
(I5
I5
tp43
(I3
I1
tp44
(I3
I5
tp45
tp46
sg14
I9
sbs(iproblems
RoomID
p47
(dp48
g10
I8
sg11
(I4
I6
tp49
sg13
I2
sg14
I10
sg15
I8
sg16
I890727360438182992
sb(imulti_robot_problem
MultiRobotState
p50
(dp51
g19
g20
((lp52
(I0
I0
tp53
ag49
a(I6
I6
tp54
a(I5
I6
tp55
a(I7
I6
tp56
a(I7
I4
tp57
a(I4
I2
tp58
a(I2
I4
tp59
atp60
Rp61
sg15
I8
sg30
g20
((lp62
(I7
I0
tp63
a(I7
I1
tp64
a(I6
I3
tp65
a(I1
I8
tp66
a(I0
I5
tp67
a(I5
I1
tp68
a(I1
I0
tp69
a(I0
I3
tp70
atp71
Rp72
sg13
((I2
I8
tp73
(I2
I5
tp74
tp75
sg14
I10
sbs(iproblems
RoomID
p76
(dp77
g10
I5
sg11
(I7
I3
tp78
sg13
I1
sg14
I7
sg15
I8
sg16
I1736392818365009963
sb(imulti_robot_problem
MultiRobotState
p79
(dp80
g19
g20
((lp81
g78
a(I2
I6
tp82
a(I7
I0
tp83
a(I7
I1
tp84
a(I2
I1
tp85
a(I6
I3
tp86
a(I0
I4
tp87
a(I7
I2
tp88
atp89
Rp90
sg15
I8
sg30
g20
((lp91
(I0
I1
tp92
a(I6
I2
tp93
a(I1
I6
tp94
a(I4
I4
tp95
a(I0
I0
tp96
atp97
Rp98
sg13
((I3
I1
tp99
tp100
sg14
I7
sbs(iproblems
RoomID
p101
(dp102
g10
I7
sg11
(I4
I1
tp103
sg13
I3
sg14
I10
sg15
I10
sg16
I1585446675937841368
sb(imulti_robot_problem
MultiRobotState
p104
(dp105
g19
g20
((lp106
(I3
I2
tp107
a(I2
I6
tp108
a(I6
I7
tp109
a(I6
I1
tp110
a(I7
I2
tp111
a(I5
I0
tp112
ag103
a(I2
I4
tp113
a(I5
I8
tp114
atp115
Rp116
sg15
I10
sg30
g20
((lp117
(I7
I3
tp118
a(I9
I4
tp119
a(I2
I9
tp120
a(I1
I7
tp121
a(I2
I2
tp122
a(I5
I2
tp123
a(I9
I7
tp124
atp125
Rp126
sg13
((I8
I9
tp127
(I4
I4
tp128
(I9
I8
tp129
tp130
sg14
I10
sbs(iproblems
RoomID
p131
(dp132
g10
I10
sg11
(I6
I5
tp133
sg13
I5
sg14
I8
sg15
I9
sg16
I3960482443532127989
sb(imulti_robot_problem
MultiRobotState
p134
(dp135
g19
g20
((lp136
(I4
I5
tp137
a(I5
I5
tp138
ag133
a(I6
I6
tp139
atp140
Rp141
sg15
I9
sg30
g20
((lp142
(I2
I7
tp143
a(I2
I6
tp144
a(I5
I0
tp145
a(I5
I7
tp146
a(I1
I4
tp147
a(I1
I5
tp148
a(I3
I6
tp149
a(I8
I0
tp150
a(I8
I5
tp151
a(I5
I3
tp152
atp153
Rp154
sg13
((I4
I3
tp155
(I8
I7
tp156
(I1
I6
tp157
(I7
I3
tp158
(I6
I4
tp159
tp160
sg14
I8
sbssS'name'
p161
S'easy_roomset'
p162
sbsg161
S"AnytimeBeam-w20-gf(2, 'lin')_with_PowerHeuristic2"
p163
sS'solutions'
p164
(dp165
g8
((lp166
(F1.7900000000008731
I28
tp167
aF40.019999999996799
tp168
sg47
((lp169
(F0.10000000000582077
I19
tp170
aF40.010000000002037
tp171
sg76
((lp172
(F0.08000000000174623
I30
tp173
a(F0.16000000000349246
I28
tp174
a(F0.48999999999796273
I27
tp175
a(F0.90000000000145519
I25
tp176
a(F1.2600000000020373
I23
tp177
a(F1.5600000000049477
I22
tp178
a(F2.7799999999988358
I21
tp179
a(F3.8700000000026193
I20
tp180
aF40.0
tp181
sg101
((lp182
(F0.47000000000116415
I14
tp183
aF40.029999999998836
tp184
sg131
((lp185
(F3.7700000000040745
I10
tp186
aF40.05000000000291
tp187
ssba(imeasure_core
ProblemSetSolution
p188
(dp189
g3
(imeasure_core
RoomSet
p190
(dp191
g6
(dp192
(iproblems
RoomID
p193
(dp194
g10
I8
sg11
(I2
I6
tp195
sg13
I4
sg14
I11
sg15
I9
sg16
I7283207964119141687
sb(imulti_robot_problem
MultiRobotState
p196
(dp197
g19
g20
((lp198
(I4
I7
tp199
a(I1
I3
tp200
a(I4
I3
tp201
a(I4
I5
tp202
a(I5
I4
tp203
a(I1
I4
tp204
a(I8
I9
tp205
a(I6
I2
tp206
a(I0
I10
tp207
a(I3
I7
tp208
a(I0
I3
tp209
a(I8
I5
tp210
a(I4
I0
tp211
a(I5
I3
tp212
a(I5
I5
tp213
a(I5
I2
tp214
a(I6
I1
tp215
a(I6
I10
tp216
ag195
a(I6
I3
tp217
a(I3
I6
tp218
a(I3
I5
tp219
a(I3
I4
tp220
a(I2
I4
tp221
atp222
Rp223
sg15
I9
sg30
g20
((lp224
(I7
I0
tp225
a(I6
I8
tp226
a(I7
I1
tp227
a(I5
I6
tp228
a(I1
I8
tp229
a(I0
I8
tp230
a(I4
I1
tp231
a(I5
I8
tp232
atp233
Rp234
sg13
((I1
I7
tp235
(I6
I6
tp236
(I4
I6
tp237
(I2
I1
tp238
tp239
sg14
I11
sbs(iproblems
RoomID
p240
(dp241
g10
I8
sg11
(I3
I5
tp242
sg13
I3
sg14
I12
sg15
I10
sg16
I890727360438182992
sb(imulti_robot_problem
MultiRobotState
p243
(dp244
g19
g20
((lp245
(I4
I7
tp246
a(I0
I0
tp247
a(I3
I0
tp248
a(I3
I2
tp249
a(I1
I4
tp250
a(I8
I9
tp251
a(I7
I5
tp252
a(I2
I3
tp253
a(I3
I4
tp254
a(I5
I8
tp255
ag242
a(I3
I1
tp256
a(I6
I7
tp257
a(I6
I8
tp258
a(I5
I2
tp259
a(I5
I7
tp260
a(I8
I8
tp261
a(I3
I9
tp262
a(I4
I11
tp263
a(I7
I10
tp264
a(I2
I2
tp265
a(I0
I9
tp266
a(I7
I8
tp267
atp268
Rp269
sg15
I10
sg30
g20
((lp270
(I9
I2
tp271
a(I6
I1
tp272
a(I8
I0
tp273
a(I2
I10
tp274
a(I0
I6
tp275
a(I0
I4
tp276
a(I9
I5
tp277
a(I1
I1
tp278
atp279
Rp280
sg13
((I2
I9
tp281
(I2
I6
tp282
(I8
I4
tp283
tp284
sg14
I12
sbs(iproblems
RoomID
p285
(dp286
g10
I9
sg11
(I1
I3
tp287
sg13
I4
sg14
I9
sg15
I10
sg16
I7713914763314685786
sb(imulti_robot_problem
MultiRobotState
p288
(dp289
g19
g20
((lp290
(I3
I2
tp291
ag287
a(I7
I1
tp292
a(I9
I3
tp293
a(I6
I0
tp294
a(I2
I1
tp295
a(I4
I2
tp296
a(I5
I1
tp297
a(I9
I6
tp298
a(I7
I2
tp299
a(I4
I0
tp300
a(I1
I2
tp301
a(I7
I0
tp302
a(I5
I2
tp303
a(I6
I1
tp304
a(I3
I1
tp305
a(I1
I5
tp306
a(I1
I8
tp307
a(I2
I2
tp308
a(I3
I5
tp309
a(I4
I1
tp310
a(I1
I1
tp311
atp312
Rp313
sg15
I10
sg30
g20
((lp314
(I7
I3
tp315
a(I5
I4
tp316
a(I7
I6
tp317
a(I7
I5
tp318
a(I0
I5
tp319
a(I8
I7
tp320
a(I8
I6
tp321
a(I8
I5
tp322
a(I9
I7
tp323
atp324
Rp325
sg13
((I3
I0
tp326
(I7
I7
tp327
(I2
I0
tp328
(I4
I6
tp329
tp330
sg14
I9
sbs(iproblems
RoomID
p331
(dp332
g10
I5
sg11
(I7
I6
tp333
sg13
I3
sg14
I9
sg15
I10
sg16
I1736392818365009963
sb(imulti_robot_problem
MultiRobotState
p334
(dp335
g19
g20
((lp336
(I7
I3
tp337
a(I9
I1
tp338
a(I4
I8
tp339
a(I9
I3
tp340
a(I7
I7
tp341
a(I6
I2
tp342
a(I0
I5
tp343
a(I0
I4
tp344
a(I8
I5
tp345
a(I7
I2
tp346
a(I1
I2
tp347
a(I3
I8
tp348
a(I9
I0
tp349
a(I9
I2
tp350
ag333
a(I7
I4
tp351
a(I7
I5
tp352
a(I6
I5
tp353
a(I4
I3
tp354
a(I2
I2
tp355
a(I0
I1
tp356
a(I5
I2
tp357
a(I8
I4
tp358
atp359
Rp360
sg15
I10
sg30
g20
((lp361
(I1
I8
tp362
a(I3
I1
tp363
a(I4
I1
tp364
a(I0
I2
tp365
a(I5
I5
tp366
atp367
Rp368
sg13
((I4
I2
tp369
(I1
I0
tp370
(I8
I2
tp371
tp372
sg14
I9
sbs(iproblems
RoomID
p373
(dp374
g10
I7
sg11
(I6
I3
tp375
sg13
I3
sg14
I12
sg15
I12
sg16
I1585446675937841368
sb(imulti_robot_problem
MultiRobotState
p376
(dp377
g19
g20
((lp378
(I5
I9
tp379
a(I4
I3
tp380
a(I5
I7
tp381
a(I8
I2
tp382
a(I4
I10
tp383
a(I7
I3
tp384
a(I2
I8
tp385
a(I9
I3
tp386
a(I3
I11
tp387
a(I7
I1
tp388
a(I7
I7
tp389
a(I6
I2
tp390
a(I5
I1
tp391
a(I1
I11
tp392
a(I8
I5
tp393
a(I7
I2
tp394
a(I2
I7
tp395
a(I6
I7
tp396
a(I6
I8
tp397
a(I2
I9
tp398
a(I5
I2
tp399
a(I7
I6
tp400
a(I6
I6
tp401
a(I2
I11
tp402
ag375
a(I4
I11
tp403
a(I7
I10
tp404
a(I3
I4
tp405
a(I8
I6
tp406
a(I7
I8
tp407
a(I8
I4
tp408
atp409
Rp410
sg15
I12
sg30
g20
((lp411
(I3
I2
tp412
a(I1
I9
tp413
a(I9
I4
tp414
a(I11
I5
tp415
a(I11
I8
tp416
a(I2
I5
tp417
a(I6
I10
tp418
atp419
Rp420
sg13
((I10
I10
tp421
(I5
I5
tp422
(I11
I10
tp423
tp424
sg14
I12
sbssg161
S'mild_roomset'
p425
sbsg161
g163
sg164
(dp426
g193
((lp427
(F0.31999999999970896
I7
tp428
aF40.019999999996799
tp429
sg240
((lp430
F40.05000000000291
tp431
sg285
((lp432
(F1.9499999999970896
I15
tp433
aF40.029999999998836
tp434
sg331
((lp435
(F4.2099999999991269
I66
tp436
aF40.0
tp437
sg373
((lp438
(F0.58000000000174623
I20
tp439
aF40.0
tp440
ssba(imeasure_core
ProblemSetSolution
p441
(dp442
g3
(imeasure_core
RoomSet
p443
(dp444
g6
(dp445
(iproblems
RoomID
p446
(dp447
g10
I13
sg11
(I8
I4
tp448
sg13
I7
sg14
I12
sg15
I10
sg16
I7283207964119141687
sb(imulti_robot_problem
MultiRobotState
p449
(dp450
g19
g20
((lp451
(I6
I3
tp452
a(I5
I2
tp453
a(I6
I10
tp454
a(I6
I0
tp455
a(I7
I4
tp456
a(I0
I11
tp457
a(I6
I2
tp458
a(I3
I6
tp459
a(I2
I2
tp460
a(I0
I4
tp461
a(I3
I4
tp462
a(I5
I8
tp463
ag448
atp464
Rp465
sg15
I10
sg30
g20
((lp466
(I7
I3
tp467
a(I6
I7
tp468
a(I6
I8
tp469
a(I7
I1
tp470
a(I8
I1
tp471
a(I4
I4
tp472
a(I6
I6
tp473
a(I5
I6
tp474
a(I1
I9
tp475
a(I5
I0
tp476
a(I9
I10
tp477
a(I9
I6
tp478
a(I7
I9
tp479
atp480
Rp481
sg13
((I1
I7
tp482
(I7
I6
tp483
(I4
I6
tp484
(I2
I1
tp485
(I6
I4
tp486
(I0
I9
tp487
(I8
I0
tp488
tp489
sg14
I12
sbs(iproblems
RoomID
p490
(dp491
g10
I13
sg11
(I8
I3
tp492
sg13
I5
sg14
I13
sg15
I11
sg16
I890727360438182992
sb(imulti_robot_problem
MultiRobotState
p493
(dp494
g19
g20
((lp495
(I4
I10
tp496
a(I6
I9
tp497
a(I8
I2
tp498
a(I5
I9
tp499
a(I9
I8
tp500
ag492
a(I4
I12
tp501
a(I0
I10
tp502
a(I8
I7
tp503
a(I9
I1
tp504
a(I9
I0
tp505
a(I6
I8
tp506
a(I6
I10
tp507
a(I8
I8
tp508
a(I8
I6
tp509
a(I7
I8
tp510
a(I0
I2
tp511
atp512
Rp513
sg15
I11
sg30
g20
((lp514
(I10
I5
tp515
a(I0
I0
tp516
a(I4
I6
tp517
a(I0
I6
tp518
a(I9
I2
tp519
a(I8
I11
tp520
a(I2
I1
tp521
a(I9
I10
tp522
a(I1
I5
tp523
a(I0
I4
tp524
a(I0
I9
tp525
a(I5
I2
tp526
a(I4
I11
tp527
atp528
Rp529
sg13
((I3
I10
tp530
(I2
I7
tp531
(I9
I4
tp532
(I2
I11
tp533
(I7
I1
tp534
tp535
sg14
I13
sbs(iproblems
RoomID
p536
(dp537
g10
I15
sg11
(I6
I9
tp538
sg13
I7
sg14
I11
sg15
I12
sg16
I3960482443532127989
sb(imulti_robot_problem
MultiRobotState
p539
(dp540
g19
g20
((lp541
(I5
I9
tp542
ag538
a(I9
I1
tp543
a(I4
I10
tp544
a(I5
I6
tp545
a(I7
I7
tp546
a(I2
I10
tp547
a(I3
I9
tp548
a(I9
I4
tp549
a(I5
I10
tp550
a(I6
I4
tp551
a(I6
I5
tp552
a(I1
I2
tp553
a(I7
I4
tp554
a(I8
I3
tp555
a(I6
I7
tp556
a(I2
I9
tp557
a(I10
I7
tp558
a(I5
I7
tp559
a(I6
I3
tp560
a(I8
I1
tp561
a(I0
I9
tp562
a(I8
I6
tp563
a(I7
I8
tp564
a(I11
I6
tp565
a(I9
I7
tp566
atp567
Rp568
sg15
I12
sg30
g20
((lp569
(I7
I3
tp570
a(I2
I6
tp571
a(I5
I5
tp572
a(I3
I0
tp573
a(I3
I8
tp574
a(I0
I6
tp575
a(I11
I1
tp576
a(I1
I6
tp577
a(I4
I3
tp578
a(I1
I7
tp579
a(I1
I3
tp580
a(I1
I0
tp581
a(I10
I1
tp582
a(I1
I1
tp583
a(I10
I2
tp584
atp585
Rp586
sg13
((I11
I10
tp587
(I1
I8
tp588
(I10
I5
tp589
(I11
I0
tp590
(I4
I8
tp591
(I7
I9
tp592
(I7
I1
tp593
tp594
sg14
I11
sbs(iproblems
RoomID
p595
(dp596
g10
I10
sg11
(I10
I4
tp597
sg13
I5
sg14
I10
sg15
I11
sg16
I1736392818365009963
sb(imulti_robot_problem
MultiRobotState
p598
(dp599
g19
g20
((lp600
(I0
I1
tp601
a(I1
I2
tp602
a(I3
I2
tp603
ag597
a(I4
I5
tp604
a(I7
I4
tp605
a(I6
I2
tp606
a(I2
I3
tp607
a(I10
I1
tp608
a(I3
I8
tp609
a(I10
I0
tp610
a(I10
I3
tp611
a(I10
I2
tp612
atp613
Rp614
sg15
I11
sg30
g20
((lp615
(I5
I9
tp616
a(I5
I5
tp617
a(I3
I1
tp618
a(I8
I8
tp619
a(I0
I5
tp620
a(I3
I9
tp621
a(I8
I4
tp622
a(I4
I1
tp623
a(I6
I5
tp624
a(I5
I3
tp625
atp626
Rp627
sg13
((I4
I2
tp628
(I1
I0
tp629
(I9
I3
tp630
(I1
I9
tp631
(I0
I2
tp632
tp633
sg14
I10
sbs(iproblems
RoomID
p634
(dp635
g10
I12
sg11
(I6
I9
tp636
sg13
I6
sg14
I13
sg15
I13
sg16
I1585446675937841368
sb(imulti_robot_problem
MultiRobotState
p637
(dp638
g19
g20
((lp639
(I7
I3
tp640
ag636
a(I8
I11
tp641
a(I7
I7
tp642
a(I4
I12
tp643
a(I10
I3
tp644
a(I5
I8
tp645
a(I7
I4
tp646
a(I1
I12
tp647
a(I2
I9
tp648
a(I8
I1
tp649
a(I7
I6
tp650
a(I6
I3
tp651
a(I9
I2
tp652
a(I7
I5
tp653
a(I7
I2
tp654
a(I7
I10
tp655
a(I8
I4
tp656
a(I3
I4
tp657
a(I2
I4
tp658
a(I9
I12
tp659
a(I9
I7
tp660
atp661
Rp662
sg15
I13
sg30
g20
((lp663
(I3
I3
tp664
a(I2
I8
tp665
a(I12
I9
tp666
a(I6
I10
tp667
a(I8
I10
tp668
a(I2
I10
tp669
a(I12
I5
tp670
a(I4
I3
tp671
a(I5
I1
tp672
a(I7
I9
tp673
a(I5
I2
tp674
a(I3
I5
tp675
atp676
Rp677
sg13
((I10
I11
tp678
(I5
I5
tp679
(I12
I11
tp680
(I1
I10
tp681
(I3
I12
tp682
(I10
I4
tp683
tp684
sg14
I13
sbssg161
S'heavy_roomset'
p685
sbsg161
g163
sg164
(dp686
g446
((lp687
F40.540000000000873
tp688
sg490
((lp689
F40.120000000002619
tp690
sg536
((lp691
F40.189999999995052
tp692
sg595
((lp693
(F3.0200000000040745
I9
tp694
aF40.340000000003783
tp695
sg634
((lp696
F41.0
tp697
ssba(imeasure_core
ProblemSetSolution
p698
(dp699
g3
g4
sg161
S"AnytimeBeam-w20-gf(4, 'lin')_with_PowerHeuristic2"
p700
sg164
(dp701
g8
((lp702
(F1.7599999999947613
I28
tp703
aF40.189999999995052
tp704
sg47
((lp705
(F0.099999999998544808
I19
tp706
aF40.0
tp707
sg76
((lp708
(F0.069999999999708962
I30
tp709
a(F0.16000000000349246
I28
tp710
a(F0.48000000000320142
I27
tp711
a(F0.90000000000145519
I25
tp712
a(F1.25
I23
tp713
a(F1.5500000000029104
I22
tp714
a(F2.7799999999988358
I21
tp715
a(F3.8600000000005821
I20
tp716
aF40.0
tp717
sg101
((lp718
(F0.47000000000116415
I14
tp719
aF40.0
tp720
sg131
((lp721
(F4.9599999999991269
I10
tp722
aF40.160000000003492
tp723
ssba(imeasure_core
ProblemSetSolution
p724
(dp725
g3
g190
sg161
g700
sg164
(dp726
g193
((lp727
(F0.31999999999970896
I7
tp728
aF40.129999999997381
tp729
sg240
((lp730
F40.209999999999127
tp731
sg285
((lp732
(F2.1399999999994179
I15
tp733
aF40.180000000000291
tp734
sg331
((lp735
(F5.430000000000291
I66
tp736
aF40.020000000004075
tp737
sg373
((lp738
(F0.58999999999650754
I20
tp739
aF40.059999999997672
tp740
ssba(imeasure_core
ProblemSetSolution
p741
(dp742
g3
g443
sg161
g700
sg164
(dp743
g446
((lp744
F42.299999999995634
tp745
sg490
((lp746
F40.139999999999418
tp747
sg536
((lp748
F40.069999999999709
tp749
sg595
((lp750
(F3.6700000000055297
I9
tp751
aF40.230000000003201
tp752
sg634
((lp753
F40.260000000002037
tp754
ssba(imeasure_core
ProblemSetSolution
p755
(dp756
g3
g4
sg161
S"AnytimeBeam-w20-gf(8, 'lin')_with_PowerHeuristic2"
p757
sg164
(dp758
g8
((lp759
(F1.7600000000020373
I28
tp760
aF40.0
tp761
sg47
((lp762
(F0.10000000000582077
I19
tp763
aF40.0
tp764
sg76
((lp765
(F0.08000000000174623
I30
tp766
a(F0.16000000000349246
I28
tp767
a(F0.49000000000523869
I27
tp768
a(F0.88999999999941792
I25
tp769
a(F1.25
I23
tp770
a(F1.5500000000029104
I22
tp771
a(F2.7700000000040745
I21
tp772
a(F3.8700000000026193
I20
tp773
aF40.0
tp774
sg101
((lp775
(F0.46000000000640284
I14
tp776
aF40.05000000000291
tp777
sg131
((lp778
(F6.3600000000005821
I10
tp779
aF40.150000000001455
tp780
ssba(imeasure_core
ProblemSetSolution
p781
(dp782
g3
g190
sg161
g757
sg164
(dp783
g193
((lp784
(F0.30999999999767169
I7
tp785
aF40.279999999998836
tp786
sg240
((lp787
F40.040000000000873
tp788
sg285
((lp789
(F2.25
I15
tp790
aF40.029999999998836
tp791
sg331
((lp792
(F6.0999999999985448
I66
tp793
aF40.040000000000873
tp794
sg373
((lp795
(F0.59999999999854481
I20
tp796
aF40.059999999997672
tp797
ssba(imeasure_core
ProblemSetSolution
p798
(dp799
g3
g443
sg161
g757
sg164
(dp800
g446
((lp801
F41.559999999997672
tp802
sg490
((lp803
F40.349999999998545
tp804
sg536
((lp805
F42.370000000002619
tp806
sg595
((lp807
(F4.3799999999973807
I9
tp808
aF40.989999999997963
tp809
sg634
((lp810
F40.610000000000582
tp811
ssba(imeasure_core
ProblemSetSolution
p812
(dp813
g3
g4
sg161
S"AnytimeBeam-w20-gf(16, 'lin')_with_PowerHeuristic2"
p814
sg164
(dp815
g8
((lp816
(F1.7599999999947613
I28
tp817
aF40.009999999994761
tp818
sg47
((lp819
(F0.10000000000582077
I19
tp820
aF40.0
tp821
sg76
((lp822
(F0.069999999999708962
I30
tp823
a(F0.16000000000349246
I28
tp824
a(F0.48000000000320142
I27
tp825
a(F0.91000000000349246
I25
tp826
a(F1.2600000000020373
I23
tp827
a(F1.569999999999709
I22
tp828
a(F2.8000000000029104
I21
tp829
a(F3.8900000000066939
I20
tp830
aF40.0
tp831
sg101
((lp832
(F0.47000000000116415
I14
tp833
aF40.020000000004075
tp834
sg131
((lp835
(F7.5199999999967986
I10
tp836
aF41.040000000000873
tp837
ssba(imeasure_core
ProblemSetSolution
p838
(dp839
g3
g190
sg161
g814
sg164
(dp840
g193
((lp841
(F0.31000000000494765
I7
tp842
aF40.140000000006694
tp843
sg240
((lp844
F40.109999999993306
tp845
sg285
((lp846
(F2.3700000000026193
I15
tp847
aF40.100000000005821
tp848
sg331
((lp849
(F6.3299999999944703
I66
tp850
aF40.089999999996508
tp851
sg373
((lp852
(F0.5900000000037835
I20
tp853
aF40.0
tp854
ssba(imeasure_core
ProblemSetSolution
p855
(dp856
g3
g443
sg161
g814
sg164
(dp857
g446
((lp858
F42.970000000001164
tp859
sg490
((lp860
F40.360000000000582
tp861
sg536
((lp862
F40.349999999998545
tp863
sg595
((lp864
(F4.9099999999962165
I9
tp865
aF40.940000000002328
tp866
sg634
((lp867
F41.459999999999127
tp868
ssba(imeasure_core
ProblemSetSolution
p869
(dp870
g3
g4
sg161
S"AnytimeBeam-w20-gf(2, 'lin')_with_LinearHeuristic"
p871
sg164
(dp872
g8
((lp873
(F0.38000000000465661
I5
tp874
aF40.010000000002037
tp875
sg47
((lp876
(F0.25
I22
tp877
aF40.0
tp878
sg76
((lp879
(F0.020000000004074536
I20
tp880
aF40.0
tp881
sg101
((lp882
F40.099999999998545
tp883
sg131
((lp884
(F4.5999999999985448
I10
tp885
aF40.30000000000291
tp886
ssba(imeasure_core
ProblemSetSolution
p887
(dp888
g3
g190
sg161
g871
sg164
(dp889
g193
((lp890
(F19.110000000000582
I177
tp891
aF40.790000000000873
tp892
sg240
((lp893
F40.009999999994761
tp894
sg285
((lp895
F40.020000000004075
tp896
sg331
((lp897
(F0.83000000000174623
I23
tp898
a(F15.400000000001455
I21
tp899
a(F22.599999999998545
I20
tp900
a(F33.760000000002037
I19
tp901
aF40.010000000002037
tp902
sg373
((lp903
F40.040000000000873
tp904
ssba(imeasure_core
ProblemSetSolution
p905
(dp906
g3
g443
sg161
g871
sg164
(dp907
g446
((lp908
F46.279999999998836
tp909
sg490
((lp910
F40.139999999999418
tp911
sg536
((lp912
F41.810000000004948
tp913
sg595
((lp914
(F32.900000000001455
I95
tp915
aF40.089999999996508
tp916
sg634
((lp917
F40.069999999999709
tp918
ssba(imeasure_core
ProblemSetSolution
p919
(dp920
g3
g4
sg161
S"AnytimeBeam-w20-gf(4, 'lin')_with_LinearHeuristic"
p921
sg164
(dp922
g8
((lp923
(F0.38000000000465661
I5
tp924
aF40.150000000001455
tp925
sg47
((lp926
(F0.25
I22
tp927
aF40.0
tp928
sg76
((lp929
(F0.010000000002037268
I20
tp930
aF40.0
tp931
sg101
((lp932
F40.029999999998836
tp933
sg131
((lp934
(F5.319999999999709
I10
tp935
aF40.330000000001746
tp936
ssba(imeasure_core
ProblemSetSolution
p937
(dp938
g3
g190
sg161
g921
sg164
(dp939
g193
((lp940
(F21.879999999997381
I177
tp941
aF40.0
tp942
sg240
((lp943
F40.059999999997672
tp944
sg285
((lp945
F40.340000000003783
tp946
sg331
((lp947
(F0.87999999999738066
I23
tp948
a(F17.400000000001455
I21
tp949
a(F25.389999999999418
I20
tp950
a(F37.799999999995634
I19
tp951
aF40.0
tp952
sg373
((lp953
F40.029999999998836
tp954
ssba(imeasure_core
ProblemSetSolution
p955
(dp956
g3
g443
sg161
g921
sg164
(dp957
g446
((lp958
F50.900000000001455
tp959
sg490
((lp960
F40.019999999996799
tp961
sg536
((lp962
F41.779999999998836
tp963
sg595
((lp964
(F38.889999999999418
I95
tp965
aF40.690000000002328
tp966
sg634
((lp967
F40.020000000004075
tp968
ssba(imeasure_core
ProblemSetSolution
p969
(dp970
g3
g4
sg161
S"AnytimeBeam-w20-gf(8, 'lin')_with_LinearHeuristic"
p971
sg164
(dp972
g8
((lp973
(F0.38000000000465661
I5
tp974
aF40.090000000003783
tp975
sg47
((lp976
(F0.25
I22
tp977
aF40.009999999994761
tp978
sg76
((lp979
(F0.010000000002037268
I20
tp980
aF40.0
tp981
sg101
((lp982
F40.069999999999709
tp983
sg131
((lp984
(F6.2100000000064028
I10
tp985
aF40.150000000001455
tp986
ssba(imeasure_core
ProblemSetSolution
p987
(dp988
g3
g190
sg161
g971
sg164
(dp989
g193
((lp990
(F24.209999999999127
I177
tp991
aF40.029999999998836
tp992
sg240
((lp993
F40.0
tp994
sg285
((lp995
F40.209999999999127
tp996
sg331
((lp997
(F0.97000000000116415
I23
tp998
a(F18.860000000000582
I21
tp999
a(F27.480000000003201
I20
tp1000
aF40.05000000000291
tp1001
sg373
((lp1002
F40.379999999997381
tp1003
ssba(imeasure_core
ProblemSetSolution
p1004
(dp1005
g3
g443
sg161
g971
sg164
(dp1006
g446
((lp1007
F44.440000000002328
tp1008
sg490
((lp1009
F40.25
tp1010
sg536
((lp1011
F41.879999999997381
tp1012
sg595
((lp1013
F40.150000000001455
tp1014
sg634
((lp1015
F40.349999999998545
tp1016
ssba(imeasure_core
ProblemSetSolution
p1017
(dp1018
g3
g4
sg161
S"AnytimeBeam-w20-gf(16, 'lin')_with_LinearHeuristic"
p1019
sg164
(dp1020
g8
((lp1021
(F0.36999999999534339
I5
tp1022
aF40.089999999996508
tp1023
sg47
((lp1024
(F0.26000000000203727
I22
tp1025
aF40.0
tp1026
sg76
((lp1027
(F0.010000000002037268
I20
tp1028
aF40.0
tp1029
sg101
((lp1030
F40.069999999999709
tp1031
sg131
((lp1032
(F6.5200000000040745
I10
tp1033
aF40.029999999998836
tp1034
ssba(imeasure_core
ProblemSetSolution
p1035
(dp1036
g3
g190
sg161
g1019
sg164
(dp1037
g193
((lp1038
(F25.990000000005239
I177
tp1039
aF40.17000000000553
tp1040
sg240
((lp1041
F40.040000000000873
tp1042
sg285
((lp1043
F40.269999999996799
tp1044
sg331
((lp1045
(F1.0100000000020373
I23
tp1046
a(F19.440000000002328
I21
tp1047
a(F28.190000000002328
I20
tp1048
aF40.019999999996799
tp1049
sg373
((lp1050
F40.100000000005821
tp1051
ssba(imeasure_core
ProblemSetSolution
p1052
(dp1053
g3
g443
sg161
g1019
sg164
(dp1054
g446
((lp1055
F47.380000000004657
tp1056
sg490
((lp1057
F40.229999999995925
tp1058
sg536
((lp1059
F44.790000000000873
tp1060
sg595
((lp1061
F40.230000000003201
tp1062
sg634
((lp1063
F40.549999999995634
tp1064
ssba.