(lp0
(imeasure_core
ProblemSetSolution
p1
(dp2
S'roomset'
p3
(imeasure_core
RoomSet
p4
(dp5
S'rooms'
p6
(dp7
(iproblems
RoomID
p8
(dp9
S'dusts'
p10
I6
sS'obstacles'
p11
(I5
I1
tp12
sS'robots'
p13
I4
sS'height'
p14
I9
sS'width'
p15
I10
sS'seed'
p16
I2405875930906139466
sb(imulti_robot_problem
MultiRobotState
p17
(dp18
S'obstacle_locations'
p19
c__builtin__
frozenset
p20
((lp21
(I7
I0
tp22
a(I7
I1
tp23
ag12
a(I6
I1
tp24
a(I6
I0
tp25
a(I7
I2
tp26
atp27
Rp28
sg15
I10
sS'dirt_locations'
p29
g20
((lp30
(I7
I3
tp31
a(I2
I1
tp32
a(I6
I4
tp33
a(I5
I6
tp34
a(I5
I2
tp35
a(I0
I7
tp36
atp37
Rp38
sg13
((I7
I6
tp39
(I3
I3
tp40
(I8
I6
tp41
(I0
I2
tp42
tp43
sg14
I9
sbs(iproblems
RoomID
p44
(dp45
g10
I6
sg11
(I6
I7
tp46
sg13
I4
sg14
I10
sg15
I7
sg16
I8744744311366254845
sb(imulti_robot_problem
MultiRobotState
p47
(dp48
g19
g20
((lp49
(I0
I6
tp50
ag46
a(I4
I6
tp51
a(I3
I7
tp52
a(I5
I7
tp53
a(I1
I9
tp54
atp55
Rp56
sg15
I7
sg29
g20
((lp57
(I2
I7
tp58
a(I0
I1
tp59
a(I5
I4
tp60
a(I6
I0
tp61
a(I5
I8
tp62
a(I5
I3
tp63
atp64
Rp65
sg13
((I0
I8
tp66
(I4
I2
tp67
(I3
I0
tp68
(I1
I4
tp69
tp70
sg14
I10
sbs(iproblems
RoomID
p71
(dp72
g10
I6
sg11
(I4
I6
tp73
sg13
I1
sg14
I8
sg15
I7
sg16
I3537054308274871603
sb(imulti_robot_problem
MultiRobotState
p74
(dp75
g19
g20
((lp76
(I4
I7
tp77
ag73
a(I4
I5
tp78
a(I2
I5
tp79
a(I3
I5
tp80
a(I6
I0
tp81
a(I2
I4
tp82
atp83
Rp84
sg15
I7
sg29
g20
((lp85
(I0
I6
tp86
a(I6
I2
tp87
a(I5
I6
tp88
a(I4
I1
tp89
a(I1
I1
tp90
a(I5
I3
tp91
atp92
Rp93
sg13
((I0
I3
tp94
tp95
sg14
I8
sbs(iproblems
RoomID
p96
(dp97
g10
I8
sg11
(I5
I3
tp98
sg13
I3
sg14
I7
sg15
I7
sg16
I7325839828077136048
sb(imulti_robot_problem
MultiRobotState
p99
(dp100
g19
g20
((lp101
(I6
I4
tp102
a(I5
I4
tp103
a(I5
I5
tp104
a(I6
I6
tp105
a(I3
I1
tp106
a(I6
I0
tp107
a(I2
I0
tp108
a(I0
I4
tp109
ag98
atp110
Rp111
sg15
I7
sg29
g20
((lp112
(I0
I6
tp113
a(I3
I0
tp114
a(I2
I4
tp115
a(I1
I5
tp116
a(I4
I3
tp117
a(I2
I2
tp118
a(I1
I1
tp119
a(I3
I5
tp120
atp121
Rp122
sg13
((I1
I0
tp123
(I3
I3
tp124
(I6
I2
tp125
tp126
sg14
I7
sbs(iproblems
RoomID
p127
(dp128
g10
I10
sg11
(I4
I7
tp129
sg13
I5
sg14
I10
sg15
I8
sg16
I8655808914197340073
sb(imulti_robot_problem
MultiRobotState
p130
(dp131
g19
g20
((lp132
(I2
I7
tp133
ag129
a(I4
I8
tp134
a(I6
I3
tp135
a(I7
I5
tp136
a(I3
I7
tp137
a(I1
I0
tp138
a(I5
I3
tp139
atp140
Rp141
sg15
I8
sg29
g20
((lp142
(I7
I3
tp143
a(I5
I4
tp144
a(I7
I0
tp145
a(I5
I7
tp146
a(I1
I5
tp147
a(I1
I9
tp148
a(I3
I6
tp149
a(I1
I7
tp150
a(I3
I4
tp151
a(I5
I8
tp152
atp153
Rp154
sg13
((I3
I8
tp155
(I7
I9
tp156
(I6
I1
tp157
(I2
I3
tp158
(I5
I5
tp159
tp160
sg14
I10
sbssS'name'
p161
S'easy_roomset'
p162
sbsg161
S'AnytimeBest-d10_with_PowerHeuristic2'
p163
sS'solutions'
p164
(dp165
g8
((lp166
(F0.42999999999665306
I10
tp167
aF40.049999999999272
tp168
sg44
((lp169
F40.279999999998836
tp170
sg127
((lp171
(F1.6899999999986903
I9
tp172
aF40.069999999999709
tp173
sg96
((lp174
F40.020000000000437
tp175
sg71
((lp176
F0.2000000000007276
tp177
ssba(imeasure_core
ProblemSetSolution
p178
(dp179
g3
(imeasure_core
RoomSet
p180
(dp181
g6
(dp182
(iproblems
RoomID
p183
(dp184
g10
I6
sg11
(I1
I8
tp185
sg13
I4
sg14
I11
sg15
I12
sg16
I2405875930906139466
sb(imulti_robot_problem
MultiRobotState
p186
(dp187
g19
g20
((lp188
(I6
I4
tp189
a(I4
I6
tp190
a(I8
I2
tp191
a(I6
I6
tp192
a(I2
I8
tp193
a(I8
I0
tp194
a(I5
I5
tp195
a(I9
I10
tp196
a(I6
I2
tp197
a(I2
I3
tp198
a(I3
I7
tp199
a(I6
I5
tp200
a(I5
I3
tp201
a(I7
I0
tp202
a(I3
I3
tp203
a(I2
I9
tp204
a(I11
I5
tp205
a(I8
I1
tp206
a(I6
I1
tp207
a(I3
I1
tp208
a(I6
I3
tp209
a(I2
I0
tp210
ag185
a(I7
I5
tp211
a(I3
I6
tp212
a(I4
I3
tp213
a(I3
I4
tp214
atp215
Rp216
sg15
I12
sg29
g20
((lp217
(I9
I4
tp218
a(I7
I1
tp219
a(I0
I9
tp220
a(I9
I3
tp221
a(I7
I7
tp222
a(I2
I1
tp223
atp224
Rp225
sg13
((I9
I7
tp226
(I4
I4
tp227
(I10
I8
tp228
(I0
I2
tp229
tp230
sg14
I11
sbs(iproblems
RoomID
p231
(dp232
g10
I10
sg11
(I0
I5
tp233
sg13
I4
sg14
I12
sg15
I10
sg16
I8655808914197340073
sb(imulti_robot_problem
MultiRobotState
p234
(dp235
g19
g20
((lp236
(I5
I9
tp237
a(I5
I4
tp238
a(I5
I7
tp239
a(I6
I6
tp240
a(I4
I8
tp241
a(I8
I0
tp242
a(I0
I7
tp243
a(I7
I5
tp244
a(I2
I3
tp245
a(I1
I4
tp246
a(I6
I8
tp247
a(I1
I11
tp248
a(I9
I6
tp249
a(I5
I8
tp250
a(I4
I6
tp251
a(I3
I8
tp252
a(I6
I7
tp253
a(I5
I5
tp254
a(I3
I4
tp255
a(I4
I4
tp256
a(I6
I3
tp257
a(I2
I0
tp258
a(I6
I5
tp259
ag233
a(I7
I8
tp260
atp261
Rp262
sg15
I10
sg29
g20
((lp263
(I6
I9
tp264
a(I2
I9
tp265
a(I2
I11
tp266
a(I9
I0
tp267
a(I7
I7
tp268
a(I8
I3
tp269
a(I1
I7
tp270
a(I8
I6
tp271
a(I8
I4
tp272
a(I3
I5
tp273
atp274
Rp275
sg13
((I4
I9
tp276
(I8
I11
tp277
(I7
I1
tp278
(I3
I3
tp279
tp280
sg14
I12
sbs(iproblems
RoomID
p281
(dp282
g10
I6
sg11
(I3
I3
tp283
sg13
I4
sg14
I12
sg15
I12
sg16
I7193062864237573168
sb(imulti_robot_problem
MultiRobotState
p284
(dp285
g19
g20
((lp286
(I6
I4
tp287
a(I5
I4
tp288
a(I1
I3
tp289
a(I6
I6
tp290
a(I7
I1
tp291
a(I9
I3
tp292
a(I0
I7
tp293
a(I1
I6
tp294
a(I2
I5
tp295
a(I0
I8
tp296
a(I10
I3
tp297
a(I8
I3
tp298
a(I3
I1
tp299
ag283
a(I5
I7
tp300
a(I11
I3
tp301
a(I7
I4
tp302
a(I0
I9
tp303
a(I2
I3
tp304
a(I8
I4
tp305
a(I3
I4
tp306
a(I2
I4
tp307
a(I9
I7
tp308
atp309
Rp310
sg15
I12
sg29
g20
((lp311
(I2
I0
tp312
a(I2
I6
tp313
a(I6
I8
tp314
a(I0
I6
tp315
a(I4
I4
tp316
a(I7
I7
tp317
atp318
Rp319
sg13
((I11
I9
tp320
(I11
I2
tp321
(I4
I11
tp322
(I3
I6
tp323
tp324
sg14
I12
sbs(iproblems
RoomID
p325
(dp326
g10
I10
sg11
(I11
I0
tp327
sg13
I4
sg14
I9
sg15
I12
sg16
I2796939073032698495
sb(imulti_robot_problem
MultiRobotState
p328
(dp329
g19
g20
((lp330
(I7
I3
tp331
a(I5
I7
tp332
a(I9
I1
tp333
a(I6
I6
tp334
a(I8
I0
tp335
a(I7
I7
tp336
a(I5
I8
tp337
a(I3
I3
tp338
a(I8
I1
tp339
a(I4
I8
tp340
a(I6
I3
tp341
a(I7
I2
tp342
a(I3
I6
tp343
a(I6
I4
tp344
a(I5
I4
tp345
a(I2
I6
tp346
a(I7
I1
tp347
a(I4
I5
tp348
ag327
a(I2
I3
tp349
a(I10
I1
tp350
a(I1
I0
tp351
a(I6
I5
tp352
a(I5
I3
tp353
a(I8
I3
tp354
a(I7
I0
tp355
a(I6
I8
tp356
a(I9
I2
tp357
a(I6
I1
tp358
a(I3
I1
tp359
a(I8
I8
tp360
a(I4
I3
tp361
a(I5
I2
tp362
a(I10
I2
tp363
atp364
Rp365
sg15
I12
sg29
g20
((lp366
(I1
I2
tp367
a(I11
I7
tp368
a(I3
I2
tp369
a(I2
I8
tp370
a(I9
I3
tp371
a(I1
I6
tp372
a(I5
I0
tp373
a(I0
I3
tp374
a(I0
I8
tp375
a(I4
I1
tp376
atp377
Rp378
sg13
((I10
I8
tp379
(I4
I6
tp380
(I11
I4
tp381
(I7
I8
tp382
tp383
sg14
I9
sbs(iproblems
RoomID
p384
(dp385
g10
I10
sg11
(I3
I6
tp386
sg13
I4
sg14
I12
sg15
I11
sg16
I4278205817407065157
sb(imulti_robot_problem
MultiRobotState
p387
(dp388
g19
g20
((lp389
(I0
I1
tp390
a(I4
I7
tp391
a(I5
I6
tp392
a(I2
I8
tp393
a(I0
I10
tp394
a(I3
I7
tp395
a(I7
I11
tp396
a(I3
I3
tp397
a(I2
I7
tp398
a(I5
I3
tp399
a(I6
I7
tp400
a(I4
I6
tp401
a(I10
I7
tp402
a(I4
I4
tp403
a(I3
I8
tp404
a(I4
I5
tp405
ag386
a(I1
I10
tp406
a(I3
I5
tp407
a(I1
I9
tp408
atp409
Rp410
sg15
I11
sg29
g20
((lp411
(I1
I2
tp412
a(I8
I1
tp413
a(I9
I2
tp414
a(I6
I1
tp415
a(I5
I7
tp416
a(I8
I9
tp417
a(I3
I0
tp418
a(I9
I4
tp419
a(I0
I2
tp420
a(I4
I0
tp421
atp422
Rp423
sg13
((I6
I10
tp424
(I5
I11
tp425
(I2
I0
tp426
(I9
I1
tp427
tp428
sg14
I12
sbssg161
S'mild_roomset'
p429
sbsg161
g163
sg164
(dp430
g183
((lp431
F40.270000000000437
tp432
sg231
((lp433
F40.299999999999272
tp434
sg281
((lp435
F40.05000000000291
tp436
sg325
((lp437
F40.18999999999869
tp438
sg384
((lp439
F40.68999999999869
tp440
ssba(imeasure_core
ProblemSetSolution
p441
(dp442
g3
(imeasure_core
RoomSet
p443
(dp444
g6
(dp445
(iproblems
RoomID
p446
(dp447
g10
I11
sg11
(I10
I1
tp448
sg13
I7
sg14
I12
sg15
I13
sg16
I2405875930906139466
sb(imulti_robot_problem
MultiRobotState
p449
(dp450
g19
g20
((lp451
(I7
I3
tp452
a(I9
I1
tp453
a(I7
I1
tp454
a(I5
I6
tp455
a(I8
I11
tp456
a(I8
I0
tp457
a(I1
I4
tp458
a(I6
I2
tp459
a(I0
I7
tp460
ag448
a(I10
I3
tp461
a(I7
I2
tp462
a(I10
I4
tp463
a(I11
I7
tp464
a(I9
I0
tp465
a(I11
I5
tp466
a(I7
I4
tp467
a(I1
I5
tp468
a(I10
I2
tp469
a(I11
I6
tp470
a(I8
I4
tp471
atp472
Rp473
sg15
I13
sg29
g20
((lp474
(I12
I5
tp475
a(I10
I11
tp476
a(I8
I1
tp477
a(I7
I8
tp478
a(I8
I6
tp479
a(I6
I3
tp480
a(I2
I0
tp481
a(I2
I3
tp482
a(I5
I1
tp483
a(I10
I0
tp484
a(I3
I4
tp485
atp486
Rp487
sg13
((I10
I8
tp488
(I9
I2
tp489
(I4
I5
tp490
(I11
I8
tp491
(I1
I2
tp492
(I3
I1
tp493
(I0
I10
tp494
tp495
sg14
I12
sbs(iproblems
RoomID
p496
(dp497
g10
I11
sg11
(I7
I9
tp498
sg13
I6
sg14
I13
sg15
I10
sg16
I8744744311366254845
sb(imulti_robot_problem
MultiRobotState
p499
(dp500
g19
g20
((lp501
(I6
I9
tp502
a(I1
I3
tp503
a(I4
I9
tp504
a(I5
I6
tp505
a(I9
I8
tp506
a(I1
I8
tp507
a(I1
I0
tp508
ag498
a(I3
I4
tp509
a(I5
I8
tp510
a(I9
I7
tp511
atp512
Rp513
sg15
I10
sg29
g20
((lp514
(I0
I1
tp515
a(I7
I3
tp516
a(I9
I0
tp517
a(I1
I12
tp518
a(I4
I10
tp519
a(I5
I11
tp520
a(I9
I10
tp521
a(I7
I11
tp522
a(I3
I7
tp523
a(I0
I8
tp524
a(I9
I6
tp525
atp526
Rp527
sg13
((I0
I10
tp528
(I6
I3
tp529
(I4
I0
tp530
(I1
I6
tp531
(I7
I5
tp532
(I9
I9
tp533
tp534
sg14
I13
sbs(iproblems
RoomID
p535
(dp536
g10
I15
sg11
(I4
I8
tp537
sg13
I6
sg14
I13
sg15
I12
sg16
I4278205817407065157
sb(imulti_robot_problem
MultiRobotState
p538
(dp539
g19
g20
((lp540
(I11
I7
tp541
a(I2
I9
tp542
ag537
a(I5
I6
tp543
a(I2
I8
tp544
a(I6
I10
tp545
a(I3
I8
tp546
a(I11
I8
tp547
a(I3
I9
tp548
a(I1
I10
tp549
a(I1
I11
tp550
a(I7
I8
tp551
a(I2
I4
tp552
atp553
Rp554
sg15
I12
sg29
g20
((lp555
(I1
I2
tp556
a(I0
I1
tp557
a(I5
I4
tp558
a(I5
I7
tp559
a(I10
I4
tp560
a(I7
I1
tp561
a(I3
I1
tp562
a(I10
I5
tp563
a(I4
I7
tp564
a(I9
I9
tp565
a(I0
I10
tp566
a(I4
I3
tp567
a(I8
I12
tp568
a(I4
I1
tp569
a(I0
I2
tp570
atp571
Rp572
sg13
((I7
I10
tp573
(I6
I12
tp574
(I2
I0
tp575
(I9
I1
tp576
(I10
I3
tp577
(I4
I0
tp578
tp579
sg14
I13
sbs(iproblems
RoomID
p580
(dp581
g10
I15
sg11
(I5
I8
tp582
sg13
I7
sg14
I13
sg15
I11
sg16
I8655808914197340073
sb(imulti_robot_problem
MultiRobotState
p583
(dp584
g19
g20
((lp585
(I5
I9
tp586
a(I6
I7
tp587
a(I6
I11
tp588
a(I1
I4
tp589
a(I0
I12
tp590
a(I0
I11
tp591
a(I7
I5
tp592
a(I1
I6
tp593
a(I0
I4
tp594
a(I5
I10
tp595
a(I3
I9
tp596
a(I4
I9
tp597
a(I10
I3
tp598
ag582
atp599
Rp600
sg15
I11
sg29
g20
((lp601
(I2
I7
tp602
a(I7
I3
tp603
a(I4
I6
tp604
a(I1
I12
tp605
a(I5
I6
tp606
a(I8
I5
tp607
a(I7
I7
tp608
a(I7
I9
tp609
a(I2
I0
tp610
a(I9
I4
tp611
a(I7
I10
tp612
a(I0
I8
tp613
a(I9
I6
tp614
a(I6
I5
tp615
a(I9
I7
tp616
atp617
Rp618
sg13
((I9
I11
tp619
(I8
I1
tp620
(I3
I4
tp621
(I8
I7
tp622
(I9
I1
tp623
(I2
I10
tp624
(I2
I12
tp625
tp626
sg14
I13
sbs(iproblems
RoomID
p627
(dp628
g10
I15
sg11
(I3
I6
tp629
sg13
I7
sg14
I10
sg15
I13
sg16
I2796939073032698495
sb(imulti_robot_problem
MultiRobotState
p630
(dp631
g19
g20
((lp632
(I5
I9
tp633
a(I6
I9
tp634
a(I4
I6
tp635
a(I5
I0
tp636
a(I6
I6
tp637
a(I4
I5
tp638
a(I5
I4
tp639
a(I6
I7
tp640
a(I6
I2
tp641
a(I0
I5
tp642
a(I8
I7
tp643
a(I5
I1
tp644
a(I6
I4
tp645
a(I12
I9
tp646
a(I5
I8
tp647
a(I5
I3
tp648
a(I2
I7
tp649
a(I4
I9
tp650
a(I5
I5
tp651
a(I3
I1
tp652
a(I4
I8
tp653
a(I2
I0
tp654
a(I3
I9
tp655
a(I6
I5
tp656
ag629
a(I5
I7
tp657
a(I7
I8
tp658
atp659
Rp660
sg15
I13
sg29
g20
((lp661
(I1
I2
tp662
a(I8
I2
tp663
a(I2
I9
tp664
a(I12
I0
tp665
a(I4
I1
tp666
a(I12
I8
tp667
a(I6
I0
tp668
a(I9
I9
tp669
a(I2
I3
tp670
a(I9
I4
tp671
a(I1
I7
tp672
a(I0
I9
tp673
a(I7
I9
tp674
a(I3
I4
tp675
a(I3
I3
tp676
atp677
Rp678
sg13
((I10
I2
tp679
(I11
I8
tp680
(I12
I5
tp681
(I8
I9
tp682
(I10
I3
tp683
(I0
I3
tp684
(I11
I2
tp685
tp686
sg14
I10
sbssg161
S'heavy_roomset'
p687
sbsg161
g163
sg164
(dp688
g446
((lp689
F46.539999999997235
tp690
sg496
((lp691
F40.120000000002619
tp692
sg535
((lp693
F40.5
tp694
sg580
((lp695
F43.779999999998836
tp696
sg627
((lp697
F40.31000000000131
tp698
ssba(imeasure_core
ProblemSetSolution
p699
(dp700
g3
g4
sg161
S'AnytimeBest-d80_with_PowerHeuristic2'
p701
sg164
(dp702
g8
((lp703
(F0.43999999999869033
I10
tp704
aF40.049999999999272
tp705
sg44
((lp706
(F0.36000000000058208
I14
tp707
aF40.040000000000873
tp708
sg127
((lp709
(F1.680000000000291
I9
tp710
aF40.070000000003347
tp711
sg96
((lp712
F40.089999999996508
tp713
sg71
((lp714
(F0.18000000000029104
I49
tp715
a(F0.31999999999970896
I47
tp716
a(F0.40000000000145519
I45
tp717
a(F0.59000000000014552
I43
tp718
a(F1.1100000000005821
I41
tp719
a(F1.25
I40
tp720
a(F2.4399999999986903
I39
tp721
a(F2.4700000000011642
I38
tp722
a(F3.2900000000008731
I37
tp723
a(F3.4200000000018917
I35
tp724
a(F4.7600000000020373
I33
tp725
a(F6.569999999999709
I31
tp726
a(F6.8100000000013097
I29
tp727
a(F6.9500000000007276
I27
tp728
a(F8.2900000000008731
I25
tp729
a(F12.75
I24
tp730
a(F12.880000000001019
I22
tp731
a(F13.520000000000437
I20
tp732
aF13.760000000002037
tp733
ssba(imeasure_core
ProblemSetSolution
p734
(dp735
g3
g180
sg161
g701
sg164
(dp736
g183
((lp737
(F7.319999999999709
I24
tp738
aF40.080000000001746
tp739
sg231
((lp740
F40.029999999998836
tp741
sg281
((lp742
(F0.90999999999985448
I25
tp743
aF40.029999999998836
tp744
sg325
((lp745
F40.150000000001455
tp746
sg384
((lp747
(F1.4699999999975262
I28
tp748
aF40.049999999999272
tp749
ssba(imeasure_core
ProblemSetSolution
p750
(dp751
g3
g443
sg161
g701
sg164
(dp752
g446
((lp753
F46.850000000002183
tp754
sg496
((lp755
(F12.419999999998254
I13
tp756
aF40.159999999999854
tp757
sg535
((lp758
(F22.819999999999709
I15
tp759
aF40.229999999999563
tp760
sg580
((lp761
F43.579999999998108
tp762
sg627
((lp763
F40.460000000002765
tp764
ssba(imeasure_core
ProblemSetSolution
p765
(dp766
g3
g4
sg161
S'AnytimeBest-d150_with_PowerHeuristic2'
p767
sg164
(dp768
g8
((lp769
(F0.42000000000189175
I10
tp770
aF40.06000000000131
tp771
sg44
((lp772
(F0.36000000000058208
I14
tp773
aF40.009999999998399
tp774
sg127
((lp775
(F1.6900000000023283
I9
tp776
aF40.070000000003347
tp777
sg96
((lp778
(F9.7700000000004366
I144
tp779
aF40.009999999998399
tp780
sg71
((lp781
(F0.19000000000232831
I49
tp782
a(F0.31999999999970896
I47
tp783
a(F0.40999999999985448
I45
tp784
a(F0.60000000000218279
I43
tp785
a(F1.1200000000026193
I41
tp786
a(F1.2600000000020373
I40
tp787
a(F2.4500000000007276
I39
tp788
a(F2.4799999999995634
I38
tp789
a(F3.3100000000013097
I37
tp790
a(F3.4400000000023283
I35
tp791
a(F4.7700000000004366
I33
tp792
a(F6.5800000000017462
I31
tp793
a(F6.819999999999709
I29
tp794
a(F6.9599999999991269
I27
tp795
a(F8.2999999999992724
I25
tp796
a(F12.780000000002474
I24
tp797
a(F12.909999999999854
I22
tp798
a(F13.540000000000873
I20
tp799
aF13.790000000000873
tp800
ssba(imeasure_core
ProblemSetSolution
p801
(dp802
g3
g180
sg161
g767
sg164
(dp803
g183
((lp804
(F7.3599999999969441
I24
tp805
aF40.079999999998108
tp806
sg231
((lp807
F40.180000000000291
tp808
sg281
((lp809
(F0.88999999999941792
I25
tp810
aF40.029999999998836
tp811
sg325
((lp812
F40.150000000001455
tp813
sg384
((lp814
(F1.4599999999991269
I28
tp815
aF40.049999999999272
tp816
ssba(imeasure_core
ProblemSetSolution
p817
(dp818
g3
g443
sg161
g767
sg164
(dp819
g446
((lp820
F46.509999999998399
tp821
sg496
((lp822
(F12.340000000000146
I13
tp823
aF40.159999999999854
tp824
sg535
((lp825
(F22.880000000001019
I15
tp826
aF40.240000000001601
tp827
sg580
((lp828
F43.579999999998108
tp829
sg627
((lp830
F41.130000000001019
tp831
ssba(imeasure_core
ProblemSetSolution
p832
(dp833
g3
g4
sg161
S'AnytimeBest-d250_with_PowerHeuristic2'
p834
sg164
(dp835
g8
((lp836
(F0.42000000000189175
I10
tp837
aF40.240000000001601
tp838
sg44
((lp839
(F0.36000000000058208
I14
tp840
aF40.009999999998399
tp841
sg127
((lp842
(F1.6500000000014552
I9
tp843
aF40.070000000003347
tp844
sg96
((lp845
(F9.7699999999967986
I144
tp846
aF40.019999999996799
tp847
sg71
((lp848
(F0.19000000000232831
I49
tp849
a(F0.31999999999970896
I47
tp850
a(F0.40999999999985448
I45
tp851
a(F0.60000000000218279
I43
tp852
a(F1.1200000000026193
I41
tp853
a(F1.25
I40
tp854
a(F2.4500000000007276
I39
tp855
a(F2.4799999999995634
I38
tp856
a(F3.2999999999992724
I37
tp857
a(F3.430000000000291
I35
tp858
a(F4.7700000000004366
I33
tp859
a(F6.5800000000017462
I31
tp860
a(F6.819999999999709
I29
tp861
a(F6.9599999999991269
I27
tp862
a(F8.3100000000013097
I25
tp863
a(F12.770000000000437
I24
tp864
a(F12.900000000001455
I22
tp865
a(F13.540000000000873
I20
tp866
aF13.780000000002474
tp867
ssba(imeasure_core
ProblemSetSolution
p868
(dp869
g3
g180
sg161
g834
sg164
(dp870
g183
((lp871
(F7.3699999999989814
I24
tp872
aF40.119999999998981
tp873
sg231
((lp874
(F21.630000000001019
I171
tp875
aF40.040000000000873
tp876
sg281
((lp877
(F0.89999999999781721
I25
tp878
aF40.049999999999272
tp879
sg325
((lp880
F40.169999999998254
tp881
sg384
((lp882
(F1.4599999999991269
I28
tp883
aF40.110000000000582
tp884
ssba(imeasure_core
ProblemSetSolution
p885
(dp886
g3
g443
sg161
g834
sg164
(dp887
g446
((lp888
F46.599999999998545
tp889
sg496
((lp890
(F12.369999999998981
I13
tp891
aF40.159999999999854
tp892
sg535
((lp893
(F22.959999999999127
I15
tp894
aF40.229999999999563
tp895
sg580
((lp896
F43.880000000001019
tp897
sg627
((lp898
F40.229999999999563
tp899
ssba(imeasure_core
ProblemSetSolution
p900
(dp901
g3
g4
sg161
S'AnytimeBest-d400_with_PowerHeuristic2'
p902
sg164
(dp903
g8
((lp904
(F0.4500000000007276
I10
tp905
aF40.049999999999272
tp906
sg44
((lp907
(F0.36000000000058208
I14
tp908
aF40.010000000002037
tp909
sg127
((lp910
(F1.6700000000018917
I9
tp911
aF40.069999999999709
tp912
sg96
((lp913
(F9.7700000000004366
I144
tp914
aF40.069999999999709
tp915
sg71
((lp916
(F0.18999999999869033
I49
tp917
a(F0.32999999999810825
I47
tp918
a(F0.40999999999985448
I45
tp919
a(F0.59999999999854481
I43
tp920
a(F1.1199999999989814
I41
tp921
a(F1.2599999999983993
I40
tp922
a(F2.4599999999991269
I39
tp923
a(F2.4899999999979627
I38
tp924
a(F3.319999999999709
I37
tp925
a(F3.4499999999970896
I35
tp926
a(F4.7799999999988358
I33
tp927
a(F6.5799999999981083
I31
tp928
a(F6.819999999999709
I29
tp929
a(F6.9599999999991269
I27
tp930
a(F8.3099999999976717
I25
tp931
a(F12.799999999999272
I24
tp932
a(F12.929999999996653
I22
tp933
a(F13.559999999997672
I20
tp934
aF13.809999999997672
tp935
ssba(imeasure_core
ProblemSetSolution
p936
(dp937
g3
g180
sg161
g902
sg164
(dp938
g183
((lp939
(F7.3000000000029104
I24
tp940
aF40.080000000001746
tp941
sg231
((lp942
(F21.610000000000582
I171
tp943
aF40.040000000000873
tp944
sg281
((lp945
(F0.89999999999781721
I25
tp946
aF40.029999999998836
tp947
sg325
((lp948
F40.159999999999854
tp949
sg384
((lp950
(F1.4599999999991269
I28
tp951
aF40.049999999999272
tp952
ssba(imeasure_core
ProblemSetSolution
p953
(dp954
g3
g443
sg161
g902
sg164
(dp955
g446
((lp956
F46.850000000002183
tp957
sg496
((lp958
(F12.43999999999869
I13
tp959
aF40.159999999999854
tp960
sg535
((lp961
(F22.729999999999563
I15
tp962
aF40.229999999999563
tp963
sg580
((lp964
F44.009999999998399
tp965
sg627
((lp966
F40.450000000000728
tp967
ssba(imeasure_core
ProblemSetSolution
p968
(dp969
g3
g4
sg161
S'AnytimeBest-d10_with_LinearHeuristic'
p970
sg164
(dp971
g8
((lp972
F40.230000000003201
tp973
sg44
((lp974
F40.149999999997817
tp975
sg127
((lp976
(F1.9200000000018917
I6
tp977
aF40.190000000002328
tp978
sg96
((lp979
F40.049999999999272
tp980
sg71
((lp981
F0.75
tp982
ssba(imeasure_core
ProblemSetSolution
p983
(dp984
g3
g180
sg161
g970
sg164
(dp985
g183
((lp986
F40.090000000000146
tp987
sg231
((lp988
F40.099999999998545
tp989
sg281
((lp990
F40.209999999999127
tp991
sg325
((lp992
F40.100000000002183
tp993
sg384
((lp994
F40.209999999999127
tp995
ssba(imeasure_core
ProblemSetSolution
p996
(dp997
g3
g443
sg161
g970
sg164
(dp998
g446
((lp999
F44.040000000000873
tp1000
sg496
((lp1001
(F14.819999999999709
I8
tp1002
aF40.340000000000146
tp1003
sg535
((lp1004
F40.399999999997817
tp1005
sg580
((lp1006
F48.010000000002037
tp1007
sg627
((lp1008
F51.309999999997672
tp1009
ssba(imeasure_core
ProblemSetSolution
p1010
(dp1011
g3
g4
sg161
S'AnytimeBest-d80_with_LinearHeuristic'
p1012
sg164
(dp1013
g8
((lp1014
F40.229999999999563
tp1015
sg44
((lp1016
F40.169999999998254
tp1017
sg127
((lp1018
(F1.930000000000291
I6
tp1019
aF40.240000000001601
tp1020
sg96
((lp1021
(F1.680000000000291
I58
tp1022
a(F17.31000000000131
I56
tp1023
a(F32.830000000001746
I55
tp1024
aF40.040000000000873
tp1025
sg71
((lp1026
(F0.020000000000436557
I22
tp1027
a(F0.22000000000116415
I20
tp1028
aF11.340000000000146
tp1029
ssba(imeasure_core
ProblemSetSolution
p1030
(dp1031
g3
g180
sg161
g1012
sg164
(dp1032
g183
((lp1033
F40.069999999999709
tp1034
sg231
((lp1035
F40.049999999999272
tp1036
sg281
((lp1037
F40.040000000000873
tp1038
sg325
((lp1039
F40.039999999997235
tp1040
sg384
((lp1041
F40.06000000000131
tp1042
ssba(imeasure_core
ProblemSetSolution
p1043
(dp1044
g3
g443
sg161
g1012
sg164
(dp1045
g446
((lp1046
F43.590000000000146
tp1047
sg496
((lp1048
(F14.920000000001892
I8
tp1049
aF40.590000000000146
tp1050
sg535
((lp1051
F41.759999999998399
tp1052
sg580
((lp1053
F47.970000000001164
tp1054
sg627
((lp1055
F51.369999999998981
tp1056
ssba(imeasure_core
ProblemSetSolution
p1057
(dp1058
g3
g4
sg161
S'AnytimeBest-d150_with_LinearHeuristic'
p1059
sg164
(dp1060
g8
((lp1061
F40.620000000002619
tp1062
sg44
((lp1063
F40.219999999997526
tp1064
sg127
((lp1065
(F1.9000000000014552
I6
tp1066
aF40.290000000000873
tp1067
sg96
((lp1068
(F1.680000000000291
I58
tp1069
a(F17.349999999998545
I56
tp1070
a(F32.969999999997526
I55
tp1071
aF40.049999999999272
tp1072
sg71
((lp1073
(F0.020000000000436557
I22
tp1074
a(F0.22000000000116415
I20
tp1075
aF11.350000000002183
tp1076
ssba(imeasure_core
ProblemSetSolution
p1077
(dp1078
g3
g180
sg161
g1059
sg164
(dp1079
g183
((lp1080
F40.029999999998836
tp1081
sg231
((lp1082
F40.06000000000131
tp1083
sg281
((lp1084
F40.279999999998836
tp1085
sg325
((lp1086
F40.099999999998545
tp1087
sg384
((lp1088
(F28.840000000000146
I146
tp1089
aF40.080000000001746
tp1090
ssba(imeasure_core
ProblemSetSolution
p1091
(dp1092
g3
g443
sg161
g1059
sg164
(dp1093
g446
((lp1094
F44.18999999999869
tp1095
sg496
((lp1096
(F14.920000000001892
I8
tp1097
aF40.600000000002183
tp1098
sg535
((lp1099
F41.680000000000291
tp1100
sg580
((lp1101
F47.840000000000146
tp1102
sg627
((lp1103
F51.25
tp1104
ssba(imeasure_core
ProblemSetSolution
p1105
(dp1106
g3
g4
sg161
S'AnytimeBest-d250_with_LinearHeuristic'
p1107
sg164
(dp1108
g8
((lp1109
F40.220000000001164
tp1110
sg44
((lp1111
F40.169999999998254
tp1112
sg127
((lp1113
(F1.9099999999998545
I6
tp1114
aF40.260000000002037
tp1115
sg96
((lp1116
(F1.6700000000018917
I58
tp1117
a(F17.389999999999418
I56
tp1118
a(F33.029999999998836
I55
tp1119
aF40.049999999999272
tp1120
sg71
((lp1121
(F0.020000000000436557
I22
tp1122
a(F0.22000000000116415
I20
tp1123
aF11.340000000000146
tp1124
ssba(imeasure_core
ProblemSetSolution
p1125
(dp1126
g3
g180
sg161
g1107
sg164
(dp1127
g183
((lp1128
F40.029999999998836
tp1129
sg231
((lp1130
F40.360000000000582
tp1131
sg281
((lp1132
F40.139999999999418
tp1133
sg325
((lp1134
F40.049999999999272
tp1135
sg384
((lp1136
(F28.860000000000582
I146
tp1137
aF40.55000000000291
tp1138
ssba(imeasure_core
ProblemSetSolution
p1139
(dp1140
g3
g443
sg161
g1107
sg164
(dp1141
g446
((lp1142
F43.740000000001601
tp1143
sg496
((lp1144
(F14.969999999997526
I8
tp1145
aF40.639999999999418
tp1146
sg535
((lp1147
F41.860000000000582
tp1148
sg580
((lp1149
F47.950000000000728
tp1150
sg627
((lp1151
F51.290000000000873
tp1152
ssba(imeasure_core
ProblemSetSolution
p1153
(dp1154
g3
g4
sg161
S'AnytimeBest-d400_with_LinearHeuristic'
p1155
sg164
(dp1156
g8
((lp1157
F40.349999999998545
tp1158
sg44
((lp1159
F40.400000000001455
tp1160
sg127
((lp1161
(F1.9200000000018917
I6
tp1162
aF40.340000000000146
tp1163
sg96
((lp1164
(F1.6900000000023283
I58
tp1165
a(F17.389999999999418
I56
tp1166
a(F33.06000000000131
I55
tp1167
aF40.040000000000873
tp1168
sg71
((lp1169
(F0.020000000000436557
I22
tp1170
a(F0.22000000000116415
I20
tp1171
aF11.43999999999869
tp1172
ssba(imeasure_core
ProblemSetSolution
p1173
(dp1174
g3
g180
sg161
g1155
sg164
(dp1175
g183
((lp1176
F40.069999999999709
tp1177
sg231
((lp1178
F40.350000000002183
tp1179
sg281
((lp1180
F40.339999999996508
tp1181
sg325
((lp1182
F40.030000000002474
tp1183
sg384
((lp1184
(F28.75
I146
tp1185
aF40.380000000001019
tp1186
ssba(imeasure_core
ProblemSetSolution
p1187
(dp1188
g3
g443
sg161
g1155
sg164
(dp1189
g446
((lp1190
F43.779999999998836
tp1191
sg496
((lp1192
(F14.770000000000437
I8
tp1193
aF40.309999999997672
tp1194
sg535
((lp1195
F42.020000000000437
tp1196
sg580
((lp1197
F47.510000000002037
tp1198
sg627
((lp1199
F50.809999999997672
tp1200
ssba.