(lp0
(imeasure_core
ProblemSetSolution
p1
(dp2
S'roomset'
p3
(imeasure_core
RoomSet
p4
(dp5
S'rooms'
p6
(dp7
(iproblems
RoomID
p8
(dp9
S'dusts'
p10
I8
sS'obstacles'
p11
(I2
I8
tp12
sS'robots'
p13
I4
sS'height'
p14
I10
sS'width'
p15
I7
sS'seed'
p16
I7106521602475165645
sb(imulti_robot_problem
MultiRobotState
p17
(dp18
S'obstacle_locations'
p19
c__builtin__
frozenset
p20
((lp21
(I3
I8
tp22
a(I5
I9
tp23
a(I4
I9
tp24
ag12
a(I5
I2
tp25
a(I5
I8
tp26
atp27
Rp28
sg15
I7
sS'dirt_locations'
p29
g20
((lp30
(I1
I2
tp31
a(I2
I7
tp32
a(I0
I0
tp33
a(I3
I1
tp34
a(I6
I0
tp35
a(I2
I1
tp36
a(I2
I3
tp37
a(I2
I5
tp38
atp39
Rp40
sg13
((I0
I8
tp41
(I4
I5
tp42
(I3
I9
tp43
(I1
I8
tp44
tp45
sg14
I10
sbs(iproblems
RoomID
p46
(dp47
g10
I9
sg11
(I7
I6
tp48
sg13
I5
sg14
I9
sg15
I9
sg16
I8963783824838420066
sb(imulti_robot_problem
MultiRobotState
p49
(dp50
g19
g20
((lp51
(I2
I7
tp52
a(I5
I5
tp53
a(I6
I6
tp54
ag48
a(I4
I4
tp55
a(I7
I1
tp56
a(I7
I5
tp57
a(I2
I2
tp58
a(I6
I5
tp59
atp60
Rp61
sg15
I9
sg29
g20
((lp62
(I3
I0
tp63
a(I2
I1
tp64
a(I6
I3
tp65
a(I0
I7
tp66
a(I3
I7
tp67
a(I8
I6
tp68
a(I0
I8
tp69
a(I8
I5
tp70
a(I7
I2
tp71
atp72
Rp73
sg13
((I7
I7
tp74
(I2
I4
tp75
(I3
I2
tp76
(I4
I7
tp77
(I5
I0
tp78
tp79
sg14
I9
sbs(iproblems
RoomID
p80
(dp81
g10
I6
sg11
(I7
I4
tp82
sg13
I2
sg14
I7
sg15
I9
sg16
I4029557120079369747
sb(imulti_robot_problem
MultiRobotState
p83
(dp84
g19
g20
((lp85
g82
a(I7
I5
tp86
a(I4
I1
tp87
a(I6
I1
tp88
a(I8
I5
tp89
a(I8
I4
tp90
atp91
Rp92
sg15
I9
sg29
g20
((lp93
(I2
I6
tp94
a(I6
I6
tp95
a(I3
I0
tp96
a(I2
I5
tp97
a(I1
I1
tp98
a(I5
I3
tp99
atp100
Rp101
sg13
((I6
I0
tp102
(I3
I1
tp103
tp104
sg14
I7
sbs(iproblems
RoomID
p105
(dp106
g10
I10
sg11
(I3
I3
tp107
sg13
I4
sg14
I10
sg15
I8
sg16
I746805015404516437
sb(imulti_robot_problem
MultiRobotState
p108
(dp109
g19
g20
((lp110
(I7
I4
tp111
ag107
a(I4
I2
tp112
a(I6
I1
tp113
a(I3
I1
tp114
a(I4
I1
tp115
a(I1
I4
tp116
atp117
Rp118
sg15
I8
sg29
g20
((lp119
(I4
I6
tp120
a(I6
I3
tp121
a(I2
I0
tp122
a(I3
I9
tp123
a(I2
I3
tp124
a(I3
I6
tp125
a(I5
I1
tp126
a(I1
I0
tp127
a(I0
I8
tp128
a(I5
I8
tp129
atp130
Rp131
sg13
((I3
I8
tp132
(I4
I8
tp133
(I4
I9
tp134
(I0
I3
tp135
tp136
sg14
I10
sbs(iproblems
RoomID
p137
(dp138
g10
I5
sg11
(I4
I5
tp139
sg13
I1
sg14
I9
sg15
I8
sg16
I6604845167042249220
sb(imulti_robot_problem
MultiRobotState
p140
(dp141
g19
g20
((lp142
(I7
I4
tp143
ag139
a(I5
I4
tp144
a(I6
I1
tp145
a(I6
I5
tp146
atp147
Rp148
sg15
I8
sg29
g20
((lp149
(I2
I8
tp150
a(I1
I0
tp151
a(I1
I1
tp152
a(I4
I3
tp153
a(I4
I8
tp154
atp155
Rp156
sg13
((I3
I6
tp157
tp158
sg14
I9
sbssS'name'
p159
S'easy_roomset'
p160
sbsg159
S"AnytimeBeam-w5-gf(1.5, 'exp')_with_PowerHeuristic2"
p161
sS'solutions'
p162
(dp163
g8
((lp164
(F0.4
I15
tp165
aF40.120000000000005
tp166
sg46
((lp167
(F3.3500000000000014
I7
tp168
aF40.79
tp169
sg80
((lp170
(F0.10999999999999943
I18
tp171
aF40.010000000000005
tp172
sg105
((lp173
(F9.079999999999998
I20
tp174
aF40.32000000000001
tp175
sg137
((lp176
(F0.09999999999999432
I35
tp177
a(F0.7699999999999818
I33
tp178
a(F1.5999999999999943
I30
tp179
a(F2.25
I26
tp180
a(F3.009999999999991
I25
tp181
a(F3.7399999999999807
I23
tp182
a(F4.4599999999999795
I21
tp183
a(F5.72999999999999
I20
tp184
a(F6.909999999999997
I18
tp185
aF40.0
tp186
ssba(imeasure_core
ProblemSetSolution
p187
(dp188
g3
(imeasure_core
RoomSet
p189
(dp190
g6
(dp191
(iproblems
RoomID
p192
(dp193
g10
I7
sg11
(I5
I4
tp194
sg13
I3
sg14
I11
sg15
I12
sg16
I2577854692418029171
sb(imulti_robot_problem
MultiRobotState
p195
(dp196
g19
g20
((lp197
(I4
I7
tp198
a(I3
I0
tp199
a(I8
I0
tp200
a(I2
I1
tp201
a(I6
I2
tp202
a(I1
I6
tp203
a(I5
I1
tp204
a(I4
I0
tp205
a(I1
I2
tp206
a(I4
I9
tp207
a(I3
I3
tp208
a(I8
I1
tp209
a(I3
I10
tp210
a(I6
I3
tp211
a(I3
I6
tp212
a(I1
I10
tp213
a(I8
I6
tp214
a(I3
I5
tp215
ag194
a(I2
I6
tp216
a(I7
I1
tp217
a(I6
I0
tp218
a(I1
I9
tp219
a(I4
I2
tp220
a(I0
I8
tp221
a(I5
I3
tp222
a(I0
I1
tp223
a(I7
I0
tp224
a(I5
I2
tp225
a(I6
I1
tp226
a(I3
I1
tp227
a(I3
I8
tp228
a(I3
I4
tp229
a(I2
I4
tp230
atp231
Rp232
sg15
I12
sg29
g20
((lp233
(I4
I10
tp234
a(I10
I5
tp235
a(I10
I1
tp236
a(I2
I8
tp237
a(I7
I6
tp238
a(I4
I4
tp239
a(I9
I7
tp240
atp241
Rp242
sg13
((I10
I6
tp243
(I1
I4
tp244
(I11
I8
tp245
tp246
sg14
I11
sbs(iproblems
RoomID
p247
(dp248
g10
I6
sg11
(I5
I8
tp249
sg13
I3
sg14
I9
sg15
I11
sg16
I4029557120079369747
sb(imulti_robot_problem
MultiRobotState
p250
(dp251
g19
g20
((lp252
(I7
I3
tp253
a(I1
I3
tp254
a(I4
I8
tp255
a(I10
I6
tp256
a(I7
I1
tp257
a(I1
I4
tp258
a(I3
I7
tp259
a(I5
I1
tp260
a(I2
I5
tp261
a(I8
I5
tp262
ag249
a(I10
I5
tp263
a(I4
I6
tp264
a(I10
I7
tp265
a(I9
I6
tp266
a(I6
I1
tp267
a(I4
I4
tp268
a(I6
I3
tp269
a(I3
I6
tp270
a(I1
I7
tp271
a(I9
I5
tp272
a(I2
I4
tp273
a(I8
I4
tp274
atp275
Rp276
sg15
I11
sg29
g20
((lp277
(I3
I8
tp278
a(I8
I8
tp279
a(I7
I2
tp280
a(I5
I2
tp281
a(I1
I1
tp282
a(I2
I1
tp283
atp284
Rp285
sg13
((I8
I0
tp286
(I3
I1
tp287
(I4
I0
tp288
tp289
sg14
I9
sbs(iproblems
RoomID
p290
(dp291
g10
I6
sg11
(I2
I4
tp292
sg13
I3
sg14
I10
sg15
I10
sg16
I1821862095355237593
sb(imulti_robot_problem
MultiRobotState
p293
(dp294
g19
g20
((lp295
(I6
I4
tp296
a(I4
I7
tp297
a(I2
I6
tp298
a(I5
I6
tp299
a(I6
I0
tp300
a(I1
I9
tp301
a(I8
I5
tp302
a(I7
I2
tp303
a(I7
I9
tp304
a(I5
I3
tp305
a(I6
I7
tp306
a(I3
I3
tp307
a(I5
I5
tp308
a(I4
I4
tp309
a(I6
I3
tp310
a(I4
I5
tp311
a(I6
I5
tp312
a(I4
I3
tp313
a(I0
I4
tp314
a(I8
I6
tp315
a(I3
I5
tp316
a(I3
I4
tp317
ag292
atp318
Rp319
sg15
I10
sg29
g20
((lp320
(I0
I6
tp321
a(I7
I0
tp322
a(I5
I1
tp323
a(I2
I3
tp324
a(I2
I8
tp325
a(I9
I6
tp326
atp327
Rp328
sg13
((I2
I2
tp329
(I4
I2
tp330
(I0
I7
tp331
tp332
sg14
I10
sbs(iproblems
RoomID
p333
(dp334
g10
I10
sg11
(I4
I4
tp335
sg13
I4
sg14
I12
sg15
I12
sg16
I2569146471088859254
sb(imulti_robot_problem
MultiRobotState
p336
(dp337
g19
g20
((lp338
(I5
I4
tp339
a(I4
I8
tp340
a(I4
I5
tp341
a(I11
I2
tp342
a(I4
I7
tp343
a(I1
I9
tp344
a(I10
I3
tp345
a(I5
I8
tp346
a(I5
I5
tp347
a(I3
I3
tp348
ag335
a(I2
I11
tp349
a(I5
I6
tp350
a(I7
I2
tp351
a(I4
I3
tp352
a(I2
I2
tp353
a(I10
I0
tp354
a(I5
I11
tp355
a(I1
I1
tp356
atp357
Rp358
sg15
I12
sg29
g20
((lp359
(I2
I7
tp360
a(I10
I10
tp361
a(I3
I0
tp362
a(I3
I11
tp363
a(I0
I2
tp364
a(I1
I5
tp365
a(I9
I4
tp366
a(I0
I8
tp367
a(I2
I4
tp368
a(I11
I6
tp369
atp370
Rp371
sg13
((I9
I11
tp372
(I7
I10
tp373
(I6
I0
tp374
(I10
I1
tp375
tp376
sg14
I12
sbs(iproblems
RoomID
p377
(dp378
g10
I6
sg11
(I4
I5
tp379
sg13
I3
sg14
I12
sg15
I12
sg16
I1360307757430227195
sb(imulti_robot_problem
MultiRobotState
p380
(dp381
g19
g20
((lp382
(I6
I4
tp383
a(I3
I2
tp384
a(I10
I4
tp385
a(I3
I0
tp386
a(I5
I4
tp387
a(I7
I5
tp388
a(I5
I1
tp389
a(I8
I5
tp390
a(I6
I5
tp391
a(I4
I0
tp392
a(I7
I4
tp393
a(I8
I3
tp394
a(I6
I7
tp395
a(I5
I5
tp396
a(I8
I10
tp397
a(I6
I3
tp398
a(I5
I6
tp399
a(I6
I2
tp400
ag379
a(I9
I5
tp401
a(I5
I3
tp402
atp403
Rp404
sg15
I12
sg29
g20
((lp405
(I3
I3
tp406
a(I4
I3
tp407
a(I9
I2
tp408
a(I5
I7
tp409
a(I0
I2
tp410
a(I11
I6
tp411
atp412
Rp413
sg13
((I11
I11
tp414
(I1
I3
tp415
(I0
I1
tp416
tp417
sg14
I12
sbssg159
S'mild_roomset'
p418
sbsg159
g161
sg162
(dp419
g192
((lp420
(F2.089999999999975
I29
tp421
aF40.119999999999976
tp422
sg247
((lp423
(F0.27000000000001023
I15
tp424
aF40.02000000000001
tp425
sg333
((lp426
F40.64000000000004
tp427
sg290
((lp428
(F0.2799999999999727
I13
tp429
aF40.01999999999998
tp430
sg377
((lp431
F40.15999999999997
tp432
ssba(imeasure_core
ProblemSetSolution
p433
(dp434
g3
(imeasure_core
RoomSet
p435
(dp436
g6
(dp437
(iproblems
RoomID
p438
(dp439
g10
I13
sg11
(I5
I3
tp440
sg13
I6
sg14
I13
sg15
I10
sg16
I7106521602475165645
sb(imulti_robot_problem
MultiRobotState
p441
(dp442
g19
g20
((lp443
(I5
I6
tp444
a(I5
I11
tp445
a(I7
I12
tp446
a(I0
I12
tp447
a(I2
I3
tp448
a(I6
I12
tp449
a(I7
I2
tp450
ag440
a(I1
I2
tp451
a(I4
I5
tp452
a(I8
I12
tp453
a(I7
I1
tp454
a(I2
I11
tp455
a(I6
I3
tp456
a(I6
I11
tp457
a(I0
I4
tp458
a(I0
I9
tp459
a(I0
I5
tp460
a(I3
I4
tp461
atp462
Rp463
sg15
I10
sg29
g20
((lp464
(I0
I1
tp465
a(I8
I3
tp466
a(I4
I6
tp467
a(I7
I11
tp468
a(I6
I9
tp469
a(I0
I11
tp470
a(I3
I9
tp471
a(I2
I12
tp472
a(I8
I6
tp473
a(I5
I1
tp474
a(I3
I7
tp475
a(I0
I3
tp476
a(I3
I5
tp477
atp478
Rp479
sg13
((I0
I10
tp480
(I6
I7
tp481
(I4
I11
tp482
(I1
I11
tp483
(I9
I0
tp484
(I3
I1
tp485
tp486
sg14
I13
sbs(iproblems
RoomID
p487
(dp488
g10
I15
sg11
(I5
I5
tp489
sg13
I6
sg14
I13
sg15
I13
sg16
I2569146471088859254
sb(imulti_robot_problem
MultiRobotState
p490
(dp491
g19
g20
((lp492
(I12
I2
tp493
a(I5
I4
tp494
a(I3
I3
tp495
a(I5
I9
tp496
a(I4
I5
tp497
a(I6
I1
tp498
a(I10
I10
tp499
a(I8
I8
tp500
a(I4
I3
tp501
a(I2
I2
tp502
a(I9
I11
tp503
a(I8
I12
tp504
a(I1
I1
tp505
a(I12
I3
tp506
ag489
atp507
Rp508
sg15
I13
sg29
g20
((lp509
(I10
I5
tp510
a(I3
I12
tp511
a(I8
I2
tp512
a(I5
I6
tp513
a(I12
I7
tp514
a(I11
I3
tp515
a(I0
I2
tp516
a(I11
I0
tp517
a(I0
I9
tp518
a(I2
I12
tp519
a(I1
I10
tp520
a(I3
I7
tp521
a(I10
I11
tp522
a(I2
I4
tp523
a(I5
I12
tp524
atp525
Rp526
sg13
((I9
I12
tp527
(I7
I11
tp528
(I7
I0
tp529
(I10
I1
tp530
(I1
I5
tp531
(I4
I0
tp532
tp533
sg14
I13
sbs(iproblems
RoomID
p534
(dp535
g10
I10
sg11
(I6
I7
tp536
sg13
I5
sg14
I12
sg15
I11
sg16
I6604845167042249220
sb(imulti_robot_problem
MultiRobotState
p537
(dp538
g19
g20
((lp539
(I9
I0
tp540
ag536
a(I7
I1
tp541
a(I2
I8
tp542
a(I10
I6
tp543
a(I7
I7
tp544
a(I8
I8
tp545
a(I9
I4
tp546
a(I8
I6
tp547
a(I7
I11
tp548
a(I9
I7
tp549
atp550
Rp551
sg15
I11
sg29
g20
((lp552
(I10
I5
tp553
a(I3
I3
tp554
a(I5
I11
tp555
a(I8
I1
tp556
a(I9
I8
tp557
a(I6
I9
tp558
a(I0
I7
tp559
a(I0
I10
tp560
a(I4
I1
tp561
a(I8
I4
tp562
atp563
Rp564
sg13
((I4
I8
tp565
(I1
I0
tp566
(I2
I2
tp567
(I3
I11
tp568
(I6
I5
tp569
tp570
sg14
I12
sbs(iproblems
RoomID
p571
(dp572
g10
I11
sg11
(I9
I6
tp573
sg13
I6
sg14
I10
sg15
I12
sg16
I4029557120079369747
sb(imulti_robot_problem
MultiRobotState
p574
(dp575
g19
g20
((lp576
(I11
I7
tp577
a(I10
I6
tp578
a(I5
I5
tp579
a(I7
I1
tp580
a(I10
I7
tp581
a(I9
I8
tp582
a(I4
I4
tp583
a(I1
I6
tp584
a(I3
I6
tp585
a(I1
I7
tp586
ag573
a(I11
I6
tp587
atp588
Rp589
sg15
I12
sg29
g20
((lp590
(I1
I2
tp591
a(I1
I3
tp592
a(I4
I9
tp593
a(I8
I2
tp594
a(I8
I1
tp595
a(I6
I1
tp596
a(I2
I1
tp597
a(I7
I4
tp598
a(I1
I8
tp599
a(I5
I2
tp600
a(I1
I1
tp601
atp602
Rp603
sg13
((I8
I0
tp604
(I4
I1
tp605
(I4
I0
tp606
(I3
I9
tp607
(I8
I9
tp608
(I3
I8
tp609
tp610
sg14
I10
sbs(iproblems
RoomID
p611
(dp612
g10
I15
sg11
(I9
I4
tp613
sg13
I6
sg14
I13
sg15
I11
sg16
I746805015404516437
sb(imulti_robot_problem
MultiRobotState
p614
(dp615
g19
g20
((lp616
(I8
I0
tp617
a(I4
I8
tp618
a(I4
I5
tp619
a(I10
I6
tp620
a(I6
I0
tp621
a(I3
I5
tp622
a(I3
I9
tp623
ag613
a(I4
I2
tp624
a(I7
I2
tp625
a(I7
I9
tp626
a(I10
I5
tp627
a(I5
I5
tp628
a(I4
I4
tp629
a(I1
I8
tp630
a(I8
I6
tp631
a(I5
I3
tp632
a(I5
I2
tp633
a(I2
I4
tp634
a(I9
I7
tp635
atp636
Rp637
sg15
I11
sg29
g20
((lp638
(I3
I12
tp639
a(I9
I1
tp640
a(I7
I1
tp641
a(I8
I1
tp642
a(I6
I10
tp643
a(I8
I9
tp644
a(I2
I0
tp645
a(I2
I3
tp646
a(I0
I10
tp647
a(I2
I2
tp648
a(I7
I11
tp649
a(I2
I5
tp650
a(I8
I5
tp651
a(I5
I8
tp652
a(I4
I11
tp653
atp654
Rp655
sg13
((I4
I10
tp656
(I6
I11
tp657
(I5
I12
tp658
(I0
I5
tp659
(I1
I0
tp660
(I7
I10
tp661
tp662
sg14
I13
sbssg159
S'heavy_roomset'
p663
sbsg159
g161
sg162
(dp664
g438
((lp665
F41.54000000000002
tp666
sg487
((lp667
F49.94999999999999
tp668
sg534
((lp669
(F22.839999999999975
I21
tp670
aF40.26000000000005
tp671
sg571
((lp672
(F29.899999999999977
I6
tp673
aF46.979999999999905
tp674
sg611
((lp675
F42.67000000000007
tp676
ssba(imeasure_core
ProblemSetSolution
p677
(dp678
g3
g4
sg159
S"AnytimeBeam-w15-gf(1.5, 'exp')_with_PowerHeuristic2"
p679
sg162
(dp680
g8
((lp681
(F0.5299999999999727
I15
tp682
aF40.10000000000002
tp683
sg46
((lp684
(F3.1299999999999955
I7
tp685
aF40.729999999999905
tp686
sg80
((lp687
(F0.10000000000002274
I18
tp688
aF40.00999999999999
tp689
sg105
((lp690
(F9.090000000000032
I20
tp691
aF40.30000000000007
tp692
sg137
((lp693
(F0.09000000000003183
I35
tp694
a(F0.7599999999999909
I33
tp695
a(F1.6000000000000227
I30
tp696
a(F2.259999999999991
I26
tp697
a(F3.019999999999982
I25
tp698
a(F3.759999999999991
I23
tp699
a(F4.480000000000018
I21
tp700
a(F5.759999999999991
I20
tp701
a(F6.949999999999932
I18
tp702
aF40.0
tp703
ssba(imeasure_core
ProblemSetSolution
p704
(dp705
g3
g189
sg159
g679
sg162
(dp706
g192
((lp707
(F2.090000000000032
I29
tp708
aF40.00999999999999
tp709
sg247
((lp710
(F0.2699999999999818
I15
tp711
aF40.02999999999997
tp712
sg333
((lp713
F40.42999999999995
tp714
sg290
((lp715
(F0.2699999999999818
I13
tp716
aF40.05000000000007
tp717
sg377
((lp718
F40.18999999999994
tp719
ssba(imeasure_core
ProblemSetSolution
p720
(dp721
g3
g435
sg159
g679
sg162
(dp722
g438
((lp723
F41.6400000000001
tp724
sg487
((lp725
F49.930000000000064
tp726
sg534
((lp727
(F22.75999999999999
I21
tp728
aF40.36999999999989
tp729
sg571
((lp730
(F29.579999999999927
I6
tp731
aF46.65000000000009
tp732
sg611
((lp733
F42.51999999999998
tp734
ssba(imeasure_core
ProblemSetSolution
p735
(dp736
g3
g4
sg159
S"AnytimeBeam-w25-gf(1.5, 'exp')_with_PowerHeuristic2"
p737
sg162
(dp738
g8
((lp739
(F0.599999999999909
I15
tp740
aF40.200000000000045
tp741
sg46
((lp742
(F3.229999999999791
I7
tp743
aF40.25999999999999
tp744
sg80
((lp745
(F0.10999999999989996
I18
tp746
aF40.00999999999999
tp747
sg105
((lp748
(F9.129999999999882
I20
tp749
aF40.08999999999992
tp750
sg137
((lp751
(F0.09999999999990905
I35
tp752
a(F0.7699999999999818
I33
tp753
a(F1.599999999999909
I30
tp754
a(F2.259999999999991
I26
tp755
a(F3.019999999999982
I25
tp756
a(F3.75
I23
tp757
a(F4.480000000000018
I21
tp758
a(F5.75
I20
tp759
a(F6.930000000000064
I18
tp760
aF40.0
tp761
ssba(imeasure_core
ProblemSetSolution
p762
(dp763
g3
g189
sg159
g737
sg162
(dp764
g192
((lp765
(F2.0799999999999272
I29
tp766
aF40.059999999999945
tp767
sg247
((lp768
(F0.2699999999999818
I15
tp769
aF40.00999999999999
tp770
sg333
((lp771
F40.61000000000013
tp772
sg290
((lp773
(F0.2699999999999818
I13
tp774
aF40.01999999999998
tp775
sg377
((lp776
F40.289999999999964
tp777
ssba(imeasure_core
ProblemSetSolution
p778
(dp779
g3
g435
sg159
g737
sg162
(dp780
g438
((lp781
F41.66000000000008
tp782
sg487
((lp783
F50.059999999999945
tp784
sg534
((lp785
(F22.799999999999955
I21
tp786
aF40.289999999999964
tp787
sg571
((lp788
(F30.089999999999918
I6
tp789
aF40.17000000000007
tp790
sg611
((lp791
F42.649999999999864
tp792
ssba(imeasure_core
ProblemSetSolution
p793
(dp794
g3
g4
sg159
S"AnytimeBeam-w35-gf(1.5, 'exp')_with_PowerHeuristic2"
p795
sg162
(dp796
g8
((lp797
(F0.7200000000000273
I15
tp798
aF40.23000000000002
tp799
sg46
((lp800
(F3.1200000000001182
I7
tp801
aF40.66000000000008
tp802
sg80
((lp803
(F0.10999999999989996
I18
tp804
aF40.00999999999999
tp805
sg105
((lp806
(F9.099999999999909
I20
tp807
aF40.13999999999987
tp808
sg137
((lp809
(F0.10000000000013642
I35
tp810
a(F0.7700000000002092
I33
tp811
a(F1.6000000000001364
I30
tp812
a(F2.270000000000209
I26
tp813
a(F3.0300000000002
I25
tp814
a(F3.7600000000002183
I23
tp815
a(F4.490000000000009
I21
tp816
a(F5.770000000000209
I20
tp817
a(F6.9500000000000455
I18
tp818
aF40.0
tp819
ssba(imeasure_core
ProblemSetSolution
p820
(dp821
g3
g189
sg159
g795
sg162
(dp822
g192
((lp823
(F2.0900000000001455
I29
tp824
aF40.090000000000146
tp825
sg247
((lp826
(F0.2699999999999818
I15
tp827
aF40.039999999999964
tp828
sg333
((lp829
F40.710000000000036
tp830
sg290
((lp831
(F0.2699999999999818
I13
tp832
aF40.05000000000018
tp833
sg377
((lp834
F40.129999999999654
tp835
ssba(imeasure_core
ProblemSetSolution
p836
(dp837
g3
g435
sg159
g795
sg162
(dp838
g438
((lp839
F41.59999999999991
tp840
sg487
((lp841
F49.960000000000036
tp842
sg534
((lp843
(F22.789999999999964
I21
tp844
aF40.11000000000013
tp845
sg571
((lp846
(F29.81999999999971
I6
tp847
aF46.84999999999991
tp848
sg611
((lp849
F42.67000000000007
tp850
ssba(imeasure_core
ProblemSetSolution
p851
(dp852
g3
g4
sg159
S"AnytimeBeam-w45-gf(1.5, 'exp')_with_PowerHeuristic2"
p853
sg162
(dp854
g8
((lp855
(F0.7599999999997635
I15
tp856
aF40.01999999999998
tp857
sg46
((lp858
(F3.4600000000000364
I7
tp859
aF40.00999999999976
tp860
sg80
((lp861
(F0.11000000000012733
I18
tp862
aF40.0
tp863
sg105
((lp864
(F8.920000000000073
I20
tp865
aF40.24000000000024
tp866
sg137
((lp867
(F0.09999999999990905
I35
tp868
a(F0.7699999999999818
I33
tp869
a(F1.6199999999998909
I30
tp870
a(F2.2899999999999636
I26
tp871
a(F3.0599999999999454
I25
tp872
a(F3.7899999999999636
I23
tp873
a(F4.529999999999745
I21
tp874
a(F5.809999999999945
I20
tp875
a(F7.0099999999997635
I18
tp876
aF40.0
tp877
ssba(imeasure_core
ProblemSetSolution
p878
(dp879
g3
g189
sg159
g853
sg162
(dp880
g192
((lp881
(F2.0899999999996908
I29
tp882
aF40.04999999999973
tp883
sg247
((lp884
(F0.2800000000002001
I15
tp885
aF40.070000000000164
tp886
sg333
((lp887
F40.76000000000022
tp888
sg290
((lp889
(F0.2699999999999818
I13
tp890
aF40.00999999999976
tp891
sg377
((lp892
F40.25
tp893
ssba(imeasure_core
ProblemSetSolution
p894
(dp895
g3
g435
sg159
g853
sg162
(dp896
g438
((lp897
F41.76999999999998
tp898
sg487
((lp899
F50.01000000000022
tp900
sg534
((lp901
(F22.899999999999636
I21
tp902
aF40.58999999999969
tp903
sg571
((lp904
(F30.070000000000164
I6
tp905
aF40.18000000000029
tp906
sg611
((lp907
F42.79999999999973
tp908
ssba(imeasure_core
ProblemSetSolution
p909
(dp910
g3
g4
sg159
S"AnytimeBeam-w5-gf(1.5, 'exp')_with_LinearHeuristic"
p911
sg162
(dp912
g8
((lp913
(F20.289999999999964
I155
tp914
aF40.059999999999945
tp915
sg46
((lp916
(F15.809999999999945
I91
tp917
aF40.059999999999945
tp918
sg80
((lp919
(F0.07000000000016371
I10
tp920
aF40.01000000000022
tp921
sg105
((lp922
(F6.519999999999982
I24
tp923
aF40.38000000000011
tp924
sg137
((lp925
(F0.01999999999998181
I18
tp926
aF40.0
tp927
ssba(imeasure_core
ProblemSetSolution
p928
(dp929
g3
g189
sg159
g911
sg162
(dp930
g192
((lp931
F40.07999999999993
tp932
sg247
((lp933
F40.23000000000002
tp934
sg333
((lp935
F40.49000000000024
tp936
sg290
((lp937
(F33.059999999999945
I134
tp938
aF40.09999999999991
tp939
sg377
((lp940
F40.279999999999745
tp941
ssba(imeasure_core
ProblemSetSolution
p942
(dp943
g3
g435
sg159
g911
sg162
(dp944
g438
((lp945
F40.090000000000146
tp946
sg487
((lp947
F43.13999999999987
tp948
sg534
((lp949
F40.75
tp950
sg571
((lp951
F43.61000000000013
tp952
sg611
((lp953
F49.67000000000007
tp954
ssba(imeasure_core
ProblemSetSolution
p955
(dp956
g3
g4
sg159
S"AnytimeBeam-w15-gf(1.5, 'exp')_with_LinearHeuristic"
p957
sg162
(dp958
g8
((lp959
(F10.720000000000255
I155
tp960
aF40.05000000000018
tp961
sg46
((lp962
(F18.06999999999971
I91
tp963
aF40.19999999999982
tp964
sg80
((lp965
(F0.07000000000016371
I10
tp966
aF40.01000000000022
tp967
sg105
((lp968
(F6.730000000000018
I24
tp969
aF40.289999999999964
tp970
sg137
((lp971
(F0.009999999999763531
I18
tp972
aF40.0
tp973
ssba(imeasure_core
ProblemSetSolution
p974
(dp975
g3
g189
sg159
g957
sg162
(dp976
g192
((lp977
F40.17000000000007
tp978
sg247
((lp979
F40.20999999999958
tp980
sg333
((lp981
F40.159999999999854
tp982
sg290
((lp983
(F33.070000000000164
I134
tp984
aF40.090000000000146
tp985
sg377
((lp986
F40.30000000000018
tp987
ssba(imeasure_core
ProblemSetSolution
p988
(dp989
g3
g435
sg159
g957
sg162
(dp990
g438
((lp991
F40.07999999999993
tp992
sg487
((lp993
F43.01000000000022
tp994
sg534
((lp995
F40.72999999999956
tp996
sg571
((lp997
F43.64000000000033
tp998
sg611
((lp999
F49.850000000000364
tp1000
ssba(imeasure_core
ProblemSetSolution
p1001
(dp1002
g3
g4
sg159
S"AnytimeBeam-w25-gf(1.5, 'exp')_with_LinearHeuristic"
p1003
sg162
(dp1004
g8
((lp1005
(F11.63000000000011
I155
tp1006
aF40.19000000000051
tp1007
sg46
((lp1008
(F18.229999999999563
I91
tp1009
aF40.099999999999454
tp1010
sg80
((lp1011
(F0.07000000000061846
I10
tp1012
aF40.0
tp1013
sg105
((lp1014
(F6.470000000000255
I24
tp1015
aF40.57000000000062
tp1016
sg137
((lp1017
(F0.009999999999308784
I18
tp1018
aF40.0
tp1019
ssba(imeasure_core
ProblemSetSolution
p1020
(dp1021
g3
g189
sg159
g1003
sg162
(dp1022
g192
((lp1023
F40.01999999999953
tp1024
sg247
((lp1025
F40.23999999999978
tp1026
sg333
((lp1027
F40.469999999999345
tp1028
sg290
((lp1029
(F33.13000000000011
I134
tp1030
aF40.030000000000655
tp1031
sg377
((lp1032
F40.280000000000655
tp1033
ssba(imeasure_core
ProblemSetSolution
p1034
(dp1035
g3
g435
sg159
g1003
sg162
(dp1036
g438
((lp1037
F40.42000000000007
tp1038
sg487
((lp1039
F43.26999999999953
tp1040
sg534
((lp1041
F40.82000000000062
tp1042
sg571
((lp1043
F43.66999999999916
tp1044
sg611
((lp1045
F49.93000000000029
tp1046
ssba(imeasure_core
ProblemSetSolution
p1047
(dp1048
g3
g4
sg159
S"AnytimeBeam-w35-gf(1.5, 'exp')_with_LinearHeuristic"
p1049
sg162
(dp1050
g8
((lp1051
(F12.920000000000073
I155
tp1052
aF40.01000000000022
tp1053
sg46
((lp1054
(F18.899999999999636
I91
tp1055
aF42.01999999999953
tp1056
sg80
((lp1057
(F0.07000000000061846
I10
tp1058
aF40.0
tp1059
sg105
((lp1060
(F6.760000000000218
I24
tp1061
aF40.25
tp1062
sg137
((lp1063
(F0.020000000000436557
I18
tp1064
aF40.0
tp1065
ssba(imeasure_core
ProblemSetSolution
p1066
(dp1067
g3
g189
sg159
g1049
sg162
(dp1068
g192
((lp1069
F40.07000000000062
tp1070
sg247
((lp1071
F40.159999999999854
tp1072
sg333
((lp1073
F40.48999999999978
tp1074
sg290
((lp1075
(F33.090000000000146
I134
tp1076
aF40.14000000000033
tp1077
sg377
((lp1078
F40.289999999999964
tp1079
ssba(imeasure_core
ProblemSetSolution
p1080
(dp1081
g3
g435
sg159
g1049
sg162
(dp1082
g438
((lp1083
F40.1299999999992
tp1084
sg487
((lp1085
F43.07000000000062
tp1086
sg534
((lp1087
F40.67999999999938
tp1088
sg571
((lp1089
F43.67000000000007
tp1090
sg611
((lp1091
F49.67000000000007
tp1092
ssba(imeasure_core
ProblemSetSolution
p1093
(dp1094
g3
g4
sg159
S"AnytimeBeam-w45-gf(1.5, 'exp')_with_LinearHeuristic"
p1095
sg162
(dp1096
g8
((lp1097
(F13.569999999999709
I155
tp1098
aF40.039999999999964
tp1099
sg46
((lp1100
(F20.43000000000029
I91
tp1101
aF40.26000000000022
tp1102
sg80
((lp1103
(F0.06999999999970896
I10
tp1104
aF40.0
tp1105
sg105
((lp1106
(F6.559999999999491
I24
tp1107
aF40.43000000000029
tp1108
sg137
((lp1109
(F0.009999999999308784
I18
tp1110
aF40.0
tp1111
ssba(imeasure_core
ProblemSetSolution
p1112
(dp1113
g3
g189
sg159
g1095
sg162
(dp1114
g192
((lp1115
F40.039999999999964
tp1116
sg247
((lp1117
F40.1899999999996
tp1118
sg333
((lp1119
F40.539999999999964
tp1120
sg290
((lp1121
(F33.039999999999964
I134
tp1122
aF40.039999999999964
tp1123
sg377
((lp1124
F40.399999999999636
tp1125
ssba(imeasure_core
ProblemSetSolution
p1126
(dp1127
g3
g435
sg159
g1095
sg162
(dp1128
g438
((lp1129
F40.25
tp1130
sg487
((lp1131
F43.220000000000255
tp1132
sg534
((lp1133
F40.69000000000051
tp1134
sg571
((lp1135
F43.72999999999956
tp1136
sg611
((lp1137
F49.69999999999982
tp1138
ssba.