(lp0
(imeasure_core
ProblemSetSolution
p1
(dp2
S'roomset'
p3
(imeasure_core
RoomSet
p4
(dp5
S'rooms'
p6
(dp7
(iproblems
RoomID
p8
(dp9
S'dusts'
p10
I6
sS'obstacles'
p11
(I5
I1
tp12
sS'robots'
p13
I4
sS'height'
p14
I9
sS'width'
p15
I10
sS'seed'
p16
I2405875930906139466
sb(imulti_robot_problem
MultiRobotState
p17
(dp18
S'obstacle_locations'
p19
c__builtin__
frozenset
p20
((lp21
(I7
I0
tp22
a(I7
I1
tp23
ag12
a(I6
I1
tp24
a(I6
I0
tp25
a(I7
I2
tp26
atp27
Rp28
sg15
I10
sS'dirt_locations'
p29
g20
((lp30
(I7
I3
tp31
a(I2
I1
tp32
a(I6
I4
tp33
a(I5
I6
tp34
a(I5
I2
tp35
a(I0
I7
tp36
atp37
Rp38
sg13
((I7
I6
tp39
(I3
I3
tp40
(I8
I6
tp41
(I0
I2
tp42
tp43
sg14
I9
sbs(iproblems
RoomID
p44
(dp45
g10
I6
sg11
(I6
I7
tp46
sg13
I4
sg14
I10
sg15
I7
sg16
I8744744311366254845
sb(imulti_robot_problem
MultiRobotState
p47
(dp48
g19
g20
((lp49
(I0
I6
tp50
ag46
a(I4
I6
tp51
a(I3
I7
tp52
a(I5
I7
tp53
a(I1
I9
tp54
atp55
Rp56
sg15
I7
sg29
g20
((lp57
(I2
I7
tp58
a(I0
I1
tp59
a(I5
I4
tp60
a(I6
I0
tp61
a(I5
I8
tp62
a(I5
I3
tp63
atp64
Rp65
sg13
((I0
I8
tp66
(I4
I2
tp67
(I3
I0
tp68
(I1
I4
tp69
tp70
sg14
I10
sbs(iproblems
RoomID
p71
(dp72
g10
I10
sg11
(I4
I7
tp73
sg13
I5
sg14
I10
sg15
I8
sg16
I8655808914197340073
sb(imulti_robot_problem
MultiRobotState
p74
(dp75
g19
g20
((lp76
(I2
I7
tp77
ag73
a(I4
I8
tp78
a(I6
I3
tp79
a(I7
I5
tp80
a(I3
I7
tp81
a(I1
I0
tp82
a(I5
I3
tp83
atp84
Rp85
sg15
I8
sg29
g20
((lp86
(I7
I3
tp87
a(I5
I4
tp88
a(I7
I0
tp89
a(I5
I7
tp90
a(I1
I5
tp91
a(I1
I9
tp92
a(I3
I6
tp93
a(I1
I7
tp94
a(I3
I4
tp95
a(I5
I8
tp96
atp97
Rp98
sg13
((I3
I8
tp99
(I7
I9
tp100
(I6
I1
tp101
(I2
I3
tp102
(I5
I5
tp103
tp104
sg14
I10
sbs(iproblems
RoomID
p105
(dp106
g10
I6
sg11
(I4
I6
tp107
sg13
I1
sg14
I8
sg15
I7
sg16
I3537054308274871603
sb(imulti_robot_problem
MultiRobotState
p108
(dp109
g19
g20
((lp110
(I4
I7
tp111
ag107
a(I4
I5
tp112
a(I2
I5
tp113
a(I3
I5
tp114
a(I6
I0
tp115
a(I2
I4
tp116
atp117
Rp118
sg15
I7
sg29
g20
((lp119
(I0
I6
tp120
a(I6
I2
tp121
a(I5
I6
tp122
a(I4
I1
tp123
a(I1
I1
tp124
a(I5
I3
tp125
atp126
Rp127
sg13
((I0
I3
tp128
tp129
sg14
I8
sbs(iproblems
RoomID
p130
(dp131
g10
I8
sg11
(I5
I3
tp132
sg13
I3
sg14
I7
sg15
I7
sg16
I7325839828077136048
sb(imulti_robot_problem
MultiRobotState
p133
(dp134
g19
g20
((lp135
(I6
I4
tp136
a(I5
I4
tp137
a(I5
I5
tp138
a(I6
I6
tp139
a(I3
I1
tp140
a(I6
I0
tp141
a(I2
I0
tp142
a(I0
I4
tp143
ag132
atp144
Rp145
sg15
I7
sg29
g20
((lp146
(I0
I6
tp147
a(I3
I0
tp148
a(I2
I4
tp149
a(I1
I5
tp150
a(I4
I3
tp151
a(I2
I2
tp152
a(I1
I1
tp153
a(I3
I5
tp154
atp155
Rp156
sg13
((I1
I0
tp157
(I3
I3
tp158
(I6
I2
tp159
tp160
sg14
I7
sbssS'name'
p161
S'easy_roomset'
p162
sbsg161
S"AnytimeBeam-w20-gf(2, 'lin')_with_PowerHeuristic2"
p163
sS'solutions'
p164
(dp165
g8
((lp166
(F0.46999999999934516
I10
tp167
aF40.119999999998981
tp168
sg44
((lp169
(F0.76000000000021828
I14
tp170
aF40.100000000000364
tp171
sg71
((lp172
(F2.8099999999994907
I9
tp173
aF40.25
tp174
sg105
((lp175
(F0.12000000000080036
I49
tp176
a(F0.31999999999970896
I47
tp177
a(F0.53000000000065484
I45
tp178
a(F0.79000000000087311
I43
tp179
a(F1.2199999999993452
I41
tp180
a(F1.6299999999991996
I40
tp181
a(F2.6200000000008004
I39
tp182
a(F3.5
I38
tp183
a(F4.7299999999995634
I37
tp184
a(F5.8799999999991996
I35
tp185
a(F7.4899999999997817
I33
tp186
a(F9.7900000000008731
I31
tp187
a(F11.719999999999345
I29
tp188
a(F13.260000000000218
I27
tp189
a(F15.219999999999345
I25
tp190
a(F19.520000000000437
I24
tp191
a(F23.350000000000364
I22
tp192
a(F26.639999999999418
I20
tp193
aF40.0
tp194
sg130
((lp195
(F8.7299999999995634
I144
tp196
aF40.309999999999491
tp197
ssba(imeasure_core
ProblemSetSolution
p198
(dp199
g3
(imeasure_core
RoomSet
p200
(dp201
g6
(dp202
(iproblems
RoomID
p203
(dp204
g10
I6
sg11
(I1
I8
tp205
sg13
I4
sg14
I11
sg15
I12
sg16
I2405875930906139466
sb(imulti_robot_problem
MultiRobotState
p206
(dp207
g19
g20
((lp208
(I6
I4
tp209
a(I4
I6
tp210
a(I8
I2
tp211
a(I6
I6
tp212
a(I2
I8
tp213
a(I8
I0
tp214
a(I5
I5
tp215
a(I9
I10
tp216
a(I6
I2
tp217
a(I2
I3
tp218
a(I3
I7
tp219
a(I6
I5
tp220
a(I5
I3
tp221
a(I7
I0
tp222
a(I3
I3
tp223
a(I2
I9
tp224
a(I11
I5
tp225
a(I8
I1
tp226
a(I6
I1
tp227
a(I3
I1
tp228
a(I6
I3
tp229
a(I2
I0
tp230
ag205
a(I7
I5
tp231
a(I3
I6
tp232
a(I4
I3
tp233
a(I3
I4
tp234
atp235
Rp236
sg15
I12
sg29
g20
((lp237
(I9
I4
tp238
a(I7
I1
tp239
a(I0
I9
tp240
a(I9
I3
tp241
a(I7
I7
tp242
a(I2
I1
tp243
atp244
Rp245
sg13
((I9
I7
tp246
(I4
I4
tp247
(I10
I8
tp248
(I0
I2
tp249
tp250
sg14
I11
sbs(iproblems
RoomID
p251
(dp252
g10
I10
sg11
(I0
I5
tp253
sg13
I4
sg14
I12
sg15
I10
sg16
I8655808914197340073
sb(imulti_robot_problem
MultiRobotState
p254
(dp255
g19
g20
((lp256
(I5
I9
tp257
a(I5
I4
tp258
a(I5
I7
tp259
a(I6
I6
tp260
a(I4
I8
tp261
a(I8
I0
tp262
a(I0
I7
tp263
a(I7
I5
tp264
a(I2
I3
tp265
a(I1
I4
tp266
a(I6
I8
tp267
a(I1
I11
tp268
a(I9
I6
tp269
a(I5
I8
tp270
a(I4
I6
tp271
a(I3
I8
tp272
a(I6
I7
tp273
a(I5
I5
tp274
a(I3
I4
tp275
a(I4
I4
tp276
a(I6
I3
tp277
a(I2
I0
tp278
a(I6
I5
tp279
ag253
a(I7
I8
tp280
atp281
Rp282
sg15
I10
sg29
g20
((lp283
(I6
I9
tp284
a(I2
I9
tp285
a(I2
I11
tp286
a(I9
I0
tp287
a(I7
I7
tp288
a(I8
I3
tp289
a(I1
I7
tp290
a(I8
I6
tp291
a(I8
I4
tp292
a(I3
I5
tp293
atp294
Rp295
sg13
((I4
I9
tp296
(I8
I11
tp297
(I7
I1
tp298
(I3
I3
tp299
tp300
sg14
I12
sbs(iproblems
RoomID
p301
(dp302
g10
I10
sg11
(I11
I0
tp303
sg13
I4
sg14
I9
sg15
I12
sg16
I2796939073032698495
sb(imulti_robot_problem
MultiRobotState
p304
(dp305
g19
g20
((lp306
(I7
I3
tp307
a(I5
I7
tp308
a(I9
I1
tp309
a(I6
I6
tp310
a(I8
I0
tp311
a(I7
I7
tp312
a(I5
I8
tp313
a(I3
I3
tp314
a(I8
I1
tp315
a(I4
I8
tp316
a(I6
I3
tp317
a(I7
I2
tp318
a(I3
I6
tp319
a(I6
I4
tp320
a(I5
I4
tp321
a(I2
I6
tp322
a(I7
I1
tp323
a(I4
I5
tp324
ag303
a(I2
I3
tp325
a(I10
I1
tp326
a(I1
I0
tp327
a(I6
I5
tp328
a(I5
I3
tp329
a(I8
I3
tp330
a(I7
I0
tp331
a(I6
I8
tp332
a(I9
I2
tp333
a(I6
I1
tp334
a(I3
I1
tp335
a(I8
I8
tp336
a(I4
I3
tp337
a(I5
I2
tp338
a(I10
I2
tp339
atp340
Rp341
sg15
I12
sg29
g20
((lp342
(I1
I2
tp343
a(I11
I7
tp344
a(I3
I2
tp345
a(I2
I8
tp346
a(I9
I3
tp347
a(I1
I6
tp348
a(I5
I0
tp349
a(I0
I3
tp350
a(I0
I8
tp351
a(I4
I1
tp352
atp353
Rp354
sg13
((I10
I8
tp355
(I4
I6
tp356
(I11
I4
tp357
(I7
I8
tp358
tp359
sg14
I9
sbs(iproblems
RoomID
p360
(dp361
g10
I6
sg11
(I3
I3
tp362
sg13
I4
sg14
I12
sg15
I12
sg16
I7193062864237573168
sb(imulti_robot_problem
MultiRobotState
p363
(dp364
g19
g20
((lp365
(I6
I4
tp366
a(I5
I4
tp367
a(I1
I3
tp368
a(I6
I6
tp369
a(I7
I1
tp370
a(I9
I3
tp371
a(I0
I7
tp372
a(I1
I6
tp373
a(I2
I5
tp374
a(I0
I8
tp375
a(I10
I3
tp376
a(I8
I3
tp377
a(I3
I1
tp378
ag362
a(I5
I7
tp379
a(I11
I3
tp380
a(I7
I4
tp381
a(I0
I9
tp382
a(I2
I3
tp383
a(I8
I4
tp384
a(I3
I4
tp385
a(I2
I4
tp386
a(I9
I7
tp387
atp388
Rp389
sg15
I12
sg29
g20
((lp390
(I2
I0
tp391
a(I2
I6
tp392
a(I6
I8
tp393
a(I0
I6
tp394
a(I4
I4
tp395
a(I7
I7
tp396
atp397
Rp398
sg13
((I11
I9
tp399
(I11
I2
tp400
(I4
I11
tp401
(I3
I6
tp402
tp403
sg14
I12
sbs(iproblems
RoomID
p404
(dp405
g10
I10
sg11
(I3
I6
tp406
sg13
I4
sg14
I12
sg15
I11
sg16
I4278205817407065157
sb(imulti_robot_problem
MultiRobotState
p407
(dp408
g19
g20
((lp409
(I0
I1
tp410
a(I4
I7
tp411
a(I5
I6
tp412
a(I2
I8
tp413
a(I0
I10
tp414
a(I3
I7
tp415
a(I7
I11
tp416
a(I3
I3
tp417
a(I2
I7
tp418
a(I5
I3
tp419
a(I6
I7
tp420
a(I4
I6
tp421
a(I10
I7
tp422
a(I4
I4
tp423
a(I3
I8
tp424
a(I4
I5
tp425
ag406
a(I1
I10
tp426
a(I3
I5
tp427
a(I1
I9
tp428
atp429
Rp430
sg15
I11
sg29
g20
((lp431
(I1
I2
tp432
a(I8
I1
tp433
a(I9
I2
tp434
a(I6
I1
tp435
a(I5
I7
tp436
a(I8
I9
tp437
a(I3
I0
tp438
a(I9
I4
tp439
a(I0
I2
tp440
a(I4
I0
tp441
atp442
Rp443
sg13
((I6
I10
tp444
(I5
I11
tp445
(I2
I0
tp446
(I9
I1
tp447
tp448
sg14
I12
sbssg161
S'mild_roomset'
p449
sbsg161
g163
sg164
(dp450
g203
((lp451
(F8.3299999999999272
I32
tp452
aF40.020000000000437
tp453
sg251
((lp454
(F20.799999999999272
I171
tp455
aF40.260000000000218
tp456
sg301
((lp457
F40.069999999999709
tp458
sg360
((lp459
(F3.0300000000006548
I25
tp460
aF40.100000000000364
tp461
sg404
((lp462
(F2.8599999999987631
I28
tp463
aF40.039999999999054
tp464
ssba(imeasure_core
ProblemSetSolution
p465
(dp466
g3
(imeasure_core
RoomSet
p467
(dp468
g6
(dp469
(iproblems
RoomID
p470
(dp471
g10
I11
sg11
(I10
I1
tp472
sg13
I7
sg14
I12
sg15
I13
sg16
I2405875930906139466
sb(imulti_robot_problem
MultiRobotState
p473
(dp474
g19
g20
((lp475
(I7
I3
tp476
a(I9
I1
tp477
a(I7
I1
tp478
a(I5
I6
tp479
a(I8
I11
tp480
a(I8
I0
tp481
a(I1
I4
tp482
a(I6
I2
tp483
a(I0
I7
tp484
ag472
a(I10
I3
tp485
a(I7
I2
tp486
a(I10
I4
tp487
a(I11
I7
tp488
a(I9
I0
tp489
a(I11
I5
tp490
a(I7
I4
tp491
a(I1
I5
tp492
a(I10
I2
tp493
a(I11
I6
tp494
a(I8
I4
tp495
atp496
Rp497
sg15
I13
sg29
g20
((lp498
(I12
I5
tp499
a(I10
I11
tp500
a(I8
I1
tp501
a(I7
I8
tp502
a(I8
I6
tp503
a(I6
I3
tp504
a(I2
I0
tp505
a(I2
I3
tp506
a(I5
I1
tp507
a(I10
I0
tp508
a(I3
I4
tp509
atp510
Rp511
sg13
((I10
I8
tp512
(I9
I2
tp513
(I4
I5
tp514
(I11
I8
tp515
(I1
I2
tp516
(I3
I1
tp517
(I0
I10
tp518
tp519
sg14
I12
sbs(iproblems
RoomID
p520
(dp521
g10
I11
sg11
(I7
I9
tp522
sg13
I6
sg14
I13
sg15
I10
sg16
I8744744311366254845
sb(imulti_robot_problem
MultiRobotState
p523
(dp524
g19
g20
((lp525
(I6
I9
tp526
a(I1
I3
tp527
a(I4
I9
tp528
a(I5
I6
tp529
a(I9
I8
tp530
a(I1
I8
tp531
a(I1
I0
tp532
ag522
a(I3
I4
tp533
a(I5
I8
tp534
a(I9
I7
tp535
atp536
Rp537
sg15
I10
sg29
g20
((lp538
(I0
I1
tp539
a(I7
I3
tp540
a(I9
I0
tp541
a(I1
I12
tp542
a(I4
I10
tp543
a(I5
I11
tp544
a(I9
I10
tp545
a(I7
I11
tp546
a(I3
I7
tp547
a(I0
I8
tp548
a(I9
I6
tp549
atp550
Rp551
sg13
((I0
I10
tp552
(I6
I3
tp553
(I4
I0
tp554
(I1
I6
tp555
(I7
I5
tp556
(I9
I9
tp557
tp558
sg14
I13
sbs(iproblems
RoomID
p559
(dp560
g10
I15
sg11
(I5
I8
tp561
sg13
I7
sg14
I13
sg15
I11
sg16
I8655808914197340073
sb(imulti_robot_problem
MultiRobotState
p562
(dp563
g19
g20
((lp564
(I5
I9
tp565
a(I6
I7
tp566
a(I6
I11
tp567
a(I1
I4
tp568
a(I0
I12
tp569
a(I0
I11
tp570
a(I7
I5
tp571
a(I1
I6
tp572
a(I0
I4
tp573
a(I5
I10
tp574
a(I3
I9
tp575
a(I4
I9
tp576
a(I10
I3
tp577
ag561
atp578
Rp579
sg15
I11
sg29
g20
((lp580
(I2
I7
tp581
a(I7
I3
tp582
a(I4
I6
tp583
a(I1
I12
tp584
a(I5
I6
tp585
a(I8
I5
tp586
a(I7
I7
tp587
a(I7
I9
tp588
a(I2
I0
tp589
a(I9
I4
tp590
a(I7
I10
tp591
a(I0
I8
tp592
a(I9
I6
tp593
a(I6
I5
tp594
a(I9
I7
tp595
atp596
Rp597
sg13
((I9
I11
tp598
(I8
I1
tp599
(I3
I4
tp600
(I8
I7
tp601
(I9
I1
tp602
(I2
I10
tp603
(I2
I12
tp604
tp605
sg14
I13
sbs(iproblems
RoomID
p606
(dp607
g10
I15
sg11
(I4
I8
tp608
sg13
I6
sg14
I13
sg15
I12
sg16
I4278205817407065157
sb(imulti_robot_problem
MultiRobotState
p609
(dp610
g19
g20
((lp611
(I11
I7
tp612
a(I2
I9
tp613
ag608
a(I5
I6
tp614
a(I2
I8
tp615
a(I6
I10
tp616
a(I3
I8
tp617
a(I11
I8
tp618
a(I3
I9
tp619
a(I1
I10
tp620
a(I1
I11
tp621
a(I7
I8
tp622
a(I2
I4
tp623
atp624
Rp625
sg15
I12
sg29
g20
((lp626
(I1
I2
tp627
a(I0
I1
tp628
a(I5
I4
tp629
a(I5
I7
tp630
a(I10
I4
tp631
a(I7
I1
tp632
a(I3
I1
tp633
a(I10
I5
tp634
a(I4
I7
tp635
a(I9
I9
tp636
a(I0
I10
tp637
a(I4
I3
tp638
a(I8
I12
tp639
a(I4
I1
tp640
a(I0
I2
tp641
atp642
Rp643
sg13
((I7
I10
tp644
(I6
I12
tp645
(I2
I0
tp646
(I9
I1
tp647
(I10
I3
tp648
(I4
I0
tp649
tp650
sg14
I13
sbs(iproblems
RoomID
p651
(dp652
g10
I15
sg11
(I3
I6
tp653
sg13
I7
sg14
I10
sg15
I13
sg16
I2796939073032698495
sb(imulti_robot_problem
MultiRobotState
p654
(dp655
g19
g20
((lp656
(I5
I9
tp657
a(I6
I9
tp658
a(I4
I6
tp659
a(I5
I0
tp660
a(I6
I6
tp661
a(I4
I5
tp662
a(I5
I4
tp663
a(I6
I7
tp664
a(I6
I2
tp665
a(I0
I5
tp666
a(I8
I7
tp667
a(I5
I1
tp668
a(I6
I4
tp669
a(I12
I9
tp670
a(I5
I8
tp671
a(I5
I3
tp672
a(I2
I7
tp673
a(I4
I9
tp674
a(I5
I5
tp675
a(I3
I1
tp676
a(I4
I8
tp677
a(I2
I0
tp678
a(I3
I9
tp679
a(I6
I5
tp680
ag653
a(I5
I7
tp681
a(I7
I8
tp682
atp683
Rp684
sg15
I13
sg29
g20
((lp685
(I1
I2
tp686
a(I8
I2
tp687
a(I2
I9
tp688
a(I12
I0
tp689
a(I4
I1
tp690
a(I12
I8
tp691
a(I6
I0
tp692
a(I9
I9
tp693
a(I2
I3
tp694
a(I9
I4
tp695
a(I1
I7
tp696
a(I0
I9
tp697
a(I7
I9
tp698
a(I3
I4
tp699
a(I3
I3
tp700
atp701
Rp702
sg13
((I10
I2
tp703
(I11
I8
tp704
(I12
I5
tp705
(I8
I9
tp706
(I10
I3
tp707
(I0
I3
tp708
(I11
I2
tp709
tp710
sg14
I10
sbssg161
S'heavy_roomset'
p711
sbsg161
g163
sg164
(dp712
g470
((lp713
F42.440000000000509
tp714
sg520
((lp715
(F17.569999999999709
I13
tp716
aF40.110000000000582
tp717
sg559
((lp718
F42.670000000000073
tp719
sg606
((lp720
(F29.709999999999127
I15
tp721
aF40.340000000000146
tp722
sg651
((lp723
F40.099999999998545
tp724
ssba(imeasure_core
ProblemSetSolution
p725
(dp726
g3
g4
sg161
S"AnytimeBeam-w20-gf(4, 'lin')_with_PowerHeuristic2"
p727
sg164
(dp728
g8
((lp729
(F0.48000000000138243
I10
tp730
aF40.100000000000364
tp731
sg44
((lp732
(F1.0200000000004366
I14
tp733
aF40.100000000000364
tp734
sg71
((lp735
(F3.3500000000003638
I9
tp736
aF40.25
tp737
sg105
((lp738
(F0.12000000000080036
I49
tp739
a(F0.32999999999992724
I47
tp740
a(F0.53000000000065484
I45
tp741
a(F0.7999999999992724
I43
tp742
a(F1.2199999999993452
I41
tp743
a(F1.6399999999994179
I40
tp744
a(F2.6399999999994179
I39
tp745
a(F3.5300000000006548
I38
tp746
a(F4.7800000000006548
I37
tp747
a(F5.9500000000007276
I35
tp748
a(F7.5799999999999272
I33
tp749
a(F9.9099999999998545
I31
tp750
a(F11.8700000000008
I29
tp751
a(F13.420000000000073
I27
tp752
a(F15.389999999999418
I25
tp753
a(F19.700000000000728
I24
tp754
a(F23.569999999999709
I22
tp755
a(F26.840000000000146
I20
tp756
aF40.0
tp757
sg130
((lp758
(F10.319999999999709
I144
tp759
aF40.260000000000218
tp760
ssba(imeasure_core
ProblemSetSolution
p761
(dp762
g3
g200
sg161
g727
sg164
(dp763
g203
((lp764
(F9.25
I32
tp765
aF40.469999999999345
tp766
sg251
((lp767
(F22.920000000000073
I171
tp768
aF40.040000000000873
tp769
sg301
((lp770
F40.0
tp771
sg360
((lp772
(F3.3099999999994907
I25
tp773
aF40.039999999999054
tp774
sg404
((lp775
(F3.0799999999999272
I28
tp776
aF40.030000000000655
tp777
ssba(imeasure_core
ProblemSetSolution
p778
(dp779
g3
g467
sg161
g727
sg164
(dp780
g470
((lp781
F43.1299999999992
tp782
sg520
((lp783
(F19.319999999999709
I13
tp784
aF41.760000000000218
tp785
sg559
((lp786
F43.0
tp787
sg606
((lp788
(F32.440000000000509
I15
tp789
aF41.090000000000146
tp790
sg651
((lp791
F40.219999999999345
tp792
ssba(imeasure_core
ProblemSetSolution
p793
(dp794
g3
g4
sg161
S"AnytimeBeam-w20-gf(8, 'lin')_with_PowerHeuristic2"
p795
sg164
(dp796
g8
((lp797
(F0.48000000000138243
I10
tp798
aF40.149999999999636
tp799
sg44
((lp800
(F1.25
I14
tp801
aF40.100000000000364
tp802
sg71
((lp803
(F3.9200000000000728
I9
tp804
aF40.069999999999709
tp805
sg105
((lp806
(F0.12000000000080036
I49
tp807
a(F0.32999999999992724
I47
tp808
a(F0.54000000000087311
I45
tp809
a(F0.80000000000109139
I43
tp810
a(F1.2300000000013824
I41
tp811
a(F1.6500000000014552
I40
tp812
a(F2.6300000000010186
I39
tp813
a(F3.5100000000002183
I38
tp814
a(F4.75
I37
tp815
a(F5.9000000000014552
I35
tp816
a(F7.5100000000002183
I33
tp817
a(F9.8100000000013097
I31
tp818
a(F11.740000000001601
I29
tp819
a(F13.280000000000655
I27
tp820
a(F15.240000000001601
I25
tp821
a(F19.540000000000873
I24
tp822
a(F23.380000000001019
I22
tp823
a(F26.640000000001237
I20
tp824
aF40.0
tp825
sg130
((lp826
(F12.5
I144
tp827
aF40.390000000001237
tp828
ssba(imeasure_core
ProblemSetSolution
p829
(dp830
g3
g200
sg161
g795
sg164
(dp831
g203
((lp832
(F10.0
I24
tp833
aF40.260000000000218
tp834
sg251
((lp835
(F25.919999999998254
I171
tp836
aF40.1299999999992
tp837
sg301
((lp838
F40.010000000000218
tp839
sg360
((lp840
(F3.4400000000005093
I25
tp841
aF40.020000000000437
tp842
sg404
((lp843
(F3.4399999999986903
I28
tp844
aF40.1299999999992
tp845
ssba(imeasure_core
ProblemSetSolution
p846
(dp847
g3
g467
sg161
g795
sg164
(dp848
g470
((lp849
F44.389999999999418
tp850
sg520
((lp851
(F22.260000000000218
I13
tp852
aF41.650000000001455
tp853
sg559
((lp854
F43.350000000000364
tp855
sg606
((lp856
(F37.809999999997672
I15
tp857
aF40.879999999997381
tp858
sg651
((lp859
F40.480000000003201
tp860
ssba(imeasure_core
ProblemSetSolution
p861
(dp862
g3
g4
sg161
S"AnytimeBeam-w20-gf(16, 'lin')_with_PowerHeuristic2"
p863
sg164
(dp864
g8
((lp865
(F0.47000000000116415
I10
tp866
aF40.240000000001601
tp867
sg44
((lp868
(F1.3599999999969441
I14
tp869
aF40.239999999997963
tp870
sg71
((lp871
(F4.4399999999986903
I9
tp872
aF41.450000000000728
tp873
sg105
((lp874
(F0.11999999999898137
I49
tp875
a(F0.32999999999810825
I47
tp876
a(F0.54000000000087311
I45
tp877
a(F0.7999999999992724
I43
tp878
a(F1.2299999999995634
I41
tp879
a(F1.6499999999978172
I40
tp880
a(F2.6499999999978172
I39
tp881
a(F3.5400000000008731
I38
tp882
a(F4.7900000000008731
I37
tp883
a(F5.930000000000291
I35
tp884
a(F7.5600000000013097
I33
tp885
a(F9.8600000000005821
I31
tp886
a(F11.81000000000131
I29
tp887
a(F13.340000000000146
I27
tp888
a(F15.31000000000131
I25
tp889
a(F19.619999999998981
I24
tp890
a(F23.470000000001164
I22
tp891
a(F26.729999999999563
I20
tp892
aF40.0
tp893
sg130
((lp894
(F15.590000000000146
I144
tp895
aF40.270000000000437
tp896
ssba(imeasure_core
ProblemSetSolution
p897
(dp898
g3
g200
sg161
g863
sg164
(dp899
g203
((lp900
(F11.650000000001455
I24
tp901
aF40.159999999999854
tp902
sg251
((lp903
(F29.030000000002474
I171
tp904
aF40.030000000002474
tp905
sg301
((lp906
F40.019999999996799
tp907
sg360
((lp908
(F3.4099999999998545
I25
tp909
aF40.159999999999854
tp910
sg404
((lp911
(F3.9200000000018917
I28
tp912
aF40.760000000002037
tp913
ssba(imeasure_core
ProblemSetSolution
p914
(dp915
g3
g467
sg161
g863
sg164
(dp916
g470
((lp917
F45.779999999998836
tp918
sg520
((lp919
(F26.229999999999563
I13
tp920
aF40.340000000000146
tp921
sg559
((lp922
F43.610000000000582
tp923
sg606
((lp924
F41.900000000001455
tp925
sg651
((lp926
F40.399999999997817
tp927
ssba(imeasure_core
ProblemSetSolution
p928
(dp929
g3
g4
sg161
S"AnytimeBeam-w20-gf(2, 'lin')_with_LinearHeuristic"
p930
sg164
(dp931
g8
((lp932
F40.039999999997235
tp933
sg44
((lp934
F40.100000000002183
tp935
sg71
((lp936
(F2.2999999999992724
I6
tp937
aF40.5
tp938
sg105
((lp939
(F0.020000000000436557
I22
tp940
a(F0.13999999999941792
I20
tp941
aF40.0
tp942
sg130
((lp943
(F1.75
I58
tp944
aF40.059999999997672
tp945
ssba(imeasure_core
ProblemSetSolution
p946
(dp947
g3
g200
sg161
g930
sg164
(dp948
g203
((lp949
F40.210000000002765
tp950
sg251
((lp951
F40.479999999999563
tp952
sg301
((lp953
F40.069999999999709
tp954
sg360
((lp955
F40.489999999997963
tp956
sg404
((lp957
(F22.860000000000582
I146
tp958
aF40.260000000002037
tp959
ssba(imeasure_core
ProblemSetSolution
p960
(dp961
g3
g467
sg161
g930
sg164
(dp962
g470
((lp963
F42.639999999999418
tp964
sg520
((lp965
(F18.029999999998836
I8
tp966
aF40.930000000000291
tp967
sg559
((lp968
F40.889999999999418
tp969
sg606
((lp970
F40.139999999999418
tp971
sg651
((lp972
F43.909999999999854
tp973
ssba(imeasure_core
ProblemSetSolution
p974
(dp975
g3
g4
sg161
S"AnytimeBeam-w20-gf(4, 'lin')_with_LinearHeuristic"
p976
sg164
(dp977
g8
((lp978
F40.040000000000873
tp979
sg44
((lp980
F40.180000000000291
tp981
sg71
((lp982
(F2.3400000000001455
I6
tp983
aF40.520000000000437
tp984
sg105
((lp985
(F0.0099999999983992893
I22
tp986
a(F0.13999999999941792
I20
tp987
aF40.0
tp988
sg130
((lp989
(F1.9599999999991269
I58
tp990
a(F20.049999999999272
I56
tp991
a(F38.119999999998981
I55
tp992
aF40.009999999998399
tp993
ssba(imeasure_core
ProblemSetSolution
p994
(dp995
g3
g200
sg161
g976
sg164
(dp996
g203
((lp997
F40.170000000001892
tp998
sg251
((lp999
F40.25
tp1000
sg301
((lp1001
F40.059999999997672
tp1002
sg360
((lp1003
F40.0
tp1004
sg404
((lp1005
(F24.460000000002765
I146
tp1006
aF40.06000000000131
tp1007
ssba(imeasure_core
ProblemSetSolution
p1008
(dp1009
g3
g467
sg161
g976
sg164
(dp1010
g470
((lp1011
F43.279999999998836
tp1012
sg520
((lp1013
(F19.430000000000291
I8
tp1014
aF41.75
tp1015
sg559
((lp1016
F41.340000000000146
tp1017
sg606
((lp1018
F41.319999999999709
tp1019
sg651
((lp1020
F45.669999999998254
tp1021
ssba(imeasure_core
ProblemSetSolution
p1022
(dp1023
g3
g4
sg161
S"AnytimeBeam-w20-gf(8, 'lin')_with_LinearHeuristic"
p1024
sg164
(dp1025
g8
((lp1026
F40.409999999999854
tp1027
sg44
((lp1028
F40.340000000000146
tp1029
sg71
((lp1030
(F2.4099999999998545
I6
tp1031
aF40.180000000000291
tp1032
sg105
((lp1033
(F0.020000000000436557
I22
tp1034
a(F0.13999999999941792
I20
tp1035
aF40.0
tp1036
sg130
((lp1037
(F2.7099999999991269
I58
tp1038
a(F22.0
I56
tp1039
aF40.0
tp1040
ssba(imeasure_core
ProblemSetSolution
p1041
(dp1042
g3
g200
sg161
g1024
sg164
(dp1043
g203
((lp1044
F40.259999999998399
tp1045
sg251
((lp1046
F40.190000000002328
tp1047
sg301
((lp1048
F40.019999999996799
tp1049
sg360
((lp1050
F40.130000000001019
tp1051
sg404
((lp1052
(F27.380000000001019
I146
tp1053
aF40.080000000001746
tp1054
ssba(imeasure_core
ProblemSetSolution
p1055
(dp1056
g3
g467
sg161
g1024
sg164
(dp1057
g470
((lp1058
F47.389999999999418
tp1059
sg520
((lp1060
(F23.31000000000131
I8
tp1061
aF44.510000000002037
tp1062
sg559
((lp1063
F42.75
tp1064
sg606
((lp1065
F40.139999999999418
tp1066
sg651
((lp1067
F53.459999999999127
tp1068
ssba(imeasure_core
ProblemSetSolution
p1069
(dp1070
g3
g4
sg161
S"AnytimeBeam-w20-gf(16, 'lin')_with_LinearHeuristic"
p1071
sg164
(dp1072
g8
((lp1073
F40.340000000000146
tp1074
sg44
((lp1075
F40.539999999997235
tp1076
sg71
((lp1077
(F2.75
I6
tp1078
aF40.110000000000582
tp1079
sg105
((lp1080
(F0.020000000000436557
I22
tp1081
a(F0.13999999999941792
I20
tp1082
aF40.0
tp1083
sg130
((lp1084
(F3.3600000000005821
I58
tp1085
a(F25.270000000000437
I56
tp1086
aF40.010000000002037
tp1087
ssba(imeasure_core
ProblemSetSolution
p1088
(dp1089
g3
g200
sg161
g1071
sg164
(dp1090
g203
((lp1091
F40.139999999999418
tp1092
sg251
((lp1093
F40.380000000001019
tp1094
sg301
((lp1095
F40.020000000000437
tp1096
sg360
((lp1097
F40.279999999998836
tp1098
sg404
((lp1099
(F32.06000000000131
I146
tp1100
aF40.040000000000873
tp1101
ssba(imeasure_core
ProblemSetSolution
p1102
(dp1103
g3
g467
sg161
g1071
sg164
(dp1104
g470
((lp1105
F44.430000000000291
tp1106
sg520
((lp1107
(F28.209999999999127
I8
tp1108
aF40.790000000000873
tp1109
sg559
((lp1110
F45.360000000000582
tp1111
sg606
((lp1112
F40.409999999999854
tp1113
sg651
((lp1114
F58.93999999999869
tp1115
ssba.