(lp0
(imeasure_core
ProblemSetSolution
p1
(dp2
S'roomset'
p3
(imeasure_core
RoomSet
p4
(dp5
S'rooms'
p6
(dp7
(iproblems
RoomID
p8
(dp9
S'dusts'
p10
I7
sS'obstacles'
p11
(I1
I3
tp12
sS'robots'
p13
I1
sS'height'
p14
I7
sS'width'
p15
I9
sS'seed'
p16
I1486246605650367638
sb(imulti_robot_problem
MultiRobotState
p17
(dp18
S'obstacle_locations'
p19
c__builtin__
frozenset
p20
((lp21
(I0
I1
tp22
a(I8
I3
tp23
ag12
a(I0
I3
tp24
a(I0
I2
tp25
atp26
Rp27
sg15
I9
sS'dirt_locations'
p28
g20
((lp29
(I7
I5
tp30
a(I7
I0
tp31
a(I0
I4
tp32
a(I1
I0
tp33
a(I4
I4
tp34
a(I6
I5
tp35
a(I4
I0
tp36
atp37
Rp38
sg13
((I5
I1
tp39
tp40
sg14
I7
sbs(iproblems
RoomID
p41
(dp42
g10
I9
sg11
(I7
I5
tp43
sg13
I4
sg14
I10
sg15
I10
sg16
I679259829289197625
sb(imulti_robot_problem
MultiRobotState
p44
(dp45
g19
g20
((lp46
(I9
I6
tp47
a(I8
I6
tp48
a(I7
I6
tp49
ag43
a(I7
I0
tp50
atp51
Rp52
sg15
I10
sg28
g20
((lp53
(I5
I4
tp54
a(I2
I6
tp55
a(I7
I1
tp56
a(I6
I1
tp57
a(I1
I6
tp58
a(I0
I5
tp59
a(I8
I7
tp60
a(I0
I9
tp61
a(I9
I5
tp62
atp63
Rp64
sg13
((I7
I8
tp65
(I6
I7
tp66
(I3
I5
tp67
(I3
I9
tp68
tp69
sg14
I10
sbs(iproblems
RoomID
p70
(dp71
g10
I6
sg11
(I1
I6
tp72
sg13
I4
sg14
I8
sg15
I10
sg16
I403795515464475257
sb(imulti_robot_problem
MultiRobotState
p73
(dp74
g19
g20
((lp75
(I8
I3
tp76
a(I1
I3
tp77
a(I6
I7
tp78
a(I0
I4
tp79
ag72
a(I4
I1
tp80
a(I0
I5
tp81
atp82
Rp83
sg15
I10
sg28
g20
((lp84
(I7
I3
tp85
a(I4
I7
tp86
a(I2
I2
tp87
a(I8
I0
tp88
a(I0
I2
tp89
a(I0
I7
tp90
atp91
Rp92
sg13
((I8
I2
tp93
(I6
I1
tp94
(I5
I0
tp95
(I2
I0
tp96
tp97
sg14
I8
sbs(iproblems
RoomID
p98
(dp99
g10
I5
sg11
(I3
I4
tp100
sg13
I1
sg14
I9
sg15
I9
sg16
I2685440357799139976
sb(imulti_robot_problem
MultiRobotState
p101
(dp102
g19
g20
((lp103
(I8
I3
tp104
a(I1
I3
tp105
a(I5
I6
tp106
ag100
a(I2
I4
tp107
a(I3
I8
tp108
a(I2
I3
tp109
a(I7
I8
tp110
a(I1
I1
tp111
atp112
Rp113
sg15
I9
sg28
g20
((lp114
(I0
I1
tp115
a(I0
I0
tp116
a(I3
I1
tp117
a(I8
I7
tp118
a(I5
I0
tp119
atp120
Rp121
sg13
((I5
I5
tp122
tp123
sg14
I9
sbs(iproblems
RoomID
p124
(dp125
g10
I6
sg11
(I4
I4
tp126
sg13
I4
sg14
I9
sg15
I9
sg16
I5891625650498269233
sb(imulti_robot_problem
MultiRobotState
p127
(dp128
g19
g20
((lp129
(I2
I7
tp130
a(I4
I5
tp131
ag126
a(I3
I6
tp132
atp133
Rp134
sg15
I9
sg28
g20
((lp135
(I7
I4
tp136
a(I8
I3
tp137
a(I0
I5
tp138
a(I5
I5
tp139
a(I6
I6
tp140
a(I4
I0
tp141
atp142
Rp143
sg13
((I4
I6
tp144
(I7
I1
tp145
(I0
I4
tp146
(I7
I2
tp147
tp148
sg14
I9
sbssS'name'
p149
S'easy_roomset'
p150
sbsg149
S"AnytimeBeam-w5-gf(1.5, 'exp')_with_PowerHeuristic2"
p151
sS'solutions'
p152
(dp153
g8
((lp154
(F0.20000000000436557
I45
tp155
a(F1.9800000000032014
I44
tp156
a(F2.6399999999994179
I37
tp157
a(F3.25
I36
tp158
a(F3.8800000000046566
I34
tp159
a(F5.9500000000043656
I33
tp160
a(F8.180000000000291
I31
tp161
a(F11.130000000004657
I30
tp162
a(F14.310000000004948
I28
tp163
a(F16.740000000005239
I26
tp164
a(F21.760000000002037
I25
tp165
a(F28.200000000004366
I24
tp166
aF40.0
tp167
sg41
((lp168
(F2.9500000000043656
I20
tp169
aF40.010000000002037
tp170
sg70
((lp171
(F37.360000000000582
I134
tp172
aF40.0
tp173
sg98
((lp174
(F0.16999999999825377
I47
tp175
a(F1.2799999999988358
I45
tp176
a(F2.3300000000017462
I43
tp177
a(F3.3300000000017462
I35
tp178
a(F4.4899999999979627
I33
tp179
a(F5.7699999999967986
I31
tp180
a(F7.0999999999985448
I29
tp181
a(F9.4499999999970896
I27
tp182
a(F12.69999999999709
I25
tp183
a(F15.470000000001164
I23
tp184
aF40.0
tp185
sg124
((lp186
(F1.819999999999709
I8
tp187
aF40.150000000001455
tp188
ssba(imeasure_core
ProblemSetSolution
p189
(dp190
g3
(imeasure_core
RoomSet
p191
(dp192
g6
(dp193
(iproblems
RoomID
p194
(dp195
g10
I9
sg11
(I7
I7
tp196
sg13
I4
sg14
I12
sg15
I12
sg16
I679259829289197625
sb(imulti_robot_problem
MultiRobotState
p197
(dp198
g19
g20
((lp199
(I6
I4
tp200
a(I6
I9
tp201
a(I6
I6
tp202
a(I5
I6
tp203
a(I9
I8
tp204
a(I11
I9
tp205
ag196
a(I1
I4
tp206
a(I11
I7
tp207
a(I7
I5
tp208
a(I8
I7
tp209
a(I4
I2
tp210
a(I8
I5
tp211
a(I6
I5
tp212
a(I10
I8
tp213
a(I10
I5
tp214
a(I6
I7
tp215
a(I6
I8
tp216
a(I10
I7
tp217
a(I9
I6
tp218
a(I7
I6
tp219
a(I8
I10
tp220
a(I7
I4
tp221
a(I11
I8
tp222
a(I7
I10
tp223
a(I8
I6
tp224
a(I6
I1
tp225
a(I9
I7
tp226
atp227
Rp228
sg15
I12
sg28
g20
((lp229
(I2
I7
tp230
a(I9
I0
tp231
a(I8
I2
tp232
a(I7
I1
tp233
a(I11
I0
tp234
a(I0
I11
tp235
a(I1
I6
tp236
a(I1
I7
tp237
a(I11
I6
tp238
atp239
Rp240
sg13
((I9
I10
tp241
(I8
I9
tp242
(I3
I7
tp243
(I3
I11
tp244
tp245
sg14
I12
sbs(iproblems
RoomID
p246
(dp247
g10
I5
sg11
(I9
I1
tp248
sg13
I3
sg14
I11
sg15
I11
sg16
I2685440357799139976
sb(imulti_robot_problem
MultiRobotState
p249
(dp250
g19
g20
((lp251
(I7
I3
tp252
a(I10
I4
tp253
a(I9
I3
tp254
ag248
a(I7
I1
tp255
a(I5
I6
tp256
a(I10
I6
tp257
a(I1
I4
tp258
a(I9
I9
tp259
a(I3
I9
tp260
a(I9
I4
tp261
a(I6
I8
tp262
a(I9
I6
tp263
a(I3
I4
tp264
a(I10
I3
tp265
a(I7
I2
tp266
a(I5
I3
tp267
a(I8
I3
tp268
a(I5
I5
tp269
a(I10
I7
tp270
a(I8
I5
tp271
a(I9
I2
tp272
a(I3
I6
tp273
a(I4
I5
tp274
a(I6
I5
tp275
a(I7
I10
tp276
a(I9
I5
tp277
a(I3
I5
tp278
a(I7
I8
tp279
a(I2
I4
tp280
a(I10
I9
tp281
atp282
Rp283
sg15
I11
sg28
g20
((lp284
(I1
I2
tp285
a(I9
I10
tp286
a(I6
I1
tp287
a(I4
I1
tp288
a(I0
I2
tp289
atp290
Rp291
sg13
((I6
I6
tp292
(I0
I0
tp293
(I10
I8
tp294
tp295
sg14
I11
sbs(iproblems
RoomID
p296
(dp297
g10
I7
sg11
(I8
I8
tp298
sg13
I3
sg14
I9
sg15
I9
sg16
I7834319822419845881
sb(imulti_robot_problem
MultiRobotState
p299
(dp300
g19
g20
((lp301
(I4
I7
tp302
a(I1
I3
tp303
a(I5
I0
tp304
a(I6
I6
tp305
a(I5
I6
tp306
a(I2
I8
tp307
a(I3
I5
tp308
a(I4
I6
tp309
a(I2
I6
tp310
a(I0
I5
tp311
a(I3
I7
tp312
a(I0
I3
tp313
a(I0
I8
tp314
a(I8
I5
tp315
a(I5
I8
tp316
a(I3
I3
tp317
a(I2
I7
tp318
a(I6
I7
tp319
a(I5
I5
tp320
a(I7
I8
tp321
a(I4
I4
tp322
a(I1
I5
tp323
a(I1
I8
tp324
ag298
a(I3
I6
tp325
a(I1
I7
tp326
a(I4
I5
tp327
a(I5
I3
tp328
a(I3
I4
tp329
atp330
Rp331
sg15
I9
sg28
g20
((lp332
(I7
I4
tp333
a(I2
I0
tp334
a(I6
I2
tp335
a(I7
I0
tp336
a(I8
I7
tp337
a(I7
I1
tp338
a(I1
I4
tp339
atp340
Rp341
sg13
((I2
I1
tp342
(I2
I3
tp343
(I5
I7
tp344
tp345
sg14
I9
sbs(iproblems
RoomID
p346
(dp347
g10
I10
sg11
(I1
I5
tp348
sg13
I4
sg14
I12
sg15
I10
sg16
I1737871632067391849
sb(imulti_robot_problem
MultiRobotState
p349
(dp350
g19
g20
((lp351
(I3
I2
tp352
a(I0
I0
tp353
a(I6
I6
tp354
a(I5
I6
tp355
a(I2
I8
tp356
a(I2
I10
tp357
a(I8
I9
tp358
a(I6
I2
tp359
a(I2
I3
tp360
a(I8
I7
tp361
a(I5
I1
tp362
a(I8
I5
tp363
a(I5
I8
tp364
a(I8
I3
tp365
a(I5
I5
tp366
a(I7
I8
tp367
a(I7
I6
tp368
a(I8
I10
tp369
ag348
a(I6
I5
tp370
a(I2
I2
tp371
a(I4
I1
tp372
a(I2
I4
tp373
atp374
Rp375
sg15
I10
sg28
g20
((lp376
(I0
I1
tp377
a(I4
I10
tp378
a(I4
I8
tp379
a(I3
I0
tp380
a(I9
I6
tp381
a(I3
I10
tp382
a(I5
I11
tp383
a(I2
I7
tp384
a(I1
I9
tp385
a(I3
I4
tp386
atp387
Rp388
sg13
((I4
I9
tp389
(I8
I11
tp390
(I4
I0
tp391
(I3
I9
tp392
tp393
sg14
I12
sbs(iproblems
RoomID
p394
(dp395
g10
I6
sg11
(I3
I9
tp396
sg13
I4
sg14
I11
sg15
I11
sg16
I5891625650498269233
sb(imulti_robot_problem
MultiRobotState
p397
(dp398
g19
g20
((lp399
(I7
I3
tp400
a(I4
I7
tp401
a(I6
I6
tp402
a(I5
I6
tp403
a(I2
I8
tp404
a(I6
I2
tp405
a(I5
I1
tp406
a(I3
I7
tp407
a(I8
I5
tp408
a(I5
I5
tp409
a(I2
I9
tp410
a(I7
I6
tp411
a(I4
I4
tp412
a(I2
I2
tp413
a(I1
I1
tp414
a(I9
I7
tp415
a(I3
I2
tp416
a(I10
I4
tp417
a(I4
I5
tp418
a(I9
I3
tp419
a(I10
I5
tp420
a(I2
I10
tp421
a(I7
I5
tp422
a(I2
I3
tp423
a(I8
I3
tp424
a(I4
I6
tp425
a(I5
I2
tp426
a(I6
I1
tp427
a(I3
I8
tp428
a(I1
I8
tp429
ag396
a(I4
I3
tp430
a(I9
I5
tp431
a(I3
I4
tp432
a(I8
I4
tp433
atp434
Rp435
sg15
I11
sg28
g20
((lp436
(I8
I8
tp437
a(I5
I10
tp438
a(I9
I1
tp439
a(I10
I7
tp440
a(I1
I6
tp441
a(I7
I9
tp442
atp443
Rp444
sg13
((I5
I7
tp445
(I8
I1
tp446
(I0
I5
tp447
(I4
I0
tp448
tp449
sg14
I11
sbssg149
S'mild_roomset'
p450
sbsg149
g151
sg152
(dp451
g194
((lp452
F40.629999999997381
tp453
sg246
((lp454
(F27.540000000000873
I127
tp455
aF40.010000000002037
tp456
sg296
((lp457
(F0.13999999999941792
I25
tp458
aF40.010000000002037
tp459
sg346
((lp460
(F1.1699999999982538
I12
tp461
aF40.269999999996799
tp462
sg394
((lp463
(F16.94999999999709
I64
tp464
aF40.069999999999709
tp465
ssba(imeasure_core
ProblemSetSolution
p466
(dp467
g3
(imeasure_core
RoomSet
p468
(dp469
g6
(dp470
(iproblems
RoomID
p471
(dp472
g10
I12
sg11
(I6
I3
tp473
sg13
I5
sg14
I10
sg15
I12
sg16
I1486246605650367638
sb(imulti_robot_problem
MultiRobotState
p474
(dp475
g19
g20
((lp476
(I5
I9
tp477
a(I1
I3
tp478
a(I7
I1
tp479
a(I2
I7
tp480
a(I1
I4
tp481
a(I6
I2
tp482
a(I1
I6
tp483
a(I2
I1
tp484
a(I0
I3
tp485
a(I6
I5
tp486
a(I1
I2
tp487
a(I1
I5
tp488
a(I4
I1
tp489
a(I3
I1
tp490
ag473
a(I2
I0
tp491
a(I10
I0
tp492
a(I5
I2
tp493
a(I1
I1
tp494
a(I8
I4
tp495
atp496
Rp497
sg15
I12
sg28
g20
((lp498
(I11
I7
tp499
a(I11
I4
tp500
a(I9
I1
tp501
a(I11
I8
tp502
a(I2
I8
tp503
a(I6
I0
tp504
a(I0
I6
tp505
a(I11
I1
tp506
a(I0
I4
tp507
a(I4
I9
tp508
a(I10
I9
tp509
a(I9
I7
tp510
atp511
Rp512
sg13
((I2
I4
tp513
(I10
I1
tp514
(I2
I5
tp515
(I9
I8
tp516
(I6
I6
tp517
tp518
sg14
I10
sbs(iproblems
RoomID
p519
(dp520
g10
I14
sg11
(I7
I6
tp521
sg13
I7
sg14
I13
sg15
I13
sg16
I679259829289197625
sb(imulti_robot_problem
MultiRobotState
p522
(dp523
g19
g20
((lp524
(I6
I4
tp525
a(I4
I8
tp526
a(I12
I7
tp527
a(I10
I6
tp528
a(I7
I5
tp529
a(I12
I11
tp530
a(I9
I6
tp531
a(I1
I2
tp532
a(I11
I7
tp533
a(I10
I7
tp534
ag521
a(I6
I3
tp535
a(I6
I2
tp536
a(I4
I3
tp537
a(I3
I4
tp538
a(I12
I8
tp539
atp540
Rp541
sg15
I13
sg28
g20
((lp542
(I2
I7
tp543
a(I12
I1
tp544
a(I9
I2
tp545
a(I2
I8
tp546
a(I5
I7
tp547
a(I10
I0
tp548
a(I1
I4
tp549
a(I0
I12
tp550
a(I7
I4
tp551
a(I10
I9
tp552
a(I4
I2
tp553
a(I11
I4
tp554
a(I11
I6
tp555
a(I1
I9
tp556
atp557
Rp558
sg13
((I9
I11
tp559
(I9
I10
tp560
(I4
I7
tp561
(I4
I12
tp562
(I7
I1
tp563
(I1
I8
tp564
(I1
I6
tp565
tp566
sg14
I13
sbs(iproblems
RoomID
p567
(dp568
g10
I10
sg11
(I6
I9
tp569
sg13
I5
sg14
I12
sg15
I12
sg16
I2685440357799139976
sb(imulti_robot_problem
MultiRobotState
p570
(dp571
g19
g20
((lp572
(I4
I10
tp573
ag569
a(I9
I1
tp574
a(I5
I11
tp575
a(I3
I0
tp576
a(I0
I7
tp577
a(I3
I9
tp578
a(I0
I5
tp579
a(I1
I4
tp580
a(I0
I3
tp581
a(I4
I0
tp582
a(I1
I2
tp583
a(I11
I10
tp584
a(I6
I10
tp585
a(I5
I6
tp586
a(I9
I11
tp587
a(I7
I9
tp588
a(I4
I5
tp589
a(I3
I5
tp590
a(I3
I4
tp591
a(I2
I4
tp592
a(I1
I9
tp593
atp594
Rp595
sg15
I12
sg28
g20
((lp596
(I11
I7
tp597
a(I8
I3
tp598
a(I10
I11
tp599
a(I7
I1
tp600
a(I10
I5
tp601
a(I8
I10
tp602
a(I6
I3
tp603
a(I3
I6
tp604
a(I9
I10
tp605
a(I6
I5
tp606
atp607
Rp608
sg13
((I7
I7
tp609
(I0
I0
tp610
(I11
I9
tp611
(I0
I2
tp612
(I4
I1
tp613
tp614
sg14
I12
sbs(iproblems
RoomID
p615
(dp616
g10
I11
sg11
(I11
I9
tp617
sg13
I7
sg14
I12
sg15
I12
sg16
I5891625650498269233
sb(imulti_robot_problem
MultiRobotState
p618
(dp619
g19
g20
((lp620
(I4
I4
tp621
a(I4
I8
tp622
a(I5
I6
tp623
a(I8
I11
tp624
ag617
a(I7
I7
tp625
a(I7
I1
tp626
a(I9
I10
tp627
a(I3
I9
tp628
a(I1
I9
tp629
a(I6
I7
tp630
a(I10
I7
tp631
a(I7
I6
tp632
a(I5
I7
tp633
a(I2
I11
tp634
a(I6
I11
tp635
a(I9
I11
tp636
a(I7
I10
tp637
a(I10
I9
tp638
atp639
Rp640
sg15
I12
sg28
g20
((lp641
(I11
I7
tp642
a(I11
I4
tp643
a(I4
I6
tp644
a(I5
I11
tp645
a(I8
I10
tp646
a(I0
I5
tp647
a(I8
I7
tp648
a(I1
I7
tp649
a(I10
I1
tp650
a(I1
I1
tp651
a(I5
I5
tp652
atp653
Rp654
sg13
((I6
I8
tp655
(I9
I2
tp656
(I0
I6
tp657
(I10
I3
tp658
(I9
I5
tp659
(I5
I0
tp660
(I9
I8
tp661
tp662
sg14
I12
sbs(iproblems
RoomID
p663
(dp664
g10
I11
sg11
(I2
I7
tp665
sg13
I6
sg14
I11
sg15
I13
sg16
I403795515464475257
sb(imulti_robot_problem
MultiRobotState
p666
(dp667
g19
g20
((lp668
g665
a(I10
I8
tp669
a(I1
I7
tp670
a(I3
I10
tp671
a(I4
I4
tp672
a(I1
I4
tp673
a(I12
I5
tp674
a(I0
I6
tp675
a(I0
I5
tp676
a(I3
I6
tp677
a(I2
I2
tp678
a(I0
I8
tp679
a(I7
I9
tp680
atp681
Rp682
sg15
I13
sg28
g20
((lp683
(I6
I4
tp684
a(I0
I0
tp685
a(I2
I9
tp686
a(I11
I5
tp687
a(I8
I9
tp688
a(I11
I1
tp689
a(I2
I3
tp690
a(I1
I10
tp691
a(I12
I2
tp692
a(I0
I3
tp693
a(I5
I2
tp694
atp695
Rp696
sg13
((I10
I3
tp697
(I7
I2
tp698
(I7
I0
tp699
(I3
I1
tp700
(I5
I10
tp701
(I9
I4
tp702
tp703
sg14
I11
sbssg149
S'heavy_roomset'
p704
sbsg149
g151
sg152
(dp705
g471
((lp706
F42.089999999996508
tp707
sg519
((lp708
F67.240000000005239
tp709
sg567
((lp710
(F25.519999999996799
I58
tp711
aF40.069999999999709
tp712
sg615
((lp713
F51.379999999997381
tp714
sg663
((lp715
F42.599999999998545
tp716
ssba(imeasure_core
ProblemSetSolution
p717
(dp718
g3
g4
sg149
S"AnytimeBeam-w15-gf(1.5, 'exp')_with_PowerHeuristic2"
p719
sg152
(dp720
g8
((lp721
(F0.090000000003783498
I45
tp722
a(F1.5999999999985448
I44
tp723
a(F2.2399999999979627
I37
tp724
a(F2.8499999999985448
I36
tp725
a(F3.4800000000032014
I34
tp726
a(F5.5600000000049477
I33
tp727
a(F7.7900000000008731
I31
tp728
a(F10.760000000002037
I30
tp729
a(F13.950000000004366
I28
tp730
a(F16.380000000004657
I26
tp731
a(F21.410000000003492
I25
tp732
a(F27.849999999998545
I24
tp733
aF40.0
tp734
sg41
((lp735
(F2.9599999999991269
I20
tp736
aF40.130000000004657
tp737
sg70
((lp738
(F37.359999999993306
I134
tp739
aF40.019999999996799
tp740
sg98
((lp741
(F0.16999999999825377
I47
tp742
a(F1.2699999999967986
I45
tp743
a(F2.319999999999709
I43
tp744
a(F3.3099999999976717
I35
tp745
a(F4.4599999999991269
I33
tp746
a(F5.7399999999979627
I31
tp747
a(F7.0500000000029104
I29
tp748
a(F9.3799999999973807
I27
tp749
a(F12.610000000000582
I25
tp750
a(F15.339999999996508
I23
tp751
aF40.0
tp752
sg124
((lp753
(F1.8099999999976717
I8
tp754
aF40.25
tp755
ssba(imeasure_core
ProblemSetSolution
p756
(dp757
g3
g191
sg149
g719
sg152
(dp758
g194
((lp759
F40.629999999997381
tp760
sg246
((lp761
(F27.629999999997381
I127
tp762
aF40.080000000001746
tp763
sg296
((lp764
(F0.12999999999738066
I25
tp765
aF40.019999999996799
tp766
sg346
((lp767
(F1.180000000000291
I12
tp768
aF40.17000000000553
tp769
sg394
((lp770
(F16.939999999995052
I64
tp771
aF40.029999999998836
tp772
ssba(imeasure_core
ProblemSetSolution
p773
(dp774
g3
g468
sg149
g719
sg152
(dp775
g471
((lp776
F42.150000000001455
tp777
sg519
((lp778
F67.540000000000873
tp779
sg567
((lp780
(F25.410000000003492
I58
tp781
aF40.120000000002619
tp782
sg615
((lp783
F51.269999999996799
tp784
sg663
((lp785
F42.279999999998836
tp786
ssba(imeasure_core
ProblemSetSolution
p787
(dp788
g3
g4
sg149
S"AnytimeBeam-w25-gf(1.5, 'exp')_with_PowerHeuristic2"
p789
sg152
(dp790
g8
((lp791
(F0.12000000000261934
I45
tp792
a(F1.4900000000052387
I44
tp793
a(F2.1500000000014552
I37
tp794
a(F2.7600000000020373
I36
tp795
a(F3.3800000000046566
I34
tp796
a(F5.4500000000043656
I33
tp797
a(F7.680000000000291
I31
tp798
a(F10.620000000002619
I30
tp799
a(F13.80000000000291
I28
tp800
a(F16.230000000003201
I26
tp801
a(F21.240000000005239
I25
tp802
a(F27.700000000004366
I24
tp803
aF40.0
tp804
sg41
((lp805
(F2.9599999999991269
I20
tp806
aF40.160000000003492
tp807
sg70
((lp808
(F37.239999999997963
I134
tp809
aF40.049999999995634
tp810
sg98
((lp811
(F0.17000000000552973
I47
tp812
a(F1.2800000000061118
I45
tp813
a(F2.3400000000037835
I43
tp814
a(F3.3500000000058208
I35
tp815
a(F4.5
I33
tp816
a(F5.7800000000061118
I31
tp817
a(F7.1100000000005821
I29
tp818
a(F9.4700000000011642
I27
tp819
a(F12.730000000003201
I25
tp820
a(F15.470000000001164
I23
tp821
aF40.0
tp822
sg124
((lp823
(F1.819999999999709
I8
tp824
aF40.260000000002037
tp825
ssba(imeasure_core
ProblemSetSolution
p826
(dp827
g3
g191
sg149
g789
sg152
(dp828
g194
((lp829
F40.770000000004075
tp830
sg246
((lp831
(F27.669999999998254
I127
tp832
aF40.049999999995634
tp833
sg296
((lp834
(F0.13000000000465661
I25
tp835
aF40.010000000002037
tp836
sg346
((lp837
(F1.1699999999982538
I12
tp838
aF40.07999999999447
tp839
sg394
((lp840
(F17.010000000002037
I64
tp841
aF40.030000000006112
tp842
ssba(imeasure_core
ProblemSetSolution
p843
(dp844
g3
g468
sg149
g789
sg152
(dp845
g471
((lp846
F42.099999999998545
tp847
sg519
((lp848
F67.639999999999418
tp849
sg567
((lp850
(F25.419999999998254
I58
tp851
aF40.019999999996799
tp852
sg615
((lp853
F51.330000000001746
tp854
sg663
((lp855
F42.340000000003783
tp856
ssba(imeasure_core
ProblemSetSolution
p857
(dp858
g3
g4
sg149
S"AnytimeBeam-w35-gf(1.5, 'exp')_with_PowerHeuristic2"
p859
sg152
(dp860
g8
((lp861
(F0.16999999999825377
I45
tp862
a(F1.1199999999953434
I44
tp863
a(F1.7599999999947613
I37
tp864
a(F2.3699999999953434
I36
tp865
a(F3.0
I34
tp866
a(F5.0799999999944703
I33
tp867
a(F7.3099999999976717
I31
tp868
a(F10.269999999996799
I30
tp869
a(F13.44999999999709
I28
tp870
a(F15.899999999994179
I26
tp871
a(F20.929999999993015
I25
tp872
a(F27.399999999994179
I24
tp873
aF40.0
tp874
sg41
((lp875
(F2.9499999999970896
I20
tp876
aF40.059999999997672
tp877
sg70
((lp878
(F37.279999999998836
I134
tp879
aF40.019999999996799
tp880
sg98
((lp881
(F0.17000000000552973
I47
tp882
a(F1.2700000000040745
I45
tp883
a(F2.319999999999709
I43
tp884
a(F3.3100000000049477
I35
tp885
a(F4.4599999999991269
I33
tp886
a(F5.7400000000052387
I31
tp887
a(F7.0600000000049477
I29
tp888
a(F9.3899999999994179
I27
tp889
a(F12.639999999999418
I25
tp890
a(F15.389999999999418
I23
tp891
aF40.0
tp892
sg124
((lp893
(F1.8100000000049477
I8
tp894
aF40.120000000002619
tp895
ssba(imeasure_core
ProblemSetSolution
p896
(dp897
g3
g191
sg149
g859
sg152
(dp898
g194
((lp899
F40.519999999996799
tp900
sg246
((lp901
(F27.569999999999709
I127
tp902
aF40.230000000003201
tp903
sg296
((lp904
(F0.12999999999738066
I25
tp905
aF40.010000000002037
tp906
sg346
((lp907
(F1.180000000000291
I12
tp908
aF40.19999999999709
tp909
sg394
((lp910
(F16.900000000001455
I64
tp911
aF40.090000000003783
tp912
ssba(imeasure_core
ProblemSetSolution
p913
(dp914
g3
g468
sg149
g859
sg152
(dp915
g471
((lp916
F41.900000000001455
tp917
sg519
((lp918
F67.709999999999127
tp919
sg567
((lp920
(F25.389999999999418
I58
tp921
aF40.130000000004657
tp922
sg615
((lp923
F51.409999999996217
tp924
sg663
((lp925
F42.389999999999418
tp926
ssba(imeasure_core
ProblemSetSolution
p927
(dp928
g3
g4
sg149
S"AnytimeBeam-w45-gf(1.5, 'exp')_with_PowerHeuristic2"
p929
sg152
(dp930
g8
((lp931
(F0.1599999999962165
I45
tp932
a(F0.75
I44
tp933
a(F1.3799999999973807
I37
tp934
a(F1.9899999999979627
I36
tp935
a(F2.6199999999953434
I34
tp936
a(F4.6999999999970896
I33
tp937
a(F6.9400000000023283
I31
tp938
a(F9.8899999999994179
I30
tp939
a(F13.059999999997672
I28
tp940
a(F15.479999999995925
I26
tp941
a(F20.489999999997963
I25
tp942
a(F26.930000000000291
I24
tp943
aF40.0
tp944
sg41
((lp945
(F2.9400000000023283
I20
tp946
aF40.169999999998254
tp947
sg70
((lp948
(F37.370000000002619
I134
tp949
aF40.0
tp950
sg98
((lp951
(F0.16999999999825377
I47
tp952
a(F1.2700000000040745
I45
tp953
a(F2.319999999999709
I43
tp954
a(F3.319999999999709
I35
tp955
a(F4.4599999999991269
I33
tp956
a(F5.7399999999979627
I31
tp957
a(F7.069999999999709
I29
tp958
a(F9.4100000000034925
I27
tp959
a(F12.660000000003492
I25
tp960
a(F15.410000000003492
I23
tp961
aF40.0
tp962
sg124
((lp963
(F1.8099999999976717
I8
tp964
aF40.25
tp965
ssba(imeasure_core
ProblemSetSolution
p966
(dp967
g3
g191
sg149
g929
sg152
(dp968
g194
((lp969
F40.720000000001164
tp970
sg246
((lp971
(F27.599999999998545
I127
tp972
aF40.229999999995925
tp973
sg296
((lp974
(F0.14000000000669388
I25
tp975
aF40.010000000002037
tp976
sg346
((lp977
(F1.180000000000291
I12
tp978
aF40.190000000002328
tp979
sg394
((lp980
(F17.0
I64
tp981
aF40.110000000000582
tp982
ssba(imeasure_core
ProblemSetSolution
p983
(dp984
g3
g468
sg149
g929
sg152
(dp985
g471
((lp986
F42.040000000000873
tp987
sg519
((lp988
F67.259999999994761
tp989
sg567
((lp990
(F25.67000000000553
I58
tp991
aF40.220000000001164
tp992
sg615
((lp993
F51.060000000004948
tp994
sg663
((lp995
F42.419999999998254
tp996
ssba(imeasure_core
ProblemSetSolution
p997
(dp998
g3
g4
sg149
S"AnytimeBeam-w5-gf(1.5, 'exp')_with_LinearHeuristic"
p999
sg152
(dp1000
g8
((lp1001
(F0.010000000002037268
I24
tp1002
aF40.0
tp1003
sg41
((lp1004
F40.110000000000582
tp1005
sg70
((lp1006
F40.269999999996799
tp1007
sg98
((lp1008
(F0.020000000004074536
I23
tp1009
aF40.0
tp1010
sg124
((lp1011
(F1.4700000000011642
I4
tp1012
aF40.30000000000291
tp1013
ssba(imeasure_core
ProblemSetSolution
p1014
(dp1015
g3
g191
sg149
g999
sg152
(dp1016
g194
((lp1017
F40.659999999996217
tp1018
sg246
((lp1019
F40.069999999999709
tp1020
sg296
((lp1021
F40.069999999999709
tp1022
sg346
((lp1023
F41.130000000004657
tp1024
sg394
((lp1025
F40.94999999999709
tp1026
ssba(imeasure_core
ProblemSetSolution
p1027
(dp1028
g3
g468
sg149
g999
sg152
(dp1029
g471
((lp1030
F40.330000000001746
tp1031
sg519
((lp1032
F61.239999999997963
tp1033
sg567
((lp1034
F40.330000000001746
tp1035
sg615
((lp1036
F49.349999999998545
tp1037
sg663
((lp1038
F42.269999999996799
tp1039
ssba(imeasure_core
ProblemSetSolution
p1040
(dp1041
g3
g4
sg149
S"AnytimeBeam-w15-gf(1.5, 'exp')_with_LinearHeuristic"
p1042
sg152
(dp1043
g8
((lp1044
(F0.010000000002037268
I24
tp1045
aF40.0
tp1046
sg41
((lp1047
F40.059999999997672
tp1048
sg70
((lp1049
F40.260000000002037
tp1050
sg98
((lp1051
(F0.019999999996798579
I23
tp1052
aF40.0
tp1053
sg124
((lp1054
(F1.4700000000011642
I4
tp1055
aF40.290000000000873
tp1056
ssba(imeasure_core
ProblemSetSolution
p1057
(dp1058
g3
g191
sg149
g1042
sg152
(dp1059
g194
((lp1060
F40.529999999998836
tp1061
sg246
((lp1062
F40.360000000000582
tp1063
sg296
((lp1064
F40.05000000000291
tp1065
sg346
((lp1066
F40.049999999995634
tp1067
sg394
((lp1068
F40.05000000000291
tp1069
ssba(imeasure_core
ProblemSetSolution
p1070
(dp1071
g3
g468
sg149
g1042
sg152
(dp1072
g471
((lp1073
F40.290000000000873
tp1074
sg519
((lp1075
F60.899999999994179
tp1076
sg567
((lp1077
F40.360000000000582
tp1078
sg615
((lp1079
F48.830000000001746
tp1080
sg663
((lp1081
F42.309999999997672
tp1082
ssba(imeasure_core
ProblemSetSolution
p1083
(dp1084
g3
g4
sg149
S"AnytimeBeam-w25-gf(1.5, 'exp')_with_LinearHeuristic"
p1085
sg152
(dp1086
g8
((lp1087
(F0.010000000002037268
I24
tp1088
aF40.0
tp1089
sg41
((lp1090
F40.020000000004075
tp1091
sg70
((lp1092
F40.239999999997963
tp1093
sg98
((lp1094
(F0.019999999996798579
I23
tp1095
aF40.0
tp1096
sg124
((lp1097
(F1.4700000000011642
I4
tp1098
aF40.349999999998545
tp1099
ssba(imeasure_core
ProblemSetSolution
p1100
(dp1101
g3
g191
sg149
g1085
sg152
(dp1102
g194
((lp1103
F40.75
tp1104
sg246
((lp1105
F40.160000000003492
tp1106
sg296
((lp1107
F40.139999999999418
tp1108
sg346
((lp1109
F40.110000000000582
tp1110
sg394
((lp1111
F40.019999999996799
tp1112
ssba(imeasure_core
ProblemSetSolution
p1113
(dp1114
g3
g468
sg149
g1085
sg152
(dp1115
g471
((lp1116
F40.360000000000582
tp1117
sg519
((lp1118
F60.479999999995925
tp1119
sg567
((lp1120
F41.240000000005239
tp1121
sg615
((lp1122
F48.930000000000291
tp1123
sg663
((lp1124
F42.44999999999709
tp1125
ssba(imeasure_core
ProblemSetSolution
p1126
(dp1127
g3
g4
sg149
S"AnytimeBeam-w35-gf(1.5, 'exp')_with_LinearHeuristic"
p1128
sg152
(dp1129
g8
((lp1130
(F0.0099999999947613105
I24
tp1131
aF40.0
tp1132
sg41
((lp1133
F40.059999999997672
tp1134
sg70
((lp1135
F40.069999999999709
tp1136
sg98
((lp1137
(F0.010000000002037268
I23
tp1138
aF40.0
tp1139
sg124
((lp1140
(F1.4800000000032014
I4
tp1141
aF40.25
tp1142
ssba(imeasure_core
ProblemSetSolution
p1143
(dp1144
g3
g191
sg149
g1128
sg152
(dp1145
g194
((lp1146
F40.529999999998836
tp1147
sg246
((lp1148
F40.599999999998545
tp1149
sg296
((lp1150
F40.090000000003783
tp1151
sg346
((lp1152
F41.159999999996217
tp1153
sg394
((lp1154
F40.160000000003492
tp1155
ssba(imeasure_core
ProblemSetSolution
p1156
(dp1157
g3
g468
sg149
g1128
sg152
(dp1158
g471
((lp1159
F40.430000000000291
tp1160
sg519
((lp1161
F60.680000000000291
tp1162
sg567
((lp1163
F41.299999999995634
tp1164
sg615
((lp1165
F49.139999999999418
tp1166
sg663
((lp1167
F42.350000000005821
tp1168
ssba(imeasure_core
ProblemSetSolution
p1169
(dp1170
g3
g4
sg149
S"AnytimeBeam-w45-gf(1.5, 'exp')_with_LinearHeuristic"
p1171
sg152
(dp1172
g8
((lp1173
(F0.010000000002037268
I24
tp1174
aF40.0
tp1175
sg41
((lp1176
F40.010000000002037
tp1177
sg70
((lp1178
F40.010000000002037
tp1179
sg98
((lp1180
(F0.019999999996798579
I23
tp1181
aF40.0
tp1182
sg124
((lp1183
(F1.4799999999959255
I4
tp1184
aF40.209999999999127
tp1185
ssba(imeasure_core
ProblemSetSolution
p1186
(dp1187
g3
g191
sg149
g1171
sg152
(dp1188
g194
((lp1189
F40.809999999997672
tp1190
sg246
((lp1191
F40.040000000000873
tp1192
sg296
((lp1193
F40.05000000000291
tp1194
sg346
((lp1195
F40.559999999997672
tp1196
sg394
((lp1197
F40.230000000003201
tp1198
ssba(imeasure_core
ProblemSetSolution
p1199
(dp1200
g3
g468
sg149
g1171
sg152
(dp1201
g471
((lp1202
F40.600000000005821
tp1203
sg519
((lp1204
F61.019999999996799
tp1205
sg567
((lp1206
F40.589999999996508
tp1207
sg615
((lp1208
F49.42000000000553
tp1209
sg663
((lp1210
F42.519999999996799
tp1211
ssba.