(lp0
(imeasure_core
ProblemSetSolution
p1
(dp2
S'roomset'
p3
(imeasure_core
RoomSet
p4
(dp5
S'rooms'
p6
(dp7
(iproblems
RoomID
p8
(dp9
S'dusts'
p10
I8
sS'obstacles'
p11
(I5
I7
tp12
sS'robots'
p13
I5
sS'height'
p14
I9
sS'width'
p15
I10
sS'seed'
p16
I5594871498841892311
sb(imulti_robot_problem
MultiRobotState
p17
(dp18
S'obstacle_locations'
p19
c__builtin__
frozenset
p20
((lp21
(I4
I7
tp22
a(I3
I6
tp23
a(I5
I1
tp24
a(I1
I0
tp25
ag12
a(I8
I3
tp26
a(I5
I8
tp27
atp28
Rp29
sg15
I10
sS'dirt_locations'
p30
g20
((lp31
(I0
I1
tp32
a(I9
I0
tp33
a(I8
I2
tp34
a(I6
I0
tp35
a(I1
I1
tp36
a(I1
I5
tp37
a(I9
I4
tp38
a(I2
I4
tp39
atp40
Rp41
sg13
((I7
I6
tp42
(I8
I4
tp43
(I5
I4
tp44
(I7
I2
tp45
(I7
I8
tp46
tp47
sg14
I9
sbs(iproblems
RoomID
p48
(dp49
g10
I6
sg11
(I4
I4
tp50
sg13
I5
sg14
I7
sg15
I8
sg16
I8833747186876682921
sb(imulti_robot_problem
MultiRobotState
p51
(dp52
g19
g20
((lp53
(I2
I2
tp54
ag50
a(I3
I4
tp55
a(I3
I3
tp56
a(I3
I5
tp57
atp58
Rp59
sg15
I8
sg30
g20
((lp60
(I6
I4
tp61
a(I5
I4
tp62
a(I1
I3
tp63
a(I5
I1
tp64
a(I0
I3
tp65
a(I5
I3
tp66
atp67
Rp68
sg13
((I2
I1
tp69
(I6
I1
tp70
(I3
I1
tp71
(I5
I0
tp72
(I7
I3
tp73
tp74
sg14
I7
sbs(iproblems
RoomID
p75
(dp76
g10
I6
sg11
(I2
I3
tp77
sg13
I1
sg14
I8
sg15
I8
sg16
I1085536589165212248
sb(imulti_robot_problem
MultiRobotState
p78
(dp79
g19
g20
((lp80
(I1
I5
tp81
ag77
a(I1
I4
tp82
a(I1
I6
tp83
a(I0
I7
tp84
a(I4
I0
tp85
atp86
Rp87
sg15
I8
sg30
g20
((lp88
(I0
I1
tp89
a(I1
I2
tp90
a(I7
I3
tp91
a(I5
I1
tp92
a(I6
I0
tp93
a(I2
I1
tp94
atp95
Rp96
sg13
((I3
I2
tp97
tp98
sg14
I8
sbs(iproblems
RoomID
p99
(dp100
g10
I5
sg11
(I6
I4
tp101
sg13
I2
sg14
I8
sg15
I10
sg16
I1662056218554549082
sb(imulti_robot_problem
MultiRobotState
p102
(dp103
g19
g20
((lp104
g101
a(I4
I6
tp105
a(I3
I6
tp106
a(I4
I4
tp107
a(I9
I6
tp108
a(I5
I5
tp109
atp110
Rp111
sg15
I10
sg30
g20
((lp112
(I4
I5
tp113
a(I8
I3
tp114
a(I8
I4
tp115
a(I7
I7
tp116
a(I3
I3
tp117
atp118
Rp119
sg13
((I9
I3
tp120
(I2
I0
tp121
tp122
sg14
I8
sbs(iproblems
RoomID
p123
(dp124
g10
I7
sg11
(I5
I2
tp125
sg13
I5
sg14
I8
sg15
I9
sg16
I365562409358139953
sb(imulti_robot_problem
MultiRobotState
p126
(dp127
g19
g20
((lp128
(I6
I4
tp129
a(I5
I5
tp130
a(I2
I1
tp131
a(I3
I7
tp132
a(I2
I5
tp133
ag125
a(I0
I2
tp134
a(I5
I3
tp135
atp136
Rp137
sg15
I9
sg30
g20
((lp138
(I2
I0
tp139
a(I1
I6
tp140
a(I8
I2
tp141
a(I4
I5
tp142
a(I8
I6
tp143
a(I5
I7
tp144
a(I3
I4
tp145
atp146
Rp147
sg13
((I4
I2
tp148
(I8
I3
tp149
(I6
I3
tp150
(I2
I4
tp151
(I6
I7
tp152
tp153
sg14
I8
sbssS'name'
p154
S'easy_roomset'
p155
sbsg154
S"AnytimeBeam-w5-gf(1.5, 'exp')_with_PowerHeuristic2"
p156
sS'solutions'
p157
(dp158
g8
((lp159
(F2.0400000000008731
I13
tp160
aF40.05000000000291
tp161
sg48
((lp162
(F1.9599999999991269
I4
tp163
aF41.119999999998981
tp164
sg75
((lp165
(F0.059999999997671694
I30
tp166
a(F0.34000000000014552
I28
tp167
a(F0.68999999999869033
I27
tp168
a(F1.069999999999709
I25
tp169
a(F1.3999999999978172
I23
tp170
a(F2.1199999999989814
I21
tp171
a(F3.1899999999986903
I20
tp172
a(F4.6199999999989814
I19
tp173
a(F6.2900000000008731
I17
tp174
a(F7.9099999999998545
I15
tp175
aF40.0
tp176
sg99
((lp177
(F0.029999999998835847
I7
tp178
aF40.009999999998399
tp179
sg123
((lp180
F40.729999999999563
tp181
ssba(imeasure_core
ProblemSetSolution
p182
(dp183
g3
(imeasure_core
RoomSet
p184
(dp185
g6
(dp186
(iproblems
RoomID
p187
(dp188
g10
I8
sg11
(I9
I3
tp189
sg13
I4
sg14
I11
sg15
I12
sg16
I5594871498841892311
sb(imulti_robot_problem
MultiRobotState
p190
(dp191
g19
g20
((lp192
(I5
I9
tp193
a(I6
I9
tp194
a(I11
I9
tp195
a(I9
I1
tp196
a(I4
I8
tp197
a(I8
I0
tp198
a(I6
I0
tp199
a(I9
I9
tp200
ag189
a(I9
I4
tp201
a(I4
I2
tp202
a(I3
I7
tp203
a(I5
I8
tp204
a(I7
I9
tp205
a(I10
I8
tp206
a(I9
I0
tp207
a(I7
I0
tp208
a(I6
I8
tp209
a(I9
I2
tp210
a(I5
I7
tp211
a(I8
I10
tp212
a(I2
I0
tp213
a(I5
I0
tp214
a(I0
I9
tp215
a(I10
I0
tp216
a(I10
I2
tp217
atp218
Rp219
sg15
I12
sg30
g20
((lp220
(I2
I6
tp221
a(I11
I5
tp222
a(I6
I1
tp223
a(I11
I1
tp224
a(I2
I1
tp225
a(I8
I8
tp226
a(I0
I2
tp227
a(I3
I5
tp228
atp229
Rp230
sg13
((I9
I7
tp231
(I10
I5
tp232
(I6
I5
tp233
(I8
I3
tp234
tp235
sg14
I11
sbs(iproblems
RoomID
p236
(dp237
g10
I6
sg11
(I9
I4
tp238
sg13
I4
sg14
I9
sg15
I10
sg16
I8833747186876682921
sb(imulti_robot_problem
MultiRobotState
p239
(dp240
g19
g20
((lp241
(I4
I7
tp242
a(I4
I8
tp243
a(I4
I5
tp244
a(I2
I1
tp245
a(I7
I5
tp246
a(I2
I3
tp247
ag238
a(I2
I5
tp248
a(I6
I5
tp249
a(I3
I5
tp250
a(I2
I7
tp251
a(I8
I3
tp252
a(I5
I5
tp253
a(I3
I4
tp254
a(I7
I4
tp255
a(I5
I6
tp256
a(I8
I8
tp257
a(I3
I6
tp258
a(I4
I1
tp259
a(I1
I1
tp260
atp261
Rp262
sg15
I10
sg30
g20
((lp263
(I3
I2
tp264
a(I6
I2
tp265
a(I7
I0
tp266
a(I1
I4
tp267
a(I0
I4
tp268
a(I0
I7
tp269
atp270
Rp271
sg13
((I3
I1
tp272
(I8
I1
tp273
(I3
I3
tp274
(I4
I2
tp275
tp276
sg14
I9
sbs(iproblems
RoomID
p277
(dp278
g10
I8
sg11
(I4
I6
tp279
sg13
I3
sg14
I9
sg15
I12
sg16
I4800841617172907184
sb(imulti_robot_problem
MultiRobotState
p280
(dp281
g19
g20
((lp282
(I5
I4
tp283
ag279
a(I8
I7
tp284
a(I6
I6
tp285
a(I4
I5
tp286
a(I9
I8
tp287
a(I9
I3
tp288
a(I6
I0
tp289
a(I2
I1
tp290
a(I10
I1
tp291
a(I4
I2
tp292
a(I8
I5
tp293
a(I7
I2
tp294
a(I5
I3
tp295
a(I8
I3
tp296
a(I3
I1
tp297
a(I3
I3
tp298
a(I11
I8
tp299
a(I7
I1
tp300
a(I11
I3
tp301
a(I6
I3
tp302
a(I0
I6
tp303
a(I4
I3
tp304
a(I8
I6
tp305
a(I8
I4
tp306
a(I9
I7
tp307
atp308
Rp309
sg15
I12
sg30
g20
((lp310
(I11
I4
tp311
a(I8
I2
tp312
a(I10
I7
tp313
a(I7
I6
tp314
a(I1
I4
tp315
a(I11
I0
tp316
a(I9
I2
tp317
a(I0
I2
tp318
atp319
Rp320
sg13
((I9
I1
tp321
(I0
I4
tp322
(I7
I4
tp323
tp324
sg14
I9
sbs(iproblems
RoomID
p325
(dp326
g10
I7
sg11
(I8
I4
tp327
sg13
I4
sg14
I10
sg15
I11
sg16
I365562409358139953
sb(imulti_robot_problem
MultiRobotState
p328
(dp329
g19
g20
((lp330
(I7
I3
tp331
a(I8
I7
tp332
a(I4
I8
tp333
a(I2
I8
tp334
a(I5
I9
tp335
a(I6
I2
tp336
a(I1
I6
tp337
a(I9
I4
tp338
a(I6
I4
tp339
a(I9
I6
tp340
a(I6
I5
tp341
a(I10
I8
tp342
a(I10
I5
tp343
a(I6
I7
tp344
a(I10
I7
tp345
a(I7
I6
tp346
a(I3
I1
tp347
a(I0
I5
tp348
a(I3
I8
tp349
a(I7
I5
tp350
a(I8
I6
tp351
ag327
a(I5
I2
tp352
a(I6
I1
tp353
a(I9
I7
tp354
atp355
Rp356
sg15
I11
sg30
g20
((lp357
(I5
I6
tp358
a(I6
I9
tp359
a(I1
I7
tp360
a(I4
I5
tp361
a(I10
I3
tp362
a(I0
I2
tp363
a(I2
I1
tp364
atp365
Rp366
sg13
((I10
I4
tp367
(I7
I4
tp368
(I3
I6
tp369
(I8
I9
tp370
tp371
sg14
I10
sbs(iproblems
RoomID
p372
(dp373
g10
I10
sg11
(I4
I8
tp374
sg13
I3
sg14
I11
sg15
I9
sg16
I6645345695289302126
sb(imulti_robot_problem
MultiRobotState
p375
(dp376
g19
g20
((lp377
(I5
I9
tp378
a(I3
I2
tp379
a(I3
I1
tp380
ag374
a(I4
I5
tp381
a(I1
I4
tp382
a(I4
I2
tp383
a(I3
I7
tp384
a(I4
I6
tp385
a(I3
I3
tp386
a(I4
I1
tp387
a(I6
I1
tp388
a(I4
I4
tp389
a(I2
I4
tp390
a(I3
I8
tp391
a(I1
I5
tp392
a(I4
I3
tp393
a(I3
I5
tp394
a(I3
I4
tp395
a(I1
I1
tp396
a(I8
I4
tp397
atp398
Rp399
sg15
I9
sg30
g20
((lp400
(I0
I1
tp401
a(I5
I4
tp402
a(I6
I7
tp403
a(I8
I2
tp404
a(I8
I7
tp405
a(I8
I8
tp406
a(I2
I3
tp407
a(I3
I6
tp408
a(I1
I0
tp409
a(I5
I5
tp410
atp411
Rp412
sg13
((I1
I6
tp413
(I0
I9
tp414
(I0
I5
tp415
tp416
sg14
I11
sbssg154
S'mild_roomset'
p417
sbsg154
g156
sg157
(dp418
g187
((lp419
(F6.3899999999994179
I32
tp420
aF40.290000000000873
tp421
sg236
((lp422
(F4.6999999999970896
I32
tp423
aF40.359999999996944
tp424
sg277
((lp425
(F0.42000000000189175
I17
tp426
aF40.05000000000291
tp427
sg325
((lp428
(F0.73999999999796273
I25
tp429
aF40.059999999997672
tp430
sg372
((lp431
F40.110000000000582
tp432
ssba(imeasure_core
ProblemSetSolution
p433
(dp434
g3
(imeasure_core
RoomSet
p435
(dp436
g6
(dp437
(iproblems
RoomID
p438
(dp439
g10
I13
sg11
(I9
I8
tp440
sg13
I7
sg14
I12
sg15
I13
sg16
I5594871498841892311
sb(imulti_robot_problem
MultiRobotState
p441
(dp442
g19
g20
((lp443
(I5
I9
tp444
a(I6
I9
tp445
a(I1
I3
tp446
a(I10
I4
tp447
a(I4
I8
tp448
ag440
a(I1
I4
tp449
a(I11
I3
tp450
a(I8
I6
tp451
a(I9
I6
tp452
a(I5
I5
tp453
a(I9
I5
tp454
a(I6
I7
tp455
a(I6
I8
tp456
a(I6
I10
tp457
a(I8
I10
tp458
a(I5
I0
tp459
a(I10
I0
tp460
a(I7
I9
tp461
a(I9
I7
tp462
atp463
Rp464
sg15
I13
sg30
g20
((lp465
(I2
I7
tp466
a(I10
I5
tp467
a(I11
I5
tp468
a(I6
I1
tp469
a(I8
I0
tp470
a(I2
I1
tp471
a(I2
I0
tp472
a(I0
I10
tp473
a(I7
I10
tp474
a(I12
I10
tp475
a(I5
I2
tp476
a(I0
I2
tp477
a(I3
I5
tp478
atp479
Rp480
sg13
((I10
I8
tp481
(I11
I6
tp482
(I7
I5
tp483
(I9
I3
tp484
(I9
I11
tp485
(I12
I1
tp486
(I9
I9
tp487
tp488
sg14
I12
sbs(iproblems
RoomID
p489
(dp490
g10
I11
sg11
(I8
I7
tp491
sg13
I7
sg14
I10
sg15
I11
sg16
I8833747186876682921
sb(imulti_robot_problem
MultiRobotState
p492
(dp493
g19
g20
((lp494
(I5
I7
tp495
a(I4
I8
tp496
a(I4
I5
tp497
a(I2
I1
tp498
ag491
a(I5
I1
tp499
a(I5
I5
tp500
a(I6
I7
tp501
a(I4
I6
tp502
a(I8
I1
tp503
a(I4
I4
tp504
a(I6
I3
tp505
a(I8
I8
tp506
a(I3
I3
tp507
a(I7
I8
tp508
a(I10
I2
tp509
atp510
Rp511
sg15
I11
sg30
g20
((lp512
(I10
I5
tp513
a(I7
I6
tp514
a(I4
I7
tp515
a(I1
I4
tp516
a(I9
I9
tp517
a(I3
I8
tp518
a(I0
I5
tp519
a(I8
I6
tp520
a(I2
I5
tp521
a(I0
I8
tp522
a(I7
I2
tp523
atp524
Rp525
sg13
((I3
I1
tp526
(I9
I1
tp527
(I5
I2
tp528
(I4
I3
tp529
(I8
I0
tp530
(I10
I4
tp531
(I8
I5
tp532
tp533
sg14
I10
sbs(iproblems
RoomID
p534
(dp535
g10
I11
sg11
(I4
I6
tp536
sg13
I5
sg14
I11
sg15
I11
sg16
I1085536589165212248
sb(imulti_robot_problem
MultiRobotState
p537
(dp538
g19
g20
((lp539
(I10
I5
tp540
a(I2
I6
tp541
ag536
a(I9
I3
tp542
a(I3
I2
tp543
a(I9
I9
tp544
a(I1
I8
tp545
a(I1
I9
tp546
a(I1
I7
tp547
a(I3
I7
tp548
a(I6
I9
tp549
a(I5
I8
tp550
a(I3
I3
tp551
atp552
Rp553
sg15
I11
sg30
g20
((lp554
(I0
I1
tp555
a(I4
I9
tp556
a(I10
I4
tp557
a(I10
I7
tp558
a(I6
I0
tp559
a(I0
I7
tp560
a(I2
I3
tp561
a(I1
I4
tp562
a(I2
I2
tp563
a(I10
I0
tp564
a(I0
I10
tp565
atp566
Rp567
sg13
((I5
I3
tp568
(I0
I2
tp569
(I3
I1
tp570
(I7
I1
tp571
(I9
I0
tp572
tp573
sg14
I11
sbs(iproblems
RoomID
p574
(dp575
g10
I12
sg11
(I0
I5
tp576
sg13
I7
sg14
I11
sg15
I12
sg16
I365562409358139953
sb(imulti_robot_problem
MultiRobotState
p577
(dp578
g19
g20
((lp579
(I1
I3
tp580
a(I6
I6
tp581
a(I0
I4
tp582
a(I7
I5
tp583
ag576
a(I8
I7
tp584
a(I4
I2
tp585
a(I2
I9
tp586
a(I10
I7
tp587
a(I7
I8
tp588
a(I7
I6
tp589
a(I3
I1
tp590
a(I4
I8
tp591
a(I3
I9
tp592
a(I2
I2
tp593
a(I8
I6
tp594
a(I5
I2
tp595
a(I11
I6
tp596
a(I8
I4
tp597
atp598
Rp599
sg15
I12
sg30
g20
((lp600
(I3
I2
tp601
a(I11
I9
tp602
a(I4
I9
tp603
a(I10
I4
tp604
a(I5
I7
tp605
a(I2
I1
tp606
a(I0
I6
tp607
a(I1
I6
tp608
a(I7
I10
tp609
a(I3
I7
tp610
a(I5
I10
tp611
a(I0
I2
tp612
atp613
Rp614
sg13
((I6
I3
tp615
(I10
I5
tp616
(I3
I6
tp617
(I8
I10
tp618
(I4
I6
tp619
(I11
I3
tp620
(I1
I8
tp621
tp622
sg14
I11
sbs(iproblems
RoomID
p623
(dp624
g10
I13
sg11
(I3
I8
tp625
sg13
I5
sg14
I10
sg15
I10
sg16
I5338040351619750409
sb(imulti_robot_problem
MultiRobotState
p626
(dp627
g19
g20
((lp628
(I4
I7
tp629
a(I2
I6
tp630
a(I9
I1
tp631
a(I2
I8
tp632
a(I6
I1
tp633
a(I1
I4
tp634
ag625
a(I1
I6
tp635
a(I4
I3
tp636
a(I1
I7
tp637
a(I2
I5
tp638
a(I9
I7
tp639
a(I2
I4
tp640
a(I6
I8
tp641
atp642
Rp643
sg15
I10
sg30
g20
((lp644
(I6
I9
tp645
a(I1
I3
tp646
a(I4
I9
tp647
a(I4
I6
tp648
a(I6
I6
tp649
a(I8
I3
tp650
a(I2
I1
tp651
a(I8
I9
tp652
a(I1
I8
tp653
a(I7
I5
tp654
a(I3
I6
tp655
a(I9
I6
tp656
a(I4
I0
tp657
atp658
Rp659
sg13
((I2
I0
tp660
(I3
I5
tp661
(I5
I0
tp662
(I5
I2
tp663
(I4
I5
tp664
tp665
sg14
I10
sbssg154
S'heavy_roomset'
p666
sbsg154
g156
sg157
(dp667
g438
((lp668
F44.649999999997817
tp669
sg489
((lp670
F44.75
tp671
sg534
((lp672
(F7.9000000000014552
I15
tp673
aF41.190000000002328
tp674
sg574
((lp675
F47.879999999997381
tp676
sg623
((lp677
(F7.0
I16
tp678
aF40.170000000001892
tp679
ssba(imeasure_core
ProblemSetSolution
p680
(dp681
g3
g4
sg154
S"AnytimeBeam-w15-gf(1.5, 'exp')_with_PowerHeuristic2"
p682
sg157
(dp683
g8
((lp684
(F2.7400000000016007
I13
tp685
aF40.590000000000146
tp686
sg48
((lp687
(F2.1500000000014552
I4
tp688
aF40.229999999999563
tp689
sg75
((lp690
(F0.069999999999708962
I30
tp691
a(F0.35000000000218279
I28
tp692
a(F0.7000000000007276
I27
tp693
a(F1.0900000000001455
I25
tp694
a(F1.4200000000018917
I23
tp695
a(F2.1399999999994179
I21
tp696
a(F3.2299999999995634
I20
tp697
a(F4.6700000000018917
I19
tp698
a(F6.3500000000021828
I17
tp699
a(F7.9799999999995634
I15
tp700
aF40.0
tp701
sg99
((lp702
(F0.030000000002473826
I7
tp703
aF40.010000000002037
tp704
sg123
((lp705
F40.520000000000437
tp706
ssba(imeasure_core
ProblemSetSolution
p707
(dp708
g3
g184
sg154
g682
sg157
(dp709
g187
((lp710
(F6.4099999999998545
I32
tp711
aF40.44999999999709
tp712
sg236
((lp713
(F4.7299999999995634
I32
tp714
aF40.569999999999709
tp715
sg277
((lp716
(F0.40999999999985448
I17
tp717
aF40.020000000000437
tp718
sg325
((lp719
(F0.75
I25
tp720
aF40.130000000001019
tp721
sg372
((lp722
F40.069999999999709
tp723
ssba(imeasure_core
ProblemSetSolution
p724
(dp725
g3
g435
sg154
g682
sg157
(dp726
g438
((lp727
F44.650000000001455
tp728
sg489
((lp729
F44.809999999997672
tp730
sg534
((lp731
(F7.9099999999998545
I15
tp732
aF40.170000000001892
tp733
sg574
((lp734
F48.009999999998399
tp735
sg623
((lp736
(F6.9600000000027649
I16
tp737
aF40.120000000002619
tp738
ssba(imeasure_core
ProblemSetSolution
p739
(dp740
g3
g4
sg154
S"AnytimeBeam-w25-gf(1.5, 'exp')_with_PowerHeuristic2"
p741
sg157
(dp742
g8
((lp743
(F2.8599999999969441
I13
tp744
aF40.709999999999127
tp745
sg48
((lp746
(F2.2000000000007276
I4
tp747
aF40.209999999999127
tp748
sg75
((lp749
(F0.060000000001309672
I30
tp750
a(F0.34000000000014552
I28
tp751
a(F0.7000000000007276
I27
tp752
a(F1.0800000000017462
I25
tp753
a(F1.4099999999998545
I23
tp754
a(F2.1399999999994179
I21
tp755
a(F3.2200000000011642
I20
tp756
a(F4.6500000000014552
I19
tp757
a(F6.319999999999709
I17
tp758
a(F7.9399999999986903
I15
tp759
aF40.0
tp760
sg99
((lp761
(F0.029999999998835847
I7
tp762
aF40.020000000000437
tp763
sg123
((lp764
F40.739999999997963
tp765
ssba(imeasure_core
ProblemSetSolution
p766
(dp767
g3
g184
sg154
g741
sg157
(dp768
g187
((lp769
(F6.4100000000034925
I32
tp770
aF40.330000000001746
tp771
sg236
((lp772
(F4.7099999999991269
I32
tp773
aF40.450000000000728
tp774
sg277
((lp775
(F0.41999999999825377
I17
tp776
aF40.049999999999272
tp777
sg325
((lp778
(F0.74000000000160071
I25
tp779
aF40.110000000000582
tp780
sg372
((lp781
F40.069999999999709
tp782
ssba(imeasure_core
ProblemSetSolution
p783
(dp784
g3
g435
sg154
g741
sg157
(dp785
g438
((lp786
F44.709999999999127
tp787
sg489
((lp788
F44.869999999998981
tp789
sg534
((lp790
(F7.9099999999998545
I15
tp791
aF40.030000000002474
tp792
sg574
((lp793
F48.049999999999272
tp794
sg623
((lp795
(F6.9799999999995634
I16
tp796
aF40.209999999999127
tp797
ssba(imeasure_core
ProblemSetSolution
p798
(dp799
g3
g4
sg154
S"AnytimeBeam-w35-gf(1.5, 'exp')_with_PowerHeuristic2"
p800
sg157
(dp801
g8
((lp802
(F3.2000000000007276
I13
tp803
aF40.080000000001746
tp804
sg48
((lp805
(F2.5399999999972351
I4
tp806
aF40.5
tp807
sg75
((lp808
(F0.059999999997671694
I30
tp809
a(F0.34000000000014552
I28
tp810
a(F0.68999999999869033
I27
tp811
a(F1.069999999999709
I25
tp812
a(F1.3999999999978172
I23
tp813
a(F2.1099999999969441
I21
tp814
a(F3.1899999999986903
I20
tp815
a(F4.6099999999969441
I19
tp816
a(F6.2799999999988358
I17
tp817
a(F7.8999999999978172
I15
tp818
aF40.0
tp819
sg99
((lp820
(F0.029999999998835847
I7
tp821
aF40.019999999996799
tp822
sg123
((lp823
F40.5
tp824
ssba(imeasure_core
ProblemSetSolution
p825
(dp826
g3
g184
sg154
g800
sg157
(dp827
g187
((lp828
(F6.3800000000010186
I32
tp829
aF40.509999999998399
tp830
sg236
((lp831
(F4.7299999999995634
I32
tp832
aF40.380000000001019
tp833
sg277
((lp834
(F0.42000000000189175
I17
tp835
aF40.080000000001746
tp836
sg325
((lp837
(F0.75
I25
tp838
aF40.159999999999854
tp839
sg372
((lp840
F40.079999999998108
tp841
ssba(imeasure_core
ProblemSetSolution
p842
(dp843
g3
g435
sg154
g800
sg157
(dp844
g438
((lp845
F44.849999999998545
tp846
sg489
((lp847
F44.75
tp848
sg534
((lp849
(F7.9000000000014552
I15
tp850
aF40.290000000000873
tp851
sg574
((lp852
F47.909999999999854
tp853
sg623
((lp854
(F7.0599999999976717
I16
tp855
aF40.319999999999709
tp856
ssba(imeasure_core
ProblemSetSolution
p857
(dp858
g3
g4
sg154
S"AnytimeBeam-w45-gf(1.5, 'exp')_with_PowerHeuristic2"
p859
sg157
(dp860
g8
((lp861
(F3.2999999999992724
I13
tp862
aF40.399999999997817
tp863
sg48
((lp864
(F2.6900000000023283
I4
tp865
aF41.600000000002183
tp866
sg75
((lp867
(F0.060000000001309672
I30
tp868
a(F0.34000000000014552
I28
tp869
a(F0.7000000000007276
I27
tp870
a(F1.0799999999981083
I25
tp871
a(F1.4099999999998545
I23
tp872
a(F2.1300000000010186
I21
tp873
a(F3.2099999999991269
I20
tp874
a(F4.6300000000010186
I19
tp875
a(F6.2999999999992724
I17
tp876
a(F7.9199999999982538
I15
tp877
aF40.0
tp878
sg99
((lp879
(F0.029999999998835847
I7
tp880
aF40.009999999998399
tp881
sg123
((lp882
F40.350000000002183
tp883
ssba(imeasure_core
ProblemSetSolution
p884
(dp885
g3
g184
sg154
g859
sg157
(dp886
g187
((lp887
(F6.4099999999998545
I32
tp888
aF40.409999999999854
tp889
sg236
((lp890
(F4.7000000000007276
I32
tp891
aF40.409999999999854
tp892
sg277
((lp893
(F0.42000000000189175
I17
tp894
aF40.090000000000146
tp895
sg325
((lp896
(F0.74000000000160071
I25
tp897
aF40.040000000000873
tp898
sg372
((lp899
F40.079999999998108
tp900
ssba(imeasure_core
ProblemSetSolution
p901
(dp902
g3
g435
sg154
g859
sg157
(dp903
g438
((lp904
F44.590000000000146
tp905
sg489
((lp906
F44.739999999997963
tp907
sg534
((lp908
(F7.9200000000018917
I15
tp909
aF40.290000000000873
tp910
sg574
((lp911
F47.889999999999418
tp912
sg623
((lp913
(F7.0
I16
tp914
aF40.260000000002037
tp915
ssba(imeasure_core
ProblemSetSolution
p916
(dp917
g3
g4
sg154
S"AnytimeBeam-w5-gf(1.5, 'exp')_with_LinearHeuristic"
p918
sg157
(dp919
g8
((lp920
F40.069999999999709
tp921
sg48
((lp922
(F0.9500000000007276
I4
tp923
aF40.009999999998399
tp924
sg75
((lp925
(F0.010000000002037268
I15
tp926
aF40.0
tp927
sg99
((lp928
(F0.040000000000873115
I7
tp929
aF40.040000000000873
tp930
sg123
((lp931
(F16.360000000000582
I17
tp932
aF40.340000000000146
tp933
ssba(imeasure_core
ProblemSetSolution
p934
(dp935
g3
g184
sg154
g918
sg157
(dp936
g187
((lp937
F40.320000000003347
tp938
sg236
((lp939
F40.629999999997381
tp940
sg277
((lp941
F40.260000000002037
tp942
sg325
((lp943
F40.099999999998545
tp944
sg372
((lp945
F40.090000000000146
tp946
ssba(imeasure_core
ProblemSetSolution
p947
(dp948
g3
g435
sg154
g918
sg157
(dp949
g438
((lp950
F54.709999999999127
tp951
sg489
((lp952
F56.569999999999709
tp953
sg534
((lp954
F41.06000000000131
tp955
sg574
((lp956
F63.330000000001746
tp957
sg623
((lp958
F41.219999999997526
tp959
ssba(imeasure_core
ProblemSetSolution
p960
(dp961
g3
g4
sg154
S"AnytimeBeam-w15-gf(1.5, 'exp')_with_LinearHeuristic"
p962
sg157
(dp963
g8
((lp964
F40.759999999998399
tp965
sg48
((lp966
(F0.93000000000029104
I4
tp967
aF40.520000000000437
tp968
sg75
((lp969
(F0.0099999999983992893
I15
tp970
aF40.0
tp971
sg99
((lp972
(F0.040000000000873115
I7
tp973
aF40.020000000000437
tp974
sg123
((lp975
(F16.360000000000582
I17
tp976
aF40.31000000000131
tp977
ssba(imeasure_core
ProblemSetSolution
p978
(dp979
g3
g184
sg154
g962
sg157
(dp980
g187
((lp981
F41.5
tp982
sg236
((lp983
F40.639999999999418
tp984
sg277
((lp985
F40.079999999998108
tp986
sg325
((lp987
F40.139999999999418
tp988
sg372
((lp989
F40.120000000002619
tp990
ssba(imeasure_core
ProblemSetSolution
p991
(dp992
g3
g435
sg154
g962
sg157
(dp993
g438
((lp994
F55.040000000000873
tp995
sg489
((lp996
F56.709999999999127
tp997
sg534
((lp998
F41.130000000001019
tp999
sg574
((lp1000
F63.139999999999418
tp1001
sg623
((lp1002
F41.229999999999563
tp1003
ssba(imeasure_core
ProblemSetSolution
p1004
(dp1005
g3
g4
sg154
S"AnytimeBeam-w25-gf(1.5, 'exp')_with_LinearHeuristic"
p1006
sg157
(dp1007
g8
((lp1008
F40.119999999998981
tp1009
sg48
((lp1010
(F1.0900000000001455
I4
tp1011
aF41.370000000002619
tp1012
sg75
((lp1013
(F0.0099999999983992893
I15
tp1014
aF40.0
tp1015
sg99
((lp1016
(F0.039999999997235136
I7
tp1017
aF40.020000000000437
tp1018
sg123
((lp1019
(F16.359999999996944
I17
tp1020
aF40.43999999999869
tp1021
ssba(imeasure_core
ProblemSetSolution
p1022
(dp1023
g3
g184
sg154
g1006
sg157
(dp1024
g187
((lp1025
F40.099999999998545
tp1026
sg236
((lp1027
F40.530000000002474
tp1028
sg277
((lp1029
F40.109999999996944
tp1030
sg325
((lp1031
F40.130000000001019
tp1032
sg372
((lp1033
F40.06000000000131
tp1034
ssba(imeasure_core
ProblemSetSolution
p1035
(dp1036
g3
g435
sg154
g1006
sg157
(dp1037
g438
((lp1038
F54.709999999999127
tp1039
sg489
((lp1040
F56.540000000000873
tp1041
sg534
((lp1042
F40.869999999998981
tp1043
sg574
((lp1044
F63.119999999998981
tp1045
sg623
((lp1046
F41.260000000002037
tp1047
ssba(imeasure_core
ProblemSetSolution
p1048
(dp1049
g3
g4
sg154
S"AnytimeBeam-w35-gf(1.5, 'exp')_with_LinearHeuristic"
p1050
sg157
(dp1051
g8
((lp1052
F40.260000000002037
tp1053
sg48
((lp1054
(F1.1599999999998545
I4
tp1055
aF41.110000000000582
tp1056
sg75
((lp1057
(F0.0099999999983992893
I15
tp1058
aF40.0
tp1059
sg99
((lp1060
(F0.039999999997235136
I7
tp1061
aF40.029999999998836
tp1062
sg123
((lp1063
(F16.369999999998981
I17
tp1064
aF40.489999999997963
tp1065
ssba(imeasure_core
ProblemSetSolution
p1066
(dp1067
g3
g184
sg154
g1050
sg157
(dp1068
g187
((lp1069
F40.330000000001746
tp1070
sg236
((lp1071
F40.340000000000146
tp1072
sg277
((lp1073
F40.180000000000291
tp1074
sg325
((lp1075
F40.18999999999869
tp1076
sg372
((lp1077
F40.110000000000582
tp1078
ssba(imeasure_core
ProblemSetSolution
p1079
(dp1080
g3
g435
sg154
g1050
sg157
(dp1081
g438
((lp1082
F54.730000000003201
tp1083
sg489
((lp1084
F56.590000000000146
tp1085
sg534
((lp1086
F40.93999999999869
tp1087
sg574
((lp1088
F63.68999999999869
tp1089
sg623
((lp1090
F41.389999999999418
tp1091
ssba(imeasure_core
ProblemSetSolution
p1092
(dp1093
g3
g4
sg154
S"AnytimeBeam-w45-gf(1.5, 'exp')_with_LinearHeuristic"
p1094
sg157
(dp1095
g8
((lp1096
F40.040000000000873
tp1097
sg48
((lp1098
(F1.2799999999988358
I4
tp1099
aF40.219999999997526
tp1100
sg75
((lp1101
(F0.010000000002037268
I15
tp1102
aF40.0
tp1103
sg99
((lp1104
(F0.040000000000873115
I7
tp1105
aF40.030000000002474
tp1106
sg123
((lp1107
(F16.379999999997381
I17
tp1108
aF40.519999999996799
tp1109
ssba(imeasure_core
ProblemSetSolution
p1110
(dp1111
g3
g184
sg154
g1094
sg157
(dp1112
g187
((lp1113
F40.210000000002765
tp1114
sg236
((lp1115
F40.450000000000728
tp1116
sg277
((lp1117
F40.039999999997235
tp1118
sg325
((lp1119
F40.049999999999272
tp1120
sg372
((lp1121
F40.150000000001455
tp1122
ssba(imeasure_core
ProblemSetSolution
p1123
(dp1124
g3
g435
sg154
g1094
sg157
(dp1125
g438
((lp1126
F54.709999999999127
tp1127
sg489
((lp1128
F56.630000000001019
tp1129
sg534
((lp1130
F40.930000000000291
tp1131
sg574
((lp1132
F63.419999999998254
tp1133
sg623
((lp1134
F41.190000000002328
tp1135
ssba.