(lp0
(imeasure_core
ProblemSetSolution
p1
(dp2
S'roomset'
p3
(imeasure_core
RoomSet
p4
(dp5
S'rooms'
p6
(dp7
(iproblems
RoomID
p8
(dp9
S'dusts'
p10
I8
sS'obstacles'
p11
(I5
I7
tp12
sS'robots'
p13
I5
sS'height'
p14
I9
sS'width'
p15
I10
sS'seed'
p16
I5594871498841892311
sb(imulti_robot_problem
MultiRobotState
p17
(dp18
S'obstacle_locations'
p19
c__builtin__
frozenset
p20
((lp21
(I4
I7
tp22
a(I3
I6
tp23
a(I5
I1
tp24
a(I1
I0
tp25
ag12
a(I8
I3
tp26
a(I5
I8
tp27
atp28
Rp29
sg15
I10
sS'dirt_locations'
p30
g20
((lp31
(I0
I1
tp32
a(I9
I0
tp33
a(I8
I2
tp34
a(I6
I0
tp35
a(I1
I1
tp36
a(I1
I5
tp37
a(I9
I4
tp38
a(I2
I4
tp39
atp40
Rp41
sg13
((I7
I6
tp42
(I8
I4
tp43
(I5
I4
tp44
(I7
I2
tp45
(I7
I8
tp46
tp47
sg14
I9
sbs(iproblems
RoomID
p48
(dp49
g10
I6
sg11
(I4
I4
tp50
sg13
I5
sg14
I7
sg15
I8
sg16
I8833747186876682921
sb(imulti_robot_problem
MultiRobotState
p51
(dp52
g19
g20
((lp53
(I2
I2
tp54
ag50
a(I3
I4
tp55
a(I3
I3
tp56
a(I3
I5
tp57
atp58
Rp59
sg15
I8
sg30
g20
((lp60
(I6
I4
tp61
a(I5
I4
tp62
a(I1
I3
tp63
a(I5
I1
tp64
a(I0
I3
tp65
a(I5
I3
tp66
atp67
Rp68
sg13
((I2
I1
tp69
(I6
I1
tp70
(I3
I1
tp71
(I5
I0
tp72
(I7
I3
tp73
tp74
sg14
I7
sbs(iproblems
RoomID
p75
(dp76
g10
I7
sg11
(I5
I2
tp77
sg13
I5
sg14
I8
sg15
I9
sg16
I365562409358139953
sb(imulti_robot_problem
MultiRobotState
p78
(dp79
g19
g20
((lp80
(I6
I4
tp81
a(I5
I5
tp82
a(I2
I1
tp83
a(I3
I7
tp84
a(I2
I5
tp85
ag77
a(I0
I2
tp86
a(I5
I3
tp87
atp88
Rp89
sg15
I9
sg30
g20
((lp90
(I2
I0
tp91
a(I1
I6
tp92
a(I8
I2
tp93
a(I4
I5
tp94
a(I8
I6
tp95
a(I5
I7
tp96
a(I3
I4
tp97
atp98
Rp99
sg13
((I4
I2
tp100
(I8
I3
tp101
(I6
I3
tp102
(I2
I4
tp103
(I6
I7
tp104
tp105
sg14
I8
sbs(iproblems
RoomID
p106
(dp107
g10
I5
sg11
(I6
I4
tp108
sg13
I2
sg14
I8
sg15
I10
sg16
I1662056218554549082
sb(imulti_robot_problem
MultiRobotState
p109
(dp110
g19
g20
((lp111
g108
a(I4
I6
tp112
a(I3
I6
tp113
a(I4
I4
tp114
a(I9
I6
tp115
a(I5
I5
tp116
atp117
Rp118
sg15
I10
sg30
g20
((lp119
(I4
I5
tp120
a(I8
I3
tp121
a(I8
I4
tp122
a(I7
I7
tp123
a(I3
I3
tp124
atp125
Rp126
sg13
((I9
I3
tp127
(I2
I0
tp128
tp129
sg14
I8
sbs(iproblems
RoomID
p130
(dp131
g10
I6
sg11
(I2
I3
tp132
sg13
I1
sg14
I8
sg15
I8
sg16
I1085536589165212248
sb(imulti_robot_problem
MultiRobotState
p133
(dp134
g19
g20
((lp135
(I1
I5
tp136
ag132
a(I1
I4
tp137
a(I1
I6
tp138
a(I0
I7
tp139
a(I4
I0
tp140
atp141
Rp142
sg15
I8
sg30
g20
((lp143
(I0
I1
tp144
a(I1
I2
tp145
a(I7
I3
tp146
a(I5
I1
tp147
a(I6
I0
tp148
a(I2
I1
tp149
atp150
Rp151
sg13
((I3
I2
tp152
tp153
sg14
I8
sbssS'name'
p154
S'easy_roomset'
p155
sbsg154
S"AnytimeBeam-w20-gf(2, 'lin')_with_PowerHeuristic2"
p156
sS'solutions'
p157
(dp158
g8
((lp159
(F2.7800000000024738
I13
tp160
aF40.159999999999854
tp161
sg48
((lp162
(F0.65999999999985448
I4
tp163
aF40.120000000002619
tp164
sg75
((lp165
F40.18999999999869
tp166
sg106
((lp167
(F0.029999999998835847
I7
tp168
aF40.0
tp169
sg130
((lp170
(F0.069999999999708962
I30
tp171
a(F0.34999999999854481
I28
tp172
a(F0.7000000000007276
I27
tp173
a(F1.0799999999981083
I25
tp174
a(F1.4199999999982538
I23
tp175
a(F2.1399999999994179
I21
tp176
a(F3.2200000000011642
I20
tp177
a(F4.6599999999998545
I19
tp178
a(F6.3400000000001455
I17
tp179
a(F7.9799999999995634
I15
tp180
aF40.0
tp181
ssba(imeasure_core
ProblemSetSolution
p182
(dp183
g3
(imeasure_core
RoomSet
p184
(dp185
g6
(dp186
(iproblems
RoomID
p187
(dp188
g10
I8
sg11
(I9
I3
tp189
sg13
I4
sg14
I11
sg15
I12
sg16
I5594871498841892311
sb(imulti_robot_problem
MultiRobotState
p190
(dp191
g19
g20
((lp192
(I5
I9
tp193
a(I6
I9
tp194
a(I11
I9
tp195
a(I9
I1
tp196
a(I4
I8
tp197
a(I8
I0
tp198
a(I6
I0
tp199
a(I9
I9
tp200
ag189
a(I9
I4
tp201
a(I4
I2
tp202
a(I3
I7
tp203
a(I5
I8
tp204
a(I7
I9
tp205
a(I10
I8
tp206
a(I9
I0
tp207
a(I7
I0
tp208
a(I6
I8
tp209
a(I9
I2
tp210
a(I5
I7
tp211
a(I8
I10
tp212
a(I2
I0
tp213
a(I5
I0
tp214
a(I0
I9
tp215
a(I10
I0
tp216
a(I10
I2
tp217
atp218
Rp219
sg15
I12
sg30
g20
((lp220
(I2
I6
tp221
a(I11
I5
tp222
a(I6
I1
tp223
a(I11
I1
tp224
a(I2
I1
tp225
a(I8
I8
tp226
a(I0
I2
tp227
a(I3
I5
tp228
atp229
Rp230
sg13
((I9
I7
tp231
(I10
I5
tp232
(I6
I5
tp233
(I8
I3
tp234
tp235
sg14
I11
sbs(iproblems
RoomID
p236
(dp237
g10
I6
sg11
(I9
I4
tp238
sg13
I4
sg14
I9
sg15
I10
sg16
I8833747186876682921
sb(imulti_robot_problem
MultiRobotState
p239
(dp240
g19
g20
((lp241
(I4
I7
tp242
a(I4
I8
tp243
a(I4
I5
tp244
a(I2
I1
tp245
a(I7
I5
tp246
a(I2
I3
tp247
ag238
a(I2
I5
tp248
a(I6
I5
tp249
a(I3
I5
tp250
a(I2
I7
tp251
a(I8
I3
tp252
a(I5
I5
tp253
a(I3
I4
tp254
a(I7
I4
tp255
a(I5
I6
tp256
a(I8
I8
tp257
a(I3
I6
tp258
a(I4
I1
tp259
a(I1
I1
tp260
atp261
Rp262
sg15
I10
sg30
g20
((lp263
(I3
I2
tp264
a(I6
I2
tp265
a(I7
I0
tp266
a(I1
I4
tp267
a(I0
I4
tp268
a(I0
I7
tp269
atp270
Rp271
sg13
((I3
I1
tp272
(I8
I1
tp273
(I3
I3
tp274
(I4
I2
tp275
tp276
sg14
I9
sbs(iproblems
RoomID
p277
(dp278
g10
I7
sg11
(I8
I4
tp279
sg13
I4
sg14
I10
sg15
I11
sg16
I365562409358139953
sb(imulti_robot_problem
MultiRobotState
p280
(dp281
g19
g20
((lp282
(I7
I3
tp283
a(I8
I7
tp284
a(I4
I8
tp285
a(I2
I8
tp286
a(I5
I9
tp287
a(I6
I2
tp288
a(I1
I6
tp289
a(I9
I4
tp290
a(I6
I4
tp291
a(I9
I6
tp292
a(I6
I5
tp293
a(I10
I8
tp294
a(I10
I5
tp295
a(I6
I7
tp296
a(I10
I7
tp297
a(I7
I6
tp298
a(I3
I1
tp299
a(I0
I5
tp300
a(I3
I8
tp301
a(I7
I5
tp302
a(I8
I6
tp303
ag279
a(I5
I2
tp304
a(I6
I1
tp305
a(I9
I7
tp306
atp307
Rp308
sg15
I11
sg30
g20
((lp309
(I5
I6
tp310
a(I6
I9
tp311
a(I1
I7
tp312
a(I4
I5
tp313
a(I10
I3
tp314
a(I0
I2
tp315
a(I2
I1
tp316
atp317
Rp318
sg13
((I10
I4
tp319
(I7
I4
tp320
(I3
I6
tp321
(I8
I9
tp322
tp323
sg14
I10
sbs(iproblems
RoomID
p324
(dp325
g10
I10
sg11
(I4
I8
tp326
sg13
I3
sg14
I11
sg15
I9
sg16
I6645345695289302126
sb(imulti_robot_problem
MultiRobotState
p327
(dp328
g19
g20
((lp329
(I5
I9
tp330
a(I3
I2
tp331
a(I3
I1
tp332
ag326
a(I4
I5
tp333
a(I1
I4
tp334
a(I4
I2
tp335
a(I3
I7
tp336
a(I4
I6
tp337
a(I3
I3
tp338
a(I4
I1
tp339
a(I6
I1
tp340
a(I4
I4
tp341
a(I2
I4
tp342
a(I3
I8
tp343
a(I1
I5
tp344
a(I4
I3
tp345
a(I3
I5
tp346
a(I3
I4
tp347
a(I1
I1
tp348
a(I8
I4
tp349
atp350
Rp351
sg15
I9
sg30
g20
((lp352
(I0
I1
tp353
a(I5
I4
tp354
a(I6
I7
tp355
a(I8
I2
tp356
a(I8
I7
tp357
a(I8
I8
tp358
a(I2
I3
tp359
a(I3
I6
tp360
a(I1
I0
tp361
a(I5
I5
tp362
atp363
Rp364
sg13
((I1
I6
tp365
(I0
I9
tp366
(I0
I5
tp367
tp368
sg14
I11
sbs(iproblems
RoomID
p369
(dp370
g10
I8
sg11
(I4
I6
tp371
sg13
I3
sg14
I9
sg15
I12
sg16
I4800841617172907184
sb(imulti_robot_problem
MultiRobotState
p372
(dp373
g19
g20
((lp374
(I5
I4
tp375
ag371
a(I8
I7
tp376
a(I6
I6
tp377
a(I4
I5
tp378
a(I9
I8
tp379
a(I9
I3
tp380
a(I6
I0
tp381
a(I2
I1
tp382
a(I10
I1
tp383
a(I4
I2
tp384
a(I8
I5
tp385
a(I7
I2
tp386
a(I5
I3
tp387
a(I8
I3
tp388
a(I3
I1
tp389
a(I3
I3
tp390
a(I11
I8
tp391
a(I7
I1
tp392
a(I11
I3
tp393
a(I6
I3
tp394
a(I0
I6
tp395
a(I4
I3
tp396
a(I8
I6
tp397
a(I8
I4
tp398
a(I9
I7
tp399
atp400
Rp401
sg15
I12
sg30
g20
((lp402
(I11
I4
tp403
a(I8
I2
tp404
a(I10
I7
tp405
a(I7
I6
tp406
a(I1
I4
tp407
a(I11
I0
tp408
a(I9
I2
tp409
a(I0
I2
tp410
atp411
Rp412
sg13
((I9
I1
tp413
(I0
I4
tp414
(I7
I4
tp415
tp416
sg14
I9
sbssg154
S'mild_roomset'
p417
sbsg154
g156
sg157
(dp418
g187
((lp419
(F2.4199999999982538
I32
tp420
aF40.049999999999272
tp421
sg236
((lp422
(F3.2400000000016007
I32
tp423
aF40.099999999998545
tp424
sg277
((lp425
(F0.74000000000160071
I25
tp426
aF40.080000000001746
tp427
sg324
((lp428
(F24.180000000000291
I84
tp429
aF40.0
tp430
sg369
((lp431
(F0.34000000000014552
I17
tp432
aF40.009999999998399
tp433
ssba(imeasure_core
ProblemSetSolution
p434
(dp435
g3
(imeasure_core
RoomSet
p436
(dp437
g6
(dp438
(iproblems
RoomID
p439
(dp440
g10
I13
sg11
(I9
I8
tp441
sg13
I7
sg14
I12
sg15
I13
sg16
I5594871498841892311
sb(imulti_robot_problem
MultiRobotState
p442
(dp443
g19
g20
((lp444
(I5
I9
tp445
a(I6
I9
tp446
a(I1
I3
tp447
a(I10
I4
tp448
a(I4
I8
tp449
ag441
a(I1
I4
tp450
a(I11
I3
tp451
a(I8
I6
tp452
a(I9
I6
tp453
a(I5
I5
tp454
a(I9
I5
tp455
a(I6
I7
tp456
a(I6
I8
tp457
a(I6
I10
tp458
a(I8
I10
tp459
a(I5
I0
tp460
a(I10
I0
tp461
a(I7
I9
tp462
a(I9
I7
tp463
atp464
Rp465
sg15
I13
sg30
g20
((lp466
(I2
I7
tp467
a(I10
I5
tp468
a(I11
I5
tp469
a(I6
I1
tp470
a(I8
I0
tp471
a(I2
I1
tp472
a(I2
I0
tp473
a(I0
I10
tp474
a(I7
I10
tp475
a(I12
I10
tp476
a(I5
I2
tp477
a(I0
I2
tp478
a(I3
I5
tp479
atp480
Rp481
sg13
((I10
I8
tp482
(I11
I6
tp483
(I7
I5
tp484
(I9
I3
tp485
(I9
I11
tp486
(I12
I1
tp487
(I9
I9
tp488
tp489
sg14
I12
sbs(iproblems
RoomID
p490
(dp491
g10
I11
sg11
(I8
I7
tp492
sg13
I7
sg14
I10
sg15
I11
sg16
I8833747186876682921
sb(imulti_robot_problem
MultiRobotState
p493
(dp494
g19
g20
((lp495
(I5
I7
tp496
a(I4
I8
tp497
a(I4
I5
tp498
a(I2
I1
tp499
ag492
a(I5
I1
tp500
a(I5
I5
tp501
a(I6
I7
tp502
a(I4
I6
tp503
a(I8
I1
tp504
a(I4
I4
tp505
a(I6
I3
tp506
a(I8
I8
tp507
a(I3
I3
tp508
a(I7
I8
tp509
a(I10
I2
tp510
atp511
Rp512
sg15
I11
sg30
g20
((lp513
(I10
I5
tp514
a(I7
I6
tp515
a(I4
I7
tp516
a(I1
I4
tp517
a(I9
I9
tp518
a(I3
I8
tp519
a(I0
I5
tp520
a(I8
I6
tp521
a(I2
I5
tp522
a(I0
I8
tp523
a(I7
I2
tp524
atp525
Rp526
sg13
((I3
I1
tp527
(I9
I1
tp528
(I5
I2
tp529
(I4
I3
tp530
(I8
I0
tp531
(I10
I4
tp532
(I8
I5
tp533
tp534
sg14
I10
sbs(iproblems
RoomID
p535
(dp536
g10
I12
sg11
(I0
I5
tp537
sg13
I7
sg14
I11
sg15
I12
sg16
I365562409358139953
sb(imulti_robot_problem
MultiRobotState
p538
(dp539
g19
g20
((lp540
(I1
I3
tp541
a(I6
I6
tp542
a(I0
I4
tp543
a(I7
I5
tp544
ag537
a(I8
I7
tp545
a(I4
I2
tp546
a(I2
I9
tp547
a(I10
I7
tp548
a(I7
I8
tp549
a(I7
I6
tp550
a(I3
I1
tp551
a(I4
I8
tp552
a(I3
I9
tp553
a(I2
I2
tp554
a(I8
I6
tp555
a(I5
I2
tp556
a(I11
I6
tp557
a(I8
I4
tp558
atp559
Rp560
sg15
I12
sg30
g20
((lp561
(I3
I2
tp562
a(I11
I9
tp563
a(I4
I9
tp564
a(I10
I4
tp565
a(I5
I7
tp566
a(I2
I1
tp567
a(I0
I6
tp568
a(I1
I6
tp569
a(I7
I10
tp570
a(I3
I7
tp571
a(I5
I10
tp572
a(I0
I2
tp573
atp574
Rp575
sg13
((I6
I3
tp576
(I10
I5
tp577
(I3
I6
tp578
(I8
I10
tp579
(I4
I6
tp580
(I11
I3
tp581
(I1
I8
tp582
tp583
sg14
I11
sbs(iproblems
RoomID
p584
(dp585
g10
I11
sg11
(I4
I6
tp586
sg13
I5
sg14
I11
sg15
I11
sg16
I1085536589165212248
sb(imulti_robot_problem
MultiRobotState
p587
(dp588
g19
g20
((lp589
(I10
I5
tp590
a(I2
I6
tp591
ag586
a(I9
I3
tp592
a(I3
I2
tp593
a(I9
I9
tp594
a(I1
I8
tp595
a(I1
I9
tp596
a(I1
I7
tp597
a(I3
I7
tp598
a(I6
I9
tp599
a(I5
I8
tp600
a(I3
I3
tp601
atp602
Rp603
sg15
I11
sg30
g20
((lp604
(I0
I1
tp605
a(I4
I9
tp606
a(I10
I4
tp607
a(I10
I7
tp608
a(I6
I0
tp609
a(I0
I7
tp610
a(I2
I3
tp611
a(I1
I4
tp612
a(I2
I2
tp613
a(I10
I0
tp614
a(I0
I10
tp615
atp616
Rp617
sg13
((I5
I3
tp618
(I0
I2
tp619
(I3
I1
tp620
(I7
I1
tp621
(I9
I0
tp622
tp623
sg14
I11
sbs(iproblems
RoomID
p624
(dp625
g10
I13
sg11
(I3
I8
tp626
sg13
I5
sg14
I10
sg15
I10
sg16
I5338040351619750409
sb(imulti_robot_problem
MultiRobotState
p627
(dp628
g19
g20
((lp629
(I4
I7
tp630
a(I2
I6
tp631
a(I9
I1
tp632
a(I2
I8
tp633
a(I6
I1
tp634
a(I1
I4
tp635
ag626
a(I1
I6
tp636
a(I4
I3
tp637
a(I1
I7
tp638
a(I2
I5
tp639
a(I9
I7
tp640
a(I2
I4
tp641
a(I6
I8
tp642
atp643
Rp644
sg15
I10
sg30
g20
((lp645
(I6
I9
tp646
a(I1
I3
tp647
a(I4
I9
tp648
a(I4
I6
tp649
a(I6
I6
tp650
a(I8
I3
tp651
a(I2
I1
tp652
a(I8
I9
tp653
a(I1
I8
tp654
a(I7
I5
tp655
a(I3
I6
tp656
a(I9
I6
tp657
a(I4
I0
tp658
atp659
Rp660
sg13
((I2
I0
tp661
(I3
I5
tp662
(I5
I0
tp663
(I5
I2
tp664
(I4
I5
tp665
tp666
sg14
I10
sbssg154
S'heavy_roomset'
p667
sbsg154
g156
sg157
(dp668
g439
((lp669
F41.130000000001019
tp670
sg490
((lp671
(F31.079999999998108
I19
tp672
aF43.479999999999563
tp673
sg535
((lp674
F40.729999999999563
tp675
sg624
((lp676
(F5.2299999999995634
I16
tp677
aF40.040000000000873
tp678
sg584
((lp679
(F5.069999999999709
I15
tp680
aF40.0
tp681
ssba(imeasure_core
ProblemSetSolution
p682
(dp683
g3
g4
sg154
S"AnytimeBeam-w20-gf(4, 'lin')_with_PowerHeuristic2"
p684
sg157
(dp685
g8
((lp686
(F2.7999999999992724
I13
tp687
aF40.309999999997672
tp688
sg48
((lp689
(F0.79000000000087311
I4
tp690
aF40.159999999999854
tp691
sg75
((lp692
F40.370000000002619
tp693
sg106
((lp694
(F0.039999999997235136
I7
tp695
aF40.0
tp696
sg130
((lp697
(F0.059999999997671694
I30
tp698
a(F0.34000000000014552
I28
tp699
a(F0.68999999999869033
I27
tp700
a(F1.069999999999709
I25
tp701
a(F1.3899999999994179
I23
tp702
a(F2.1099999999969441
I21
tp703
a(F3.1799999999966531
I20
tp704
a(F4.5999999999985448
I19
tp705
a(F6.2699999999967986
I17
tp706
a(F7.8799999999973807
I15
tp707
aF40.0
tp708
ssba(imeasure_core
ProblemSetSolution
p709
(dp710
g3
g184
sg154
g684
sg157
(dp711
g187
((lp712
(F2.8599999999969441
I32
tp713
aF40.469999999997526
tp714
sg236
((lp715
(F3.7600000000020373
I32
tp716
aF40.319999999999709
tp717
sg277
((lp718
(F0.74000000000160071
I25
tp719
aF40.010000000002037
tp720
sg324
((lp721
(F34.590000000000146
I99
tp722
aF40.009999999998399
tp723
sg369
((lp724
(F0.38999999999941792
I17
tp725
aF40.020000000000437
tp726
ssba(imeasure_core
ProblemSetSolution
p727
(dp728
g3
g436
sg154
g684
sg157
(dp729
g439
((lp730
F40.260000000002037
tp731
sg490
((lp732
(F35.179999999996653
I19
tp733
aF42.679999999996653
tp734
sg535
((lp735
F40.930000000000291
tp736
sg624
((lp737
(F6.0
I16
tp738
aF40.069999999999709
tp739
sg584
((lp740
(F6.1100000000005821
I15
tp741
aF40.100000000002183
tp742
ssba(imeasure_core
ProblemSetSolution
p743
(dp744
g3
g4
sg154
S"AnytimeBeam-w20-gf(8, 'lin')_with_PowerHeuristic2"
p745
sg157
(dp746
g8
((lp747
(F2.7900000000008731
I13
tp748
aF40.599999999998545
tp749
sg48
((lp750
(F0.92000000000189175
I4
tp751
aF40.180000000000291
tp752
sg75
((lp753
F40.470000000001164
tp754
sg106
((lp755
(F0.029999999998835847
I7
tp756
aF40.0
tp757
sg130
((lp758
(F0.059999999997671694
I30
tp759
a(F0.34000000000014552
I28
tp760
a(F0.68999999999869033
I27
tp761
a(F1.0599999999976717
I25
tp762
a(F1.3899999999994179
I23
tp763
a(F2.0999999999985448
I21
tp764
a(F3.180000000000291
I20
tp765
a(F4.5900000000001455
I19
tp766
a(F6.2799999999988358
I17
tp767
a(F7.8999999999978172
I15
tp768
aF40.0
tp769
ssba(imeasure_core
ProblemSetSolution
p770
(dp771
g3
g184
sg154
g745
sg157
(dp772
g187
((lp773
(F3.6300000000010186
I32
tp774
aF40.319999999999709
tp775
sg236
((lp776
(F4.5200000000004366
I32
tp777
aF40.119999999998981
tp778
sg277
((lp779
(F0.75
I25
tp780
aF40.010000000002037
tp781
sg324
((lp782
F40.020000000000437
tp783
sg369
((lp784
(F0.41999999999825377
I17
tp785
aF40.019999999996799
tp786
ssba(imeasure_core
ProblemSetSolution
p787
(dp788
g3
g436
sg154
g745
sg157
(dp789
g439
((lp790
F42.31000000000131
tp791
sg490
((lp792
F41.0
tp793
sg535
((lp794
F40.840000000000146
tp795
sg624
((lp796
(F6.7200000000011642
I16
tp797
aF40.220000000001164
tp798
sg584
((lp799
(F7.2599999999983993
I15
tp800
aF41.110000000000582
tp801
ssba(imeasure_core
ProblemSetSolution
p802
(dp803
g3
g4
sg154
S"AnytimeBeam-w20-gf(16, 'lin')_with_PowerHeuristic2"
p804
sg157
(dp805
g8
((lp806
(F2.7799999999988358
I13
tp807
aF40.360000000000582
tp808
sg48
((lp809
(F1.1300000000010186
I4
tp810
aF40.209999999999127
tp811
sg75
((lp812
F40.540000000000873
tp813
sg106
((lp814
(F0.040000000000873115
I7
tp815
aF40.0
tp816
sg130
((lp817
(F0.059999999997671694
I30
tp818
a(F0.34000000000014552
I28
tp819
a(F0.7000000000007276
I27
tp820
a(F1.0799999999981083
I25
tp821
a(F1.4099999999998545
I23
tp822
a(F2.1300000000010186
I21
tp823
a(F3.2099999999991269
I20
tp824
a(F4.6399999999994179
I19
tp825
a(F6.3299999999981083
I17
tp826
a(F7.9500000000007276
I15
tp827
aF40.0
tp828
ssba(imeasure_core
ProblemSetSolution
p829
(dp830
g3
g184
sg154
g804
sg157
(dp831
g187
((lp832
(F4.6399999999994179
I32
tp833
aF40.959999999999127
tp834
sg236
((lp835
(F4.7000000000007276
I32
tp836
aF40.110000000000582
tp837
sg277
((lp838
(F0.73999999999796273
I25
tp839
aF40.119999999998981
tp840
sg324
((lp841
F40.0
tp842
sg369
((lp843
(F0.42000000000189175
I17
tp844
aF40.040000000000873
tp845
ssba(imeasure_core
ProblemSetSolution
p846
(dp847
g3
g436
sg154
g804
sg157
(dp848
g439
((lp849
F40.31000000000131
tp850
sg490
((lp851
F41.149999999997817
tp852
sg535
((lp853
F41.619999999998981
tp854
sg624
((lp855
(F6.9600000000027649
I16
tp856
aF40.25
tp857
sg584
((lp858
(F7.6599999999998545
I15
tp859
aF40.020000000000437
tp860
ssba(imeasure_core
ProblemSetSolution
p861
(dp862
g3
g4
sg154
S"AnytimeBeam-w20-gf(2, 'lin')_with_LinearHeuristic"
p863
sg157
(dp864
g8
((lp865
F40.31000000000131
tp866
sg48
((lp867
(F0.93999999999869033
I4
tp868
aF40.119999999998981
tp869
sg75
((lp870
(F3.7900000000008731
I17
tp871
aF40.380000000001019
tp872
sg106
((lp873
(F0.049999999999272404
I7
tp874
aF40.0
tp875
sg130
((lp876
(F0.0099999999983992893
I15
tp877
aF40.0
tp878
ssba(imeasure_core
ProblemSetSolution
p879
(dp880
g3
g184
sg154
g863
sg157
(dp881
g187
((lp882
F40.099999999998545
tp883
sg236
((lp884
F40.069999999999709
tp885
sg277
((lp886
F40.010000000002037
tp887
sg324
((lp888
F40.009999999998399
tp889
sg369
((lp890
F40.180000000000291
tp891
ssba(imeasure_core
ProblemSetSolution
p892
(dp893
g3
g436
sg154
g863
sg157
(dp894
g439
((lp895
F42.069999999999709
tp896
sg490
((lp897
F41.110000000000582
tp898
sg535
((lp899
F40.119999999998981
tp900
sg624
((lp901
F40.569999999999709
tp902
sg584
((lp903
F40.040000000000873
tp904
ssba(imeasure_core
ProblemSetSolution
p905
(dp906
g3
g4
sg154
S"AnytimeBeam-w20-gf(4, 'lin')_with_LinearHeuristic"
p907
sg157
(dp908
g8
((lp909
F40.18999999999869
tp910
sg48
((lp911
(F0.93999999999869033
I4
tp912
aF40.240000000001601
tp913
sg75
((lp914
(F4.2399999999979627
I17
tp915
aF40.43999999999869
tp916
sg106
((lp917
(F0.049999999999272404
I7
tp918
aF40.009999999998399
tp919
sg130
((lp920
(F0.010000000002037268
I15
tp921
aF40.0
tp922
ssba(imeasure_core
ProblemSetSolution
p923
(dp924
g3
g184
sg154
g907
sg157
(dp925
g187
((lp926
F40.350000000002183
tp927
sg236
((lp928
F40.290000000000873
tp929
sg277
((lp930
F40.009999999998399
tp931
sg324
((lp932
F40.06000000000131
tp933
sg369
((lp934
F40.159999999999854
tp935
ssba(imeasure_core
ProblemSetSolution
p936
(dp937
g3
g436
sg154
g907
sg157
(dp938
g439
((lp939
F44.049999999999272
tp940
sg490
((lp941
F40.640000000003056
tp942
sg535
((lp943
F40.909999999999854
tp944
sg624
((lp945
F40.68999999999869
tp946
sg584
((lp947
F40.369999999998981
tp948
ssba(imeasure_core
ProblemSetSolution
p949
(dp950
g3
g4
sg154
S"AnytimeBeam-w20-gf(8, 'lin')_with_LinearHeuristic"
p951
sg157
(dp952
g8
((lp953
F40.049999999999272
tp954
sg48
((lp955
(F0.97000000000116415
I4
tp956
aF40.540000000000873
tp957
sg75
((lp958
(F5.0999999999985448
I17
tp959
aF40.219999999997526
tp960
sg106
((lp961
(F0.049999999999272404
I7
tp962
aF40.0
tp963
sg130
((lp964
(F0.010000000002037268
I15
tp965
aF40.0
tp966
ssba(imeasure_core
ProblemSetSolution
p967
(dp968
g3
g184
sg154
g951
sg157
(dp969
g187
((lp970
F40.080000000001746
tp971
sg236
((lp972
F40.239999999997963
tp973
sg277
((lp974
F40.090000000000146
tp975
sg324
((lp976
F40.0
tp977
sg369
((lp978
F40.090000000000146
tp979
ssba(imeasure_core
ProblemSetSolution
p980
(dp981
g3
g436
sg154
g951
sg157
(dp982
g439
((lp983
F45.840000000000146
tp984
sg490
((lp985
F40.69999999999709
tp986
sg535
((lp987
F40.090000000000146
tp988
sg624
((lp989
F40.110000000000582
tp990
sg584
((lp991
F40.170000000001892
tp992
ssba(imeasure_core
ProblemSetSolution
p993
(dp994
g3
g4
sg154
S"AnytimeBeam-w20-gf(16, 'lin')_with_LinearHeuristic"
p995
sg157
(dp996
g8
((lp997
F40.270000000000437
tp998
sg48
((lp999
(F1.0900000000001455
I4
tp1000
aF40.639999999999418
tp1001
sg75
((lp1002
(F6.4799999999995634
I17
tp1003
aF40.040000000000873
tp1004
sg106
((lp1005
(F0.039999999997235136
I7
tp1006
aF40.0
tp1007
sg130
((lp1008
(F0.0099999999983992893
I15
tp1009
aF40.0
tp1010
ssba(imeasure_core
ProblemSetSolution
p1011
(dp1012
g3
g184
sg154
g995
sg157
(dp1013
g187
((lp1014
F40.0
tp1015
sg236
((lp1016
F40.779999999998836
tp1017
sg277
((lp1018
F40.020000000000437
tp1019
sg324
((lp1020
F40.0
tp1021
sg369
((lp1022
F40.020000000000437
tp1023
ssba(imeasure_core
ProblemSetSolution
p1024
(dp1025
g3
g436
sg154
g995
sg157
(dp1026
g439
((lp1027
F47.43999999999869
tp1028
sg490
((lp1029
F42.330000000001746
tp1030
sg535
((lp1031
F42.970000000001164
tp1032
sg624
((lp1033
F40.049999999999272
tp1034
sg584
((lp1035
F40.279999999998836
tp1036
ssba.