(lp0
(imeasure_core
ProblemSetSolution
p1
(dp2
S'roomset'
p3
(imeasure_core
RoomSet
p4
(dp5
S'rooms'
p6
(dp7
(iproblems
RoomID
p8
(dp9
S'dusts'
p10
I7
sS'obstacles'
p11
(I1
I3
tp12
sS'robots'
p13
I1
sS'height'
p14
I7
sS'width'
p15
I9
sS'seed'
p16
I1486246605650367638
sb(imulti_robot_problem
MultiRobotState
p17
(dp18
S'obstacle_locations'
p19
c__builtin__
frozenset
p20
((lp21
(I0
I1
tp22
a(I8
I3
tp23
ag12
a(I0
I3
tp24
a(I0
I2
tp25
atp26
Rp27
sg15
I9
sS'dirt_locations'
p28
g20
((lp29
(I7
I5
tp30
a(I7
I0
tp31
a(I0
I4
tp32
a(I1
I0
tp33
a(I4
I4
tp34
a(I6
I5
tp35
a(I4
I0
tp36
atp37
Rp38
sg13
((I5
I1
tp39
tp40
sg14
I7
sbs(iproblems
RoomID
p41
(dp42
g10
I9
sg11
(I7
I5
tp43
sg13
I4
sg14
I10
sg15
I10
sg16
I679259829289197625
sb(imulti_robot_problem
MultiRobotState
p44
(dp45
g19
g20
((lp46
(I9
I6
tp47
a(I8
I6
tp48
a(I7
I6
tp49
ag43
a(I7
I0
tp50
atp51
Rp52
sg15
I10
sg28
g20
((lp53
(I5
I4
tp54
a(I2
I6
tp55
a(I7
I1
tp56
a(I6
I1
tp57
a(I1
I6
tp58
a(I0
I5
tp59
a(I8
I7
tp60
a(I0
I9
tp61
a(I9
I5
tp62
atp63
Rp64
sg13
((I7
I8
tp65
(I6
I7
tp66
(I3
I5
tp67
(I3
I9
tp68
tp69
sg14
I10
sbs(iproblems
RoomID
p70
(dp71
g10
I6
sg11
(I4
I4
tp72
sg13
I4
sg14
I9
sg15
I9
sg16
I5891625650498269233
sb(imulti_robot_problem
MultiRobotState
p73
(dp74
g19
g20
((lp75
(I2
I7
tp76
a(I4
I5
tp77
ag72
a(I3
I6
tp78
atp79
Rp80
sg15
I9
sg28
g20
((lp81
(I7
I4
tp82
a(I8
I3
tp83
a(I0
I5
tp84
a(I5
I5
tp85
a(I6
I6
tp86
a(I4
I0
tp87
atp88
Rp89
sg13
((I4
I6
tp90
(I7
I1
tp91
(I0
I4
tp92
(I7
I2
tp93
tp94
sg14
I9
sbs(iproblems
RoomID
p95
(dp96
g10
I5
sg11
(I3
I4
tp97
sg13
I1
sg14
I9
sg15
I9
sg16
I2685440357799139976
sb(imulti_robot_problem
MultiRobotState
p98
(dp99
g19
g20
((lp100
(I8
I3
tp101
a(I1
I3
tp102
a(I5
I6
tp103
ag97
a(I2
I4
tp104
a(I3
I8
tp105
a(I2
I3
tp106
a(I7
I8
tp107
a(I1
I1
tp108
atp109
Rp110
sg15
I9
sg28
g20
((lp111
(I0
I1
tp112
a(I0
I0
tp113
a(I3
I1
tp114
a(I8
I7
tp115
a(I5
I0
tp116
atp117
Rp118
sg13
((I5
I5
tp119
tp120
sg14
I9
sbs(iproblems
RoomID
p121
(dp122
g10
I6
sg11
(I1
I6
tp123
sg13
I4
sg14
I8
sg15
I10
sg16
I403795515464475257
sb(imulti_robot_problem
MultiRobotState
p124
(dp125
g19
g20
((lp126
(I8
I3
tp127
a(I1
I3
tp128
a(I6
I7
tp129
a(I0
I4
tp130
ag123
a(I4
I1
tp131
a(I0
I5
tp132
atp133
Rp134
sg15
I10
sg28
g20
((lp135
(I7
I3
tp136
a(I4
I7
tp137
a(I2
I2
tp138
a(I8
I0
tp139
a(I0
I2
tp140
a(I0
I7
tp141
atp142
Rp143
sg13
((I8
I2
tp144
(I6
I1
tp145
(I5
I0
tp146
(I2
I0
tp147
tp148
sg14
I8
sbssS'name'
p149
S'easy_roomset'
p150
sbsg149
S'AnytimeBest-d10_with_PowerHeuristic2'
p151
sS'solutions'
p152
(dp153
g8
((lp154
F0.37999999999738066
tp155
sg41
((lp156
F40.120000000002619
tp157
sg70
((lp158
(F0.4099999999962165
I8
tp159
aF40.05000000000291
tp160
sg95
((lp161
F0.16999999999825377
tp162
sg121
((lp163
F40.069999999999709
tp164
ssba(imeasure_core
ProblemSetSolution
p165
(dp166
g3
(imeasure_core
RoomSet
p167
(dp168
g6
(dp169
(iproblems
RoomID
p170
(dp171
g10
I9
sg11
(I7
I7
tp172
sg13
I4
sg14
I12
sg15
I12
sg16
I679259829289197625
sb(imulti_robot_problem
MultiRobotState
p173
(dp174
g19
g20
((lp175
(I6
I4
tp176
a(I6
I9
tp177
a(I6
I6
tp178
a(I5
I6
tp179
a(I9
I8
tp180
a(I11
I9
tp181
ag172
a(I1
I4
tp182
a(I11
I7
tp183
a(I7
I5
tp184
a(I8
I7
tp185
a(I4
I2
tp186
a(I8
I5
tp187
a(I6
I5
tp188
a(I10
I8
tp189
a(I10
I5
tp190
a(I6
I7
tp191
a(I6
I8
tp192
a(I10
I7
tp193
a(I9
I6
tp194
a(I7
I6
tp195
a(I8
I10
tp196
a(I7
I4
tp197
a(I11
I8
tp198
a(I7
I10
tp199
a(I8
I6
tp200
a(I6
I1
tp201
a(I9
I7
tp202
atp203
Rp204
sg15
I12
sg28
g20
((lp205
(I2
I7
tp206
a(I9
I0
tp207
a(I8
I2
tp208
a(I7
I1
tp209
a(I11
I0
tp210
a(I0
I11
tp211
a(I1
I6
tp212
a(I1
I7
tp213
a(I11
I6
tp214
atp215
Rp216
sg13
((I9
I10
tp217
(I8
I9
tp218
(I3
I7
tp219
(I3
I11
tp220
tp221
sg14
I12
sbs(iproblems
RoomID
p222
(dp223
g10
I5
sg11
(I9
I1
tp224
sg13
I3
sg14
I11
sg15
I11
sg16
I2685440357799139976
sb(imulti_robot_problem
MultiRobotState
p225
(dp226
g19
g20
((lp227
(I7
I3
tp228
a(I10
I4
tp229
a(I9
I3
tp230
ag224
a(I7
I1
tp231
a(I5
I6
tp232
a(I10
I6
tp233
a(I1
I4
tp234
a(I9
I9
tp235
a(I3
I9
tp236
a(I9
I4
tp237
a(I6
I8
tp238
a(I9
I6
tp239
a(I3
I4
tp240
a(I10
I3
tp241
a(I7
I2
tp242
a(I5
I3
tp243
a(I8
I3
tp244
a(I5
I5
tp245
a(I10
I7
tp246
a(I8
I5
tp247
a(I9
I2
tp248
a(I3
I6
tp249
a(I4
I5
tp250
a(I6
I5
tp251
a(I7
I10
tp252
a(I9
I5
tp253
a(I3
I5
tp254
a(I7
I8
tp255
a(I2
I4
tp256
a(I10
I9
tp257
atp258
Rp259
sg15
I11
sg28
g20
((lp260
(I1
I2
tp261
a(I9
I10
tp262
a(I6
I1
tp263
a(I4
I1
tp264
a(I0
I2
tp265
atp266
Rp267
sg13
((I6
I6
tp268
(I0
I0
tp269
(I10
I8
tp270
tp271
sg14
I11
sbs(iproblems
RoomID
p272
(dp273
g10
I7
sg11
(I8
I8
tp274
sg13
I3
sg14
I9
sg15
I9
sg16
I7834319822419845881
sb(imulti_robot_problem
MultiRobotState
p275
(dp276
g19
g20
((lp277
(I4
I7
tp278
a(I1
I3
tp279
a(I5
I0
tp280
a(I6
I6
tp281
a(I5
I6
tp282
a(I2
I8
tp283
a(I3
I5
tp284
a(I4
I6
tp285
a(I2
I6
tp286
a(I0
I5
tp287
a(I3
I7
tp288
a(I0
I3
tp289
a(I0
I8
tp290
a(I8
I5
tp291
a(I5
I8
tp292
a(I3
I3
tp293
a(I2
I7
tp294
a(I6
I7
tp295
a(I5
I5
tp296
a(I7
I8
tp297
a(I4
I4
tp298
a(I1
I5
tp299
a(I1
I8
tp300
ag274
a(I3
I6
tp301
a(I1
I7
tp302
a(I4
I5
tp303
a(I5
I3
tp304
a(I3
I4
tp305
atp306
Rp307
sg15
I9
sg28
g20
((lp308
(I7
I4
tp309
a(I2
I0
tp310
a(I6
I2
tp311
a(I7
I0
tp312
a(I8
I7
tp313
a(I7
I1
tp314
a(I1
I4
tp315
atp316
Rp317
sg13
((I2
I1
tp318
(I2
I3
tp319
(I5
I7
tp320
tp321
sg14
I9
sbs(iproblems
RoomID
p322
(dp323
g10
I10
sg11
(I1
I5
tp324
sg13
I4
sg14
I12
sg15
I10
sg16
I1737871632067391849
sb(imulti_robot_problem
MultiRobotState
p325
(dp326
g19
g20
((lp327
(I3
I2
tp328
a(I0
I0
tp329
a(I6
I6
tp330
a(I5
I6
tp331
a(I2
I8
tp332
a(I2
I10
tp333
a(I8
I9
tp334
a(I6
I2
tp335
a(I2
I3
tp336
a(I8
I7
tp337
a(I5
I1
tp338
a(I8
I5
tp339
a(I5
I8
tp340
a(I8
I3
tp341
a(I5
I5
tp342
a(I7
I8
tp343
a(I7
I6
tp344
a(I8
I10
tp345
ag324
a(I6
I5
tp346
a(I2
I2
tp347
a(I4
I1
tp348
a(I2
I4
tp349
atp350
Rp351
sg15
I10
sg28
g20
((lp352
(I0
I1
tp353
a(I4
I10
tp354
a(I4
I8
tp355
a(I3
I0
tp356
a(I9
I6
tp357
a(I3
I10
tp358
a(I5
I11
tp359
a(I2
I7
tp360
a(I1
I9
tp361
a(I3
I4
tp362
atp363
Rp364
sg13
((I4
I9
tp365
(I8
I11
tp366
(I4
I0
tp367
(I3
I9
tp368
tp369
sg14
I12
sbs(iproblems
RoomID
p370
(dp371
g10
I6
sg11
(I3
I9
tp372
sg13
I4
sg14
I11
sg15
I11
sg16
I5891625650498269233
sb(imulti_robot_problem
MultiRobotState
p373
(dp374
g19
g20
((lp375
(I7
I3
tp376
a(I4
I7
tp377
a(I6
I6
tp378
a(I5
I6
tp379
a(I2
I8
tp380
a(I6
I2
tp381
a(I5
I1
tp382
a(I3
I7
tp383
a(I8
I5
tp384
a(I5
I5
tp385
a(I2
I9
tp386
a(I7
I6
tp387
a(I4
I4
tp388
a(I2
I2
tp389
a(I1
I1
tp390
a(I9
I7
tp391
a(I3
I2
tp392
a(I10
I4
tp393
a(I4
I5
tp394
a(I9
I3
tp395
a(I10
I5
tp396
a(I2
I10
tp397
a(I7
I5
tp398
a(I2
I3
tp399
a(I8
I3
tp400
a(I4
I6
tp401
a(I5
I2
tp402
a(I6
I1
tp403
a(I3
I8
tp404
a(I1
I8
tp405
ag372
a(I4
I3
tp406
a(I9
I5
tp407
a(I3
I4
tp408
a(I8
I4
tp409
atp410
Rp411
sg15
I11
sg28
g20
((lp412
(I8
I8
tp413
a(I5
I10
tp414
a(I9
I1
tp415
a(I10
I7
tp416
a(I1
I6
tp417
a(I7
I9
tp418
atp419
Rp420
sg13
((I5
I7
tp421
(I8
I1
tp422
(I0
I5
tp423
(I4
I0
tp424
tp425
sg14
I11
sbssg149
S'mild_roomset'
p426
sbsg149
g151
sg152
(dp427
g170
((lp428
F40.099999999998545
tp429
sg222
((lp430
F40.099999999998545
tp431
sg322
((lp432
F40.019999999996799
tp433
sg272
((lp434
F40.010000000002037
tp435
sg370
((lp436
F40.160000000003492
tp437
ssba(imeasure_core
ProblemSetSolution
p438
(dp439
g3
(imeasure_core
RoomSet
p440
(dp441
g6
(dp442
(iproblems
RoomID
p443
(dp444
g10
I12
sg11
(I6
I3
tp445
sg13
I5
sg14
I10
sg15
I12
sg16
I1486246605650367638
sb(imulti_robot_problem
MultiRobotState
p446
(dp447
g19
g20
((lp448
(I5
I9
tp449
a(I1
I3
tp450
a(I7
I1
tp451
a(I2
I7
tp452
a(I1
I4
tp453
a(I6
I2
tp454
a(I1
I6
tp455
a(I2
I1
tp456
a(I0
I3
tp457
a(I6
I5
tp458
a(I1
I2
tp459
a(I1
I5
tp460
a(I4
I1
tp461
a(I3
I1
tp462
ag445
a(I2
I0
tp463
a(I10
I0
tp464
a(I5
I2
tp465
a(I1
I1
tp466
a(I8
I4
tp467
atp468
Rp469
sg15
I12
sg28
g20
((lp470
(I11
I7
tp471
a(I11
I4
tp472
a(I9
I1
tp473
a(I11
I8
tp474
a(I2
I8
tp475
a(I6
I0
tp476
a(I0
I6
tp477
a(I11
I1
tp478
a(I0
I4
tp479
a(I4
I9
tp480
a(I10
I9
tp481
a(I9
I7
tp482
atp483
Rp484
sg13
((I2
I4
tp485
(I10
I1
tp486
(I2
I5
tp487
(I9
I8
tp488
(I6
I6
tp489
tp490
sg14
I10
sbs(iproblems
RoomID
p491
(dp492
g10
I14
sg11
(I7
I6
tp493
sg13
I7
sg14
I13
sg15
I13
sg16
I679259829289197625
sb(imulti_robot_problem
MultiRobotState
p494
(dp495
g19
g20
((lp496
(I6
I4
tp497
a(I4
I8
tp498
a(I12
I7
tp499
a(I10
I6
tp500
a(I7
I5
tp501
a(I12
I11
tp502
a(I9
I6
tp503
a(I1
I2
tp504
a(I11
I7
tp505
a(I10
I7
tp506
ag493
a(I6
I3
tp507
a(I6
I2
tp508
a(I4
I3
tp509
a(I3
I4
tp510
a(I12
I8
tp511
atp512
Rp513
sg15
I13
sg28
g20
((lp514
(I2
I7
tp515
a(I12
I1
tp516
a(I9
I2
tp517
a(I2
I8
tp518
a(I5
I7
tp519
a(I10
I0
tp520
a(I1
I4
tp521
a(I0
I12
tp522
a(I7
I4
tp523
a(I10
I9
tp524
a(I4
I2
tp525
a(I11
I4
tp526
a(I11
I6
tp527
a(I1
I9
tp528
atp529
Rp530
sg13
((I9
I11
tp531
(I9
I10
tp532
(I4
I7
tp533
(I4
I12
tp534
(I7
I1
tp535
(I1
I8
tp536
(I1
I6
tp537
tp538
sg14
I13
sbs(iproblems
RoomID
p539
(dp540
g10
I11
sg11
(I2
I7
tp541
sg13
I6
sg14
I11
sg15
I13
sg16
I403795515464475257
sb(imulti_robot_problem
MultiRobotState
p542
(dp543
g19
g20
((lp544
g541
a(I10
I8
tp545
a(I1
I7
tp546
a(I3
I10
tp547
a(I4
I4
tp548
a(I1
I4
tp549
a(I12
I5
tp550
a(I0
I6
tp551
a(I0
I5
tp552
a(I3
I6
tp553
a(I2
I2
tp554
a(I0
I8
tp555
a(I7
I9
tp556
atp557
Rp558
sg15
I13
sg28
g20
((lp559
(I6
I4
tp560
a(I0
I0
tp561
a(I2
I9
tp562
a(I11
I5
tp563
a(I8
I9
tp564
a(I11
I1
tp565
a(I2
I3
tp566
a(I1
I10
tp567
a(I12
I2
tp568
a(I0
I3
tp569
a(I5
I2
tp570
atp571
Rp572
sg13
((I10
I3
tp573
(I7
I2
tp574
(I7
I0
tp575
(I3
I1
tp576
(I5
I10
tp577
(I9
I4
tp578
tp579
sg14
I11
sbs(iproblems
RoomID
p580
(dp581
g10
I11
sg11
(I11
I9
tp582
sg13
I7
sg14
I12
sg15
I12
sg16
I5891625650498269233
sb(imulti_robot_problem
MultiRobotState
p583
(dp584
g19
g20
((lp585
(I4
I4
tp586
a(I4
I8
tp587
a(I5
I6
tp588
a(I8
I11
tp589
ag582
a(I7
I7
tp590
a(I7
I1
tp591
a(I9
I10
tp592
a(I3
I9
tp593
a(I1
I9
tp594
a(I6
I7
tp595
a(I10
I7
tp596
a(I7
I6
tp597
a(I5
I7
tp598
a(I2
I11
tp599
a(I6
I11
tp600
a(I9
I11
tp601
a(I7
I10
tp602
a(I10
I9
tp603
atp604
Rp605
sg15
I12
sg28
g20
((lp606
(I11
I7
tp607
a(I11
I4
tp608
a(I4
I6
tp609
a(I5
I11
tp610
a(I8
I10
tp611
a(I0
I5
tp612
a(I8
I7
tp613
a(I1
I7
tp614
a(I10
I1
tp615
a(I1
I1
tp616
a(I5
I5
tp617
atp618
Rp619
sg13
((I6
I8
tp620
(I9
I2
tp621
(I0
I6
tp622
(I10
I3
tp623
(I9
I5
tp624
(I5
I0
tp625
(I9
I8
tp626
tp627
sg14
I12
sbs(iproblems
RoomID
p628
(dp629
g10
I10
sg11
(I6
I9
tp630
sg13
I5
sg14
I12
sg15
I12
sg16
I2685440357799139976
sb(imulti_robot_problem
MultiRobotState
p631
(dp632
g19
g20
((lp633
(I4
I10
tp634
ag630
a(I9
I1
tp635
a(I5
I11
tp636
a(I3
I0
tp637
a(I0
I7
tp638
a(I3
I9
tp639
a(I0
I5
tp640
a(I1
I4
tp641
a(I0
I3
tp642
a(I4
I0
tp643
a(I1
I2
tp644
a(I11
I10
tp645
a(I6
I10
tp646
a(I5
I6
tp647
a(I9
I11
tp648
a(I7
I9
tp649
a(I4
I5
tp650
a(I3
I5
tp651
a(I3
I4
tp652
a(I2
I4
tp653
a(I1
I9
tp654
atp655
Rp656
sg15
I12
sg28
g20
((lp657
(I11
I7
tp658
a(I8
I3
tp659
a(I10
I11
tp660
a(I7
I1
tp661
a(I10
I5
tp662
a(I8
I10
tp663
a(I6
I3
tp664
a(I3
I6
tp665
a(I9
I10
tp666
a(I6
I5
tp667
atp668
Rp669
sg13
((I7
I7
tp670
(I0
I0
tp671
(I11
I9
tp672
(I0
I2
tp673
(I4
I1
tp674
tp675
sg14
I12
sbssg149
S'heavy_roomset'
p676
sbsg149
g151
sg152
(dp677
g443
((lp678
F41.139999999999418
tp679
sg491
((lp680
F44.569999999999709
tp681
sg539
((lp682
F40.459999999999127
tp683
sg580
((lp684
F47.75
tp685
sg628
((lp686
F40.339999999996508
tp687
ssba(imeasure_core
ProblemSetSolution
p688
(dp689
g3
g4
sg149
S'AnytimeBest-d80_with_PowerHeuristic2'
p690
sg152
(dp691
g8
((lp692
(F0.30000000000291038
I45
tp693
a(F1.1600000000034925
I44
tp694
a(F1.3700000000026193
I37
tp695
a(F1.9899999999979627
I36
tp696
a(F2.1900000000023283
I34
tp697
a(F4.930000000000291
I33
tp698
a(F5.7300000000032014
I31
tp699
a(F7.9400000000023283
I30
tp700
a(F9.0800000000017462
I28
tp701
a(F9.3799999999973807
I26
tp702
a(F14.709999999999127
I25
tp703
a(F18.180000000000291
I24
tp704
aF23.959999999999127
tp705
sg41
((lp706
(F0.81000000000494765
I20
tp707
aF40.020000000004075
tp708
sg70
((lp709
(F0.4099999999962165
I8
tp710
aF40.049999999995634
tp711
sg95
((lp712
(F0.27000000000407454
I47
tp713
a(F2.0999999999985448
I45
tp714
a(F2.4199999999982538
I43
tp715
a(F2.7200000000011642
I35
tp716
a(F4.25
I33
tp717
a(F4.9100000000034925
I31
tp718
a(F5.4900000000052387
I29
tp719
a(F7.75
I27
tp720
a(F10.150000000001455
I25
tp721
a(F10.459999999999127
I23
tp722
aF10.560000000004948
tp723
sg121
((lp724
F40.029999999998836
tp725
ssba(imeasure_core
ProblemSetSolution
p726
(dp727
g3
g167
sg149
g690
sg152
(dp728
g170
((lp729
F40.080000000001746
tp730
sg222
((lp731
F40.069999999999709
tp732
sg322
((lp733
(F0.34999999999854481
I12
tp734
aF40.05000000000291
tp735
sg272
((lp736
(F0.08000000000174623
I25
tp737
aF40.0
tp738
sg370
((lp739
(F3.4199999999982538
I64
tp740
aF40.099999999998545
tp741
ssba(imeasure_core
ProblemSetSolution
p742
(dp743
g3
g440
sg149
g690
sg152
(dp744
g443
((lp745
F40.439999999995052
tp746
sg491
((lp747
F44.660000000003492
tp748
sg539
((lp749
(F25.909999999996217
I19
tp750
aF40.260000000002037
tp751
sg580
((lp752
F47.369999999995343
tp753
sg628
((lp754
(F5.8000000000029104
I58
tp755
aF40.05000000000291
tp756
ssba(imeasure_core
ProblemSetSolution
p757
(dp758
g3
g4
sg149
S'AnytimeBest-d150_with_PowerHeuristic2'
p759
sg152
(dp760
g8
((lp761
(F0.29999999999563443
I45
tp762
a(F1.1599999999962165
I44
tp763
a(F1.3799999999973807
I37
tp764
a(F1.9899999999979627
I36
tp765
a(F2.1999999999970896
I34
tp766
a(F4.9199999999982538
I33
tp767
a(F5.7099999999991269
I31
tp768
a(F7.8999999999941792
I30
tp769
a(F9.0299999999988358
I28
tp770
a(F9.3399999999965075
I26
tp771
a(F14.610000000000582
I25
tp772
a(F18.059999999997672
I24
tp773
aF23.790000000000873
tp774
sg41
((lp775
(F0.78999999999359716
I20
tp776
aF40.089999999996508
tp777
sg70
((lp778
(F0.41000000000349246
I8
tp779
aF40.05000000000291
tp780
sg95
((lp781
(F0.26999999999679858
I47
tp782
a(F2.0799999999944703
I45
tp783
a(F2.3899999999994179
I43
tp784
a(F2.6999999999970896
I35
tp785
a(F4.2199999999938882
I33
tp786
a(F4.8699999999953434
I31
tp787
a(F5.4499999999970896
I29
tp788
a(F7.7099999999991269
I27
tp789
a(F10.110000000000582
I25
tp790
a(F10.419999999998254
I23
tp791
aF10.509999999994761
tp792
sg121
((lp793
(F11.370000000002619
I134
tp794
aF40.260000000002037
tp795
ssba(imeasure_core
ProblemSetSolution
p796
(dp797
g3
g167
sg149
g759
sg152
(dp798
g170
((lp799
F40.05000000000291
tp800
sg222
((lp801
(F8.319999999999709
I127
tp802
aF40.009999999994761
tp803
sg322
((lp804
(F0.36000000000058208
I12
tp805
aF40.030000000006112
tp806
sg272
((lp807
(F0.08000000000174623
I25
tp808
aF40.0
tp809
sg370
((lp810
(F3.4099999999962165
I64
tp811
aF40.069999999999709
tp812
ssba(imeasure_core
ProblemSetSolution
p813
(dp814
g3
g440
sg149
g759
sg152
(dp815
g443
((lp816
(F30.659999999996217
I113
tp817
aF40.529999999998836
tp818
sg491
((lp819
F44.32999999999447
tp820
sg539
((lp821
(F26.070000000006985
I19
tp822
aF40.260000000002037
tp823
sg580
((lp824
F47.560000000004948
tp825
sg628
((lp826
(F5.819999999999709
I58
tp827
aF40.049999999995634
tp828
ssba(imeasure_core
ProblemSetSolution
p829
(dp830
g3
g4
sg149
S'AnytimeBest-d250_with_PowerHeuristic2'
p831
sg152
(dp832
g8
((lp833
(F0.29999999999563443
I45
tp834
a(F1.1599999999962165
I44
tp835
a(F1.3699999999953434
I37
tp836
a(F1.9899999999979627
I36
tp837
a(F2.1900000000023283
I34
tp838
a(F4.9099999999962165
I33
tp839
a(F5.6999999999970896
I31
tp840
a(F7.9000000000014552
I30
tp841
a(F9.0199999999967986
I28
tp842
a(F9.319999999999709
I26
tp843
a(F14.599999999998545
I25
tp844
a(F18.049999999995634
I24
tp845
aF23.779999999998836
tp846
sg41
((lp847
(F0.80000000000291038
I20
tp848
aF40.019999999996799
tp849
sg70
((lp850
(F0.41000000000349246
I8
tp851
aF40.069999999999709
tp852
sg95
((lp853
(F0.27000000000407454
I47
tp854
a(F2.1000000000058208
I45
tp855
a(F2.4100000000034925
I43
tp856
a(F2.7200000000011642
I35
tp857
a(F4.2400000000052387
I33
tp858
a(F4.9000000000014552
I31
tp859
a(F5.4800000000032014
I29
tp860
a(F7.7600000000020373
I27
tp861
a(F10.160000000003492
I25
tp862
a(F10.470000000001164
I23
tp863
aF10.570000000006985
tp864
sg121
((lp865
(F11.349999999998545
I134
tp866
aF40.269999999996799
tp867
ssba(imeasure_core
ProblemSetSolution
p868
(dp869
g3
g167
sg149
g831
sg152
(dp870
g170
((lp871
F40.269999999996799
tp872
sg222
((lp873
(F8.3400000000037835
I127
tp874
aF40.010000000002037
tp875
sg322
((lp876
(F0.36000000000058208
I12
tp877
aF40.029999999998836
tp878
sg272
((lp879
(F0.08999999999650754
I25
tp880
aF40.0
tp881
sg370
((lp882
(F3.4199999999982538
I64
tp883
aF40.080000000001746
tp884
ssba(imeasure_core
ProblemSetSolution
p885
(dp886
g3
g440
sg149
g831
sg152
(dp887
g443
((lp888
(F30.690000000002328
I113
tp889
aF40.570000000006985
tp890
sg491
((lp891
F44.459999999999127
tp892
sg539
((lp893
(F26.069999999999709
I19
tp894
aF40.259999999994761
tp895
sg580
((lp896
F47.709999999999127
tp897
sg628
((lp898
(F5.8300000000017462
I58
tp899
aF40.05000000000291
tp900
ssba(imeasure_core
ProblemSetSolution
p901
(dp902
g3
g4
sg149
S'AnytimeBest-d400_with_PowerHeuristic2'
p903
sg152
(dp904
g8
((lp905
(F0.30999999999767169
I45
tp906
a(F1.1699999999982538
I44
tp907
a(F1.3899999999994179
I37
tp908
a(F2.0
I36
tp909
a(F2.1999999999970896
I34
tp910
a(F4.9199999999982538
I33
tp911
a(F5.7099999999991269
I31
tp912
a(F7.9000000000014552
I30
tp913
a(F9.0299999999988358
I28
tp914
a(F9.3300000000017462
I26
tp915
a(F14.610000000000582
I25
tp916
a(F18.059999999997672
I24
tp917
aF23.80000000000291
tp918
sg41
((lp919
(F0.79999999999563443
I20
tp920
aF40.029999999998836
tp921
sg70
((lp922
(F0.40000000000145519
I8
tp923
aF40.049999999995634
tp924
sg95
((lp925
(F0.27000000000407454
I47
tp926
a(F2.0800000000017462
I45
tp927
a(F2.3900000000066939
I43
tp928
a(F2.6900000000023283
I35
tp929
a(F4.2100000000064028
I33
tp930
a(F4.8600000000005821
I31
tp931
a(F5.4400000000023283
I29
tp932
a(F7.7000000000043656
I27
tp933
a(F10.090000000003783
I25
tp934
a(F10.400000000001455
I23
tp935
aF10.490000000005239
tp936
sg121
((lp937
(F11.409999999996217
I134
tp938
aF40.019999999996799
tp939
ssba(imeasure_core
ProblemSetSolution
p940
(dp941
g3
g167
sg149
g903
sg152
(dp942
g170
((lp943
F40.290000000000873
tp944
sg222
((lp945
(F8.3399999999965075
I127
tp946
aF40.009999999994761
tp947
sg322
((lp948
(F0.36000000000058208
I12
tp949
aF40.029999999998836
tp950
sg272
((lp951
(F0.08000000000174623
I25
tp952
aF40.020000000004075
tp953
sg370
((lp954
(F3.4100000000034925
I64
tp955
aF40.059999999997672
tp956
ssba(imeasure_core
ProblemSetSolution
p957
(dp958
g3
g440
sg149
g903
sg152
(dp959
g443
((lp960
(F30.780000000006112
I113
tp961
aF40.190000000002328
tp962
sg491
((lp963
F44.360000000000582
tp964
sg539
((lp965
(F26.099999999998545
I19
tp966
aF40.260000000002037
tp967
sg580
((lp968
F47.919999999998254
tp969
sg628
((lp970
(F5.8600000000005821
I58
tp971
aF40.05000000000291
tp972
ssba(imeasure_core
ProblemSetSolution
p973
(dp974
g3
g4
sg149
S'AnytimeBest-d10_with_LinearHeuristic'
p975
sg152
(dp976
g8
((lp977
F1.4400000000023283
tp978
sg41
((lp979
F40.120000000002619
tp980
sg70
((lp981
(F0.31999999999970896
I4
tp982
aF40.149999999994179
tp983
sg95
((lp984
F0.45000000000436557
tp985
sg121
((lp986
F40.129999999997381
tp987
ssba(imeasure_core
ProblemSetSolution
p988
(dp989
g3
g167
sg149
g975
sg152
(dp990
g170
((lp991
F40.059999999997672
tp992
sg222
((lp993
(F37.30000000000291
I10
tp994
aF40.05000000000291
tp995
sg322
((lp996
F40.139999999999418
tp997
sg272
((lp998
F40.020000000004075
tp999
sg370
((lp1000
F40.099999999998545
tp1001
ssba(imeasure_core
ProblemSetSolution
p1002
(dp1003
g3
g440
sg149
g975
sg152
(dp1004
g443
((lp1005
F40.669999999998254
tp1006
sg491
((lp1007
F52.180000000000291
tp1008
sg539
((lp1009
(F21.819999999999709
I10
tp1010
aF42.870000000002619
tp1011
sg580
((lp1012
F41.309999999997672
tp1013
sg628
((lp1014
F40.239999999997963
tp1015
ssba(imeasure_core
ProblemSetSolution
p1016
(dp1017
g3
g4
sg149
S'AnytimeBest-d80_with_LinearHeuristic'
p1018
sg152
(dp1019
g8
((lp1020
(F0.010000000002037268
I24
tp1021
aF40.0
tp1022
sg41
((lp1023
F40.139999999999418
tp1024
sg70
((lp1025
(F0.31999999999970896
I4
tp1026
aF40.160000000003492
tp1027
sg95
((lp1028
(F0.019999999996798579
I23
tp1029
aF8.2799999999988358
tp1030
sg121
((lp1031
F40.25
tp1032
ssba(imeasure_core
ProblemSetSolution
p1033
(dp1034
g3
g167
sg149
g1018
sg152
(dp1035
g170
((lp1036
F40.069999999999709
tp1037
sg222
((lp1038
F40.059999999997672
tp1039
sg322
((lp1040
F40.040000000000873
tp1041
sg272
((lp1042
F40.0
tp1043
sg370
((lp1044
F40.159999999996217
tp1045
ssba(imeasure_core
ProblemSetSolution
p1046
(dp1047
g3
g440
sg149
g1018
sg152
(dp1048
g443
((lp1049
F40.190000000002328
tp1050
sg491
((lp1051
F51.760000000002037
tp1052
sg539
((lp1053
(F21.869999999995343
I10
tp1054
aF42.869999999995343
tp1055
sg580
((lp1056
F40.990000000005239
tp1057
sg628
((lp1058
F40.069999999999709
tp1059
ssba(imeasure_core
ProblemSetSolution
p1060
(dp1061
g3
g4
sg149
S'AnytimeBest-d150_with_LinearHeuristic'
p1062
sg152
(dp1063
g8
((lp1064
(F0.010000000002037268
I24
tp1065
aF40.0
tp1066
sg41
((lp1067
F40.069999999999709
tp1068
sg70
((lp1069
(F0.31999999999970896
I4
tp1070
aF40.139999999999418
tp1071
sg95
((lp1072
(F0.020000000004074536
I23
tp1073
aF8.2700000000040745
tp1074
sg121
((lp1075
F40.069999999999709
tp1076
ssba(imeasure_core
ProblemSetSolution
p1077
(dp1078
g3
g167
sg149
g1062
sg152
(dp1079
g170
((lp1080
F40.269999999996799
tp1081
sg222
((lp1082
F40.010000000002037
tp1083
sg322
((lp1084
F40.059999999997672
tp1085
sg272
((lp1086
F40.040000000000873
tp1087
sg370
((lp1088
F40.279999999998836
tp1089
ssba(imeasure_core
ProblemSetSolution
p1090
(dp1091
g3
g440
sg149
g1062
sg152
(dp1092
g443
((lp1093
F40.900000000001455
tp1094
sg491
((lp1095
F52.169999999998254
tp1096
sg539
((lp1097
(F21.970000000001164
I10
tp1098
aF42.42000000000553
tp1099
sg580
((lp1100
F41.089999999996508
tp1101
sg628
((lp1102
F40.200000000004366
tp1103
ssba(imeasure_core
ProblemSetSolution
p1104
(dp1105
g3
g4
sg149
S'AnytimeBest-d250_with_LinearHeuristic'
p1106
sg152
(dp1107
g8
((lp1108
(F0.010000000002037268
I24
tp1109
aF40.0
tp1110
sg41
((lp1111
F40.349999999998545
tp1112
sg70
((lp1113
(F0.32000000000698492
I4
tp1114
aF40.150000000001455
tp1115
sg95
((lp1116
(F0.020000000004074536
I23
tp1117
aF8.2600000000020373
tp1118
sg121
((lp1119
F40.069999999999709
tp1120
ssba(imeasure_core
ProblemSetSolution
p1121
(dp1122
g3
g167
sg149
g1106
sg152
(dp1123
g170
((lp1124
F40.069999999999709
tp1125
sg222
((lp1126
F40.019999999996799
tp1127
sg322
((lp1128
F40.110000000000582
tp1129
sg272
((lp1130
F40.0
tp1131
sg370
((lp1132
F40.080000000001746
tp1133
ssba(imeasure_core
ProblemSetSolution
p1134
(dp1135
g3
g440
sg149
g1106
sg152
(dp1136
g443
((lp1137
F40.930000000000291
tp1138
sg491
((lp1139
F52.25
tp1140
sg539
((lp1141
(F21.720000000001164
I10
tp1142
aF42.599999999998545
tp1143
sg580
((lp1144
F41.25
tp1145
sg628
((lp1146
F40.150000000001455
tp1147
ssba(imeasure_core
ProblemSetSolution
p1148
(dp1149
g3
g4
sg149
S'AnytimeBest-d400_with_LinearHeuristic'
p1150
sg152
(dp1151
g8
((lp1152
(F0.019999999996798579
I24
tp1153
aF40.0
tp1154
sg41
((lp1155
F40.260000000002037
tp1156
sg70
((lp1157
(F0.31999999999970896
I4
tp1158
aF40.139999999999418
tp1159
sg95
((lp1160
(F0.0099999999947613105
I23
tp1161
aF8.25
tp1162
sg121
((lp1163
F40.089999999996508
tp1164
ssba(imeasure_core
ProblemSetSolution
p1165
(dp1166
g3
g167
sg149
g1150
sg152
(dp1167
g170
((lp1168
F40.049999999995634
tp1169
sg222
((lp1170
F40.080000000001746
tp1171
sg322
((lp1172
F40.069999999999709
tp1173
sg272
((lp1174
F40.010000000002037
tp1175
sg370
((lp1176
F40.150000000001455
tp1177
ssba(imeasure_core
ProblemSetSolution
p1178
(dp1179
g3
g440
sg149
g1150
sg152
(dp1180
g443
((lp1181
F40.929999999993015
tp1182
sg491
((lp1183
F52.210000000006403
tp1184
sg539
((lp1185
(F21.709999999999127
I10
tp1186
aF42.619999999995343
tp1187
sg580
((lp1188
F41.220000000001164
tp1189
sg628
((lp1190
F40.190000000002328
tp1191
ssba.