(lp0
(imeasure_core
ProblemSetSolution
p1
(dp2
S'roomset'
p3
(imeasure_core
RoomSet
p4
(dp5
S'rooms'
p6
(dp7
(iproblems
RoomID
p8
(dp9
S'dusts'
p10
I10
sS'obstacles'
p11
(I0
I8
tp12
sS'robots'
p13
I4
sS'height'
p14
I10
sS'width'
p15
I9
sS'seed'
p16
I4712128852136459333
sb(imulti_robot_problem
MultiRobotState
p17
(dp18
S'obstacle_locations'
p19
c__builtin__
frozenset
p20
((lp21
(I0
I6
tp22
ag12
a(I2
I3
tp23
a(I1
I5
tp24
a(I8
I0
tp25
a(I1
I1
tp26
a(I0
I7
tp27
atp28
Rp29
sg15
I9
sS'dirt_locations'
p30
g20
((lp31
(I4
I7
tp32
a(I1
I3
tp33
a(I4
I9
tp34
a(I8
I1
tp35
a(I7
I6
tp36
a(I2
I6
tp37
a(I8
I7
tp38
a(I2
I2
tp39
a(I4
I1
tp40
a(I2
I4
tp41
atp42
Rp43
sg13
((I5
I8
tp44
(I6
I9
tp45
(I5
I0
tp46
(I3
I1
tp47
tp48
sg14
I10
sbs(iproblems
RoomID
p49
(dp50
g10
I9
sg11
(I3
I4
tp51
sg13
I1
sg14
I7
sg15
I8
sg16
I6613812840851947673
sb(imulti_robot_problem
MultiRobotState
p52
(dp53
g19
g20
((lp54
(I3
I5
tp55
ag51
a(I2
I4
tp56
a(I2
I1
tp57
a(I1
I4
tp58
atp59
Rp60
sg15
I8
sg30
g20
((lp61
(I6
I4
tp62
a(I5
I4
tp63
a(I6
I0
tp64
a(I7
I5
tp65
a(I1
I6
tp66
a(I2
I2
tp67
a(I0
I5
tp68
a(I4
I1
tp69
a(I4
I0
tp70
atp71
Rp72
sg13
((I3
I1
tp73
tp74
sg14
I7
sbs(iproblems
RoomID
p75
(dp76
g10
I10
sg11
(I4
I5
tp77
sg13
I1
sg14
I8
sg15
I8
sg16
I2893396244277848635
sb(imulti_robot_problem
MultiRobotState
p78
(dp79
g19
g20
((lp80
g77
a(I3
I7
tp81
a(I2
I6
tp82
a(I4
I6
tp83
atp84
Rp85
sg15
I8
sg30
g20
((lp86
(I6
I4
tp87
a(I0
I0
tp88
a(I6
I7
tp89
a(I3
I0
tp90
a(I2
I1
tp91
a(I0
I6
tp92
a(I7
I2
tp93
a(I2
I4
tp94
a(I6
I5
tp95
a(I5
I3
tp96
atp97
Rp98
sg13
((I2
I3
tp99
tp100
sg14
I8
sbs(iproblems
RoomID
p101
(dp102
g10
I9
sg11
(I5
I3
tp103
sg13
I3
sg14
I7
sg15
I8
sg16
I4594210616595436404
sb(imulti_robot_problem
MultiRobotState
p104
(dp105
g19
g20
((lp106
(I0
I1
tp107
a(I3
I3
tp108
a(I4
I3
tp109
a(I4
I2
tp110
a(I6
I1
tp111
ag103
atp112
Rp113
sg15
I8
sg30
g20
((lp114
(I6
I6
tp115
a(I5
I6
tp116
a(I4
I4
tp117
a(I1
I4
tp118
a(I0
I6
tp119
a(I5
I1
tp120
a(I1
I0
tp121
a(I0
I3
tp122
a(I1
I1
tp123
atp124
Rp125
sg13
((I2
I1
tp126
(I3
I4
tp127
(I3
I6
tp128
tp129
sg14
I7
sbs(iproblems
RoomID
p130
(dp131
g10
I10
sg11
(I4
I8
tp132
sg13
I4
sg14
I10
sg15
I7
sg16
I956523682424107605
sb(imulti_robot_problem
MultiRobotState
p133
(dp134
g19
g20
((lp135
(I2
I8
tp136
ag132
a(I3
I7
tp137
a(I2
I9
tp138
a(I4
I2
tp139
atp140
Rp141
sg15
I7
sg30
g20
((lp142
(I5
I9
tp143
a(I4
I7
tp144
a(I1
I3
tp145
a(I3
I3
tp146
a(I5
I5
tp147
a(I6
I1
tp148
a(I5
I4
tp149
a(I0
I4
tp150
a(I5
I2
tp151
a(I5
I3
tp152
atp153
Rp154
sg13
((I1
I9
tp155
(I4
I9
tp156
(I1
I8
tp157
(I0
I3
tp158
tp159
sg14
I10
sbssS'name'
p160
S'easy_roomset'
p161
sbsg160
S"AnytimeBeam-w20-gf(1.3, 'exp')_with_PowerHeuristic2"
p162
sS'solutions'
p163
(dp164
g8
((lp165
(F2.8899999999994179
I51
tp166
aF40.279999999998836
tp167
sg49
((lp168
(F0.090000000000145519
I36
tp169
a(F0.90999999999985448
I30
tp170
a(F1.6399999999994179
I29
tp171
a(F6.569999999999709
I28
tp172
a(F12.919999999998254
I27
tp173
a(F25.18999999999869
I26
tp174
a(F35.639999999999418
I25
tp175
aF40.0
tp176
sg75
((lp177
(F0.36000000000058208
I61
tp178
a(F1.3400000000001455
I57
tp179
a(F2.2599999999983993
I56
tp180
a(F3.4799999999995634
I54
tp181
a(F4.6100000000005821
I52
tp182
a(F6.6100000000005821
I51
tp183
a(F9.5299999999988358
I50
tp184
a(F12.43999999999869
I48
tp185
a(F15.479999999999563
I46
tp186
a(F18.579999999998108
I44
tp187
a(F27.419999999998254
I43
tp188
a(F35.680000000000291
I42
tp189
aF40.0
tp190
sg101
((lp191
(F7.4799999999995634
I26
tp192
aF40.040000000000873
tp193
sg130
((lp194
(F1.0599999999976717
I10
tp195
aF40.299999999999272
tp196
ssba(imeasure_core
ProblemSetSolution
p197
(dp198
g3
(imeasure_core
RoomSet
p199
(dp200
g6
(dp201
(iproblems
RoomID
p202
(dp203
g10
I10
sg11
(I8
I7
tp204
sg13
I4
sg14
I12
sg15
I11
sg16
I4712128852136459333
sb(imulti_robot_problem
MultiRobotState
p205
(dp206
g19
g20
((lp207
(I6
I4
tp208
a(I4
I7
tp209
ag204
a(I4
I5
tp210
a(I3
I11
tp211
a(I0
I7
tp212
a(I7
I7
tp213
a(I1
I6
tp214
a(I1
I9
tp215
a(I2
I10
tp216
a(I4
I2
tp217
a(I1
I11
tp218
a(I6
I5
tp219
a(I5
I3
tp220
a(I9
I0
tp221
a(I0
I8
tp222
a(I5
I5
tp223
a(I7
I6
tp224
a(I3
I1
tp225
a(I2
I11
tp226
a(I0
I9
tp227
a(I2
I3
tp228
a(I4
I1
tp229
a(I1
I1
tp230
atp231
Rp232
sg15
I11
sg30
g20
((lp233
(I2
I7
tp234
a(I9
I1
tp235
a(I9
I8
tp236
a(I5
I1
tp237
a(I2
I5
tp238
a(I9
I7
tp239
a(I3
I4
tp240
a(I2
I4
tp241
a(I5
I8
tp242
a(I3
I3
tp243
atp244
Rp245
sg13
((I6
I10
tp246
(I8
I10
tp247
(I7
I0
tp248
(I5
I11
tp249
tp250
sg14
I12
sbs(iproblems
RoomID
p251
(dp252
g10
I9
sg11
(I4
I4
tp253
sg13
I3
sg14
I9
sg15
I10
sg16
I4594210616595436404
sb(imulti_robot_problem
MultiRobotState
p254
(dp255
g19
g20
((lp256
(I1
I3
tp257
a(I3
I0
tp258
a(I2
I1
tp259
a(I1
I6
tp260
a(I9
I4
tp261
a(I3
I7
tp262
a(I0
I3
tp263
a(I1
I2
tp264
a(I5
I5
tp265
a(I1
I5
tp266
a(I7
I6
tp267
ag253
a(I6
I3
tp268
a(I5
I6
tp269
a(I3
I6
tp270
a(I0
I4
tp271
a(I8
I6
tp272
a(I3
I5
tp273
a(I1
I1
tp274
a(I5
I4
tp275
a(I4
I5
tp276
a(I0
I5
tp277
a(I5
I3
tp278
a(I0
I1
tp279
a(I5
I2
tp280
a(I0
I6
tp281
a(I2
I0
tp282
a(I1
I8
tp283
a(I2
I3
tp284
a(I9
I5
tp285
a(I3
I4
tp286
a(I0
I2
tp287
atp288
Rp289
sg15
I10
sg30
g20
((lp290
(I7
I8
tp291
a(I7
I0
tp292
a(I6
I8
tp293
a(I2
I8
tp294
a(I8
I8
tp295
a(I0
I8
tp296
a(I8
I5
tp297
a(I5
I8
tp298
a(I8
I2
tp299
atp300
Rp301
sg13
((I4
I6
tp302
(I2
I5
tp303
(I6
I1
tp304
tp305
sg14
I9
sbs(iproblems
RoomID
p306
(dp307
g10
I5
sg11
(I4
I9
tp308
sg13
I4
sg14
I11
sg15
I11
sg16
I1881095652490078568
sb(imulti_robot_problem
MultiRobotState
p309
(dp310
g19
g20
((lp311
(I6
I9
tp312
a(I6
I6
tp313
a(I4
I5
tp314
a(I2
I8
tp315
a(I9
I3
tp316
a(I4
I7
tp317
a(I7
I5
tp318
a(I5
I4
tp319
ag308
a(I6
I5
tp320
a(I3
I5
tp321
a(I7
I4
tp322
a(I1
I7
tp323
a(I6
I7
tp324
a(I4
I6
tp325
a(I7
I6
tp326
a(I4
I4
tp327
a(I8
I10
tp328
a(I6
I3
tp329
a(I7
I10
tp330
a(I2
I2
tp331
a(I4
I8
tp332
a(I7
I8
tp333
a(I1
I1
tp334
a(I8
I4
tp335
atp336
Rp337
sg15
I11
sg30
g20
((lp338
(I1
I10
tp339
a(I5
I9
tp340
a(I0
I0
tp341
a(I10
I2
tp342
a(I9
I7
tp343
atp344
Rp345
sg13
((I5
I7
tp346
(I8
I1
tp347
(I3
I1
tp348
(I8
I8
tp349
tp350
sg14
I11
sbs(iproblems
RoomID
p351
(dp352
g10
I6
sg11
(I8
I8
tp353
sg13
I4
sg14
I11
sg15
I12
sg16
I7529058068588108450
sb(imulti_robot_problem
MultiRobotState
p354
(dp355
g19
g20
((lp356
(I5
I9
tp357
a(I6
I9
tp358
a(I2
I6
tp359
a(I3
I2
tp360
a(I9
I1
tp361
a(I4
I10
tp362
a(I6
I6
tp363
a(I7
I7
tp364
a(I7
I1
tp365
a(I4
I6
tp366
a(I10
I4
tp367
a(I7
I5
tp368
a(I6
I8
tp369
a(I3
I7
tp370
a(I5
I8
tp371
a(I8
I2
tp372
a(I5
I5
tp373
a(I7
I6
tp374
a(I4
I4
tp375
a(I7
I4
tp376
a(I1
I5
tp377
ag353
a(I7
I2
tp378
a(I3
I6
tp379
a(I2
I2
tp380
a(I1
I10
tp381
a(I7
I8
tp382
a(I3
I10
tp383
atp384
Rp385
sg15
I12
sg30
g20
((lp386
(I7
I3
tp387
a(I0
I5
tp388
a(I4
I0
tp389
a(I11
I3
tp390
a(I11
I6
tp391
a(I6
I0
tp392
atp393
Rp394
sg13
((I11
I7
tp395
(I6
I2
tp396
(I11
I5
tp397
(I6
I7
tp398
tp399
sg14
I11
sbs(iproblems
RoomID
p400
(dp401
g10
I8
sg11
(I5
I0
tp402
sg13
I4
sg14
I9
sg15
I9
sg16
I6858376947525423350
sb(imulti_robot_problem
MultiRobotState
p403
(dp404
g19
g20
((lp405
(I6
I4
tp406
a(I4
I7
tp407
a(I1
I3
tp408
a(I4
I3
tp409
a(I7
I1
tp410
a(I3
I0
tp411
a(I2
I8
tp412
a(I6
I0
tp413
a(I2
I1
tp414
a(I1
I6
tp415
a(I5
I1
tp416
a(I2
I5
tp417
a(I0
I8
tp418
a(I7
I2
tp419
a(I2
I7
tp420
a(I3
I8
tp421
a(I5
I5
tp422
a(I6
I1
tp423
a(I5
I7
tp424
a(I6
I3
tp425
a(I1
I8
tp426
ag402
a(I2
I2
tp427
a(I2
I3
tp428
a(I3
I4
tp429
a(I2
I4
tp430
atp431
Rp432
sg15
I9
sg30
g20
((lp433
(I8
I3
tp434
a(I7
I0
tp435
a(I4
I6
tp436
a(I6
I6
tp437
a(I7
I5
tp438
a(I8
I0
tp439
a(I8
I8
tp440
a(I8
I4
tp441
atp442
Rp443
sg13
((I1
I1
tp444
(I6
I5
tp445
(I8
I2
tp446
(I1
I5
tp447
tp448
sg14
I9
sbssg160
S'mild_roomset'
p449
sbsg160
g162
sg163
(dp450
g202
((lp451
(F3.8600000000005821
I23
tp452
aF40.340000000000146
tp453
sg251
((lp454
F40.130000000001019
tp455
sg400
((lp456
(F0.77000000000043656
I16
tp457
aF40.25
tp458
sg351
((lp459
(F2.9600000000027649
I33
tp460
aF40.020000000000437
tp461
sg306
((lp462
(F0.55999999999767169
I7
tp463
aF40.039999999997235
tp464
ssba(imeasure_core
ProblemSetSolution
p465
(dp466
g3
(imeasure_core
RoomSet
p467
(dp468
g6
(dp469
(iproblems
RoomID
p470
(dp471
g10
I15
sg11
(I5
I9
tp472
sg13
I7
sg14
I13
sg15
I12
sg16
I4712128852136459333
sb(imulti_robot_problem
MultiRobotState
p473
(dp474
g19
g20
((lp475
g472
a(I4
I9
tp476
a(I5
I5
tp477
a(I4
I12
tp478
a(I2
I8
tp479
a(I3
I1
tp480
a(I3
I9
tp481
a(I9
I4
tp482
a(I1
I7
tp483
a(I1
I10
tp484
a(I3
I12
tp485
a(I0
I8
tp486
a(I5
I2
tp487
atp488
Rp489
sg15
I12
sg30
g20
((lp490
(I6
I9
tp491
a(I3
I3
tp492
a(I1
I12
tp493
a(I5
I6
tp494
a(I7
I7
tp495
a(I3
I5
tp496
a(I3
I8
tp497
a(I8
I8
tp498
a(I10
I0
tp499
a(I2
I5
tp500
a(I10
I2
tp501
a(I3
I4
tp502
a(I1
I1
tp503
a(I5
I8
tp504
a(I9
I7
tp505
atp506
Rp507
sg13
((I6
I11
tp508
(I8
I11
tp509
(I7
I0
tp510
(I4
I1
tp511
(I6
I12
tp512
(I10
I9
tp513
(I6
I1
tp514
tp515
sg14
I13
sbs(iproblems
RoomID
p516
(dp517
g10
I14
sg11
(I5
I5
tp518
sg13
I5
sg14
I10
sg15
I11
sg16
I6613812840851947673
sb(imulti_robot_problem
MultiRobotState
p519
(dp520
g19
g20
((lp521
(I4
I7
tp522
a(I2
I6
tp523
a(I6
I6
tp524
a(I4
I5
tp525
a(I7
I5
tp526
a(I1
I6
tp527
a(I8
I7
tp528
a(I3
I7
tp529
a(I10
I3
tp530
a(I3
I5
tp531
a(I10
I8
tp532
a(I6
I3
tp533
ag518
a(I8
I5
tp534
a(I7
I4
tp535
a(I3
I8
tp536
a(I0
I6
tp537
a(I3
I6
tp538
a(I1
I3
tp539
a(I8
I6
tp540
a(I2
I4
tp541
atp542
Rp543
sg15
I11
sg30
g20
((lp544
(I6
I4
tp545
a(I3
I2
tp546
a(I4
I6
tp547
a(I4
I9
tp548
a(I3
I3
tp549
a(I9
I8
tp550
a(I8
I0
tp551
a(I8
I8
tp552
a(I5
I0
tp553
a(I1
I0
tp554
a(I8
I4
tp555
a(I5
I2
tp556
a(I6
I1
tp557
a(I9
I7
tp558
atp559
Rp560
sg13
((I5
I1
tp561
(I0
I8
tp562
(I2
I9
tp563
(I4
I1
tp564
(I7
I6
tp565
tp566
sg14
I10
sbs(iproblems
RoomID
p567
(dp568
g10
I15
sg11
(I6
I6
tp569
sg13
I5
sg14
I11
sg15
I11
sg16
I2893396244277848635
sb(imulti_robot_problem
MultiRobotState
p570
(dp571
g19
g20
((lp572
(I7
I3
tp573
a(I4
I7
tp574
a(I5
I5
tp575
a(I4
I8
tp576
a(I5
I6
tp577
a(I2
I8
tp578
ag569
a(I3
I2
tp579
a(I3
I9
tp580
a(I4
I3
tp581
a(I1
I7
tp582
a(I6
I9
tp583
atp584
Rp585
sg15
I11
sg30
g20
((lp586
(I2
I6
tp587
a(I8
I7
tp588
a(I3
I10
tp589
a(I3
I1
tp590
a(I2
I10
tp591
a(I0
I5
tp592
a(I6
I5
tp593
a(I3
I6
tp594
a(I8
I6
tp595
a(I4
I0
tp596
a(I3
I7
tp597
a(I7
I9
tp598
a(I4
I1
tp599
a(I5
I8
tp600
a(I5
I3
tp601
atp602
Rp603
sg13
((I4
I5
tp604
(I0
I9
tp605
(I0
I1
tp606
(I9
I2
tp607
(I8
I10
tp608
tp609
sg14
I11
sbs(iproblems
RoomID
p610
(dp611
g10
I15
sg11
(I4
I8
tp612
sg13
I6
sg14
I13
sg15
I10
sg16
I956523682424107605
sb(imulti_robot_problem
MultiRobotState
p613
(dp614
g19
g20
((lp615
(I5
I9
tp616
a(I6
I9
tp617
a(I7
I10
tp618
ag612
a(I5
I6
tp619
a(I3
I11
tp620
a(I9
I4
tp621
a(I4
I9
tp622
a(I5
I8
tp623
a(I2
I7
tp624
a(I5
I10
tp625
a(I5
I5
tp626
a(I3
I10
tp627
a(I5
I7
tp628
a(I9
I9
tp629
a(I5
I0
tp630
a(I7
I8
tp631
a(I1
I1
tp632
atp633
Rp634
sg15
I10
sg30
g20
((lp635
(I6
I10
tp636
a(I8
I3
tp637
a(I1
I3
tp638
a(I6
I6
tp639
a(I7
I6
tp640
a(I8
I12
tp641
a(I5
I4
tp642
a(I1
I4
tp643
a(I2
I10
tp644
a(I7
I4
tp645
a(I1
I5
tp646
a(I7
I5
tp647
a(I0
I9
tp648
a(I7
I11
tp649
a(I6
I2
tp650
atp651
Rp652
sg13
((I1
I12
tp653
(I6
I12
tp654
(I2
I11
tp655
(I0
I4
tp656
(I9
I1
tp657
(I7
I7
tp658
tp659
sg14
I13
sbs(iproblems
RoomID
p660
(dp661
g10
I13
sg11
(I1
I6
tp662
sg13
I7
sg14
I10
sg15
I10
sg16
I6858376947525423350
sb(imulti_robot_problem
MultiRobotState
p663
(dp664
g19
g20
((lp665
(I4
I7
tp666
a(I1
I3
tp667
a(I2
I8
tp668
a(I2
I2
tp669
a(I2
I1
tp670
a(I2
I3
tp671
a(I9
I5
tp672
a(I2
I5
tp673
a(I2
I7
tp674
a(I2
I9
tp675
a(I8
I1
tp676
ag662
a(I1
I7
tp677
a(I0
I9
tp678
a(I8
I6
tp679
a(I2
I4
tp680
atp681
Rp682
sg15
I10
sg30
g20
((lp683
(I8
I0
tp684
a(I4
I9
tp685
a(I3
I3
tp686
a(I3
I0
tp687
a(I7
I6
tp688
a(I5
I7
tp689
a(I9
I9
tp690
a(I4
I4
tp691
a(I6
I2
tp692
a(I9
I4
tp693
a(I8
I5
tp694
a(I5
I8
tp695
a(I5
I3
tp696
atp697
Rp698
sg13
((I1
I2
tp699
(I7
I5
tp700
(I7
I2
tp701
(I9
I2
tp702
(I1
I5
tp703
(I9
I0
tp704
(I6
I6
tp705
tp706
sg14
I10
sbssg160
S'heavy_roomset'
p707
sbsg160
g162
sg163
(dp708
g470
((lp709
F40.209999999999127
tp710
sg516
((lp711
F40.340000000000146
tp712
sg567
((lp713
(F30.930000000000291
I27
tp714
aF41.270000000000437
tp715
sg610
((lp716
F40.600000000002183
tp717
sg660
((lp718
F41.579999999998108
tp719
ssba(imeasure_core
ProblemSetSolution
p720
(dp721
g3
g4
sg160
S"AnytimeBeam-w20-gf(1.5, 'exp')_with_PowerHeuristic2"
p722
sg163
(dp723
g8
((lp724
(F2.8799999999973807
I51
tp725
aF40.110000000000582
tp726
sg49
((lp727
(F0.079999999998108251
I36
tp728
a(F0.90999999999985448
I30
tp729
a(F1.6399999999994179
I29
tp730
a(F6.5199999999967986
I28
tp731
a(F12.829999999998108
I27
tp732
a(F25.029999999998836
I26
tp733
a(F35.43999999999869
I25
tp734
aF40.0
tp735
sg75
((lp736
(F0.3599999999969441
I61
tp737
a(F1.3499999999985448
I57
tp738
a(F2.2699999999967986
I56
tp739
a(F3.4899999999979627
I54
tp740
a(F4.6299999999973807
I52
tp741
a(F6.6099999999969441
I51
tp742
a(F9.5
I50
tp743
a(F12.379999999997381
I48
tp744
a(F15.409999999999854
I46
tp745
a(F18.519999999996799
I44
tp746
a(F27.279999999998836
I43
tp747
a(F35.5
I42
tp748
aF40.0
tp749
sg101
((lp750
(F7.4399999999986903
I26
tp751
aF40.029999999998836
tp752
sg130
((lp753
(F1.0499999999992724
I10
tp754
aF40.110000000000582
tp755
ssba(imeasure_core
ProblemSetSolution
p756
(dp757
g3
g199
sg160
g722
sg163
(dp758
g202
((lp759
(F3.8499999999985448
I23
tp760
aF40.020000000000437
tp761
sg251
((lp762
F40.329999999998108
tp763
sg400
((lp764
(F0.76000000000203727
I16
tp765
aF40.06000000000131
tp766
sg351
((lp767
(F2.9399999999986903
I33
tp768
aF40.169999999998254
tp769
sg306
((lp770
(F0.56000000000130967
I7
tp771
aF40.020000000000437
tp772
ssba(imeasure_core
ProblemSetSolution
p773
(dp774
g3
g467
sg160
g722
sg163
(dp775
g470
((lp776
F40.389999999999418
tp777
sg516
((lp778
F40.809999999997672
tp779
sg567
((lp780
(F30.80000000000291
I27
tp781
aF41.100000000002183
tp782
sg610
((lp783
F40.299999999999272
tp784
sg660
((lp785
F41.569999999999709
tp786
ssba(imeasure_core
ProblemSetSolution
p787
(dp788
g3
g4
sg160
S"AnytimeBeam-w20-gf(1.7, 'exp')_with_PowerHeuristic2"
p789
sg163
(dp790
g8
((lp791
(F2.8800000000010186
I51
tp792
aF40.130000000001019
tp793
sg49
((lp794
(F0.08000000000174623
I36
tp795
a(F0.90999999999985448
I30
tp796
a(F1.6300000000010186
I29
tp797
a(F6.5200000000004366
I28
tp798
a(F12.840000000000146
I27
tp799
a(F25.069999999999709
I26
tp800
a(F35.490000000001601
I25
tp801
aF40.0
tp802
sg75
((lp803
(F0.36000000000058208
I61
tp804
a(F1.3500000000021828
I57
tp805
a(F2.2799999999988358
I56
tp806
a(F3.5100000000020373
I54
tp807
a(F4.6599999999998545
I52
tp808
a(F6.6500000000014552
I51
tp809
a(F9.5499999999992724
I50
tp810
a(F12.450000000000728
I48
tp811
a(F15.490000000001601
I46
tp812
a(F18.610000000000582
I44
tp813
a(F27.369999999998981
I43
tp814
a(F35.619999999998981
I42
tp815
aF40.0
tp816
sg101
((lp817
(F7.4900000000016007
I26
tp818
aF40.190000000002328
tp819
sg130
((lp820
(F1.0499999999992724
I10
tp821
aF40.069999999999709
tp822
ssba(imeasure_core
ProblemSetSolution
p823
(dp824
g3
g199
sg160
g789
sg163
(dp825
g202
((lp826
(F3.8499999999985448
I23
tp827
aF40.169999999998254
tp828
sg251
((lp829
F40.349999999998545
tp830
sg400
((lp831
(F0.76000000000203727
I16
tp832
aF40.06000000000131
tp833
sg351
((lp834
(F2.9399999999986903
I33
tp835
aF40.209999999999127
tp836
sg306
((lp837
(F0.55000000000291038
I7
tp838
aF40.06000000000131
tp839
ssba(imeasure_core
ProblemSetSolution
p840
(dp841
g3
g467
sg160
g789
sg163
(dp842
g470
((lp843
F40.440000000002328
tp844
sg516
((lp845
F40.819999999999709
tp846
sg567
((lp847
(F30.889999999999418
I27
tp848
aF41.169999999998254
tp849
sg610
((lp850
F40.540000000000873
tp851
sg660
((lp852
F41.459999999999127
tp853
ssba(imeasure_core
ProblemSetSolution
p854
(dp855
g3
g4
sg160
S"AnytimeBeam-w20-gf(1.8999999999999999, 'exp')_with_PowerHeuristic2"
p856
sg163
(dp857
g8
((lp858
(F2.8800000000010186
I51
tp859
aF40.099999999998545
tp860
sg49
((lp861
(F0.090000000000145519
I36
tp862
a(F0.92000000000189175
I30
tp863
a(F1.6399999999994179
I29
tp864
a(F6.5300000000024738
I28
tp865
a(F12.840000000000146
I27
tp866
a(F25.06000000000131
I26
tp867
a(F35.470000000001164
I25
tp868
aF40.0
tp869
sg75
((lp870
(F0.36000000000058208
I61
tp871
a(F1.3500000000021828
I57
tp872
a(F2.2700000000004366
I56
tp873
a(F3.4900000000016007
I54
tp874
a(F4.6300000000010186
I52
tp875
a(F6.6100000000005821
I51
tp876
a(F9.5
I50
tp877
a(F12.380000000001019
I48
tp878
a(F15.400000000001455
I46
tp879
a(F18.510000000002037
I44
tp880
a(F27.270000000000437
I43
tp881
a(F35.520000000000437
I42
tp882
aF40.0
tp883
sg101
((lp884
(F7.4599999999991269
I26
tp885
aF40.159999999999854
tp886
sg130
((lp887
(F1.0499999999992724
I10
tp888
aF40.290000000000873
tp889
ssba(imeasure_core
ProblemSetSolution
p890
(dp891
g3
g199
sg160
g856
sg163
(dp892
g202
((lp893
(F3.8500000000021828
I23
tp894
aF40.270000000000437
tp895
sg251
((lp896
F40.55000000000291
tp897
sg400
((lp898
(F0.75999999999839929
I16
tp899
aF40.009999999998399
tp900
sg351
((lp901
(F2.9599999999991269
I33
tp902
aF40.259999999998399
tp903
sg306
((lp904
(F0.5499999999992724
I7
tp905
aF40.069999999999709
tp906
ssba(imeasure_core
ProblemSetSolution
p907
(dp908
g3
g467
sg160
g856
sg163
(dp909
g470
((lp910
F40.130000000001019
tp911
sg516
((lp912
F40.849999999998545
tp913
sg567
((lp914
(F30.880000000001019
I27
tp915
aF41.159999999999854
tp916
sg610
((lp917
F40.369999999998981
tp918
sg660
((lp919
F41.600000000002183
tp920
ssba(imeasure_core
ProblemSetSolution
p921
(dp922
g3
g4
sg160
S"AnytimeBeam-w20-gf(1.3, 'exp')_with_LinearHeuristic"
p923
sg163
(dp924
g8
((lp925
F40.420000000001892
tp926
sg49
((lp927
(F0.020000000000436557
I25
tp928
aF40.0
tp929
sg75
((lp930
(F0.029999999998835847
I32
tp931
a(F0.64999999999781721
I30
tp932
aF40.009999999998399
tp933
sg101
((lp934
(F0.34000000000014552
I8
tp935
aF40.040000000000873
tp936
sg130
((lp937
F40.950000000000728
tp938
ssba(imeasure_core
ProblemSetSolution
p939
(dp940
g3
g199
sg160
g923
sg163
(dp941
g202
((lp942
F40.069999999999709
tp943
sg251
((lp944
(F30.990000000001601
I14
tp945
aF40.040000000000873
tp946
sg400
((lp947
F40.529999999998836
tp948
sg351
((lp949
F40.409999999999854
tp950
sg306
((lp951
(F1.1399999999994179
I7
tp952
aF40.380000000001019
tp953
ssba(imeasure_core
ProblemSetSolution
p954
(dp955
g3
g467
sg160
g923
sg163
(dp956
g470
((lp957
F60.389999999999418
tp958
sg516
((lp959
F40.270000000000437
tp960
sg567
((lp961
F41.549999999999272
tp962
sg610
((lp963
F48.830000000001746
tp964
sg660
((lp965
F61.93999999999869
tp966
ssba(imeasure_core
ProblemSetSolution
p967
(dp968
g3
g4
sg160
S"AnytimeBeam-w20-gf(1.5, 'exp')_with_LinearHeuristic"
p969
sg163
(dp970
g8
((lp971
F40.369999999998981
tp972
sg49
((lp973
(F0.020000000000436557
I25
tp974
aF40.0
tp975
sg75
((lp976
(F0.030000000002473826
I32
tp977
a(F0.65000000000145519
I30
tp978
aF40.010000000002037
tp979
sg101
((lp980
(F0.34000000000014552
I8
tp981
aF40.020000000000437
tp982
sg130
((lp983
F40.290000000000873
tp984
ssba(imeasure_core
ProblemSetSolution
p985
(dp986
g3
g199
sg160
g969
sg163
(dp987
g202
((lp988
F40.099999999998545
tp989
sg251
((lp990
(F30.909999999999854
I14
tp991
aF40.040000000000873
tp992
sg400
((lp993
F40.590000000000146
tp994
sg351
((lp995
F40.710000000002765
tp996
sg306
((lp997
(F1.1399999999994179
I7
tp998
aF40.469999999997526
tp999
ssba(imeasure_core
ProblemSetSolution
p1000
(dp1001
g3
g467
sg160
g969
sg163
(dp1002
g470
((lp1003
F72.840000000000146
tp1004
sg516
((lp1005
F40.340000000000146
tp1006
sg567
((lp1007
F41.790000000000873
tp1008
sg610
((lp1009
F48.759999999998399
tp1010
sg660
((lp1011
F61.81000000000131
tp1012
ssba(imeasure_core
ProblemSetSolution
p1013
(dp1014
g3
g4
sg160
S"AnytimeBeam-w20-gf(1.7, 'exp')_with_LinearHeuristic"
p1015
sg163
(dp1016
g8
((lp1017
F40.470000000001164
tp1018
sg49
((lp1019
(F0.020000000000436557
I25
tp1020
aF40.0
tp1021
sg75
((lp1022
(F0.029999999998835847
I32
tp1023
a(F0.64999999999781721
I30
tp1024
aF40.009999999998399
tp1025
sg101
((lp1026
(F0.34000000000014552
I8
tp1027
aF40.020000000000437
tp1028
sg130
((lp1029
F40.860000000000582
tp1030
ssba(imeasure_core
ProblemSetSolution
p1031
(dp1032
g3
g199
sg160
g1015
sg163
(dp1033
g202
((lp1034
F40.830000000001746
tp1035
sg251
((lp1036
(F30.779999999998836
I14
tp1037
aF40.009999999998399
tp1038
sg400
((lp1039
F40.779999999998836
tp1040
sg351
((lp1041
F40.110000000000582
tp1042
sg306
((lp1043
(F1.1300000000010186
I7
tp1044
aF40.299999999999272
tp1045
ssba(imeasure_core
ProblemSetSolution
p1046
(dp1047
g3
g467
sg160
g1015
sg163
(dp1048
g470
((lp1049
F40.130000000001019
tp1050
sg516
((lp1051
F40.619999999998981
tp1052
sg567
((lp1053
F42.069999999999709
tp1054
sg610
((lp1055
F49.140000000003056
tp1056
sg660
((lp1057
F62.149999999997817
tp1058
ssba(imeasure_core
ProblemSetSolution
p1059
(dp1060
g3
g4
sg160
S"AnytimeBeam-w20-gf(1.8999999999999999, 'exp')_with_LinearHeuristic"
p1061
sg163
(dp1062
g8
((lp1063
F40.170000000001892
tp1064
sg49
((lp1065
(F0.020000000000436557
I25
tp1066
aF40.0
tp1067
sg75
((lp1068
(F0.029999999998835847
I32
tp1069
a(F0.64999999999781721
I30
tp1070
aF40.009999999998399
tp1071
sg101
((lp1072
(F0.34000000000014552
I8
tp1073
aF40.06000000000131
tp1074
sg130
((lp1075
F40.049999999999272
tp1076
ssba(imeasure_core
ProblemSetSolution
p1077
(dp1078
g3
g199
sg160
g1061
sg163
(dp1079
g202
((lp1080
F40.069999999999709
tp1081
sg251
((lp1082
(F30.56000000000131
I14
tp1083
aF40.070000000003347
tp1084
sg400
((lp1085
F40.700000000000728
tp1086
sg351
((lp1087
F40.829999999998108
tp1088
sg306
((lp1089
(F1.1399999999994179
I7
tp1090
aF40.069999999999709
tp1091
ssba(imeasure_core
ProblemSetSolution
p1092
(dp1093
g3
g467
sg160
g1061
sg163
(dp1094
g470
((lp1095
F40.119999999998981
tp1096
sg516
((lp1097
F40.530000000002474
tp1098
sg567
((lp1099
F42.019999999996799
tp1100
sg610
((lp1101
F48.890000000003056
tp1102
sg660
((lp1103
F62.19999999999709
tp1104
ssba.