(lp0
(imeasure_core
ProblemSetSolution
p1
(dp2
S'roomset'
p3
(imeasure_core
RoomSet
p4
(dp5
S'rooms'
p6
(dp7
(iproblems
RoomID
p8
(dp9
S'dusts'
p10
I6
sS'obstacles'
p11
(I5
I1
tp12
sS'robots'
p13
I4
sS'height'
p14
I9
sS'width'
p15
I10
sS'seed'
p16
I2405875930906139466
sb(imulti_robot_problem
MultiRobotState
p17
(dp18
S'obstacle_locations'
p19
c__builtin__
frozenset
p20
((lp21
(I7
I0
tp22
a(I7
I1
tp23
ag12
a(I6
I1
tp24
a(I6
I0
tp25
a(I7
I2
tp26
atp27
Rp28
sg15
I10
sS'dirt_locations'
p29
g20
((lp30
(I7
I3
tp31
a(I2
I1
tp32
a(I6
I4
tp33
a(I5
I6
tp34
a(I5
I2
tp35
a(I0
I7
tp36
atp37
Rp38
sg13
((I7
I6
tp39
(I3
I3
tp40
(I8
I6
tp41
(I0
I2
tp42
tp43
sg14
I9
sbs(iproblems
RoomID
p44
(dp45
g10
I6
sg11
(I6
I7
tp46
sg13
I4
sg14
I10
sg15
I7
sg16
I8744744311366254845
sb(imulti_robot_problem
MultiRobotState
p47
(dp48
g19
g20
((lp49
(I0
I6
tp50
ag46
a(I4
I6
tp51
a(I3
I7
tp52
a(I5
I7
tp53
a(I1
I9
tp54
atp55
Rp56
sg15
I7
sg29
g20
((lp57
(I2
I7
tp58
a(I0
I1
tp59
a(I5
I4
tp60
a(I6
I0
tp61
a(I5
I8
tp62
a(I5
I3
tp63
atp64
Rp65
sg13
((I0
I8
tp66
(I4
I2
tp67
(I3
I0
tp68
(I1
I4
tp69
tp70
sg14
I10
sbs(iproblems
RoomID
p71
(dp72
g10
I10
sg11
(I4
I7
tp73
sg13
I5
sg14
I10
sg15
I8
sg16
I8655808914197340073
sb(imulti_robot_problem
MultiRobotState
p74
(dp75
g19
g20
((lp76
(I2
I7
tp77
ag73
a(I4
I8
tp78
a(I6
I3
tp79
a(I7
I5
tp80
a(I3
I7
tp81
a(I1
I0
tp82
a(I5
I3
tp83
atp84
Rp85
sg15
I8
sg29
g20
((lp86
(I7
I3
tp87
a(I5
I4
tp88
a(I7
I0
tp89
a(I5
I7
tp90
a(I1
I5
tp91
a(I1
I9
tp92
a(I3
I6
tp93
a(I1
I7
tp94
a(I3
I4
tp95
a(I5
I8
tp96
atp97
Rp98
sg13
((I3
I8
tp99
(I7
I9
tp100
(I6
I1
tp101
(I2
I3
tp102
(I5
I5
tp103
tp104
sg14
I10
sbs(iproblems
RoomID
p105
(dp106
g10
I8
sg11
(I5
I3
tp107
sg13
I3
sg14
I7
sg15
I7
sg16
I7325839828077136048
sb(imulti_robot_problem
MultiRobotState
p108
(dp109
g19
g20
((lp110
(I6
I4
tp111
a(I5
I4
tp112
a(I5
I5
tp113
a(I6
I6
tp114
a(I3
I1
tp115
a(I6
I0
tp116
a(I2
I0
tp117
a(I0
I4
tp118
ag107
atp119
Rp120
sg15
I7
sg29
g20
((lp121
(I0
I6
tp122
a(I3
I0
tp123
a(I2
I4
tp124
a(I1
I5
tp125
a(I4
I3
tp126
a(I2
I2
tp127
a(I1
I1
tp128
a(I3
I5
tp129
atp130
Rp131
sg13
((I1
I0
tp132
(I3
I3
tp133
(I6
I2
tp134
tp135
sg14
I7
sbs(iproblems
RoomID
p136
(dp137
g10
I6
sg11
(I4
I6
tp138
sg13
I1
sg14
I8
sg15
I7
sg16
I3537054308274871603
sb(imulti_robot_problem
MultiRobotState
p139
(dp140
g19
g20
((lp141
(I4
I7
tp142
ag138
a(I4
I5
tp143
a(I2
I5
tp144
a(I3
I5
tp145
a(I6
I0
tp146
a(I2
I4
tp147
atp148
Rp149
sg15
I7
sg29
g20
((lp150
(I0
I6
tp151
a(I6
I2
tp152
a(I5
I6
tp153
a(I4
I1
tp154
a(I1
I1
tp155
a(I5
I3
tp156
atp157
Rp158
sg13
((I0
I3
tp159
tp160
sg14
I8
sbssS'name'
p161
S'easy_roomset'
p162
sbsg161
S'AnytimeBest-d10_with_PowerHeuristic2'
p163
sS'solutions'
p164
(dp165
g8
((lp166
(F0.43000000000029104
I10
tp167
aF40.06000000000131
tp168
sg44
((lp169
F40.25
tp170
sg71
((lp171
(F1.6599999999998545
I9
tp172
aF40.25
tp173
sg105
((lp174
F40.020000000000437
tp175
sg136
((lp176
F0.19999999999708962
tp177
ssba(imeasure_core
ProblemSetSolution
p178
(dp179
g3
(imeasure_core
RoomSet
p180
(dp181
g6
(dp182
(iproblems
RoomID
p183
(dp184
g10
I6
sg11
(I1
I8
tp185
sg13
I4
sg14
I11
sg15
I12
sg16
I2405875930906139466
sb(imulti_robot_problem
MultiRobotState
p186
(dp187
g19
g20
((lp188
(I6
I4
tp189
a(I4
I6
tp190
a(I8
I2
tp191
a(I6
I6
tp192
a(I2
I8
tp193
a(I8
I0
tp194
a(I5
I5
tp195
a(I9
I10
tp196
a(I6
I2
tp197
a(I2
I3
tp198
a(I3
I7
tp199
a(I6
I5
tp200
a(I5
I3
tp201
a(I7
I0
tp202
a(I3
I3
tp203
a(I2
I9
tp204
a(I11
I5
tp205
a(I8
I1
tp206
a(I6
I1
tp207
a(I3
I1
tp208
a(I6
I3
tp209
a(I2
I0
tp210
ag185
a(I7
I5
tp211
a(I3
I6
tp212
a(I4
I3
tp213
a(I3
I4
tp214
atp215
Rp216
sg15
I12
sg29
g20
((lp217
(I9
I4
tp218
a(I7
I1
tp219
a(I0
I9
tp220
a(I9
I3
tp221
a(I7
I7
tp222
a(I2
I1
tp223
atp224
Rp225
sg13
((I9
I7
tp226
(I4
I4
tp227
(I10
I8
tp228
(I0
I2
tp229
tp230
sg14
I11
sbs(iproblems
RoomID
p231
(dp232
g10
I10
sg11
(I0
I5
tp233
sg13
I4
sg14
I12
sg15
I10
sg16
I8655808914197340073
sb(imulti_robot_problem
MultiRobotState
p234
(dp235
g19
g20
((lp236
(I5
I9
tp237
a(I5
I4
tp238
a(I5
I7
tp239
a(I6
I6
tp240
a(I4
I8
tp241
a(I8
I0
tp242
a(I0
I7
tp243
a(I7
I5
tp244
a(I2
I3
tp245
a(I1
I4
tp246
a(I6
I8
tp247
a(I1
I11
tp248
a(I9
I6
tp249
a(I5
I8
tp250
a(I4
I6
tp251
a(I3
I8
tp252
a(I6
I7
tp253
a(I5
I5
tp254
a(I3
I4
tp255
a(I4
I4
tp256
a(I6
I3
tp257
a(I2
I0
tp258
a(I6
I5
tp259
ag233
a(I7
I8
tp260
atp261
Rp262
sg15
I10
sg29
g20
((lp263
(I6
I9
tp264
a(I2
I9
tp265
a(I2
I11
tp266
a(I9
I0
tp267
a(I7
I7
tp268
a(I8
I3
tp269
a(I1
I7
tp270
a(I8
I6
tp271
a(I8
I4
tp272
a(I3
I5
tp273
atp274
Rp275
sg13
((I4
I9
tp276
(I8
I11
tp277
(I7
I1
tp278
(I3
I3
tp279
tp280
sg14
I12
sbs(iproblems
RoomID
p281
(dp282
g10
I10
sg11
(I11
I0
tp283
sg13
I4
sg14
I9
sg15
I12
sg16
I2796939073032698495
sb(imulti_robot_problem
MultiRobotState
p284
(dp285
g19
g20
((lp286
(I7
I3
tp287
a(I5
I7
tp288
a(I9
I1
tp289
a(I6
I6
tp290
a(I8
I0
tp291
a(I7
I7
tp292
a(I5
I8
tp293
a(I3
I3
tp294
a(I8
I1
tp295
a(I4
I8
tp296
a(I6
I3
tp297
a(I7
I2
tp298
a(I3
I6
tp299
a(I6
I4
tp300
a(I5
I4
tp301
a(I2
I6
tp302
a(I7
I1
tp303
a(I4
I5
tp304
ag283
a(I2
I3
tp305
a(I10
I1
tp306
a(I1
I0
tp307
a(I6
I5
tp308
a(I5
I3
tp309
a(I8
I3
tp310
a(I7
I0
tp311
a(I6
I8
tp312
a(I9
I2
tp313
a(I6
I1
tp314
a(I3
I1
tp315
a(I8
I8
tp316
a(I4
I3
tp317
a(I5
I2
tp318
a(I10
I2
tp319
atp320
Rp321
sg15
I12
sg29
g20
((lp322
(I1
I2
tp323
a(I11
I7
tp324
a(I3
I2
tp325
a(I2
I8
tp326
a(I9
I3
tp327
a(I1
I6
tp328
a(I5
I0
tp329
a(I0
I3
tp330
a(I0
I8
tp331
a(I4
I1
tp332
atp333
Rp334
sg13
((I10
I8
tp335
(I4
I6
tp336
(I11
I4
tp337
(I7
I8
tp338
tp339
sg14
I9
sbs(iproblems
RoomID
p340
(dp341
g10
I10
sg11
(I3
I6
tp342
sg13
I4
sg14
I12
sg15
I11
sg16
I4278205817407065157
sb(imulti_robot_problem
MultiRobotState
p343
(dp344
g19
g20
((lp345
(I0
I1
tp346
a(I4
I7
tp347
a(I5
I6
tp348
a(I2
I8
tp349
a(I0
I10
tp350
a(I3
I7
tp351
a(I7
I11
tp352
a(I3
I3
tp353
a(I2
I7
tp354
a(I5
I3
tp355
a(I6
I7
tp356
a(I4
I6
tp357
a(I10
I7
tp358
a(I4
I4
tp359
a(I3
I8
tp360
a(I4
I5
tp361
ag342
a(I1
I10
tp362
a(I3
I5
tp363
a(I1
I9
tp364
atp365
Rp366
sg15
I11
sg29
g20
((lp367
(I1
I2
tp368
a(I8
I1
tp369
a(I9
I2
tp370
a(I6
I1
tp371
a(I5
I7
tp372
a(I8
I9
tp373
a(I3
I0
tp374
a(I9
I4
tp375
a(I0
I2
tp376
a(I4
I0
tp377
atp378
Rp379
sg13
((I6
I10
tp380
(I5
I11
tp381
(I2
I0
tp382
(I9
I1
tp383
tp384
sg14
I12
sbs(iproblems
RoomID
p385
(dp386
g10
I6
sg11
(I3
I3
tp387
sg13
I4
sg14
I12
sg15
I12
sg16
I7193062864237573168
sb(imulti_robot_problem
MultiRobotState
p388
(dp389
g19
g20
((lp390
(I6
I4
tp391
a(I5
I4
tp392
a(I1
I3
tp393
a(I6
I6
tp394
a(I7
I1
tp395
a(I9
I3
tp396
a(I0
I7
tp397
a(I1
I6
tp398
a(I2
I5
tp399
a(I0
I8
tp400
a(I10
I3
tp401
a(I8
I3
tp402
a(I3
I1
tp403
ag387
a(I5
I7
tp404
a(I11
I3
tp405
a(I7
I4
tp406
a(I0
I9
tp407
a(I2
I3
tp408
a(I8
I4
tp409
a(I3
I4
tp410
a(I2
I4
tp411
a(I9
I7
tp412
atp413
Rp414
sg15
I12
sg29
g20
((lp415
(I2
I0
tp416
a(I2
I6
tp417
a(I6
I8
tp418
a(I0
I6
tp419
a(I4
I4
tp420
a(I7
I7
tp421
atp422
Rp423
sg13
((I11
I9
tp424
(I11
I2
tp425
(I4
I11
tp426
(I3
I6
tp427
tp428
sg14
I12
sbssg161
S'mild_roomset'
p429
sbsg161
g163
sg164
(dp430
g183
((lp431
F40.25
tp432
sg231
((lp433
F40.299999999999272
tp434
sg281
((lp435
F40.200000000000728
tp436
sg340
((lp437
F40.380000000001019
tp438
sg385
((lp439
F40.049999999999272
tp440
ssba(imeasure_core
ProblemSetSolution
p441
(dp442
g3
(imeasure_core
RoomSet
p443
(dp444
g6
(dp445
(iproblems
RoomID
p446
(dp447
g10
I11
sg11
(I10
I1
tp448
sg13
I7
sg14
I12
sg15
I13
sg16
I2405875930906139466
sb(imulti_robot_problem
MultiRobotState
p449
(dp450
g19
g20
((lp451
(I7
I3
tp452
a(I9
I1
tp453
a(I7
I1
tp454
a(I5
I6
tp455
a(I8
I11
tp456
a(I8
I0
tp457
a(I1
I4
tp458
a(I6
I2
tp459
a(I0
I7
tp460
ag448
a(I10
I3
tp461
a(I7
I2
tp462
a(I10
I4
tp463
a(I11
I7
tp464
a(I9
I0
tp465
a(I11
I5
tp466
a(I7
I4
tp467
a(I1
I5
tp468
a(I10
I2
tp469
a(I11
I6
tp470
a(I8
I4
tp471
atp472
Rp473
sg15
I13
sg29
g20
((lp474
(I12
I5
tp475
a(I10
I11
tp476
a(I8
I1
tp477
a(I7
I8
tp478
a(I8
I6
tp479
a(I6
I3
tp480
a(I2
I0
tp481
a(I2
I3
tp482
a(I5
I1
tp483
a(I10
I0
tp484
a(I3
I4
tp485
atp486
Rp487
sg13
((I10
I8
tp488
(I9
I2
tp489
(I4
I5
tp490
(I11
I8
tp491
(I1
I2
tp492
(I3
I1
tp493
(I0
I10
tp494
tp495
sg14
I12
sbs(iproblems
RoomID
p496
(dp497
g10
I11
sg11
(I7
I9
tp498
sg13
I6
sg14
I13
sg15
I10
sg16
I8744744311366254845
sb(imulti_robot_problem
MultiRobotState
p499
(dp500
g19
g20
((lp501
(I6
I9
tp502
a(I1
I3
tp503
a(I4
I9
tp504
a(I5
I6
tp505
a(I9
I8
tp506
a(I1
I8
tp507
a(I1
I0
tp508
ag498
a(I3
I4
tp509
a(I5
I8
tp510
a(I9
I7
tp511
atp512
Rp513
sg15
I10
sg29
g20
((lp514
(I0
I1
tp515
a(I7
I3
tp516
a(I9
I0
tp517
a(I1
I12
tp518
a(I4
I10
tp519
a(I5
I11
tp520
a(I9
I10
tp521
a(I7
I11
tp522
a(I3
I7
tp523
a(I0
I8
tp524
a(I9
I6
tp525
atp526
Rp527
sg13
((I0
I10
tp528
(I6
I3
tp529
(I4
I0
tp530
(I1
I6
tp531
(I7
I5
tp532
(I9
I9
tp533
tp534
sg14
I13
sbs(iproblems
RoomID
p535
(dp536
g10
I15
sg11
(I5
I8
tp537
sg13
I7
sg14
I13
sg15
I11
sg16
I8655808914197340073
sb(imulti_robot_problem
MultiRobotState
p538
(dp539
g19
g20
((lp540
(I5
I9
tp541
a(I6
I7
tp542
a(I6
I11
tp543
a(I1
I4
tp544
a(I0
I12
tp545
a(I0
I11
tp546
a(I7
I5
tp547
a(I1
I6
tp548
a(I0
I4
tp549
a(I5
I10
tp550
a(I3
I9
tp551
a(I4
I9
tp552
a(I10
I3
tp553
ag537
atp554
Rp555
sg15
I11
sg29
g20
((lp556
(I2
I7
tp557
a(I7
I3
tp558
a(I4
I6
tp559
a(I1
I12
tp560
a(I5
I6
tp561
a(I8
I5
tp562
a(I7
I7
tp563
a(I7
I9
tp564
a(I2
I0
tp565
a(I9
I4
tp566
a(I7
I10
tp567
a(I0
I8
tp568
a(I9
I6
tp569
a(I6
I5
tp570
a(I9
I7
tp571
atp572
Rp573
sg13
((I9
I11
tp574
(I8
I1
tp575
(I3
I4
tp576
(I8
I7
tp577
(I9
I1
tp578
(I2
I10
tp579
(I2
I12
tp580
tp581
sg14
I13
sbs(iproblems
RoomID
p582
(dp583
g10
I15
sg11
(I4
I8
tp584
sg13
I6
sg14
I13
sg15
I12
sg16
I4278205817407065157
sb(imulti_robot_problem
MultiRobotState
p585
(dp586
g19
g20
((lp587
(I11
I7
tp588
a(I2
I9
tp589
ag584
a(I5
I6
tp590
a(I2
I8
tp591
a(I6
I10
tp592
a(I3
I8
tp593
a(I11
I8
tp594
a(I3
I9
tp595
a(I1
I10
tp596
a(I1
I11
tp597
a(I7
I8
tp598
a(I2
I4
tp599
atp600
Rp601
sg15
I12
sg29
g20
((lp602
(I1
I2
tp603
a(I0
I1
tp604
a(I5
I4
tp605
a(I5
I7
tp606
a(I10
I4
tp607
a(I7
I1
tp608
a(I3
I1
tp609
a(I10
I5
tp610
a(I4
I7
tp611
a(I9
I9
tp612
a(I0
I10
tp613
a(I4
I3
tp614
a(I8
I12
tp615
a(I4
I1
tp616
a(I0
I2
tp617
atp618
Rp619
sg13
((I7
I10
tp620
(I6
I12
tp621
(I2
I0
tp622
(I9
I1
tp623
(I10
I3
tp624
(I4
I0
tp625
tp626
sg14
I13
sbs(iproblems
RoomID
p627
(dp628
g10
I15
sg11
(I3
I6
tp629
sg13
I7
sg14
I10
sg15
I13
sg16
I2796939073032698495
sb(imulti_robot_problem
MultiRobotState
p630
(dp631
g19
g20
((lp632
(I5
I9
tp633
a(I6
I9
tp634
a(I4
I6
tp635
a(I5
I0
tp636
a(I6
I6
tp637
a(I4
I5
tp638
a(I5
I4
tp639
a(I6
I7
tp640
a(I6
I2
tp641
a(I0
I5
tp642
a(I8
I7
tp643
a(I5
I1
tp644
a(I6
I4
tp645
a(I12
I9
tp646
a(I5
I8
tp647
a(I5
I3
tp648
a(I2
I7
tp649
a(I4
I9
tp650
a(I5
I5
tp651
a(I3
I1
tp652
a(I4
I8
tp653
a(I2
I0
tp654
a(I3
I9
tp655
a(I6
I5
tp656
ag629
a(I5
I7
tp657
a(I7
I8
tp658
atp659
Rp660
sg15
I13
sg29
g20
((lp661
(I1
I2
tp662
a(I8
I2
tp663
a(I2
I9
tp664
a(I12
I0
tp665
a(I4
I1
tp666
a(I12
I8
tp667
a(I6
I0
tp668
a(I9
I9
tp669
a(I2
I3
tp670
a(I9
I4
tp671
a(I1
I7
tp672
a(I0
I9
tp673
a(I7
I9
tp674
a(I3
I4
tp675
a(I3
I3
tp676
atp677
Rp678
sg13
((I10
I2
tp679
(I11
I8
tp680
(I12
I5
tp681
(I8
I9
tp682
(I10
I3
tp683
(I0
I3
tp684
(I11
I2
tp685
tp686
sg14
I10
sbssg161
S'heavy_roomset'
p687
sbsg161
g163
sg164
(dp688
g446
((lp689
F46.649999999997817
tp690
sg496
((lp691
F40.130000000001019
tp692
sg535
((lp693
F43.979999999999563
tp694
sg582
((lp695
F40.400000000001455
tp696
sg627
((lp697
F40.540000000000873
tp698
ssba(imeasure_core
ProblemSetSolution
p699
(dp700
g3
g4
sg161
S'AnytimeBest-d80_with_PowerHeuristic2'
p701
sg164
(dp702
g8
((lp703
(F0.43999999999869033
I10
tp704
aF40.049999999999272
tp705
sg44
((lp706
(F0.36999999999898137
I14
tp707
aF40.029999999998836
tp708
sg71
((lp709
(F1.6700000000018917
I9
tp710
aF40.069999999999709
tp711
sg105
((lp712
F40.029999999998836
tp713
sg136
((lp714
(F0.18000000000029104
I49
tp715
a(F0.32000000000334694
I47
tp716
a(F0.40000000000145519
I45
tp717
a(F0.59000000000014552
I43
tp718
a(F1.1100000000005821
I41
tp719
a(F1.2400000000016007
I40
tp720
a(F2.4400000000023283
I39
tp721
a(F2.4700000000011642
I38
tp722
a(F3.2900000000008731
I37
tp723
a(F3.4200000000018917
I35
tp724
a(F4.75
I33
tp725
a(F6.5500000000029104
I31
tp726
a(F6.7900000000008731
I29
tp727
a(F6.930000000000291
I27
tp728
a(F8.2800000000024738
I25
tp729
a(F12.720000000001164
I24
tp730
a(F12.850000000002183
I22
tp731
a(F13.480000000003201
I20
tp732
aF13.720000000001164
tp733
ssba(imeasure_core
ProblemSetSolution
p734
(dp735
g3
g180
sg161
g701
sg164
(dp736
g183
((lp737
(F7.2900000000008731
I24
tp738
aF40.110000000000582
tp739
sg231
((lp740
F40.029999999998836
tp741
sg281
((lp742
F40.139999999999418
tp743
sg340
((lp744
(F1.4600000000027649
I28
tp745
aF40.05000000000291
tp746
sg385
((lp747
(F0.89999999999781721
I25
tp748
aF40.039999999997235
tp749
ssba(imeasure_core
ProblemSetSolution
p750
(dp751
g3
g443
sg161
g701
sg164
(dp752
g446
((lp753
F47.010000000002037
tp754
sg496
((lp755
(F12.430000000000291
I13
tp756
aF40.159999999999854
tp757
sg535
((lp758
F44.0
tp759
sg582
((lp760
(F23.079999999998108
I15
tp761
aF40.340000000000146
tp762
sg627
((lp763
F40.579999999998108
tp764
ssba(imeasure_core
ProblemSetSolution
p765
(dp766
g3
g4
sg161
S'AnytimeBest-d150_with_PowerHeuristic2'
p767
sg164
(dp768
g8
((lp769
(F0.43000000000029104
I10
tp770
aF40.149999999997817
tp771
sg44
((lp772
(F0.36000000000058208
I14
tp773
aF40.010000000002037
tp774
sg71
((lp775
(F1.7000000000007276
I9
tp776
aF40.209999999999127
tp777
sg105
((lp778
(F9.7400000000016007
I144
tp779
aF40.010000000002037
tp780
sg136
((lp781
(F0.17999999999665306
I49
tp782
a(F0.31999999999970896
I47
tp783
a(F0.39999999999781721
I45
tp784
a(F0.58999999999650754
I43
tp785
a(F1.1099999999969441
I41
tp786
a(F1.2399999999979627
I40
tp787
a(F2.4199999999982538
I39
tp788
a(F2.4499999999970896
I38
tp789
a(F3.2699999999967986
I37
tp790
a(F3.3999999999978172
I35
tp791
a(F4.7199999999975262
I33
tp792
a(F6.5199999999967986
I31
tp793
a(F6.7599999999983993
I29
tp794
a(F6.8999999999978172
I27
tp795
a(F8.25
I25
tp796
a(F12.719999999997526
I24
tp797
a(F12.849999999998545
I22
tp798
a(F13.469999999997526
I20
tp799
aF13.709999999999127
tp800
ssba(imeasure_core
ProblemSetSolution
p801
(dp802
g3
g180
sg161
g767
sg164
(dp803
g183
((lp804
(F7.3100000000013097
I24
tp805
aF40.080000000001746
tp806
sg231
((lp807
F40.139999999999418
tp808
sg281
((lp809
F40.169999999998254
tp810
sg340
((lp811
(F1.4799999999995634
I28
tp812
aF40.05000000000291
tp813
sg385
((lp814
(F0.88999999999941792
I25
tp815
aF40.029999999998836
tp816
ssba(imeasure_core
ProblemSetSolution
p817
(dp818
g3
g443
sg161
g767
sg164
(dp819
g446
((lp820
F40.350000000002183
tp821
sg496
((lp822
(F12.5
I13
tp823
aF40.159999999999854
tp824
sg535
((lp825
F44.209999999999127
tp826
sg582
((lp827
(F22.819999999999709
I15
tp828
aF40.240000000001601
tp829
sg627
((lp830
F40.590000000000146
tp831
ssba(imeasure_core
ProblemSetSolution
p832
(dp833
g3
g4
sg161
S'AnytimeBest-d250_with_PowerHeuristic2'
p834
sg164
(dp835
g8
((lp836
(F0.43000000000029104
I10
tp837
aF40.049999999999272
tp838
sg44
((lp839
(F0.36000000000058208
I14
tp840
aF40.010000000002037
tp841
sg71
((lp842
(F1.6699999999982538
I9
tp843
aF40.289999999997235
tp844
sg105
((lp845
(F9.680000000000291
I144
tp846
aF40.010000000002037
tp847
sg136
((lp848
(F0.18999999999869033
I49
tp849
a(F0.31999999999970896
I47
tp850
a(F0.39999999999781721
I45
tp851
a(F0.59999999999854481
I43
tp852
a(F1.1100000000005821
I41
tp853
a(F1.2399999999979627
I40
tp854
a(F2.4199999999982538
I39
tp855
a(F2.4500000000007276
I38
tp856
a(F3.2599999999983993
I37
tp857
a(F3.3899999999994179
I35
tp858
a(F4.7099999999991269
I33
tp859
a(F6.5
I31
tp860
a(F6.7299999999995634
I29
tp861
a(F6.8699999999989814
I27
tp862
a(F8.2099999999991269
I25
tp863
a(F12.649999999997817
I24
tp864
a(F12.779999999998836
I22
tp865
a(F13.409999999999854
I20
tp866
aF13.649999999997817
tp867
ssba(imeasure_core
ProblemSetSolution
p868
(dp869
g3
g180
sg161
g834
sg164
(dp870
g183
((lp871
(F7.319999999999709
I24
tp872
aF40.080000000001746
tp873
sg231
((lp874
(F21.459999999999127
I171
tp875
aF40.209999999999127
tp876
sg281
((lp877
F40.139999999999418
tp878
sg340
((lp879
(F1.4700000000011642
I28
tp880
aF40.05000000000291
tp881
sg385
((lp882
(F0.88999999999941792
I25
tp883
aF40.029999999998836
tp884
ssba(imeasure_core
ProblemSetSolution
p885
(dp886
g3
g443
sg161
g834
sg164
(dp887
g446
((lp888
F40.459999999999127
tp889
sg496
((lp890
(F12.529999999998836
I13
tp891
aF40.159999999999854
tp892
sg535
((lp893
F44.400000000001455
tp894
sg582
((lp895
(F22.979999999999563
I15
tp896
aF40.270000000000437
tp897
sg627
((lp898
F40.889999999999418
tp899
ssba(imeasure_core
ProblemSetSolution
p900
(dp901
g3
g4
sg161
S'AnytimeBest-d400_with_PowerHeuristic2'
p902
sg164
(dp903
g8
((lp904
(F0.43000000000029104
I10
tp905
aF40.049999999999272
tp906
sg44
((lp907
(F0.36000000000058208
I14
tp908
aF40.009999999998399
tp909
sg71
((lp910
(F1.6700000000018917
I9
tp911
aF40.319999999999709
tp912
sg105
((lp913
(F9.6600000000034925
I144
tp914
aF40.010000000002037
tp915
sg136
((lp916
(F0.18999999999869033
I49
tp917
a(F0.31999999999970896
I47
tp918
a(F0.40000000000145519
I45
tp919
a(F0.59000000000014552
I43
tp920
a(F1.1100000000005821
I41
tp921
a(F1.2399999999979627
I40
tp922
a(F2.4099999999998545
I39
tp923
a(F2.4500000000007276
I38
tp924
a(F3.2599999999983993
I37
tp925
a(F3.3899999999994179
I35
tp926
a(F4.7099999999991269
I33
tp927
a(F6.4899999999979627
I31
tp928
a(F6.7200000000011642
I29
tp929
a(F6.8600000000005821
I27
tp930
a(F8.1899999999986903
I25
tp931
a(F12.630000000001019
I24
tp932
a(F12.759999999998399
I22
tp933
a(F13.389999999999418
I20
tp934
aF13.630000000001019
tp935
ssba(imeasure_core
ProblemSetSolution
p936
(dp937
g3
g180
sg161
g902
sg164
(dp938
g183
((lp939
(F7.3599999999969441
I24
tp940
aF40.079999999998108
tp941
sg231
((lp942
(F21.440000000002328
I171
tp943
aF40.25
tp944
sg281
((lp945
F40.139999999999418
tp946
sg340
((lp947
(F1.4700000000011642
I28
tp948
aF40.05000000000291
tp949
sg385
((lp950
(F0.87999999999738066
I25
tp951
aF40.029999999998836
tp952
ssba(imeasure_core
ProblemSetSolution
p953
(dp954
g3
g443
sg161
g902
sg164
(dp955
g446
((lp956
F40.409999999999854
tp957
sg496
((lp958
(F12.520000000000437
I13
tp959
aF40.159999999999854
tp960
sg535
((lp961
F44.020000000000437
tp962
sg582
((lp963
(F22.849999999998545
I15
tp964
aF40.229999999999563
tp965
sg627
((lp966
F40.650000000001455
tp967
ssba(imeasure_core
ProblemSetSolution
p968
(dp969
g3
g4
sg161
S'AnytimeBest-d10_with_LinearHeuristic'
p970
sg164
(dp971
g8
((lp972
F40.099999999998545
tp973
sg44
((lp974
F40.200000000000728
tp975
sg71
((lp976
(F1.8999999999978172
I6
tp977
aF40.18999999999869
tp978
sg105
((lp979
F40.049999999999272
tp980
sg136
((lp981
F0.74000000000160071
tp982
ssba(imeasure_core
ProblemSetSolution
p983
(dp984
g3
g180
sg161
g970
sg164
(dp985
g183
((lp986
F40.130000000001019
tp987
sg231
((lp988
F40.110000000000582
tp989
sg281
((lp990
F40.119999999998981
tp991
sg340
((lp992
F40.150000000001455
tp993
sg385
((lp994
F40.090000000000146
tp995
ssba(imeasure_core
ProblemSetSolution
p996
(dp997
g3
g443
sg161
g970
sg164
(dp998
g446
((lp999
F43.259999999998399
tp1000
sg496
((lp1001
(F14.590000000000146
I8
tp1002
aF40.350000000002183
tp1003
sg535
((lp1004
F47.089999999996508
tp1005
sg582
((lp1006
F40.30000000000291
tp1007
sg627
((lp1008
F50.75
tp1009
ssba(imeasure_core
ProblemSetSolution
p1010
(dp1011
g3
g4
sg161
S'AnytimeBest-d80_with_LinearHeuristic'
p1012
sg164
(dp1013
g8
((lp1014
F40.090000000000146
tp1015
sg44
((lp1016
F40.169999999998254
tp1017
sg71
((lp1018
(F1.9000000000014552
I6
tp1019
aF40.18999999999869
tp1020
sg105
((lp1021
(F1.6600000000034925
I58
tp1022
a(F17.200000000000728
I56
tp1023
a(F32.630000000001019
I55
tp1024
aF40.05000000000291
tp1025
sg136
((lp1026
(F0.020000000000436557
I22
tp1027
a(F0.21999999999752617
I20
tp1028
aF11.340000000000146
tp1029
ssba(imeasure_core
ProblemSetSolution
p1030
(dp1031
g3
g180
sg161
g1012
sg164
(dp1032
g183
((lp1033
F40.029999999998836
tp1034
sg231
((lp1035
F40.06000000000131
tp1036
sg281
((lp1037
F40.029999999998836
tp1038
sg340
((lp1039
F40.110000000000582
tp1040
sg385
((lp1041
F40.149999999997817
tp1042
ssba(imeasure_core
ProblemSetSolution
p1043
(dp1044
g3
g443
sg161
g1012
sg164
(dp1045
g446
((lp1046
F43.579999999998108
tp1047
sg496
((lp1048
(F14.639999999999418
I8
tp1049
aF41.729999999999563
tp1050
sg535
((lp1051
F47.080000000001746
tp1052
sg582
((lp1053
F41.459999999999127
tp1054
sg627
((lp1055
F50.880000000001019
tp1056
ssba(imeasure_core
ProblemSetSolution
p1057
(dp1058
g3
g4
sg161
S'AnytimeBest-d150_with_LinearHeuristic'
p1059
sg164
(dp1060
g8
((lp1061
F40.389999999999418
tp1062
sg44
((lp1063
F40.110000000000582
tp1064
sg71
((lp1065
(F1.9000000000014552
I6
tp1066
aF40.18999999999869
tp1067
sg105
((lp1068
(F1.6500000000014552
I58
tp1069
a(F17.25
I56
tp1070
a(F32.690000000002328
I55
tp1071
aF40.080000000001746
tp1072
sg136
((lp1073
(F0.020000000000436557
I22
tp1074
a(F0.21999999999752617
I20
tp1075
aF11.319999999999709
tp1076
ssba(imeasure_core
ProblemSetSolution
p1077
(dp1078
g3
g180
sg161
g1059
sg164
(dp1079
g183
((lp1080
F40.100000000002183
tp1081
sg231
((lp1082
F40.049999999999272
tp1083
sg281
((lp1084
F40.029999999998836
tp1085
sg340
((lp1086
(F28.319999999999709
I146
tp1087
aF40.069999999999709
tp1088
sg385
((lp1089
F40.120000000002619
tp1090
ssba(imeasure_core
ProblemSetSolution
p1091
(dp1092
g3
g443
sg161
g1059
sg164
(dp1093
g446
((lp1094
F43.68999999999869
tp1095
sg496
((lp1096
(F14.729999999999563
I8
tp1097
aF40.290000000000873
tp1098
sg535
((lp1099
F47.25
tp1100
sg582
((lp1101
F41.360000000000582
tp1102
sg627
((lp1103
F50.629999999997381
tp1104
ssba(imeasure_core
ProblemSetSolution
p1105
(dp1106
g3
g4
sg161
S'AnytimeBest-d250_with_LinearHeuristic'
p1107
sg164
(dp1108
g8
((lp1109
F40.450000000000728
tp1110
sg44
((lp1111
F40.06000000000131
tp1112
sg71
((lp1113
(F1.8899999999994179
I6
tp1114
aF40.18999999999869
tp1115
sg105
((lp1116
(F1.6599999999998545
I58
tp1117
a(F17.25
I56
tp1118
a(F32.720000000001164
I55
tp1119
aF40.049999999999272
tp1120
sg136
((lp1121
(F0.020000000000436557
I22
tp1122
a(F0.22000000000116415
I20
tp1123
aF11.299999999999272
tp1124
ssba(imeasure_core
ProblemSetSolution
p1125
(dp1126
g3
g180
sg161
g1107
sg164
(dp1127
g183
((lp1128
F40.029999999998836
tp1129
sg231
((lp1130
F40.430000000000291
tp1131
sg281
((lp1132
F40.080000000001746
tp1133
sg340
((lp1134
(F28.389999999999418
I146
tp1135
aF40.069999999999709
tp1136
sg385
((lp1137
F40.399999999997817
tp1138
ssba(imeasure_core
ProblemSetSolution
p1139
(dp1140
g3
g443
sg161
g1107
sg164
(dp1141
g446
((lp1142
F43.840000000000146
tp1143
sg496
((lp1144
(F14.75
I8
tp1145
aF40.290000000000873
tp1146
sg535
((lp1147
F47.429999999996653
tp1148
sg582
((lp1149
F41.440000000002328
tp1150
sg627
((lp1151
F50.669999999998254
tp1152
ssba(imeasure_core
ProblemSetSolution
p1153
(dp1154
g3
g4
sg161
S'AnytimeBest-d400_with_LinearHeuristic'
p1155
sg164
(dp1156
g8
((lp1157
F40.389999999999418
tp1158
sg44
((lp1159
F40.06000000000131
tp1160
sg71
((lp1161
(F1.9000000000014552
I6
tp1162
aF40.18999999999869
tp1163
sg105
((lp1164
(F1.6599999999998545
I58
tp1165
a(F17.260000000002037
I56
tp1166
a(F32.770000000000437
I55
tp1167
aF40.070000000003347
tp1168
sg136
((lp1169
(F0.019999999996798579
I22
tp1170
a(F0.21999999999752617
I20
tp1171
aF11.359999999996944
tp1172
ssba(imeasure_core
ProblemSetSolution
p1173
(dp1174
g3
g180
sg161
g1155
sg164
(dp1175
g183
((lp1176
F40.029999999998836
tp1177
sg231
((lp1178
F40.350000000002183
tp1179
sg281
((lp1180
F40.029999999998836
tp1181
sg340
((lp1182
(F28.509999999998399
I146
tp1183
aF40.079999999998108
tp1184
sg385
((lp1185
F40.409999999999854
tp1186
ssba(imeasure_core
ProblemSetSolution
p1187
(dp1188
g3
g443
sg161
g1155
sg164
(dp1189
g446
((lp1190
F43.809999999997672
tp1191
sg496
((lp1192
(F14.720000000001164
I8
tp1193
aF40.290000000000873
tp1194
sg535
((lp1195
F47.459999999999127
tp1196
sg582
((lp1197
F41.56000000000131
tp1198
sg627
((lp1199
F50.779999999998836
tp1200
ssba.