(lp0
(imeasure_core
ProblemSetSolution
p1
(dp2
S'roomset'
p3
(imeasure_core
RoomSet
p4
(dp5
S'rooms'
p6
(dp7
(iproblems
RoomID
p8
(dp9
S'dusts'
p10
I6
sS'obstacles'
p11
(I3
I2
tp12
sS'robots'
p13
I1
sS'height'
p14
I9
sS'width'
p15
I10
sS'seed'
p16
I6832892905590973747
sb(imulti_robot_problem
MultiRobotState
p17
(dp18
S'obstacle_locations'
p19
c__builtin__
frozenset
p20
((lp21
(I3
I0
tp22
a(I2
I0
tp23
ag12
a(I3
I1
tp24
atp25
Rp26
sg15
I10
sS'dirt_locations'
p27
g20
((lp28
(I1
I2
tp29
a(I2
I7
tp30
a(I0
I0
tp31
a(I0
I5
tp32
a(I5
I6
tp33
a(I0
I2
tp34
atp35
Rp36
sg13
((I8
I4
tp37
tp38
sg14
I9
sbs(iproblems
RoomID
p39
(dp40
g10
I7
sg11
(I3
I5
tp41
sg13
I5
sg14
I7
sg15
I9
sg16
I6924344268699531175
sb(imulti_robot_problem
MultiRobotState
p42
(dp43
g19
g20
((lp44
(I2
I6
tp45
a(I1
I6
tp46
a(I3
I6
tp47
ag41
atp48
Rp49
sg15
I9
sg27
g20
((lp50
(I1
I2
tp51
a(I0
I0
tp52
a(I5
I0
tp53
a(I7
I1
tp54
a(I8
I6
tp55
a(I3
I4
tp56
a(I6
I5
tp57
atp58
Rp59
sg13
((I4
I0
tp60
(I7
I2
tp61
(I1
I1
tp62
(I6
I1
tp63
(I8
I4
tp64
tp65
sg14
I7
sbs(iproblems
RoomID
p66
(dp67
g10
I8
sg11
(I5
I0
tp68
sg13
I4
sg14
I10
sg15
I10
sg16
I3562373307524659409
sb(imulti_robot_problem
MultiRobotState
p69
(dp70
g19
g20
((lp71
(I6
I3
tp72
a(I6
I7
tp73
ag68
a(I3
I6
tp74
a(I8
I1
tp75
a(I7
I0
tp76
a(I6
I0
tp77
atp78
Rp79
sg15
I10
sg27
g20
((lp80
(I1
I3
tp81
a(I2
I9
tp82
a(I7
I6
tp83
a(I7
I7
tp84
a(I8
I9
tp85
a(I1
I8
tp86
a(I1
I6
tp87
a(I2
I2
tp88
atp89
Rp90
sg13
((I9
I8
tp91
(I6
I5
tp92
(I5
I1
tp93
(I8
I8
tp94
tp95
sg14
I10
sbs(iproblems
RoomID
p96
(dp97
g10
I6
sg11
(I3
I1
tp98
sg13
I4
sg14
I8
sg15
I7
sg16
I807570059310326234
sb(imulti_robot_problem
MultiRobotState
p99
(dp100
g19
g20
((lp101
(I6
I3
tp102
a(I4
I2
tp103
ag98
a(I5
I3
tp104
atp105
Rp106
sg15
I7
sg27
g20
((lp107
(I3
I2
tp108
a(I6
I7
tp109
a(I4
I6
tp110
a(I0
I4
tp111
a(I1
I0
tp112
a(I5
I2
tp113
atp114
Rp115
sg13
((I1
I2
tp116
(I0
I1
tp117
(I3
I7
tp118
(I2
I4
tp119
tp120
sg14
I8
sbs(iproblems
RoomID
p121
(dp122
g10
I5
sg11
(I4
I7
tp123
sg13
I3
sg14
I9
sg15
I7
sg16
I2524308075868763041
sb(imulti_robot_problem
MultiRobotState
p124
(dp125
g19
g20
((lp126
(I1
I2
tp127
a(I3
I8
tp128
ag123
a(I4
I6
tp129
a(I4
I1
tp130
a(I2
I4
tp131
a(I3
I5
tp132
atp133
Rp134
sg15
I7
sg27
g20
((lp135
(I2
I6
tp136
a(I5
I2
tp137
a(I3
I3
tp138
a(I0
I7
tp139
a(I3
I6
tp140
atp141
Rp142
sg13
((I0
I6
tp143
(I3
I1
tp144
(I4
I8
tp145
tp146
sg14
I9
sbssS'name'
p147
S'easy_roomset'
p148
sbsg147
S"AnytimeBeam-w5-gf(1.5, 'exp')_with_PowerHeuristic2"
p149
sS'solutions'
p150
(dp151
g8
((lp152
(F0.059999999997671694
I62
tp153
a(F0.13999999999941792
I49
tp154
a(F1.0899999999965075
I44
tp155
a(F3.0099999999947613
I43
tp156
a(F3.9499999999970896
I42
tp157
a(F4.8600000000005821
I38
tp158
a(F6.4799999999959255
I37
tp159
a(F8.0599999999976717
I35
tp160
a(F9.3299999999944703
I33
tp161
a(F10.319999999999709
I31
tp162
a(F12.119999999995343
I29
tp163
a(F14.729999999995925
I27
tp164
a(F18.229999999995925
I25
tp165
a(F22.75
I22
tp166
a(F25.389999999999418
I20
tp167
aF40.0
tp168
sg39
((lp169
(F9.8499999999985448
I7
tp170
aF41.019999999996799
tp171
sg66
((lp172
(F1.5200000000040745
I10
tp173
aF40.30000000000291
tp174
sg96
((lp175
F40.470000000001164
tp176
sg121
((lp177
(F0.079999999994470272
I7
tp178
aF40.019999999996799
tp179
ssba(imeasure_core
ProblemSetSolution
p180
(dp181
g3
(imeasure_core
RoomSet
p182
(dp183
g6
(dp184
(iproblems
RoomID
p185
(dp186
g10
I6
sg11
(I6
I2
tp187
sg13
I3
sg14
I11
sg15
I12
sg16
I6832892905590973747
sb(imulti_robot_problem
MultiRobotState
p188
(dp189
g19
g20
((lp190
(I6
I4
tp191
a(I2
I6
tp192
a(I4
I3
tp193
a(I3
I0
tp194
a(I2
I8
tp195
a(I7
I7
tp196
a(I7
I5
tp197
a(I4
I2
tp198
a(I5
I3
tp199
a(I4
I1
tp200
a(I7
I6
tp201
a(I6
I3
tp202
a(I4
I5
tp203
ag187
a(I3
I6
tp204
a(I8
I6
tp205
a(I4
I0
tp206
a(I5
I2
tp207
a(I2
I4
tp208
atp209
Rp210
sg15
I12
sg27
g20
((lp211
(I1
I6
tp212
a(I6
I8
tp213
a(I2
I9
tp214
a(I0
I3
tp215
a(I0
I2
tp216
a(I7
I9
tp217
atp218
Rp219
sg13
((I10
I6
tp220
(I1
I2
tp221
(I0
I0
tp222
tp223
sg14
I11
sbs(iproblems
RoomID
p224
(dp225
g10
I7
sg11
(I3
I1
tp226
sg13
I4
sg14
I9
sg15
I11
sg16
I6924344268699531175
sb(imulti_robot_problem
MultiRobotState
p227
(dp228
g19
g20
((lp229
(I4
I7
tp230
ag226
a(I6
I6
tp231
a(I5
I6
tp232
a(I2
I8
tp233
a(I9
I8
tp234
a(I7
I7
tp235
a(I0
I7
tp236
a(I7
I5
tp237
a(I8
I7
tp238
a(I0
I3
tp239
a(I0
I8
tp240
a(I8
I5
tp241
a(I6
I3
tp242
a(I5
I2
tp243
a(I7
I6
tp244
a(I4
I8
tp245
a(I7
I4
tp246
a(I3
I8
tp247
a(I0
I6
tp248
a(I8
I8
tp249
a(I4
I1
tp250
a(I9
I7
tp251
atp252
Rp253
sg15
I11
sg27
g20
((lp254
(I8
I3
tp255
a(I1
I3
tp256
a(I4
I6
tp257
a(I4
I3
tp258
a(I0
I4
tp259
a(I10
I5
tp260
a(I0
I0
tp261
atp262
Rp263
sg13
((I6
I0
tp264
(I9
I3
tp265
(I1
I1
tp266
(I8
I1
tp267
tp268
sg14
I9
sbs(iproblems
RoomID
p269
(dp270
g10
I10
sg11
(I6
I8
tp271
sg13
I3
sg14
I11
sg15
I10
sg16
I7391799147228763464
sb(imulti_robot_problem
MultiRobotState
p272
(dp273
g19
g20
((lp274
(I5
I9
tp275
a(I4
I7
tp276
a(I4
I6
tp277
a(I4
I8
tp278
a(I4
I5
tp279
a(I6
I9
tp280
a(I0
I7
tp281
a(I1
I4
tp282
a(I3
I7
tp283
a(I5
I8
tp284
ag271
a(I2
I7
tp285
a(I3
I8
tp286
a(I4
I9
tp287
a(I3
I3
tp288
a(I9
I2
tp289
a(I6
I3
tp290
a(I3
I6
tp291
a(I1
I7
tp292
a(I0
I9
tp293
a(I7
I8
tp294
a(I0
I2
tp295
a(I1
I9
tp296
atp297
Rp298
sg15
I10
sg27
g20
((lp299
(I8
I3
tp300
a(I5
I10
tp301
a(I5
I5
tp302
a(I2
I8
tp303
a(I7
I6
tp304
a(I6
I0
tp305
a(I2
I10
tp306
a(I9
I4
tp307
a(I1
I10
tp308
a(I0
I3
tp309
atp310
Rp311
sg13
((I3
I10
tp312
(I7
I1
tp313
(I1
I5
tp314
tp315
sg14
I11
sbs(iproblems
RoomID
p316
(dp317
g10
I6
sg11
(I2
I5
tp318
sg13
I4
sg14
I10
sg15
I9
sg16
I807570059310326234
sb(imulti_robot_problem
MultiRobotState
p319
(dp320
g19
g20
((lp321
(I6
I4
tp322
a(I3
I2
tp323
a(I1
I3
tp324
a(I8
I2
tp325
a(I2
I3
tp326
a(I3
I8
tp327
ag318
a(I1
I0
tp328
a(I1
I2
tp329
a(I7
I4
tp330
a(I4
I1
tp331
a(I3
I3
tp332
a(I3
I4
tp333
a(I1
I1
tp334
a(I6
I3
tp335
a(I2
I0
tp336
a(I1
I8
tp337
a(I2
I2
tp338
a(I5
I2
tp339
a(I0
I2
tp340
a(I8
I4
tp341
atp342
Rp343
sg15
I9
sg27
g20
((lp344
(I7
I3
tp345
a(I2
I6
tp346
a(I1
I6
tp347
a(I4
I2
tp348
a(I5
I8
tp349
a(I7
I9
tp350
atp351
Rp352
sg13
((I6
I2
tp353
(I0
I1
tp354
(I3
I9
tp355
(I3
I5
tp356
tp357
sg14
I10
sbs(iproblems
RoomID
p358
(dp359
g10
I8
sg11
(I11
I7
tp360
sg13
I4
sg14
I12
sg15
I12
sg16
I3562373307524659409
sb(imulti_robot_problem
MultiRobotState
p361
(dp362
g19
g20
((lp363
(I6
I4
tp364
a(I6
I9
tp365
a(I3
I2
tp366
a(I9
I1
tp367
a(I6
I6
tp368
a(I5
I6
tp369
a(I9
I8
tp370
a(I3
I11
tp371
a(I7
I1
tp372
ag360
a(I8
I9
tp373
a(I3
I9
tp374
a(I11
I8
tp375
a(I10
I2
tp376
a(I4
I2
tp377
a(I7
I2
tp378
a(I10
I8
tp379
a(I8
I3
tp380
a(I8
I1
tp381
a(I3
I10
tp382
a(I5
I11
tp383
a(I6
I3
tp384
a(I6
I11
tp385
a(I6
I5
tp386
a(I7
I10
tp387
a(I4
I8
tp388
a(I11
I6
tp389
a(I4
I11
tp390
atp391
Rp392
sg15
I12
sg27
g20
((lp393
(I7
I3
tp394
a(I1
I3
tp395
a(I10
I11
tp396
a(I1
I7
tp397
a(I8
I8
tp398
a(I2
I2
tp399
a(I3
I7
tp400
a(I7
I9
tp401
atp402
Rp403
sg13
((I11
I10
tp404
(I7
I6
tp405
(I10
I10
tp406
(I2
I10
tp407
tp408
sg14
I12
sbssg147
S'mild_roomset'
p409
sbsg147
g149
sg150
(dp410
g185
((lp411
(F0.25
I10
tp412
aF40.029999999998836
tp413
sg224
((lp414
F40.099999999998545
tp415
sg269
((lp416
(F1.7900000000008731
I36
tp417
aF40.010000000002037
tp418
sg316
((lp419
(F27.519999999996799
I108
tp420
aF40.269999999996799
tp421
sg358
((lp422
(F13.180000000000291
I75
tp423
aF40.020000000004075
tp424
ssba(imeasure_core
ProblemSetSolution
p425
(dp426
g3
(imeasure_core
RoomSet
p427
(dp428
g6
(dp429
(iproblems
RoomID
p430
(dp431
g10
I11
sg11
(I4
I2
tp432
sg13
I5
sg14
I12
sg15
I13
sg16
I6832892905590973747
sb(imulti_robot_problem
MultiRobotState
p433
(dp434
g19
g20
((lp435
(I5
I9
tp436
a(I6
I9
tp437
a(I8
I2
tp438
a(I3
I0
tp439
a(I3
I4
tp440
a(I12
I11
tp441
ag432
a(I4
I1
tp442
a(I4
I0
tp443
atp444
Rp445
sg15
I13
sg27
g20
((lp446
(I2
I7
tp447
a(I9
I0
tp448
a(I6
I8
tp449
a(I4
I5
tp450
a(I2
I8
tp451
a(I8
I10
tp452
a(I2
I10
tp453
a(I1
I7
tp454
a(I3
I7
tp455
a(I2
I5
tp456
a(I0
I8
tp457
atp458
Rp459
sg13
((I11
I6
tp460
(I1
I2
tp461
(I1
I0
tp462
(I0
I3
tp463
(I0
I2
tp464
tp465
sg14
I12
sbs(iproblems
RoomID
p466
(dp467
g10
I12
sg11
(I6
I7
tp468
sg13
I7
sg14
I10
sg15
I12
sg16
I6924344268699531175
sb(imulti_robot_problem
MultiRobotState
p469
(dp470
g19
g20
((lp471
(I4
I7
tp472
ag468
a(I2
I9
tp473
a(I4
I8
tp474
a(I9
I6
tp475
a(I5
I7
tp476
a(I0
I6
tp477
a(I3
I9
tp478
a(I0
I9
tp479
a(I4
I9
tp480
a(I4
I1
tp481
atp482
Rp483
sg15
I12
sg27
g20
((lp484
(I7
I3
tp485
a(I5
I4
tp486
a(I1
I3
tp487
a(I9
I1
tp488
a(I8
I3
tp489
a(I0
I7
tp490
a(I8
I8
tp491
a(I0
I0
tp492
a(I0
I4
tp493
a(I0
I8
tp494
a(I11
I6
tp495
a(I9
I7
tp496
atp497
Rp498
sg13
((I6
I0
tp499
(I10
I4
tp500
(I1
I1
tp501
(I8
I2
tp502
(I11
I5
tp503
(I5
I6
tp504
(I10
I9
tp505
tp506
sg14
I10
sbs(iproblems
RoomID
p507
(dp508
g10
I11
sg11
(I5
I1
tp509
sg13
I7
sg14
I11
sg15
I10
sg16
I807570059310326234
sb(imulti_robot_problem
MultiRobotState
p510
(dp511
g19
g20
((lp512
(I7
I3
tp513
a(I4
I6
tp514
a(I7
I4
tp515
a(I6
I2
tp516
a(I1
I9
tp517
a(I9
I4
tp518
ag509
a(I0
I3
tp519
a(I5
I2
tp520
a(I8
I4
tp521
atp522
Rp523
sg15
I10
sg27
g20
((lp524
(I5
I9
tp525
a(I6
I9
tp526
a(I2
I9
tp527
a(I4
I8
tp528
a(I9
I2
tp529
a(I2
I0
tp530
a(I1
I6
tp531
a(I9
I5
tp532
a(I4
I2
tp533
a(I1
I0
tp534
a(I3
I5
tp535
atp536
Rp537
sg13
((I1
I3
tp538
(I0
I2
tp539
(I4
I10
tp540
(I4
I5
tp541
(I8
I10
tp542
(I8
I3
tp543
(I2
I6
tp544
tp545
sg14
I11
sbs(iproblems
RoomID
p546
(dp547
g10
I15
sg11
(I4
I8
tp548
sg13
I6
sg14
I12
sg15
I11
sg16
I7391799147228763464
sb(imulti_robot_problem
MultiRobotState
p549
(dp550
g19
g20
((lp551
(I6
I4
tp552
a(I4
I7
tp553
ag548
a(I5
I6
tp554
a(I2
I8
tp555
a(I5
I7
tp556
a(I6
I9
tp557
a(I4
I2
tp558
a(I9
I2
tp559
a(I1
I6
tp560
a(I10
I7
tp561
a(I8
I6
tp562
a(I2
I4
tp563
atp564
Rp565
sg15
I11
sg27
g20
((lp566
(I7
I0
tp567
a(I10
I4
tp568
a(I6
I11
tp569
a(I7
I6
tp570
a(I1
I4
tp571
a(I8
I9
tp572
a(I1
I8
tp573
a(I3
I9
tp574
a(I0
I10
tp575
a(I9
I4
tp576
a(I7
I10
tp577
a(I1
I10
tp578
a(I4
I3
tp579
a(I0
I3
tp580
a(I0
I2
tp581
atp582
Rp583
sg13
((I4
I6
tp584
(I3
I11
tp585
(I7
I1
tp586
(I2
I5
tp587
(I5
I9
tp588
(I2
I11
tp589
tp590
sg14
I12
sbs(iproblems
RoomID
p591
(dp592
g10
I13
sg11
(I7
I4
tp593
sg13
I6
sg14
I13
sg15
I13
sg16
I3562373307524659409
sb(imulti_robot_problem
MultiRobotState
p594
(dp595
g19
g20
((lp596
(I7
I3
tp597
a(I5
I4
tp598
a(I4
I9
tp599
a(I9
I1
tp600
a(I5
I9
tp601
a(I8
I1
tp602
a(I11
I2
tp603
a(I9
I3
tp604
a(I3
I11
tp605
a(I11
I7
tp606
ag593
a(I10
I1
tp607
a(I3
I10
tp608
a(I10
I5
tp609
a(I8
I2
tp610
atp611
Rp612
sg15
I13
sg27
g20
((lp613
(I8
I3
tp614
a(I3
I12
tp615
a(I4
I8
tp616
a(I6
I10
tp617
a(I9
I9
tp618
a(I12
I6
tp619
a(I8
I9
tp620
a(I1
I8
tp621
a(I4
I3
tp622
a(I2
I2
tp623
a(I4
I2
tp624
a(I11
I12
tp625
a(I2
I4
tp626
atp627
Rp628
sg13
((I12
I11
tp629
(I7
I6
tp630
(I7
I1
tp631
(I10
I11
tp632
(I2
I11
tp633
(I9
I8
tp634
tp635
sg14
I13
sbssg147
S'heavy_roomset'
p636
sbsg147
g149
sg150
(dp637
g430
((lp638
(F35.30000000000291
I24
tp639
aF40.560000000004948
tp640
sg466
((lp641
F47.930000000000291
tp642
sg546
((lp643
F42.599999999998545
tp644
sg507
((lp645
F50.099999999998545
tp646
sg591
((lp647
F41.270000000004075
tp648
ssba(imeasure_core
ProblemSetSolution
p649
(dp650
g3
g4
sg147
S"AnytimeBeam-w15-gf(1.5, 'exp')_with_PowerHeuristic2"
p651
sg150
(dp652
g8
((lp653
(F0.12999999999738066
I54
tp654
a(F0.30999999999767169
I50
tp655
a(F0.56999999999970896
I44
tp656
a(F2.2899999999935972
I43
tp657
a(F3.2099999999991269
I42
tp658
a(F4.1299999999973807
I38
tp659
a(F5.7699999999967986
I37
tp660
a(F7.3499999999985448
I35
tp661
a(F8.6299999999973807
I33
tp662
a(F9.6199999999953434
I31
tp663
a(F11.419999999998254
I29
tp664
a(F14.039999999993597
I27
tp665
a(F17.559999999997672
I25
tp666
a(F22.089999999996508
I22
tp667
a(F24.729999999995925
I20
tp668
aF40.0
tp669
sg39
((lp670
(F9.8299999999944703
I7
tp671
aF41.019999999996799
tp672
sg66
((lp673
(F1.5199999999967986
I10
tp674
aF40.169999999998254
tp675
sg96
((lp676
F40.80000000000291
tp677
sg121
((lp678
(F0.08000000000174623
I7
tp679
aF40.019999999996799
tp680
ssba(imeasure_core
ProblemSetSolution
p681
(dp682
g3
g182
sg147
g651
sg150
(dp683
g185
((lp684
(F0.26000000000203727
I10
tp685
aF40.010000000002037
tp686
sg224
((lp687
F40.069999999999709
tp688
sg269
((lp689
(F1.8000000000029104
I36
tp690
aF40.040000000000873
tp691
sg316
((lp692
(F27.669999999998254
I108
tp693
aF40.029999999998836
tp694
sg358
((lp695
(F13.150000000001455
I75
tp696
aF40.160000000003492
tp697
ssba(imeasure_core
ProblemSetSolution
p698
(dp699
g3
g427
sg147
g651
sg150
(dp700
g430
((lp701
(F35.349999999998545
I24
tp702
aF40.629999999997381
tp703
sg466
((lp704
F48.269999999996799
tp705
sg546
((lp706
F42.889999999999418
tp707
sg507
((lp708
F49.860000000000582
tp709
sg591
((lp710
F41.540000000000873
tp711
ssba(imeasure_core
ProblemSetSolution
p712
(dp713
g3
g4
sg147
S"AnytimeBeam-w25-gf(1.5, 'exp')_with_PowerHeuristic2"
p714
sg150
(dp715
g8
((lp716
(F0.19000000000232831
I50
tp717
a(F0.45000000000436557
I44
tp718
a(F2.1900000000023283
I43
tp719
a(F3.1200000000026193
I42
tp720
a(F4.0299999999988358
I38
tp721
a(F5.6699999999982538
I37
tp722
a(F7.25
I35
tp723
a(F8.5200000000040745
I33
tp724
a(F9.5100000000020373
I31
tp725
a(F11.310000000004948
I29
tp726
a(F13.919999999998254
I27
tp727
a(F17.430000000000291
I25
tp728
a(F21.940000000002328
I22
tp729
a(F24.580000000001746
I20
tp730
aF40.0
tp731
sg39
((lp732
(F9.9100000000034925
I7
tp733
aF41.090000000003783
tp734
sg66
((lp735
(F1.5199999999967986
I10
tp736
aF40.019999999996799
tp737
sg96
((lp738
F40.680000000000291
tp739
sg121
((lp740
(F0.08000000000174623
I7
tp741
aF40.0
tp742
ssba(imeasure_core
ProblemSetSolution
p743
(dp744
g3
g182
sg147
g714
sg150
(dp745
g185
((lp746
(F0.25
I10
tp747
aF40.040000000000873
tp748
sg224
((lp749
F40.089999999996508
tp750
sg269
((lp751
(F1.7900000000008731
I36
tp752
aF40.040000000000873
tp753
sg316
((lp754
(F27.580000000001746
I108
tp755
aF40.360000000000582
tp756
sg358
((lp757
(F13.220000000001164
I75
tp758
aF40.040000000000873
tp759
ssba(imeasure_core
ProblemSetSolution
p760
(dp761
g3
g427
sg147
g714
sg150
(dp762
g430
((lp763
(F35.360000000000582
I24
tp764
aF40.649999999994179
tp765
sg466
((lp766
F48.55000000000291
tp767
sg546
((lp768
F42.839999999996508
tp769
sg507
((lp770
F50.040000000000873
tp771
sg591
((lp772
F41.260000000002037
tp773
ssba(imeasure_core
ProblemSetSolution
p774
(dp775
g3
g4
sg147
S"AnytimeBeam-w35-gf(1.5, 'exp')_with_PowerHeuristic2"
p776
sg150
(dp777
g8
((lp778
(F0.25
I44
tp779
a(F1.9700000000011642
I43
tp780
a(F2.9000000000014552
I42
tp781
a(F3.819999999999709
I38
tp782
a(F5.4599999999991269
I37
tp783
a(F7.0499999999956344
I35
tp784
a(F8.3300000000017462
I33
tp785
a(F9.319999999999709
I31
tp786
a(F11.129999999997381
I29
tp787
a(F13.75
I27
tp788
a(F17.269999999996799
I25
tp789
a(F21.809999999997672
I22
tp790
a(F24.439999999995052
I20
tp791
aF40.0
tp792
sg39
((lp793
(F9.8600000000005821
I7
tp794
aF40.819999999999709
tp795
sg66
((lp796
(F1.5100000000020373
I10
tp797
aF40.260000000002037
tp798
sg96
((lp799
F40.69999999999709
tp800
sg121
((lp801
(F0.08000000000174623
I7
tp802
aF40.010000000002037
tp803
ssba(imeasure_core
ProblemSetSolution
p804
(dp805
g3
g182
sg147
g776
sg150
(dp806
g185
((lp807
(F0.25999999999476131
I10
tp808
aF40.029999999998836
tp809
sg224
((lp810
F40.059999999997672
tp811
sg269
((lp812
(F1.7900000000008731
I36
tp813
aF40.05000000000291
tp814
sg316
((lp815
(F27.680000000000291
I108
tp816
aF40.009999999994761
tp817
sg358
((lp818
(F13.140000000006694
I75
tp819
aF40.040000000000873
tp820
ssba(imeasure_core
ProblemSetSolution
p821
(dp822
g3
g427
sg147
g776
sg150
(dp823
g430
((lp824
(F35.129999999997381
I24
tp825
aF40.370000000002619
tp826
sg466
((lp827
F48.099999999998545
tp828
sg546
((lp829
F42.639999999999418
tp830
sg507
((lp831
F50.099999999998545
tp832
sg591
((lp833
F41.270000000004075
tp834
ssba(imeasure_core
ProblemSetSolution
p835
(dp836
g3
g4
sg147
S"AnytimeBeam-w45-gf(1.5, 'exp')_with_PowerHeuristic2"
p837
sg150
(dp838
g8
((lp839
(F0.26999999999679858
I44
tp840
a(F1.2399999999979627
I43
tp841
a(F2.180000000000291
I42
tp842
a(F3.1100000000005821
I38
tp843
a(F4.75
I37
tp844
a(F6.3299999999944703
I35
tp845
a(F7.6199999999953434
I33
tp846
a(F8.6100000000005821
I31
tp847
a(F10.419999999998254
I29
tp848
a(F13.049999999995634
I27
tp849
a(F16.57999999999447
I25
tp850
a(F21.119999999995343
I22
tp851
a(F23.779999999998836
I20
tp852
aF40.0
tp853
sg39
((lp854
(F9.8499999999985448
I7
tp855
aF41.089999999996508
tp856
sg66
((lp857
(F1.5200000000040745
I10
tp858
aF40.279999999998836
tp859
sg96
((lp860
F40.520000000004075
tp861
sg121
((lp862
(F0.079999999994470272
I7
tp863
aF40.0
tp864
ssba(imeasure_core
ProblemSetSolution
p865
(dp866
g3
g182
sg147
g837
sg150
(dp867
g185
((lp868
(F0.25999999999476131
I10
tp869
aF40.049999999995634
tp870
sg224
((lp871
F40.17000000000553
tp872
sg269
((lp873
(F1.7899999999935972
I36
tp874
aF40.009999999994761
tp875
sg316
((lp876
(F27.569999999999709
I108
tp877
aF40.260000000002037
tp878
sg358
((lp879
(F13.150000000001455
I75
tp880
aF40.160000000003492
tp881
ssba(imeasure_core
ProblemSetSolution
p882
(dp883
g3
g427
sg147
g837
sg150
(dp884
g430
((lp885
(F35.279999999998836
I24
tp886
aF40.529999999998836
tp887
sg466
((lp888
F48.080000000001746
tp889
sg546
((lp890
F42.849999999998545
tp891
sg507
((lp892
F49.930000000000291
tp893
sg591
((lp894
F41.42000000000553
tp895
ssba(imeasure_core
ProblemSetSolution
p896
(dp897
g3
g4
sg147
S"AnytimeBeam-w5-gf(1.5, 'exp')_with_LinearHeuristic"
p898
sg150
(dp899
g8
((lp900
(F0.010000000002037268
I20
tp901
aF40.0
tp902
sg39
((lp903
(F8.7700000000040745
I7
tp904
aF40.720000000001164
tp905
sg66
((lp906
F40.430000000000291
tp907
sg96
((lp908
F40.680000000000291
tp909
sg121
((lp910
(F4.7600000000020373
I47
tp911
a(F10.400000000001455
I46
tp912
a(F22.180000000000291
I45
tp913
a(F34.169999999998254
I44
tp914
aF40.120000000002619
tp915
ssba(imeasure_core
ProblemSetSolution
p916
(dp917
g3
g182
sg147
g898
sg150
(dp918
g185
((lp919
(F0.51999999999679858
I12
tp920
aF40.099999999998545
tp921
sg224
((lp922
F40.19999999999709
tp923
sg269
((lp924
(F1.8400000000037835
I38
tp925
aF40.209999999999127
tp926
sg316
((lp927
F40.180000000000291
tp928
sg358
((lp929
(F4.8800000000046566
I31
tp930
a(F13.630000000004657
I30
tp931
a(F23.290000000000873
I29
tp932
a(F36.450000000004366
I28
tp933
aF40.05000000000291
tp934
ssba(imeasure_core
ProblemSetSolution
p935
(dp936
g3
g427
sg147
g898
sg150
(dp937
g430
((lp938
F40.459999999999127
tp939
sg466
((lp940
F78.119999999995343
tp941
sg546
((lp942
F41.419999999998254
tp943
sg507
((lp944
F64.120000000002619
tp945
sg591
((lp946
F45.30000000000291
tp947
ssba(imeasure_core
ProblemSetSolution
p948
(dp949
g3
g4
sg147
S"AnytimeBeam-w15-gf(1.5, 'exp')_with_LinearHeuristic"
p950
sg150
(dp951
g8
((lp952
(F0.010000000002037268
I20
tp953
aF40.0
tp954
sg39
((lp955
(F9.4899999999979627
I7
tp956
aF40.5
tp957
sg66
((lp958
F40.05000000000291
tp959
sg96
((lp960
F40.369999999995343
tp961
sg121
((lp962
(F4.7799999999988358
I47
tp963
a(F10.410000000003492
I46
tp964
a(F22.200000000004366
I45
tp965
a(F34.180000000000291
I44
tp966
aF40.110000000000582
tp967
ssba(imeasure_core
ProblemSetSolution
p968
(dp969
g3
g182
sg147
g950
sg150
(dp970
g185
((lp971
(F0.51000000000203727
I12
tp972
aF40.150000000001455
tp973
sg224
((lp974
F40.189999999995052
tp975
sg269
((lp976
(F1.8300000000017462
I38
tp977
aF40.150000000001455
tp978
sg316
((lp979
F40.309999999997672
tp980
sg358
((lp981
(F4.8899999999994179
I31
tp982
a(F13.630000000004657
I30
tp983
a(F23.280000000006112
I29
tp984
a(F36.380000000004657
I28
tp985
aF40.190000000002328
tp986
ssba(imeasure_core
ProblemSetSolution
p987
(dp988
g3
g427
sg147
g950
sg150
(dp989
g430
((lp990
F40.25
tp991
sg466
((lp992
F78.559999999997672
tp993
sg546
((lp994
F41.330000000001746
tp995
sg507
((lp996
F64.099999999998545
tp997
sg591
((lp998
F45.529999999998836
tp999
ssba(imeasure_core
ProblemSetSolution
p1000
(dp1001
g3
g4
sg147
S"AnytimeBeam-w25-gf(1.5, 'exp')_with_LinearHeuristic"
p1002
sg150
(dp1003
g8
((lp1004
(F0.020000000004074536
I20
tp1005
aF40.0
tp1006
sg39
((lp1007
(F9.6500000000014552
I7
tp1008
aF40.950000000004366
tp1009
sg66
((lp1010
F40.089999999996508
tp1011
sg96
((lp1012
F40.279999999998836
tp1013
sg121
((lp1014
(F4.7700000000040745
I47
tp1015
a(F10.370000000002619
I46
tp1016
a(F22.25
I45
tp1017
a(F34.319999999999709
I44
tp1018
aF40.120000000002619
tp1019
ssba(imeasure_core
ProblemSetSolution
p1020
(dp1021
g3
g182
sg147
g1002
sg150
(dp1022
g185
((lp1023
(F0.50999999999476131
I12
tp1024
aF40.029999999998836
tp1025
sg224
((lp1026
F40.229999999995925
tp1027
sg269
((lp1028
(F1.8300000000017462
I38
tp1029
aF40.17000000000553
tp1030
sg316
((lp1031
F40.349999999998545
tp1032
sg358
((lp1033
(F4.8799999999973807
I31
tp1034
a(F13.619999999995343
I30
tp1035
a(F23.269999999996799
I29
tp1036
a(F36.439999999995052
I28
tp1037
aF40.069999999999709
tp1038
ssba(imeasure_core
ProblemSetSolution
p1039
(dp1040
g3
g427
sg147
g1002
sg150
(dp1041
g430
((lp1042
F40.510000000002037
tp1043
sg466
((lp1044
F78.069999999999709
tp1045
sg546
((lp1046
F41.509999999994761
tp1047
sg507
((lp1048
F64.0
tp1049
sg591
((lp1050
F45.410000000003492
tp1051
ssba(imeasure_core
ProblemSetSolution
p1052
(dp1053
g3
g4
sg147
S"AnytimeBeam-w35-gf(1.5, 'exp')_with_LinearHeuristic"
p1054
sg150
(dp1055
g8
((lp1056
(F0.019999999996798579
I20
tp1057
aF40.0
tp1058
sg39
((lp1059
(F9.5100000000020373
I7
tp1060
aF40.510000000002037
tp1061
sg66
((lp1062
F40.769999999996799
tp1063
sg96
((lp1064
F40.260000000002037
tp1065
sg121
((lp1066
(F4.7599999999947613
I47
tp1067
a(F10.360000000000582
I46
tp1068
a(F22.169999999998254
I45
tp1069
a(F34.180000000000291
I44
tp1070
aF40.129999999997381
tp1071
ssba(imeasure_core
ProblemSetSolution
p1072
(dp1073
g3
g182
sg147
g1054
sg150
(dp1074
g185
((lp1075
(F0.52000000000407454
I12
tp1076
aF40.040000000000873
tp1077
sg224
((lp1078
F40.230000000003201
tp1079
sg269
((lp1080
(F1.8299999999944703
I38
tp1081
aF40.009999999994761
tp1082
sg316
((lp1083
F40.360000000000582
tp1084
sg358
((lp1085
(F4.9000000000014552
I31
tp1086
a(F13.730000000003201
I30
tp1087
a(F23.380000000004657
I29
tp1088
a(F36.470000000001164
I28
tp1089
aF40.080000000001746
tp1090
ssba(imeasure_core
ProblemSetSolution
p1091
(dp1092
g3
g427
sg147
g1054
sg150
(dp1093
g430
((lp1094
F40.379999999997381
tp1095
sg466
((lp1096
F78.279999999998836
tp1097
sg546
((lp1098
F41.520000000004075
tp1099
sg507
((lp1100
F64.110000000000582
tp1101
sg591
((lp1102
F45.619999999995343
tp1103
ssba(imeasure_core
ProblemSetSolution
p1104
(dp1105
g3
g4
sg147
S"AnytimeBeam-w45-gf(1.5, 'exp')_with_LinearHeuristic"
p1106
sg150
(dp1107
g8
((lp1108
(F0.0
I20
tp1109
aF40.0
tp1110
sg39
((lp1111
(F9.0199999999967986
I7
tp1112
aF40.529999999998836
tp1113
sg66
((lp1114
F40.650000000001455
tp1115
sg96
((lp1116
F40.430000000000291
tp1117
sg121
((lp1118
(F4.7600000000020373
I47
tp1119
a(F10.379999999997381
I46
tp1120
a(F22.180000000000291
I45
tp1121
a(F34.169999999998254
I44
tp1122
aF40.099999999998545
tp1123
ssba(imeasure_core
ProblemSetSolution
p1124
(dp1125
g3
g182
sg147
g1106
sg150
(dp1126
g185
((lp1127
(F0.51999999999679858
I12
tp1128
aF40.059999999997672
tp1129
sg224
((lp1130
F40.090000000003783
tp1131
sg269
((lp1132
(F1.8300000000017462
I38
tp1133
aF40.099999999998545
tp1134
sg316
((lp1135
F40.209999999999127
tp1136
sg358
((lp1137
(F4.8799999999973807
I31
tp1138
a(F13.610000000000582
I30
tp1139
a(F23.30000000000291
I29
tp1140
a(F36.430000000000291
I28
tp1141
aF40.029999999998836
tp1142
ssba(imeasure_core
ProblemSetSolution
p1143
(dp1144
g3
g427
sg147
g1106
sg150
(dp1145
g430
((lp1146
F40.400000000001455
tp1147
sg466
((lp1148
F78.119999999995343
tp1149
sg546
((lp1150
F41.419999999998254
tp1151
sg507
((lp1152
F64.100000000005821
tp1153
sg591
((lp1154
F45.459999999999127
tp1155
ssba.