(lp0
(imeasure_core
ProblemSetSolution
p1
(dp2
S'roomset'
p3
(imeasure_core
RoomSet
p4
(dp5
S'rooms'
p6
(dp7
(iproblems
RoomID
p8
(dp9
S'dusts'
p10
I6
sS'obstacles'
p11
(I3
I2
tp12
sS'robots'
p13
I1
sS'height'
p14
I9
sS'width'
p15
I10
sS'seed'
p16
I6832892905590973747
sb(imulti_robot_problem
MultiRobotState
p17
(dp18
S'obstacle_locations'
p19
c__builtin__
frozenset
p20
((lp21
(I3
I0
tp22
a(I2
I0
tp23
ag12
a(I3
I1
tp24
atp25
Rp26
sg15
I10
sS'dirt_locations'
p27
g20
((lp28
(I1
I2
tp29
a(I2
I7
tp30
a(I0
I0
tp31
a(I0
I5
tp32
a(I5
I6
tp33
a(I0
I2
tp34
atp35
Rp36
sg13
((I8
I4
tp37
tp38
sg14
I9
sbs(iproblems
RoomID
p39
(dp40
g10
I7
sg11
(I3
I5
tp41
sg13
I5
sg14
I7
sg15
I9
sg16
I6924344268699531175
sb(imulti_robot_problem
MultiRobotState
p42
(dp43
g19
g20
((lp44
(I2
I6
tp45
a(I1
I6
tp46
a(I3
I6
tp47
ag41
atp48
Rp49
sg15
I9
sg27
g20
((lp50
(I1
I2
tp51
a(I0
I0
tp52
a(I5
I0
tp53
a(I7
I1
tp54
a(I8
I6
tp55
a(I3
I4
tp56
a(I6
I5
tp57
atp58
Rp59
sg13
((I4
I0
tp60
(I7
I2
tp61
(I1
I1
tp62
(I6
I1
tp63
(I8
I4
tp64
tp65
sg14
I7
sbs(iproblems
RoomID
p66
(dp67
g10
I5
sg11
(I4
I7
tp68
sg13
I3
sg14
I9
sg15
I7
sg16
I2524308075868763041
sb(imulti_robot_problem
MultiRobotState
p69
(dp70
g19
g20
((lp71
(I1
I2
tp72
a(I3
I8
tp73
ag68
a(I4
I6
tp74
a(I4
I1
tp75
a(I2
I4
tp76
a(I3
I5
tp77
atp78
Rp79
sg15
I7
sg27
g20
((lp80
(I2
I6
tp81
a(I5
I2
tp82
a(I3
I3
tp83
a(I0
I7
tp84
a(I3
I6
tp85
atp86
Rp87
sg13
((I0
I6
tp88
(I3
I1
tp89
(I4
I8
tp90
tp91
sg14
I9
sbs(iproblems
RoomID
p92
(dp93
g10
I8
sg11
(I5
I0
tp94
sg13
I4
sg14
I10
sg15
I10
sg16
I3562373307524659409
sb(imulti_robot_problem
MultiRobotState
p95
(dp96
g19
g20
((lp97
(I6
I3
tp98
a(I6
I7
tp99
ag94
a(I3
I6
tp100
a(I8
I1
tp101
a(I7
I0
tp102
a(I6
I0
tp103
atp104
Rp105
sg15
I10
sg27
g20
((lp106
(I1
I3
tp107
a(I2
I9
tp108
a(I7
I6
tp109
a(I7
I7
tp110
a(I8
I9
tp111
a(I1
I8
tp112
a(I1
I6
tp113
a(I2
I2
tp114
atp115
Rp116
sg13
((I9
I8
tp117
(I6
I5
tp118
(I5
I1
tp119
(I8
I8
tp120
tp121
sg14
I10
sbs(iproblems
RoomID
p122
(dp123
g10
I6
sg11
(I3
I1
tp124
sg13
I4
sg14
I8
sg15
I7
sg16
I807570059310326234
sb(imulti_robot_problem
MultiRobotState
p125
(dp126
g19
g20
((lp127
(I6
I3
tp128
a(I4
I2
tp129
ag124
a(I5
I3
tp130
atp131
Rp132
sg15
I7
sg27
g20
((lp133
(I3
I2
tp134
a(I6
I7
tp135
a(I4
I6
tp136
a(I0
I4
tp137
a(I1
I0
tp138
a(I5
I2
tp139
atp140
Rp141
sg13
((I1
I2
tp142
(I0
I1
tp143
(I3
I7
tp144
(I2
I4
tp145
tp146
sg14
I8
sbssS'name'
p147
S'easy_roomset'
p148
sbsg147
S"AnytimeBeam-w20-gf(1.3, 'exp')_with_PowerHeuristic2"
p149
sS'solutions'
p150
(dp151
g8
((lp152
(F0.16000000000349246
I50
tp153
a(F0.75
I44
tp154
a(F3.2300000000032014
I43
tp155
a(F4.1600000000034925
I42
tp156
a(F5.1200000000026193
I38
tp157
a(F6.7799999999988358
I37
tp158
a(F8.3600000000005821
I35
tp159
a(F9.6399999999994179
I33
tp160
a(F10.650000000001455
I31
tp161
a(F12.480000000003201
I29
tp162
a(F15.120000000002619
I27
tp163
a(F18.680000000000291
I25
tp164
a(F23.260000000002037
I22
tp165
a(F25.900000000001455
I20
tp166
aF40.0
tp167
sg39
((lp168
(F9.8899999999994179
I7
tp169
aF40.930000000000291
tp170
sg66
((lp171
(F0.08000000000174623
I7
tp172
aF40.010000000002037
tp173
sg92
((lp174
(F1.5400000000008731
I10
tp175
aF40.029999999998836
tp176
sg122
((lp177
F40.459999999999127
tp178
ssba(imeasure_core
ProblemSetSolution
p179
(dp180
g3
(imeasure_core
RoomSet
p181
(dp182
g6
(dp183
(iproblems
RoomID
p184
(dp185
g10
I6
sg11
(I6
I2
tp186
sg13
I3
sg14
I11
sg15
I12
sg16
I6832892905590973747
sb(imulti_robot_problem
MultiRobotState
p187
(dp188
g19
g20
((lp189
(I6
I4
tp190
a(I2
I6
tp191
a(I4
I3
tp192
a(I3
I0
tp193
a(I2
I8
tp194
a(I7
I7
tp195
a(I7
I5
tp196
a(I4
I2
tp197
a(I5
I3
tp198
a(I4
I1
tp199
a(I7
I6
tp200
a(I6
I3
tp201
a(I4
I5
tp202
ag186
a(I3
I6
tp203
a(I8
I6
tp204
a(I4
I0
tp205
a(I5
I2
tp206
a(I2
I4
tp207
atp208
Rp209
sg15
I12
sg27
g20
((lp210
(I1
I6
tp211
a(I6
I8
tp212
a(I2
I9
tp213
a(I0
I3
tp214
a(I0
I2
tp215
a(I7
I9
tp216
atp217
Rp218
sg13
((I10
I6
tp219
(I1
I2
tp220
(I0
I0
tp221
tp222
sg14
I11
sbs(iproblems
RoomID
p223
(dp224
g10
I7
sg11
(I3
I1
tp225
sg13
I4
sg14
I9
sg15
I11
sg16
I6924344268699531175
sb(imulti_robot_problem
MultiRobotState
p226
(dp227
g19
g20
((lp228
(I4
I7
tp229
ag225
a(I6
I6
tp230
a(I5
I6
tp231
a(I2
I8
tp232
a(I9
I8
tp233
a(I7
I7
tp234
a(I0
I7
tp235
a(I7
I5
tp236
a(I8
I7
tp237
a(I0
I3
tp238
a(I0
I8
tp239
a(I8
I5
tp240
a(I6
I3
tp241
a(I5
I2
tp242
a(I7
I6
tp243
a(I4
I8
tp244
a(I7
I4
tp245
a(I3
I8
tp246
a(I0
I6
tp247
a(I8
I8
tp248
a(I4
I1
tp249
a(I9
I7
tp250
atp251
Rp252
sg15
I11
sg27
g20
((lp253
(I8
I3
tp254
a(I1
I3
tp255
a(I4
I6
tp256
a(I4
I3
tp257
a(I0
I4
tp258
a(I10
I5
tp259
a(I0
I0
tp260
atp261
Rp262
sg13
((I6
I0
tp263
(I9
I3
tp264
(I1
I1
tp265
(I8
I1
tp266
tp267
sg14
I9
sbs(iproblems
RoomID
p268
(dp269
g10
I6
sg11
(I2
I5
tp270
sg13
I4
sg14
I10
sg15
I9
sg16
I807570059310326234
sb(imulti_robot_problem
MultiRobotState
p271
(dp272
g19
g20
((lp273
(I6
I4
tp274
a(I3
I2
tp275
a(I1
I3
tp276
a(I8
I2
tp277
a(I2
I3
tp278
a(I3
I8
tp279
ag270
a(I1
I0
tp280
a(I1
I2
tp281
a(I7
I4
tp282
a(I4
I1
tp283
a(I3
I3
tp284
a(I3
I4
tp285
a(I1
I1
tp286
a(I6
I3
tp287
a(I2
I0
tp288
a(I1
I8
tp289
a(I2
I2
tp290
a(I5
I2
tp291
a(I0
I2
tp292
a(I8
I4
tp293
atp294
Rp295
sg15
I9
sg27
g20
((lp296
(I7
I3
tp297
a(I2
I6
tp298
a(I1
I6
tp299
a(I4
I2
tp300
a(I5
I8
tp301
a(I7
I9
tp302
atp303
Rp304
sg13
((I6
I2
tp305
(I0
I1
tp306
(I3
I9
tp307
(I3
I5
tp308
tp309
sg14
I10
sbs(iproblems
RoomID
p310
(dp311
g10
I10
sg11
(I6
I8
tp312
sg13
I3
sg14
I11
sg15
I10
sg16
I7391799147228763464
sb(imulti_robot_problem
MultiRobotState
p313
(dp314
g19
g20
((lp315
(I5
I9
tp316
a(I4
I7
tp317
a(I4
I6
tp318
a(I4
I8
tp319
a(I4
I5
tp320
a(I6
I9
tp321
a(I0
I7
tp322
a(I1
I4
tp323
a(I3
I7
tp324
a(I5
I8
tp325
ag312
a(I2
I7
tp326
a(I3
I8
tp327
a(I4
I9
tp328
a(I3
I3
tp329
a(I9
I2
tp330
a(I6
I3
tp331
a(I3
I6
tp332
a(I1
I7
tp333
a(I0
I9
tp334
a(I7
I8
tp335
a(I0
I2
tp336
a(I1
I9
tp337
atp338
Rp339
sg15
I10
sg27
g20
((lp340
(I8
I3
tp341
a(I5
I10
tp342
a(I5
I5
tp343
a(I2
I8
tp344
a(I7
I6
tp345
a(I6
I0
tp346
a(I2
I10
tp347
a(I9
I4
tp348
a(I1
I10
tp349
a(I0
I3
tp350
atp351
Rp352
sg13
((I3
I10
tp353
(I7
I1
tp354
(I1
I5
tp355
tp356
sg14
I11
sbs(iproblems
RoomID
p357
(dp358
g10
I8
sg11
(I11
I7
tp359
sg13
I4
sg14
I12
sg15
I12
sg16
I3562373307524659409
sb(imulti_robot_problem
MultiRobotState
p360
(dp361
g19
g20
((lp362
(I6
I4
tp363
a(I6
I9
tp364
a(I3
I2
tp365
a(I9
I1
tp366
a(I6
I6
tp367
a(I5
I6
tp368
a(I9
I8
tp369
a(I3
I11
tp370
a(I7
I1
tp371
ag359
a(I8
I9
tp372
a(I3
I9
tp373
a(I11
I8
tp374
a(I10
I2
tp375
a(I4
I2
tp376
a(I7
I2
tp377
a(I10
I8
tp378
a(I8
I3
tp379
a(I8
I1
tp380
a(I3
I10
tp381
a(I5
I11
tp382
a(I6
I3
tp383
a(I6
I11
tp384
a(I6
I5
tp385
a(I7
I10
tp386
a(I4
I8
tp387
a(I11
I6
tp388
a(I4
I11
tp389
atp390
Rp391
sg15
I12
sg27
g20
((lp392
(I7
I3
tp393
a(I1
I3
tp394
a(I10
I11
tp395
a(I1
I7
tp396
a(I8
I8
tp397
a(I2
I2
tp398
a(I3
I7
tp399
a(I7
I9
tp400
atp401
Rp402
sg13
((I11
I10
tp403
(I7
I6
tp404
(I10
I10
tp405
(I2
I10
tp406
tp407
sg14
I12
sbssg147
S'mild_roomset'
p408
sbsg147
g149
sg150
(dp409
g184
((lp410
(F0.26000000000203727
I10
tp411
aF40.099999999998545
tp412
sg223
((lp413
F40.090000000003783
tp414
sg268
((lp415
(F28.089999999996508
I108
tp416
aF40.269999999996799
tp417
sg310
((lp418
(F1.8100000000049477
I36
tp419
aF40.069999999999709
tp420
sg357
((lp421
(F13.380000000004657
I75
tp422
aF40.290000000000873
tp423
ssba(imeasure_core
ProblemSetSolution
p424
(dp425
g3
(imeasure_core
RoomSet
p426
(dp427
g6
(dp428
(iproblems
RoomID
p429
(dp430
g10
I11
sg11
(I4
I2
tp431
sg13
I5
sg14
I12
sg15
I13
sg16
I6832892905590973747
sb(imulti_robot_problem
MultiRobotState
p432
(dp433
g19
g20
((lp434
(I5
I9
tp435
a(I6
I9
tp436
a(I8
I2
tp437
a(I3
I0
tp438
a(I3
I4
tp439
a(I12
I11
tp440
ag431
a(I4
I1
tp441
a(I4
I0
tp442
atp443
Rp444
sg15
I13
sg27
g20
((lp445
(I2
I7
tp446
a(I9
I0
tp447
a(I6
I8
tp448
a(I4
I5
tp449
a(I2
I8
tp450
a(I8
I10
tp451
a(I2
I10
tp452
a(I1
I7
tp453
a(I3
I7
tp454
a(I2
I5
tp455
a(I0
I8
tp456
atp457
Rp458
sg13
((I11
I6
tp459
(I1
I2
tp460
(I1
I0
tp461
(I0
I3
tp462
(I0
I2
tp463
tp464
sg14
I12
sbs(iproblems
RoomID
p465
(dp466
g10
I12
sg11
(I6
I7
tp467
sg13
I7
sg14
I10
sg15
I12
sg16
I6924344268699531175
sb(imulti_robot_problem
MultiRobotState
p468
(dp469
g19
g20
((lp470
(I4
I7
tp471
ag467
a(I2
I9
tp472
a(I4
I8
tp473
a(I9
I6
tp474
a(I5
I7
tp475
a(I0
I6
tp476
a(I3
I9
tp477
a(I0
I9
tp478
a(I4
I9
tp479
a(I4
I1
tp480
atp481
Rp482
sg15
I12
sg27
g20
((lp483
(I7
I3
tp484
a(I5
I4
tp485
a(I1
I3
tp486
a(I9
I1
tp487
a(I8
I3
tp488
a(I0
I7
tp489
a(I8
I8
tp490
a(I0
I0
tp491
a(I0
I4
tp492
a(I0
I8
tp493
a(I11
I6
tp494
a(I9
I7
tp495
atp496
Rp497
sg13
((I6
I0
tp498
(I10
I4
tp499
(I1
I1
tp500
(I8
I2
tp501
(I11
I5
tp502
(I5
I6
tp503
(I10
I9
tp504
tp505
sg14
I10
sbs(iproblems
RoomID
p506
(dp507
g10
I13
sg11
(I7
I4
tp508
sg13
I6
sg14
I13
sg15
I13
sg16
I3562373307524659409
sb(imulti_robot_problem
MultiRobotState
p509
(dp510
g19
g20
((lp511
(I7
I3
tp512
a(I5
I4
tp513
a(I4
I9
tp514
a(I9
I1
tp515
a(I5
I9
tp516
a(I8
I1
tp517
a(I11
I2
tp518
a(I9
I3
tp519
a(I3
I11
tp520
a(I11
I7
tp521
ag508
a(I10
I1
tp522
a(I3
I10
tp523
a(I10
I5
tp524
a(I8
I2
tp525
atp526
Rp527
sg15
I13
sg27
g20
((lp528
(I8
I3
tp529
a(I3
I12
tp530
a(I4
I8
tp531
a(I6
I10
tp532
a(I9
I9
tp533
a(I12
I6
tp534
a(I8
I9
tp535
a(I1
I8
tp536
a(I4
I3
tp537
a(I2
I2
tp538
a(I4
I2
tp539
a(I11
I12
tp540
a(I2
I4
tp541
atp542
Rp543
sg13
((I12
I11
tp544
(I7
I6
tp545
(I7
I1
tp546
(I10
I11
tp547
(I2
I11
tp548
(I9
I8
tp549
tp550
sg14
I13
sbs(iproblems
RoomID
p551
(dp552
g10
I11
sg11
(I5
I1
tp553
sg13
I7
sg14
I11
sg15
I10
sg16
I807570059310326234
sb(imulti_robot_problem
MultiRobotState
p554
(dp555
g19
g20
((lp556
(I7
I3
tp557
a(I4
I6
tp558
a(I7
I4
tp559
a(I6
I2
tp560
a(I1
I9
tp561
a(I9
I4
tp562
ag553
a(I0
I3
tp563
a(I5
I2
tp564
a(I8
I4
tp565
atp566
Rp567
sg15
I10
sg27
g20
((lp568
(I5
I9
tp569
a(I6
I9
tp570
a(I2
I9
tp571
a(I4
I8
tp572
a(I9
I2
tp573
a(I2
I0
tp574
a(I1
I6
tp575
a(I9
I5
tp576
a(I4
I2
tp577
a(I1
I0
tp578
a(I3
I5
tp579
atp580
Rp581
sg13
((I1
I3
tp582
(I0
I2
tp583
(I4
I10
tp584
(I4
I5
tp585
(I8
I10
tp586
(I8
I3
tp587
(I2
I6
tp588
tp589
sg14
I11
sbs(iproblems
RoomID
p590
(dp591
g10
I15
sg11
(I4
I8
tp592
sg13
I6
sg14
I12
sg15
I11
sg16
I7391799147228763464
sb(imulti_robot_problem
MultiRobotState
p593
(dp594
g19
g20
((lp595
(I6
I4
tp596
a(I4
I7
tp597
ag592
a(I5
I6
tp598
a(I2
I8
tp599
a(I5
I7
tp600
a(I6
I9
tp601
a(I4
I2
tp602
a(I9
I2
tp603
a(I1
I6
tp604
a(I10
I7
tp605
a(I8
I6
tp606
a(I2
I4
tp607
atp608
Rp609
sg15
I11
sg27
g20
((lp610
(I7
I0
tp611
a(I10
I4
tp612
a(I6
I11
tp613
a(I7
I6
tp614
a(I1
I4
tp615
a(I8
I9
tp616
a(I1
I8
tp617
a(I3
I9
tp618
a(I0
I10
tp619
a(I9
I4
tp620
a(I7
I10
tp621
a(I1
I10
tp622
a(I4
I3
tp623
a(I0
I3
tp624
a(I0
I2
tp625
atp626
Rp627
sg13
((I4
I6
tp628
(I3
I11
tp629
(I7
I1
tp630
(I2
I5
tp631
(I5
I9
tp632
(I2
I11
tp633
tp634
sg14
I12
sbssg147
S'heavy_roomset'
p635
sbsg147
g149
sg150
(dp636
g429
((lp637
(F35.479999999995925
I24
tp638
aF40.720000000001164
tp639
sg465
((lp640
F48.330000000001746
tp641
sg506
((lp642
F41.439999999995052
tp643
sg551
((lp644
F49.690000000002328
tp645
sg590
((lp646
F42.779999999998836
tp647
ssba(imeasure_core
ProblemSetSolution
p648
(dp649
g3
g4
sg147
S"AnytimeBeam-w20-gf(1.5, 'exp')_with_PowerHeuristic2"
p650
sg150
(dp651
g8
((lp652
(F0.16000000000349246
I50
tp653
a(F0.41999999999825377
I44
tp654
a(F2.0999999999985448
I43
tp655
a(F3.0500000000029104
I42
tp656
a(F3.9899999999979627
I38
tp657
a(F5.6399999999994179
I37
tp658
a(F7.2399999999979627
I35
tp659
a(F8.5299999999988358
I33
tp660
a(F9.5400000000008731
I31
tp661
a(F11.360000000000582
I29
tp662
a(F13.989999999997963
I27
tp663
a(F17.559999999997672
I25
tp664
a(F22.110000000000582
I22
tp665
a(F24.769999999996799
I20
tp666
aF40.0
tp667
sg39
((lp668
(F9.930000000000291
I7
tp669
aF41.290000000000873
tp670
sg66
((lp671
(F0.08000000000174623
I7
tp672
aF40.010000000002037
tp673
sg92
((lp674
(F1.5199999999967986
I10
tp675
aF40.009999999994761
tp676
sg122
((lp677
F40.139999999999418
tp678
ssba(imeasure_core
ProblemSetSolution
p679
(dp680
g3
g181
sg147
g650
sg150
(dp681
g184
((lp682
(F0.26000000000203727
I10
tp683
aF40.029999999998836
tp684
sg223
((lp685
F40.05000000000291
tp686
sg268
((lp687
(F27.830000000001746
I108
tp688
aF40.330000000001746
tp689
sg310
((lp690
(F1.819999999999709
I36
tp691
aF40.029999999998836
tp692
sg357
((lp693
(F13.349999999998545
I75
tp694
aF40.239999999997963
tp695
ssba(imeasure_core
ProblemSetSolution
p696
(dp697
g3
g426
sg147
g650
sg150
(dp698
g429
((lp699
(F35.389999999999418
I24
tp700
aF40.650000000001455
tp701
sg465
((lp702
F47.879999999997381
tp703
sg506
((lp704
F41.30000000000291
tp705
sg551
((lp706
F49.899999999994179
tp707
sg590
((lp708
F42.830000000001746
tp709
ssba(imeasure_core
ProblemSetSolution
p710
(dp711
g3
g4
sg147
S"AnytimeBeam-w20-gf(1.7, 'exp')_with_PowerHeuristic2"
p712
sg150
(dp713
g8
((lp714
(F0.15000000000145519
I50
tp715
a(F0.4099999999962165
I44
tp716
a(F2.1399999999994179
I43
tp717
a(F3.069999999999709
I42
tp718
a(F3.9899999999979627
I38
tp719
a(F5.6299999999973807
I37
tp720
a(F7.2200000000011642
I35
tp721
a(F8.5
I33
tp722
a(F9.5
I31
tp723
a(F11.309999999997672
I29
tp724
a(F13.959999999999127
I27
tp725
a(F17.519999999996799
I25
tp726
a(F22.059999999997672
I22
tp727
a(F24.720000000001164
I20
tp728
aF40.0
tp729
sg39
((lp730
(F9.9400000000023283
I7
tp731
aF41.290000000000873
tp732
sg66
((lp733
(F0.08999999999650754
I7
tp734
aF40.009999999994761
tp735
sg92
((lp736
(F1.5500000000029104
I10
tp737
aF40.0
tp738
sg122
((lp739
F40.490000000005239
tp740
ssba(imeasure_core
ProblemSetSolution
p741
(dp742
g3
g181
sg147
g712
sg150
(dp743
g184
((lp744
(F0.26000000000203727
I10
tp745
aF40.090000000003783
tp746
sg223
((lp747
F40.230000000003201
tp748
sg268
((lp749
(F28.259999999994761
I108
tp750
aF40.009999999994761
tp751
sg310
((lp752
(F1.8300000000017462
I36
tp753
aF40.010000000002037
tp754
sg357
((lp755
(F13.349999999998545
I75
tp756
aF40.029999999998836
tp757
ssba(imeasure_core
ProblemSetSolution
p758
(dp759
g3
g426
sg147
g712
sg150
(dp760
g429
((lp761
(F35.419999999998254
I24
tp762
aF40.720000000001164
tp763
sg465
((lp764
F48.239999999997963
tp765
sg506
((lp766
F41.220000000001164
tp767
sg551
((lp768
F50.019999999996799
tp769
sg590
((lp770
F42.630000000004657
tp771
ssba(imeasure_core
ProblemSetSolution
p772
(dp773
g3
g4
sg147
S"AnytimeBeam-w20-gf(1.8999999999999999, 'exp')_with_PowerHeuristic2"
p774
sg150
(dp775
g8
((lp776
(F0.1599999999962165
I50
tp777
a(F0.41999999999825377
I44
tp778
a(F1.3699999999953434
I43
tp779
a(F2.3099999999976717
I42
tp780
a(F3.2299999999959255
I38
tp781
a(F4.8799999999973807
I37
tp782
a(F6.4599999999991269
I35
tp783
a(F7.75
I33
tp784
a(F8.7399999999979627
I31
tp785
a(F10.559999999997672
I29
tp786
a(F13.180000000000291
I27
tp787
a(F16.69999999999709
I25
tp788
a(F21.229999999995925
I22
tp789
a(F23.879999999997381
I20
tp790
aF40.0
tp791
sg39
((lp792
(F9.8699999999953434
I7
tp793
aF40.889999999999418
tp794
sg66
((lp795
(F0.079999999994470272
I7
tp796
aF40.029999999998836
tp797
sg92
((lp798
(F1.5199999999967986
I10
tp799
aF40.080000000001746
tp800
sg122
((lp801
F40.089999999996508
tp802
ssba(imeasure_core
ProblemSetSolution
p803
(dp804
g3
g181
sg147
g774
sg150
(dp805
g184
((lp806
(F0.26000000000203727
I10
tp807
aF40.010000000002037
tp808
sg223
((lp809
F40.169999999998254
tp810
sg268
((lp811
(F27.75
I108
tp812
aF40.139999999999418
tp813
sg310
((lp814
(F1.7799999999988358
I36
tp815
aF40.05000000000291
tp816
sg357
((lp817
(F13.239999999997963
I75
tp818
aF40.299999999995634
tp819
ssba(imeasure_core
ProblemSetSolution
p820
(dp821
g3
g426
sg147
g774
sg150
(dp822
g429
((lp823
(F35.590000000003783
I24
tp824
aF40.100000000005821
tp825
sg465
((lp826
F48.169999999998254
tp827
sg506
((lp828
F41.25
tp829
sg551
((lp830
F49.729999999995925
tp831
sg590
((lp832
F42.850000000005821
tp833
ssba(imeasure_core
ProblemSetSolution
p834
(dp835
g3
g4
sg147
S"AnytimeBeam-w20-gf(1.3, 'exp')_with_LinearHeuristic"
p836
sg150
(dp837
g8
((lp838
(F0.010000000002037268
I20
tp839
aF40.0
tp840
sg39
((lp841
(F6.7000000000043656
I7
tp842
aF40.319999999999709
tp843
sg66
((lp844
(F4.4500000000043656
I47
tp845
a(F10.110000000000582
I46
tp846
a(F21.450000000004366
I45
tp847
a(F33.42000000000553
I44
tp848
aF40.05000000000291
tp849
sg92
((lp850
F40.639999999999418
tp851
sg122
((lp852
F40.190000000002328
tp853
ssba(imeasure_core
ProblemSetSolution
p854
(dp855
g3
g181
sg147
g836
sg150
(dp856
g184
((lp857
(F0.51999999999679858
I12
tp858
aF40.110000000000582
tp859
sg223
((lp860
F40.299999999995634
tp861
sg268
((lp862
F40.150000000001455
tp863
sg310
((lp864
(F1.8399999999965075
I38
tp865
aF40.110000000000582
tp866
sg357
((lp867
(F4.9199999999982538
I31
tp868
a(F13.760000000002037
I30
tp869
a(F23.44999999999709
I29
tp870
a(F36.620000000002619
I28
tp871
aF40.089999999996508
tp872
ssba(imeasure_core
ProblemSetSolution
p873
(dp874
g3
g426
sg147
g836
sg150
(dp875
g429
((lp876
F40.629999999997381
tp877
sg465
((lp878
F77.830000000001746
tp879
sg506
((lp880
F45.599999999998545
tp881
sg551
((lp882
F64.040000000000873
tp883
sg590
((lp884
F41.310000000004948
tp885
ssba(imeasure_core
ProblemSetSolution
p886
(dp887
g3
g4
sg147
S"AnytimeBeam-w20-gf(1.5, 'exp')_with_LinearHeuristic"
p888
sg150
(dp889
g8
((lp890
(F0.019999999996798579
I20
tp891
aF40.0
tp892
sg39
((lp893
(F9.0399999999935972
I7
tp894
aF40.259999999994761
tp895
sg66
((lp896
(F4.7900000000008731
I47
tp897
a(F10.440000000002328
I46
tp898
a(F22.340000000003783
I45
tp899
a(F34.430000000000291
I44
tp900
aF40.069999999999709
tp901
sg92
((lp902
F40.30000000000291
tp903
sg122
((lp904
F40.629999999997381
tp905
ssba(imeasure_core
ProblemSetSolution
p906
(dp907
g3
g181
sg147
g888
sg150
(dp908
g184
((lp909
(F0.51000000000203727
I12
tp910
aF40.120000000002619
tp911
sg223
((lp912
F40.349999999998545
tp913
sg268
((lp914
F40.040000000000873
tp915
sg310
((lp916
(F1.8399999999965075
I38
tp917
aF40.080000000001746
tp918
sg357
((lp919
(F4.9099999999962165
I31
tp920
a(F13.69999999999709
I30
tp921
a(F23.5
I29
tp922
a(F36.859999999993306
I28
tp923
aF40.039999999993597
tp924
ssba(imeasure_core
ProblemSetSolution
p925
(dp926
g3
g426
sg147
g888
sg150
(dp927
g429
((lp928
F40.819999999999709
tp929
sg465
((lp930
F77.950000000004366
tp931
sg506
((lp932
F45.409999999996217
tp933
sg551
((lp934
F63.850000000005821
tp935
sg590
((lp936
F41.509999999994761
tp937
ssba(imeasure_core
ProblemSetSolution
p938
(dp939
g3
g4
sg147
S"AnytimeBeam-w20-gf(1.7, 'exp')_with_LinearHeuristic"
p940
sg150
(dp941
g8
((lp942
(F0.010000000002037268
I20
tp943
aF40.0
tp944
sg39
((lp945
(F10.810000000004948
I7
tp946
aF40.5
tp947
sg66
((lp948
(F4.819999999999709
I47
tp949
a(F10.490000000005239
I46
tp950
a(F22.450000000004366
I45
tp951
a(F34.569999999999709
I44
tp952
aF40.209999999999127
tp953
sg92
((lp954
F40.240000000005239
tp955
sg122
((lp956
F40.879999999997381
tp957
ssba(imeasure_core
ProblemSetSolution
p958
(dp959
g3
g181
sg147
g940
sg150
(dp960
g184
((lp961
(F0.50999999999476131
I12
tp962
aF40.099999999998545
tp963
sg223
((lp964
F40.5
tp965
sg268
((lp966
F40.279999999998836
tp967
sg310
((lp968
(F1.8600000000005821
I38
tp969
aF40.05000000000291
tp970
sg357
((lp971
(F4.9099999999962165
I31
tp972
a(F13.75
I30
tp973
a(F23.479999999995925
I29
tp974
a(F36.720000000001164
I28
tp975
aF40.049999999995634
tp976
ssba(imeasure_core
ProblemSetSolution
p977
(dp978
g3
g426
sg147
g940
sg150
(dp979
g429
((lp980
F40.840000000003783
tp981
sg465
((lp982
F77.889999999999418
tp983
sg506
((lp984
F45.669999999998254
tp985
sg551
((lp986
F63.830000000001746
tp987
sg590
((lp988
F41.549999999995634
tp989
ssba(imeasure_core
ProblemSetSolution
p990
(dp991
g3
g4
sg147
S"AnytimeBeam-w20-gf(1.8999999999999999, 'exp')_with_LinearHeuristic"
p992
sg150
(dp993
g8
((lp994
(F0.010000000002037268
I20
tp995
aF40.0
tp996
sg39
((lp997
(F10.919999999998254
I7
tp998
aF40.010000000002037
tp999
sg66
((lp1000
(F4.8499999999985448
I47
tp1001
a(F10.489999999997963
I46
tp1002
a(F22.400000000001455
I45
tp1003
a(F34.519999999996799
I44
tp1004
aF40.129999999997381
tp1005
sg92
((lp1006
F40.150000000001455
tp1007
sg122
((lp1008
F40.020000000004075
tp1009
ssba(imeasure_core
ProblemSetSolution
p1010
(dp1011
g3
g181
sg147
g992
sg150
(dp1012
g184
((lp1013
(F0.52000000000407454
I12
tp1014
aF40.060000000004948
tp1015
sg223
((lp1016
F40.419999999998254
tp1017
sg268
((lp1018
F40.159999999996217
tp1019
sg310
((lp1020
(F1.8400000000037835
I38
tp1021
aF40.120000000002619
tp1022
sg357
((lp1023
(F4.9099999999962165
I31
tp1024
a(F13.739999999997963
I30
tp1025
a(F23.519999999996799
I29
tp1026
a(F36.690000000002328
I28
tp1027
aF40.0
tp1028
ssba(imeasure_core
ProblemSetSolution
p1029
(dp1030
g3
g426
sg147
g992
sg150
(dp1031
g429
((lp1032
F40.629999999997381
tp1033
sg465
((lp1034
F78.099999999998545
tp1035
sg506
((lp1036
F45.459999999999127
tp1037
sg551
((lp1038
F64.080000000001746
tp1039
sg590
((lp1040
F41.400000000001455
tp1041
ssba.