(lp0
(imeasure_core
ProblemSetSolution
p1
(dp2
S'roomset'
p3
(imeasure_core
RoomSet
p4
(dp5
S'rooms'
p6
(dp7
(iproblems
RoomID
p8
(dp9
S'dusts'
p10
I6
sS'obstacles'
p11
(I0
I4
tp12
sS'robots'
p13
I1
sS'height'
p14
I9
sS'width'
p15
I9
sS'seed'
p16
I1164115433906158532
sb(imulti_robot_problem
MultiRobotState
p17
(dp18
S'obstacle_locations'
p19
c__builtin__
frozenset
p20
((lp21
(I0
I1
tp22
a(I1
I2
tp23
a(I1
I3
tp24
a(I1
I4
tp25
ag12
atp26
Rp27
sg15
I9
sS'dirt_locations'
p28
g20
((lp29
(I6
I4
tp30
a(I1
I8
tp31
a(I1
I6
tp32
a(I1
I0
tp33
a(I8
I5
tp34
a(I3
I5
tp35
atp36
Rp37
sg13
((I4
I5
tp38
tp39
sg14
I9
sbs(iproblems
RoomID
p40
(dp41
g10
I8
sg11
(I6
I5
tp42
sg13
I5
sg14
I8
sg15
I7
sg16
I2175216119781798972
sb(imulti_robot_problem
MultiRobotState
p43
(dp44
g19
g20
((lp45
(I1
I2
tp46
a(I2
I6
tp47
a(I6
I7
tp48
a(I6
I6
tp49
a(I5
I7
tp50
a(I2
I3
tp51
a(I0
I4
tp52
a(I1
I0
tp53
ag42
atp54
Rp55
sg15
I7
sg28
g20
((lp56
(I5
I4
tp57
a(I5
I5
tp58
a(I4
I4
tp59
a(I0
I6
tp60
a(I0
I5
tp61
a(I1
I7
tp62
a(I4
I2
tp63
a(I0
I2
tp64
atp65
Rp66
sg13
((I1
I3
tp67
(I6
I4
tp68
(I3
I7
tp69
(I6
I0
tp70
(I2
I1
tp71
tp72
sg14
I8
sbs(iproblems
RoomID
p73
(dp74
g10
I5
sg11
(I0
I4
tp75
sg13
I5
sg14
I7
sg15
I7
sg16
I8711387064946514083
sb(imulti_robot_problem
MultiRobotState
p76
(dp77
g19
g20
((lp78
(I0
I1
tp79
a(I2
I2
tp80
a(I0
I2
tp81
a(I1
I5
tp82
ag75
a(I0
I3
tp83
a(I2
I4
tp84
a(I6
I5
tp85
atp86
Rp87
sg15
I7
sg28
g20
((lp88
(I5
I6
tp89
a(I6
I4
tp90
a(I3
I2
tp91
a(I6
I1
tp92
a(I6
I6
tp93
atp94
Rp95
sg13
((I1
I1
tp96
(I6
I0
tp97
(I5
I0
tp98
(I1
I3
tp99
(I4
I5
tp100
tp101
sg14
I7
sbs(iproblems
RoomID
p102
(dp103
g10
I9
sg11
(I2
I2
tp104
sg13
I2
sg14
I9
sg15
I7
sg16
I3872982626502034966
sb(imulti_robot_problem
MultiRobotState
p105
(dp106
g19
g20
((lp107
(I4
I1
tp108
a(I2
I6
tp109
a(I3
I1
tp110
a(I5
I0
tp111
ag104
atp112
Rp113
sg15
I7
sg28
g20
((lp114
(I4
I7
tp115
a(I2
I8
tp116
a(I4
I4
tp117
a(I3
I2
tp118
a(I2
I1
tp119
a(I1
I4
tp120
a(I4
I2
tp121
a(I0
I3
tp122
a(I5
I8
tp123
atp124
Rp125
sg13
((I1
I6
tp126
(I1
I7
tp127
tp128
sg14
I9
sbs(iproblems
RoomID
p129
(dp130
g10
I9
sg11
(I6
I3
tp131
sg13
I4
sg14
I9
sg15
I10
sg16
I7002664860023442459
sb(imulti_robot_problem
MultiRobotState
p132
(dp133
g19
g20
((lp134
(I7
I4
tp135
a(I7
I3
tp136
ag131
a(I6
I5
tp137
a(I9
I7
tp138
atp139
Rp140
sg15
I10
sg28
g20
((lp141
(I0
I0
tp142
a(I6
I8
tp143
a(I2
I8
tp144
a(I5
I7
tp145
a(I2
I6
tp146
a(I4
I2
tp147
a(I5
I1
tp148
a(I8
I6
tp149
a(I8
I4
tp150
atp151
Rp152
sg13
((I7
I5
tp153
(I7
I6
tp154
(I1
I7
tp155
(I1
I6
tp156
tp157
sg14
I9
sbssS'name'
p158
S'easy_roomset'
p159
sbsg158
S"AnytimeBeam-w20-gf(2, 'lin')_with_PowerHeuristic2"
p160
sS'solutions'
p161
(dp162
g8
((lp163
(F0.1500000000005457
I42
tp164
a(F16.119999999999891
I36
tp165
a(F23.610000000000582
I34
tp166
a(F33.420000000000073
I32
tp167
a(F34.640000000000327
I30
tp168
a(F35.710000000000036
I28
tp169
aF40.0
tp170
sg40
((lp171
(F0.96000000000003638
I5
tp172
aF40.100000000000364
tp173
sg73
((lp174
(F0.52999999999974534
I4
tp175
aF40.0
tp176
sg102
((lp177
(F1.4899999999997817
I66
tp178
a(F12.159999999999854
I65
tp179
a(F21.149999999999636
I64
tp180
a(F34.539999999999964
I63
tp181
aF40.039999999999964
tp182
sg129
((lp183
(F1.3500000000003638
I11
tp184
aF40.029999999999745
tp185
ssba(imeasure_core
ProblemSetSolution
p186
(dp187
g3
(imeasure_core
RoomSet
p188
(dp189
g6
(dp190
(iproblems
RoomID
p191
(dp192
g10
I6
sg11
(I5
I5
tp193
sg13
I3
sg14
I11
sg15
I11
sg16
I1164115433906158532
sb(imulti_robot_problem
MultiRobotState
p194
(dp195
g19
g20
((lp196
(I5
I4
tp197
a(I1
I3
tp198
a(I4
I3
tp199
a(I4
I8
tp200
a(I3
I0
tp201
a(I8
I0
tp202
a(I3
I2
tp203
a(I0
I7
tp204
a(I2
I1
tp205
a(I3
I9
tp206
a(I0
I5
tp207
a(I1
I4
tp208
a(I3
I7
tp209
a(I2
I5
tp210
a(I5
I3
tp211
a(I8
I3
tp212
a(I3
I1
tp213
ag193
a(I2
I0
tp214
a(I3
I10
tp215
a(I6
I10
tp216
a(I0
I6
tp217
a(I1
I8
tp218
a(I3
I6
tp219
a(I4
I5
tp220
a(I0
I2
tp221
atp222
Rp223
sg15
I11
sg28
g20
((lp224
(I7
I5
tp225
a(I8
I8
tp226
a(I4
I9
tp227
a(I4
I6
tp228
a(I10
I6
tp229
a(I8
I2
tp230
atp231
Rp232
sg13
((I5
I7
tp233
(I2
I10
tp234
(I2
I8
tp235
tp236
sg14
I11
sbs(iproblems
RoomID
p237
(dp238
g10
I8
sg11
(I5
I4
tp239
sg13
I4
sg14
I10
sg15
I9
sg16
I2175216119781798972
sb(imulti_robot_problem
MultiRobotState
p240
(dp241
g19
g20
((lp242
(I6
I6
tp243
a(I2
I8
tp244
a(I0
I7
tp245
a(I6
I2
tp246
a(I1
I6
tp247
a(I2
I5
tp248
a(I5
I5
tp249
a(I8
I1
tp250
a(I7
I6
tp251
a(I6
I3
tp252
a(I2
I2
tp253
a(I8
I6
tp254
a(I6
I4
tp255
ag239
a(I8
I2
tp256
a(I7
I1
tp257
a(I1
I4
tp258
a(I7
I5
tp259
a(I8
I7
tp260
a(I1
I0
tp261
a(I6
I5
tp262
a(I3
I3
tp263
a(I8
I3
tp264
a(I7
I0
tp265
a(I6
I8
tp266
a(I3
I4
tp267
a(I7
I4
tp268
a(I0
I6
tp269
a(I1
I8
tp270
a(I8
I8
tp271
a(I4
I3
tp272
a(I1
I7
tp273
a(I7
I8
tp274
a(I0
I2
tp275
atp276
Rp277
sg15
I9
sg28
g20
((lp278
(I6
I7
tp279
a(I2
I9
tp280
a(I5
I6
tp281
a(I3
I1
tp282
a(I8
I9
tp283
a(I0
I5
tp284
a(I0
I3
tp285
a(I5
I2
tp286
atp287
Rp288
sg13
((I2
I4
tp289
(I8
I5
tp290
(I4
I9
tp291
(I7
I7
tp292
tp293
sg14
I10
sbs(iproblems
RoomID
p294
(dp295
g10
I9
sg11
(I3
I0
tp296
sg13
I3
sg14
I9
sg15
I12
sg16
I4912931603392816429
sb(imulti_robot_problem
MultiRobotState
p297
(dp298
g19
g20
((lp299
(I6
I4
tp300
a(I4
I7
tp301
a(I0
I0
tp302
a(I4
I8
tp303
a(I5
I6
tp304
a(I2
I8
tp305
a(I0
I7
tp306
a(I4
I6
tp307
a(I7
I5
tp308
a(I4
I2
tp309
a(I0
I3
tp310
a(I7
I2
tp311
a(I6
I8
tp312
a(I10
I5
tp313
a(I5
I5
tp314
a(I7
I8
tp315
a(I4
I4
tp316
a(I5
I2
tp317
ag296
a(I8
I8
tp318
a(I5
I8
tp319
a(I1
I7
tp320
a(I4
I5
tp321
a(I8
I6
tp322
a(I5
I3
tp323
a(I4
I1
tp324
atp325
Rp326
sg15
I12
sg28
g20
((lp327
(I7
I3
tp328
a(I7
I1
tp329
a(I8
I1
tp330
a(I6
I3
tp331
a(I11
I8
tp332
a(I8
I7
tp333
a(I3
I7
tp334
a(I2
I5
tp335
a(I3
I4
tp336
atp337
Rp338
sg13
((I9
I1
tp339
(I1
I6
tp340
(I8
I4
tp341
tp342
sg14
I9
sbs(iproblems
RoomID
p343
(dp344
g10
I9
sg11
(I4
I3
tp345
sg13
I4
sg14
I11
sg15
I12
sg16
I7002664860023442459
sb(imulti_robot_problem
MultiRobotState
p346
(dp347
g19
g20
((lp348
(I11
I8
tp349
a(I0
I0
tp350
a(I10
I4
tp351
a(I3
I0
tp352
a(I9
I3
tp353
a(I6
I0
tp354
a(I2
I1
tp355
a(I8
I9
tp356
a(I9
I4
tp357
a(I5
I1
tp358
a(I8
I5
tp359
a(I5
I8
tp360
a(I8
I2
tp361
a(I7
I0
tp362
a(I8
I7
tp363
a(I3
I3
tp364
a(I1
I5
tp365
a(I8
I1
tp366
a(I9
I6
tp367
a(I3
I1
tp368
a(I9
I2
tp369
a(I2
I0
tp370
ag345
a(I2
I2
tp371
a(I9
I5
tp372
a(I5
I2
tp373
a(I2
I4
tp374
atp375
Rp376
sg15
I12
sg28
g20
((lp377
(I0
I1
tp378
a(I10
I8
tp379
a(I2
I8
tp380
a(I3
I10
tp381
a(I10
I6
tp382
a(I6
I2
tp383
a(I3
I7
tp384
a(I7
I8
tp385
a(I7
I9
tp386
atp387
Rp388
sg13
((I9
I7
tp389
(I8
I8
tp390
(I2
I9
tp391
(I1
I7
tp392
tp393
sg14
I11
sbs(iproblems
RoomID
p394
(dp395
g10
I9
sg11
(I5
I3
tp396
sg13
I3
sg14
I9
sg15
I9
sg16
I1885758236351349410
sb(imulti_robot_problem
MultiRobotState
p397
(dp398
g19
g20
((lp399
(I4
I7
tp400
a(I5
I7
tp401
a(I7
I1
tp402
a(I5
I6
tp403
a(I5
I4
tp404
a(I0
I0
tp405
a(I2
I3
tp406
a(I4
I2
tp407
a(I8
I5
tp408
ag396
a(I6
I7
tp409
a(I5
I5
tp410
a(I4
I4
tp411
a(I1
I5
tp412
a(I4
I3
tp413
a(I0
I4
tp414
a(I1
I6
tp415
a(I3
I4
tp416
a(I2
I4
tp417
atp418
Rp419
sg15
I9
sg28
g20
((lp420
(I7
I3
tp421
a(I7
I0
tp422
a(I3
I0
tp423
a(I6
I1
tp424
a(I1
I4
tp425
a(I0
I5
tp426
a(I5
I0
tp427
a(I1
I1
tp428
a(I8
I4
tp429
atp430
Rp431
sg13
((I0
I1
tp432
(I2
I6
tp433
(I0
I2
tp434
tp435
sg14
I9
sbssg158
S'mild_roomset'
p436
sbsg158
g160
sg161
(dp437
g191
((lp438
(F16.920000000000073
I145
tp439
aF40.090000000000146
tp440
sg237
((lp441
F40.019999999999527
tp442
sg294
((lp443
(F0.19000000000050932
I11
tp444
aF40.0600000000004
tp445
sg343
((lp446
(F1.6199999999998909
I11
tp447
aF40.239999999999782
tp448
sg394
((lp449
(F2.0200000000004366
I65
tp450
aF40.119999999999891
tp451
ssba(imeasure_core
ProblemSetSolution
p452
(dp453
g3
(imeasure_core
RoomSet
p454
(dp455
g6
(dp456
(iproblems
RoomID
p457
(dp458
g10
I11
sg11
(I7
I9
tp459
sg13
I5
sg14
I12
sg15
I12
sg16
I1164115433906158532
sb(imulti_robot_problem
MultiRobotState
p460
(dp461
g19
g20
((lp462
(I4
I7
tp463
a(I1
I3
tp464
a(I5
I6
tp465
a(I9
I3
tp466
a(I1
I4
tp467
a(I0
I5
tp468
a(I7
I11
tp469
a(I1
I0
tp470
a(I5
I8
tp471
a(I3
I3
tp472
a(I3
I1
tp473
a(I6
I7
tp474
a(I6
I8
tp475
a(I7
I8
tp476
a(I5
I7
tp477
ag459
a(I4
I1
tp478
a(I0
I2
tp479
atp480
Rp481
sg15
I12
sg28
g20
((lp482
(I4
I10
tp483
a(I9
I0
tp484
a(I2
I6
tp485
a(I5
I10
tp486
a(I9
I2
tp487
a(I0
I7
tp488
a(I8
I9
tp489
a(I1
I6
tp490
a(I8
I5
tp491
a(I4
I11
tp492
a(I5
I3
tp493
atp494
Rp495
sg13
((I1
I2
tp496
(I2
I11
tp497
(I2
I0
tp498
(I2
I9
tp499
(I11
I7
tp500
tp501
sg14
I12
sbs(iproblems
RoomID
p502
(dp503
g10
I10
sg11
(I0
I7
tp504
sg13
I7
sg14
I10
sg15
I10
sg16
I8711387064946514083
sb(imulti_robot_problem
MultiRobotState
p505
(dp506
g19
g20
((lp507
(I5
I9
tp508
a(I6
I9
tp509
a(I2
I6
tp510
a(I2
I9
tp511
a(I0
I6
tp512
ag504
a(I1
I5
tp513
a(I8
I8
tp514
a(I0
I5
tp515
a(I4
I3
tp516
a(I0
I4
tp517
a(I0
I3
tp518
a(I9
I7
tp519
a(I0
I2
tp520
a(I7
I9
tp521
atp522
Rp523
sg15
I10
sg28
g20
((lp524
(I9
I0
tp525
a(I3
I3
tp526
a(I7
I1
tp527
a(I8
I1
tp528
a(I9
I8
tp529
a(I4
I4
tp530
a(I9
I9
tp531
a(I3
I6
tp532
a(I1
I7
tp533
a(I8
I6
tp534
atp535
Rp536
sg13
((I1
I1
tp537
(I8
I0
tp538
(I7
I0
tp539
(I2
I5
tp540
(I6
I7
tp541
(I8
I9
tp542
(I5
I8
tp543
tp544
sg14
I10
sbs(iproblems
RoomID
p545
(dp546
g10
I14
sg11
(I0
I3
tp547
sg13
I7
sg14
I12
sg15
I13
sg16
I7002664860023442459
sb(imulti_robot_problem
MultiRobotState
p548
(dp549
g19
g20
((lp550
(I1
I2
tp551
a(I11
I4
tp552
a(I9
I8
tp553
a(I10
I6
tp554
ag547
a(I0
I8
tp555
a(I10
I3
tp556
a(I0
I1
tp557
a(I10
I5
tp558
a(I10
I7
tp559
a(I7
I8
tp560
a(I9
I9
tp561
a(I0
I9
tp562
a(I9
I5
tp563
a(I3
I4
tp564
a(I0
I2
tp565
a(I11
I6
tp566
a(I9
I7
tp567
atp568
Rp569
sg15
I13
sg28
g20
((lp570
(I6
I4
tp571
a(I11
I9
tp572
a(I4
I6
tp573
a(I2
I9
tp574
a(I5
I9
tp575
a(I12
I2
tp576
a(I3
I1
tp577
a(I3
I11
tp578
a(I10
I10
tp579
a(I7
I4
tp580
a(I0
I0
tp581
a(I11
I5
tp582
a(I2
I5
tp583
a(I12
I9
tp584
atp585
Rp586
sg13
((I2
I10
tp587
(I1
I8
tp588
(I8
I10
tp589
(I7
I2
tp590
(I3
I8
tp591
(I6
I2
tp592
(I7
I9
tp593
tp594
sg14
I12
sbs(iproblems
RoomID
p595
(dp596
g10
I14
sg11
(I5
I10
tp597
sg13
I5
sg14
I12
sg15
I10
sg16
I3872982626502034966
sb(imulti_robot_problem
MultiRobotState
p598
(dp599
g19
g20
((lp600
(I5
I9
tp601
a(I6
I9
tp602
a(I5
I7
tp603
a(I3
I2
tp604
ag597
a(I4
I10
tp605
a(I4
I8
tp606
a(I3
I11
tp607
a(I2
I1
tp608
a(I6
I2
tp609
a(I1
I4
tp610
a(I8
I7
tp611
a(I6
I8
tp612
a(I6
I7
tp613
a(I5
I8
tp614
a(I3
I5
tp615
a(I4
I9
tp616
a(I4
I6
tp617
a(I8
I1
tp618
a(I7
I1
tp619
a(I3
I8
tp620
a(I4
I3
tp621
a(I5
I2
tp622
a(I1
I1
tp623
atp624
Rp625
sg15
I10
sg28
g20
((lp626
(I5
I3
tp627
a(I3
I1
tp628
a(I8
I11
tp629
a(I9
I3
tp630
a(I0
I2
tp631
a(I6
I3
tp632
a(I3
I9
tp633
a(I2
I3
tp634
a(I9
I5
tp635
a(I7
I11
tp636
a(I0
I8
tp637
a(I3
I10
tp638
a(I7
I2
tp639
a(I9
I7
tp640
atp641
Rp642
sg13
((I1
I8
tp643
(I2
I9
tp644
(I1
I9
tp645
(I1
I5
tp646
(I6
I5
tp647
tp648
sg14
I12
sbs(iproblems
RoomID
p649
(dp650
g10
I10
sg11
(I6
I7
tp651
sg13
I6
sg14
I10
sg15
I13
sg16
I8999366892653588108
sb(imulti_robot_problem
MultiRobotState
p652
(dp653
g19
g20
((lp654
(I5
I4
tp655
ag651
a(I5
I5
tp656
a(I5
I6
tp657
a(I7
I6
tp658
a(I4
I2
tp659
a(I2
I3
tp660
a(I8
I6
tp661
a(I12
I1
tp662
a(I5
I3
tp663
a(I6
I5
tp664
a(I3
I3
tp665
atp666
Rp667
sg15
I13
sg28
g20
((lp668
(I6
I9
tp669
a(I7
I0
tp670
a(I5
I7
tp671
a(I12
I6
tp672
a(I2
I1
tp673
a(I0
I5
tp674
a(I10
I1
tp675
a(I0
I3
tp676
a(I7
I9
tp677
a(I3
I5
tp678
atp679
Rp680
sg13
((I12
I0
tp681
(I6
I1
tp682
(I2
I2
tp683
(I6
I4
tp684
(I4
I6
tp685
(I7
I1
tp686
tp687
sg14
I10
sbssg158
S'heavy_roomset'
p688
sbsg158
g160
sg161
(dp689
g457
((lp690
(F6.8299999999999272
I20
tp691
aF40.050000000000182
tp692
sg502
((lp693
(F19.9399999999996
I7
tp694
aF57.679999999999382
tp695
sg545
((lp696
F46.020000000000437
tp697
sg595
((lp698
F40.029999999999745
tp699
sg649
((lp700
(F18.110000000000582
I20
tp701
aF40.980000000000473
tp702
ssba(imeasure_core
ProblemSetSolution
p703
(dp704
g3
g4
sg158
S"AnytimeBeam-w20-gf(4, 'lin')_with_PowerHeuristic2"
p705
sg161
(dp706
g8
((lp707
(F0.13999999999941792
I42
tp708
a(F8.7099999999991269
I36
tp709
a(F11.709999999999127
I34
tp710
a(F16.679999999999382
I32
tp711
a(F17.589999999999236
I30
tp712
a(F18.639999999999418
I28
tp713
a(F37.469999999999345
I26
tp714
aF40.0
tp715
sg40
((lp716
(F1.0499999999992724
I5
tp717
aF40.329999999999927
tp718
sg73
((lp719
(F0.60999999999967258
I4
tp720
aF40.089999999999236
tp721
sg102
((lp722
(F1.4900000000006912
I66
tp723
a(F12.600000000000364
I65
tp724
a(F21.760000000000218
I64
tp725
a(F35.5600000000004
I63
tp726
aF40.0
tp727
sg129
((lp728
(F1.4200000000000728
I11
tp729
aF40.160000000000764
tp730
ssba(imeasure_core
ProblemSetSolution
p731
(dp732
g3
g188
sg158
g705
sg161
(dp733
g191
((lp734
(F17.589999999999236
I142
tp735
aF40.319999999999709
tp736
sg237
((lp737
F40.019999999999527
tp738
sg294
((lp739
(F0.18000000000029104
I11
tp740
aF40.039999999999964
tp741
sg343
((lp742
(F1.6200000000008004
I11
tp743
aF40.050000000000182
tp744
sg394
((lp745
(F2.2100000000000364
I65
tp746
aF40.039999999999964
tp747
ssba(imeasure_core
ProblemSetSolution
p748
(dp749
g3
g454
sg158
g705
sg161
(dp750
g457
((lp751
(F7.6099999999996726
I20
tp752
aF40.0600000000004
tp753
sg502
((lp754
(F21.599999999999454
I7
tp755
aF43.099999999999454
tp756
sg545
((lp757
F46.220000000000255
tp758
sg595
((lp759
F40.130000000000109
tp760
sg649
((lp761
(F20.389999999999418
I20
tp762
aF40.829999999999927
tp763
ssba(imeasure_core
ProblemSetSolution
p764
(dp765
g3
g4
sg158
S"AnytimeBeam-w20-gf(8, 'lin')_with_PowerHeuristic2"
p766
sg161
(dp767
g8
((lp768
(F0.13999999999941792
I42
tp769
a(F4.6499999999996362
I36
tp770
a(F6.5299999999997453
I34
tp771
a(F8.6300000000001091
I32
tp772
a(F9.5499999999992724
I30
tp773
a(F10.599999999999454
I28
tp774
a(F20.170000000000073
I26
tp775
aF40.0
tp776
sg40
((lp777
(F1.1700000000000728
I5
tp778
aF40.179999999999382
tp779
sg73
((lp780
(F0.71000000000003638
I4
tp781
aF40.180000000000291
tp782
sg102
((lp783
(F1.5399999999999636
I66
tp784
a(F12.920000000000073
I65
tp785
a(F22.390000000000327
I64
tp786
a(F36.4399999999996
I63
tp787
aF40.020000000000437
tp788
sg129
((lp789
(F1.4600000000000364
I11
tp790
aF40.239999999999782
tp791
ssba(imeasure_core
ProblemSetSolution
p792
(dp793
g3
g188
sg158
g766
sg161
(dp794
g191
((lp795
(F20.039999999999964
I142
tp796
aF40.260000000000218
tp797
sg237
((lp798
F40.019999999999527
tp799
sg294
((lp800
(F0.18000000000029104
I11
tp801
aF40.020000000000437
tp802
sg343
((lp803
(F1.6399999999994179
I11
tp804
aF40.489999999999782
tp805
sg394
((lp806
(F2.6999999999998181
I65
tp807
aF40.0
tp808
ssba(imeasure_core
ProblemSetSolution
p809
(dp810
g3
g454
sg158
g766
sg161
(dp811
g457
((lp812
(F8.4700000000002547
I20
tp813
aF40.4399999999996
tp814
sg502
((lp815
(F24.550000000000182
I7
tp816
aF40.329999999999927
tp817
sg545
((lp818
F46.510000000000218
tp819
sg595
((lp820
F40.020000000000437
tp821
sg649
((lp822
(F23.859999999999673
I20
tp823
aF40.239999999999782
tp824
ssba(imeasure_core
ProblemSetSolution
p825
(dp826
g3
g4
sg158
S"AnytimeBeam-w20-gf(16, 'lin')_with_PowerHeuristic2"
p827
sg161
(dp828
g8
((lp829
(F0.1499999999996362
I42
tp830
a(F2.5599999999994907
I36
tp831
a(F3.3099999999994907
I34
tp832
a(F4.4600000000000364
I32
tp833
a(F5.3800000000001091
I30
tp834
a(F6.4200000000000728
I28
tp835
a(F12.149999999999636
I26
tp836
aF40.0
tp837
sg40
((lp838
(F1.3699999999998909
I5
tp839
aF40.640000000000327
tp840
sg73
((lp841
(F0.81999999999970896
I4
tp842
aF40.099999999999454
tp843
sg102
((lp844
(F1.569999999999709
I66
tp845
a(F13.619999999999891
I65
tp846
a(F23.520000000000437
I64
tp847
a(F38.510000000000218
I63
tp848
aF40.0
tp849
sg129
((lp850
(F1.4499999999998181
I11
tp851
aF40.329999999999927
tp852
ssba(imeasure_core
ProblemSetSolution
p853
(dp854
g3
g188
sg158
g827
sg161
(dp855
g191
((lp856
(F19.860000000000582
I137
tp857
aF40.079999999999927
tp858
sg237
((lp859
F40.020000000000437
tp860
sg294
((lp861
(F0.17999999999938154
I11
tp862
aF40.019999999999527
tp863
sg343
((lp864
(F1.6400000000003274
I11
tp865
aF40.030000000000655
tp866
sg394
((lp867
(F2.7199999999993452
I65
tp868
aF40.049999999999272
tp869
ssba(imeasure_core
ProblemSetSolution
p870
(dp871
g3
g454
sg158
g827
sg161
(dp872
g457
((lp873
(F9.1400000000003274
I20
tp874
aF40.539999999999964
tp875
sg502
((lp876
(F28.130000000000109
I7
tp877
aF41.779999999999745
tp878
sg545
((lp879
F46.440000000000509
tp880
sg595
((lp881
F40.109999999999673
tp882
sg649
((lp883
(F28.170000000000073
I20
tp884
aF40.070000000000618
tp885
ssba(imeasure_core
ProblemSetSolution
p886
(dp887
g3
g4
sg158
S"AnytimeBeam-w20-gf(2, 'lin')_with_LinearHeuristic"
p888
sg161
(dp889
g8
((lp890
(F0.020000000000436557
I28
tp891
aF40.0
tp892
sg40
((lp893
F40.240000000000691
tp894
sg73
((lp895
(F1.3799999999991996
I10
tp896
aF40.059999999999491
tp897
sg102
((lp898
(F0.97000000000025466
I25
tp899
aF40.0
tp900
sg129
((lp901
(F4.9200000000000728
I27
tp902
aF40.050000000000182
tp903
ssba(imeasure_core
ProblemSetSolution
p904
(dp905
g3
g188
sg158
g888
sg161
(dp906
g191
((lp907
F40.069999999999709
tp908
sg237
((lp909
F40.070000000000618
tp910
sg294
((lp911
F40.109999999999673
tp912
sg343
((lp913
F40.260000000000218
tp914
sg394
((lp915
(F13.389999999999418
I226
tp916
aF40.139999999999418
tp917
ssba(imeasure_core
ProblemSetSolution
p918
(dp919
g3
g454
sg158
g888
sg161
(dp920
g457
((lp921
F40.140000000000327
tp922
sg502
((lp923
(F30.519999999999527
I7
tp924
aF40.479999999999563
tp925
sg545
((lp926
F40.930000000000291
tp927
sg595
((lp928
F40.25
tp929
sg649
((lp930
F40.069999999999709
tp931
ssba(imeasure_core
ProblemSetSolution
p932
(dp933
g3
g4
sg158
S"AnytimeBeam-w20-gf(4, 'lin')_with_LinearHeuristic"
p934
sg161
(dp935
g8
((lp936
(F0.010000000000218279
I28
tp937
aF40.0
tp938
sg40
((lp939
F40.170000000000073
tp940
sg73
((lp941
(F1.9700000000002547
I10
tp942
aF40.279999999999745
tp943
sg102
((lp944
(F1.0
I25
tp945
aF40.010000000000218
tp946
sg129
((lp947
(F5.3000000000001819
I27
tp948
aF40.1899999999996
tp949
ssba(imeasure_core
ProblemSetSolution
p950
(dp951
g3
g188
sg158
g934
sg161
(dp952
g191
((lp953
F40.020000000000437
tp954
sg237
((lp955
F40.049999999999272
tp956
sg294
((lp957
F40.020000000000437
tp958
sg343
((lp959
F40.149999999999636
tp960
sg394
((lp961
(F15.050000000001091
I226
tp962
aF40.200000000000728
tp963
ssba(imeasure_core
ProblemSetSolution
p964
(dp965
g3
g454
sg158
g934
sg161
(dp966
g457
((lp967
F40.389999999999418
tp968
sg502
((lp969
(F33.6200000000008
I7
tp970
aF44.260000000000218
tp971
sg545
((lp972
F41.440000000000509
tp973
sg595
((lp974
F40.119999999998981
tp975
sg649
((lp976
F40.380000000001019
tp977
ssba(imeasure_core
ProblemSetSolution
p978
(dp979
g3
g4
sg158
S"AnytimeBeam-w20-gf(8, 'lin')_with_LinearHeuristic"
p980
sg161
(dp981
g8
((lp982
(F0.020000000000436557
I28
tp983
aF40.0
tp984
sg40
((lp985
F40.210000000000946
tp986
sg73
((lp987
(F2.7399999999997817
I10
tp988
aF40.200000000000728
tp989
sg102
((lp990
(F1.0499999999992724
I25
tp991
a(F14.699999999998909
I24
tp992
a(F23.789999999999054
I23
tp993
a(F37.68999999999869
I22
tp994
aF40.009999999998399
tp995
sg129
((lp996
(F5.6300000000010186
I27
tp997
aF40.090000000000146
tp998
ssba(imeasure_core
ProblemSetSolution
p999
(dp1000
g3
g188
sg158
g980
sg161
(dp1001
g191
((lp1002
F40.0
tp1003
sg237
((lp1004
F40.079999999999927
tp1005
sg294
((lp1006
F40.040000000000873
tp1007
sg343
((lp1008
F40.359999999998763
tp1009
sg394
((lp1010
(F15.830000000001746
I226
tp1011
aF40.010000000000218
tp1012
ssba(imeasure_core
ProblemSetSolution
p1013
(dp1014
g3
g454
sg158
g980
sg161
(dp1015
g457
((lp1016
F40.020000000000437
tp1017
sg502
((lp1018
(F35.030000000000655
I7
tp1019
aF40.6299999999992
tp1020
sg545
((lp1021
F41.730000000001382
tp1022
sg595
((lp1023
F40.069999999999709
tp1024
sg649
((lp1025
F40.190000000000509
tp1026
ssba(imeasure_core
ProblemSetSolution
p1027
(dp1028
g3
g4
sg158
S"AnytimeBeam-w20-gf(16, 'lin')_with_LinearHeuristic"
p1029
sg161
(dp1030
g8
((lp1031
(F0.020000000000436557
I28
tp1032
aF40.0
tp1033
sg40
((lp1034
F40.380000000001019
tp1035
sg73
((lp1036
(F3.069999999999709
I10
tp1037
aF40.100000000000364
tp1038
sg102
((lp1039
(F1.0599999999994907
I25
tp1040
a(F15.559999999999491
I24
tp1041
a(F24.859999999998763
I23
tp1042
a(F39.340000000000146
I22
tp1043
aF40.0
tp1044
sg129
((lp1045
(F6.0100000000002183
I27
tp1046
aF40.1299999999992
tp1047
ssba(imeasure_core
ProblemSetSolution
p1048
(dp1049
g3
g188
sg158
g1029
sg161
(dp1050
g191
((lp1051
F40.010000000000218
tp1052
sg237
((lp1053
F40.049999999999272
tp1054
sg294
((lp1055
F40.010000000000218
tp1056
sg343
((lp1057
F40.460000000000946
tp1058
sg394
((lp1059
(F18.18999999999869
I226
tp1060
aF40.170000000000073
tp1061
ssba(imeasure_core
ProblemSetSolution
p1062
(dp1063
g3
g454
sg158
g1029
sg161
(dp1064
g457
((lp1065
F40.239999999999782
tp1066
sg502
((lp1067
(F39.510000000000218
I7
tp1068
aF43.459999999999127
tp1069
sg545
((lp1070
F42.460000000000946
tp1071
sg595
((lp1072
F40.190000000000509
tp1073
sg649
((lp1074
F40.269999999998618
tp1075
ssba.