(lp0
(imeasure_core
ProblemSetSolution
p1
(dp2
S'roomset'
p3
(imeasure_core
RoomSet
p4
(dp5
S'rooms'
p6
(dp7
(iproblems
RoomID
p8
(dp9
S'dusts'
p10
I10
sS'obstacles'
p11
(I0
I8
tp12
sS'robots'
p13
I4
sS'height'
p14
I10
sS'width'
p15
I9
sS'seed'
p16
I4712128852136459333
sb(imulti_robot_problem
MultiRobotState
p17
(dp18
S'obstacle_locations'
p19
c__builtin__
frozenset
p20
((lp21
(I0
I6
tp22
ag12
a(I2
I3
tp23
a(I1
I5
tp24
a(I8
I0
tp25
a(I1
I1
tp26
a(I0
I7
tp27
atp28
Rp29
sg15
I9
sS'dirt_locations'
p30
g20
((lp31
(I4
I7
tp32
a(I1
I3
tp33
a(I4
I9
tp34
a(I8
I1
tp35
a(I7
I6
tp36
a(I2
I6
tp37
a(I8
I7
tp38
a(I2
I2
tp39
a(I4
I1
tp40
a(I2
I4
tp41
atp42
Rp43
sg13
((I5
I8
tp44
(I6
I9
tp45
(I5
I0
tp46
(I3
I1
tp47
tp48
sg14
I10
sbs(iproblems
RoomID
p49
(dp50
g10
I9
sg11
(I3
I4
tp51
sg13
I1
sg14
I7
sg15
I8
sg16
I6613812840851947673
sb(imulti_robot_problem
MultiRobotState
p52
(dp53
g19
g20
((lp54
(I3
I5
tp55
ag51
a(I2
I4
tp56
a(I2
I1
tp57
a(I1
I4
tp58
atp59
Rp60
sg15
I8
sg30
g20
((lp61
(I6
I4
tp62
a(I5
I4
tp63
a(I6
I0
tp64
a(I7
I5
tp65
a(I1
I6
tp66
a(I2
I2
tp67
a(I0
I5
tp68
a(I4
I1
tp69
a(I4
I0
tp70
atp71
Rp72
sg13
((I3
I1
tp73
tp74
sg14
I7
sbs(iproblems
RoomID
p75
(dp76
g10
I10
sg11
(I4
I5
tp77
sg13
I1
sg14
I8
sg15
I8
sg16
I2893396244277848635
sb(imulti_robot_problem
MultiRobotState
p78
(dp79
g19
g20
((lp80
g77
a(I3
I7
tp81
a(I2
I6
tp82
a(I4
I6
tp83
atp84
Rp85
sg15
I8
sg30
g20
((lp86
(I6
I4
tp87
a(I0
I0
tp88
a(I6
I7
tp89
a(I3
I0
tp90
a(I2
I1
tp91
a(I0
I6
tp92
a(I7
I2
tp93
a(I2
I4
tp94
a(I6
I5
tp95
a(I5
I3
tp96
atp97
Rp98
sg13
((I2
I3
tp99
tp100
sg14
I8
sbs(iproblems
RoomID
p101
(dp102
g10
I9
sg11
(I5
I3
tp103
sg13
I3
sg14
I7
sg15
I8
sg16
I4594210616595436404
sb(imulti_robot_problem
MultiRobotState
p104
(dp105
g19
g20
((lp106
(I0
I1
tp107
a(I3
I3
tp108
a(I4
I3
tp109
a(I4
I2
tp110
a(I6
I1
tp111
ag103
atp112
Rp113
sg15
I8
sg30
g20
((lp114
(I6
I6
tp115
a(I5
I6
tp116
a(I4
I4
tp117
a(I1
I4
tp118
a(I0
I6
tp119
a(I5
I1
tp120
a(I1
I0
tp121
a(I0
I3
tp122
a(I1
I1
tp123
atp124
Rp125
sg13
((I2
I1
tp126
(I3
I4
tp127
(I3
I6
tp128
tp129
sg14
I7
sbs(iproblems
RoomID
p130
(dp131
g10
I10
sg11
(I4
I8
tp132
sg13
I4
sg14
I10
sg15
I7
sg16
I956523682424107605
sb(imulti_robot_problem
MultiRobotState
p133
(dp134
g19
g20
((lp135
(I2
I8
tp136
ag132
a(I3
I7
tp137
a(I2
I9
tp138
a(I4
I2
tp139
atp140
Rp141
sg15
I7
sg30
g20
((lp142
(I5
I9
tp143
a(I4
I7
tp144
a(I1
I3
tp145
a(I3
I3
tp146
a(I5
I5
tp147
a(I6
I1
tp148
a(I5
I4
tp149
a(I0
I4
tp150
a(I5
I2
tp151
a(I5
I3
tp152
atp153
Rp154
sg13
((I1
I9
tp155
(I4
I9
tp156
(I1
I8
tp157
(I0
I3
tp158
tp159
sg14
I10
sbssS'name'
p160
S'easy_roomset'
p161
sbsg160
S"AnytimeBeam-w20-gf(1.3, 'exp')_with_PowerHeuristic2"
p162
sS'solutions'
p163
(dp164
g8
((lp165
(F2.8699999999989814
I51
tp166
aF40.039999999997235
tp167
sg49
((lp168
(F0.090000000000145519
I36
tp169
a(F0.90999999999985448
I30
tp170
a(F1.6400000000030559
I29
tp171
a(F6.5100000000020373
I28
tp172
a(F12.820000000003347
I27
tp173
a(F24.980000000003201
I26
tp174
a(F35.380000000001019
I25
tp175
aF40.0
tp176
sg75
((lp177
(F0.36000000000058208
I61
tp178
a(F1.3500000000021828
I57
tp179
a(F2.2700000000004366
I56
tp180
a(F3.5
I54
tp181
a(F4.6400000000030559
I52
tp182
a(F6.6000000000021828
I51
tp183
a(F9.4900000000016007
I50
tp184
a(F12.370000000002619
I48
tp185
a(F15.390000000003056
I46
tp186
a(F18.5
I44
tp187
a(F27.220000000001164
I43
tp188
a(F35.420000000001892
I42
tp189
aF40.0
tp190
sg101
((lp191
(F7.4600000000027649
I26
tp192
aF40.100000000002183
tp193
sg130
((lp194
(F1.0499999999992724
I10
tp195
aF40.319999999999709
tp196
ssba(imeasure_core
ProblemSetSolution
p197
(dp198
g3
(imeasure_core
RoomSet
p199
(dp200
g6
(dp201
(iproblems
RoomID
p202
(dp203
g10
I10
sg11
(I8
I7
tp204
sg13
I4
sg14
I12
sg15
I11
sg16
I4712128852136459333
sb(imulti_robot_problem
MultiRobotState
p205
(dp206
g19
g20
((lp207
(I6
I4
tp208
a(I4
I7
tp209
ag204
a(I4
I5
tp210
a(I3
I11
tp211
a(I0
I7
tp212
a(I7
I7
tp213
a(I1
I6
tp214
a(I1
I9
tp215
a(I2
I10
tp216
a(I4
I2
tp217
a(I1
I11
tp218
a(I6
I5
tp219
a(I5
I3
tp220
a(I9
I0
tp221
a(I0
I8
tp222
a(I5
I5
tp223
a(I7
I6
tp224
a(I3
I1
tp225
a(I2
I11
tp226
a(I0
I9
tp227
a(I2
I3
tp228
a(I4
I1
tp229
a(I1
I1
tp230
atp231
Rp232
sg15
I11
sg30
g20
((lp233
(I2
I7
tp234
a(I9
I1
tp235
a(I9
I8
tp236
a(I5
I1
tp237
a(I2
I5
tp238
a(I9
I7
tp239
a(I3
I4
tp240
a(I2
I4
tp241
a(I5
I8
tp242
a(I3
I3
tp243
atp244
Rp245
sg13
((I6
I10
tp246
(I8
I10
tp247
(I7
I0
tp248
(I5
I11
tp249
tp250
sg14
I12
sbs(iproblems
RoomID
p251
(dp252
g10
I9
sg11
(I4
I4
tp253
sg13
I3
sg14
I9
sg15
I10
sg16
I4594210616595436404
sb(imulti_robot_problem
MultiRobotState
p254
(dp255
g19
g20
((lp256
(I1
I3
tp257
a(I3
I0
tp258
a(I2
I1
tp259
a(I1
I6
tp260
a(I9
I4
tp261
a(I3
I7
tp262
a(I0
I3
tp263
a(I1
I2
tp264
a(I5
I5
tp265
a(I1
I5
tp266
a(I7
I6
tp267
ag253
a(I6
I3
tp268
a(I5
I6
tp269
a(I3
I6
tp270
a(I0
I4
tp271
a(I8
I6
tp272
a(I3
I5
tp273
a(I1
I1
tp274
a(I5
I4
tp275
a(I4
I5
tp276
a(I0
I5
tp277
a(I5
I3
tp278
a(I0
I1
tp279
a(I5
I2
tp280
a(I0
I6
tp281
a(I2
I0
tp282
a(I1
I8
tp283
a(I2
I3
tp284
a(I9
I5
tp285
a(I3
I4
tp286
a(I0
I2
tp287
atp288
Rp289
sg15
I10
sg30
g20
((lp290
(I7
I8
tp291
a(I7
I0
tp292
a(I6
I8
tp293
a(I2
I8
tp294
a(I8
I8
tp295
a(I0
I8
tp296
a(I8
I5
tp297
a(I5
I8
tp298
a(I8
I2
tp299
atp300
Rp301
sg13
((I4
I6
tp302
(I2
I5
tp303
(I6
I1
tp304
tp305
sg14
I9
sbs(iproblems
RoomID
p306
(dp307
g10
I8
sg11
(I5
I0
tp308
sg13
I4
sg14
I9
sg15
I9
sg16
I6858376947525423350
sb(imulti_robot_problem
MultiRobotState
p309
(dp310
g19
g20
((lp311
(I6
I4
tp312
a(I4
I7
tp313
a(I1
I3
tp314
a(I4
I3
tp315
a(I7
I1
tp316
a(I3
I0
tp317
a(I2
I8
tp318
a(I6
I0
tp319
a(I2
I1
tp320
a(I1
I6
tp321
a(I5
I1
tp322
a(I2
I5
tp323
a(I0
I8
tp324
a(I7
I2
tp325
a(I2
I7
tp326
a(I3
I8
tp327
a(I5
I5
tp328
a(I6
I1
tp329
a(I5
I7
tp330
a(I6
I3
tp331
a(I1
I8
tp332
ag308
a(I2
I2
tp333
a(I2
I3
tp334
a(I3
I4
tp335
a(I2
I4
tp336
atp337
Rp338
sg15
I9
sg30
g20
((lp339
(I8
I3
tp340
a(I7
I0
tp341
a(I4
I6
tp342
a(I6
I6
tp343
a(I7
I5
tp344
a(I8
I0
tp345
a(I8
I8
tp346
a(I8
I4
tp347
atp348
Rp349
sg13
((I1
I1
tp350
(I6
I5
tp351
(I8
I2
tp352
(I1
I5
tp353
tp354
sg14
I9
sbs(iproblems
RoomID
p355
(dp356
g10
I6
sg11
(I8
I8
tp357
sg13
I4
sg14
I11
sg15
I12
sg16
I7529058068588108450
sb(imulti_robot_problem
MultiRobotState
p358
(dp359
g19
g20
((lp360
(I5
I9
tp361
a(I6
I9
tp362
a(I2
I6
tp363
a(I3
I2
tp364
a(I9
I1
tp365
a(I4
I10
tp366
a(I6
I6
tp367
a(I7
I7
tp368
a(I7
I1
tp369
a(I4
I6
tp370
a(I10
I4
tp371
a(I7
I5
tp372
a(I6
I8
tp373
a(I3
I7
tp374
a(I5
I8
tp375
a(I8
I2
tp376
a(I5
I5
tp377
a(I7
I6
tp378
a(I4
I4
tp379
a(I7
I4
tp380
a(I1
I5
tp381
ag357
a(I7
I2
tp382
a(I3
I6
tp383
a(I2
I2
tp384
a(I1
I10
tp385
a(I7
I8
tp386
a(I3
I10
tp387
atp388
Rp389
sg15
I12
sg30
g20
((lp390
(I7
I3
tp391
a(I0
I5
tp392
a(I4
I0
tp393
a(I11
I3
tp394
a(I11
I6
tp395
a(I6
I0
tp396
atp397
Rp398
sg13
((I11
I7
tp399
(I6
I2
tp400
(I11
I5
tp401
(I6
I7
tp402
tp403
sg14
I11
sbs(iproblems
RoomID
p404
(dp405
g10
I5
sg11
(I4
I9
tp406
sg13
I4
sg14
I11
sg15
I11
sg16
I1881095652490078568
sb(imulti_robot_problem
MultiRobotState
p407
(dp408
g19
g20
((lp409
(I6
I9
tp410
a(I6
I6
tp411
a(I4
I5
tp412
a(I2
I8
tp413
a(I9
I3
tp414
a(I4
I7
tp415
a(I7
I5
tp416
a(I5
I4
tp417
ag406
a(I6
I5
tp418
a(I3
I5
tp419
a(I7
I4
tp420
a(I1
I7
tp421
a(I6
I7
tp422
a(I4
I6
tp423
a(I7
I6
tp424
a(I4
I4
tp425
a(I8
I10
tp426
a(I6
I3
tp427
a(I7
I10
tp428
a(I2
I2
tp429
a(I4
I8
tp430
a(I7
I8
tp431
a(I1
I1
tp432
a(I8
I4
tp433
atp434
Rp435
sg15
I11
sg30
g20
((lp436
(I1
I10
tp437
a(I5
I9
tp438
a(I0
I0
tp439
a(I10
I2
tp440
a(I9
I7
tp441
atp442
Rp443
sg13
((I5
I7
tp444
(I8
I1
tp445
(I3
I1
tp446
(I8
I8
tp447
tp448
sg14
I11
sbssg160
S'mild_roomset'
p449
sbsg160
g162
sg163
(dp450
g202
((lp451
(F3.8600000000005821
I23
tp452
aF40.180000000000291
tp453
sg251
((lp454
F40.149999999997817
tp455
sg306
((lp456
(F0.77000000000043656
I16
tp457
aF40.010000000002037
tp458
sg355
((lp459
(F2.9399999999986903
I33
tp460
aF40.159999999999854
tp461
sg404
((lp462
(F0.5499999999992724
I7
tp463
aF40.180000000000291
tp464
ssba(imeasure_core
ProblemSetSolution
p465
(dp466
g3
(imeasure_core
RoomSet
p467
(dp468
g6
(dp469
(iproblems
RoomID
p470
(dp471
g10
I15
sg11
(I5
I9
tp472
sg13
I7
sg14
I13
sg15
I12
sg16
I4712128852136459333
sb(imulti_robot_problem
MultiRobotState
p473
(dp474
g19
g20
((lp475
g472
a(I4
I9
tp476
a(I5
I5
tp477
a(I4
I12
tp478
a(I2
I8
tp479
a(I3
I1
tp480
a(I3
I9
tp481
a(I9
I4
tp482
a(I1
I7
tp483
a(I1
I10
tp484
a(I3
I12
tp485
a(I0
I8
tp486
a(I5
I2
tp487
atp488
Rp489
sg15
I12
sg30
g20
((lp490
(I6
I9
tp491
a(I3
I3
tp492
a(I1
I12
tp493
a(I5
I6
tp494
a(I7
I7
tp495
a(I3
I5
tp496
a(I3
I8
tp497
a(I8
I8
tp498
a(I10
I0
tp499
a(I2
I5
tp500
a(I10
I2
tp501
a(I3
I4
tp502
a(I1
I1
tp503
a(I5
I8
tp504
a(I9
I7
tp505
atp506
Rp507
sg13
((I6
I11
tp508
(I8
I11
tp509
(I7
I0
tp510
(I4
I1
tp511
(I6
I12
tp512
(I10
I9
tp513
(I6
I1
tp514
tp515
sg14
I13
sbs(iproblems
RoomID
p516
(dp517
g10
I14
sg11
(I5
I5
tp518
sg13
I5
sg14
I10
sg15
I11
sg16
I6613812840851947673
sb(imulti_robot_problem
MultiRobotState
p519
(dp520
g19
g20
((lp521
(I4
I7
tp522
a(I2
I6
tp523
a(I6
I6
tp524
a(I4
I5
tp525
a(I7
I5
tp526
a(I1
I6
tp527
a(I8
I7
tp528
a(I3
I7
tp529
a(I10
I3
tp530
a(I3
I5
tp531
a(I10
I8
tp532
a(I6
I3
tp533
ag518
a(I8
I5
tp534
a(I7
I4
tp535
a(I3
I8
tp536
a(I0
I6
tp537
a(I3
I6
tp538
a(I1
I3
tp539
a(I8
I6
tp540
a(I2
I4
tp541
atp542
Rp543
sg15
I11
sg30
g20
((lp544
(I6
I4
tp545
a(I3
I2
tp546
a(I4
I6
tp547
a(I4
I9
tp548
a(I3
I3
tp549
a(I9
I8
tp550
a(I8
I0
tp551
a(I8
I8
tp552
a(I5
I0
tp553
a(I1
I0
tp554
a(I8
I4
tp555
a(I5
I2
tp556
a(I6
I1
tp557
a(I9
I7
tp558
atp559
Rp560
sg13
((I5
I1
tp561
(I0
I8
tp562
(I2
I9
tp563
(I4
I1
tp564
(I7
I6
tp565
tp566
sg14
I10
sbs(iproblems
RoomID
p567
(dp568
g10
I15
sg11
(I4
I8
tp569
sg13
I6
sg14
I13
sg15
I10
sg16
I956523682424107605
sb(imulti_robot_problem
MultiRobotState
p570
(dp571
g19
g20
((lp572
(I5
I9
tp573
a(I6
I9
tp574
a(I7
I10
tp575
ag569
a(I5
I6
tp576
a(I3
I11
tp577
a(I9
I4
tp578
a(I4
I9
tp579
a(I5
I8
tp580
a(I2
I7
tp581
a(I5
I10
tp582
a(I5
I5
tp583
a(I3
I10
tp584
a(I5
I7
tp585
a(I9
I9
tp586
a(I5
I0
tp587
a(I7
I8
tp588
a(I1
I1
tp589
atp590
Rp591
sg15
I10
sg30
g20
((lp592
(I6
I10
tp593
a(I8
I3
tp594
a(I1
I3
tp595
a(I6
I6
tp596
a(I7
I6
tp597
a(I8
I12
tp598
a(I5
I4
tp599
a(I1
I4
tp600
a(I2
I10
tp601
a(I7
I4
tp602
a(I1
I5
tp603
a(I7
I5
tp604
a(I0
I9
tp605
a(I7
I11
tp606
a(I6
I2
tp607
atp608
Rp609
sg13
((I1
I12
tp610
(I6
I12
tp611
(I2
I11
tp612
(I0
I4
tp613
(I9
I1
tp614
(I7
I7
tp615
tp616
sg14
I13
sbs(iproblems
RoomID
p617
(dp618
g10
I15
sg11
(I6
I6
tp619
sg13
I5
sg14
I11
sg15
I11
sg16
I2893396244277848635
sb(imulti_robot_problem
MultiRobotState
p620
(dp621
g19
g20
((lp622
(I7
I3
tp623
a(I4
I7
tp624
a(I5
I5
tp625
a(I4
I8
tp626
a(I5
I6
tp627
a(I2
I8
tp628
ag619
a(I3
I2
tp629
a(I3
I9
tp630
a(I4
I3
tp631
a(I1
I7
tp632
a(I6
I9
tp633
atp634
Rp635
sg15
I11
sg30
g20
((lp636
(I2
I6
tp637
a(I8
I7
tp638
a(I3
I10
tp639
a(I3
I1
tp640
a(I2
I10
tp641
a(I0
I5
tp642
a(I6
I5
tp643
a(I3
I6
tp644
a(I8
I6
tp645
a(I4
I0
tp646
a(I3
I7
tp647
a(I7
I9
tp648
a(I4
I1
tp649
a(I5
I8
tp650
a(I5
I3
tp651
atp652
Rp653
sg13
((I4
I5
tp654
(I0
I9
tp655
(I0
I1
tp656
(I9
I2
tp657
(I8
I10
tp658
tp659
sg14
I11
sbs(iproblems
RoomID
p660
(dp661
g10
I13
sg11
(I1
I6
tp662
sg13
I7
sg14
I10
sg15
I10
sg16
I6858376947525423350
sb(imulti_robot_problem
MultiRobotState
p663
(dp664
g19
g20
((lp665
(I4
I7
tp666
a(I1
I3
tp667
a(I2
I8
tp668
a(I2
I2
tp669
a(I2
I1
tp670
a(I2
I3
tp671
a(I9
I5
tp672
a(I2
I5
tp673
a(I2
I7
tp674
a(I2
I9
tp675
a(I8
I1
tp676
ag662
a(I1
I7
tp677
a(I0
I9
tp678
a(I8
I6
tp679
a(I2
I4
tp680
atp681
Rp682
sg15
I10
sg30
g20
((lp683
(I8
I0
tp684
a(I4
I9
tp685
a(I3
I3
tp686
a(I3
I0
tp687
a(I7
I6
tp688
a(I5
I7
tp689
a(I9
I9
tp690
a(I4
I4
tp691
a(I6
I2
tp692
a(I9
I4
tp693
a(I8
I5
tp694
a(I5
I8
tp695
a(I5
I3
tp696
atp697
Rp698
sg13
((I1
I2
tp699
(I7
I5
tp700
(I7
I2
tp701
(I9
I2
tp702
(I1
I5
tp703
(I9
I0
tp704
(I6
I6
tp705
tp706
sg14
I10
sbssg160
S'heavy_roomset'
p707
sbsg160
g162
sg163
(dp708
g470
((lp709
F40.239999999997963
tp710
sg516
((lp711
F40.700000000000728
tp712
sg567
((lp713
F40.490000000001601
tp714
sg617
((lp715
(F30.639999999999418
I27
tp716
aF40.959999999999127
tp717
sg660
((lp718
F41.650000000001455
tp719
ssba(imeasure_core
ProblemSetSolution
p720
(dp721
g3
g4
sg160
S"AnytimeBeam-w20-gf(1.5, 'exp')_with_PowerHeuristic2"
p722
sg163
(dp723
g8
((lp724
(F2.8799999999973807
I51
tp725
aF40.0
tp726
sg49
((lp727
(F0.090000000000145519
I36
tp728
a(F0.89999999999781721
I30
tp729
a(F1.6299999999973807
I29
tp730
a(F6.4799999999995634
I28
tp731
a(F12.759999999998399
I27
tp732
a(F24.909999999999854
I26
tp733
a(F35.279999999998836
I25
tp734
aF40.0
tp735
sg75
((lp736
(F0.34999999999854481
I61
tp737
a(F1.3400000000001455
I57
tp738
a(F2.2599999999983993
I56
tp739
a(F3.4899999999979627
I54
tp740
a(F4.6399999999994179
I52
tp741
a(F6.5999999999985448
I51
tp742
a(F9.4799999999995634
I50
tp743
a(F12.340000000000146
I48
tp744
a(F15.329999999998108
I46
tp745
a(F18.419999999998254
I44
tp746
a(F27.159999999999854
I43
tp747
a(F35.319999999999709
I42
tp748
aF40.0
tp749
sg101
((lp750
(F7.4399999999986903
I26
tp751
aF40.079999999998108
tp752
sg130
((lp753
(F1.0499999999992724
I10
tp754
aF40.229999999999563
tp755
ssba(imeasure_core
ProblemSetSolution
p756
(dp757
g3
g199
sg160
g722
sg163
(dp758
g202
((lp759
(F3.8600000000005821
I23
tp760
aF40.19999999999709
tp761
sg251
((lp762
F40.270000000000437
tp763
sg306
((lp764
(F0.76000000000203727
I16
tp765
aF40.090000000000146
tp766
sg355
((lp767
(F2.9400000000023283
I33
tp768
aF40.06000000000131
tp769
sg404
((lp770
(F0.5499999999992724
I7
tp771
aF40.020000000000437
tp772
ssba(imeasure_core
ProblemSetSolution
p773
(dp774
g3
g467
sg160
g722
sg163
(dp775
g470
((lp776
F59.700000000000728
tp777
sg516
((lp778
F40.709999999999127
tp779
sg567
((lp780
F40.659999999999854
tp781
sg617
((lp782
(F30.640000000003056
I27
tp783
aF40.909999999999854
tp784
sg660
((lp785
F41.690000000002328
tp786
ssba(imeasure_core
ProblemSetSolution
p787
(dp788
g3
g4
sg160
S"AnytimeBeam-w20-gf(1.7, 'exp')_with_PowerHeuristic2"
p789
sg163
(dp790
g8
((lp791
(F2.8799999999973807
I51
tp792
aF40.069999999999709
tp793
sg49
((lp794
(F0.090000000000145519
I36
tp795
a(F0.90999999999985448
I30
tp796
a(F1.6399999999994179
I29
tp797
a(F6.5099999999983993
I28
tp798
a(F12.799999999999272
I27
tp799
a(F25.029999999998836
I26
tp800
a(F35.419999999998254
I25
tp801
aF40.0
tp802
sg75
((lp803
(F0.34999999999854481
I61
tp804
a(F1.3299999999981083
I57
tp805
a(F2.2399999999979627
I56
tp806
a(F3.4500000000007276
I54
tp807
a(F4.5799999999981083
I52
tp808
a(F6.5400000000008731
I51
tp809
a(F9.4399999999986903
I50
tp810
a(F12.319999999999709
I48
tp811
a(F15.329999999998108
I46
tp812
a(F18.430000000000291
I44
tp813
a(F27.18999999999869
I43
tp814
a(F35.399999999997817
I42
tp815
aF40.0
tp816
sg101
((lp817
(F7.430000000000291
I26
tp818
aF40.099999999998545
tp819
sg130
((lp820
(F1.0499999999992724
I10
tp821
aF40.080000000001746
tp822
ssba(imeasure_core
ProblemSetSolution
p823
(dp824
g3
g199
sg160
g789
sg163
(dp825
g202
((lp826
(F3.8400000000001455
I23
tp827
aF40.239999999997963
tp828
sg251
((lp829
F40.069999999999709
tp830
sg306
((lp831
(F0.77000000000043656
I16
tp832
aF40.020000000000437
tp833
sg355
((lp834
(F2.930000000000291
I33
tp835
aF40.049999999999272
tp836
sg404
((lp837
(F0.55000000000291038
I7
tp838
aF40.170000000001892
tp839
ssba(imeasure_core
ProblemSetSolution
p840
(dp841
g3
g467
sg160
g789
sg163
(dp842
g470
((lp843
F40.340000000000146
tp844
sg516
((lp845
F40.169999999998254
tp846
sg567
((lp847
F40.569999999999709
tp848
sg617
((lp849
(F30.740000000001601
I27
tp850
aF40.990000000001601
tp851
sg660
((lp852
F41.650000000001455
tp853
ssba(imeasure_core
ProblemSetSolution
p854
(dp855
g3
g4
sg160
S"AnytimeBeam-w20-gf(1.8999999999999999, 'exp')_with_PowerHeuristic2"
p856
sg163
(dp857
g8
((lp858
(F2.9099999999998545
I51
tp859
aF40.020000000000437
tp860
sg49
((lp861
(F0.090000000000145519
I36
tp862
a(F0.90000000000145519
I30
tp863
a(F1.6199999999989814
I29
tp864
a(F6.4799999999995634
I28
tp865
a(F12.759999999998399
I27
tp866
a(F24.909999999999854
I26
tp867
a(F35.270000000000437
I25
tp868
aF40.0
tp869
sg75
((lp870
(F0.34999999999854481
I61
tp871
a(F1.3299999999981083
I57
tp872
a(F2.25
I56
tp873
a(F3.4599999999991269
I54
tp874
a(F4.5799999999981083
I52
tp875
a(F6.5400000000008731
I51
tp876
a(F9.4099999999998545
I50
tp877
a(F12.259999999998399
I48
tp878
a(F15.25
I46
tp879
a(F18.340000000000146
I44
tp880
a(F27.040000000000873
I43
tp881
a(F35.240000000001601
I42
tp882
aF40.0
tp883
sg101
((lp884
(F7.4199999999982538
I26
tp885
aF40.029999999998836
tp886
sg130
((lp887
(F1.0499999999992724
I10
tp888
aF40.110000000000582
tp889
ssba(imeasure_core
ProblemSetSolution
p890
(dp891
g3
g199
sg160
g856
sg163
(dp892
g202
((lp893
(F3.8499999999985448
I23
tp894
aF40.219999999997526
tp895
sg251
((lp896
F40.470000000001164
tp897
sg306
((lp898
(F0.75999999999839929
I16
tp899
aF40.119999999998981
tp900
sg355
((lp901
(F2.9099999999998545
I33
tp902
aF40.5
tp903
sg404
((lp904
(F0.5499999999992724
I7
tp905
aF40.130000000001019
tp906
ssba(imeasure_core
ProblemSetSolution
p907
(dp908
g3
g467
sg160
g856
sg163
(dp909
g470
((lp910
F40.450000000000728
tp911
sg516
((lp912
F40.5
tp913
sg567
((lp914
F40.549999999999272
tp915
sg617
((lp916
(F30.599999999998545
I27
tp917
aF40.829999999998108
tp918
sg660
((lp919
F41.600000000002183
tp920
ssba(imeasure_core
ProblemSetSolution
p921
(dp922
g3
g4
sg160
S"AnytimeBeam-w20-gf(1.3, 'exp')_with_LinearHeuristic"
p923
sg163
(dp924
g8
((lp925
F40.159999999999854
tp926
sg49
((lp927
(F0.020000000000436557
I25
tp928
aF40.0
tp929
sg75
((lp930
(F0.030000000002473826
I32
tp931
a(F0.63999999999941792
I30
tp932
aF40.010000000002037
tp933
sg101
((lp934
(F0.34000000000014552
I8
tp935
aF40.0
tp936
sg130
((lp937
F40.729999999999563
tp938
ssba(imeasure_core
ProblemSetSolution
p939
(dp940
g3
g199
sg160
g923
sg163
(dp941
g202
((lp942
F40.329999999998108
tp943
sg251
((lp944
(F30.760000000002037
I14
tp945
aF40.010000000002037
tp946
sg306
((lp947
F40.009999999998399
tp948
sg355
((lp949
F40.010000000002037
tp950
sg404
((lp951
(F1.1299999999973807
I7
tp952
aF40.039999999997235
tp953
ssba(imeasure_core
ProblemSetSolution
p954
(dp955
g3
g467
sg160
g923
sg163
(dp956
g470
((lp957
F60.870000000002619
tp958
sg516
((lp959
F43.229999999999563
tp960
sg567
((lp961
F48.209999999999127
tp962
sg617
((lp963
F41.959999999999127
tp964
sg660
((lp965
F62.5
tp966
ssba(imeasure_core
ProblemSetSolution
p967
(dp968
g3
g4
sg160
S"AnytimeBeam-w20-gf(1.5, 'exp')_with_LinearHeuristic"
p969
sg163
(dp970
g8
((lp971
F40.040000000000873
tp972
sg49
((lp973
(F0.020000000000436557
I25
tp974
aF40.0
tp975
sg75
((lp976
(F0.029999999998835847
I32
tp977
a(F0.63999999999941792
I30
tp978
aF40.010000000002037
tp979
sg101
((lp980
(F0.34000000000014552
I8
tp981
aF40.079999999998108
tp982
sg130
((lp983
F40.25
tp984
ssba(imeasure_core
ProblemSetSolution
p985
(dp986
g3
g199
sg160
g969
sg163
(dp987
g202
((lp988
F40.119999999998981
tp989
sg251
((lp990
(F30.970000000001164
I14
tp991
aF40.020000000000437
tp992
sg306
((lp993
F40.440000000002328
tp994
sg355
((lp995
F40.539999999997235
tp996
sg404
((lp997
(F1.1400000000030559
I7
tp998
aF40.280000000002474
tp999
ssba(imeasure_core
ProblemSetSolution
p1000
(dp1001
g3
g467
sg160
g969
sg163
(dp1002
g470
((lp1003
F40.260000000002037
tp1004
sg516
((lp1005
F40.340000000000146
tp1006
sg567
((lp1007
F49.179999999996653
tp1008
sg617
((lp1009
F41.740000000001601
tp1010
sg660
((lp1011
F62.389999999999418
tp1012
ssba(imeasure_core
ProblemSetSolution
p1013
(dp1014
g3
g4
sg160
S"AnytimeBeam-w20-gf(1.7, 'exp')_with_LinearHeuristic"
p1015
sg163
(dp1016
g8
((lp1017
F40.220000000001164
tp1018
sg49
((lp1019
(F0.020000000000436557
I25
tp1020
aF40.0
tp1021
sg75
((lp1022
(F0.029999999998835847
I32
tp1023
a(F0.63999999999941792
I30
tp1024
aF40.009999999998399
tp1025
sg101
((lp1026
(F0.34000000000014552
I8
tp1027
aF40.069999999999709
tp1028
sg130
((lp1029
F40.700000000000728
tp1030
ssba(imeasure_core
ProblemSetSolution
p1031
(dp1032
g3
g199
sg160
g1015
sg163
(dp1033
g202
((lp1034
F40.529999999998836
tp1035
sg251
((lp1036
(F30.430000000000291
I14
tp1037
aF40.040000000000873
tp1038
sg306
((lp1039
F40.469999999997526
tp1040
sg355
((lp1041
F40.319999999999709
tp1042
sg404
((lp1043
(F1.1400000000030559
I7
tp1044
aF40.110000000000582
tp1045
ssba(imeasure_core
ProblemSetSolution
p1046
(dp1047
g3
g467
sg160
g1015
sg163
(dp1048
g470
((lp1049
F40.200000000000728
tp1050
sg516
((lp1051
F43.510000000002037
tp1052
sg567
((lp1053
F49.0
tp1054
sg617
((lp1055
F41.709999999999127
tp1056
sg660
((lp1057
F62.360000000000582
tp1058
ssba(imeasure_core
ProblemSetSolution
p1059
(dp1060
g3
g4
sg160
S"AnytimeBeam-w20-gf(1.8999999999999999, 'exp')_with_LinearHeuristic"
p1061
sg163
(dp1062
g8
((lp1063
F40.049999999999272
tp1064
sg49
((lp1065
(F0.020000000000436557
I25
tp1066
aF40.0
tp1067
sg75
((lp1068
(F0.030000000002473826
I32
tp1069
a(F0.63999999999941792
I30
tp1070
aF40.010000000002037
tp1071
sg101
((lp1072
(F0.34000000000014552
I8
tp1073
aF40.049999999999272
tp1074
sg130
((lp1075
F40.270000000000437
tp1076
ssba(imeasure_core
ProblemSetSolution
p1077
(dp1078
g3
g199
sg160
g1061
sg163
(dp1079
g202
((lp1080
F40.329999999998108
tp1081
sg251
((lp1082
(F30.31000000000131
I14
tp1083
aF40.049999999999272
tp1084
sg306
((lp1085
F40.040000000000873
tp1086
sg355
((lp1087
F40.080000000001746
tp1088
sg404
((lp1089
(F1.1499999999978172
I7
tp1090
aF40.579999999998108
tp1091
ssba(imeasure_core
ProblemSetSolution
p1092
(dp1093
g3
g467
sg160
g1061
sg163
(dp1094
g470
((lp1095
F40.069999999999709
tp1096
sg516
((lp1097
F43.479999999999563
tp1098
sg567
((lp1099
F49.080000000001746
tp1100
sg617
((lp1101
F41.619999999998981
tp1102
sg660
((lp1103
F62.450000000000728
tp1104
ssba.