(lp0
(imeasure_core
ProblemSetSolution
p1
(dp2
S'roomset'
p3
(imeasure_core
RoomSet
p4
(dp5
S'rooms'
p6
(dp7
(iproblems
RoomID
p8
(dp9
S'dusts'
p10
I6
sS'obstacles'
p11
(I0
I4
tp12
sS'robots'
p13
I1
sS'height'
p14
I9
sS'width'
p15
I9
sS'seed'
p16
I1164115433906158532
sb(imulti_robot_problem
MultiRobotState
p17
(dp18
S'obstacle_locations'
p19
c__builtin__
frozenset
p20
((lp21
(I0
I1
tp22
a(I1
I2
tp23
a(I1
I3
tp24
a(I1
I4
tp25
ag12
atp26
Rp27
sg15
I9
sS'dirt_locations'
p28
g20
((lp29
(I6
I4
tp30
a(I1
I8
tp31
a(I1
I6
tp32
a(I1
I0
tp33
a(I8
I5
tp34
a(I3
I5
tp35
atp36
Rp37
sg13
((I4
I5
tp38
tp39
sg14
I9
sbs(iproblems
RoomID
p40
(dp41
g10
I8
sg11
(I6
I5
tp42
sg13
I5
sg14
I8
sg15
I7
sg16
I2175216119781798972
sb(imulti_robot_problem
MultiRobotState
p43
(dp44
g19
g20
((lp45
(I1
I2
tp46
a(I2
I6
tp47
a(I6
I7
tp48
a(I6
I6
tp49
a(I5
I7
tp50
a(I2
I3
tp51
a(I0
I4
tp52
a(I1
I0
tp53
ag42
atp54
Rp55
sg15
I7
sg28
g20
((lp56
(I5
I4
tp57
a(I5
I5
tp58
a(I4
I4
tp59
a(I0
I6
tp60
a(I0
I5
tp61
a(I1
I7
tp62
a(I4
I2
tp63
a(I0
I2
tp64
atp65
Rp66
sg13
((I1
I3
tp67
(I6
I4
tp68
(I3
I7
tp69
(I6
I0
tp70
(I2
I1
tp71
tp72
sg14
I8
sbs(iproblems
RoomID
p73
(dp74
g10
I9
sg11
(I2
I2
tp75
sg13
I2
sg14
I9
sg15
I7
sg16
I3872982626502034966
sb(imulti_robot_problem
MultiRobotState
p76
(dp77
g19
g20
((lp78
(I4
I1
tp79
a(I2
I6
tp80
a(I3
I1
tp81
a(I5
I0
tp82
ag75
atp83
Rp84
sg15
I7
sg28
g20
((lp85
(I4
I7
tp86
a(I2
I8
tp87
a(I4
I4
tp88
a(I3
I2
tp89
a(I2
I1
tp90
a(I1
I4
tp91
a(I4
I2
tp92
a(I0
I3
tp93
a(I5
I8
tp94
atp95
Rp96
sg13
((I1
I6
tp97
(I1
I7
tp98
tp99
sg14
I9
sbs(iproblems
RoomID
p100
(dp101
g10
I5
sg11
(I0
I4
tp102
sg13
I5
sg14
I7
sg15
I7
sg16
I8711387064946514083
sb(imulti_robot_problem
MultiRobotState
p103
(dp104
g19
g20
((lp105
(I0
I1
tp106
a(I2
I2
tp107
a(I0
I2
tp108
a(I1
I5
tp109
ag102
a(I0
I3
tp110
a(I2
I4
tp111
a(I6
I5
tp112
atp113
Rp114
sg15
I7
sg28
g20
((lp115
(I5
I6
tp116
a(I6
I4
tp117
a(I3
I2
tp118
a(I6
I1
tp119
a(I6
I6
tp120
atp121
Rp122
sg13
((I1
I1
tp123
(I6
I0
tp124
(I5
I0
tp125
(I1
I3
tp126
(I4
I5
tp127
tp128
sg14
I7
sbs(iproblems
RoomID
p129
(dp130
g10
I9
sg11
(I6
I3
tp131
sg13
I4
sg14
I9
sg15
I10
sg16
I7002664860023442459
sb(imulti_robot_problem
MultiRobotState
p132
(dp133
g19
g20
((lp134
(I7
I4
tp135
a(I7
I3
tp136
ag131
a(I6
I5
tp137
a(I9
I7
tp138
atp139
Rp140
sg15
I10
sg28
g20
((lp141
(I0
I0
tp142
a(I6
I8
tp143
a(I2
I8
tp144
a(I5
I7
tp145
a(I2
I6
tp146
a(I4
I2
tp147
a(I5
I1
tp148
a(I8
I6
tp149
a(I8
I4
tp150
atp151
Rp152
sg13
((I7
I5
tp153
(I7
I6
tp154
(I1
I7
tp155
(I1
I6
tp156
tp157
sg14
I9
sbssS'name'
p158
S'easy_roomset'
p159
sbsg158
S'AnytimeBest-d10_with_PowerHeuristic2'
p160
sS'solutions'
p161
(dp162
g8
((lp163
F0.42000000000007276
tp164
sg40
((lp165
(F0.5
I5
tp166
aF40.050000000000182
tp167
sg73
((lp168
F40.039999999999964
tp169
sg100
((lp170
(F0.1999999999998181
I4
tp171
aF40.010000000000218
tp172
sg129
((lp173
F40.039999999999964
tp174
ssba(imeasure_core
ProblemSetSolution
p175
(dp176
g3
(imeasure_core
RoomSet
p177
(dp178
g6
(dp179
(iproblems
RoomID
p180
(dp181
g10
I6
sg11
(I5
I5
tp182
sg13
I3
sg14
I11
sg15
I11
sg16
I1164115433906158532
sb(imulti_robot_problem
MultiRobotState
p183
(dp184
g19
g20
((lp185
(I5
I4
tp186
a(I1
I3
tp187
a(I4
I3
tp188
a(I4
I8
tp189
a(I3
I0
tp190
a(I8
I0
tp191
a(I3
I2
tp192
a(I0
I7
tp193
a(I2
I1
tp194
a(I3
I9
tp195
a(I0
I5
tp196
a(I1
I4
tp197
a(I3
I7
tp198
a(I2
I5
tp199
a(I5
I3
tp200
a(I8
I3
tp201
a(I3
I1
tp202
ag182
a(I2
I0
tp203
a(I3
I10
tp204
a(I6
I10
tp205
a(I0
I6
tp206
a(I1
I8
tp207
a(I3
I6
tp208
a(I4
I5
tp209
a(I0
I2
tp210
atp211
Rp212
sg15
I11
sg28
g20
((lp213
(I7
I5
tp214
a(I8
I8
tp215
a(I4
I9
tp216
a(I4
I6
tp217
a(I10
I6
tp218
a(I8
I2
tp219
atp220
Rp221
sg13
((I5
I7
tp222
(I2
I10
tp223
(I2
I8
tp224
tp225
sg14
I11
sbs(iproblems
RoomID
p226
(dp227
g10
I8
sg11
(I5
I4
tp228
sg13
I4
sg14
I10
sg15
I9
sg16
I2175216119781798972
sb(imulti_robot_problem
MultiRobotState
p229
(dp230
g19
g20
((lp231
(I6
I6
tp232
a(I2
I8
tp233
a(I0
I7
tp234
a(I6
I2
tp235
a(I1
I6
tp236
a(I2
I5
tp237
a(I5
I5
tp238
a(I8
I1
tp239
a(I7
I6
tp240
a(I6
I3
tp241
a(I2
I2
tp242
a(I8
I6
tp243
a(I6
I4
tp244
ag228
a(I8
I2
tp245
a(I7
I1
tp246
a(I1
I4
tp247
a(I7
I5
tp248
a(I8
I7
tp249
a(I1
I0
tp250
a(I6
I5
tp251
a(I3
I3
tp252
a(I8
I3
tp253
a(I7
I0
tp254
a(I6
I8
tp255
a(I3
I4
tp256
a(I7
I4
tp257
a(I0
I6
tp258
a(I1
I8
tp259
a(I8
I8
tp260
a(I4
I3
tp261
a(I1
I7
tp262
a(I7
I8
tp263
a(I0
I2
tp264
atp265
Rp266
sg15
I9
sg28
g20
((lp267
(I6
I7
tp268
a(I2
I9
tp269
a(I5
I6
tp270
a(I3
I1
tp271
a(I8
I9
tp272
a(I0
I5
tp273
a(I0
I3
tp274
a(I5
I2
tp275
atp276
Rp277
sg13
((I2
I4
tp278
(I8
I5
tp279
(I4
I9
tp280
(I7
I7
tp281
tp282
sg14
I10
sbs(iproblems
RoomID
p283
(dp284
g10
I9
sg11
(I3
I0
tp285
sg13
I3
sg14
I9
sg15
I12
sg16
I4912931603392816429
sb(imulti_robot_problem
MultiRobotState
p286
(dp287
g19
g20
((lp288
(I6
I4
tp289
a(I4
I7
tp290
a(I0
I0
tp291
a(I4
I8
tp292
a(I5
I6
tp293
a(I2
I8
tp294
a(I0
I7
tp295
a(I4
I6
tp296
a(I7
I5
tp297
a(I4
I2
tp298
a(I0
I3
tp299
a(I7
I2
tp300
a(I6
I8
tp301
a(I10
I5
tp302
a(I5
I5
tp303
a(I7
I8
tp304
a(I4
I4
tp305
a(I5
I2
tp306
ag285
a(I8
I8
tp307
a(I5
I8
tp308
a(I1
I7
tp309
a(I4
I5
tp310
a(I8
I6
tp311
a(I5
I3
tp312
a(I4
I1
tp313
atp314
Rp315
sg15
I12
sg28
g20
((lp316
(I7
I3
tp317
a(I7
I1
tp318
a(I8
I1
tp319
a(I6
I3
tp320
a(I11
I8
tp321
a(I8
I7
tp322
a(I3
I7
tp323
a(I2
I5
tp324
a(I3
I4
tp325
atp326
Rp327
sg13
((I9
I1
tp328
(I1
I6
tp329
(I8
I4
tp330
tp331
sg14
I9
sbs(iproblems
RoomID
p332
(dp333
g10
I9
sg11
(I5
I3
tp334
sg13
I3
sg14
I9
sg15
I9
sg16
I1885758236351349410
sb(imulti_robot_problem
MultiRobotState
p335
(dp336
g19
g20
((lp337
(I4
I7
tp338
a(I5
I7
tp339
a(I7
I1
tp340
a(I5
I6
tp341
a(I5
I4
tp342
a(I0
I0
tp343
a(I2
I3
tp344
a(I4
I2
tp345
a(I8
I5
tp346
ag334
a(I6
I7
tp347
a(I5
I5
tp348
a(I4
I4
tp349
a(I1
I5
tp350
a(I4
I3
tp351
a(I0
I4
tp352
a(I1
I6
tp353
a(I3
I4
tp354
a(I2
I4
tp355
atp356
Rp357
sg15
I9
sg28
g20
((lp358
(I7
I3
tp359
a(I7
I0
tp360
a(I3
I0
tp361
a(I6
I1
tp362
a(I1
I4
tp363
a(I0
I5
tp364
a(I5
I0
tp365
a(I1
I1
tp366
a(I8
I4
tp367
atp368
Rp369
sg13
((I0
I1
tp370
(I2
I6
tp371
(I0
I2
tp372
tp373
sg14
I9
sbs(iproblems
RoomID
p374
(dp375
g10
I9
sg11
(I4
I3
tp376
sg13
I4
sg14
I11
sg15
I12
sg16
I7002664860023442459
sb(imulti_robot_problem
MultiRobotState
p377
(dp378
g19
g20
((lp379
(I11
I8
tp380
a(I0
I0
tp381
a(I10
I4
tp382
a(I3
I0
tp383
a(I9
I3
tp384
a(I6
I0
tp385
a(I2
I1
tp386
a(I8
I9
tp387
a(I9
I4
tp388
a(I5
I1
tp389
a(I8
I5
tp390
a(I5
I8
tp391
a(I8
I2
tp392
a(I7
I0
tp393
a(I8
I7
tp394
a(I3
I3
tp395
a(I1
I5
tp396
a(I8
I1
tp397
a(I9
I6
tp398
a(I3
I1
tp399
a(I9
I2
tp400
a(I2
I0
tp401
ag376
a(I2
I2
tp402
a(I9
I5
tp403
a(I5
I2
tp404
a(I2
I4
tp405
atp406
Rp407
sg15
I12
sg28
g20
((lp408
(I0
I1
tp409
a(I10
I8
tp410
a(I2
I8
tp411
a(I3
I10
tp412
a(I10
I6
tp413
a(I6
I2
tp414
a(I3
I7
tp415
a(I7
I8
tp416
a(I7
I9
tp417
atp418
Rp419
sg13
((I9
I7
tp420
(I8
I8
tp421
(I2
I9
tp422
(I1
I7
tp423
tp424
sg14
I11
sbssg158
S'mild_roomset'
p425
sbsg158
g160
sg161
(dp426
g180
((lp427
F40.089999999999236
tp428
sg226
((lp429
F40.100000000000364
tp430
sg283
((lp431
F40.019999999999527
tp432
sg332
((lp433
F40.0600000000004
tp434
sg374
((lp435
F40.029999999999745
tp436
ssba(imeasure_core
ProblemSetSolution
p437
(dp438
g3
(imeasure_core
RoomSet
p439
(dp440
g6
(dp441
(iproblems
RoomID
p442
(dp443
g10
I11
sg11
(I7
I9
tp444
sg13
I5
sg14
I12
sg15
I12
sg16
I1164115433906158532
sb(imulti_robot_problem
MultiRobotState
p445
(dp446
g19
g20
((lp447
(I4
I7
tp448
a(I1
I3
tp449
a(I5
I6
tp450
a(I9
I3
tp451
a(I1
I4
tp452
a(I0
I5
tp453
a(I7
I11
tp454
a(I1
I0
tp455
a(I5
I8
tp456
a(I3
I3
tp457
a(I3
I1
tp458
a(I6
I7
tp459
a(I6
I8
tp460
a(I7
I8
tp461
a(I5
I7
tp462
ag444
a(I4
I1
tp463
a(I0
I2
tp464
atp465
Rp466
sg15
I12
sg28
g20
((lp467
(I4
I10
tp468
a(I9
I0
tp469
a(I2
I6
tp470
a(I5
I10
tp471
a(I9
I2
tp472
a(I0
I7
tp473
a(I8
I9
tp474
a(I1
I6
tp475
a(I8
I5
tp476
a(I4
I11
tp477
a(I5
I3
tp478
atp479
Rp480
sg13
((I1
I2
tp481
(I2
I11
tp482
(I2
I0
tp483
(I2
I9
tp484
(I11
I7
tp485
tp486
sg14
I12
sbs(iproblems
RoomID
p487
(dp488
g10
I10
sg11
(I0
I7
tp489
sg13
I7
sg14
I10
sg15
I10
sg16
I8711387064946514083
sb(imulti_robot_problem
MultiRobotState
p490
(dp491
g19
g20
((lp492
(I5
I9
tp493
a(I6
I9
tp494
a(I2
I6
tp495
a(I2
I9
tp496
a(I0
I6
tp497
ag489
a(I1
I5
tp498
a(I8
I8
tp499
a(I0
I5
tp500
a(I4
I3
tp501
a(I0
I4
tp502
a(I0
I3
tp503
a(I9
I7
tp504
a(I0
I2
tp505
a(I7
I9
tp506
atp507
Rp508
sg15
I10
sg28
g20
((lp509
(I9
I0
tp510
a(I3
I3
tp511
a(I7
I1
tp512
a(I8
I1
tp513
a(I9
I8
tp514
a(I4
I4
tp515
a(I9
I9
tp516
a(I3
I6
tp517
a(I1
I7
tp518
a(I8
I6
tp519
atp520
Rp521
sg13
((I1
I1
tp522
(I8
I0
tp523
(I7
I0
tp524
(I2
I5
tp525
(I6
I7
tp526
(I8
I9
tp527
(I5
I8
tp528
tp529
sg14
I10
sbs(iproblems
RoomID
p530
(dp531
g10
I10
sg11
(I6
I7
tp532
sg13
I6
sg14
I10
sg15
I13
sg16
I8999366892653588108
sb(imulti_robot_problem
MultiRobotState
p533
(dp534
g19
g20
((lp535
(I5
I4
tp536
ag532
a(I5
I5
tp537
a(I5
I6
tp538
a(I7
I6
tp539
a(I4
I2
tp540
a(I2
I3
tp541
a(I8
I6
tp542
a(I12
I1
tp543
a(I5
I3
tp544
a(I6
I5
tp545
a(I3
I3
tp546
atp547
Rp548
sg15
I13
sg28
g20
((lp549
(I6
I9
tp550
a(I7
I0
tp551
a(I5
I7
tp552
a(I12
I6
tp553
a(I2
I1
tp554
a(I0
I5
tp555
a(I10
I1
tp556
a(I0
I3
tp557
a(I7
I9
tp558
a(I3
I5
tp559
atp560
Rp561
sg13
((I12
I0
tp562
(I6
I1
tp563
(I2
I2
tp564
(I6
I4
tp565
(I4
I6
tp566
(I7
I1
tp567
tp568
sg14
I10
sbs(iproblems
RoomID
p569
(dp570
g10
I14
sg11
(I0
I3
tp571
sg13
I7
sg14
I12
sg15
I13
sg16
I7002664860023442459
sb(imulti_robot_problem
MultiRobotState
p572
(dp573
g19
g20
((lp574
(I1
I2
tp575
a(I11
I4
tp576
a(I9
I8
tp577
a(I10
I6
tp578
ag571
a(I0
I8
tp579
a(I10
I3
tp580
a(I0
I1
tp581
a(I10
I5
tp582
a(I10
I7
tp583
a(I7
I8
tp584
a(I9
I9
tp585
a(I0
I9
tp586
a(I9
I5
tp587
a(I3
I4
tp588
a(I0
I2
tp589
a(I11
I6
tp590
a(I9
I7
tp591
atp592
Rp593
sg15
I13
sg28
g20
((lp594
(I6
I4
tp595
a(I11
I9
tp596
a(I4
I6
tp597
a(I2
I9
tp598
a(I5
I9
tp599
a(I12
I2
tp600
a(I3
I1
tp601
a(I3
I11
tp602
a(I10
I10
tp603
a(I7
I4
tp604
a(I0
I0
tp605
a(I11
I5
tp606
a(I2
I5
tp607
a(I12
I9
tp608
atp609
Rp610
sg13
((I2
I10
tp611
(I1
I8
tp612
(I8
I10
tp613
(I7
I2
tp614
(I3
I8
tp615
(I6
I2
tp616
(I7
I9
tp617
tp618
sg14
I12
sbs(iproblems
RoomID
p619
(dp620
g10
I14
sg11
(I5
I10
tp621
sg13
I5
sg14
I12
sg15
I10
sg16
I3872982626502034966
sb(imulti_robot_problem
MultiRobotState
p622
(dp623
g19
g20
((lp624
(I5
I9
tp625
a(I6
I9
tp626
a(I5
I7
tp627
a(I3
I2
tp628
ag621
a(I4
I10
tp629
a(I4
I8
tp630
a(I3
I11
tp631
a(I2
I1
tp632
a(I6
I2
tp633
a(I1
I4
tp634
a(I8
I7
tp635
a(I6
I8
tp636
a(I6
I7
tp637
a(I5
I8
tp638
a(I3
I5
tp639
a(I4
I9
tp640
a(I4
I6
tp641
a(I8
I1
tp642
a(I7
I1
tp643
a(I3
I8
tp644
a(I4
I3
tp645
a(I5
I2
tp646
a(I1
I1
tp647
atp648
Rp649
sg15
I10
sg28
g20
((lp650
(I5
I3
tp651
a(I3
I1
tp652
a(I8
I11
tp653
a(I9
I3
tp654
a(I0
I2
tp655
a(I6
I3
tp656
a(I3
I9
tp657
a(I2
I3
tp658
a(I9
I5
tp659
a(I7
I11
tp660
a(I0
I8
tp661
a(I3
I10
tp662
a(I7
I2
tp663
a(I9
I7
tp664
atp665
Rp666
sg13
((I1
I8
tp667
(I2
I9
tp668
(I1
I9
tp669
(I1
I5
tp670
(I6
I5
tp671
tp672
sg14
I12
sbssg158
S'heavy_roomset'
p673
sbsg158
g160
sg161
(dp674
g442
((lp675
F40.180000000000291
tp676
sg487
((lp677
(F16.039999999999964
I7
tp678
aF41.849999999999454
tp679
sg530
((lp680
F40.730000000000473
tp681
sg569
((lp682
F47.460000000000036
tp683
sg619
((lp684
F40.399999999999636
tp685
ssba(imeasure_core
ProblemSetSolution
p686
(dp687
g3
g4
sg158
S'AnytimeBest-d80_with_PowerHeuristic2'
p688
sg161
(dp689
g8
((lp690
(F0.26000000000021828
I42
tp691
a(F2.9200000000000728
I40
tp692
a(F3.1900000000005093
I34
tp693
a(F4.3800000000001091
I30
tp694
a(F5.0600000000004002
I28
tp695
a(F13.770000000000437
I26
tp696
aF16.869999999999891
tp697
sg40
((lp698
(F0.5
I5
tp699
aF40.050000000000182
tp700
sg73
((lp701
(F0.73000000000047294
I66
tp702
a(F11.340000000000146
I65
tp703
a(F17.210000000000036
I64
tp704
a(F27.550000000000182
I63
tp705
a(F33.600000000000364
I62
tp706
aF40.010000000000218
tp707
sg100
((lp708
(F0.1999999999998181
I4
tp709
aF40.010000000000218
tp710
sg129
((lp711
(F0.5
I11
tp712
aF40.049999999999272
tp713
ssba(imeasure_core
ProblemSetSolution
p714
(dp715
g3
g177
sg158
g688
sg161
(dp716
g180
((lp717
F40.050000000000182
tp718
sg226
((lp719
F40.050000000000182
tp720
sg283
((lp721
(F0.090000000000145519
I11
tp722
aF40.010000000000218
tp723
sg332
((lp724
(F1.4700000000002547
I65
tp725
aF40.050000000000182
tp726
sg374
((lp727
(F0.43999999999959982
I11
tp728
aF40.109999999999673
tp729
ssba(imeasure_core
ProblemSetSolution
p730
(dp731
g3
g439
sg158
g688
sg161
(dp732
g442
((lp733
(F2.9899999999997817
I20
tp734
aF40.139999999999418
tp735
sg487
((lp736
(F15.930000000000291
I7
tp737
aF41.579999999999927
tp738
sg530
((lp739
(F9.7899999999999636
I20
tp740
aF40.130000000000109
tp741
sg569
((lp742
F47.520000000000437
tp743
sg619
((lp744
F40.289999999999964
tp745
ssba(imeasure_core
ProblemSetSolution
p746
(dp747
g3
g4
sg158
S'AnytimeBest-d150_with_PowerHeuristic2'
p748
sg161
(dp749
g8
((lp750
(F0.26999999999952706
I42
tp751
a(F2.930000000000291
I40
tp752
a(F3.1999999999998181
I34
tp753
a(F4.3900000000003274
I30
tp754
a(F5.069999999999709
I28
tp755
a(F13.829999999999927
I26
tp756
aF16.949999999999818
tp757
sg40
((lp758
(F0.51000000000021828
I5
tp759
aF40.050000000000182
tp760
sg73
((lp761
(F0.73999999999978172
I66
tp762
a(F11.399999999999636
I65
tp763
a(F17.289999999999964
I64
tp764
a(F27.670000000000073
I63
tp765
a(F33.75
I62
tp766
aF40.029999999999745
tp767
sg100
((lp768
(F0.21000000000003638
I4
tp769
aF40.010000000000218
tp770
sg129
((lp771
(F0.5
I11
tp772
aF40.050000000000182
tp773
ssba(imeasure_core
ProblemSetSolution
p774
(dp775
g3
g177
sg158
g748
sg161
(dp776
g180
((lp777
(F17.829999999999927
I136
tp778
aF40.050000000000182
tp779
sg226
((lp780
F40.039999999999964
tp781
sg283
((lp782
(F0.099999999999454303
I11
tp783
aF40.009999999999309
tp784
sg332
((lp785
(F1.4700000000002547
I65
tp786
aF40.0
tp787
sg374
((lp788
(F0.4500000000007276
I11
tp789
aF40.050000000000182
tp790
ssba(imeasure_core
ProblemSetSolution
p791
(dp792
g3
g439
sg158
g748
sg161
(dp793
g442
((lp794
(F2.9499999999998181
I20
tp795
aF40.349999999999454
tp796
sg487
((lp797
(F15.970000000000255
I7
tp798
aF41.6200000000008
tp799
sg530
((lp800
(F9.7999999999992724
I20
tp801
aF40.1299999999992
tp802
sg569
((lp803
F47.530000000000655
tp804
sg619
((lp805
F40.359999999999673
tp806
ssba(imeasure_core
ProblemSetSolution
p807
(dp808
g3
g4
sg158
S'AnytimeBest-d250_with_PowerHeuristic2'
p809
sg161
(dp810
g8
((lp811
(F0.27000000000043656
I42
tp812
a(F2.9200000000000728
I40
tp813
a(F3.1900000000005093
I34
tp814
a(F4.3800000000001091
I30
tp815
a(F5.0500000000001819
I28
tp816
a(F13.8100000000004
I26
tp817
aF16.930000000000291
tp818
sg40
((lp819
(F0.48999999999978172
I5
tp820
aF40.050000000000182
tp821
sg73
((lp822
(F0.73999999999978172
I66
tp823
a(F11.3799999999992
I65
tp824
a(F17.279999999999745
I64
tp825
a(F27.659999999999854
I63
tp826
a(F33.699999999999818
I62
tp827
aF40.0
tp828
sg100
((lp829
(F0.21000000000003638
I4
tp830
aF40.059999999999491
tp831
sg129
((lp832
(F0.48999999999978172
I11
tp833
aF40.050000000000182
tp834
ssba(imeasure_core
ProblemSetSolution
p835
(dp836
g3
g177
sg158
g809
sg161
(dp837
g180
((lp838
(F18.009999999999309
I136
tp839
aF40.050000000000182
tp840
sg226
((lp841
F40.059999999999491
tp842
sg283
((lp843
(F0.1000000000003638
I11
tp844
aF40.010000000000218
tp845
sg332
((lp846
(F1.4799999999995634
I65
tp847
aF40.0
tp848
sg374
((lp849
(F0.43999999999959982
I11
tp850
aF40.050000000000182
tp851
ssba(imeasure_core
ProblemSetSolution
p852
(dp853
g3
g439
sg158
g809
sg161
(dp854
g442
((lp855
(F2.9600000000000364
I20
tp856
aF40.289999999999964
tp857
sg487
((lp858
(F15.979999999999563
I7
tp859
aF41.329999999999927
tp860
sg530
((lp861
(F9.7899999999999636
I20
tp862
aF40.130000000000109
tp863
sg569
((lp864
F47.549999999999272
tp865
sg619
((lp866
F40.330000000000837
tp867
ssba(imeasure_core
ProblemSetSolution
p868
(dp869
g3
g4
sg158
S'AnytimeBest-d400_with_PowerHeuristic2'
p870
sg161
(dp871
g8
((lp872
(F0.26000000000021828
I42
tp873
a(F2.9200000000000728
I40
tp874
a(F3.180000000000291
I34
tp875
a(F4.3800000000001091
I30
tp876
a(F5.0600000000004002
I28
tp877
a(F13.820000000000618
I26
tp878
aF16.940000000000509
tp879
sg40
((lp880
(F0.48999999999978172
I5
tp881
aF40.109999999999673
tp882
sg73
((lp883
(F0.73999999999978172
I66
tp884
a(F11.369999999999891
I65
tp885
a(F17.25
I64
tp886
a(F27.619999999999891
I63
tp887
a(F33.649999999999636
I62
tp888
aF40.020000000000437
tp889
sg100
((lp890
(F0.1999999999998181
I4
tp891
aF40.029999999999745
tp892
sg129
((lp893
(F0.48999999999978172
I11
tp894
aF40.0600000000004
tp895
ssba(imeasure_core
ProblemSetSolution
p896
(dp897
g3
g177
sg158
g870
sg161
(dp898
g180
((lp899
(F17.809999999999491
I136
tp900
aF40.049999999999272
tp901
sg226
((lp902
F40.090000000000146
tp903
sg283
((lp904
(F0.090000000000145519
I11
tp905
aF40.010000000000218
tp906
sg332
((lp907
(F1.4599999999991269
I65
tp908
aF40.0
tp909
sg374
((lp910
(F0.4500000000007276
I11
tp911
aF40.049999999999272
tp912
ssba(imeasure_core
ProblemSetSolution
p913
(dp914
g3
g439
sg158
g870
sg161
(dp915
g442
((lp916
(F2.9700000000011642
I20
tp917
aF40.260000000000218
tp918
sg487
((lp919
(F15.979999999999563
I7
tp920
aF41.140000000001237
tp921
sg530
((lp922
(F9.7999999999992724
I20
tp923
aF40.1299999999992
tp924
sg569
((lp925
F47.510000000000218
tp926
sg619
((lp927
F40.340000000000146
tp928
ssba(imeasure_core
ProblemSetSolution
p929
(dp930
g3
g4
sg158
S'AnytimeBest-d10_with_LinearHeuristic'
p931
sg161
(dp932
g8
((lp933
F1.8799999999991996
tp934
sg40
((lp935
F40.149999999999636
tp936
sg73
((lp937
F40.020000000000437
tp938
sg100
((lp939
(F1.180000000000291
I10
tp940
a(F10.550000000001091
I9
tp941
a(F17.809999999999491
I8
tp942
a(F25.25
I7
tp943
a(F31.790000000000873
I6
tp944
aF40.300000000001091
tp945
sg129
((lp946
F40.199999999998909
tp947
ssba(imeasure_core
ProblemSetSolution
p948
(dp949
g3
g177
sg158
g931
sg161
(dp950
g180
((lp951
F40.050000000001091
tp952
sg226
((lp953
F40.109999999998763
tp954
sg283
((lp955
F40.110000000000582
tp956
sg332
((lp957
F40.079999999999927
tp958
sg374
((lp959
F40.200000000000728
tp960
ssba(imeasure_core
ProblemSetSolution
p961
(dp962
g3
g439
sg158
g931
sg161
(dp963
g442
((lp964
F40.319999999999709
tp965
sg487
((lp966
(F31.600000000000364
I7
tp967
aF47.840000000000146
tp968
sg530
((lp969
F40.459999999999127
tp970
sg569
((lp971
F44.639999999999418
tp972
sg619
((lp973
F40.450000000000728
tp974
ssba(imeasure_core
ProblemSetSolution
p975
(dp976
g3
g4
sg158
S'AnytimeBest-d80_with_LinearHeuristic'
p977
sg161
(dp978
g8
((lp979
(F0.020000000000436557
I28
tp980
a(F36.489999999999782
I26
tp981
aF40.0
tp982
sg40
((lp983
F40.100000000000364
tp984
sg73
((lp985
(F0.52000000000043656
I25
tp986
a(F15.319999999999709
I24
tp987
a(F18.449999999998909
I23
tp988
a(F30.909999999999854
I22
tp989
a(F39.799999999999272
I19
tp990
aF40.020000000000437
tp991
sg100
((lp992
(F1.179999999998472
I10
tp993
a(F10.559999999999491
I9
tp994
a(F17.809999999999491
I8
tp995
a(F25.269999999998618
I7
tp996
a(F31.529999999998836
I6
tp997
aF40.319999999999709
tp998
sg129
((lp999
(F2.5599999999994907
I27
tp1000
aF40.079999999999927
tp1001
ssba(imeasure_core
ProblemSetSolution
p1002
(dp1003
g3
g177
sg158
g977
sg161
(dp1004
g180
((lp1005
F40.090000000000146
tp1006
sg226
((lp1007
F40.1299999999992
tp1008
sg283
((lp1009
F40.030000000000655
tp1010
sg332
((lp1011
F40.010000000000218
tp1012
sg374
((lp1013
F40.089999999998327
tp1014
ssba(imeasure_core
ProblemSetSolution
p1015
(dp1016
g3
g439
sg158
g977
sg161
(dp1017
g442
((lp1018
F40.540000000000873
tp1019
sg487
((lp1020
(F31.899999999999636
I7
tp1021
aF47.600000000000364
tp1022
sg530
((lp1023
F40.829999999999927
tp1024
sg569
((lp1025
F44.369999999998981
tp1026
sg619
((lp1027
F40.210000000000946
tp1028
ssba(imeasure_core
ProblemSetSolution
p1029
(dp1030
g3
g4
sg158
S'AnytimeBest-d150_with_LinearHeuristic'
p1031
sg161
(dp1032
g8
((lp1033
(F0.019999999998617568
I28
tp1034
a(F36.590000000000146
I26
tp1035
aF40.0
tp1036
sg40
((lp1037
F40.199999999998909
tp1038
sg73
((lp1039
(F0.52000000000043656
I25
tp1040
a(F15.280000000000655
I24
tp1041
a(F18.409999999999854
I23
tp1042
a(F30.860000000000582
I22
tp1043
a(F39.739999999999782
I19
tp1044
aF40.020000000000437
tp1045
sg100
((lp1046
(F1.1900000000005093
I10
tp1047
a(F10.469999999999345
I9
tp1048
a(F17.680000000000291
I8
tp1049
a(F25.329999999999927
I7
tp1050
a(F31.600000000000364
I6
tp1051
aF40.270000000000437
tp1052
sg129
((lp1053
(F2.569999999999709
I27
tp1054
aF40.159999999999854
tp1055
ssba(imeasure_core
ProblemSetSolution
p1056
(dp1057
g3
g177
sg158
g1031
sg161
(dp1058
g180
((lp1059
F40.039999999999054
tp1060
sg226
((lp1061
F40.050000000001091
tp1062
sg283
((lp1063
F40.069999999999709
tp1064
sg332
((lp1065
F40.010000000000218
tp1066
sg374
((lp1067
F40.059999999999491
tp1068
ssba(imeasure_core
ProblemSetSolution
p1069
(dp1070
g3
g439
sg158
g1031
sg161
(dp1071
g442
((lp1072
F40.399999999999636
tp1073
sg487
((lp1074
(F31.690000000000509
I7
tp1075
aF48.0
tp1076
sg530
((lp1077
F40.710000000000946
tp1078
sg569
((lp1079
F44.68999999999869
tp1080
sg619
((lp1081
F40.320000000001528
tp1082
ssba(imeasure_core
ProblemSetSolution
p1083
(dp1084
g3
g4
sg158
S'AnytimeBest-d250_with_LinearHeuristic'
p1085
sg161
(dp1086
g8
((lp1087
(F0.019999999998617568
I28
tp1088
a(F36.699999999998909
I26
tp1089
aF40.0
tp1090
sg40
((lp1091
F40.18999999999869
tp1092
sg73
((lp1093
(F0.52000000000043656
I25
tp1094
a(F15.5
I24
tp1095
a(F18.700000000000728
I23
tp1096
a(F31.149999999999636
I22
tp1097
aF40.030000000000655
tp1098
sg100
((lp1099
(F1.180000000000291
I10
tp1100
a(F10.559999999999491
I9
tp1101
a(F17.840000000000146
I8
tp1102
a(F25.319999999999709
I7
tp1103
a(F31.889999999999418
I6
tp1104
aF40.25
tp1105
sg129
((lp1106
(F2.5599999999994907
I27
tp1107
aF40.079999999999927
tp1108
ssba(imeasure_core
ProblemSetSolution
p1109
(dp1110
g3
g177
sg158
g1085
sg161
(dp1111
g180
((lp1112
F40.030000000000655
tp1113
sg226
((lp1114
F40.089999999998327
tp1115
sg283
((lp1116
F40.050000000001091
tp1117
sg332
((lp1118
(F17.850000000000364
I226
tp1119
aF40.010000000000218
tp1120
sg374
((lp1121
F40.289999999999054
tp1122
ssba(imeasure_core
ProblemSetSolution
p1123
(dp1124
g3
g439
sg158
g1085
sg161
(dp1125
g442
((lp1126
F40.309999999999491
tp1127
sg487
((lp1128
(F31.600000000000364
I7
tp1129
aF47.840000000000146
tp1130
sg530
((lp1131
F40.56000000000131
tp1132
sg569
((lp1133
F44.549999999999272
tp1134
sg619
((lp1135
F40.210000000000946
tp1136
ssba(imeasure_core
ProblemSetSolution
p1137
(dp1138
g3
g4
sg158
S'AnytimeBest-d400_with_LinearHeuristic'
p1139
sg161
(dp1140
g8
((lp1141
(F0.020000000000436557
I28
tp1142
a(F36.590000000000146
I26
tp1143
aF40.0
tp1144
sg40
((lp1145
F40.710000000000946
tp1146
sg73
((lp1147
(F0.53000000000065484
I25
tp1148
a(F15.360000000000582
I24
tp1149
a(F18.510000000000218
I23
tp1150
a(F31.0
I22
tp1151
a(F39.949999999998909
I19
tp1152
aF40.020000000000437
tp1153
sg100
((lp1154
(F1.179999999998472
I10
tp1155
a(F10.529999999998836
I9
tp1156
a(F17.769999999998618
I8
tp1157
a(F25.209999999999127
I7
tp1158
a(F31.739999999999782
I6
tp1159
aF40.239999999999782
tp1160
sg129
((lp1161
(F2.5799999999999272
I27
tp1162
aF40.1299999999992
tp1163
ssba(imeasure_core
ProblemSetSolution
p1164
(dp1165
g3
g177
sg158
g1139
sg161
(dp1166
g180
((lp1167
F40.030000000000655
tp1168
sg226
((lp1169
F40.119999999998981
tp1170
sg283
((lp1171
F40.100000000000364
tp1172
sg332
((lp1173
(F17.710000000000946
I226
tp1174
aF40.010000000000218
tp1175
sg374
((lp1176
F40.350000000000364
tp1177
ssba(imeasure_core
ProblemSetSolution
p1178
(dp1179
g3
g439
sg158
g1139
sg161
(dp1180
g442
((lp1181
F40.479999999999563
tp1182
sg487
((lp1183
(F31.680000000000291
I7
tp1184
aF47.979999999999563
tp1185
sg530
((lp1186
F40.780000000000655
tp1187
sg569
((lp1188
F44.699999999998909
tp1189
sg619
((lp1190
F40.350000000000364
tp1191
ssba.