(lp0
(imeasure_core
ProblemSetSolution
p1
(dp2
S'roomset'
p3
(imeasure_core
RoomSet
p4
(dp5
S'rooms'
p6
(dp7
(iproblems
RoomID
p8
(dp9
S'dusts'
p10
I8
sS'obstacles'
p11
(I2
I4
tp12
sS'robots'
p13
I4
sS'height'
p14
I9
sS'width'
p15
I7
sS'seed'
p16
I7283207964119141687
sb(imulti_robot_problem
MultiRobotState
p17
(dp18
S'obstacle_locations'
p19
c__builtin__
frozenset
p20
((lp21
(I4
I6
tp22
a(I4
I3
tp23
a(I3
I0
tp24
a(I4
I2
tp25
a(I3
I4
tp26
ag12
a(I3
I3
tp27
atp28
Rp29
sg15
I7
sS'dirt_locations'
p30
g20
((lp31
(I4
I5
tp32
a(I5
I7
tp33
a(I0
I6
tp34
a(I1
I6
tp35
a(I5
I0
tp36
a(I5
I1
tp37
a(I5
I2
tp38
a(I1
I1
tp39
atp40
Rp41
sg13
((I1
I5
tp42
(I5
I5
tp43
(I3
I1
tp44
(I3
I5
tp45
tp46
sg14
I9
sbs(iproblems
RoomID
p47
(dp48
g10
I8
sg11
(I4
I6
tp49
sg13
I2
sg14
I10
sg15
I8
sg16
I890727360438182992
sb(imulti_robot_problem
MultiRobotState
p50
(dp51
g19
g20
((lp52
(I0
I0
tp53
ag49
a(I6
I6
tp54
a(I5
I6
tp55
a(I7
I6
tp56
a(I7
I4
tp57
a(I4
I2
tp58
a(I2
I4
tp59
atp60
Rp61
sg15
I8
sg30
g20
((lp62
(I7
I0
tp63
a(I7
I1
tp64
a(I6
I3
tp65
a(I1
I8
tp66
a(I0
I5
tp67
a(I5
I1
tp68
a(I1
I0
tp69
a(I0
I3
tp70
atp71
Rp72
sg13
((I2
I8
tp73
(I2
I5
tp74
tp75
sg14
I10
sbs(iproblems
RoomID
p76
(dp77
g10
I10
sg11
(I6
I5
tp78
sg13
I5
sg14
I8
sg15
I9
sg16
I3960482443532127989
sb(imulti_robot_problem
MultiRobotState
p79
(dp80
g19
g20
((lp81
(I4
I5
tp82
a(I5
I5
tp83
ag78
a(I6
I6
tp84
atp85
Rp86
sg15
I9
sg30
g20
((lp87
(I2
I7
tp88
a(I2
I6
tp89
a(I5
I0
tp90
a(I5
I7
tp91
a(I1
I4
tp92
a(I1
I5
tp93
a(I3
I6
tp94
a(I8
I0
tp95
a(I8
I5
tp96
a(I5
I3
tp97
atp98
Rp99
sg13
((I4
I3
tp100
(I8
I7
tp101
(I1
I6
tp102
(I7
I3
tp103
(I6
I4
tp104
tp105
sg14
I8
sbs(iproblems
RoomID
p106
(dp107
g10
I7
sg11
(I4
I1
tp108
sg13
I3
sg14
I10
sg15
I10
sg16
I1585446675937841368
sb(imulti_robot_problem
MultiRobotState
p109
(dp110
g19
g20
((lp111
(I3
I2
tp112
a(I2
I6
tp113
a(I6
I7
tp114
a(I6
I1
tp115
a(I7
I2
tp116
a(I5
I0
tp117
ag108
a(I2
I4
tp118
a(I5
I8
tp119
atp120
Rp121
sg15
I10
sg30
g20
((lp122
(I7
I3
tp123
a(I9
I4
tp124
a(I2
I9
tp125
a(I1
I7
tp126
a(I2
I2
tp127
a(I5
I2
tp128
a(I9
I7
tp129
atp130
Rp131
sg13
((I8
I9
tp132
(I4
I4
tp133
(I9
I8
tp134
tp135
sg14
I10
sbs(iproblems
RoomID
p136
(dp137
g10
I5
sg11
(I7
I3
tp138
sg13
I1
sg14
I7
sg15
I8
sg16
I1736392818365009963
sb(imulti_robot_problem
MultiRobotState
p139
(dp140
g19
g20
((lp141
g138
a(I2
I6
tp142
a(I7
I0
tp143
a(I7
I1
tp144
a(I2
I1
tp145
a(I6
I3
tp146
a(I0
I4
tp147
a(I7
I2
tp148
atp149
Rp150
sg15
I8
sg30
g20
((lp151
(I0
I1
tp152
a(I6
I2
tp153
a(I1
I6
tp154
a(I4
I4
tp155
a(I0
I0
tp156
atp157
Rp158
sg13
((I3
I1
tp159
tp160
sg14
I7
sbssS'name'
p161
S'easy_roomset'
p162
sbsg161
S"AnytimeBeam-w20-gf(2, 'lin')_with_PowerHeuristic2"
p163
sS'solutions'
p164
(dp165
g8
((lp166
(F1.7600000000020373
I28
tp167
aF40.05000000000291
tp168
sg47
((lp169
(F0.099999999998544808
I19
tp170
aF40.009999999994761
tp171
sg76
((lp172
(F3.0800000000017462
I10
tp173
aF40.620000000002619
tp174
sg106
((lp175
(F0.45999999999912689
I14
tp176
aF40.040000000000873
tp177
sg136
((lp178
(F0.08000000000174623
I30
tp179
a(F0.1599999999962165
I28
tp180
a(F0.47999999999592546
I27
tp181
a(F0.90000000000145519
I25
tp182
a(F1.2600000000020373
I23
tp183
a(F1.5599999999976717
I22
tp184
a(F2.7799999999988358
I21
tp185
a(F3.8799999999973807
I20
tp186
aF40.0
tp187
ssba(imeasure_core
ProblemSetSolution
p188
(dp189
g3
(imeasure_core
RoomSet
p190
(dp191
g6
(dp192
(iproblems
RoomID
p193
(dp194
g10
I8
sg11
(I2
I6
tp195
sg13
I4
sg14
I11
sg15
I9
sg16
I7283207964119141687
sb(imulti_robot_problem
MultiRobotState
p196
(dp197
g19
g20
((lp198
(I4
I7
tp199
a(I1
I3
tp200
a(I4
I3
tp201
a(I4
I5
tp202
a(I5
I4
tp203
a(I1
I4
tp204
a(I8
I9
tp205
a(I6
I2
tp206
a(I0
I10
tp207
a(I3
I7
tp208
a(I0
I3
tp209
a(I8
I5
tp210
a(I4
I0
tp211
a(I5
I3
tp212
a(I5
I5
tp213
a(I5
I2
tp214
a(I6
I1
tp215
a(I6
I10
tp216
ag195
a(I6
I3
tp217
a(I3
I6
tp218
a(I3
I5
tp219
a(I3
I4
tp220
a(I2
I4
tp221
atp222
Rp223
sg15
I9
sg30
g20
((lp224
(I7
I0
tp225
a(I6
I8
tp226
a(I7
I1
tp227
a(I5
I6
tp228
a(I1
I8
tp229
a(I0
I8
tp230
a(I4
I1
tp231
a(I5
I8
tp232
atp233
Rp234
sg13
((I1
I7
tp235
(I6
I6
tp236
(I4
I6
tp237
(I2
I1
tp238
tp239
sg14
I11
sbs(iproblems
RoomID
p240
(dp241
g10
I8
sg11
(I3
I5
tp242
sg13
I3
sg14
I12
sg15
I10
sg16
I890727360438182992
sb(imulti_robot_problem
MultiRobotState
p243
(dp244
g19
g20
((lp245
(I4
I7
tp246
a(I0
I0
tp247
a(I3
I0
tp248
a(I3
I2
tp249
a(I1
I4
tp250
a(I8
I9
tp251
a(I7
I5
tp252
a(I2
I3
tp253
a(I3
I4
tp254
a(I5
I8
tp255
ag242
a(I3
I1
tp256
a(I6
I7
tp257
a(I6
I8
tp258
a(I5
I2
tp259
a(I5
I7
tp260
a(I8
I8
tp261
a(I3
I9
tp262
a(I4
I11
tp263
a(I7
I10
tp264
a(I2
I2
tp265
a(I0
I9
tp266
a(I7
I8
tp267
atp268
Rp269
sg15
I10
sg30
g20
((lp270
(I9
I2
tp271
a(I6
I1
tp272
a(I8
I0
tp273
a(I2
I10
tp274
a(I0
I6
tp275
a(I0
I4
tp276
a(I9
I5
tp277
a(I1
I1
tp278
atp279
Rp280
sg13
((I2
I9
tp281
(I2
I6
tp282
(I8
I4
tp283
tp284
sg14
I12
sbs(iproblems
RoomID
p285
(dp286
g10
I7
sg11
(I6
I3
tp287
sg13
I3
sg14
I12
sg15
I12
sg16
I1585446675937841368
sb(imulti_robot_problem
MultiRobotState
p288
(dp289
g19
g20
((lp290
(I5
I9
tp291
a(I4
I3
tp292
a(I5
I7
tp293
a(I8
I2
tp294
a(I4
I10
tp295
a(I7
I3
tp296
a(I2
I8
tp297
a(I9
I3
tp298
a(I3
I11
tp299
a(I7
I1
tp300
a(I7
I7
tp301
a(I6
I2
tp302
a(I5
I1
tp303
a(I1
I11
tp304
a(I8
I5
tp305
a(I7
I2
tp306
a(I2
I7
tp307
a(I6
I7
tp308
a(I6
I8
tp309
a(I2
I9
tp310
a(I5
I2
tp311
a(I7
I6
tp312
a(I6
I6
tp313
a(I2
I11
tp314
ag287
a(I4
I11
tp315
a(I7
I10
tp316
a(I3
I4
tp317
a(I8
I6
tp318
a(I7
I8
tp319
a(I8
I4
tp320
atp321
Rp322
sg15
I12
sg30
g20
((lp323
(I3
I2
tp324
a(I1
I9
tp325
a(I9
I4
tp326
a(I11
I5
tp327
a(I11
I8
tp328
a(I2
I5
tp329
a(I6
I10
tp330
atp331
Rp332
sg13
((I10
I10
tp333
(I5
I5
tp334
(I11
I10
tp335
tp336
sg14
I12
sbs(iproblems
RoomID
p337
(dp338
g10
I9
sg11
(I1
I3
tp339
sg13
I4
sg14
I9
sg15
I10
sg16
I7713914763314685786
sb(imulti_robot_problem
MultiRobotState
p340
(dp341
g19
g20
((lp342
(I3
I2
tp343
ag339
a(I7
I1
tp344
a(I9
I3
tp345
a(I6
I0
tp346
a(I2
I1
tp347
a(I4
I2
tp348
a(I5
I1
tp349
a(I9
I6
tp350
a(I7
I2
tp351
a(I4
I0
tp352
a(I1
I2
tp353
a(I7
I0
tp354
a(I5
I2
tp355
a(I6
I1
tp356
a(I3
I1
tp357
a(I1
I5
tp358
a(I1
I8
tp359
a(I2
I2
tp360
a(I3
I5
tp361
a(I4
I1
tp362
a(I1
I1
tp363
atp364
Rp365
sg15
I10
sg30
g20
((lp366
(I7
I3
tp367
a(I5
I4
tp368
a(I7
I6
tp369
a(I7
I5
tp370
a(I0
I5
tp371
a(I8
I7
tp372
a(I8
I6
tp373
a(I8
I5
tp374
a(I9
I7
tp375
atp376
Rp377
sg13
((I3
I0
tp378
(I7
I7
tp379
(I2
I0
tp380
(I4
I6
tp381
tp382
sg14
I9
sbs(iproblems
RoomID
p383
(dp384
g10
I5
sg11
(I7
I6
tp385
sg13
I3
sg14
I9
sg15
I10
sg16
I1736392818365009963
sb(imulti_robot_problem
MultiRobotState
p386
(dp387
g19
g20
((lp388
(I7
I3
tp389
a(I9
I1
tp390
a(I4
I8
tp391
a(I9
I3
tp392
a(I7
I7
tp393
a(I6
I2
tp394
a(I0
I5
tp395
a(I0
I4
tp396
a(I8
I5
tp397
a(I7
I2
tp398
a(I1
I2
tp399
a(I3
I8
tp400
a(I9
I0
tp401
a(I9
I2
tp402
ag385
a(I7
I4
tp403
a(I7
I5
tp404
a(I6
I5
tp405
a(I4
I3
tp406
a(I2
I2
tp407
a(I0
I1
tp408
a(I5
I2
tp409
a(I8
I4
tp410
atp411
Rp412
sg15
I10
sg30
g20
((lp413
(I1
I8
tp414
a(I3
I1
tp415
a(I4
I1
tp416
a(I0
I2
tp417
a(I5
I5
tp418
atp419
Rp420
sg13
((I4
I2
tp421
(I1
I0
tp422
(I8
I2
tp423
tp424
sg14
I9
sbssg161
S'mild_roomset'
p425
sbsg161
g163
sg164
(dp426
g193
((lp427
(F0.30999999999767169
I7
tp428
aF40.010000000002037
tp429
sg240
((lp430
F40.099999999998545
tp431
sg285
((lp432
(F0.56999999999970896
I20
tp433
aF40.0
tp434
sg337
((lp435
(F1.9799999999959255
I15
tp436
aF40.049999999995634
tp437
sg383
((lp438
(F4.3000000000029104
I66
tp439
aF40.05000000000291
tp440
ssba(imeasure_core
ProblemSetSolution
p441
(dp442
g3
(imeasure_core
RoomSet
p443
(dp444
g6
(dp445
(iproblems
RoomID
p446
(dp447
g10
I13
sg11
(I8
I4
tp448
sg13
I7
sg14
I12
sg15
I10
sg16
I7283207964119141687
sb(imulti_robot_problem
MultiRobotState
p449
(dp450
g19
g20
((lp451
(I6
I3
tp452
a(I5
I2
tp453
a(I6
I10
tp454
a(I6
I0
tp455
a(I7
I4
tp456
a(I0
I11
tp457
a(I6
I2
tp458
a(I3
I6
tp459
a(I2
I2
tp460
a(I0
I4
tp461
a(I3
I4
tp462
a(I5
I8
tp463
ag448
atp464
Rp465
sg15
I10
sg30
g20
((lp466
(I7
I3
tp467
a(I6
I7
tp468
a(I6
I8
tp469
a(I7
I1
tp470
a(I8
I1
tp471
a(I4
I4
tp472
a(I6
I6
tp473
a(I5
I6
tp474
a(I1
I9
tp475
a(I5
I0
tp476
a(I9
I10
tp477
a(I9
I6
tp478
a(I7
I9
tp479
atp480
Rp481
sg13
((I1
I7
tp482
(I7
I6
tp483
(I4
I6
tp484
(I2
I1
tp485
(I6
I4
tp486
(I0
I9
tp487
(I8
I0
tp488
tp489
sg14
I12
sbs(iproblems
RoomID
p490
(dp491
g10
I13
sg11
(I8
I3
tp492
sg13
I5
sg14
I13
sg15
I11
sg16
I890727360438182992
sb(imulti_robot_problem
MultiRobotState
p493
(dp494
g19
g20
((lp495
(I4
I10
tp496
a(I6
I9
tp497
a(I8
I2
tp498
a(I5
I9
tp499
a(I9
I8
tp500
ag492
a(I4
I12
tp501
a(I0
I10
tp502
a(I8
I7
tp503
a(I9
I1
tp504
a(I9
I0
tp505
a(I6
I8
tp506
a(I6
I10
tp507
a(I8
I8
tp508
a(I8
I6
tp509
a(I7
I8
tp510
a(I0
I2
tp511
atp512
Rp513
sg15
I11
sg30
g20
((lp514
(I10
I5
tp515
a(I0
I0
tp516
a(I4
I6
tp517
a(I0
I6
tp518
a(I9
I2
tp519
a(I8
I11
tp520
a(I2
I1
tp521
a(I9
I10
tp522
a(I1
I5
tp523
a(I0
I4
tp524
a(I0
I9
tp525
a(I5
I2
tp526
a(I4
I11
tp527
atp528
Rp529
sg13
((I3
I10
tp530
(I2
I7
tp531
(I9
I4
tp532
(I2
I11
tp533
(I7
I1
tp534
tp535
sg14
I13
sbs(iproblems
RoomID
p536
(dp537
g10
I10
sg11
(I10
I4
tp538
sg13
I5
sg14
I10
sg15
I11
sg16
I1736392818365009963
sb(imulti_robot_problem
MultiRobotState
p539
(dp540
g19
g20
((lp541
(I0
I1
tp542
a(I1
I2
tp543
a(I3
I2
tp544
ag538
a(I4
I5
tp545
a(I7
I4
tp546
a(I6
I2
tp547
a(I2
I3
tp548
a(I10
I1
tp549
a(I3
I8
tp550
a(I10
I0
tp551
a(I10
I3
tp552
a(I10
I2
tp553
atp554
Rp555
sg15
I11
sg30
g20
((lp556
(I5
I9
tp557
a(I5
I5
tp558
a(I3
I1
tp559
a(I8
I8
tp560
a(I0
I5
tp561
a(I3
I9
tp562
a(I8
I4
tp563
a(I4
I1
tp564
a(I6
I5
tp565
a(I5
I3
tp566
atp567
Rp568
sg13
((I4
I2
tp569
(I1
I0
tp570
(I9
I3
tp571
(I1
I9
tp572
(I0
I2
tp573
tp574
sg14
I10
sbs(iproblems
RoomID
p575
(dp576
g10
I12
sg11
(I6
I9
tp577
sg13
I6
sg14
I13
sg15
I13
sg16
I1585446675937841368
sb(imulti_robot_problem
MultiRobotState
p578
(dp579
g19
g20
((lp580
(I7
I3
tp581
ag577
a(I8
I11
tp582
a(I7
I7
tp583
a(I4
I12
tp584
a(I10
I3
tp585
a(I5
I8
tp586
a(I7
I4
tp587
a(I1
I12
tp588
a(I2
I9
tp589
a(I8
I1
tp590
a(I7
I6
tp591
a(I6
I3
tp592
a(I9
I2
tp593
a(I7
I5
tp594
a(I7
I2
tp595
a(I7
I10
tp596
a(I8
I4
tp597
a(I3
I4
tp598
a(I2
I4
tp599
a(I9
I12
tp600
a(I9
I7
tp601
atp602
Rp603
sg15
I13
sg30
g20
((lp604
(I3
I3
tp605
a(I2
I8
tp606
a(I12
I9
tp607
a(I6
I10
tp608
a(I8
I10
tp609
a(I2
I10
tp610
a(I12
I5
tp611
a(I4
I3
tp612
a(I5
I1
tp613
a(I7
I9
tp614
a(I5
I2
tp615
a(I3
I5
tp616
atp617
Rp618
sg13
((I10
I11
tp619
(I5
I5
tp620
(I12
I11
tp621
(I1
I10
tp622
(I3
I12
tp623
(I10
I4
tp624
tp625
sg14
I13
sbs(iproblems
RoomID
p626
(dp627
g10
I15
sg11
(I6
I9
tp628
sg13
I7
sg14
I11
sg15
I12
sg16
I3960482443532127989
sb(imulti_robot_problem
MultiRobotState
p629
(dp630
g19
g20
((lp631
(I5
I9
tp632
ag628
a(I9
I1
tp633
a(I4
I10
tp634
a(I5
I6
tp635
a(I7
I7
tp636
a(I2
I10
tp637
a(I3
I9
tp638
a(I9
I4
tp639
a(I5
I10
tp640
a(I6
I4
tp641
a(I6
I5
tp642
a(I1
I2
tp643
a(I7
I4
tp644
a(I8
I3
tp645
a(I6
I7
tp646
a(I2
I9
tp647
a(I10
I7
tp648
a(I5
I7
tp649
a(I6
I3
tp650
a(I8
I1
tp651
a(I0
I9
tp652
a(I8
I6
tp653
a(I7
I8
tp654
a(I11
I6
tp655
a(I9
I7
tp656
atp657
Rp658
sg15
I12
sg30
g20
((lp659
(I7
I3
tp660
a(I2
I6
tp661
a(I5
I5
tp662
a(I3
I0
tp663
a(I3
I8
tp664
a(I0
I6
tp665
a(I11
I1
tp666
a(I1
I6
tp667
a(I4
I3
tp668
a(I1
I7
tp669
a(I1
I3
tp670
a(I1
I0
tp671
a(I10
I1
tp672
a(I1
I1
tp673
a(I10
I2
tp674
atp675
Rp676
sg13
((I11
I10
tp677
(I1
I8
tp678
(I10
I5
tp679
(I11
I0
tp680
(I4
I8
tp681
(I7
I9
tp682
(I7
I1
tp683
tp684
sg14
I11
sbssg161
S'heavy_roomset'
p685
sbsg161
g163
sg164
(dp686
g446
((lp687
F40.75
tp688
sg490
((lp689
F40.19999999999709
tp690
sg536
((lp691
(F2.9800000000032014
I9
tp692
aF40.200000000004366
tp693
sg575
((lp694
F40.719999999993888
tp695
sg626
((lp696
F40.280000000006112
tp697
ssba(imeasure_core
ProblemSetSolution
p698
(dp699
g3
g4
sg161
S"AnytimeBeam-w20-gf(4, 'lin')_with_PowerHeuristic2"
p700
sg164
(dp701
g8
((lp702
(F1.7699999999967986
I28
tp703
aF40.019999999996799
tp704
sg47
((lp705
(F0.099999999998544808
I19
tp706
aF40.0
tp707
sg76
((lp708
(F3.7600000000020373
I10
tp709
aF40.660000000003492
tp710
sg106
((lp711
(F0.4699999999938882
I14
tp712
aF40.049999999995634
tp713
sg136
((lp714
(F0.08000000000174623
I30
tp715
a(F0.16000000000349246
I28
tp716
a(F0.48000000000320142
I27
tp717
a(F0.90000000000145519
I25
tp718
a(F1.25
I23
tp719
a(F1.5400000000008731
I22
tp720
a(F2.7600000000020373
I21
tp721
a(F3.8400000000037835
I20
tp722
aF40.0
tp723
ssba(imeasure_core
ProblemSetSolution
p724
(dp725
g3
g190
sg161
g700
sg164
(dp726
g193
((lp727
(F0.29999999999563443
I7
tp728
aF40.089999999996508
tp729
sg240
((lp730
F40.010000000002037
tp731
sg285
((lp732
(F0.5900000000037835
I20
tp733
aF40.010000000002037
tp734
sg337
((lp735
(F2.1599999999962165
I15
tp736
aF40.309999999997672
tp737
sg383
((lp738
(F5.4100000000034925
I66
tp739
aF40.090000000003783
tp740
ssba(imeasure_core
ProblemSetSolution
p741
(dp742
g3
g443
sg161
g700
sg164
(dp743
g446
((lp744
F43.080000000001746
tp745
sg490
((lp746
F40.269999999996799
tp747
sg536
((lp748
(F3.6700000000055297
I9
tp749
aF40.060000000004948
tp750
sg575
((lp751
F40.269999999996799
tp752
sg626
((lp753
F40.790000000000873
tp754
ssba(imeasure_core
ProblemSetSolution
p755
(dp756
g3
g4
sg161
S"AnytimeBeam-w20-gf(8, 'lin')_with_PowerHeuristic2"
p757
sg164
(dp758
g8
((lp759
(F1.7600000000020373
I28
tp760
aF40.069999999999709
tp761
sg47
((lp762
(F0.090000000003783498
I19
tp763
aF40.010000000002037
tp764
sg76
((lp765
(F4.25
I10
tp766
aF41.139999999999418
tp767
sg106
((lp768
(F0.45999999999912689
I14
tp769
aF40.019999999996799
tp770
sg136
((lp771
(F0.08000000000174623
I30
tp772
a(F0.16000000000349246
I28
tp773
a(F0.48000000000320142
I27
tp774
a(F0.88999999999941792
I25
tp775
a(F1.25
I23
tp776
a(F1.5400000000008731
I22
tp777
a(F2.7600000000020373
I21
tp778
a(F3.8400000000037835
I20
tp779
aF40.0
tp780
ssba(imeasure_core
ProblemSetSolution
p781
(dp782
g3
g190
sg161
g757
sg164
(dp783
g193
((lp784
(F0.31000000000494765
I7
tp785
aF40.060000000004948
tp786
sg240
((lp787
F40.040000000000873
tp788
sg285
((lp789
(F0.58999999999650754
I20
tp790
aF40.0
tp791
sg337
((lp792
(F2.2599999999947613
I15
tp793
aF40.110000000000582
tp794
sg383
((lp795
(F6.0
I66
tp796
aF40.059999999997672
tp797
ssba(imeasure_core
ProblemSetSolution
p798
(dp799
g3
g443
sg161
g757
sg164
(dp800
g446
((lp801
F41.599999999998545
tp802
sg490
((lp803
F40.369999999995343
tp804
sg536
((lp805
(F4.3600000000005821
I9
tp806
aF40.100000000005821
tp807
sg575
((lp808
F40.619999999995343
tp809
sg626
((lp810
F40.660000000003492
tp811
ssba(imeasure_core
ProblemSetSolution
p812
(dp813
g3
g4
sg161
S"AnytimeBeam-w20-gf(16, 'lin')_with_PowerHeuristic2"
p814
sg164
(dp815
g8
((lp816
(F1.75
I28
tp817
aF40.080000000001746
tp818
sg47
((lp819
(F0.099999999998544808
I19
tp820
aF40.010000000002037
tp821
sg76
((lp822
(F5.1399999999994179
I10
tp823
aF40.769999999996799
tp824
sg106
((lp825
(F0.47000000000116415
I14
tp826
aF40.0
tp827
sg136
((lp828
(F0.08000000000174623
I30
tp829
a(F0.16000000000349246
I28
tp830
a(F0.49000000000523869
I27
tp831
a(F0.90000000000145519
I25
tp832
a(F1.2600000000020373
I23
tp833
a(F1.5600000000049477
I22
tp834
a(F2.7900000000008731
I21
tp835
a(F3.8800000000046566
I20
tp836
aF40.0
tp837
ssba(imeasure_core
ProblemSetSolution
p838
(dp839
g3
g190
sg161
g814
sg164
(dp840
g193
((lp841
(F0.31000000000494765
I7
tp842
aF40.210000000006403
tp843
sg240
((lp844
F40.139999999999418
tp845
sg285
((lp846
(F0.58999999999650754
I20
tp847
aF40.029999999998836
tp848
sg337
((lp849
(F2.3399999999965075
I15
tp850
aF40.129999999997381
tp851
sg383
((lp852
(F6.1699999999982538
I66
tp853
aF40.160000000003492
tp854
ssba(imeasure_core
ProblemSetSolution
p855
(dp856
g3
g443
sg161
g814
sg164
(dp857
g446
((lp858
F43.349999999998545
tp859
sg490
((lp860
F40.049999999995634
tp861
sg536
((lp862
(F4.8800000000046566
I9
tp863
aF40.360000000000582
tp864
sg575
((lp865
F41.5
tp866
sg626
((lp867
F41.020000000004075
tp868
ssba(imeasure_core
ProblemSetSolution
p869
(dp870
g3
g4
sg161
S"AnytimeBeam-w20-gf(2, 'lin')_with_LinearHeuristic"
p871
sg164
(dp872
g8
((lp873
(F0.37999999999738066
I5
tp874
aF40.180000000000291
tp875
sg47
((lp876
(F0.23999999999796273
I22
tp877
aF40.0
tp878
sg76
((lp879
(F4.4199999999982538
I10
tp880
aF40.159999999996217
tp881
sg106
((lp882
F40.0
tp883
sg136
((lp884
(F0.010000000002037268
I20
tp885
aF40.0
tp886
ssba(imeasure_core
ProblemSetSolution
p887
(dp888
g3
g190
sg161
g871
sg164
(dp889
g193
((lp890
(F18.959999999999127
I177
tp891
aF40.209999999999127
tp892
sg240
((lp893
F40.060000000004948
tp894
sg285
((lp895
F40.110000000000582
tp896
sg337
((lp897
F40.049999999995634
tp898
sg383
((lp899
(F0.81000000000494765
I23
tp900
a(F15.430000000000291
I21
tp901
a(F22.560000000004948
I20
tp902
a(F33.590000000003783
I19
tp903
aF40.0
tp904
ssba(imeasure_core
ProblemSetSolution
p905
(dp906
g3
g443
sg161
g871
sg164
(dp907
g446
((lp908
F46.540000000000873
tp909
sg490
((lp910
F40.080000000001746
tp911
sg536
((lp912
(F32.680000000000291
I95
tp913
aF40.039999999993597
tp914
sg575
((lp915
F40.17000000000553
tp916
sg626
((lp917
F42.059999999997672
tp918
ssba(imeasure_core
ProblemSetSolution
p919
(dp920
g3
g4
sg161
S"AnytimeBeam-w20-gf(4, 'lin')_with_LinearHeuristic"
p921
sg164
(dp922
g8
((lp923
(F0.37999999999738066
I5
tp924
aF40.150000000001455
tp925
sg47
((lp926
(F0.25
I22
tp927
aF40.0
tp928
sg76
((lp929
(F4.8499999999985448
I10
tp930
aF40.470000000001164
tp931
sg106
((lp932
F40.119999999995343
tp933
sg136
((lp934
(F0.010000000002037268
I20
tp935
aF40.0
tp936
ssba(imeasure_core
ProblemSetSolution
p937
(dp938
g3
g190
sg161
g921
sg164
(dp939
g193
((lp940
(F21.680000000000291
I177
tp941
aF40.040000000000873
tp942
sg240
((lp943
F40.010000000002037
tp944
sg285
((lp945
F40.069999999999709
tp946
sg337
((lp947
F40.110000000000582
tp948
sg383
((lp949
(F0.87999999999738066
I23
tp950
a(F17.150000000001455
I21
tp951
a(F24.889999999999418
I20
tp952
a(F36.849999999998545
I19
tp953
aF40.040000000000873
tp954
ssba(imeasure_core
ProblemSetSolution
p955
(dp956
g3
g443
sg161
g921
sg164
(dp957
g446
((lp958
F50.910000000003492
tp959
sg490
((lp960
F40.139999999999418
tp961
sg536
((lp962
(F38.580000000001746
I95
tp963
aF40.370000000002619
tp964
sg575
((lp965
F40.220000000001164
tp966
sg626
((lp967
F41.969999999993888
tp968
ssba(imeasure_core
ProblemSetSolution
p969
(dp970
g3
g4
sg161
S"AnytimeBeam-w20-gf(8, 'lin')_with_LinearHeuristic"
p971
sg164
(dp972
g8
((lp973
(F0.38000000000465661
I5
tp974
aF40.020000000004075
tp975
sg47
((lp976
(F0.25
I22
tp977
aF40.010000000002037
tp978
sg76
((lp979
(F5.7899999999935972
I10
tp980
aF40.069999999999709
tp981
sg106
((lp982
F40.059999999997672
tp983
sg136
((lp984
(F0.019999999996798579
I20
tp985
aF40.0
tp986
ssba(imeasure_core
ProblemSetSolution
p987
(dp988
g3
g190
sg161
g971
sg164
(dp989
g193
((lp990
(F23.979999999995925
I177
tp991
aF40.099999999998545
tp992
sg240
((lp993
F40.099999999998545
tp994
sg285
((lp995
F40.150000000001455
tp996
sg337
((lp997
F40.290000000000873
tp998
sg383
((lp999
(F0.94999999999708962
I23
tp1000
a(F18.540000000000873
I21
tp1001
a(F26.879999999997381
I20
tp1002
a(F39.849999999998545
I19
tp1003
aF40.010000000002037
tp1004
ssba(imeasure_core
ProblemSetSolution
p1005
(dp1006
g3
g443
sg161
g971
sg164
(dp1007
g446
((lp1008
F44.710000000006403
tp1009
sg490
((lp1010
F40.049999999995634
tp1011
sg536
((lp1012
F40.0
tp1013
sg575
((lp1014
F40.340000000003783
tp1015
sg626
((lp1016
F42.119999999995343
tp1017
ssba(imeasure_core
ProblemSetSolution
p1018
(dp1019
g3
g4
sg161
S"AnytimeBeam-w20-gf(16, 'lin')_with_LinearHeuristic"
p1020
sg164
(dp1021
g8
((lp1022
(F0.37000000000261934
I5
tp1023
aF40.19999999999709
tp1024
sg47
((lp1025
(F0.26000000000203727
I22
tp1026
aF40.0
tp1027
sg76
((lp1028
(F6.1399999999994179
I10
tp1029
aF40.260000000002037
tp1030
sg106
((lp1031
F40.180000000000291
tp1032
sg136
((lp1033
(F0.010000000002037268
I20
tp1034
aF40.0
tp1035
ssba(imeasure_core
ProblemSetSolution
p1036
(dp1037
g3
g190
sg161
g1020
sg164
(dp1038
g193
((lp1039
(F25.849999999998545
I177
tp1040
aF40.099999999998545
tp1041
sg240
((lp1042
F40.080000000001746
tp1043
sg285
((lp1044
F40.099999999998545
tp1045
sg337
((lp1046
F40.30000000000291
tp1047
sg383
((lp1048
(F0.98999999999796273
I23
tp1049
a(F18.970000000001164
I21
tp1050
a(F27.589999999996508
I20
tp1051
aF40.019999999996799
tp1052
ssba(imeasure_core
ProblemSetSolution
p1053
(dp1054
g3
g443
sg161
g1020
sg164
(dp1055
g446
((lp1056
F47.470000000001164
tp1057
sg490
((lp1058
F40.059999999997672
tp1059
sg536
((lp1060
F41.890000000006694
tp1061
sg575
((lp1062
F40.479999999995925
tp1063
sg626
((lp1064
F40.849999999998545
tp1065
ssba.