(lp0
(imeasure_core
ProblemSetSolution
p1
(dp2
S'roomset'
p3
(imeasure_core
RoomSet
p4
(dp5
S'rooms'
p6
(dp7
(iproblems
RoomID
p8
(dp9
S'dusts'
p10
I6
sS'obstacles'
p11
(I0
I4
tp12
sS'robots'
p13
I1
sS'height'
p14
I9
sS'width'
p15
I9
sS'seed'
p16
I1164115433906158532
sb(imulti_robot_problem
MultiRobotState
p17
(dp18
S'obstacle_locations'
p19
c__builtin__
frozenset
p20
((lp21
(I0
I1
tp22
a(I1
I2
tp23
a(I1
I3
tp24
a(I1
I4
tp25
ag12
atp26
Rp27
sg15
I9
sS'dirt_locations'
p28
g20
((lp29
(I6
I4
tp30
a(I1
I8
tp31
a(I1
I6
tp32
a(I1
I0
tp33
a(I8
I5
tp34
a(I3
I5
tp35
atp36
Rp37
sg13
((I4
I5
tp38
tp39
sg14
I9
sbs(iproblems
RoomID
p40
(dp41
g10
I8
sg11
(I6
I5
tp42
sg13
I5
sg14
I8
sg15
I7
sg16
I2175216119781798972
sb(imulti_robot_problem
MultiRobotState
p43
(dp44
g19
g20
((lp45
(I1
I2
tp46
a(I2
I6
tp47
a(I6
I7
tp48
a(I6
I6
tp49
a(I5
I7
tp50
a(I2
I3
tp51
a(I0
I4
tp52
a(I1
I0
tp53
ag42
atp54
Rp55
sg15
I7
sg28
g20
((lp56
(I5
I4
tp57
a(I5
I5
tp58
a(I4
I4
tp59
a(I0
I6
tp60
a(I0
I5
tp61
a(I1
I7
tp62
a(I4
I2
tp63
a(I0
I2
tp64
atp65
Rp66
sg13
((I1
I3
tp67
(I6
I4
tp68
(I3
I7
tp69
(I6
I0
tp70
(I2
I1
tp71
tp72
sg14
I8
sbs(iproblems
RoomID
p73
(dp74
g10
I9
sg11
(I2
I2
tp75
sg13
I2
sg14
I9
sg15
I7
sg16
I3872982626502034966
sb(imulti_robot_problem
MultiRobotState
p76
(dp77
g19
g20
((lp78
(I4
I1
tp79
a(I2
I6
tp80
a(I3
I1
tp81
a(I5
I0
tp82
ag75
atp83
Rp84
sg15
I7
sg28
g20
((lp85
(I4
I7
tp86
a(I2
I8
tp87
a(I4
I4
tp88
a(I3
I2
tp89
a(I2
I1
tp90
a(I1
I4
tp91
a(I4
I2
tp92
a(I0
I3
tp93
a(I5
I8
tp94
atp95
Rp96
sg13
((I1
I6
tp97
(I1
I7
tp98
tp99
sg14
I9
sbs(iproblems
RoomID
p100
(dp101
g10
I5
sg11
(I0
I4
tp102
sg13
I5
sg14
I7
sg15
I7
sg16
I8711387064946514083
sb(imulti_robot_problem
MultiRobotState
p103
(dp104
g19
g20
((lp105
(I0
I1
tp106
a(I2
I2
tp107
a(I0
I2
tp108
a(I1
I5
tp109
ag102
a(I0
I3
tp110
a(I2
I4
tp111
a(I6
I5
tp112
atp113
Rp114
sg15
I7
sg28
g20
((lp115
(I5
I6
tp116
a(I6
I4
tp117
a(I3
I2
tp118
a(I6
I1
tp119
a(I6
I6
tp120
atp121
Rp122
sg13
((I1
I1
tp123
(I6
I0
tp124
(I5
I0
tp125
(I1
I3
tp126
(I4
I5
tp127
tp128
sg14
I7
sbs(iproblems
RoomID
p129
(dp130
g10
I9
sg11
(I6
I3
tp131
sg13
I4
sg14
I9
sg15
I10
sg16
I7002664860023442459
sb(imulti_robot_problem
MultiRobotState
p132
(dp133
g19
g20
((lp134
(I7
I4
tp135
a(I7
I3
tp136
ag131
a(I6
I5
tp137
a(I9
I7
tp138
atp139
Rp140
sg15
I10
sg28
g20
((lp141
(I0
I0
tp142
a(I6
I8
tp143
a(I2
I8
tp144
a(I5
I7
tp145
a(I2
I6
tp146
a(I4
I2
tp147
a(I5
I1
tp148
a(I8
I6
tp149
a(I8
I4
tp150
atp151
Rp152
sg13
((I7
I5
tp153
(I7
I6
tp154
(I1
I7
tp155
(I1
I6
tp156
tp157
sg14
I9
sbssS'name'
p158
S'easy_roomset'
p159
sbsg158
S'LimitedTimeAStar_with_PowerHeuristic2'
p160
sS'solutions'
p161
(dp162
g8
((lp163
F0.15000000000009095
tp164
sg40
((lp165
F0.53999999999996362
tp166
sg73
((lp167
F0.15000000000009095
tp168
sg100
((lp169
F0.20999999999980901
tp170
sg129
((lp171
F1.0200000000002092
tp172
ssba(imeasure_core
ProblemSetSolution
p173
(dp174
g3
(imeasure_core
RoomSet
p175
(dp176
g6
(dp177
(iproblems
RoomID
p178
(dp179
g10
I6
sg11
(I5
I5
tp180
sg13
I3
sg14
I11
sg15
I11
sg16
I1164115433906158532
sb(imulti_robot_problem
MultiRobotState
p181
(dp182
g19
g20
((lp183
(I5
I4
tp184
a(I1
I3
tp185
a(I4
I3
tp186
a(I4
I8
tp187
a(I3
I0
tp188
a(I8
I0
tp189
a(I3
I2
tp190
a(I0
I7
tp191
a(I2
I1
tp192
a(I3
I9
tp193
a(I0
I5
tp194
a(I1
I4
tp195
a(I3
I7
tp196
a(I2
I5
tp197
a(I5
I3
tp198
a(I8
I3
tp199
a(I3
I1
tp200
ag180
a(I2
I0
tp201
a(I3
I10
tp202
a(I6
I10
tp203
a(I0
I6
tp204
a(I1
I8
tp205
a(I3
I6
tp206
a(I4
I5
tp207
a(I0
I2
tp208
atp209
Rp210
sg15
I11
sg28
g20
((lp211
(I7
I5
tp212
a(I8
I8
tp213
a(I4
I9
tp214
a(I4
I6
tp215
a(I10
I6
tp216
a(I8
I2
tp217
atp218
Rp219
sg13
((I5
I7
tp220
(I2
I10
tp221
(I2
I8
tp222
tp223
sg14
I11
sbs(iproblems
RoomID
p224
(dp225
g10
I8
sg11
(I5
I4
tp226
sg13
I4
sg14
I10
sg15
I9
sg16
I2175216119781798972
sb(imulti_robot_problem
MultiRobotState
p227
(dp228
g19
g20
((lp229
(I6
I6
tp230
a(I2
I8
tp231
a(I0
I7
tp232
a(I6
I2
tp233
a(I1
I6
tp234
a(I2
I5
tp235
a(I5
I5
tp236
a(I8
I1
tp237
a(I7
I6
tp238
a(I6
I3
tp239
a(I2
I2
tp240
a(I8
I6
tp241
a(I6
I4
tp242
ag226
a(I8
I2
tp243
a(I7
I1
tp244
a(I1
I4
tp245
a(I7
I5
tp246
a(I8
I7
tp247
a(I1
I0
tp248
a(I6
I5
tp249
a(I3
I3
tp250
a(I8
I3
tp251
a(I7
I0
tp252
a(I6
I8
tp253
a(I3
I4
tp254
a(I7
I4
tp255
a(I0
I6
tp256
a(I1
I8
tp257
a(I8
I8
tp258
a(I4
I3
tp259
a(I1
I7
tp260
a(I7
I8
tp261
a(I0
I2
tp262
atp263
Rp264
sg15
I9
sg28
g20
((lp265
(I6
I7
tp266
a(I2
I9
tp267
a(I5
I6
tp268
a(I3
I1
tp269
a(I8
I9
tp270
a(I0
I5
tp271
a(I0
I3
tp272
a(I5
I2
tp273
atp274
Rp275
sg13
((I2
I4
tp276
(I8
I5
tp277
(I4
I9
tp278
(I7
I7
tp279
tp280
sg14
I10
sbs(iproblems
RoomID
p281
(dp282
g10
I9
sg11
(I5
I3
tp283
sg13
I3
sg14
I9
sg15
I9
sg16
I1885758236351349410
sb(imulti_robot_problem
MultiRobotState
p284
(dp285
g19
g20
((lp286
(I4
I7
tp287
a(I5
I7
tp288
a(I7
I1
tp289
a(I5
I6
tp290
a(I5
I4
tp291
a(I0
I0
tp292
a(I2
I3
tp293
a(I4
I2
tp294
a(I8
I5
tp295
ag283
a(I6
I7
tp296
a(I5
I5
tp297
a(I4
I4
tp298
a(I1
I5
tp299
a(I4
I3
tp300
a(I0
I4
tp301
a(I1
I6
tp302
a(I3
I4
tp303
a(I2
I4
tp304
atp305
Rp306
sg15
I9
sg28
g20
((lp307
(I7
I3
tp308
a(I7
I0
tp309
a(I3
I0
tp310
a(I6
I1
tp311
a(I1
I4
tp312
a(I0
I5
tp313
a(I5
I0
tp314
a(I1
I1
tp315
a(I8
I4
tp316
atp317
Rp318
sg13
((I0
I1
tp319
(I2
I6
tp320
(I0
I2
tp321
tp322
sg14
I9
sbs(iproblems
RoomID
p323
(dp324
g10
I9
sg11
(I4
I3
tp325
sg13
I4
sg14
I11
sg15
I12
sg16
I7002664860023442459
sb(imulti_robot_problem
MultiRobotState
p326
(dp327
g19
g20
((lp328
(I11
I8
tp329
a(I0
I0
tp330
a(I10
I4
tp331
a(I3
I0
tp332
a(I9
I3
tp333
a(I6
I0
tp334
a(I2
I1
tp335
a(I8
I9
tp336
a(I9
I4
tp337
a(I5
I1
tp338
a(I8
I5
tp339
a(I5
I8
tp340
a(I8
I2
tp341
a(I7
I0
tp342
a(I8
I7
tp343
a(I3
I3
tp344
a(I1
I5
tp345
a(I8
I1
tp346
a(I9
I6
tp347
a(I3
I1
tp348
a(I9
I2
tp349
a(I2
I0
tp350
ag325
a(I2
I2
tp351
a(I9
I5
tp352
a(I5
I2
tp353
a(I2
I4
tp354
atp355
Rp356
sg15
I12
sg28
g20
((lp357
(I0
I1
tp358
a(I10
I8
tp359
a(I2
I8
tp360
a(I3
I10
tp361
a(I10
I6
tp362
a(I6
I2
tp363
a(I3
I7
tp364
a(I7
I8
tp365
a(I7
I9
tp366
atp367
Rp368
sg13
((I9
I7
tp369
(I8
I8
tp370
(I2
I9
tp371
(I1
I7
tp372
tp373
sg14
I11
sbs(iproblems
RoomID
p374
(dp375
g10
I9
sg11
(I3
I0
tp376
sg13
I3
sg14
I9
sg15
I12
sg16
I4912931603392816429
sb(imulti_robot_problem
MultiRobotState
p377
(dp378
g19
g20
((lp379
(I6
I4
tp380
a(I4
I7
tp381
a(I0
I0
tp382
a(I4
I8
tp383
a(I5
I6
tp384
a(I2
I8
tp385
a(I0
I7
tp386
a(I4
I6
tp387
a(I7
I5
tp388
a(I4
I2
tp389
a(I0
I3
tp390
a(I7
I2
tp391
a(I6
I8
tp392
a(I10
I5
tp393
a(I5
I5
tp394
a(I7
I8
tp395
a(I4
I4
tp396
a(I5
I2
tp397
ag376
a(I8
I8
tp398
a(I5
I8
tp399
a(I1
I7
tp400
a(I4
I5
tp401
a(I8
I6
tp402
a(I5
I3
tp403
a(I4
I1
tp404
atp405
Rp406
sg15
I12
sg28
g20
((lp407
(I7
I3
tp408
a(I7
I1
tp409
a(I8
I1
tp410
a(I6
I3
tp411
a(I11
I8
tp412
a(I8
I7
tp413
a(I3
I7
tp414
a(I2
I5
tp415
a(I3
I4
tp416
atp417
Rp418
sg13
((I9
I1
tp419
(I1
I6
tp420
(I8
I4
tp421
tp422
sg14
I9
sbssg158
S'mild_roomset'
p423
sbsg158
g160
sg161
(dp424
g178
((lp425
F39.799999999999955
tp426
sg224
((lp427
F0.91999999999984539
tp428
sg281
((lp429
F36.589999999999918
tp430
sg323
((lp431
F0.44000000000005457
tp432
sg374
((lp433
F0.099999999999909051
tp434
ssba(imeasure_core
ProblemSetSolution
p435
(dp436
g3
(imeasure_core
RoomSet
p437
(dp438
g6
(dp439
(iproblems
RoomID
p440
(dp441
g10
I11
sg11
(I7
I9
tp442
sg13
I5
sg14
I12
sg15
I12
sg16
I1164115433906158532
sb(imulti_robot_problem
MultiRobotState
p443
(dp444
g19
g20
((lp445
(I4
I7
tp446
a(I1
I3
tp447
a(I5
I6
tp448
a(I9
I3
tp449
a(I1
I4
tp450
a(I0
I5
tp451
a(I7
I11
tp452
a(I1
I0
tp453
a(I5
I8
tp454
a(I3
I3
tp455
a(I3
I1
tp456
a(I6
I7
tp457
a(I6
I8
tp458
a(I7
I8
tp459
a(I5
I7
tp460
ag442
a(I4
I1
tp461
a(I0
I2
tp462
atp463
Rp464
sg15
I12
sg28
g20
((lp465
(I4
I10
tp466
a(I9
I0
tp467
a(I2
I6
tp468
a(I5
I10
tp469
a(I9
I2
tp470
a(I0
I7
tp471
a(I8
I9
tp472
a(I1
I6
tp473
a(I8
I5
tp474
a(I4
I11
tp475
a(I5
I3
tp476
atp477
Rp478
sg13
((I1
I2
tp479
(I2
I11
tp480
(I2
I0
tp481
(I2
I9
tp482
(I11
I7
tp483
tp484
sg14
I12
sbs(iproblems
RoomID
p485
(dp486
g10
I10
sg11
(I0
I7
tp487
sg13
I7
sg14
I10
sg15
I10
sg16
I8711387064946514083
sb(imulti_robot_problem
MultiRobotState
p488
(dp489
g19
g20
((lp490
(I5
I9
tp491
a(I6
I9
tp492
a(I2
I6
tp493
a(I2
I9
tp494
a(I0
I6
tp495
ag487
a(I1
I5
tp496
a(I8
I8
tp497
a(I0
I5
tp498
a(I4
I3
tp499
a(I0
I4
tp500
a(I0
I3
tp501
a(I9
I7
tp502
a(I0
I2
tp503
a(I7
I9
tp504
atp505
Rp506
sg15
I10
sg28
g20
((lp507
(I9
I0
tp508
a(I3
I3
tp509
a(I7
I1
tp510
a(I8
I1
tp511
a(I9
I8
tp512
a(I4
I4
tp513
a(I9
I9
tp514
a(I3
I6
tp515
a(I1
I7
tp516
a(I8
I6
tp517
atp518
Rp519
sg13
((I1
I1
tp520
(I8
I0
tp521
(I7
I0
tp522
(I2
I5
tp523
(I6
I7
tp524
(I8
I9
tp525
(I5
I8
tp526
tp527
sg14
I10
sbs(iproblems
RoomID
p528
(dp529
g10
I14
sg11
(I0
I3
tp530
sg13
I7
sg14
I12
sg15
I13
sg16
I7002664860023442459
sb(imulti_robot_problem
MultiRobotState
p531
(dp532
g19
g20
((lp533
(I1
I2
tp534
a(I11
I4
tp535
a(I9
I8
tp536
a(I10
I6
tp537
ag530
a(I0
I8
tp538
a(I10
I3
tp539
a(I0
I1
tp540
a(I10
I5
tp541
a(I10
I7
tp542
a(I7
I8
tp543
a(I9
I9
tp544
a(I0
I9
tp545
a(I9
I5
tp546
a(I3
I4
tp547
a(I0
I2
tp548
a(I11
I6
tp549
a(I9
I7
tp550
atp551
Rp552
sg15
I13
sg28
g20
((lp553
(I6
I4
tp554
a(I11
I9
tp555
a(I4
I6
tp556
a(I2
I9
tp557
a(I5
I9
tp558
a(I12
I2
tp559
a(I3
I1
tp560
a(I3
I11
tp561
a(I10
I10
tp562
a(I7
I4
tp563
a(I0
I0
tp564
a(I11
I5
tp565
a(I2
I5
tp566
a(I12
I9
tp567
atp568
Rp569
sg13
((I2
I10
tp570
(I1
I8
tp571
(I8
I10
tp572
(I7
I2
tp573
(I3
I8
tp574
(I6
I2
tp575
(I7
I9
tp576
tp577
sg14
I12
sbs(iproblems
RoomID
p578
(dp579
g10
I10
sg11
(I6
I7
tp580
sg13
I6
sg14
I10
sg15
I13
sg16
I8999366892653588108
sb(imulti_robot_problem
MultiRobotState
p581
(dp582
g19
g20
((lp583
(I5
I4
tp584
ag580
a(I5
I5
tp585
a(I5
I6
tp586
a(I7
I6
tp587
a(I4
I2
tp588
a(I2
I3
tp589
a(I8
I6
tp590
a(I12
I1
tp591
a(I5
I3
tp592
a(I6
I5
tp593
a(I3
I3
tp594
atp595
Rp596
sg15
I13
sg28
g20
((lp597
(I6
I9
tp598
a(I7
I0
tp599
a(I5
I7
tp600
a(I12
I6
tp601
a(I2
I1
tp602
a(I0
I5
tp603
a(I10
I1
tp604
a(I0
I3
tp605
a(I7
I9
tp606
a(I3
I5
tp607
atp608
Rp609
sg13
((I12
I0
tp610
(I6
I1
tp611
(I2
I2
tp612
(I6
I4
tp613
(I4
I6
tp614
(I7
I1
tp615
tp616
sg14
I10
sbs(iproblems
RoomID
p617
(dp618
g10
I14
sg11
(I5
I10
tp619
sg13
I5
sg14
I12
sg15
I10
sg16
I3872982626502034966
sb(imulti_robot_problem
MultiRobotState
p620
(dp621
g19
g20
((lp622
(I5
I9
tp623
a(I6
I9
tp624
a(I5
I7
tp625
a(I3
I2
tp626
ag619
a(I4
I10
tp627
a(I4
I8
tp628
a(I3
I11
tp629
a(I2
I1
tp630
a(I6
I2
tp631
a(I1
I4
tp632
a(I8
I7
tp633
a(I6
I8
tp634
a(I6
I7
tp635
a(I5
I8
tp636
a(I3
I5
tp637
a(I4
I9
tp638
a(I4
I6
tp639
a(I8
I1
tp640
a(I7
I1
tp641
a(I3
I8
tp642
a(I4
I3
tp643
a(I5
I2
tp644
a(I1
I1
tp645
atp646
Rp647
sg15
I10
sg28
g20
((lp648
(I5
I3
tp649
a(I3
I1
tp650
a(I8
I11
tp651
a(I9
I3
tp652
a(I0
I2
tp653
a(I6
I3
tp654
a(I3
I9
tp655
a(I2
I3
tp656
a(I9
I5
tp657
a(I7
I11
tp658
a(I0
I8
tp659
a(I3
I10
tp660
a(I7
I2
tp661
a(I9
I7
tp662
atp663
Rp664
sg13
((I1
I8
tp665
(I2
I9
tp666
(I1
I9
tp667
(I1
I5
tp668
(I6
I5
tp669
tp670
sg14
I12
sbssg158
S'heavy_roomset'
p671
sbsg158
g160
sg161
(dp672
g440
((lp673
F31.369999999999891
tp674
sg485
((lp675
F15.950000000000273
tp676
sg528
((lp677
F472.36999999999989
tp678
sg578
((lp679
F345.88999999999987
tp680
sg617
((lp681
F399.86999999999989
tp682
ssba.