(lp0
(imeasure_core
ProblemSetSolution
p1
(dp2
S'roomset'
p3
(imeasure_core
RoomSet
p4
(dp5
S'rooms'
p6
(dp7
(iproblems
RoomID
p8
(dp9
S'dusts'
p10
I8
sS'obstacles'
p11
(I2
I8
tp12
sS'robots'
p13
I4
sS'height'
p14
I10
sS'width'
p15
I7
sS'seed'
p16
I7106521602475165645
sb(imulti_robot_problem
MultiRobotState
p17
(dp18
S'obstacle_locations'
p19
c__builtin__
frozenset
p20
((lp21
(I3
I8
tp22
a(I5
I9
tp23
a(I4
I9
tp24
ag12
a(I5
I2
tp25
a(I5
I8
tp26
atp27
Rp28
sg15
I7
sS'dirt_locations'
p29
g20
((lp30
(I1
I2
tp31
a(I2
I7
tp32
a(I0
I0
tp33
a(I3
I1
tp34
a(I6
I0
tp35
a(I2
I1
tp36
a(I2
I3
tp37
a(I2
I5
tp38
atp39
Rp40
sg13
((I0
I8
tp41
(I4
I5
tp42
(I3
I9
tp43
(I1
I8
tp44
tp45
sg14
I10
sbs(iproblems
RoomID
p46
(dp47
g10
I10
sg11
(I3
I3
tp48
sg13
I4
sg14
I10
sg15
I8
sg16
I746805015404516437
sb(imulti_robot_problem
MultiRobotState
p49
(dp50
g19
g20
((lp51
(I7
I4
tp52
ag48
a(I4
I2
tp53
a(I6
I1
tp54
a(I3
I1
tp55
a(I4
I1
tp56
a(I1
I4
tp57
atp58
Rp59
sg15
I8
sg29
g20
((lp60
(I4
I6
tp61
a(I6
I3
tp62
a(I2
I0
tp63
a(I3
I9
tp64
a(I2
I3
tp65
a(I3
I6
tp66
a(I5
I1
tp67
a(I1
I0
tp68
a(I0
I8
tp69
a(I5
I8
tp70
atp71
Rp72
sg13
((I3
I8
tp73
(I4
I8
tp74
(I4
I9
tp75
(I0
I3
tp76
tp77
sg14
I10
sbs(iproblems
RoomID
p78
(dp79
g10
I6
sg11
(I7
I4
tp80
sg13
I2
sg14
I7
sg15
I9
sg16
I4029557120079369747
sb(imulti_robot_problem
MultiRobotState
p81
(dp82
g19
g20
((lp83
g80
a(I7
I5
tp84
a(I4
I1
tp85
a(I6
I1
tp86
a(I8
I5
tp87
a(I8
I4
tp88
atp89
Rp90
sg15
I9
sg29
g20
((lp91
(I2
I6
tp92
a(I6
I6
tp93
a(I3
I0
tp94
a(I2
I5
tp95
a(I1
I1
tp96
a(I5
I3
tp97
atp98
Rp99
sg13
((I6
I0
tp100
(I3
I1
tp101
tp102
sg14
I7
sbs(iproblems
RoomID
p103
(dp104
g10
I9
sg11
(I7
I6
tp105
sg13
I5
sg14
I9
sg15
I9
sg16
I8963783824838420066
sb(imulti_robot_problem
MultiRobotState
p106
(dp107
g19
g20
((lp108
(I2
I7
tp109
a(I5
I5
tp110
a(I6
I6
tp111
ag105
a(I4
I4
tp112
a(I7
I1
tp113
a(I7
I5
tp114
a(I2
I2
tp115
a(I6
I5
tp116
atp117
Rp118
sg15
I9
sg29
g20
((lp119
(I3
I0
tp120
a(I2
I1
tp121
a(I6
I3
tp122
a(I0
I7
tp123
a(I3
I7
tp124
a(I8
I6
tp125
a(I0
I8
tp126
a(I8
I5
tp127
a(I7
I2
tp128
atp129
Rp130
sg13
((I7
I7
tp131
(I2
I4
tp132
(I3
I2
tp133
(I4
I7
tp134
(I5
I0
tp135
tp136
sg14
I9
sbs(iproblems
RoomID
p137
(dp138
g10
I5
sg11
(I4
I5
tp139
sg13
I1
sg14
I9
sg15
I8
sg16
I6604845167042249220
sb(imulti_robot_problem
MultiRobotState
p140
(dp141
g19
g20
((lp142
(I7
I4
tp143
ag139
a(I5
I4
tp144
a(I6
I1
tp145
a(I6
I5
tp146
atp147
Rp148
sg15
I8
sg29
g20
((lp149
(I2
I8
tp150
a(I1
I0
tp151
a(I1
I1
tp152
a(I4
I3
tp153
a(I4
I8
tp154
atp155
Rp156
sg13
((I3
I6
tp157
tp158
sg14
I9
sbssS'name'
p159
S'easy_roomset'
p160
sbsg159
S"AnytimeBeam-w5-gf(1.5, 'exp')_with_PowerHeuristic2"
p161
sS'solutions'
p162
(dp163
g8
((lp164
(F0.39000000000000001
I15
tp165
aF40.229999999999997
tp166
sg46
((lp167
(F4.730000000000004
I20
tp168
aF40.120000000000005
tp169
sg78
((lp170
(F0.10999999999999943
I18
tp171
aF40.009999999999991
tp172
sg103
((lp173
(F3.9700000000000131
I7
tp174
aF40.530000000000015
tp175
sg137
((lp176
(F0.099999999999994316
I35
tp177
a(F0.79999999999998295
I33
tp178
a(F1.6799999999999784
I30
tp179
a(F2.3700000000000045
I26
tp180
a(F3.1599999999999966
I25
tp181
a(F3.9299999999999784
I23
tp182
a(F4.6799999999999784
I21
tp183
a(F6.0099999999999909
I20
tp184
a(F7.2399999999999807
I18
tp185
aF40.0
tp186
ssba(imeasure_core
ProblemSetSolution
p187
(dp188
g3
(imeasure_core
RoomSet
p189
(dp190
g6
(dp191
(iproblems
RoomID
p192
(dp193
g10
I6
sg11
(I5
I8
tp194
sg13
I3
sg14
I9
sg15
I11
sg16
I4029557120079369747
sb(imulti_robot_problem
MultiRobotState
p195
(dp196
g19
g20
((lp197
(I7
I3
tp198
a(I1
I3
tp199
a(I4
I8
tp200
a(I10
I6
tp201
a(I7
I1
tp202
a(I1
I4
tp203
a(I3
I7
tp204
a(I5
I1
tp205
a(I2
I5
tp206
a(I8
I5
tp207
ag194
a(I10
I5
tp208
a(I4
I6
tp209
a(I10
I7
tp210
a(I9
I6
tp211
a(I6
I1
tp212
a(I4
I4
tp213
a(I6
I3
tp214
a(I3
I6
tp215
a(I1
I7
tp216
a(I9
I5
tp217
a(I2
I4
tp218
a(I8
I4
tp219
atp220
Rp221
sg15
I11
sg29
g20
((lp222
(I3
I8
tp223
a(I8
I8
tp224
a(I7
I2
tp225
a(I5
I2
tp226
a(I1
I1
tp227
a(I2
I1
tp228
atp229
Rp230
sg13
((I8
I0
tp231
(I3
I1
tp232
(I4
I0
tp233
tp234
sg14
I9
sbs(iproblems
RoomID
p235
(dp236
g10
I10
sg11
(I4
I4
tp237
sg13
I4
sg14
I12
sg15
I12
sg16
I2569146471088859254
sb(imulti_robot_problem
MultiRobotState
p238
(dp239
g19
g20
((lp240
(I5
I4
tp241
a(I4
I8
tp242
a(I4
I5
tp243
a(I11
I2
tp244
a(I4
I7
tp245
a(I1
I9
tp246
a(I10
I3
tp247
a(I5
I8
tp248
a(I5
I5
tp249
a(I3
I3
tp250
ag237
a(I2
I11
tp251
a(I5
I6
tp252
a(I7
I2
tp253
a(I4
I3
tp254
a(I2
I2
tp255
a(I10
I0
tp256
a(I5
I11
tp257
a(I1
I1
tp258
atp259
Rp260
sg15
I12
sg29
g20
((lp261
(I2
I7
tp262
a(I10
I10
tp263
a(I3
I0
tp264
a(I3
I11
tp265
a(I0
I2
tp266
a(I1
I5
tp267
a(I9
I4
tp268
a(I0
I8
tp269
a(I2
I4
tp270
a(I11
I6
tp271
atp272
Rp273
sg13
((I9
I11
tp274
(I7
I10
tp275
(I6
I0
tp276
(I10
I1
tp277
tp278
sg14
I12
sbs(iproblems
RoomID
p279
(dp280
g10
I7
sg11
(I5
I4
tp281
sg13
I3
sg14
I11
sg15
I12
sg16
I2577854692418029171
sb(imulti_robot_problem
MultiRobotState
p282
(dp283
g19
g20
((lp284
(I4
I7
tp285
a(I3
I0
tp286
a(I8
I0
tp287
a(I2
I1
tp288
a(I6
I2
tp289
a(I1
I6
tp290
a(I5
I1
tp291
a(I4
I0
tp292
a(I1
I2
tp293
a(I4
I9
tp294
a(I3
I3
tp295
a(I8
I1
tp296
a(I3
I10
tp297
a(I6
I3
tp298
a(I3
I6
tp299
a(I1
I10
tp300
a(I8
I6
tp301
a(I3
I5
tp302
ag281
a(I2
I6
tp303
a(I7
I1
tp304
a(I6
I0
tp305
a(I1
I9
tp306
a(I4
I2
tp307
a(I0
I8
tp308
a(I5
I3
tp309
a(I0
I1
tp310
a(I7
I0
tp311
a(I5
I2
tp312
a(I6
I1
tp313
a(I3
I1
tp314
a(I3
I8
tp315
a(I3
I4
tp316
a(I2
I4
tp317
atp318
Rp319
sg15
I12
sg29
g20
((lp320
(I4
I10
tp321
a(I10
I5
tp322
a(I10
I1
tp323
a(I2
I8
tp324
a(I7
I6
tp325
a(I4
I4
tp326
a(I9
I7
tp327
atp328
Rp329
sg13
((I10
I6
tp330
(I1
I4
tp331
(I11
I8
tp332
tp333
sg14
I11
sbs(iproblems
RoomID
p334
(dp335
g10
I6
sg11
(I4
I5
tp336
sg13
I3
sg14
I12
sg15
I12
sg16
I1360307757430227195
sb(imulti_robot_problem
MultiRobotState
p337
(dp338
g19
g20
((lp339
(I6
I4
tp340
a(I3
I2
tp341
a(I10
I4
tp342
a(I3
I0
tp343
a(I5
I4
tp344
a(I7
I5
tp345
a(I5
I1
tp346
a(I8
I5
tp347
a(I6
I5
tp348
a(I4
I0
tp349
a(I7
I4
tp350
a(I8
I3
tp351
a(I6
I7
tp352
a(I5
I5
tp353
a(I8
I10
tp354
a(I6
I3
tp355
a(I5
I6
tp356
a(I6
I2
tp357
ag336
a(I9
I5
tp358
a(I5
I3
tp359
atp360
Rp361
sg15
I12
sg29
g20
((lp362
(I3
I3
tp363
a(I4
I3
tp364
a(I9
I2
tp365
a(I5
I7
tp366
a(I0
I2
tp367
a(I11
I6
tp368
atp369
Rp370
sg13
((I11
I11
tp371
(I1
I3
tp372
(I0
I1
tp373
tp374
sg14
I12
sbs(iproblems
RoomID
p375
(dp376
g10
I6
sg11
(I2
I4
tp377
sg13
I3
sg14
I10
sg15
I10
sg16
I1821862095355237593
sb(imulti_robot_problem
MultiRobotState
p378
(dp379
g19
g20
((lp380
(I6
I4
tp381
a(I4
I7
tp382
a(I2
I6
tp383
a(I5
I6
tp384
a(I6
I0
tp385
a(I1
I9
tp386
a(I8
I5
tp387
a(I7
I2
tp388
a(I7
I9
tp389
a(I5
I3
tp390
a(I6
I7
tp391
a(I3
I3
tp392
a(I5
I5
tp393
a(I4
I4
tp394
a(I6
I3
tp395
a(I4
I5
tp396
a(I6
I5
tp397
a(I4
I3
tp398
a(I0
I4
tp399
a(I8
I6
tp400
a(I3
I5
tp401
a(I3
I4
tp402
ag377
atp403
Rp404
sg15
I10
sg29
g20
((lp405
(I0
I6
tp406
a(I7
I0
tp407
a(I5
I1
tp408
a(I2
I3
tp409
a(I2
I8
tp410
a(I9
I6
tp411
atp412
Rp413
sg13
((I2
I2
tp414
(I4
I2
tp415
(I0
I7
tp416
tp417
sg14
I10
sbssg159
S'mild_roomset'
p418
sbsg159
g161
sg162
(dp419
g192
((lp420
(F0.28999999999999204
I15
tp421
aF40.030000000000001
tp422
sg235
((lp423
F40.619999999999976
tp424
sg279
((lp425
(F2.1899999999999977
I29
tp426
aF40.04000000000002
tp427
sg334
((lp428
F40.240000000000009
tp429
sg375
((lp430
(F0.28999999999996362
I13
tp431
aF40.009999999999991
tp432
ssba(imeasure_core
ProblemSetSolution
p433
(dp434
g3
(imeasure_core
RoomSet
p435
(dp436
g6
(dp437
(iproblems
RoomID
p438
(dp439
g10
I13
sg11
(I5
I3
tp440
sg13
I6
sg14
I13
sg15
I10
sg16
I7106521602475165645
sb(imulti_robot_problem
MultiRobotState
p441
(dp442
g19
g20
((lp443
(I5
I6
tp444
a(I5
I11
tp445
a(I7
I12
tp446
a(I0
I12
tp447
a(I2
I3
tp448
a(I6
I12
tp449
a(I7
I2
tp450
ag440
a(I1
I2
tp451
a(I4
I5
tp452
a(I8
I12
tp453
a(I7
I1
tp454
a(I2
I11
tp455
a(I6
I3
tp456
a(I6
I11
tp457
a(I0
I4
tp458
a(I0
I9
tp459
a(I0
I5
tp460
a(I3
I4
tp461
atp462
Rp463
sg15
I10
sg29
g20
((lp464
(I0
I1
tp465
a(I8
I3
tp466
a(I4
I6
tp467
a(I7
I11
tp468
a(I6
I9
tp469
a(I0
I11
tp470
a(I3
I9
tp471
a(I2
I12
tp472
a(I8
I6
tp473
a(I5
I1
tp474
a(I3
I7
tp475
a(I0
I3
tp476
a(I3
I5
tp477
atp478
Rp479
sg13
((I0
I10
tp480
(I6
I7
tp481
(I4
I11
tp482
(I1
I11
tp483
(I9
I0
tp484
(I3
I1
tp485
tp486
sg14
I13
sbs(iproblems
RoomID
p487
(dp488
g10
I15
sg11
(I9
I4
tp489
sg13
I6
sg14
I13
sg15
I11
sg16
I746805015404516437
sb(imulti_robot_problem
MultiRobotState
p490
(dp491
g19
g20
((lp492
(I8
I0
tp493
a(I4
I8
tp494
a(I4
I5
tp495
a(I10
I6
tp496
a(I6
I0
tp497
a(I3
I5
tp498
a(I3
I9
tp499
ag489
a(I4
I2
tp500
a(I7
I2
tp501
a(I7
I9
tp502
a(I10
I5
tp503
a(I5
I5
tp504
a(I4
I4
tp505
a(I1
I8
tp506
a(I8
I6
tp507
a(I5
I3
tp508
a(I5
I2
tp509
a(I2
I4
tp510
a(I9
I7
tp511
atp512
Rp513
sg15
I11
sg29
g20
((lp514
(I3
I12
tp515
a(I9
I1
tp516
a(I7
I1
tp517
a(I8
I1
tp518
a(I6
I10
tp519
a(I8
I9
tp520
a(I2
I0
tp521
a(I2
I3
tp522
a(I0
I10
tp523
a(I2
I2
tp524
a(I7
I11
tp525
a(I2
I5
tp526
a(I8
I5
tp527
a(I5
I8
tp528
a(I4
I11
tp529
atp530
Rp531
sg13
((I4
I10
tp532
(I6
I11
tp533
(I5
I12
tp534
(I0
I5
tp535
(I1
I0
tp536
(I7
I10
tp537
tp538
sg14
I13
sbs(iproblems
RoomID
p539
(dp540
g10
I11
sg11
(I9
I6
tp541
sg13
I6
sg14
I10
sg15
I12
sg16
I4029557120079369747
sb(imulti_robot_problem
MultiRobotState
p542
(dp543
g19
g20
((lp544
(I11
I7
tp545
a(I10
I6
tp546
a(I5
I5
tp547
a(I7
I1
tp548
a(I10
I7
tp549
a(I9
I8
tp550
a(I4
I4
tp551
a(I1
I6
tp552
a(I3
I6
tp553
a(I1
I7
tp554
ag541
a(I11
I6
tp555
atp556
Rp557
sg15
I12
sg29
g20
((lp558
(I1
I2
tp559
a(I1
I3
tp560
a(I4
I9
tp561
a(I8
I2
tp562
a(I8
I1
tp563
a(I6
I1
tp564
a(I2
I1
tp565
a(I7
I4
tp566
a(I1
I8
tp567
a(I5
I2
tp568
a(I1
I1
tp569
atp570
Rp571
sg13
((I8
I0
tp572
(I4
I1
tp573
(I4
I0
tp574
(I3
I9
tp575
(I8
I9
tp576
(I3
I8
tp577
tp578
sg14
I10
sbs(iproblems
RoomID
p579
(dp580
g10
I10
sg11
(I6
I7
tp581
sg13
I5
sg14
I12
sg15
I11
sg16
I6604845167042249220
sb(imulti_robot_problem
MultiRobotState
p582
(dp583
g19
g20
((lp584
(I9
I0
tp585
ag581
a(I7
I1
tp586
a(I2
I8
tp587
a(I10
I6
tp588
a(I7
I7
tp589
a(I8
I8
tp590
a(I9
I4
tp591
a(I8
I6
tp592
a(I7
I11
tp593
a(I9
I7
tp594
atp595
Rp596
sg15
I11
sg29
g20
((lp597
(I10
I5
tp598
a(I3
I3
tp599
a(I5
I11
tp600
a(I8
I1
tp601
a(I9
I8
tp602
a(I6
I9
tp603
a(I0
I7
tp604
a(I0
I10
tp605
a(I4
I1
tp606
a(I8
I4
tp607
atp608
Rp609
sg13
((I4
I8
tp610
(I1
I0
tp611
(I2
I2
tp612
(I3
I11
tp613
(I6
I5
tp614
tp615
sg14
I12
sbs(iproblems
RoomID
p616
(dp617
g10
I15
sg11
(I5
I5
tp618
sg13
I6
sg14
I13
sg15
I13
sg16
I2569146471088859254
sb(imulti_robot_problem
MultiRobotState
p619
(dp620
g19
g20
((lp621
(I12
I2
tp622
a(I5
I4
tp623
a(I3
I3
tp624
a(I5
I9
tp625
a(I4
I5
tp626
a(I6
I1
tp627
a(I10
I10
tp628
a(I8
I8
tp629
a(I4
I3
tp630
a(I2
I2
tp631
a(I9
I11
tp632
a(I8
I12
tp633
a(I1
I1
tp634
a(I12
I3
tp635
ag618
atp636
Rp637
sg15
I13
sg29
g20
((lp638
(I10
I5
tp639
a(I3
I12
tp640
a(I8
I2
tp641
a(I5
I6
tp642
a(I12
I7
tp643
a(I11
I3
tp644
a(I0
I2
tp645
a(I11
I0
tp646
a(I0
I9
tp647
a(I2
I12
tp648
a(I1
I10
tp649
a(I3
I7
tp650
a(I10
I11
tp651
a(I2
I4
tp652
a(I5
I12
tp653
atp654
Rp655
sg13
((I9
I12
tp656
(I7
I11
tp657
(I7
I0
tp658
(I10
I1
tp659
(I1
I5
tp660
(I4
I0
tp661
tp662
sg14
I13
sbssg159
S'heavy_roomset'
p663
sbsg159
g161
sg162
(dp664
g438
((lp665
F42.03000000000003
tp666
sg487
((lp667
F43.789999999999964
tp668
sg539
((lp669
(F30.899999999999977
I6
tp670
aF41.149999999999977
tp671
sg579
((lp672
(F23.580000000000041
I21
tp673
aF41.590000000000032
tp674
sg616
((lp675
F50.840000000000032
tp676
ssba(imeasure_core
ProblemSetSolution
p677
(dp678
g3
g4
sg159
S"AnytimeBeam-w15-gf(1.5, 'exp')_with_PowerHeuristic2"
p679
sg162
(dp680
g8
((lp681
(F0.54999999999995453
I15
tp682
aF40.339999999999918
tp683
sg46
((lp684
(F4.4900000000000091
I20
tp685
aF40.210000000000036
tp686
sg78
((lp687
(F0.11000000000001364
I18
tp688
aF40.0
tp689
sg103
((lp690
(F3.9500000000000455
I7
tp691
aF40.159999999999968
tp692
sg137
((lp693
(F0.10000000000002274
I35
tp694
a(F0.79000000000007731
I33
tp695
a(F1.6500000000000909
I30
tp696
a(F2.3400000000000318
I26
tp697
a(F3.1200000000000045
I25
tp698
a(F3.8799999999999955
I23
tp699
a(F4.6299999999999955
I21
tp700
a(F5.9500000000000455
I20
tp701
a(F7.1700000000000728
I18
tp702
aF40.0
tp703
ssba(imeasure_core
ProblemSetSolution
p704
(dp705
g3
g189
sg159
g679
sg162
(dp706
g192
((lp707
(F0.2800000000000864
I15
tp708
aF40.030000000000086
tp709
sg235
((lp710
F40.709999999999923
tp711
sg279
((lp712
(F2.2000000000000455
I29
tp713
aF40.100000000000023
tp714
sg334
((lp715
F40.009999999999991
tp716
sg375
((lp717
(F0.29000000000007731
I13
tp718
aF40.019999999999982
tp719
ssba(imeasure_core
ProblemSetSolution
p720
(dp721
g3
g435
sg159
g679
sg162
(dp722
g438
((lp723
F42.050000000000068
tp724
sg487
((lp725
F40.160000000000082
tp726
sg539
((lp727
(F30.769999999999982
I6
tp728
aF41.069999999999936
tp729
sg579
((lp730
(F23.559999999999945
I21
tp731
aF41.460000000000036
tp732
sg616
((lp733
F50.699999999999818
tp734
ssba(imeasure_core
ProblemSetSolution
p735
(dp736
g3
g4
sg159
S"AnytimeBeam-w25-gf(1.5, 'exp')_with_PowerHeuristic2"
p737
sg162
(dp738
g8
((lp739
(F0.62000000000011823
I15
tp740
aF40.200000000000045
tp741
sg46
((lp742
(F4.6200000000001182
I20
tp743
aF40.180000000000064
tp744
sg78
((lp745
(F0.10999999999989996
I18
tp746
aF40.009999999999991
tp747
sg103
((lp748
(F3.9200000000000728
I7
tp749
aF40.089999999999918
tp750
sg137
((lp751
(F0.10000000000013642
I35
tp752
a(F0.79000000000019099
I33
tp753
a(F1.6500000000000909
I30
tp754
a(F2.3300000000001546
I26
tp755
a(F3.1200000000001182
I25
tp756
a(F3.8800000000001091
I23
tp757
a(F4.6300000000001091
I21
tp758
a(F5.9500000000000455
I20
tp759
a(F7.1800000000000637
I18
tp760
aF40.0
tp761
ssba(imeasure_core
ProblemSetSolution
p762
(dp763
g3
g189
sg159
g737
sg162
(dp764
g192
((lp765
(F0.28000000000020009
I15
tp766
aF40.040000000000191
tp767
sg235
((lp768
F40.740000000000009
tp769
sg279
((lp770
(F2.1799999999998363
I29
tp771
aF40.1099999999999
tp772
sg334
((lp773
F40.400000000000091
tp774
sg375
((lp775
(F0.27999999999997272
I13
tp776
aF40.019999999999982
tp777
ssba(imeasure_core
ProblemSetSolution
p778
(dp779
g3
g435
sg159
g737
sg162
(dp780
g438
((lp781
F42.269999999999982
tp782
sg487
((lp783
F40.220000000000027
tp784
sg539
((lp785
(F30.949999999999818
I6
tp786
aF41.199999999999818
tp787
sg579
((lp788
(F23.660000000000082
I21
tp789
aF41.600000000000136
tp790
sg616
((lp791
F50.809999999999945
tp792
ssba(imeasure_core
ProblemSetSolution
p793
(dp794
g3
g4
sg159
S"AnytimeBeam-w35-gf(1.5, 'exp')_with_PowerHeuristic2"
p795
sg162
(dp796
g8
((lp797
(F0.72000000000002728
I15
tp798
aF40.240000000000009
tp799
sg46
((lp800
(F4.5
I20
tp801
aF40.240000000000009
tp802
sg78
((lp803
(F0.10999999999989996
I18
tp804
aF40.0
tp805
sg103
((lp806
(F3.9300000000000637
I7
tp807
aF40.119999999999891
tp808
sg137
((lp809
(F0.10000000000013642
I35
tp810
a(F0.79000000000019099
I33
tp811
a(F1.6500000000000909
I30
tp812
a(F2.3400000000001455
I26
tp813
a(F3.1300000000001091
I25
tp814
a(F3.8900000000001
I23
tp815
a(F4.6500000000000909
I21
tp816
a(F5.9700000000000273
I20
tp817
a(F7.2000000000000455
I18
tp818
aF40.0
tp819
ssba(imeasure_core
ProblemSetSolution
p820
(dp821
g3
g189
sg159
g795
sg162
(dp822
g192
((lp823
(F0.28000000000020009
I15
tp824
aF40.059999999999945
tp825
sg235
((lp826
F40.570000000000164
tp827
sg279
((lp828
(F2.1799999999998363
I29
tp829
aF40.010000000000218
tp830
sg334
((lp831
F40.279999999999745
tp832
sg375
((lp833
(F0.28999999999996362
I13
tp834
aF40.019999999999982
tp835
ssba(imeasure_core
ProblemSetSolution
p836
(dp837
g3
g435
sg159
g795
sg162
(dp838
g438
((lp839
F42.009999999999764
tp840
sg487
((lp841
F40.230000000000018
tp842
sg539
((lp843
(F30.820000000000164
I6
tp844
aF41.0300000000002
tp845
sg579
((lp846
(F23.579999999999927
I21
tp847
aF41.5
tp848
sg616
((lp849
F50.819999999999709
tp850
ssba(imeasure_core
ProblemSetSolution
p851
(dp852
g3
g4
sg159
S"AnytimeBeam-w45-gf(1.5, 'exp')_with_PowerHeuristic2"
p853
sg162
(dp854
g8
((lp855
(F0.78999999999996362
I15
tp856
aF40.019999999999982
tp857
sg46
((lp858
(F4.8600000000001273
I20
tp859
aF40.059999999999945
tp860
sg78
((lp861
(F0.11000000000012733
I18
tp862
aF40.0
tp863
sg103
((lp864
(F3.9400000000000546
I7
tp865
aF40.160000000000309
tp866
sg137
((lp867
(F0.099999999999909051
I35
tp868
a(F0.78999999999996362
I33
tp869
a(F1.6500000000000909
I30
tp870
a(F2.3299999999999272
I26
tp871
a(F3.1100000000001273
I25
tp872
a(F3.8699999999998909
I23
tp873
a(F4.6199999999998909
I21
tp874
a(F5.9400000000000546
I20
tp875
a(F7.1599999999998545
I18
tp876
aF40.0
tp877
ssba(imeasure_core
ProblemSetSolution
p878
(dp879
g3
g189
sg159
g853
sg162
(dp880
g192
((lp881
(F0.27999999999974534
I15
tp882
aF40.049999999999727
tp883
sg235
((lp884
F40.650000000000091
tp885
sg279
((lp886
(F2.1900000000000546
I29
tp887
aF40.070000000000164
tp888
sg334
((lp889
F40.239999999999782
tp890
sg375
((lp891
(F0.28000000000020009
I13
tp892
aF40.010000000000218
tp893
ssba(imeasure_core
ProblemSetSolution
p894
(dp895
g3
g435
sg159
g853
sg162
(dp896
g438
((lp897
F41.960000000000036
tp898
sg487
((lp899
F43.7800000000002
tp900
sg539
((lp901
(F30.710000000000036
I6
tp902
aF40.949999999999818
tp903
sg579
((lp904
(F23.470000000000255
I21
tp905
aF41.440000000000055
tp906
sg616
((lp907
F50.809999999999945
tp908
ssba(imeasure_core
ProblemSetSolution
p909
(dp910
g3
g4
sg159
S"AnytimeBeam-w5-gf(1.5, 'exp')_with_LinearHeuristic"
p911
sg162
(dp912
g8
((lp913
(F21.139999999999873
I155
tp914
aF40.009999999999764
tp915
sg46
((lp916
(F1.930000000000291
I24
tp917
aF40.269999999999982
tp918
sg78
((lp919
(F0.070000000000163709
I10
tp920
aF40.0
tp921
sg103
((lp922
F40.190000000000055
tp923
sg137
((lp924
(F0.01999999999998181
I18
tp925
aF40.0
tp926
ssba(imeasure_core
ProblemSetSolution
p927
(dp928
g3
g189
sg159
g911
sg162
(dp929
g192
((lp930
F40.380000000000109
tp931
sg235
((lp932
F40.550000000000182
tp933
sg279
((lp934
F40.139999999999873
tp935
sg334
((lp936
F40.440000000000055
tp937
sg375
((lp938
(F34.650000000000091
I134
tp939
aF40.199999999999818
tp940
ssba(imeasure_core
ProblemSetSolution
p941
(dp942
g3
g435
sg159
g911
sg162
(dp943
g438
((lp944
F42.079999999999927
tp945
sg487
((lp946
F52.0300000000002
tp947
sg539
((lp948
F45.929999999999836
tp949
sg579
((lp950
F40.470000000000255
tp951
sg616
((lp952
F45.239999999999782
tp953
ssba(imeasure_core
ProblemSetSolution
p954
(dp955
g3
g4
sg159
S"AnytimeBeam-w15-gf(1.5, 'exp')_with_LinearHeuristic"
p956
sg162
(dp957
g8
((lp958
(F11.169999999999618
I155
tp959
aF40.009999999999764
tp960
sg46
((lp961
(F2.4400000000000546
I24
tp962
aF40.440000000000055
tp963
sg78
((lp964
(F0.07999999999992724
I10
tp965
aF40.010000000000218
tp966
sg103
((lp967
F40.769999999999982
tp968
sg137
((lp969
(F0.0099999999997635314
I18
tp970
aF40.0
tp971
ssba(imeasure_core
ProblemSetSolution
p972
(dp973
g3
g189
sg159
g956
sg162
(dp974
g192
((lp975
F40.090000000000146
tp976
sg235
((lp977
F40.610000000000127
tp978
sg279
((lp979
F40.309999999999945
tp980
sg334
((lp981
F40.119999999999891
tp982
sg375
((lp983
(F34.820000000000164
I134
tp984
aF40.110000000000127
tp985
ssba(imeasure_core
ProblemSetSolution
p986
(dp987
g3
g435
sg159
g956
sg162
(dp988
g438
((lp989
F42.229999999999563
tp990
sg487
((lp991
F52.230000000000473
tp992
sg539
((lp993
F45.75
tp994
sg579
((lp995
F40.659999999999854
tp996
sg616
((lp997
F45.109999999999673
tp998
ssba(imeasure_core
ProblemSetSolution
p999
(dp1000
g3
g4
sg159
S"AnytimeBeam-w25-gf(1.5, 'exp')_with_LinearHeuristic"
p1001
sg162
(dp1002
g8
((lp1003
(F12.110000000000582
I155
tp1004
aF40.210000000000036
tp1005
sg46
((lp1006
(F2.4700000000002547
I24
tp1007
aF40.230000000000473
tp1008
sg78
((lp1009
(F0.069999999999708962
I10
tp1010
aF40.0
tp1011
sg103
((lp1012
F40.289999999999964
tp1013
sg137
((lp1014
(F0.019999999999527063
I18
tp1015
aF40.0
tp1016
ssba(imeasure_core
ProblemSetSolution
p1017
(dp1018
g3
g189
sg159
g1001
sg162
(dp1019
g192
((lp1020
F40.130000000000109
tp1021
sg235
((lp1022
F40.489999999999782
tp1023
sg279
((lp1024
F40.050000000000182
tp1025
sg334
((lp1026
F40.469999999999345
tp1027
sg375
((lp1028
(F34.770000000000437
I134
tp1029
aF40.0600000000004
tp1030
ssba(imeasure_core
ProblemSetSolution
p1031
(dp1032
g3
g435
sg159
g1001
sg162
(dp1033
g438
((lp1034
F42.099999999999454
tp1035
sg487
((lp1036
F52.300000000000182
tp1037
sg539
((lp1038
F45.819999999999709
tp1039
sg579
((lp1040
F40.690000000000509
tp1041
sg616
((lp1042
F45.329999999999927
tp1043
ssba(imeasure_core
ProblemSetSolution
p1044
(dp1045
g3
g4
sg159
S"AnytimeBeam-w35-gf(1.5, 'exp')_with_LinearHeuristic"
p1046
sg162
(dp1047
g8
((lp1048
(F13.529999999999745
I155
tp1049
aF40.0600000000004
tp1050
sg46
((lp1051
(F2.7299999999995634
I24
tp1052
aF40.399999999999636
tp1053
sg78
((lp1054
(F0.07999999999992724
I10
tp1055
aF40.0
tp1056
sg103
((lp1057
F40.800000000000182
tp1058
sg137
((lp1059
(F0.009999999999308784
I18
tp1060
aF40.0
tp1061
ssba(imeasure_core
ProblemSetSolution
p1062
(dp1063
g3
g189
sg159
g1046
sg162
(dp1064
g192
((lp1065
F40.239999999999782
tp1066
sg235
((lp1067
F40.109999999999673
tp1068
sg279
((lp1069
F40.119999999999891
tp1070
sg334
((lp1071
F40.280000000000655
tp1072
sg375
((lp1073
(F35.409999999999854
I134
tp1074
aF40.170000000000073
tp1075
ssba(imeasure_core
ProblemSetSolution
p1076
(dp1077
g3
g435
sg159
g1046
sg162
(dp1078
g438
((lp1079
F42.309999999999491
tp1080
sg487
((lp1081
F52.369999999999891
tp1082
sg539
((lp1083
F45.820000000000618
tp1084
sg579
((lp1085
F40.679999999999382
tp1086
sg616
((lp1087
F45.329999999999927
tp1088
ssba(imeasure_core
ProblemSetSolution
p1089
(dp1090
g3
g4
sg159
S"AnytimeBeam-w45-gf(1.5, 'exp')_with_LinearHeuristic"
p1091
sg162
(dp1092
g8
((lp1093
(F14.130000000000109
I155
tp1094
aF40.079999999999927
tp1095
sg46
((lp1096
(F3.0200000000004366
I24
tp1097
aF40.340000000000146
tp1098
sg78
((lp1099
(F0.069999999999708962
I10
tp1100
aF40.0
tp1101
sg103
((lp1102
F40.149999999999636
tp1103
sg137
((lp1104
(F0.010000000000218279
I18
tp1105
aF40.0
tp1106
ssba(imeasure_core
ProblemSetSolution
p1107
(dp1108
g3
g189
sg159
g1091
sg162
(dp1109
g192
((lp1110
F40.070000000000618
tp1111
sg235
((lp1112
F40.559999999999491
tp1113
sg279
((lp1114
F40.110000000000582
tp1115
sg334
((lp1116
F40.509999999999309
tp1117
sg375
((lp1118
(F34.630000000000109
I134
tp1119
aF40.180000000000291
tp1120
ssba(imeasure_core
ProblemSetSolution
p1121
(dp1122
g3
g435
sg159
g1091
sg162
(dp1123
g438
((lp1124
F42.029999999999745
tp1125
sg487
((lp1126
F52.320000000000618
tp1127
sg539
((lp1128
F45.819999999999709
tp1129
sg579
((lp1130
F40.659999999999854
tp1131
sg616
((lp1132
F45.280000000000655
tp1133
ssba.