(lp0
(imeasure_core
ProblemSetSolution
p1
(dp2
S'roomset'
p3
(imeasure_core
RoomSet
p4
(dp5
S'rooms'
p6
(dp7
(iproblems
RoomID
p8
(dp9
S'dusts'
p10
I10
sS'obstacles'
p11
(I0
I8
tp12
sS'robots'
p13
I4
sS'height'
p14
I10
sS'width'
p15
I9
sS'seed'
p16
I4712128852136459333
sb(imulti_robot_problem
MultiRobotState
p17
(dp18
S'obstacle_locations'
p19
c__builtin__
frozenset
p20
((lp21
(I0
I6
tp22
ag12
a(I2
I3
tp23
a(I1
I5
tp24
a(I8
I0
tp25
a(I1
I1
tp26
a(I0
I7
tp27
atp28
Rp29
sg15
I9
sS'dirt_locations'
p30
g20
((lp31
(I4
I7
tp32
a(I1
I3
tp33
a(I4
I9
tp34
a(I8
I1
tp35
a(I7
I6
tp36
a(I2
I6
tp37
a(I8
I7
tp38
a(I2
I2
tp39
a(I4
I1
tp40
a(I2
I4
tp41
atp42
Rp43
sg13
((I5
I8
tp44
(I6
I9
tp45
(I5
I0
tp46
(I3
I1
tp47
tp48
sg14
I10
sbs(iproblems
RoomID
p49
(dp50
g10
I9
sg11
(I3
I4
tp51
sg13
I1
sg14
I7
sg15
I8
sg16
I6613812840851947673
sb(imulti_robot_problem
MultiRobotState
p52
(dp53
g19
g20
((lp54
(I3
I5
tp55
ag51
a(I2
I4
tp56
a(I2
I1
tp57
a(I1
I4
tp58
atp59
Rp60
sg15
I8
sg30
g20
((lp61
(I6
I4
tp62
a(I5
I4
tp63
a(I6
I0
tp64
a(I7
I5
tp65
a(I1
I6
tp66
a(I2
I2
tp67
a(I0
I5
tp68
a(I4
I1
tp69
a(I4
I0
tp70
atp71
Rp72
sg13
((I3
I1
tp73
tp74
sg14
I7
sbs(iproblems
RoomID
p75
(dp76
g10
I10
sg11
(I4
I8
tp77
sg13
I4
sg14
I10
sg15
I7
sg16
I956523682424107605
sb(imulti_robot_problem
MultiRobotState
p78
(dp79
g19
g20
((lp80
(I2
I8
tp81
ag77
a(I3
I7
tp82
a(I2
I9
tp83
a(I4
I2
tp84
atp85
Rp86
sg15
I7
sg30
g20
((lp87
(I5
I9
tp88
a(I4
I7
tp89
a(I1
I3
tp90
a(I3
I3
tp91
a(I5
I5
tp92
a(I6
I1
tp93
a(I5
I4
tp94
a(I0
I4
tp95
a(I5
I2
tp96
a(I5
I3
tp97
atp98
Rp99
sg13
((I1
I9
tp100
(I4
I9
tp101
(I1
I8
tp102
(I0
I3
tp103
tp104
sg14
I10
sbs(iproblems
RoomID
p105
(dp106
g10
I9
sg11
(I5
I3
tp107
sg13
I3
sg14
I7
sg15
I8
sg16
I4594210616595436404
sb(imulti_robot_problem
MultiRobotState
p108
(dp109
g19
g20
((lp110
(I0
I1
tp111
a(I3
I3
tp112
a(I4
I3
tp113
a(I4
I2
tp114
a(I6
I1
tp115
ag107
atp116
Rp117
sg15
I8
sg30
g20
((lp118
(I6
I6
tp119
a(I5
I6
tp120
a(I4
I4
tp121
a(I1
I4
tp122
a(I0
I6
tp123
a(I5
I1
tp124
a(I1
I0
tp125
a(I0
I3
tp126
a(I1
I1
tp127
atp128
Rp129
sg13
((I2
I1
tp130
(I3
I4
tp131
(I3
I6
tp132
tp133
sg14
I7
sbs(iproblems
RoomID
p134
(dp135
g10
I10
sg11
(I4
I5
tp136
sg13
I1
sg14
I8
sg15
I8
sg16
I2893396244277848635
sb(imulti_robot_problem
MultiRobotState
p137
(dp138
g19
g20
((lp139
g136
a(I3
I7
tp140
a(I2
I6
tp141
a(I4
I6
tp142
atp143
Rp144
sg15
I8
sg30
g20
((lp145
(I6
I4
tp146
a(I0
I0
tp147
a(I6
I7
tp148
a(I3
I0
tp149
a(I2
I1
tp150
a(I0
I6
tp151
a(I7
I2
tp152
a(I2
I4
tp153
a(I6
I5
tp154
a(I5
I3
tp155
atp156
Rp157
sg13
((I2
I3
tp158
tp159
sg14
I8
sbssS'name'
p160
S'easy_roomset'
p161
sbsg160
S"AnytimeBeam-w20-gf(2, 'lin')_with_PowerHeuristic2"
p162
sS'solutions'
p163
(dp164
g8
((lp165
(F2.8699999999989814
I51
tp166
aF40.009999999998399
tp167
sg49
((lp168
(F0.090000000000145519
I36
tp169
a(F11.940000000002328
I30
tp170
a(F12.659999999999854
I29
tp171
aF40.0
tp172
sg75
((lp173
(F0.74000000000160071
I10
tp174
aF40.110000000000582
tp175
sg105
((lp176
(F2.1300000000010186
I26
tp177
aF40.029999999998836
tp178
sg134
((lp179
(F0.34000000000014552
I61
tp180
a(F1.2900000000008731
I57
tp181
a(F2.1900000000023283
I56
tp182
a(F3.4000000000014552
I54
tp183
a(F4.5100000000020373
I52
tp184
a(F6.4700000000011642
I51
tp185
a(F9.3400000000001455
I50
tp186
a(F12.220000000001164
I48
tp187
a(F15.240000000001601
I46
tp188
a(F18.319999999999709
I44
tp189
a(F27.040000000000873
I43
tp190
a(F35.210000000002765
I42
tp191
aF40.0
tp192
ssba(imeasure_core
ProblemSetSolution
p193
(dp194
g3
(imeasure_core
RoomSet
p195
(dp196
g6
(dp197
(iproblems
RoomID
p198
(dp199
g10
I10
sg11
(I8
I7
tp200
sg13
I4
sg14
I12
sg15
I11
sg16
I4712128852136459333
sb(imulti_robot_problem
MultiRobotState
p201
(dp202
g19
g20
((lp203
(I6
I4
tp204
a(I4
I7
tp205
ag200
a(I4
I5
tp206
a(I3
I11
tp207
a(I0
I7
tp208
a(I7
I7
tp209
a(I1
I6
tp210
a(I1
I9
tp211
a(I2
I10
tp212
a(I4
I2
tp213
a(I1
I11
tp214
a(I6
I5
tp215
a(I5
I3
tp216
a(I9
I0
tp217
a(I0
I8
tp218
a(I5
I5
tp219
a(I7
I6
tp220
a(I3
I1
tp221
a(I2
I11
tp222
a(I0
I9
tp223
a(I2
I3
tp224
a(I4
I1
tp225
a(I1
I1
tp226
atp227
Rp228
sg15
I11
sg30
g20
((lp229
(I2
I7
tp230
a(I9
I1
tp231
a(I9
I8
tp232
a(I5
I1
tp233
a(I2
I5
tp234
a(I9
I7
tp235
a(I3
I4
tp236
a(I2
I4
tp237
a(I5
I8
tp238
a(I3
I3
tp239
atp240
Rp241
sg13
((I6
I10
tp242
(I8
I10
tp243
(I7
I0
tp244
(I5
I11
tp245
tp246
sg14
I12
sbs(iproblems
RoomID
p247
(dp248
g10
I9
sg11
(I4
I4
tp249
sg13
I3
sg14
I9
sg15
I10
sg16
I4594210616595436404
sb(imulti_robot_problem
MultiRobotState
p250
(dp251
g19
g20
((lp252
(I1
I3
tp253
a(I3
I0
tp254
a(I2
I1
tp255
a(I1
I6
tp256
a(I9
I4
tp257
a(I3
I7
tp258
a(I0
I3
tp259
a(I1
I2
tp260
a(I5
I5
tp261
a(I1
I5
tp262
a(I7
I6
tp263
ag249
a(I6
I3
tp264
a(I5
I6
tp265
a(I3
I6
tp266
a(I0
I4
tp267
a(I8
I6
tp268
a(I3
I5
tp269
a(I1
I1
tp270
a(I5
I4
tp271
a(I4
I5
tp272
a(I0
I5
tp273
a(I5
I3
tp274
a(I0
I1
tp275
a(I5
I2
tp276
a(I0
I6
tp277
a(I2
I0
tp278
a(I1
I8
tp279
a(I2
I3
tp280
a(I9
I5
tp281
a(I3
I4
tp282
a(I0
I2
tp283
atp284
Rp285
sg15
I10
sg30
g20
((lp286
(I7
I8
tp287
a(I7
I0
tp288
a(I6
I8
tp289
a(I2
I8
tp290
a(I8
I8
tp291
a(I0
I8
tp292
a(I8
I5
tp293
a(I5
I8
tp294
a(I8
I2
tp295
atp296
Rp297
sg13
((I4
I6
tp298
(I2
I5
tp299
(I6
I1
tp300
tp301
sg14
I9
sbs(iproblems
RoomID
p302
(dp303
g10
I6
sg11
(I8
I8
tp304
sg13
I4
sg14
I11
sg15
I12
sg16
I7529058068588108450
sb(imulti_robot_problem
MultiRobotState
p305
(dp306
g19
g20
((lp307
(I5
I9
tp308
a(I6
I9
tp309
a(I2
I6
tp310
a(I3
I2
tp311
a(I9
I1
tp312
a(I4
I10
tp313
a(I6
I6
tp314
a(I7
I7
tp315
a(I7
I1
tp316
a(I4
I6
tp317
a(I10
I4
tp318
a(I7
I5
tp319
a(I6
I8
tp320
a(I3
I7
tp321
a(I5
I8
tp322
a(I8
I2
tp323
a(I5
I5
tp324
a(I7
I6
tp325
a(I4
I4
tp326
a(I7
I4
tp327
a(I1
I5
tp328
ag304
a(I7
I2
tp329
a(I3
I6
tp330
a(I2
I2
tp331
a(I1
I10
tp332
a(I7
I8
tp333
a(I3
I10
tp334
atp335
Rp336
sg15
I12
sg30
g20
((lp337
(I7
I3
tp338
a(I0
I5
tp339
a(I4
I0
tp340
a(I11
I3
tp341
a(I11
I6
tp342
a(I6
I0
tp343
atp344
Rp345
sg13
((I11
I7
tp346
(I6
I2
tp347
(I11
I5
tp348
(I6
I7
tp349
tp350
sg14
I11
sbs(iproblems
RoomID
p351
(dp352
g10
I5
sg11
(I4
I9
tp353
sg13
I4
sg14
I11
sg15
I11
sg16
I1881095652490078568
sb(imulti_robot_problem
MultiRobotState
p354
(dp355
g19
g20
((lp356
(I6
I9
tp357
a(I6
I6
tp358
a(I4
I5
tp359
a(I2
I8
tp360
a(I9
I3
tp361
a(I4
I7
tp362
a(I7
I5
tp363
a(I5
I4
tp364
ag353
a(I6
I5
tp365
a(I3
I5
tp366
a(I7
I4
tp367
a(I1
I7
tp368
a(I6
I7
tp369
a(I4
I6
tp370
a(I7
I6
tp371
a(I4
I4
tp372
a(I8
I10
tp373
a(I6
I3
tp374
a(I7
I10
tp375
a(I2
I2
tp376
a(I4
I8
tp377
a(I7
I8
tp378
a(I1
I1
tp379
a(I8
I4
tp380
atp381
Rp382
sg15
I11
sg30
g20
((lp383
(I1
I10
tp384
a(I5
I9
tp385
a(I0
I0
tp386
a(I10
I2
tp387
a(I9
I7
tp388
atp389
Rp390
sg13
((I5
I7
tp391
(I8
I1
tp392
(I3
I1
tp393
(I8
I8
tp394
tp395
sg14
I11
sbs(iproblems
RoomID
p396
(dp397
g10
I8
sg11
(I5
I0
tp398
sg13
I4
sg14
I9
sg15
I9
sg16
I6858376947525423350
sb(imulti_robot_problem
MultiRobotState
p399
(dp400
g19
g20
((lp401
(I6
I4
tp402
a(I4
I7
tp403
a(I1
I3
tp404
a(I4
I3
tp405
a(I7
I1
tp406
a(I3
I0
tp407
a(I2
I8
tp408
a(I6
I0
tp409
a(I2
I1
tp410
a(I1
I6
tp411
a(I5
I1
tp412
a(I2
I5
tp413
a(I0
I8
tp414
a(I7
I2
tp415
a(I2
I7
tp416
a(I3
I8
tp417
a(I5
I5
tp418
a(I6
I1
tp419
a(I5
I7
tp420
a(I6
I3
tp421
a(I1
I8
tp422
ag398
a(I2
I2
tp423
a(I2
I3
tp424
a(I3
I4
tp425
a(I2
I4
tp426
atp427
Rp428
sg15
I9
sg30
g20
((lp429
(I8
I3
tp430
a(I7
I0
tp431
a(I4
I6
tp432
a(I6
I6
tp433
a(I7
I5
tp434
a(I8
I0
tp435
a(I8
I8
tp436
a(I8
I4
tp437
atp438
Rp439
sg13
((I1
I1
tp440
(I6
I5
tp441
(I8
I2
tp442
(I1
I5
tp443
tp444
sg14
I9
sbssg160
S'mild_roomset'
p445
sbsg160
g162
sg163
(dp446
g198
((lp447
(F2.9000000000014552
I23
tp448
aF40.159999999999854
tp449
sg247
((lp450
F40.120000000002619
tp451
sg302
((lp452
(F2.0900000000001455
I33
tp453
aF40.059999999997672
tp454
sg351
((lp455
(F0.56000000000130967
I7
tp456
aF40.140000000003056
tp457
sg396
((lp458
(F0.76999999999679858
I16
tp459
aF40.0
tp460
ssba(imeasure_core
ProblemSetSolution
p461
(dp462
g3
(imeasure_core
RoomSet
p463
(dp464
g6
(dp465
(iproblems
RoomID
p466
(dp467
g10
I15
sg11
(I5
I9
tp468
sg13
I7
sg14
I13
sg15
I12
sg16
I4712128852136459333
sb(imulti_robot_problem
MultiRobotState
p469
(dp470
g19
g20
((lp471
g468
a(I4
I9
tp472
a(I5
I5
tp473
a(I4
I12
tp474
a(I2
I8
tp475
a(I3
I1
tp476
a(I3
I9
tp477
a(I9
I4
tp478
a(I1
I7
tp479
a(I1
I10
tp480
a(I3
I12
tp481
a(I0
I8
tp482
a(I5
I2
tp483
atp484
Rp485
sg15
I12
sg30
g20
((lp486
(I6
I9
tp487
a(I3
I3
tp488
a(I1
I12
tp489
a(I5
I6
tp490
a(I7
I7
tp491
a(I3
I5
tp492
a(I3
I8
tp493
a(I8
I8
tp494
a(I10
I0
tp495
a(I2
I5
tp496
a(I10
I2
tp497
a(I3
I4
tp498
a(I1
I1
tp499
a(I5
I8
tp500
a(I9
I7
tp501
atp502
Rp503
sg13
((I6
I11
tp504
(I8
I11
tp505
(I7
I0
tp506
(I4
I1
tp507
(I6
I12
tp508
(I10
I9
tp509
(I6
I1
tp510
tp511
sg14
I13
sbs(iproblems
RoomID
p512
(dp513
g10
I14
sg11
(I5
I5
tp514
sg13
I5
sg14
I10
sg15
I11
sg16
I6613812840851947673
sb(imulti_robot_problem
MultiRobotState
p515
(dp516
g19
g20
((lp517
(I4
I7
tp518
a(I2
I6
tp519
a(I6
I6
tp520
a(I4
I5
tp521
a(I7
I5
tp522
a(I1
I6
tp523
a(I8
I7
tp524
a(I3
I7
tp525
a(I10
I3
tp526
a(I3
I5
tp527
a(I10
I8
tp528
a(I6
I3
tp529
ag514
a(I8
I5
tp530
a(I7
I4
tp531
a(I3
I8
tp532
a(I0
I6
tp533
a(I3
I6
tp534
a(I1
I3
tp535
a(I8
I6
tp536
a(I2
I4
tp537
atp538
Rp539
sg15
I11
sg30
g20
((lp540
(I6
I4
tp541
a(I3
I2
tp542
a(I4
I6
tp543
a(I4
I9
tp544
a(I3
I3
tp545
a(I9
I8
tp546
a(I8
I0
tp547
a(I8
I8
tp548
a(I5
I0
tp549
a(I1
I0
tp550
a(I8
I4
tp551
a(I5
I2
tp552
a(I6
I1
tp553
a(I9
I7
tp554
atp555
Rp556
sg13
((I5
I1
tp557
(I0
I8
tp558
(I2
I9
tp559
(I4
I1
tp560
(I7
I6
tp561
tp562
sg14
I10
sbs(iproblems
RoomID
p563
(dp564
g10
I13
sg11
(I1
I6
tp565
sg13
I7
sg14
I10
sg15
I10
sg16
I6858376947525423350
sb(imulti_robot_problem
MultiRobotState
p566
(dp567
g19
g20
((lp568
(I4
I7
tp569
a(I1
I3
tp570
a(I2
I8
tp571
a(I2
I2
tp572
a(I2
I1
tp573
a(I2
I3
tp574
a(I9
I5
tp575
a(I2
I5
tp576
a(I2
I7
tp577
a(I2
I9
tp578
a(I8
I1
tp579
ag565
a(I1
I7
tp580
a(I0
I9
tp581
a(I8
I6
tp582
a(I2
I4
tp583
atp584
Rp585
sg15
I10
sg30
g20
((lp586
(I8
I0
tp587
a(I4
I9
tp588
a(I3
I3
tp589
a(I3
I0
tp590
a(I7
I6
tp591
a(I5
I7
tp592
a(I9
I9
tp593
a(I4
I4
tp594
a(I6
I2
tp595
a(I9
I4
tp596
a(I8
I5
tp597
a(I5
I8
tp598
a(I5
I3
tp599
atp600
Rp601
sg13
((I1
I2
tp602
(I7
I5
tp603
(I7
I2
tp604
(I9
I2
tp605
(I1
I5
tp606
(I9
I0
tp607
(I6
I6
tp608
tp609
sg14
I10
sbs(iproblems
RoomID
p610
(dp611
g10
I15
sg11
(I6
I6
tp612
sg13
I5
sg14
I11
sg15
I11
sg16
I2893396244277848635
sb(imulti_robot_problem
MultiRobotState
p613
(dp614
g19
g20
((lp615
(I7
I3
tp616
a(I4
I7
tp617
a(I5
I5
tp618
a(I4
I8
tp619
a(I5
I6
tp620
a(I2
I8
tp621
ag612
a(I3
I2
tp622
a(I3
I9
tp623
a(I4
I3
tp624
a(I1
I7
tp625
a(I6
I9
tp626
atp627
Rp628
sg15
I11
sg30
g20
((lp629
(I2
I6
tp630
a(I8
I7
tp631
a(I3
I10
tp632
a(I3
I1
tp633
a(I2
I10
tp634
a(I0
I5
tp635
a(I6
I5
tp636
a(I3
I6
tp637
a(I8
I6
tp638
a(I4
I0
tp639
a(I3
I7
tp640
a(I7
I9
tp641
a(I4
I1
tp642
a(I5
I8
tp643
a(I5
I3
tp644
atp645
Rp646
sg13
((I4
I5
tp647
(I0
I9
tp648
(I0
I1
tp649
(I9
I2
tp650
(I8
I10
tp651
tp652
sg14
I11
sbs(iproblems
RoomID
p653
(dp654
g10
I15
sg11
(I4
I8
tp655
sg13
I6
sg14
I13
sg15
I10
sg16
I956523682424107605
sb(imulti_robot_problem
MultiRobotState
p656
(dp657
g19
g20
((lp658
(I5
I9
tp659
a(I6
I9
tp660
a(I7
I10
tp661
ag655
a(I5
I6
tp662
a(I3
I11
tp663
a(I9
I4
tp664
a(I4
I9
tp665
a(I5
I8
tp666
a(I2
I7
tp667
a(I5
I10
tp668
a(I5
I5
tp669
a(I3
I10
tp670
a(I5
I7
tp671
a(I9
I9
tp672
a(I5
I0
tp673
a(I7
I8
tp674
a(I1
I1
tp675
atp676
Rp677
sg15
I10
sg30
g20
((lp678
(I6
I10
tp679
a(I8
I3
tp680
a(I1
I3
tp681
a(I6
I6
tp682
a(I7
I6
tp683
a(I8
I12
tp684
a(I5
I4
tp685
a(I1
I4
tp686
a(I2
I10
tp687
a(I7
I4
tp688
a(I1
I5
tp689
a(I7
I5
tp690
a(I0
I9
tp691
a(I7
I11
tp692
a(I6
I2
tp693
atp694
Rp695
sg13
((I1
I12
tp696
(I6
I12
tp697
(I2
I11
tp698
(I0
I4
tp699
(I9
I1
tp700
(I7
I7
tp701
tp702
sg14
I13
sbssg160
S'heavy_roomset'
p703
sbsg160
g162
sg163
(dp704
g466
((lp705
F45.159999999999854
tp706
sg512
((lp707
F40.159999999999854
tp708
sg563
((lp709
F40.479999999999563
tp710
sg610
((lp711
(F12.31000000000131
I27
tp712
aF40.049999999999272
tp713
sg653
((lp714
(F16.979999999999563
I10
tp715
aF40.319999999999709
tp716
ssba(imeasure_core
ProblemSetSolution
p717
(dp718
g3
g4
sg160
S"AnytimeBeam-w20-gf(4, 'lin')_with_PowerHeuristic2"
p719
sg163
(dp720
g8
((lp721
(F2.8700000000026193
I51
tp722
aF40.040000000000873
tp723
sg49
((lp724
(F0.08000000000174623
I36
tp725
a(F3.25
I30
tp726
a(F3.9599999999991269
I29
tp727
a(F21.760000000002037
I28
tp728
aF40.0
tp729
sg75
((lp730
(F0.81000000000130967
I10
tp731
aF40.150000000001455
tp732
sg105
((lp733
(F2.4799999999995634
I26
tp734
aF40.079999999998108
tp735
sg134
((lp736
(F0.36000000000058208
I61
tp737
a(F1.3400000000001455
I57
tp738
a(F2.2600000000020373
I56
tp739
a(F3.4799999999995634
I54
tp740
a(F4.6200000000026193
I52
tp741
a(F6.569999999999709
I51
tp742
a(F9.430000000000291
I50
tp743
a(F12.280000000002474
I48
tp744
a(F15.280000000002474
I46
tp745
a(F18.389999999999418
I44
tp746
a(F27.080000000001746
I43
tp747
a(F35.25
I42
tp748
aF40.0
tp749
ssba(imeasure_core
ProblemSetSolution
p750
(dp751
g3
g195
sg160
g719
sg163
(dp752
g198
((lp753
(F3.1100000000005821
I23
tp754
aF40.319999999999709
tp755
sg247
((lp756
F40.200000000000728
tp757
sg302
((lp758
(F2.6500000000014552
I33
tp759
aF40.209999999999127
tp760
sg351
((lp761
(F0.56000000000130967
I7
tp762
aF40.040000000000873
tp763
sg396
((lp764
(F0.76000000000203727
I16
tp765
aF40.040000000000873
tp766
ssba(imeasure_core
ProblemSetSolution
p767
(dp768
g3
g463
sg160
g719
sg163
(dp769
g466
((lp770
F45.170000000001892
tp771
sg512
((lp772
F40.779999999998836
tp773
sg563
((lp774
F42.25
tp775
sg610
((lp776
(F13.319999999999709
I27
tp777
aF40.049999999999272
tp778
sg653
((lp779
(F18.260000000002037
I10
tp780
aF40.970000000001164
tp781
ssba(imeasure_core
ProblemSetSolution
p782
(dp783
g3
g4
sg160
S"AnytimeBeam-w20-gf(8, 'lin')_with_PowerHeuristic2"
p784
sg163
(dp785
g8
((lp786
(F2.8800000000010186
I51
tp787
aF40.020000000000437
tp788
sg49
((lp789
(F0.079999999998108251
I36
tp790
a(F0.90999999999985448
I30
tp791
a(F1.6399999999994179
I29
tp792
a(F6.569999999999709
I28
tp793
aF40.0
tp794
sg75
((lp795
(F0.93000000000029104
I10
tp796
aF40.06000000000131
tp797
sg105
((lp798
(F2.7799999999988358
I26
tp799
aF40.009999999998399
tp800
sg134
((lp801
(F0.36000000000058208
I61
tp802
a(F1.3300000000017462
I57
tp803
a(F2.25
I56
tp804
a(F3.4599999999991269
I54
tp805
a(F4.5900000000001455
I52
tp806
a(F6.5600000000013097
I51
tp807
a(F9.4599999999991269
I50
tp808
a(F12.349999999998545
I48
tp809
a(F15.360000000000582
I46
tp810
a(F18.470000000001164
I44
tp811
a(F27.159999999999854
I43
tp812
a(F35.389999999999418
I42
tp813
aF40.0
tp814
ssba(imeasure_core
ProblemSetSolution
p815
(dp816
g3
g195
sg160
g784
sg163
(dp817
g198
((lp818
(F3.2799999999988358
I23
tp819
aF40.029999999998836
tp820
sg247
((lp821
F40.200000000000728
tp822
sg302
((lp823
(F2.8300000000017462
I33
tp824
aF40.220000000001164
tp825
sg351
((lp826
(F0.56999999999970896
I7
tp827
aF40.049999999999272
tp828
sg396
((lp829
(F0.75999999999839929
I16
tp830
aF40.0
tp831
ssba(imeasure_core
ProblemSetSolution
p832
(dp833
g3
g463
sg160
g784
sg163
(dp834
g466
((lp835
F45.950000000000728
tp836
sg512
((lp837
F40.299999999999272
tp838
sg563
((lp839
F40.110000000000582
tp840
sg610
((lp841
(F14.940000000002328
I27
tp842
aF40.350000000002183
tp843
sg653
((lp844
(F20.829999999998108
I10
tp845
aF40.059999999997672
tp846
ssba(imeasure_core
ProblemSetSolution
p847
(dp848
g3
g4
sg160
S"AnytimeBeam-w20-gf(16, 'lin')_with_PowerHeuristic2"
p849
sg163
(dp850
g8
((lp851
(F2.8899999999994179
I51
tp852
aF40.040000000000873
tp853
sg49
((lp854
(F0.079999999998108251
I36
tp855
a(F0.89999999999781721
I30
tp856
a(F1.6199999999989814
I29
tp857
a(F6.4599999999991269
I28
tp858
a(F12.75
I27
tp859
a(F24.989999999997963
I26
tp860
a(F35.389999999999418
I25
tp861
aF40.0
tp862
sg75
((lp863
(F1.0499999999992724
I10
tp864
aF40.069999999999709
tp865
sg105
((lp866
(F3.0099999999983993
I26
tp867
aF40.039999999997235
tp868
sg134
((lp869
(F0.37000000000261934
I61
tp870
a(F1.3600000000005821
I57
tp871
a(F2.2900000000008731
I56
tp872
a(F3.5300000000024738
I54
tp873
a(F4.680000000000291
I52
tp874
a(F6.6599999999998545
I51
tp875
a(F9.569999999999709
I50
tp876
a(F12.460000000002765
I48
tp877
a(F15.490000000001601
I46
tp878
a(F18.580000000001746
I44
tp879
a(F27.340000000000146
I43
tp880
a(F35.569999999999709
I42
tp881
aF40.0
tp882
ssba(imeasure_core
ProblemSetSolution
p883
(dp884
g3
g195
sg160
g849
sg163
(dp885
g198
((lp886
(F3.5500000000029104
I23
tp887
aF40.030000000002474
tp888
sg247
((lp889
F40.180000000000291
tp890
sg302
((lp891
(F2.8899999999994179
I33
tp892
aF40.229999999999563
tp893
sg351
((lp894
(F0.56999999999970896
I7
tp895
aF40.049999999999272
tp896
sg396
((lp897
(F0.75999999999839929
I16
tp898
aF40.099999999998545
tp899
ssba(imeasure_core
ProblemSetSolution
p900
(dp901
g3
g463
sg160
g849
sg163
(dp902
g466
((lp903
F45.719999999997526
tp904
sg512
((lp905
F40.510000000002037
tp906
sg563
((lp907
F41.209999999999127
tp908
sg610
((lp909
(F16.680000000000291
I27
tp910
aF41.159999999999854
tp911
sg653
((lp912
(F23.790000000000873
I10
tp913
aF40.0
tp914
ssba(imeasure_core
ProblemSetSolution
p915
(dp916
g3
g4
sg160
S"AnytimeBeam-w20-gf(2, 'lin')_with_LinearHeuristic"
p917
sg163
(dp918
g8
((lp919
F40.149999999997817
tp920
sg49
((lp921
(F0.010000000002037268
I25
tp922
aF40.0
tp923
sg75
((lp924
F40.229999999999563
tp925
sg105
((lp926
(F0.28000000000247383
I8
tp927
aF40.030000000002474
tp928
sg134
((lp929
(F0.029999999998835847
I32
tp930
a(F0.63999999999941792
I30
tp931
aF40.0
tp932
ssba(imeasure_core
ProblemSetSolution
p933
(dp934
g3
g195
sg160
g917
sg163
(dp935
g198
((lp936
F40.129999999997381
tp937
sg247
((lp938
(F20.260000000002037
I14
tp939
aF40.0
tp940
sg302
((lp941
F40.010000000002037
tp942
sg351
((lp943
(F0.90999999999985448
I7
tp944
aF40.309999999997672
tp945
sg396
((lp946
F40.020000000000437
tp947
ssba(imeasure_core
ProblemSetSolution
p948
(dp949
g3
g463
sg160
g917
sg163
(dp950
g466
((lp951
F43.649999999997817
tp952
sg512
((lp953
F40.420000000001892
tp954
sg563
((lp955
F42.020000000000437
tp956
sg610
((lp957
F40.169999999998254
tp958
sg653
((lp959
F40.440000000002328
tp960
ssba(imeasure_core
ProblemSetSolution
p961
(dp962
g3
g4
sg160
S"AnytimeBeam-w20-gf(4, 'lin')_with_LinearHeuristic"
p963
sg163
(dp964
g8
((lp965
F40.220000000001164
tp966
sg49
((lp967
(F0.020000000000436557
I25
tp968
aF40.0
tp969
sg75
((lp970
F40.229999999999563
tp971
sg105
((lp972
(F0.2999999999992724
I8
tp973
aF40.049999999999272
tp974
sg134
((lp975
(F0.029999999998835847
I32
tp976
a(F0.65000000000145519
I30
tp977
aF40.0
tp978
ssba(imeasure_core
ProblemSetSolution
p979
(dp980
g3
g195
sg160
g963
sg163
(dp981
g198
((lp982
F40.130000000001019
tp983
sg247
((lp984
(F20.849999999998545
I14
tp985
aF40.0
tp986
sg302
((lp987
F40.180000000000291
tp988
sg351
((lp989
(F0.94999999999708962
I7
tp990
aF40.239999999997963
tp991
sg396
((lp992
F40.270000000000437
tp993
ssba(imeasure_core
ProblemSetSolution
p994
(dp995
g3
g463
sg160
g963
sg163
(dp996
g466
((lp997
F43.920000000001892
tp998
sg512
((lp999
F40.090000000000146
tp1000
sg563
((lp1001
F40.029999999998836
tp1002
sg610
((lp1003
F40.110000000000582
tp1004
sg653
((lp1005
F40.239999999997963
tp1006
ssba(imeasure_core
ProblemSetSolution
p1007
(dp1008
g3
g4
sg160
S"AnytimeBeam-w20-gf(8, 'lin')_with_LinearHeuristic"
p1009
sg163
(dp1010
g8
((lp1011
F40.279999999998836
tp1012
sg49
((lp1013
(F0.020000000000436557
I25
tp1014
aF40.0
tp1015
sg75
((lp1016
F40.43999999999869
tp1017
sg105
((lp1018
(F0.31000000000130967
I8
tp1019
aF40.06000000000131
tp1020
sg134
((lp1021
(F0.029999999998835847
I32
tp1022
a(F0.65000000000145519
I30
tp1023
aF40.0
tp1024
ssba(imeasure_core
ProblemSetSolution
p1025
(dp1026
g3
g195
sg160
g1009
sg163
(dp1027
g198
((lp1028
F40.040000000000873
tp1029
sg247
((lp1030
(F22.950000000000728
I14
tp1031
aF40.040000000000873
tp1032
sg302
((lp1033
F40.090000000000146
tp1034
sg351
((lp1035
(F0.98999999999796273
I7
tp1036
aF40.099999999998545
tp1037
sg396
((lp1038
F40.020000000000437
tp1039
ssba(imeasure_core
ProblemSetSolution
p1040
(dp1041
g3
g463
sg160
g1009
sg163
(dp1042
g466
((lp1043
F44.180000000000291
tp1044
sg512
((lp1045
F40.270000000000437
tp1046
sg563
((lp1047
F41.569999999999709
tp1048
sg610
((lp1049
F40.18999999999869
tp1050
sg653
((lp1051
F40.05000000000291
tp1052
ssba(imeasure_core
ProblemSetSolution
p1053
(dp1054
g3
g4
sg160
S"AnytimeBeam-w20-gf(16, 'lin')_with_LinearHeuristic"
p1055
sg163
(dp1056
g8
((lp1057
F40.049999999999272
tp1058
sg49
((lp1059
(F0.020000000000436557
I25
tp1060
aF40.0
tp1061
sg75
((lp1062
F40.090000000000146
tp1063
sg105
((lp1064
(F0.31999999999970896
I8
tp1065
aF40.0
tp1066
sg134
((lp1067
(F0.029999999998835847
I32
tp1068
a(F0.65999999999985448
I30
tp1069
aF40.009999999998399
tp1070
ssba(imeasure_core
ProblemSetSolution
p1071
(dp1072
g3
g195
sg160
g1055
sg163
(dp1073
g198
((lp1074
F40.399999999997817
tp1075
sg247
((lp1076
(F23.450000000000728
I14
tp1077
aF40.040000000000873
tp1078
sg302
((lp1079
F40.270000000000437
tp1080
sg351
((lp1081
(F1.0
I7
tp1082
aF40.06000000000131
tp1083
sg396
((lp1084
F40.029999999998836
tp1085
ssba(imeasure_core
ProblemSetSolution
p1086
(dp1087
g3
g463
sg160
g1055
sg163
(dp1088
g466
((lp1089
F45.180000000000291
tp1090
sg512
((lp1091
F40.180000000000291
tp1092
sg563
((lp1093
F40.599999999998545
tp1094
sg610
((lp1095
F40.130000000001019
tp1096
sg653
((lp1097
F40.229999999999563
tp1098
ssba.