(lp0
(imeasure_core
ProblemSetSolution
p1
(dp2
S'roomset'
p3
(imeasure_core
RoomSet
p4
(dp5
S'rooms'
p6
(dp7
(iproblems
RoomID
p8
(dp9
S'dusts'
p10
I6
sS'obstacles'
p11
(I5
I1
tp12
sS'robots'
p13
I4
sS'height'
p14
I9
sS'width'
p15
I10
sS'seed'
p16
I2405875930906139466
sb(imulti_robot_problem
MultiRobotState
p17
(dp18
S'obstacle_locations'
p19
c__builtin__
frozenset
p20
((lp21
(I7
I0
tp22
a(I7
I1
tp23
ag12
a(I6
I1
tp24
a(I6
I0
tp25
a(I7
I2
tp26
atp27
Rp28
sg15
I10
sS'dirt_locations'
p29
g20
((lp30
(I7
I3
tp31
a(I2
I1
tp32
a(I6
I4
tp33
a(I5
I6
tp34
a(I5
I2
tp35
a(I0
I7
tp36
atp37
Rp38
sg13
((I7
I6
tp39
(I3
I3
tp40
(I8
I6
tp41
(I0
I2
tp42
tp43
sg14
I9
sbs(iproblems
RoomID
p44
(dp45
g10
I6
sg11
(I6
I7
tp46
sg13
I4
sg14
I10
sg15
I7
sg16
I8744744311366254845
sb(imulti_robot_problem
MultiRobotState
p47
(dp48
g19
g20
((lp49
(I0
I6
tp50
ag46
a(I4
I6
tp51
a(I3
I7
tp52
a(I5
I7
tp53
a(I1
I9
tp54
atp55
Rp56
sg15
I7
sg29
g20
((lp57
(I2
I7
tp58
a(I0
I1
tp59
a(I5
I4
tp60
a(I6
I0
tp61
a(I5
I8
tp62
a(I5
I3
tp63
atp64
Rp65
sg13
((I0
I8
tp66
(I4
I2
tp67
(I3
I0
tp68
(I1
I4
tp69
tp70
sg14
I10
sbs(iproblems
RoomID
p71
(dp72
g10
I6
sg11
(I4
I6
tp73
sg13
I1
sg14
I8
sg15
I7
sg16
I3537054308274871603
sb(imulti_robot_problem
MultiRobotState
p74
(dp75
g19
g20
((lp76
(I4
I7
tp77
ag73
a(I4
I5
tp78
a(I2
I5
tp79
a(I3
I5
tp80
a(I6
I0
tp81
a(I2
I4
tp82
atp83
Rp84
sg15
I7
sg29
g20
((lp85
(I0
I6
tp86
a(I6
I2
tp87
a(I5
I6
tp88
a(I4
I1
tp89
a(I1
I1
tp90
a(I5
I3
tp91
atp92
Rp93
sg13
((I0
I3
tp94
tp95
sg14
I8
sbs(iproblems
RoomID
p96
(dp97
g10
I10
sg11
(I4
I7
tp98
sg13
I5
sg14
I10
sg15
I8
sg16
I8655808914197340073
sb(imulti_robot_problem
MultiRobotState
p99
(dp100
g19
g20
((lp101
(I2
I7
tp102
ag98
a(I4
I8
tp103
a(I6
I3
tp104
a(I7
I5
tp105
a(I3
I7
tp106
a(I1
I0
tp107
a(I5
I3
tp108
atp109
Rp110
sg15
I8
sg29
g20
((lp111
(I7
I3
tp112
a(I5
I4
tp113
a(I7
I0
tp114
a(I5
I7
tp115
a(I1
I5
tp116
a(I1
I9
tp117
a(I3
I6
tp118
a(I1
I7
tp119
a(I3
I4
tp120
a(I5
I8
tp121
atp122
Rp123
sg13
((I3
I8
tp124
(I7
I9
tp125
(I6
I1
tp126
(I2
I3
tp127
(I5
I5
tp128
tp129
sg14
I10
sbs(iproblems
RoomID
p130
(dp131
g10
I8
sg11
(I5
I3
tp132
sg13
I3
sg14
I7
sg15
I7
sg16
I7325839828077136048
sb(imulti_robot_problem
MultiRobotState
p133
(dp134
g19
g20
((lp135
(I6
I4
tp136
a(I5
I4
tp137
a(I5
I5
tp138
a(I6
I6
tp139
a(I3
I1
tp140
a(I6
I0
tp141
a(I2
I0
tp142
a(I0
I4
tp143
ag132
atp144
Rp145
sg15
I7
sg29
g20
((lp146
(I0
I6
tp147
a(I3
I0
tp148
a(I2
I4
tp149
a(I1
I5
tp150
a(I4
I3
tp151
a(I2
I2
tp152
a(I1
I1
tp153
a(I3
I5
tp154
atp155
Rp156
sg13
((I1
I0
tp157
(I3
I3
tp158
(I6
I2
tp159
tp160
sg14
I7
sbssS'name'
p161
S'easy_roomset'
p162
sbsg161
S"AnytimeBeam-w5-gf(1.5, 'exp')_with_PowerHeuristic2"
p163
sS'solutions'
p164
(dp165
g8
((lp166
(F0.34999999999854481
I10
tp167
aF40.559999999997672
tp168
sg44
((lp169
(F1.5800000000017462
I14
tp170
aF40.25
tp171
sg71
((lp172
(F0.11999999999898137
I49
tp173
a(F0.33000000000174623
I47
tp174
a(F0.54000000000087311
I45
tp175
a(F0.7999999999992724
I43
tp176
a(F1.2400000000016007
I41
tp177
a(F1.6599999999998545
I40
tp178
a(F2.6599999999998545
I39
tp179
a(F3.5400000000008731
I38
tp180
a(F4.7999999999992724
I37
tp181
a(F5.9700000000011642
I35
tp182
a(F7.6199999999989814
I33
tp183
a(F9.9400000000023283
I31
tp184
a(F11.889999999999418
I29
tp185
a(F13.450000000000728
I27
tp186
a(F15.430000000000291
I25
tp187
a(F19.760000000002037
I24
tp188
a(F23.619999999998981
I22
tp189
a(F26.880000000001019
I20
tp190
aF40.0
tp191
sg96
((lp192
(F7.0200000000004366
I9
tp193
aF40.970000000001164
tp194
sg130
((lp195
(F28.599999999998545
I144
tp196
aF40.110000000000582
tp197
ssba(imeasure_core
ProblemSetSolution
p198
(dp199
g3
(imeasure_core
RoomSet
p200
(dp201
g6
(dp202
(iproblems
RoomID
p203
(dp204
g10
I6
sg11
(I1
I8
tp205
sg13
I4
sg14
I11
sg15
I12
sg16
I2405875930906139466
sb(imulti_robot_problem
MultiRobotState
p206
(dp207
g19
g20
((lp208
(I6
I4
tp209
a(I4
I6
tp210
a(I8
I2
tp211
a(I6
I6
tp212
a(I2
I8
tp213
a(I8
I0
tp214
a(I5
I5
tp215
a(I9
I10
tp216
a(I6
I2
tp217
a(I2
I3
tp218
a(I3
I7
tp219
a(I6
I5
tp220
a(I5
I3
tp221
a(I7
I0
tp222
a(I3
I3
tp223
a(I2
I9
tp224
a(I11
I5
tp225
a(I8
I1
tp226
a(I6
I1
tp227
a(I3
I1
tp228
a(I6
I3
tp229
a(I2
I0
tp230
ag205
a(I7
I5
tp231
a(I3
I6
tp232
a(I4
I3
tp233
a(I3
I4
tp234
atp235
Rp236
sg15
I12
sg29
g20
((lp237
(I9
I4
tp238
a(I7
I1
tp239
a(I0
I9
tp240
a(I9
I3
tp241
a(I7
I7
tp242
a(I2
I1
tp243
atp244
Rp245
sg13
((I9
I7
tp246
(I4
I4
tp247
(I10
I8
tp248
(I0
I2
tp249
tp250
sg14
I11
sbs(iproblems
RoomID
p251
(dp252
g10
I10
sg11
(I0
I5
tp253
sg13
I4
sg14
I12
sg15
I10
sg16
I8655808914197340073
sb(imulti_robot_problem
MultiRobotState
p254
(dp255
g19
g20
((lp256
(I5
I9
tp257
a(I5
I4
tp258
a(I5
I7
tp259
a(I6
I6
tp260
a(I4
I8
tp261
a(I8
I0
tp262
a(I0
I7
tp263
a(I7
I5
tp264
a(I2
I3
tp265
a(I1
I4
tp266
a(I6
I8
tp267
a(I1
I11
tp268
a(I9
I6
tp269
a(I5
I8
tp270
a(I4
I6
tp271
a(I3
I8
tp272
a(I6
I7
tp273
a(I5
I5
tp274
a(I3
I4
tp275
a(I4
I4
tp276
a(I6
I3
tp277
a(I2
I0
tp278
a(I6
I5
tp279
ag253
a(I7
I8
tp280
atp281
Rp282
sg15
I10
sg29
g20
((lp283
(I6
I9
tp284
a(I2
I9
tp285
a(I2
I11
tp286
a(I9
I0
tp287
a(I7
I7
tp288
a(I8
I3
tp289
a(I1
I7
tp290
a(I8
I6
tp291
a(I8
I4
tp292
a(I3
I5
tp293
atp294
Rp295
sg13
((I4
I9
tp296
(I8
I11
tp297
(I7
I1
tp298
(I3
I3
tp299
tp300
sg14
I12
sbs(iproblems
RoomID
p301
(dp302
g10
I10
sg11
(I11
I0
tp303
sg13
I4
sg14
I9
sg15
I12
sg16
I2796939073032698495
sb(imulti_robot_problem
MultiRobotState
p304
(dp305
g19
g20
((lp306
(I7
I3
tp307
a(I5
I7
tp308
a(I9
I1
tp309
a(I6
I6
tp310
a(I8
I0
tp311
a(I7
I7
tp312
a(I5
I8
tp313
a(I3
I3
tp314
a(I8
I1
tp315
a(I4
I8
tp316
a(I6
I3
tp317
a(I7
I2
tp318
a(I3
I6
tp319
a(I6
I4
tp320
a(I5
I4
tp321
a(I2
I6
tp322
a(I7
I1
tp323
a(I4
I5
tp324
ag303
a(I2
I3
tp325
a(I10
I1
tp326
a(I1
I0
tp327
a(I6
I5
tp328
a(I5
I3
tp329
a(I8
I3
tp330
a(I7
I0
tp331
a(I6
I8
tp332
a(I9
I2
tp333
a(I6
I1
tp334
a(I3
I1
tp335
a(I8
I8
tp336
a(I4
I3
tp337
a(I5
I2
tp338
a(I10
I2
tp339
atp340
Rp341
sg15
I12
sg29
g20
((lp342
(I1
I2
tp343
a(I11
I7
tp344
a(I3
I2
tp345
a(I2
I8
tp346
a(I9
I3
tp347
a(I1
I6
tp348
a(I5
I0
tp349
a(I0
I3
tp350
a(I0
I8
tp351
a(I4
I1
tp352
atp353
Rp354
sg13
((I10
I8
tp355
(I4
I6
tp356
(I11
I4
tp357
(I7
I8
tp358
tp359
sg14
I9
sbs(iproblems
RoomID
p360
(dp361
g10
I6
sg11
(I3
I3
tp362
sg13
I4
sg14
I12
sg15
I12
sg16
I7193062864237573168
sb(imulti_robot_problem
MultiRobotState
p363
(dp364
g19
g20
((lp365
(I6
I4
tp366
a(I5
I4
tp367
a(I1
I3
tp368
a(I6
I6
tp369
a(I7
I1
tp370
a(I9
I3
tp371
a(I0
I7
tp372
a(I1
I6
tp373
a(I2
I5
tp374
a(I0
I8
tp375
a(I10
I3
tp376
a(I8
I3
tp377
a(I3
I1
tp378
ag362
a(I5
I7
tp379
a(I11
I3
tp380
a(I7
I4
tp381
a(I0
I9
tp382
a(I2
I3
tp383
a(I8
I4
tp384
a(I3
I4
tp385
a(I2
I4
tp386
a(I9
I7
tp387
atp388
Rp389
sg15
I12
sg29
g20
((lp390
(I2
I0
tp391
a(I2
I6
tp392
a(I6
I8
tp393
a(I0
I6
tp394
a(I4
I4
tp395
a(I7
I7
tp396
atp397
Rp398
sg13
((I11
I9
tp399
(I11
I2
tp400
(I4
I11
tp401
(I3
I6
tp402
tp403
sg14
I12
sbs(iproblems
RoomID
p404
(dp405
g10
I10
sg11
(I3
I6
tp406
sg13
I4
sg14
I12
sg15
I11
sg16
I4278205817407065157
sb(imulti_robot_problem
MultiRobotState
p407
(dp408
g19
g20
((lp409
(I0
I1
tp410
a(I4
I7
tp411
a(I5
I6
tp412
a(I2
I8
tp413
a(I0
I10
tp414
a(I3
I7
tp415
a(I7
I11
tp416
a(I3
I3
tp417
a(I2
I7
tp418
a(I5
I3
tp419
a(I6
I7
tp420
a(I4
I6
tp421
a(I10
I7
tp422
a(I4
I4
tp423
a(I3
I8
tp424
a(I4
I5
tp425
ag406
a(I1
I10
tp426
a(I3
I5
tp427
a(I1
I9
tp428
atp429
Rp430
sg15
I11
sg29
g20
((lp431
(I1
I2
tp432
a(I8
I1
tp433
a(I9
I2
tp434
a(I6
I1
tp435
a(I5
I7
tp436
a(I8
I9
tp437
a(I3
I0
tp438
a(I9
I4
tp439
a(I0
I2
tp440
a(I4
I0
tp441
atp442
Rp443
sg13
((I6
I10
tp444
(I5
I11
tp445
(I2
I0
tp446
(I9
I1
tp447
tp448
sg14
I12
sbssg161
S'mild_roomset'
p449
sbsg161
g163
sg164
(dp450
g203
((lp451
(F34.959999999999127
I24
tp452
aF40.059999999997672
tp453
sg251
((lp454
F40.490000000001601
tp455
sg301
((lp456
F40.069999999999709
tp457
sg360
((lp458
(F3.4399999999986903
I25
tp459
aF40.110000000000582
tp460
sg404
((lp461
(F5.0099999999983993
I28
tp462
aF40.099999999998545
tp463
ssba(imeasure_core
ProblemSetSolution
p464
(dp465
g3
(imeasure_core
RoomSet
p466
(dp467
g6
(dp468
(iproblems
RoomID
p469
(dp470
g10
I11
sg11
(I10
I1
tp471
sg13
I7
sg14
I12
sg15
I13
sg16
I2405875930906139466
sb(imulti_robot_problem
MultiRobotState
p472
(dp473
g19
g20
((lp474
(I7
I3
tp475
a(I9
I1
tp476
a(I7
I1
tp477
a(I5
I6
tp478
a(I8
I11
tp479
a(I8
I0
tp480
a(I1
I4
tp481
a(I6
I2
tp482
a(I0
I7
tp483
ag471
a(I10
I3
tp484
a(I7
I2
tp485
a(I10
I4
tp486
a(I11
I7
tp487
a(I9
I0
tp488
a(I11
I5
tp489
a(I7
I4
tp490
a(I1
I5
tp491
a(I10
I2
tp492
a(I11
I6
tp493
a(I8
I4
tp494
atp495
Rp496
sg15
I13
sg29
g20
((lp497
(I12
I5
tp498
a(I10
I11
tp499
a(I8
I1
tp500
a(I7
I8
tp501
a(I8
I6
tp502
a(I6
I3
tp503
a(I2
I0
tp504
a(I2
I3
tp505
a(I5
I1
tp506
a(I10
I0
tp507
a(I3
I4
tp508
atp509
Rp510
sg13
((I10
I8
tp511
(I9
I2
tp512
(I4
I5
tp513
(I11
I8
tp514
(I1
I2
tp515
(I3
I1
tp516
(I0
I10
tp517
tp518
sg14
I12
sbs(iproblems
RoomID
p519
(dp520
g10
I11
sg11
(I7
I9
tp521
sg13
I6
sg14
I13
sg15
I10
sg16
I8744744311366254845
sb(imulti_robot_problem
MultiRobotState
p522
(dp523
g19
g20
((lp524
(I6
I9
tp525
a(I1
I3
tp526
a(I4
I9
tp527
a(I5
I6
tp528
a(I9
I8
tp529
a(I1
I8
tp530
a(I1
I0
tp531
ag521
a(I3
I4
tp532
a(I5
I8
tp533
a(I9
I7
tp534
atp535
Rp536
sg15
I10
sg29
g20
((lp537
(I0
I1
tp538
a(I7
I3
tp539
a(I9
I0
tp540
a(I1
I12
tp541
a(I4
I10
tp542
a(I5
I11
tp543
a(I9
I10
tp544
a(I7
I11
tp545
a(I3
I7
tp546
a(I0
I8
tp547
a(I9
I6
tp548
atp549
Rp550
sg13
((I0
I10
tp551
(I6
I3
tp552
(I4
I0
tp553
(I1
I6
tp554
(I7
I5
tp555
(I9
I9
tp556
tp557
sg14
I13
sbs(iproblems
RoomID
p558
(dp559
g10
I15
sg11
(I4
I8
tp560
sg13
I6
sg14
I13
sg15
I12
sg16
I4278205817407065157
sb(imulti_robot_problem
MultiRobotState
p561
(dp562
g19
g20
((lp563
(I11
I7
tp564
a(I2
I9
tp565
ag560
a(I5
I6
tp566
a(I2
I8
tp567
a(I6
I10
tp568
a(I3
I8
tp569
a(I11
I8
tp570
a(I3
I9
tp571
a(I1
I10
tp572
a(I1
I11
tp573
a(I7
I8
tp574
a(I2
I4
tp575
atp576
Rp577
sg15
I12
sg29
g20
((lp578
(I1
I2
tp579
a(I0
I1
tp580
a(I5
I4
tp581
a(I5
I7
tp582
a(I10
I4
tp583
a(I7
I1
tp584
a(I3
I1
tp585
a(I10
I5
tp586
a(I4
I7
tp587
a(I9
I9
tp588
a(I0
I10
tp589
a(I4
I3
tp590
a(I8
I12
tp591
a(I4
I1
tp592
a(I0
I2
tp593
atp594
Rp595
sg13
((I7
I10
tp596
(I6
I12
tp597
(I2
I0
tp598
(I9
I1
tp599
(I10
I3
tp600
(I4
I0
tp601
tp602
sg14
I13
sbs(iproblems
RoomID
p603
(dp604
g10
I15
sg11
(I5
I8
tp605
sg13
I7
sg14
I13
sg15
I11
sg16
I8655808914197340073
sb(imulti_robot_problem
MultiRobotState
p606
(dp607
g19
g20
((lp608
(I5
I9
tp609
a(I6
I7
tp610
a(I6
I11
tp611
a(I1
I4
tp612
a(I0
I12
tp613
a(I0
I11
tp614
a(I7
I5
tp615
a(I1
I6
tp616
a(I0
I4
tp617
a(I5
I10
tp618
a(I3
I9
tp619
a(I4
I9
tp620
a(I10
I3
tp621
ag605
atp622
Rp623
sg15
I11
sg29
g20
((lp624
(I2
I7
tp625
a(I7
I3
tp626
a(I4
I6
tp627
a(I1
I12
tp628
a(I5
I6
tp629
a(I8
I5
tp630
a(I7
I7
tp631
a(I7
I9
tp632
a(I2
I0
tp633
a(I9
I4
tp634
a(I7
I10
tp635
a(I0
I8
tp636
a(I9
I6
tp637
a(I6
I5
tp638
a(I9
I7
tp639
atp640
Rp641
sg13
((I9
I11
tp642
(I8
I1
tp643
(I3
I4
tp644
(I8
I7
tp645
(I9
I1
tp646
(I2
I10
tp647
(I2
I12
tp648
tp649
sg14
I13
sbs(iproblems
RoomID
p650
(dp651
g10
I15
sg11
(I3
I6
tp652
sg13
I7
sg14
I10
sg15
I13
sg16
I2796939073032698495
sb(imulti_robot_problem
MultiRobotState
p653
(dp654
g19
g20
((lp655
(I5
I9
tp656
a(I6
I9
tp657
a(I4
I6
tp658
a(I5
I0
tp659
a(I6
I6
tp660
a(I4
I5
tp661
a(I5
I4
tp662
a(I6
I7
tp663
a(I6
I2
tp664
a(I0
I5
tp665
a(I8
I7
tp666
a(I5
I1
tp667
a(I6
I4
tp668
a(I12
I9
tp669
a(I5
I8
tp670
a(I5
I3
tp671
a(I2
I7
tp672
a(I4
I9
tp673
a(I5
I5
tp674
a(I3
I1
tp675
a(I4
I8
tp676
a(I2
I0
tp677
a(I3
I9
tp678
a(I6
I5
tp679
ag652
a(I5
I7
tp680
a(I7
I8
tp681
atp682
Rp683
sg15
I13
sg29
g20
((lp684
(I1
I2
tp685
a(I8
I2
tp686
a(I2
I9
tp687
a(I12
I0
tp688
a(I4
I1
tp689
a(I12
I8
tp690
a(I6
I0
tp691
a(I9
I9
tp692
a(I2
I3
tp693
a(I9
I4
tp694
a(I1
I7
tp695
a(I0
I9
tp696
a(I7
I9
tp697
a(I3
I4
tp698
a(I3
I3
tp699
atp700
Rp701
sg13
((I10
I2
tp702
(I11
I8
tp703
(I12
I5
tp704
(I8
I9
tp705
(I10
I3
tp706
(I0
I3
tp707
(I11
I2
tp708
tp709
sg14
I10
sbssg161
S'heavy_roomset'
p710
sbsg161
g163
sg164
(dp711
g469
((lp712
F46.330000000001746
tp713
sg519
((lp714
F41.569999999999709
tp715
sg558
((lp716
F42.970000000001164
tp717
sg603
((lp718
F42.829999999998108
tp719
sg650
((lp720
F41.720000000001164
tp721
ssba(imeasure_core
ProblemSetSolution
p722
(dp723
g3
g4
sg161
S"AnytimeBeam-w15-gf(1.5, 'exp')_with_PowerHeuristic2"
p724
sg164
(dp725
g8
((lp726
(F0.4500000000007276
I10
tp727
aF40.329999999998108
tp728
sg44
((lp729
(F1.6599999999998545
I14
tp730
aF40.040000000000873
tp731
sg71
((lp732
(F0.11999999999898137
I49
tp733
a(F0.33000000000174623
I47
tp734
a(F0.54000000000087311
I45
tp735
a(F0.81000000000130967
I43
tp736
a(F1.2400000000016007
I41
tp737
a(F1.6599999999998545
I40
tp738
a(F2.6500000000014552
I39
tp739
a(F3.5400000000008731
I38
tp740
a(F4.7900000000008731
I37
tp741
a(F5.9599999999991269
I35
tp742
a(F7.5999999999985448
I33
tp743
a(F9.9199999999982538
I31
tp744
a(F11.880000000001019
I29
tp745
a(F13.43999999999869
I27
tp746
a(F15.419999999998254
I25
tp747
a(F19.759999999998399
I24
tp748
a(F23.650000000001455
I22
tp749
a(F26.93999999999869
I20
tp750
aF40.0
tp751
sg96
((lp752
(F7.0299999999988358
I9
tp753
aF40.909999999999854
tp754
sg130
((lp755
(F28.599999999998545
I144
tp756
aF40.110000000000582
tp757
ssba(imeasure_core
ProblemSetSolution
p758
(dp759
g3
g200
sg161
g724
sg164
(dp760
g203
((lp761
(F35.009999999998399
I24
tp762
aF40.099999999998545
tp763
sg251
((lp764
F40.630000000001019
tp765
sg301
((lp766
F40.090000000000146
tp767
sg360
((lp768
(F3.4399999999986903
I25
tp769
aF40.110000000000582
tp770
sg404
((lp771
(F5.0400000000008731
I28
tp772
aF40.639999999999418
tp773
ssba(imeasure_core
ProblemSetSolution
p774
(dp775
g3
g466
sg161
g724
sg164
(dp776
g469
((lp777
F46.159999999999854
tp778
sg519
((lp779
F41.659999999999854
tp780
sg558
((lp781
F43.040000000000873
tp782
sg603
((lp783
F42.690000000002328
tp784
sg650
((lp785
F41.979999999999563
tp786
ssba(imeasure_core
ProblemSetSolution
p787
(dp788
g3
g4
sg161
S"AnytimeBeam-w25-gf(1.5, 'exp')_with_PowerHeuristic2"
p789
sg164
(dp790
g8
((lp791
(F0.47999999999956344
I10
tp792
aF40.020000000000437
tp793
sg44
((lp794
(F1.6700000000018917
I14
tp795
aF40.180000000000291
tp796
sg71
((lp797
(F0.11999999999898137
I49
tp798
a(F0.32999999999810825
I47
tp799
a(F0.54000000000087311
I45
tp800
a(F0.7999999999992724
I43
tp801
a(F1.2299999999995634
I41
tp802
a(F1.6500000000014552
I40
tp803
a(F2.6500000000014552
I39
tp804
a(F3.5400000000008731
I38
tp805
a(F4.7900000000008731
I37
tp806
a(F5.9500000000007276
I35
tp807
a(F7.5900000000001455
I33
tp808
a(F9.9099999999998545
I31
tp809
a(F11.869999999998981
I29
tp810
a(F13.430000000000291
I27
tp811
a(F15.400000000001455
I25
tp812
a(F19.740000000001601
I24
tp813
a(F23.599999999998545
I22
tp814
a(F26.889999999999418
I20
tp815
aF40.0
tp816
sg96
((lp817
(F7.0200000000004366
I9
tp818
aF40.959999999999127
tp819
sg130
((lp820
(F28.580000000001746
I144
tp821
aF40.090000000000146
tp822
ssba(imeasure_core
ProblemSetSolution
p823
(dp824
g3
g200
sg161
g789
sg164
(dp825
g203
((lp826
(F35.169999999998254
I24
tp827
aF40.079999999998108
tp828
sg251
((lp829
F40.630000000001019
tp830
sg301
((lp831
F40.119999999998981
tp832
sg360
((lp833
(F3.4500000000007276
I25
tp834
aF40.029999999998836
tp835
sg404
((lp836
(F5.0100000000020373
I28
tp837
aF40.480000000003201
tp838
ssba(imeasure_core
ProblemSetSolution
p839
(dp840
g3
g466
sg161
g789
sg164
(dp841
g469
((lp842
F46.039999999997235
tp843
sg519
((lp844
F41.580000000001746
tp845
sg558
((lp846
F42.909999999999854
tp847
sg603
((lp848
F42.970000000001164
tp849
sg650
((lp850
F41.93999999999869
tp851
ssba(imeasure_core
ProblemSetSolution
p852
(dp853
g3
g4
sg161
S"AnytimeBeam-w35-gf(1.5, 'exp')_with_PowerHeuristic2"
p854
sg164
(dp855
g8
((lp856
(F0.56000000000130967
I10
tp857
aF40.360000000000582
tp858
sg44
((lp859
(F1.6599999999998545
I14
tp860
aF40.049999999999272
tp861
sg71
((lp862
(F0.11000000000058208
I49
tp863
a(F0.31999999999970896
I47
tp864
a(F0.54000000000087311
I45
tp865
a(F0.7999999999992724
I43
tp866
a(F1.2299999999995634
I41
tp867
a(F1.6500000000014552
I40
tp868
a(F2.6500000000014552
I39
tp869
a(F3.5400000000008731
I38
tp870
a(F4.7900000000008731
I37
tp871
a(F5.9399999999986903
I35
tp872
a(F7.5799999999981083
I33
tp873
a(F9.9000000000014552
I31
tp874
a(F11.869999999998981
I29
tp875
a(F13.430000000000291
I27
tp876
a(F15.409999999999854
I25
tp877
a(F19.740000000001601
I24
tp878
a(F23.610000000000582
I22
tp879
a(F26.889999999999418
I20
tp880
aF40.0
tp881
sg96
((lp882
(F6.9799999999995634
I9
tp883
aF41.139999999999418
tp884
sg130
((lp885
(F28.569999999999709
I144
tp886
aF40.069999999999709
tp887
ssba(imeasure_core
ProblemSetSolution
p888
(dp889
g3
g200
sg161
g854
sg164
(dp890
g203
((lp891
(F35.170000000001892
I24
tp892
aF40.06000000000131
tp893
sg251
((lp894
F40.610000000000582
tp895
sg301
((lp896
F40.090000000000146
tp897
sg360
((lp898
(F3.4199999999982538
I25
tp899
aF40.009999999998399
tp900
sg404
((lp901
(F5.0299999999988358
I28
tp902
aF40.599999999998545
tp903
ssba(imeasure_core
ProblemSetSolution
p904
(dp905
g3
g466
sg161
g854
sg164
(dp906
g469
((lp907
F45.770000000000437
tp908
sg519
((lp909
F41.5
tp910
sg558
((lp911
F43.040000000000873
tp912
sg603
((lp913
F42.779999999998836
tp914
sg650
((lp915
F41.790000000000873
tp916
ssba(imeasure_core
ProblemSetSolution
p917
(dp918
g3
g4
sg161
S"AnytimeBeam-w45-gf(1.5, 'exp')_with_PowerHeuristic2"
p919
sg164
(dp920
g8
((lp921
(F0.59000000000014552
I10
tp922
aF40.340000000000146
tp923
sg44
((lp924
(F1.6300000000010186
I14
tp925
aF40.020000000000437
tp926
sg71
((lp927
(F0.11999999999898137
I49
tp928
a(F0.32999999999810825
I47
tp929
a(F0.54000000000087311
I45
tp930
a(F0.81000000000130967
I43
tp931
a(F1.2399999999979627
I41
tp932
a(F1.6699999999982538
I40
tp933
a(F2.6699999999982538
I39
tp934
a(F3.5600000000013097
I38
tp935
a(F4.819999999999709
I37
tp936
a(F5.9799999999995634
I35
tp937
a(F7.6199999999989814
I33
tp938
a(F9.9500000000007276
I31
tp939
a(F11.900000000001455
I29
tp940
a(F13.459999999999127
I27
tp941
a(F15.450000000000728
I25
tp942
a(F19.790000000000873
I24
tp943
a(F23.669999999998254
I22
tp944
a(F26.970000000001164
I20
tp945
aF40.0
tp946
sg96
((lp947
(F7.0299999999988358
I9
tp948
aF40.909999999999854
tp949
sg130
((lp950
(F28.599999999998545
I144
tp951
aF40.099999999998545
tp952
ssba(imeasure_core
ProblemSetSolution
p953
(dp954
g3
g200
sg161
g919
sg164
(dp955
g203
((lp956
(F35.0
I24
tp957
aF40.079999999998108
tp958
sg251
((lp959
F40.020000000000437
tp960
sg301
((lp961
F40.110000000000582
tp962
sg360
((lp963
(F3.4200000000018917
I25
tp964
aF40.06000000000131
tp965
sg404
((lp966
(F5.0299999999988358
I28
tp967
aF40.44999999999709
tp968
ssba(imeasure_core
ProblemSetSolution
p969
(dp970
g3
g466
sg161
g919
sg164
(dp971
g469
((lp972
F45.81000000000131
tp973
sg519
((lp974
F41.43999999999869
tp975
sg558
((lp976
F43.05000000000291
tp977
sg603
((lp978
F42.930000000000291
tp979
sg650
((lp980
F41.819999999999709
tp981
ssba(imeasure_core
ProblemSetSolution
p982
(dp983
g3
g4
sg161
S"AnytimeBeam-w5-gf(1.5, 'exp')_with_LinearHeuristic"
p984
sg164
(dp985
g8
((lp986
F40.479999999999563
tp987
sg44
((lp988
F40.139999999999418
tp989
sg71
((lp990
(F0.020000000000436557
I22
tp991
a(F0.1400000000030559
I20
tp992
aF40.0
tp993
sg96
((lp994
(F7.9000000000014552
I6
tp995
aF40.120000000002619
tp996
sg130
((lp997
(F7.6699999999982538
I58
tp998
aF40.079999999998108
tp999
ssba(imeasure_core
ProblemSetSolution
p1000
(dp1001
g3
g200
sg161
g984
sg164
(dp1002
g203
((lp1003
F40.400000000001455
tp1004
sg251
((lp1005
F41.069999999999709
tp1006
sg301
((lp1007
F40.040000000000873
tp1008
sg360
((lp1009
F40.479999999999563
tp1010
sg404
((lp1011
F40.700000000000728
tp1012
ssba(imeasure_core
ProblemSetSolution
p1013
(dp1014
g3
g466
sg161
g984
sg164
(dp1015
g469
((lp1016
F80.5
tp1017
sg519
((lp1018
F47.340000000000146
tp1019
sg558
((lp1020
F49.759999999998399
tp1021
sg603
((lp1022
F80.959999999999127
tp1023
sg650
((lp1024
F42.299999999999272
tp1025
ssba(imeasure_core
ProblemSetSolution
p1026
(dp1027
g3
g4
sg161
S"AnytimeBeam-w15-gf(1.5, 'exp')_with_LinearHeuristic"
p1028
sg164
(dp1029
g8
((lp1030
F40.040000000000873
tp1031
sg44
((lp1032
F40.259999999998399
tp1033
sg71
((lp1034
(F0.020000000000436557
I22
tp1035
a(F0.15000000000145519
I20
tp1036
aF40.0
tp1037
sg96
((lp1038
(F7.7299999999995634
I6
tp1039
aF40.209999999999127
tp1040
sg130
((lp1041
(F7.6100000000005821
I58
tp1042
aF40.040000000000873
tp1043
ssba(imeasure_core
ProblemSetSolution
p1044
(dp1045
g3
g200
sg161
g1028
sg164
(dp1046
g203
((lp1047
F40.530000000002474
tp1048
sg251
((lp1049
F40.919999999998254
tp1050
sg301
((lp1051
F40.229999999999563
tp1052
sg360
((lp1053
F40.350000000002183
tp1054
sg404
((lp1055
F40.430000000000291
tp1056
ssba(imeasure_core
ProblemSetSolution
p1057
(dp1058
g3
g466
sg161
g1028
sg164
(dp1059
g469
((lp1060
F80.639999999999418
tp1061
sg519
((lp1062
F47.319999999999709
tp1063
sg558
((lp1064
F49.709999999999127
tp1065
sg603
((lp1066
F80.950000000000728
tp1067
sg650
((lp1068
F42.450000000000728
tp1069
ssba(imeasure_core
ProblemSetSolution
p1070
(dp1071
g3
g4
sg161
S"AnytimeBeam-w25-gf(1.5, 'exp')_with_LinearHeuristic"
p1072
sg164
(dp1073
g8
((lp1074
(F37.389999999999418
I198
tp1075
aF40.009999999998399
tp1076
sg44
((lp1077
F40.200000000000728
tp1078
sg71
((lp1079
(F0.020000000000436557
I22
tp1080
a(F0.13999999999941792
I20
tp1081
aF40.0
tp1082
sg96
((lp1083
(F8.0
I6
tp1084
aF40.56000000000131
tp1085
sg130
((lp1086
(F7.5900000000001455
I58
tp1087
aF40.129999999997381
tp1088
ssba(imeasure_core
ProblemSetSolution
p1089
(dp1090
g3
g200
sg161
g1072
sg164
(dp1091
g203
((lp1092
F40.489999999997963
tp1093
sg251
((lp1094
F40.960000000002765
tp1095
sg301
((lp1096
F40.020000000000437
tp1097
sg360
((lp1098
F40.789999999997235
tp1099
sg404
((lp1100
F40.240000000001601
tp1101
ssba(imeasure_core
ProblemSetSolution
p1102
(dp1103
g3
g466
sg161
g1072
sg164
(dp1104
g469
((lp1105
F80.860000000000582
tp1106
sg519
((lp1107
F47.209999999999127
tp1108
sg558
((lp1109
F49.720000000001164
tp1110
sg603
((lp1111
F81.119999999998981
tp1112
sg650
((lp1113
F42.509999999998399
tp1114
ssba(imeasure_core
ProblemSetSolution
p1115
(dp1116
g3
g4
sg161
S"AnytimeBeam-w35-gf(1.5, 'exp')_with_LinearHeuristic"
p1117
sg164
(dp1118
g8
((lp1119
F40.029999999998836
tp1120
sg44
((lp1121
F40.270000000000437
tp1122
sg71
((lp1123
(F0.020000000000436557
I22
tp1124
a(F0.13999999999941792
I20
tp1125
aF40.0
tp1126
sg96
((lp1127
(F7.9700000000011642
I6
tp1128
aF40.729999999999563
tp1129
sg130
((lp1130
(F7.680000000000291
I58
tp1131
aF40.020000000000437
tp1132
ssba(imeasure_core
ProblemSetSolution
p1133
(dp1134
g3
g200
sg161
g1117
sg164
(dp1135
g203
((lp1136
F40.569999999999709
tp1137
sg251
((lp1138
F41.06000000000131
tp1139
sg301
((lp1140
F40.259999999998399
tp1141
sg360
((lp1142
F40.619999999998981
tp1143
sg404
((lp1144
F40.100000000002183
tp1145
ssba(imeasure_core
ProblemSetSolution
p1146
(dp1147
g3
g466
sg161
g1117
sg164
(dp1148
g469
((lp1149
F81.319999999999709
tp1150
sg519
((lp1151
F47.430000000000291
tp1152
sg558
((lp1153
F49.760000000002037
tp1154
sg603
((lp1155
F80.799999999999272
tp1156
sg650
((lp1157
F42.549999999999272
tp1158
ssba(imeasure_core
ProblemSetSolution
p1159
(dp1160
g3
g4
sg161
S"AnytimeBeam-w45-gf(1.5, 'exp')_with_LinearHeuristic"
p1161
sg164
(dp1162
g8
((lp1163
F40.520000000000437
tp1164
sg44
((lp1165
F40.139999999999418
tp1166
sg71
((lp1167
(F0.020000000000436557
I22
tp1168
a(F0.13999999999941792
I20
tp1169
aF40.0
tp1170
sg96
((lp1171
(F8.2000000000007276
I6
tp1172
aF40.100000000002183
tp1173
sg130
((lp1174
(F7.6599999999998545
I58
tp1175
aF40.119999999998981
tp1176
ssba(imeasure_core
ProblemSetSolution
p1177
(dp1178
g3
g200
sg161
g1161
sg164
(dp1179
g203
((lp1180
F40.549999999999272
tp1181
sg251
((lp1182
F40.909999999999854
tp1183
sg301
((lp1184
F40.140000000003056
tp1185
sg360
((lp1186
F40.419999999998254
tp1187
sg404
((lp1188
F40.040000000000873
tp1189
ssba(imeasure_core
ProblemSetSolution
p1190
(dp1191
g3
g466
sg161
g1161
sg164
(dp1192
g469
((lp1193
F81.040000000000873
tp1194
sg519
((lp1195
F47.260000000002037
tp1196
sg558
((lp1197
F49.639999999999418
tp1198
sg603
((lp1199
F81.059999999997672
tp1200
sg650
((lp1201
F42.350000000002183
tp1202
ssba.