(lp0
(imeasure_core
ProblemSetSolution
p1
(dp2
S'roomset'
p3
(imeasure_core
RoomSet
p4
(dp5
S'rooms'
p6
(dp7
(iproblems
RoomID
p8
(dp9
S'dusts'
p10
I6
sS'obstacles'
p11
(I3
I2
tp12
sS'robots'
p13
I1
sS'height'
p14
I9
sS'width'
p15
I10
sS'seed'
p16
I6832892905590973747
sb(imulti_robot_problem
MultiRobotState
p17
(dp18
S'obstacle_locations'
p19
c__builtin__
frozenset
p20
((lp21
(I3
I0
tp22
a(I2
I0
tp23
ag12
a(I3
I1
tp24
atp25
Rp26
sg15
I10
sS'dirt_locations'
p27
g20
((lp28
(I1
I2
tp29
a(I2
I7
tp30
a(I0
I0
tp31
a(I0
I5
tp32
a(I5
I6
tp33
a(I0
I2
tp34
atp35
Rp36
sg13
((I8
I4
tp37
tp38
sg14
I9
sbs(iproblems
RoomID
p39
(dp40
g10
I7
sg11
(I3
I5
tp41
sg13
I5
sg14
I7
sg15
I9
sg16
I6924344268699531175
sb(imulti_robot_problem
MultiRobotState
p42
(dp43
g19
g20
((lp44
(I2
I6
tp45
a(I1
I6
tp46
a(I3
I6
tp47
ag41
atp48
Rp49
sg15
I9
sg27
g20
((lp50
(I1
I2
tp51
a(I0
I0
tp52
a(I5
I0
tp53
a(I7
I1
tp54
a(I8
I6
tp55
a(I3
I4
tp56
a(I6
I5
tp57
atp58
Rp59
sg13
((I4
I0
tp60
(I7
I2
tp61
(I1
I1
tp62
(I6
I1
tp63
(I8
I4
tp64
tp65
sg14
I7
sbs(iproblems
RoomID
p66
(dp67
g10
I5
sg11
(I4
I7
tp68
sg13
I3
sg14
I9
sg15
I7
sg16
I2524308075868763041
sb(imulti_robot_problem
MultiRobotState
p69
(dp70
g19
g20
((lp71
(I1
I2
tp72
a(I3
I8
tp73
ag68
a(I4
I6
tp74
a(I4
I1
tp75
a(I2
I4
tp76
a(I3
I5
tp77
atp78
Rp79
sg15
I7
sg27
g20
((lp80
(I2
I6
tp81
a(I5
I2
tp82
a(I3
I3
tp83
a(I0
I7
tp84
a(I3
I6
tp85
atp86
Rp87
sg13
((I0
I6
tp88
(I3
I1
tp89
(I4
I8
tp90
tp91
sg14
I9
sbs(iproblems
RoomID
p92
(dp93
g10
I6
sg11
(I3
I1
tp94
sg13
I4
sg14
I8
sg15
I7
sg16
I807570059310326234
sb(imulti_robot_problem
MultiRobotState
p95
(dp96
g19
g20
((lp97
(I6
I3
tp98
a(I4
I2
tp99
ag94
a(I5
I3
tp100
atp101
Rp102
sg15
I7
sg27
g20
((lp103
(I3
I2
tp104
a(I6
I7
tp105
a(I4
I6
tp106
a(I0
I4
tp107
a(I1
I0
tp108
a(I5
I2
tp109
atp110
Rp111
sg13
((I1
I2
tp112
(I0
I1
tp113
(I3
I7
tp114
(I2
I4
tp115
tp116
sg14
I8
sbs(iproblems
RoomID
p117
(dp118
g10
I8
sg11
(I5
I0
tp119
sg13
I4
sg14
I10
sg15
I10
sg16
I3562373307524659409
sb(imulti_robot_problem
MultiRobotState
p120
(dp121
g19
g20
((lp122
(I6
I3
tp123
a(I6
I7
tp124
ag119
a(I3
I6
tp125
a(I8
I1
tp126
a(I7
I0
tp127
a(I6
I0
tp128
atp129
Rp130
sg15
I10
sg27
g20
((lp131
(I1
I3
tp132
a(I2
I9
tp133
a(I7
I6
tp134
a(I7
I7
tp135
a(I8
I9
tp136
a(I1
I8
tp137
a(I1
I6
tp138
a(I2
I2
tp139
atp140
Rp141
sg13
((I9
I8
tp142
(I6
I5
tp143
(I5
I1
tp144
(I8
I8
tp145
tp146
sg14
I10
sbssS'name'
p147
S'easy_roomset'
p148
sbsg147
S"AnytimeBeam-w20-gf(1.3, 'exp')_with_PowerHeuristic2"
p149
sS'solutions'
p150
(dp151
g8
((lp152
(F0.15000000000145519
I50
tp153
a(F0.73999999999796273
I44
tp154
a(F3.2000000000043656
I43
tp155
a(F4.1300000000046566
I42
tp156
a(F5.0800000000017462
I38
tp157
a(F6.7300000000032014
I37
tp158
a(F8.3300000000017462
I35
tp159
a(F9.6300000000046566
I33
tp160
a(F10.630000000004657
I31
tp161
a(F12.459999999999127
I29
tp162
a(F15.120000000002619
I27
tp163
a(F18.690000000002328
I25
tp164
a(F23.239999999997963
I22
tp165
a(F25.889999999999418
I20
tp166
aF40.0
tp167
sg39
((lp168
(F9.9000000000014552
I7
tp169
aF41.029999999998836
tp170
sg66
((lp171
(F0.090000000003783498
I7
tp172
aF40.029999999998836
tp173
sg92
((lp174
F40.890000000006694
tp175
sg117
((lp176
(F1.5299999999988358
I10
tp177
aF40.069999999999709
tp178
ssba(imeasure_core
ProblemSetSolution
p179
(dp180
g3
(imeasure_core
RoomSet
p181
(dp182
g6
(dp183
(iproblems
RoomID
p184
(dp185
g10
I6
sg11
(I6
I2
tp186
sg13
I3
sg14
I11
sg15
I12
sg16
I6832892905590973747
sb(imulti_robot_problem
MultiRobotState
p187
(dp188
g19
g20
((lp189
(I6
I4
tp190
a(I2
I6
tp191
a(I4
I3
tp192
a(I3
I0
tp193
a(I2
I8
tp194
a(I7
I7
tp195
a(I7
I5
tp196
a(I4
I2
tp197
a(I5
I3
tp198
a(I4
I1
tp199
a(I7
I6
tp200
a(I6
I3
tp201
a(I4
I5
tp202
ag186
a(I3
I6
tp203
a(I8
I6
tp204
a(I4
I0
tp205
a(I5
I2
tp206
a(I2
I4
tp207
atp208
Rp209
sg15
I12
sg27
g20
((lp210
(I1
I6
tp211
a(I6
I8
tp212
a(I2
I9
tp213
a(I0
I3
tp214
a(I0
I2
tp215
a(I7
I9
tp216
atp217
Rp218
sg13
((I10
I6
tp219
(I1
I2
tp220
(I0
I0
tp221
tp222
sg14
I11
sbs(iproblems
RoomID
p223
(dp224
g10
I7
sg11
(I3
I1
tp225
sg13
I4
sg14
I9
sg15
I11
sg16
I6924344268699531175
sb(imulti_robot_problem
MultiRobotState
p226
(dp227
g19
g20
((lp228
(I4
I7
tp229
ag225
a(I6
I6
tp230
a(I5
I6
tp231
a(I2
I8
tp232
a(I9
I8
tp233
a(I7
I7
tp234
a(I0
I7
tp235
a(I7
I5
tp236
a(I8
I7
tp237
a(I0
I3
tp238
a(I0
I8
tp239
a(I8
I5
tp240
a(I6
I3
tp241
a(I5
I2
tp242
a(I7
I6
tp243
a(I4
I8
tp244
a(I7
I4
tp245
a(I3
I8
tp246
a(I0
I6
tp247
a(I8
I8
tp248
a(I4
I1
tp249
a(I9
I7
tp250
atp251
Rp252
sg15
I11
sg27
g20
((lp253
(I8
I3
tp254
a(I1
I3
tp255
a(I4
I6
tp256
a(I4
I3
tp257
a(I0
I4
tp258
a(I10
I5
tp259
a(I0
I0
tp260
atp261
Rp262
sg13
((I6
I0
tp263
(I9
I3
tp264
(I1
I1
tp265
(I8
I1
tp266
tp267
sg14
I9
sbs(iproblems
RoomID
p268
(dp269
g10
I8
sg11
(I11
I7
tp270
sg13
I4
sg14
I12
sg15
I12
sg16
I3562373307524659409
sb(imulti_robot_problem
MultiRobotState
p271
(dp272
g19
g20
((lp273
(I6
I4
tp274
a(I6
I9
tp275
a(I3
I2
tp276
a(I9
I1
tp277
a(I6
I6
tp278
a(I5
I6
tp279
a(I9
I8
tp280
a(I3
I11
tp281
a(I7
I1
tp282
ag270
a(I8
I9
tp283
a(I3
I9
tp284
a(I11
I8
tp285
a(I10
I2
tp286
a(I4
I2
tp287
a(I7
I2
tp288
a(I10
I8
tp289
a(I8
I3
tp290
a(I8
I1
tp291
a(I3
I10
tp292
a(I5
I11
tp293
a(I6
I3
tp294
a(I6
I11
tp295
a(I6
I5
tp296
a(I7
I10
tp297
a(I4
I8
tp298
a(I11
I6
tp299
a(I4
I11
tp300
atp301
Rp302
sg15
I12
sg27
g20
((lp303
(I7
I3
tp304
a(I1
I3
tp305
a(I10
I11
tp306
a(I1
I7
tp307
a(I8
I8
tp308
a(I2
I2
tp309
a(I3
I7
tp310
a(I7
I9
tp311
atp312
Rp313
sg13
((I11
I10
tp314
(I7
I6
tp315
(I10
I10
tp316
(I2
I10
tp317
tp318
sg14
I12
sbs(iproblems
RoomID
p319
(dp320
g10
I6
sg11
(I2
I5
tp321
sg13
I4
sg14
I10
sg15
I9
sg16
I807570059310326234
sb(imulti_robot_problem
MultiRobotState
p322
(dp323
g19
g20
((lp324
(I6
I4
tp325
a(I3
I2
tp326
a(I1
I3
tp327
a(I8
I2
tp328
a(I2
I3
tp329
a(I3
I8
tp330
ag321
a(I1
I0
tp331
a(I1
I2
tp332
a(I7
I4
tp333
a(I4
I1
tp334
a(I3
I3
tp335
a(I3
I4
tp336
a(I1
I1
tp337
a(I6
I3
tp338
a(I2
I0
tp339
a(I1
I8
tp340
a(I2
I2
tp341
a(I5
I2
tp342
a(I0
I2
tp343
a(I8
I4
tp344
atp345
Rp346
sg15
I9
sg27
g20
((lp347
(I7
I3
tp348
a(I2
I6
tp349
a(I1
I6
tp350
a(I4
I2
tp351
a(I5
I8
tp352
a(I7
I9
tp353
atp354
Rp355
sg13
((I6
I2
tp356
(I0
I1
tp357
(I3
I9
tp358
(I3
I5
tp359
tp360
sg14
I10
sbs(iproblems
RoomID
p361
(dp362
g10
I10
sg11
(I6
I8
tp363
sg13
I3
sg14
I11
sg15
I10
sg16
I7391799147228763464
sb(imulti_robot_problem
MultiRobotState
p364
(dp365
g19
g20
((lp366
(I5
I9
tp367
a(I4
I7
tp368
a(I4
I6
tp369
a(I4
I8
tp370
a(I4
I5
tp371
a(I6
I9
tp372
a(I0
I7
tp373
a(I1
I4
tp374
a(I3
I7
tp375
a(I5
I8
tp376
ag363
a(I2
I7
tp377
a(I3
I8
tp378
a(I4
I9
tp379
a(I3
I3
tp380
a(I9
I2
tp381
a(I6
I3
tp382
a(I3
I6
tp383
a(I1
I7
tp384
a(I0
I9
tp385
a(I7
I8
tp386
a(I0
I2
tp387
a(I1
I9
tp388
atp389
Rp390
sg15
I10
sg27
g20
((lp391
(I8
I3
tp392
a(I5
I10
tp393
a(I5
I5
tp394
a(I2
I8
tp395
a(I7
I6
tp396
a(I6
I0
tp397
a(I2
I10
tp398
a(I9
I4
tp399
a(I1
I10
tp400
a(I0
I3
tp401
atp402
Rp403
sg13
((I3
I10
tp404
(I7
I1
tp405
(I1
I5
tp406
tp407
sg14
I11
sbssg147
S'mild_roomset'
p408
sbsg147
g149
sg150
(dp409
g184
((lp410
(F0.25999999999476131
I10
tp411
aF40.089999999996508
tp412
sg223
((lp413
F40.120000000002619
tp414
sg268
((lp415
(F13.110000000000582
I75
tp416
aF40.129999999997381
tp417
sg319
((lp418
(F27.489999999997963
I108
tp419
aF40.260000000002037
tp420
sg361
((lp421
(F1.8099999999976717
I36
tp422
aF40.069999999999709
tp423
ssba(imeasure_core
ProblemSetSolution
p424
(dp425
g3
(imeasure_core
RoomSet
p426
(dp427
g6
(dp428
(iproblems
RoomID
p429
(dp430
g10
I11
sg11
(I4
I2
tp431
sg13
I5
sg14
I12
sg15
I13
sg16
I6832892905590973747
sb(imulti_robot_problem
MultiRobotState
p432
(dp433
g19
g20
((lp434
(I5
I9
tp435
a(I6
I9
tp436
a(I8
I2
tp437
a(I3
I0
tp438
a(I3
I4
tp439
a(I12
I11
tp440
ag431
a(I4
I1
tp441
a(I4
I0
tp442
atp443
Rp444
sg15
I13
sg27
g20
((lp445
(I2
I7
tp446
a(I9
I0
tp447
a(I6
I8
tp448
a(I4
I5
tp449
a(I2
I8
tp450
a(I8
I10
tp451
a(I2
I10
tp452
a(I1
I7
tp453
a(I3
I7
tp454
a(I2
I5
tp455
a(I0
I8
tp456
atp457
Rp458
sg13
((I11
I6
tp459
(I1
I2
tp460
(I1
I0
tp461
(I0
I3
tp462
(I0
I2
tp463
tp464
sg14
I12
sbs(iproblems
RoomID
p465
(dp466
g10
I12
sg11
(I6
I7
tp467
sg13
I7
sg14
I10
sg15
I12
sg16
I6924344268699531175
sb(imulti_robot_problem
MultiRobotState
p468
(dp469
g19
g20
((lp470
(I4
I7
tp471
ag467
a(I2
I9
tp472
a(I4
I8
tp473
a(I9
I6
tp474
a(I5
I7
tp475
a(I0
I6
tp476
a(I3
I9
tp477
a(I0
I9
tp478
a(I4
I9
tp479
a(I4
I1
tp480
atp481
Rp482
sg15
I12
sg27
g20
((lp483
(I7
I3
tp484
a(I5
I4
tp485
a(I1
I3
tp486
a(I9
I1
tp487
a(I8
I3
tp488
a(I0
I7
tp489
a(I8
I8
tp490
a(I0
I0
tp491
a(I0
I4
tp492
a(I0
I8
tp493
a(I11
I6
tp494
a(I9
I7
tp495
atp496
Rp497
sg13
((I6
I0
tp498
(I10
I4
tp499
(I1
I1
tp500
(I8
I2
tp501
(I11
I5
tp502
(I5
I6
tp503
(I10
I9
tp504
tp505
sg14
I10
sbs(iproblems
RoomID
p506
(dp507
g10
I15
sg11
(I4
I8
tp508
sg13
I6
sg14
I12
sg15
I11
sg16
I7391799147228763464
sb(imulti_robot_problem
MultiRobotState
p509
(dp510
g19
g20
((lp511
(I6
I4
tp512
a(I4
I7
tp513
ag508
a(I5
I6
tp514
a(I2
I8
tp515
a(I5
I7
tp516
a(I6
I9
tp517
a(I4
I2
tp518
a(I9
I2
tp519
a(I1
I6
tp520
a(I10
I7
tp521
a(I8
I6
tp522
a(I2
I4
tp523
atp524
Rp525
sg15
I11
sg27
g20
((lp526
(I7
I0
tp527
a(I10
I4
tp528
a(I6
I11
tp529
a(I7
I6
tp530
a(I1
I4
tp531
a(I8
I9
tp532
a(I1
I8
tp533
a(I3
I9
tp534
a(I0
I10
tp535
a(I9
I4
tp536
a(I7
I10
tp537
a(I1
I10
tp538
a(I4
I3
tp539
a(I0
I3
tp540
a(I0
I2
tp541
atp542
Rp543
sg13
((I4
I6
tp544
(I3
I11
tp545
(I7
I1
tp546
(I2
I5
tp547
(I5
I9
tp548
(I2
I11
tp549
tp550
sg14
I12
sbs(iproblems
RoomID
p551
(dp552
g10
I13
sg11
(I7
I4
tp553
sg13
I6
sg14
I13
sg15
I13
sg16
I3562373307524659409
sb(imulti_robot_problem
MultiRobotState
p554
(dp555
g19
g20
((lp556
(I7
I3
tp557
a(I5
I4
tp558
a(I4
I9
tp559
a(I9
I1
tp560
a(I5
I9
tp561
a(I8
I1
tp562
a(I11
I2
tp563
a(I9
I3
tp564
a(I3
I11
tp565
a(I11
I7
tp566
ag553
a(I10
I1
tp567
a(I3
I10
tp568
a(I10
I5
tp569
a(I8
I2
tp570
atp571
Rp572
sg15
I13
sg27
g20
((lp573
(I8
I3
tp574
a(I3
I12
tp575
a(I4
I8
tp576
a(I6
I10
tp577
a(I9
I9
tp578
a(I12
I6
tp579
a(I8
I9
tp580
a(I1
I8
tp581
a(I4
I3
tp582
a(I2
I2
tp583
a(I4
I2
tp584
a(I11
I12
tp585
a(I2
I4
tp586
atp587
Rp588
sg13
((I12
I11
tp589
(I7
I6
tp590
(I7
I1
tp591
(I10
I11
tp592
(I2
I11
tp593
(I9
I8
tp594
tp595
sg14
I13
sbs(iproblems
RoomID
p596
(dp597
g10
I11
sg11
(I5
I1
tp598
sg13
I7
sg14
I11
sg15
I10
sg16
I807570059310326234
sb(imulti_robot_problem
MultiRobotState
p599
(dp600
g19
g20
((lp601
(I7
I3
tp602
a(I4
I6
tp603
a(I7
I4
tp604
a(I6
I2
tp605
a(I1
I9
tp606
a(I9
I4
tp607
ag598
a(I0
I3
tp608
a(I5
I2
tp609
a(I8
I4
tp610
atp611
Rp612
sg15
I10
sg27
g20
((lp613
(I5
I9
tp614
a(I6
I9
tp615
a(I2
I9
tp616
a(I4
I8
tp617
a(I9
I2
tp618
a(I2
I0
tp619
a(I1
I6
tp620
a(I9
I5
tp621
a(I4
I2
tp622
a(I1
I0
tp623
a(I3
I5
tp624
atp625
Rp626
sg13
((I1
I3
tp627
(I0
I2
tp628
(I4
I10
tp629
(I4
I5
tp630
(I8
I10
tp631
(I8
I3
tp632
(I2
I6
tp633
tp634
sg14
I11
sbssg147
S'heavy_roomset'
p635
sbsg147
g149
sg150
(dp636
g429
((lp637
(F35.610000000000582
I24
tp638
aF40.190000000002328
tp639
sg465
((lp640
F48.979999999995925
tp641
sg506
((lp642
F43.230000000003201
tp643
sg551
((lp644
F41.879999999997381
tp645
sg596
((lp646
F50.559999999997672
tp647
ssba(imeasure_core
ProblemSetSolution
p648
(dp649
g3
g4
sg147
S"AnytimeBeam-w20-gf(1.5, 'exp')_with_PowerHeuristic2"
p650
sg150
(dp651
g8
((lp652
(F0.16000000000349246
I50
tp653
a(F0.41000000000349246
I44
tp654
a(F2.0500000000029104
I43
tp655
a(F2.9700000000011642
I42
tp656
a(F3.8899999999994179
I38
tp657
a(F5.5400000000008731
I37
tp658
a(F7.1299999999973807
I35
tp659
a(F8.4100000000034925
I33
tp660
a(F9.4100000000034925
I31
tp661
a(F11.239999999997963
I29
tp662
a(F13.879999999997381
I27
tp663
a(F17.430000000000291
I25
tp664
a(F22.010000000002037
I22
tp665
a(F24.680000000000291
I20
tp666
aF40.0
tp667
sg39
((lp668
(F9.9400000000023283
I7
tp669
aF41.209999999999127
tp670
sg66
((lp671
(F0.090000000003783498
I7
tp672
aF40.0
tp673
sg92
((lp674
F40.270000000004075
tp675
sg117
((lp676
(F1.5399999999935972
I10
tp677
aF40.269999999996799
tp678
ssba(imeasure_core
ProblemSetSolution
p679
(dp680
g3
g181
sg147
g650
sg150
(dp681
g184
((lp682
(F0.26000000000203727
I10
tp683
aF40.080000000001746
tp684
sg223
((lp685
F40.220000000001164
tp686
sg268
((lp687
(F13.19999999999709
I75
tp688
aF40.219999999993888
tp689
sg319
((lp690
(F27.640000000006694
I108
tp691
aF40.020000000004075
tp692
sg361
((lp693
(F1.8099999999976717
I36
tp694
aF40.040000000000873
tp695
ssba(imeasure_core
ProblemSetSolution
p696
(dp697
g3
g426
sg147
g650
sg150
(dp698
g429
((lp699
(F35.57999999999447
I24
tp700
aF40.149999999994179
tp701
sg465
((lp702
F48.930000000000291
tp703
sg506
((lp704
F43.380000000004657
tp705
sg551
((lp706
F41.979999999995925
tp707
sg596
((lp708
F50.770000000004075
tp709
ssba(imeasure_core
ProblemSetSolution
p710
(dp711
g3
g4
sg147
S"AnytimeBeam-w20-gf(1.7, 'exp')_with_PowerHeuristic2"
p712
sg150
(dp713
g8
((lp714
(F0.15000000000145519
I50
tp715
a(F0.41000000000349246
I44
tp716
a(F2.1300000000046566
I43
tp717
a(F3.0400000000008731
I42
tp718
a(F3.9599999999991269
I38
tp719
a(F5.5900000000037835
I37
tp720
a(F7.1600000000034925
I35
tp721
a(F8.430000000000291
I33
tp722
a(F9.4200000000055297
I31
tp723
a(F11.230000000003201
I29
tp724
a(F13.870000000002619
I27
tp725
a(F17.42000000000553
I25
tp726
a(F22.0
I22
tp727
a(F24.680000000000291
I20
tp728
aF40.0
tp729
sg39
((lp730
(F9.9800000000032014
I7
tp731
aF41.450000000004366
tp732
sg66
((lp733
(F0.08999999999650754
I7
tp734
aF40.009999999994761
tp735
sg92
((lp736
F40.530000000006112
tp737
sg117
((lp738
(F1.5299999999988358
I10
tp739
aF40.099999999998545
tp740
ssba(imeasure_core
ProblemSetSolution
p741
(dp742
g3
g181
sg147
g712
sg150
(dp743
g184
((lp744
(F0.26000000000203727
I10
tp745
aF40.059999999997672
tp746
sg223
((lp747
F40.090000000003783
tp748
sg268
((lp749
(F13.189999999995052
I75
tp750
aF40.209999999999127
tp751
sg319
((lp752
(F27.559999999997672
I108
tp753
aF40.290000000000873
tp754
sg361
((lp755
(F1.7999999999956344
I36
tp756
aF40.0
tp757
ssba(imeasure_core
ProblemSetSolution
p758
(dp759
g3
g426
sg147
g712
sg150
(dp760
g429
((lp761
(F35.610000000000582
I24
tp762
aF40.190000000002328
tp763
sg465
((lp764
F49.150000000001455
tp765
sg506
((lp766
F43.479999999995925
tp767
sg551
((lp768
F41.92000000000553
tp769
sg596
((lp770
F50.689999999995052
tp771
ssba(imeasure_core
ProblemSetSolution
p772
(dp773
g3
g4
sg147
S"AnytimeBeam-w20-gf(1.8999999999999999, 'exp')_with_PowerHeuristic2"
p774
sg150
(dp775
g8
((lp776
(F0.17000000000552973
I50
tp777
a(F0.43000000000029104
I44
tp778
a(F1.3700000000026193
I43
tp779
a(F2.3000000000029104
I42
tp780
a(F3.2200000000011642
I38
tp781
a(F4.8600000000005821
I37
tp782
a(F6.4599999999991269
I35
tp783
a(F7.75
I33
tp784
a(F8.75
I31
tp785
a(F10.569999999999709
I29
tp786
a(F13.220000000001164
I27
tp787
a(F16.75
I25
tp788
a(F21.330000000001746
I22
tp789
a(F24.010000000002037
I20
tp790
aF40.0
tp791
sg39
((lp792
(F9.9599999999991269
I7
tp793
aF41.389999999999418
tp794
sg66
((lp795
(F0.090000000003783498
I7
tp796
aF40.020000000004075
tp797
sg92
((lp798
F40.029999999998836
tp799
sg117
((lp800
(F1.5500000000029104
I10
tp801
aF40.05000000000291
tp802
ssba(imeasure_core
ProblemSetSolution
p803
(dp804
g3
g181
sg147
g774
sg150
(dp805
g184
((lp806
(F0.25
I10
tp807
aF40.069999999999709
tp808
sg223
((lp809
F40.160000000003492
tp810
sg268
((lp811
(F13.239999999997963
I75
tp812
aF40.169999999998254
tp813
sg319
((lp814
(F27.610000000000582
I108
tp815
aF40.360000000000582
tp816
sg361
((lp817
(F1.8099999999976717
I36
tp818
aF40.040000000000873
tp819
ssba(imeasure_core
ProblemSetSolution
p820
(dp821
g3
g426
sg147
g774
sg150
(dp822
g429
((lp823
(F35.529999999998836
I24
tp824
aF40.069999999999709
tp825
sg465
((lp826
F48.869999999995343
tp827
sg506
((lp828
F43.480000000003201
tp829
sg551
((lp830
F41.959999999999127
tp831
sg596
((lp832
F50.860000000000582
tp833
ssba(imeasure_core
ProblemSetSolution
p834
(dp835
g3
g4
sg147
S"AnytimeBeam-w20-gf(1.3, 'exp')_with_LinearHeuristic"
p836
sg150
(dp837
g8
((lp838
(F0.0099999999947613105
I20
tp839
aF40.0
tp840
sg39
((lp841
(F6.7900000000008731
I7
tp842
aF40.529999999998836
tp843
sg66
((lp844
(F4.4000000000014552
I47
tp845
a(F10.0
I46
tp846
a(F21.209999999999127
I45
tp847
a(F32.979999999995925
I44
tp848
aF40.069999999999709
tp849
sg92
((lp850
F40.110000000000582
tp851
sg117
((lp852
F40.169999999998254
tp853
ssba(imeasure_core
ProblemSetSolution
p854
(dp855
g3
g181
sg147
g836
sg150
(dp856
g184
((lp857
(F0.50999999999476131
I12
tp858
aF40.110000000000582
tp859
sg223
((lp860
F41.159999999996217
tp861
sg268
((lp862
(F4.8700000000026193
I31
tp863
a(F13.639999999999418
I30
tp864
a(F23.319999999999709
I29
tp865
a(F36.389999999999418
I28
tp866
aF40.0
tp867
sg319
((lp868
F40.05000000000291
tp869
sg361
((lp870
(F1.8300000000017462
I38
tp871
aF40.139999999999418
tp872
ssba(imeasure_core
ProblemSetSolution
p873
(dp874
g3
g426
sg147
g836
sg150
(dp875
g429
((lp876
F40.580000000001746
tp877
sg465
((lp878
F78.610000000000582
tp879
sg506
((lp880
F41.419999999998254
tp881
sg551
((lp882
F45.689999999995052
tp883
sg596
((lp884
F64.610000000000582
tp885
ssba(imeasure_core
ProblemSetSolution
p886
(dp887
g3
g4
sg147
S"AnytimeBeam-w20-gf(1.5, 'exp')_with_LinearHeuristic"
p888
sg150
(dp889
g8
((lp890
(F0.010000000002037268
I20
tp891
aF40.0
tp892
sg39
((lp893
(F9.0900000000037835
I7
tp894
aF40.510000000002037
tp895
sg66
((lp896
(F4.75
I47
tp897
a(F10.369999999995343
I46
tp898
a(F22.110000000000582
I45
tp899
a(F34.010000000002037
I44
tp900
aF40.119999999995343
tp901
sg92
((lp902
F40.630000000004657
tp903
sg117
((lp904
F40.989999999997963
tp905
ssba(imeasure_core
ProblemSetSolution
p906
(dp907
g3
g181
sg147
g888
sg150
(dp908
g184
((lp909
(F0.51000000000203727
I12
tp910
aF40.150000000001455
tp911
sg223
((lp912
F41.209999999999127
tp913
sg268
((lp914
(F4.9099999999962165
I31
tp915
a(F13.720000000001164
I30
tp916
a(F23.409999999996217
I29
tp917
a(F36.44999999999709
I28
tp918
aF40.049999999995634
tp919
sg319
((lp920
F40.340000000003783
tp921
sg361
((lp922
(F1.8300000000017462
I38
tp923
aF40.080000000001746
tp924
ssba(imeasure_core
ProblemSetSolution
p925
(dp926
g3
g426
sg147
g888
sg150
(dp927
g429
((lp928
F40.519999999996799
tp929
sg465
((lp930
F78.819999999999709
tp931
sg506
((lp932
F41.529999999998836
tp933
sg551
((lp934
F45.830000000001746
tp935
sg596
((lp936
F64.809999999997672
tp937
ssba(imeasure_core
ProblemSetSolution
p938
(dp939
g3
g4
sg147
S"AnytimeBeam-w20-gf(1.7, 'exp')_with_LinearHeuristic"
p940
sg150
(dp941
g8
((lp942
(F0.010000000002037268
I20
tp943
aF40.0
tp944
sg39
((lp945
(F10.889999999999418
I7
tp946
aF40.709999999999127
tp947
sg66
((lp948
(F4.7300000000032014
I47
tp949
a(F10.309999999997672
I46
tp950
a(F22.020000000004075
I45
tp951
a(F33.900000000001455
I44
tp952
aF40.040000000000873
tp953
sg92
((lp954
F40.169999999998254
tp955
sg117
((lp956
F40.779999999998836
tp957
ssba(imeasure_core
ProblemSetSolution
p958
(dp959
g3
g181
sg147
g940
sg150
(dp960
g184
((lp961
(F0.52000000000407454
I12
tp962
aF40.040000000000873
tp963
sg223
((lp964
F41.060000000004948
tp965
sg268
((lp966
(F4.8799999999973807
I31
tp967
a(F13.610000000000582
I30
tp968
a(F23.239999999997963
I29
tp969
a(F36.309999999997672
I28
tp970
aF40.139999999999418
tp971
sg319
((lp972
F40.259999999994761
tp973
sg361
((lp974
(F1.8300000000017462
I38
tp975
aF40.17000000000553
tp976
ssba(imeasure_core
ProblemSetSolution
p977
(dp978
g3
g426
sg147
g940
sg150
(dp979
g429
((lp980
F40.540000000000873
tp981
sg465
((lp982
F78.429999999993015
tp983
sg506
((lp984
F41.540000000000873
tp985
sg551
((lp986
F45.80000000000291
tp987
sg596
((lp988
F64.370000000002619
tp989
ssba(imeasure_core
ProblemSetSolution
p990
(dp991
g3
g4
sg147
S"AnytimeBeam-w20-gf(1.8999999999999999, 'exp')_with_LinearHeuristic"
p992
sg150
(dp993
g8
((lp994
(F0.010000000002037268
I20
tp995
aF40.0
tp996
sg39
((lp997
(F10.940000000002328
I7
tp998
aF40.779999999998836
tp999
sg66
((lp1000
(F4.8100000000049477
I47
tp1001
a(F10.480000000003201
I46
tp1002
a(F22.370000000002619
I45
tp1003
a(F34.230000000003201
I44
tp1004
aF40.110000000000582
tp1005
sg92
((lp1006
F40.260000000002037
tp1007
sg117
((lp1008
F40.650000000001455
tp1009
ssba(imeasure_core
ProblemSetSolution
p1010
(dp1011
g3
g181
sg147
g992
sg150
(dp1012
g184
((lp1013
(F0.51999999999679858
I12
tp1014
aF40.150000000001455
tp1015
sg223
((lp1016
F41.0
tp1017
sg268
((lp1018
(F4.8799999999973807
I31
tp1019
a(F13.599999999998545
I30
tp1020
a(F23.220000000001164
I29
tp1021
a(F36.309999999997672
I28
tp1022
aF40.129999999997381
tp1023
sg319
((lp1024
F40.25
tp1025
sg361
((lp1026
(F1.8300000000017462
I38
tp1027
aF40.139999999999418
tp1028
ssba(imeasure_core
ProblemSetSolution
p1029
(dp1030
g3
g426
sg147
g992
sg150
(dp1031
g429
((lp1032
F40.309999999997672
tp1033
sg465
((lp1034
F78.720000000001164
tp1035
sg506
((lp1036
F41.44999999999709
tp1037
sg551
((lp1038
F45.590000000003783
tp1039
sg596
((lp1040
F64.139999999999418
tp1041
ssba.