(lp0
(imeasure_core
ProblemSetSolution
p1
(dp2
S'roomset'
p3
(imeasure_core
RoomSet
p4
(dp5
S'rooms'
p6
(dp7
(iproblems
RoomID
p8
(dp9
S'dusts'
p10
I6
sS'obstacles'
p11
(I3
I2
tp12
sS'robots'
p13
I1
sS'height'
p14
I9
sS'width'
p15
I10
sS'seed'
p16
I6832892905590973747
sb(imulti_robot_problem
MultiRobotState
p17
(dp18
S'obstacle_locations'
p19
c__builtin__
frozenset
p20
((lp21
(I3
I0
tp22
a(I2
I0
tp23
ag12
a(I3
I1
tp24
atp25
Rp26
sg15
I10
sS'dirt_locations'
p27
g20
((lp28
(I1
I2
tp29
a(I2
I7
tp30
a(I0
I0
tp31
a(I0
I5
tp32
a(I5
I6
tp33
a(I0
I2
tp34
atp35
Rp36
sg13
((I8
I4
tp37
tp38
sg14
I9
sbs(iproblems
RoomID
p39
(dp40
g10
I7
sg11
(I3
I5
tp41
sg13
I5
sg14
I7
sg15
I9
sg16
I6924344268699531175
sb(imulti_robot_problem
MultiRobotState
p42
(dp43
g19
g20
((lp44
(I2
I6
tp45
a(I1
I6
tp46
a(I3
I6
tp47
ag41
atp48
Rp49
sg15
I9
sg27
g20
((lp50
(I1
I2
tp51
a(I0
I0
tp52
a(I5
I0
tp53
a(I7
I1
tp54
a(I8
I6
tp55
a(I3
I4
tp56
a(I6
I5
tp57
atp58
Rp59
sg13
((I4
I0
tp60
(I7
I2
tp61
(I1
I1
tp62
(I6
I1
tp63
(I8
I4
tp64
tp65
sg14
I7
sbs(iproblems
RoomID
p66
(dp67
g10
I6
sg11
(I3
I1
tp68
sg13
I4
sg14
I8
sg15
I7
sg16
I807570059310326234
sb(imulti_robot_problem
MultiRobotState
p69
(dp70
g19
g20
((lp71
(I6
I3
tp72
a(I4
I2
tp73
ag68
a(I5
I3
tp74
atp75
Rp76
sg15
I7
sg27
g20
((lp77
(I3
I2
tp78
a(I6
I7
tp79
a(I4
I6
tp80
a(I0
I4
tp81
a(I1
I0
tp82
a(I5
I2
tp83
atp84
Rp85
sg13
((I1
I2
tp86
(I0
I1
tp87
(I3
I7
tp88
(I2
I4
tp89
tp90
sg14
I8
sbs(iproblems
RoomID
p91
(dp92
g10
I8
sg11
(I5
I0
tp93
sg13
I4
sg14
I10
sg15
I10
sg16
I3562373307524659409
sb(imulti_robot_problem
MultiRobotState
p94
(dp95
g19
g20
((lp96
(I6
I3
tp97
a(I6
I7
tp98
ag93
a(I3
I6
tp99
a(I8
I1
tp100
a(I7
I0
tp101
a(I6
I0
tp102
atp103
Rp104
sg15
I10
sg27
g20
((lp105
(I1
I3
tp106
a(I2
I9
tp107
a(I7
I6
tp108
a(I7
I7
tp109
a(I8
I9
tp110
a(I1
I8
tp111
a(I1
I6
tp112
a(I2
I2
tp113
atp114
Rp115
sg13
((I9
I8
tp116
(I6
I5
tp117
(I5
I1
tp118
(I8
I8
tp119
tp120
sg14
I10
sbs(iproblems
RoomID
p121
(dp122
g10
I5
sg11
(I4
I7
tp123
sg13
I3
sg14
I9
sg15
I7
sg16
I2524308075868763041
sb(imulti_robot_problem
MultiRobotState
p124
(dp125
g19
g20
((lp126
(I1
I2
tp127
a(I3
I8
tp128
ag123
a(I4
I6
tp129
a(I4
I1
tp130
a(I2
I4
tp131
a(I3
I5
tp132
atp133
Rp134
sg15
I7
sg27
g20
((lp135
(I2
I6
tp136
a(I5
I2
tp137
a(I3
I3
tp138
a(I0
I7
tp139
a(I3
I6
tp140
atp141
Rp142
sg13
((I0
I6
tp143
(I3
I1
tp144
(I4
I8
tp145
tp146
sg14
I9
sbssS'name'
p147
S'easy_roomset'
p148
sbsg147
S"AnytimeBeam-w20-gf(2, 'lin')_with_PowerHeuristic2"
p149
sS'solutions'
p150
(dp151
g8
((lp152
(F0.15000000000145519
I50
tp153
a(F1.2600000000020373
I44
tp154
a(F15.889999999999418
I43
tp155
a(F16.810000000004948
I42
tp156
a(F17.740000000005239
I38
tp157
a(F38.610000000000582
I37
tp158
aF40.0
tp159
sg39
((lp160
(F3.1399999999994179
I7
tp161
aF40.990000000005239
tp162
sg66
((lp163
F40.25
tp164
sg121
((lp165
(F0.079999999994470272
I7
tp166
aF40.039999999993597
tp167
sg91
((lp168
(F1.0799999999944703
I10
tp169
aF40.0
tp170
ssba(imeasure_core
ProblemSetSolution
p171
(dp172
g3
(imeasure_core
RoomSet
p173
(dp174
g6
(dp175
(iproblems
RoomID
p176
(dp177
g10
I6
sg11
(I6
I2
tp178
sg13
I3
sg14
I11
sg15
I12
sg16
I6832892905590973747
sb(imulti_robot_problem
MultiRobotState
p179
(dp180
g19
g20
((lp181
(I6
I4
tp182
a(I2
I6
tp183
a(I4
I3
tp184
a(I3
I0
tp185
a(I2
I8
tp186
a(I7
I7
tp187
a(I7
I5
tp188
a(I4
I2
tp189
a(I5
I3
tp190
a(I4
I1
tp191
a(I7
I6
tp192
a(I6
I3
tp193
a(I4
I5
tp194
ag178
a(I3
I6
tp195
a(I8
I6
tp196
a(I4
I0
tp197
a(I5
I2
tp198
a(I2
I4
tp199
atp200
Rp201
sg15
I12
sg27
g20
((lp202
(I1
I6
tp203
a(I6
I8
tp204
a(I2
I9
tp205
a(I0
I3
tp206
a(I0
I2
tp207
a(I7
I9
tp208
atp209
Rp210
sg13
((I10
I6
tp211
(I1
I2
tp212
(I0
I0
tp213
tp214
sg14
I11
sbs(iproblems
RoomID
p215
(dp216
g10
I7
sg11
(I3
I1
tp217
sg13
I4
sg14
I9
sg15
I11
sg16
I6924344268699531175
sb(imulti_robot_problem
MultiRobotState
p218
(dp219
g19
g20
((lp220
(I4
I7
tp221
ag217
a(I6
I6
tp222
a(I5
I6
tp223
a(I2
I8
tp224
a(I9
I8
tp225
a(I7
I7
tp226
a(I0
I7
tp227
a(I7
I5
tp228
a(I8
I7
tp229
a(I0
I3
tp230
a(I0
I8
tp231
a(I8
I5
tp232
a(I6
I3
tp233
a(I5
I2
tp234
a(I7
I6
tp235
a(I4
I8
tp236
a(I7
I4
tp237
a(I3
I8
tp238
a(I0
I6
tp239
a(I8
I8
tp240
a(I4
I1
tp241
a(I9
I7
tp242
atp243
Rp244
sg15
I11
sg27
g20
((lp245
(I8
I3
tp246
a(I1
I3
tp247
a(I4
I6
tp248
a(I4
I3
tp249
a(I0
I4
tp250
a(I10
I5
tp251
a(I0
I0
tp252
atp253
Rp254
sg13
((I6
I0
tp255
(I9
I3
tp256
(I1
I1
tp257
(I8
I1
tp258
tp259
sg14
I9
sbs(iproblems
RoomID
p260
(dp261
g10
I10
sg11
(I6
I8
tp262
sg13
I3
sg14
I11
sg15
I10
sg16
I7391799147228763464
sb(imulti_robot_problem
MultiRobotState
p263
(dp264
g19
g20
((lp265
(I5
I9
tp266
a(I4
I7
tp267
a(I4
I6
tp268
a(I4
I8
tp269
a(I4
I5
tp270
a(I6
I9
tp271
a(I0
I7
tp272
a(I1
I4
tp273
a(I3
I7
tp274
a(I5
I8
tp275
ag262
a(I2
I7
tp276
a(I3
I8
tp277
a(I4
I9
tp278
a(I3
I3
tp279
a(I9
I2
tp280
a(I6
I3
tp281
a(I3
I6
tp282
a(I1
I7
tp283
a(I0
I9
tp284
a(I7
I8
tp285
a(I0
I2
tp286
a(I1
I9
tp287
atp288
Rp289
sg15
I10
sg27
g20
((lp290
(I8
I3
tp291
a(I5
I10
tp292
a(I5
I5
tp293
a(I2
I8
tp294
a(I7
I6
tp295
a(I6
I0
tp296
a(I2
I10
tp297
a(I9
I4
tp298
a(I1
I10
tp299
a(I0
I3
tp300
atp301
Rp302
sg13
((I3
I10
tp303
(I7
I1
tp304
(I1
I5
tp305
tp306
sg14
I11
sbs(iproblems
RoomID
p307
(dp308
g10
I6
sg11
(I2
I5
tp309
sg13
I4
sg14
I10
sg15
I9
sg16
I807570059310326234
sb(imulti_robot_problem
MultiRobotState
p310
(dp311
g19
g20
((lp312
(I6
I4
tp313
a(I3
I2
tp314
a(I1
I3
tp315
a(I8
I2
tp316
a(I2
I3
tp317
a(I3
I8
tp318
ag309
a(I1
I0
tp319
a(I1
I2
tp320
a(I7
I4
tp321
a(I4
I1
tp322
a(I3
I3
tp323
a(I3
I4
tp324
a(I1
I1
tp325
a(I6
I3
tp326
a(I2
I0
tp327
a(I1
I8
tp328
a(I2
I2
tp329
a(I5
I2
tp330
a(I0
I2
tp331
a(I8
I4
tp332
atp333
Rp334
sg15
I9
sg27
g20
((lp335
(I7
I3
tp336
a(I2
I6
tp337
a(I1
I6
tp338
a(I4
I2
tp339
a(I5
I8
tp340
a(I7
I9
tp341
atp342
Rp343
sg13
((I6
I2
tp344
(I0
I1
tp345
(I3
I9
tp346
(I3
I5
tp347
tp348
sg14
I10
sbs(iproblems
RoomID
p349
(dp350
g10
I8
sg11
(I11
I7
tp351
sg13
I4
sg14
I12
sg15
I12
sg16
I3562373307524659409
sb(imulti_robot_problem
MultiRobotState
p352
(dp353
g19
g20
((lp354
(I6
I4
tp355
a(I6
I9
tp356
a(I3
I2
tp357
a(I9
I1
tp358
a(I6
I6
tp359
a(I5
I6
tp360
a(I9
I8
tp361
a(I3
I11
tp362
a(I7
I1
tp363
ag351
a(I8
I9
tp364
a(I3
I9
tp365
a(I11
I8
tp366
a(I10
I2
tp367
a(I4
I2
tp368
a(I7
I2
tp369
a(I10
I8
tp370
a(I8
I3
tp371
a(I8
I1
tp372
a(I3
I10
tp373
a(I5
I11
tp374
a(I6
I3
tp375
a(I6
I11
tp376
a(I6
I5
tp377
a(I7
I10
tp378
a(I4
I8
tp379
a(I11
I6
tp380
a(I4
I11
tp381
atp382
Rp383
sg15
I12
sg27
g20
((lp384
(I7
I3
tp385
a(I1
I3
tp386
a(I10
I11
tp387
a(I1
I7
tp388
a(I8
I8
tp389
a(I2
I2
tp390
a(I3
I7
tp391
a(I7
I9
tp392
atp393
Rp394
sg13
((I11
I10
tp395
(I7
I6
tp396
(I10
I10
tp397
(I2
I10
tp398
tp399
sg14
I12
sbssg147
S'mild_roomset'
p400
sbsg147
g149
sg150
(dp401
g176
((lp402
(F0.26000000000203727
I10
tp403
aF40.040000000000873
tp404
sg215
((lp405
(F14.440000000002328
I49
tp406
aF40.209999999999127
tp407
sg260
((lp408
(F1.3700000000026193
I36
tp409
aF40.030000000006112
tp410
sg307
((lp411
(F8.7399999999979627
I108
tp412
aF40.069999999999709
tp413
sg349
((lp414
(F5.75
I75
tp415
aF40.07999999999447
tp416
ssba(imeasure_core
ProblemSetSolution
p417
(dp418
g3
(imeasure_core
RoomSet
p419
(dp420
g6
(dp421
(iproblems
RoomID
p422
(dp423
g10
I11
sg11
(I4
I2
tp424
sg13
I5
sg14
I12
sg15
I13
sg16
I6832892905590973747
sb(imulti_robot_problem
MultiRobotState
p425
(dp426
g19
g20
((lp427
(I5
I9
tp428
a(I6
I9
tp429
a(I8
I2
tp430
a(I3
I0
tp431
a(I3
I4
tp432
a(I12
I11
tp433
ag424
a(I4
I1
tp434
a(I4
I0
tp435
atp436
Rp437
sg15
I13
sg27
g20
((lp438
(I2
I7
tp439
a(I9
I0
tp440
a(I6
I8
tp441
a(I4
I5
tp442
a(I2
I8
tp443
a(I8
I10
tp444
a(I2
I10
tp445
a(I1
I7
tp446
a(I3
I7
tp447
a(I2
I5
tp448
a(I0
I8
tp449
atp450
Rp451
sg13
((I11
I6
tp452
(I1
I2
tp453
(I1
I0
tp454
(I0
I3
tp455
(I0
I2
tp456
tp457
sg14
I12
sbs(iproblems
RoomID
p458
(dp459
g10
I12
sg11
(I6
I7
tp460
sg13
I7
sg14
I10
sg15
I12
sg16
I6924344268699531175
sb(imulti_robot_problem
MultiRobotState
p461
(dp462
g19
g20
((lp463
(I4
I7
tp464
ag460
a(I2
I9
tp465
a(I4
I8
tp466
a(I9
I6
tp467
a(I5
I7
tp468
a(I0
I6
tp469
a(I3
I9
tp470
a(I0
I9
tp471
a(I4
I9
tp472
a(I4
I1
tp473
atp474
Rp475
sg15
I12
sg27
g20
((lp476
(I7
I3
tp477
a(I5
I4
tp478
a(I1
I3
tp479
a(I9
I1
tp480
a(I8
I3
tp481
a(I0
I7
tp482
a(I8
I8
tp483
a(I0
I0
tp484
a(I0
I4
tp485
a(I0
I8
tp486
a(I11
I6
tp487
a(I9
I7
tp488
atp489
Rp490
sg13
((I6
I0
tp491
(I10
I4
tp492
(I1
I1
tp493
(I8
I2
tp494
(I11
I5
tp495
(I5
I6
tp496
(I10
I9
tp497
tp498
sg14
I10
sbs(iproblems
RoomID
p499
(dp500
g10
I13
sg11
(I7
I4
tp501
sg13
I6
sg14
I13
sg15
I13
sg16
I3562373307524659409
sb(imulti_robot_problem
MultiRobotState
p502
(dp503
g19
g20
((lp504
(I7
I3
tp505
a(I5
I4
tp506
a(I4
I9
tp507
a(I9
I1
tp508
a(I5
I9
tp509
a(I8
I1
tp510
a(I11
I2
tp511
a(I9
I3
tp512
a(I3
I11
tp513
a(I11
I7
tp514
ag501
a(I10
I1
tp515
a(I3
I10
tp516
a(I10
I5
tp517
a(I8
I2
tp518
atp519
Rp520
sg15
I13
sg27
g20
((lp521
(I8
I3
tp522
a(I3
I12
tp523
a(I4
I8
tp524
a(I6
I10
tp525
a(I9
I9
tp526
a(I12
I6
tp527
a(I8
I9
tp528
a(I1
I8
tp529
a(I4
I3
tp530
a(I2
I2
tp531
a(I4
I2
tp532
a(I11
I12
tp533
a(I2
I4
tp534
atp535
Rp536
sg13
((I12
I11
tp537
(I7
I6
tp538
(I7
I1
tp539
(I10
I11
tp540
(I2
I11
tp541
(I9
I8
tp542
tp543
sg14
I13
sbs(iproblems
RoomID
p544
(dp545
g10
I15
sg11
(I4
I8
tp546
sg13
I6
sg14
I12
sg15
I11
sg16
I7391799147228763464
sb(imulti_robot_problem
MultiRobotState
p547
(dp548
g19
g20
((lp549
(I6
I4
tp550
a(I4
I7
tp551
ag546
a(I5
I6
tp552
a(I2
I8
tp553
a(I5
I7
tp554
a(I6
I9
tp555
a(I4
I2
tp556
a(I9
I2
tp557
a(I1
I6
tp558
a(I10
I7
tp559
a(I8
I6
tp560
a(I2
I4
tp561
atp562
Rp563
sg15
I11
sg27
g20
((lp564
(I7
I0
tp565
a(I10
I4
tp566
a(I6
I11
tp567
a(I7
I6
tp568
a(I1
I4
tp569
a(I8
I9
tp570
a(I1
I8
tp571
a(I3
I9
tp572
a(I0
I10
tp573
a(I9
I4
tp574
a(I7
I10
tp575
a(I1
I10
tp576
a(I4
I3
tp577
a(I0
I3
tp578
a(I0
I2
tp579
atp580
Rp581
sg13
((I4
I6
tp582
(I3
I11
tp583
(I7
I1
tp584
(I2
I5
tp585
(I5
I9
tp586
(I2
I11
tp587
tp588
sg14
I12
sbs(iproblems
RoomID
p589
(dp590
g10
I11
sg11
(I5
I1
tp591
sg13
I7
sg14
I11
sg15
I10
sg16
I807570059310326234
sb(imulti_robot_problem
MultiRobotState
p592
(dp593
g19
g20
((lp594
(I7
I3
tp595
a(I4
I6
tp596
a(I7
I4
tp597
a(I6
I2
tp598
a(I1
I9
tp599
a(I9
I4
tp600
ag591
a(I0
I3
tp601
a(I5
I2
tp602
a(I8
I4
tp603
atp604
Rp605
sg15
I10
sg27
g20
((lp606
(I5
I9
tp607
a(I6
I9
tp608
a(I2
I9
tp609
a(I4
I8
tp610
a(I9
I2
tp611
a(I2
I0
tp612
a(I1
I6
tp613
a(I9
I5
tp614
a(I4
I2
tp615
a(I1
I0
tp616
a(I3
I5
tp617
atp618
Rp619
sg13
((I1
I3
tp620
(I0
I2
tp621
(I4
I10
tp622
(I4
I5
tp623
(I8
I10
tp624
(I8
I3
tp625
(I2
I6
tp626
tp627
sg14
I11
sbssg147
S'heavy_roomset'
p628
sbsg147
g149
sg150
(dp629
g422
((lp630
(F12.700000000004366
I24
tp631
aF40.470000000001164
tp632
sg458
((lp633
F57.330000000001746
tp634
sg499
((lp635
(F27.840000000003783
I15
tp636
aF40.090000000003783
tp637
sg544
((lp638
F40.649999999994179
tp639
sg589
((lp640
F40.069999999999709
tp641
ssba(imeasure_core
ProblemSetSolution
p642
(dp643
g3
g4
sg147
S"AnytimeBeam-w20-gf(4, 'lin')_with_PowerHeuristic2"
p644
sg150
(dp645
g8
((lp646
(F0.15000000000145519
I50
tp647
a(F0.68000000000029104
I44
tp648
a(F7.9800000000032014
I43
tp649
a(F8.9100000000034925
I42
tp650
a(F9.8400000000037835
I38
tp651
a(F20.190000000002328
I37
tp652
a(F21.760000000002037
I35
tp653
a(F23.029999999998836
I33
tp654
a(F24.010000000002037
I31
tp655
a(F25.779999999998836
I29
tp656
a(F28.400000000001455
I27
tp657
a(F34.610000000000582
I25
tp658
a(F39.099999999998545
I24
tp659
aF40.0
tp660
sg39
((lp661
(F3.569999999999709
I7
tp662
aF40.169999999998254
tp663
sg66
((lp664
F40.120000000002619
tp665
sg121
((lp666
(F0.079999999994470272
I7
tp667
aF40.029999999998836
tp668
sg91
((lp669
(F1.2399999999979627
I10
tp670
aF40.080000000001746
tp671
ssba(imeasure_core
ProblemSetSolution
p672
(dp673
g3
g173
sg147
g644
sg150
(dp674
g176
((lp675
(F0.25
I10
tp676
aF40.009999999994761
tp677
sg215
((lp678
(F28.870000000002619
I49
tp679
aF40.0
tp680
sg260
((lp681
(F1.569999999999709
I36
tp682
aF40.029999999998836
tp683
sg307
((lp684
(F9.8300000000017462
I108
tp685
aF40.020000000004075
tp686
sg349
((lp687
(F6.5299999999988358
I75
tp688
aF40.209999999999127
tp689
ssba(imeasure_core
ProblemSetSolution
p690
(dp691
g3
g419
sg147
g644
sg150
(dp692
g422
((lp693
(F15.369999999995343
I24
tp694
aF40.099999999998545
tp695
sg458
((lp696
F58.099999999998545
tp697
sg499
((lp698
(F30.110000000000582
I15
tp699
aF40.870000000002619
tp700
sg544
((lp701
F41.349999999998545
tp702
sg589
((lp703
F40.589999999996508
tp704
ssba(imeasure_core
ProblemSetSolution
p705
(dp706
g3
g4
sg147
S"AnytimeBeam-w20-gf(8, 'lin')_with_PowerHeuristic2"
p707
sg150
(dp708
g8
((lp709
(F0.15000000000145519
I50
tp710
a(F0.38999999999941792
I44
tp711
a(F4.1500000000014552
I43
tp712
a(F5.069999999999709
I42
tp713
a(F6.0
I38
tp714
a(F10.410000000003492
I37
tp715
a(F11.989999999997963
I35
tp716
a(F13.279999999998836
I33
tp717
a(F14.260000000002037
I31
tp718
a(F16.069999999999709
I29
tp719
a(F18.700000000004366
I27
tp720
a(F22.220000000001164
I25
tp721
a(F26.75
I22
tp722
a(F29.400000000001455
I20
tp723
aF40.0
tp724
sg39
((lp725
(F4.1100000000005821
I7
tp726
aF41.239999999997963
tp727
sg66
((lp728
F40.120000000002619
tp729
sg121
((lp730
(F0.08000000000174623
I7
tp731
aF40.010000000002037
tp732
sg91
((lp733
(F1.4199999999982538
I10
tp734
aF40.080000000001746
tp735
ssba(imeasure_core
ProblemSetSolution
p736
(dp737
g3
g173
sg147
g707
sg150
(dp738
g176
((lp739
(F0.25
I10
tp740
aF40.009999999994761
tp741
sg215
((lp742
F40.029999999998836
tp743
sg260
((lp744
(F1.7100000000064028
I36
tp745
aF40.060000000004948
tp746
sg307
((lp747
(F11.099999999998545
I108
tp748
aF40.299999999995634
tp749
sg349
((lp750
(F7.3000000000029104
I75
tp751
aF40.100000000005821
tp752
ssba(imeasure_core
ProblemSetSolution
p753
(dp754
g3
g419
sg147
g707
sg150
(dp755
g422
((lp756
(F18.729999999995925
I24
tp757
aF40.360000000000582
tp758
sg458
((lp759
F40.649999999994179
tp760
sg499
((lp761
(F33.560000000004948
I15
tp762
aF40.860000000000582
tp763
sg544
((lp764
F41.060000000004948
tp765
sg589
((lp766
F40.819999999999709
tp767
ssba(imeasure_core
ProblemSetSolution
p768
(dp769
g3
g4
sg147
S"AnytimeBeam-w20-gf(16, 'lin')_with_PowerHeuristic2"
p770
sg150
(dp771
g8
((lp772
(F0.15000000000145519
I50
tp773
a(F0.42000000000552973
I44
tp774
a(F2.1500000000014552
I43
tp775
a(F3.0900000000037835
I42
tp776
a(F4.0
I38
tp777
a(F5.6200000000026193
I37
tp778
a(F7.2099999999991269
I35
tp779
a(F8.4800000000032014
I33
tp780
a(F9.4700000000011642
I31
tp781
a(F11.270000000004075
I29
tp782
a(F13.880000000004657
I27
tp783
a(F17.400000000001455
I25
tp784
a(F21.889999999999418
I22
tp785
a(F24.529999999998836
I20
tp786
aF40.0
tp787
sg39
((lp788
(F5.2799999999988358
I7
tp789
aF40.120000000002619
tp790
sg66
((lp791
F40.260000000002037
tp792
sg121
((lp793
(F0.079999999994470272
I7
tp794
aF40.019999999996799
tp795
sg91
((lp796
(F1.5099999999947613
I10
tp797
aF40.25
tp798
ssba(imeasure_core
ProblemSetSolution
p799
(dp800
g3
g173
sg147
g770
sg150
(dp801
g176
((lp802
(F0.25
I10
tp803
aF40.059999999997672
tp804
sg215
((lp805
F40.010000000002037
tp806
sg260
((lp807
(F1.7600000000020373
I36
tp808
aF40.010000000002037
tp809
sg307
((lp810
(F12.610000000000582
I108
tp811
aF40.169999999998254
tp812
sg349
((lp813
(F8.3399999999965075
I75
tp814
aF40.220000000001164
tp815
ssba(imeasure_core
ProblemSetSolution
p816
(dp817
g3
g419
sg147
g770
sg150
(dp818
g422
((lp819
(F22.389999999999418
I24
tp820
aF40.720000000001164
tp821
sg458
((lp822
F41.469999999993888
tp823
sg499
((lp824
(F37.75
I15
tp825
aF41.080000000001746
tp826
sg544
((lp827
F41.459999999999127
tp828
sg589
((lp829
F45.950000000004366
tp830
ssba(imeasure_core
ProblemSetSolution
p831
(dp832
g3
g4
sg147
S"AnytimeBeam-w20-gf(2, 'lin')_with_LinearHeuristic"
p833
sg150
(dp834
g8
((lp835
(F0.010000000002037268
I20
tp836
aF40.0
tp837
sg39
((lp838
(F3.0600000000049477
I7
tp839
aF40.380000000004657
tp840
sg66
((lp841
F40.059999999997672
tp842
sg121
((lp843
(F2.0299999999988358
I47
tp844
a(F4.6200000000026193
I46
tp845
a(F10.380000000004657
I45
tp846
a(F15.860000000000582
I44
tp847
a(F22.660000000003492
I43
tp848
a(F27.770000000004075
I42
tp849
a(F33.080000000001746
I41
tp850
aF40.090000000003783
tp851
sg91
((lp852
F40.239999999997963
tp853
ssba(imeasure_core
ProblemSetSolution
p854
(dp855
g3
g173
sg147
g833
sg150
(dp856
g176
((lp857
(F0.45999999999912689
I12
tp858
aF40.059999999997672
tp859
sg215
((lp860
F40.090000000003783
tp861
sg260
((lp862
(F1.2199999999938882
I38
tp863
aF40.139999999999418
tp864
sg307
((lp865
F40.229999999995925
tp866
sg349
((lp867
(F2.7400000000052387
I31
tp868
a(F8.2099999999991269
I30
tp869
a(F14.240000000005239
I29
tp870
a(F22.190000000002328
I28
tp871
a(F31.0
I27
tp872
a(F38.740000000005239
I26
tp873
aF40.010000000002037
tp874
ssba(imeasure_core
ProblemSetSolution
p875
(dp876
g3
g419
sg147
g833
sg150
(dp877
g422
((lp878
F40.430000000000291
tp879
sg458
((lp880
F41.769999999996799
tp881
sg499
((lp882
F40.430000000000291
tp883
sg544
((lp884
F41.080000000001746
tp885
sg589
((lp886
F40.190000000002328
tp887
ssba(imeasure_core
ProblemSetSolution
p888
(dp889
g3
g4
sg147
S"AnytimeBeam-w20-gf(4, 'lin')_with_LinearHeuristic"
p890
sg150
(dp891
g8
((lp892
(F0.0099999999947613105
I20
tp893
aF40.0
tp894
sg39
((lp895
(F3.4700000000011642
I7
tp896
aF40.519999999996799
tp897
sg66
((lp898
F40.040000000000873
tp899
sg121
((lp900
(F2.3899999999994179
I47
tp901
a(F5.3699999999953434
I46
tp902
a(F11.299999999995634
I45
tp903
a(F17.049999999995634
I44
tp904
a(F24.119999999995343
I43
tp905
a(F29.69999999999709
I42
tp906
a(F35.529999999998836
I41
tp907
aF40.059999999997672
tp908
sg91
((lp909
F40.510000000002037
tp910
ssba(imeasure_core
ProblemSetSolution
p911
(dp912
g3
g173
sg147
g890
sg150
(dp913
g176
((lp914
(F0.48000000000320142
I12
tp915
aF40.029999999998836
tp916
sg215
((lp917
F40.270000000004075
tp918
sg260
((lp919
(F1.2999999999956344
I38
tp920
aF40.029999999998836
tp921
sg307
((lp922
F40.150000000001455
tp923
sg349
((lp924
(F3.2299999999959255
I31
tp925
a(F9.2900000000008731
I30
tp926
a(F16.220000000001164
I29
tp927
a(F25.419999999998254
I28
tp928
a(F35.589999999996508
I27
tp929
aF40.029999999998836
tp930
ssba(imeasure_core
ProblemSetSolution
p931
(dp932
g3
g419
sg147
g890
sg150
(dp933
g422
((lp934
F40.809999999997672
tp935
sg458
((lp936
F42.659999999996217
tp937
sg499
((lp938
F42.030000000006112
tp939
sg544
((lp940
F40.44999999999709
tp941
sg589
((lp942
F41.730000000003201
tp943
ssba(imeasure_core
ProblemSetSolution
p944
(dp945
g3
g4
sg147
S"AnytimeBeam-w20-gf(8, 'lin')_with_LinearHeuristic"
p946
sg150
(dp947
g8
((lp948
(F0.0099999999947613105
I20
tp949
aF40.0
tp950
sg39
((lp951
(F3.7999999999956344
I7
tp952
aF40.299999999995634
tp953
sg66
((lp954
F40.270000000004075
tp955
sg121
((lp956
(F3.0800000000017462
I47
tp957
a(F6.7399999999979627
I46
tp958
a(F13.700000000004366
I45
tp959
a(F20.610000000000582
I44
tp960
a(F28.970000000001164
I43
tp961
a(F35.739999999997963
I42
tp962
aF40.069999999999709
tp963
sg91
((lp964
F40.119999999995343
tp965
ssba(imeasure_core
ProblemSetSolution
p966
(dp967
g3
g173
sg147
g946
sg150
(dp968
g176
((lp969
(F0.48999999999796273
I12
tp970
aF40.019999999996799
tp971
sg215
((lp972
F40.160000000003492
tp973
sg260
((lp974
(F1.430000000000291
I38
tp975
aF40.05000000000291
tp976
sg307
((lp977
F40.349999999998545
tp978
sg349
((lp979
(F3.6199999999953434
I31
tp980
a(F10.369999999995343
I30
tp981
a(F17.709999999999127
I29
tp982
a(F27.360000000000582
I28
tp983
a(F37.919999999998254
I27
tp984
aF40.040000000000873
tp985
ssba(imeasure_core
ProblemSetSolution
p986
(dp987
g3
g419
sg147
g946
sg150
(dp988
g422
((lp989
F40.150000000001455
tp990
sg458
((lp991
F44.849999999998545
tp992
sg499
((lp993
F42.350000000005821
tp994
sg544
((lp995
F40.099999999998545
tp996
sg589
((lp997
F47.319999999999709
tp998
ssba(imeasure_core
ProblemSetSolution
p999
(dp1000
g3
g4
sg147
S"AnytimeBeam-w20-gf(16, 'lin')_with_LinearHeuristic"
p1001
sg150
(dp1002
g8
((lp1003
(F0.010000000002037268
I20
tp1004
aF40.0
tp1005
sg39
((lp1006
(F4.5300000000061118
I7
tp1007
aF40.05000000000291
tp1008
sg66
((lp1009
F40.160000000003492
tp1010
sg121
((lp1011
(F3.3999999999941792
I47
tp1012
a(F7.430000000000291
I46
tp1013
a(F15.009999999994761
I45
tp1014
a(F22.57999999999447
I44
tp1015
a(F31.759999999994761
I43
tp1016
a(F39.289999999993597
I42
tp1017
aF40.039999999993597
tp1018
sg91
((lp1019
F40.5
tp1020
ssba(imeasure_core
ProblemSetSolution
p1021
(dp1022
g3
g173
sg147
g1001
sg150
(dp1023
g176
((lp1024
(F0.52000000000407454
I12
tp1025
aF40.040000000000873
tp1026
sg215
((lp1027
F40.240000000005239
tp1028
sg260
((lp1029
(F1.5199999999967986
I38
tp1030
aF40.049999999995634
tp1031
sg307
((lp1032
F40.209999999999127
tp1033
sg349
((lp1034
(F3.8700000000026193
I31
tp1035
a(F11.069999999999709
I30
tp1036
a(F18.980000000003201
I29
tp1037
a(F29.350000000005821
I28
tp1038
aF40.040000000000873
tp1039
ssba(imeasure_core
ProblemSetSolution
p1040
(dp1041
g3
g419
sg147
g1001
sg150
(dp1042
g422
((lp1043
F40.230000000003201
tp1044
sg458
((lp1045
F50.0
tp1046
sg499
((lp1047
F46.559999999997672
tp1048
sg544
((lp1049
F41.029999999998836
tp1050
sg589
((lp1051
F45.790000000000873
tp1052
ssba.