(lp0
(imeasure_core
ProblemSetSolution
p1
(dp2
S'roomset'
p3
(imeasure_core
RoomSet
p4
(dp5
S'rooms'
p6
(dp7
(iproblems
RoomID
p8
(dp9
S'dusts'
p10
I10
sS'obstacles'
p11
(I0
I8
tp12
sS'robots'
p13
I4
sS'height'
p14
I10
sS'width'
p15
I9
sS'seed'
p16
I4712128852136459333
sb(imulti_robot_problem
MultiRobotState
p17
(dp18
S'obstacle_locations'
p19
c__builtin__
frozenset
p20
((lp21
(I0
I6
tp22
ag12
a(I2
I3
tp23
a(I1
I5
tp24
a(I8
I0
tp25
a(I1
I1
tp26
a(I0
I7
tp27
atp28
Rp29
sg15
I9
sS'dirt_locations'
p30
g20
((lp31
(I4
I7
tp32
a(I1
I3
tp33
a(I4
I9
tp34
a(I8
I1
tp35
a(I7
I6
tp36
a(I2
I6
tp37
a(I8
I7
tp38
a(I2
I2
tp39
a(I4
I1
tp40
a(I2
I4
tp41
atp42
Rp43
sg13
((I5
I8
tp44
(I6
I9
tp45
(I5
I0
tp46
(I3
I1
tp47
tp48
sg14
I10
sbs(iproblems
RoomID
p49
(dp50
g10
I9
sg11
(I3
I4
tp51
sg13
I1
sg14
I7
sg15
I8
sg16
I6613812840851947673
sb(imulti_robot_problem
MultiRobotState
p52
(dp53
g19
g20
((lp54
(I3
I5
tp55
ag51
a(I2
I4
tp56
a(I2
I1
tp57
a(I1
I4
tp58
atp59
Rp60
sg15
I8
sg30
g20
((lp61
(I6
I4
tp62
a(I5
I4
tp63
a(I6
I0
tp64
a(I7
I5
tp65
a(I1
I6
tp66
a(I2
I2
tp67
a(I0
I5
tp68
a(I4
I1
tp69
a(I4
I0
tp70
atp71
Rp72
sg13
((I3
I1
tp73
tp74
sg14
I7
sbs(iproblems
RoomID
p75
(dp76
g10
I9
sg11
(I5
I3
tp77
sg13
I3
sg14
I7
sg15
I8
sg16
I4594210616595436404
sb(imulti_robot_problem
MultiRobotState
p78
(dp79
g19
g20
((lp80
(I0
I1
tp81
a(I3
I3
tp82
a(I4
I3
tp83
a(I4
I2
tp84
a(I6
I1
tp85
ag77
atp86
Rp87
sg15
I8
sg30
g20
((lp88
(I6
I6
tp89
a(I5
I6
tp90
a(I4
I4
tp91
a(I1
I4
tp92
a(I0
I6
tp93
a(I5
I1
tp94
a(I1
I0
tp95
a(I0
I3
tp96
a(I1
I1
tp97
atp98
Rp99
sg13
((I2
I1
tp100
(I3
I4
tp101
(I3
I6
tp102
tp103
sg14
I7
sbs(iproblems
RoomID
p104
(dp105
g10
I10
sg11
(I4
I5
tp106
sg13
I1
sg14
I8
sg15
I8
sg16
I2893396244277848635
sb(imulti_robot_problem
MultiRobotState
p107
(dp108
g19
g20
((lp109
g106
a(I3
I7
tp110
a(I2
I6
tp111
a(I4
I6
tp112
atp113
Rp114
sg15
I8
sg30
g20
((lp115
(I6
I4
tp116
a(I0
I0
tp117
a(I6
I7
tp118
a(I3
I0
tp119
a(I2
I1
tp120
a(I0
I6
tp121
a(I7
I2
tp122
a(I2
I4
tp123
a(I6
I5
tp124
a(I5
I3
tp125
atp126
Rp127
sg13
((I2
I3
tp128
tp129
sg14
I8
sbs(iproblems
RoomID
p130
(dp131
g10
I10
sg11
(I4
I8
tp132
sg13
I4
sg14
I10
sg15
I7
sg16
I956523682424107605
sb(imulti_robot_problem
MultiRobotState
p133
(dp134
g19
g20
((lp135
(I2
I8
tp136
ag132
a(I3
I7
tp137
a(I2
I9
tp138
a(I4
I2
tp139
atp140
Rp141
sg15
I7
sg30
g20
((lp142
(I5
I9
tp143
a(I4
I7
tp144
a(I1
I3
tp145
a(I3
I3
tp146
a(I5
I5
tp147
a(I6
I1
tp148
a(I5
I4
tp149
a(I0
I4
tp150
a(I5
I2
tp151
a(I5
I3
tp152
atp153
Rp154
sg13
((I1
I9
tp155
(I4
I9
tp156
(I1
I8
tp157
(I0
I3
tp158
tp159
sg14
I10
sbssS'name'
p160
S'easy_roomset'
p161
sbsg160
S'AnytimeBest-d10_with_PowerHeuristic2'
p162
sS'solutions'
p163
(dp164
g8
((lp165
F40.150000000001455
tp166
sg49
((lp167
F0.70999999999912689
tp168
sg75
((lp169
F40.120000000002619
tp170
sg104
((lp171
F0.84999999999854481
tp172
sg130
((lp173
(F0.34000000000014552
I10
tp174
aF40.049999999999272
tp175
ssba(imeasure_core
ProblemSetSolution
p176
(dp177
g3
(imeasure_core
RoomSet
p178
(dp179
g6
(dp180
(iproblems
RoomID
p181
(dp182
g10
I10
sg11
(I8
I7
tp183
sg13
I4
sg14
I12
sg15
I11
sg16
I4712128852136459333
sb(imulti_robot_problem
MultiRobotState
p184
(dp185
g19
g20
((lp186
(I6
I4
tp187
a(I4
I7
tp188
ag183
a(I4
I5
tp189
a(I3
I11
tp190
a(I0
I7
tp191
a(I7
I7
tp192
a(I1
I6
tp193
a(I1
I9
tp194
a(I2
I10
tp195
a(I4
I2
tp196
a(I1
I11
tp197
a(I6
I5
tp198
a(I5
I3
tp199
a(I9
I0
tp200
a(I0
I8
tp201
a(I5
I5
tp202
a(I7
I6
tp203
a(I3
I1
tp204
a(I2
I11
tp205
a(I0
I9
tp206
a(I2
I3
tp207
a(I4
I1
tp208
a(I1
I1
tp209
atp210
Rp211
sg15
I11
sg30
g20
((lp212
(I2
I7
tp213
a(I9
I1
tp214
a(I9
I8
tp215
a(I5
I1
tp216
a(I2
I5
tp217
a(I9
I7
tp218
a(I3
I4
tp219
a(I2
I4
tp220
a(I5
I8
tp221
a(I3
I3
tp222
atp223
Rp224
sg13
((I6
I10
tp225
(I8
I10
tp226
(I7
I0
tp227
(I5
I11
tp228
tp229
sg14
I12
sbs(iproblems
RoomID
p230
(dp231
g10
I9
sg11
(I4
I4
tp232
sg13
I3
sg14
I9
sg15
I10
sg16
I4594210616595436404
sb(imulti_robot_problem
MultiRobotState
p233
(dp234
g19
g20
((lp235
(I1
I3
tp236
a(I3
I0
tp237
a(I2
I1
tp238
a(I1
I6
tp239
a(I9
I4
tp240
a(I3
I7
tp241
a(I0
I3
tp242
a(I1
I2
tp243
a(I5
I5
tp244
a(I1
I5
tp245
a(I7
I6
tp246
ag232
a(I6
I3
tp247
a(I5
I6
tp248
a(I3
I6
tp249
a(I0
I4
tp250
a(I8
I6
tp251
a(I3
I5
tp252
a(I1
I1
tp253
a(I5
I4
tp254
a(I4
I5
tp255
a(I0
I5
tp256
a(I5
I3
tp257
a(I0
I1
tp258
a(I5
I2
tp259
a(I0
I6
tp260
a(I2
I0
tp261
a(I1
I8
tp262
a(I2
I3
tp263
a(I9
I5
tp264
a(I3
I4
tp265
a(I0
I2
tp266
atp267
Rp268
sg15
I10
sg30
g20
((lp269
(I7
I8
tp270
a(I7
I0
tp271
a(I6
I8
tp272
a(I2
I8
tp273
a(I8
I8
tp274
a(I0
I8
tp275
a(I8
I5
tp276
a(I5
I8
tp277
a(I8
I2
tp278
atp279
Rp280
sg13
((I4
I6
tp281
(I2
I5
tp282
(I6
I1
tp283
tp284
sg14
I9
sbs(iproblems
RoomID
p285
(dp286
g10
I5
sg11
(I4
I9
tp287
sg13
I4
sg14
I11
sg15
I11
sg16
I1881095652490078568
sb(imulti_robot_problem
MultiRobotState
p288
(dp289
g19
g20
((lp290
(I6
I9
tp291
a(I6
I6
tp292
a(I4
I5
tp293
a(I2
I8
tp294
a(I9
I3
tp295
a(I4
I7
tp296
a(I7
I5
tp297
a(I5
I4
tp298
ag287
a(I6
I5
tp299
a(I3
I5
tp300
a(I7
I4
tp301
a(I1
I7
tp302
a(I6
I7
tp303
a(I4
I6
tp304
a(I7
I6
tp305
a(I4
I4
tp306
a(I8
I10
tp307
a(I6
I3
tp308
a(I7
I10
tp309
a(I2
I2
tp310
a(I4
I8
tp311
a(I7
I8
tp312
a(I1
I1
tp313
a(I8
I4
tp314
atp315
Rp316
sg15
I11
sg30
g20
((lp317
(I1
I10
tp318
a(I5
I9
tp319
a(I0
I0
tp320
a(I10
I2
tp321
a(I9
I7
tp322
atp323
Rp324
sg13
((I5
I7
tp325
(I8
I1
tp326
(I3
I1
tp327
(I8
I8
tp328
tp329
sg14
I11
sbs(iproblems
RoomID
p330
(dp331
g10
I8
sg11
(I5
I0
tp332
sg13
I4
sg14
I9
sg15
I9
sg16
I6858376947525423350
sb(imulti_robot_problem
MultiRobotState
p333
(dp334
g19
g20
((lp335
(I6
I4
tp336
a(I4
I7
tp337
a(I1
I3
tp338
a(I4
I3
tp339
a(I7
I1
tp340
a(I3
I0
tp341
a(I2
I8
tp342
a(I6
I0
tp343
a(I2
I1
tp344
a(I1
I6
tp345
a(I5
I1
tp346
a(I2
I5
tp347
a(I0
I8
tp348
a(I7
I2
tp349
a(I2
I7
tp350
a(I3
I8
tp351
a(I5
I5
tp352
a(I6
I1
tp353
a(I5
I7
tp354
a(I6
I3
tp355
a(I1
I8
tp356
ag332
a(I2
I2
tp357
a(I2
I3
tp358
a(I3
I4
tp359
a(I2
I4
tp360
atp361
Rp362
sg15
I9
sg30
g20
((lp363
(I8
I3
tp364
a(I7
I0
tp365
a(I4
I6
tp366
a(I6
I6
tp367
a(I7
I5
tp368
a(I8
I0
tp369
a(I8
I8
tp370
a(I8
I4
tp371
atp372
Rp373
sg13
((I1
I1
tp374
(I6
I5
tp375
(I8
I2
tp376
(I1
I5
tp377
tp378
sg14
I9
sbs(iproblems
RoomID
p379
(dp380
g10
I6
sg11
(I8
I8
tp381
sg13
I4
sg14
I11
sg15
I12
sg16
I7529058068588108450
sb(imulti_robot_problem
MultiRobotState
p382
(dp383
g19
g20
((lp384
(I5
I9
tp385
a(I6
I9
tp386
a(I2
I6
tp387
a(I3
I2
tp388
a(I9
I1
tp389
a(I4
I10
tp390
a(I6
I6
tp391
a(I7
I7
tp392
a(I7
I1
tp393
a(I4
I6
tp394
a(I10
I4
tp395
a(I7
I5
tp396
a(I6
I8
tp397
a(I3
I7
tp398
a(I5
I8
tp399
a(I8
I2
tp400
a(I5
I5
tp401
a(I7
I6
tp402
a(I4
I4
tp403
a(I7
I4
tp404
a(I1
I5
tp405
ag381
a(I7
I2
tp406
a(I3
I6
tp407
a(I2
I2
tp408
a(I1
I10
tp409
a(I7
I8
tp410
a(I3
I10
tp411
atp412
Rp413
sg15
I12
sg30
g20
((lp414
(I7
I3
tp415
a(I0
I5
tp416
a(I4
I0
tp417
a(I11
I3
tp418
a(I11
I6
tp419
a(I6
I0
tp420
atp421
Rp422
sg13
((I11
I7
tp423
(I6
I2
tp424
(I11
I5
tp425
(I6
I7
tp426
tp427
sg14
I11
sbssg160
S'mild_roomset'
p428
sbsg160
g162
sg163
(dp429
g181
((lp430
F40.279999999998836
tp431
sg230
((lp432
F40.020000000000437
tp433
sg285
((lp434
(F0.14999999999781721
I7
tp435
aF40.009999999998399
tp436
sg330
((lp437
F40.030000000002474
tp438
sg379
((lp439
F40.029999999998836
tp440
ssba(imeasure_core
ProblemSetSolution
p441
(dp442
g3
(imeasure_core
RoomSet
p443
(dp444
g6
(dp445
(iproblems
RoomID
p446
(dp447
g10
I15
sg11
(I5
I9
tp448
sg13
I7
sg14
I13
sg15
I12
sg16
I4712128852136459333
sb(imulti_robot_problem
MultiRobotState
p449
(dp450
g19
g20
((lp451
g448
a(I4
I9
tp452
a(I5
I5
tp453
a(I4
I12
tp454
a(I2
I8
tp455
a(I3
I1
tp456
a(I3
I9
tp457
a(I9
I4
tp458
a(I1
I7
tp459
a(I1
I10
tp460
a(I3
I12
tp461
a(I0
I8
tp462
a(I5
I2
tp463
atp464
Rp465
sg15
I12
sg30
g20
((lp466
(I6
I9
tp467
a(I3
I3
tp468
a(I1
I12
tp469
a(I5
I6
tp470
a(I7
I7
tp471
a(I3
I5
tp472
a(I3
I8
tp473
a(I8
I8
tp474
a(I10
I0
tp475
a(I2
I5
tp476
a(I10
I2
tp477
a(I3
I4
tp478
a(I1
I1
tp479
a(I5
I8
tp480
a(I9
I7
tp481
atp482
Rp483
sg13
((I6
I11
tp484
(I8
I11
tp485
(I7
I0
tp486
(I4
I1
tp487
(I6
I12
tp488
(I10
I9
tp489
(I6
I1
tp490
tp491
sg14
I13
sbs(iproblems
RoomID
p492
(dp493
g10
I14
sg11
(I5
I5
tp494
sg13
I5
sg14
I10
sg15
I11
sg16
I6613812840851947673
sb(imulti_robot_problem
MultiRobotState
p495
(dp496
g19
g20
((lp497
(I4
I7
tp498
a(I2
I6
tp499
a(I6
I6
tp500
a(I4
I5
tp501
a(I7
I5
tp502
a(I1
I6
tp503
a(I8
I7
tp504
a(I3
I7
tp505
a(I10
I3
tp506
a(I3
I5
tp507
a(I10
I8
tp508
a(I6
I3
tp509
ag494
a(I8
I5
tp510
a(I7
I4
tp511
a(I3
I8
tp512
a(I0
I6
tp513
a(I3
I6
tp514
a(I1
I3
tp515
a(I8
I6
tp516
a(I2
I4
tp517
atp518
Rp519
sg15
I11
sg30
g20
((lp520
(I6
I4
tp521
a(I3
I2
tp522
a(I4
I6
tp523
a(I4
I9
tp524
a(I3
I3
tp525
a(I9
I8
tp526
a(I8
I0
tp527
a(I8
I8
tp528
a(I5
I0
tp529
a(I1
I0
tp530
a(I8
I4
tp531
a(I5
I2
tp532
a(I6
I1
tp533
a(I9
I7
tp534
atp535
Rp536
sg13
((I5
I1
tp537
(I0
I8
tp538
(I2
I9
tp539
(I4
I1
tp540
(I7
I6
tp541
tp542
sg14
I10
sbs(iproblems
RoomID
p543
(dp544
g10
I13
sg11
(I1
I6
tp545
sg13
I7
sg14
I10
sg15
I10
sg16
I6858376947525423350
sb(imulti_robot_problem
MultiRobotState
p546
(dp547
g19
g20
((lp548
(I4
I7
tp549
a(I1
I3
tp550
a(I2
I8
tp551
a(I2
I2
tp552
a(I2
I1
tp553
a(I2
I3
tp554
a(I9
I5
tp555
a(I2
I5
tp556
a(I2
I7
tp557
a(I2
I9
tp558
a(I8
I1
tp559
ag545
a(I1
I7
tp560
a(I0
I9
tp561
a(I8
I6
tp562
a(I2
I4
tp563
atp564
Rp565
sg15
I10
sg30
g20
((lp566
(I8
I0
tp567
a(I4
I9
tp568
a(I3
I3
tp569
a(I3
I0
tp570
a(I7
I6
tp571
a(I5
I7
tp572
a(I9
I9
tp573
a(I4
I4
tp574
a(I6
I2
tp575
a(I9
I4
tp576
a(I8
I5
tp577
a(I5
I8
tp578
a(I5
I3
tp579
atp580
Rp581
sg13
((I1
I2
tp582
(I7
I5
tp583
(I7
I2
tp584
(I9
I2
tp585
(I1
I5
tp586
(I9
I0
tp587
(I6
I6
tp588
tp589
sg14
I10
sbs(iproblems
RoomID
p590
(dp591
g10
I15
sg11
(I4
I8
tp592
sg13
I6
sg14
I13
sg15
I10
sg16
I956523682424107605
sb(imulti_robot_problem
MultiRobotState
p593
(dp594
g19
g20
((lp595
(I5
I9
tp596
a(I6
I9
tp597
a(I7
I10
tp598
ag592
a(I5
I6
tp599
a(I3
I11
tp600
a(I9
I4
tp601
a(I4
I9
tp602
a(I5
I8
tp603
a(I2
I7
tp604
a(I5
I10
tp605
a(I5
I5
tp606
a(I3
I10
tp607
a(I5
I7
tp608
a(I9
I9
tp609
a(I5
I0
tp610
a(I7
I8
tp611
a(I1
I1
tp612
atp613
Rp614
sg15
I10
sg30
g20
((lp615
(I6
I10
tp616
a(I8
I3
tp617
a(I1
I3
tp618
a(I6
I6
tp619
a(I7
I6
tp620
a(I8
I12
tp621
a(I5
I4
tp622
a(I1
I4
tp623
a(I2
I10
tp624
a(I7
I4
tp625
a(I1
I5
tp626
a(I7
I5
tp627
a(I0
I9
tp628
a(I7
I11
tp629
a(I6
I2
tp630
atp631
Rp632
sg13
((I1
I12
tp633
(I6
I12
tp634
(I2
I11
tp635
(I0
I4
tp636
(I9
I1
tp637
(I7
I7
tp638
tp639
sg14
I13
sbs(iproblems
RoomID
p640
(dp641
g10
I15
sg11
(I6
I6
tp642
sg13
I5
sg14
I11
sg15
I11
sg16
I2893396244277848635
sb(imulti_robot_problem
MultiRobotState
p643
(dp644
g19
g20
((lp645
(I7
I3
tp646
a(I4
I7
tp647
a(I5
I5
tp648
a(I4
I8
tp649
a(I5
I6
tp650
a(I2
I8
tp651
ag642
a(I3
I2
tp652
a(I3
I9
tp653
a(I4
I3
tp654
a(I1
I7
tp655
a(I6
I9
tp656
atp657
Rp658
sg15
I11
sg30
g20
((lp659
(I2
I6
tp660
a(I8
I7
tp661
a(I3
I10
tp662
a(I3
I1
tp663
a(I2
I10
tp664
a(I0
I5
tp665
a(I6
I5
tp666
a(I3
I6
tp667
a(I8
I6
tp668
a(I4
I0
tp669
a(I3
I7
tp670
a(I7
I9
tp671
a(I4
I1
tp672
a(I5
I8
tp673
a(I5
I3
tp674
atp675
Rp676
sg13
((I4
I5
tp677
(I0
I9
tp678
(I0
I1
tp679
(I9
I2
tp680
(I8
I10
tp681
tp682
sg14
I11
sbssg160
S'heavy_roomset'
p683
sbsg160
g162
sg163
(dp684
g446
((lp685
F46.409999999999854
tp686
sg492
((lp687
F40.930000000000291
tp688
sg543
((lp689
F40.309999999997672
tp690
sg590
((lp691
(F12.690000000002328
I10
tp692
aF40.700000000000728
tp693
sg640
((lp694
F40.25
tp695
ssba(imeasure_core
ProblemSetSolution
p696
(dp697
g3
g4
sg160
S'AnytimeBest-d80_with_PowerHeuristic2'
p698
sg163
(dp699
g8
((lp700
(F3.3299999999981083
I51
tp701
aF40.119999999998981
tp702
sg49
((lp703
(F0.13000000000101863
I36
tp704
a(F1.5200000000004366
I30
tp705
a(F2.2900000000008731
I29
tp706
a(F9.3100000000013097
I28
tp707
a(F13.029999999998836
I27
tp708
a(F23.919999999998254
I26
tp709
a(F24.0
I25
tp710
aF40.009999999998399
tp711
sg75
((lp712
(F2.180000000000291
I26
tp713
aF40.030000000002474
tp714
sg104
((lp715
(F0.68000000000029104
I61
tp716
a(F2.0
I57
tp717
a(F2.5399999999972351
I56
tp718
a(F3.2799999999988358
I54
tp719
a(F3.5200000000004366
I52
tp720
a(F5.5299999999988358
I51
tp721
a(F7.7099999999991269
I50
tp722
a(F8.2700000000004366
I48
tp723
a(F9.5399999999972351
I46
tp724
a(F10.739999999997963
I44
tp725
a(F21.579999999998108
I43
tp726
a(F22.180000000000291
I42
tp727
a(F22.919999999998254
I41
tp728
a(F24.090000000000146
I40
tp729
a(F25.5
I39
tp730
a(F28.93999999999869
I37
tp731
a(F29.349999999998545
I35
tp732
a(F30.299999999999272
I33
tp733
aF40.0
tp734
sg130
((lp735
(F0.34000000000014552
I10
tp736
aF40.049999999999272
tp737
ssba(imeasure_core
ProblemSetSolution
p738
(dp739
g3
g178
sg160
g698
sg163
(dp740
g181
((lp741
(F1.2399999999979627
I23
tp742
aF40.049999999999272
tp743
sg230
((lp744
F40.020000000000437
tp745
sg285
((lp746
(F0.15999999999985448
I7
tp747
aF40.029999999998836
tp748
sg330
((lp749
(F0.27000000000043656
I16
tp750
aF40.020000000000437
tp751
sg379
((lp752
(F0.94000000000232831
I33
tp753
aF40.020000000000437
tp754
ssba(imeasure_core
ProblemSetSolution
p755
(dp756
g3
g443
sg160
g698
sg163
(dp757
g446
((lp758
F46.430000000000291
tp759
sg492
((lp760
F40.110000000000582
tp761
sg543
((lp762
(F35.720000000001164
I14
tp763
aF40.329999999998108
tp764
sg590
((lp765
(F12.670000000001892
I10
tp766
aF40.640000000003056
tp767
sg640
((lp768
(F8.4799999999995634
I27
tp769
aF40.109999999996944
tp770
ssba(imeasure_core
ProblemSetSolution
p771
(dp772
g3
g4
sg160
S'AnytimeBest-d150_with_PowerHeuristic2'
p773
sg163
(dp774
g8
((lp775
(F3.2900000000008731
I51
tp776
aF40.040000000000873
tp777
sg49
((lp778
(F0.13999999999941792
I36
tp779
a(F1.5400000000008731
I30
tp780
a(F2.319999999999709
I29
tp781
a(F9.3300000000017462
I28
tp782
a(F12.990000000001601
I27
tp783
a(F23.889999999999418
I26
tp784
a(F23.959999999999127
I25
tp785
aF40.010000000002037
tp786
sg75
((lp787
(F2.1599999999998545
I26
tp788
aF40.029999999998836
tp789
sg104
((lp790
(F0.68000000000029104
I61
tp791
a(F2.0
I57
tp792
a(F2.5299999999988358
I56
tp793
a(F3.2700000000004366
I54
tp794
a(F3.5
I52
tp795
a(F5.4899999999979627
I51
tp796
a(F7.6599999999998545
I50
tp797
a(F8.2099999999991269
I48
tp798
a(F9.4700000000011642
I46
tp799
a(F10.669999999998254
I44
tp800
a(F21.529999999998836
I43
tp801
a(F22.139999999999418
I42
tp802
a(F22.880000000001019
I41
tp803
a(F24.069999999999709
I40
tp804
a(F25.489999999997963
I39
tp805
a(F28.93999999999869
I37
tp806
a(F29.349999999998545
I35
tp807
a(F30.299999999999272
I33
tp808
aF40.0
tp809
sg130
((lp810
(F0.34000000000014552
I10
tp811
aF40.06000000000131
tp812
ssba(imeasure_core
ProblemSetSolution
p813
(dp814
g3
g178
sg160
g773
sg163
(dp815
g181
((lp816
(F1.25
I23
tp817
aF40.049999999999272
tp818
sg230
((lp819
F40.009999999998399
tp820
sg285
((lp821
(F0.15999999999985448
I7
tp822
aF40.010000000002037
tp823
sg330
((lp824
(F0.25999999999839929
I16
tp825
aF40.019999999996799
tp826
sg379
((lp827
(F0.93000000000029104
I33
tp828
aF40.080000000001746
tp829
ssba(imeasure_core
ProblemSetSolution
p830
(dp831
g3
g443
sg160
g773
sg163
(dp832
g446
((lp833
F46.540000000000873
tp834
sg492
((lp835
F40.619999999998981
tp836
sg543
((lp837
(F35.80000000000291
I14
tp838
aF40.330000000001746
tp839
sg590
((lp840
(F12.740000000001601
I10
tp841
aF40.779999999998836
tp842
sg640
((lp843
(F8.4900000000016007
I27
tp844
aF40.409999999999854
tp845
ssba(imeasure_core
ProblemSetSolution
p846
(dp847
g3
g4
sg160
S'AnytimeBest-d250_with_PowerHeuristic2'
p848
sg163
(dp849
g8
((lp850
(F3.2900000000008731
I51
tp851
aF40.169999999998254
tp852
sg49
((lp853
(F0.13000000000101863
I36
tp854
a(F1.5200000000004366
I30
tp855
a(F2.2900000000008731
I29
tp856
a(F9.3300000000017462
I28
tp857
a(F13.020000000000437
I27
tp858
a(F23.920000000001892
I26
tp859
a(F23.990000000001601
I25
tp860
aF40.010000000002037
tp861
sg75
((lp862
(F2.1299999999973807
I26
tp863
aF40.049999999999272
tp864
sg104
((lp865
(F0.68000000000029104
I61
tp866
a(F1.9899999999979627
I57
tp867
a(F2.5299999999988358
I56
tp868
a(F3.2599999999983993
I54
tp869
a(F3.5
I52
tp870
a(F5.5099999999983993
I51
tp871
a(F7.6899999999986903
I50
tp872
a(F8.2599999999983993
I48
tp873
a(F9.5200000000004366
I46
tp874
a(F10.729999999999563
I44
tp875
a(F21.590000000000146
I43
tp876
a(F22.18999999999869
I42
tp877
a(F22.930000000000291
I41
tp878
a(F24.110000000000582
I40
tp879
a(F25.529999999998836
I39
tp880
a(F29.0
I37
tp881
a(F29.409999999999854
I35
tp882
a(F30.369999999998981
I33
tp883
aF40.0
tp884
sg130
((lp885
(F0.34000000000014552
I10
tp886
aF40.049999999999272
tp887
ssba(imeasure_core
ProblemSetSolution
p888
(dp889
g3
g178
sg160
g848
sg163
(dp890
g181
((lp891
(F1.2600000000020373
I23
tp892
aF40.049999999999272
tp893
sg230
((lp894
F40.06000000000131
tp895
sg285
((lp896
(F0.15000000000145519
I7
tp897
aF40.0
tp898
sg330
((lp899
(F0.27000000000043656
I16
tp900
aF40.020000000000437
tp901
sg379
((lp902
(F0.93000000000029104
I33
tp903
aF40.020000000000437
tp904
ssba(imeasure_core
ProblemSetSolution
p905
(dp906
g3
g443
sg160
g848
sg163
(dp907
g446
((lp908
F46.669999999998254
tp909
sg492
((lp910
F40.619999999998981
tp911
sg543
((lp912
(F35.780000000002474
I14
tp913
aF40.330000000001746
tp914
sg590
((lp915
(F12.700000000000728
I10
tp916
aF40.740000000001601
tp917
sg640
((lp918
(F8.5
I27
tp919
aF40.109999999996944
tp920
ssba(imeasure_core
ProblemSetSolution
p921
(dp922
g3
g4
sg160
S'AnytimeBest-d400_with_PowerHeuristic2'
p923
sg163
(dp924
g8
((lp925
(F3.3000000000029104
I51
tp926
aF40.069999999999709
tp927
sg49
((lp928
(F0.1400000000030559
I36
tp929
a(F1.5300000000024738
I30
tp930
a(F2.3000000000029104
I29
tp931
a(F9.2900000000008731
I28
tp932
a(F12.960000000002765
I27
tp933
a(F23.850000000002183
I26
tp934
a(F23.920000000001892
I25
tp935
aF40.010000000002037
tp936
sg75
((lp937
(F2.1500000000014552
I26
tp938
aF40.029999999998836
tp939
sg104
((lp940
(F0.68000000000029104
I61
tp941
a(F2.0
I57
tp942
a(F2.5200000000004366
I56
tp943
a(F3.2600000000020373
I54
tp944
a(F3.4900000000016007
I52
tp945
a(F5.4900000000016007
I51
tp946
a(F7.6599999999998545
I50
tp947
a(F8.2200000000011642
I48
tp948
a(F9.4799999999995634
I46
tp949
a(F10.680000000000291
I44
tp950
a(F21.590000000000146
I43
tp951
a(F22.200000000000728
I42
tp952
a(F22.940000000002328
I41
tp953
a(F24.130000000001019
I40
tp954
a(F25.56000000000131
I39
tp955
a(F29.030000000002474
I37
tp956
a(F29.450000000000728
I35
tp957
a(F30.409999999999854
I33
tp958
aF40.0
tp959
sg130
((lp960
(F0.34000000000014552
I10
tp961
aF40.120000000002619
tp962
ssba(imeasure_core
ProblemSetSolution
p963
(dp964
g3
g178
sg160
g923
sg163
(dp965
g181
((lp966
(F1.2699999999967986
I23
tp967
aF40.049999999999272
tp968
sg230
((lp969
F40.020000000000437
tp970
sg285
((lp971
(F0.14999999999781721
I7
tp972
aF40.0
tp973
sg330
((lp974
(F0.26999999999679858
I16
tp975
aF40.019999999996799
tp976
sg379
((lp977
(F0.93000000000029104
I33
tp978
aF40.020000000000437
tp979
ssba(imeasure_core
ProblemSetSolution
p980
(dp981
g3
g443
sg160
g923
sg163
(dp982
g446
((lp983
F46.330000000001746
tp984
sg492
((lp985
F40.709999999999127
tp986
sg543
((lp987
(F35.659999999999854
I14
tp988
aF40.330000000001746
tp989
sg590
((lp990
(F12.809999999997672
I10
tp991
aF40.569999999999709
tp992
sg640
((lp993
(F8.5
I27
tp994
aF40.110000000000582
tp995
ssba(imeasure_core
ProblemSetSolution
p996
(dp997
g3
g4
sg160
S'AnytimeBest-d10_with_LinearHeuristic'
p998
sg163
(dp999
g8
((lp1000
F40.43999999999869
tp1001
sg49
((lp1002
F2.2599999999983993
tp1003
sg75
((lp1004
(F0.11000000000058208
I8
tp1005
aF40.090000000000146
tp1006
sg104
((lp1007
F2.7000000000007276
tp1008
sg130
((lp1009
F40.100000000002183
tp1010
ssba(imeasure_core
ProblemSetSolution
p1011
(dp1012
g3
g178
sg160
g998
sg163
(dp1013
g181
((lp1014
F40.089999999996508
tp1015
sg230
((lp1016
(F20.600000000002183
I10
tp1017
aF40.030000000002474
tp1018
sg285
((lp1019
(F0.34999999999854481
I7
tp1020
aF40.090000000000146
tp1021
sg330
((lp1022
F40.099999999998545
tp1023
sg379
((lp1024
F40.119999999998981
tp1025
ssba(imeasure_core
ProblemSetSolution
p1026
(dp1027
g3
g443
sg160
g998
sg163
(dp1028
g446
((lp1029
F48.56000000000131
tp1030
sg492
((lp1031
F40.369999999995343
tp1032
sg543
((lp1033
F42.620000000002619
tp1034
sg590
((lp1035
F41.489999999997963
tp1036
sg640
((lp1037
F40.440000000002328
tp1038
ssba(imeasure_core
ProblemSetSolution
p1039
(dp1040
g3
g4
sg160
S'AnytimeBest-d80_with_LinearHeuristic'
p1041
sg163
(dp1042
g8
((lp1043
F40.379999999997381
tp1044
sg49
((lp1045
(F0.020000000004074536
I25
tp1046
aF40.0
tp1047
sg75
((lp1048
(F0.11000000000058208
I8
tp1049
aF40.060000000004948
tp1050
sg104
((lp1051
(F0.029999999998835847
I32
tp1052
a(F1.0899999999965075
I30
tp1053
aF40.0
tp1054
sg130
((lp1055
F40.110000000000582
tp1056
ssba(imeasure_core
ProblemSetSolution
p1057
(dp1058
g3
g178
sg160
g1041
sg163
(dp1059
g181
((lp1060
F40.060000000004948
tp1061
sg230
((lp1062
(F12.989999999997963
I14
tp1063
aF40.029999999998836
tp1064
sg285
((lp1065
(F0.34999999999854481
I7
tp1066
aF40.110000000000582
tp1067
sg330
((lp1068
F40.049999999995634
tp1069
sg379
((lp1070
F40.060000000004948
tp1071
ssba(imeasure_core
ProblemSetSolution
p1072
(dp1073
g3
g443
sg160
g1041
sg163
(dp1074
g446
((lp1075
F48.759999999994761
tp1076
sg492
((lp1077
F40.150000000001455
tp1078
sg543
((lp1079
F42.610000000000582
tp1080
sg590
((lp1081
F40.520000000004075
tp1082
sg640
((lp1083
F40.269999999996799
tp1084
ssba(imeasure_core
ProblemSetSolution
p1085
(dp1086
g3
g4
sg160
S'AnytimeBest-d150_with_LinearHeuristic'
p1087
sg163
(dp1088
g8
((lp1089
F40.309999999997672
tp1090
sg49
((lp1091
(F0.019999999996798579
I25
tp1092
aF40.0
tp1093
sg75
((lp1094
(F0.11000000000058208
I8
tp1095
aF40.080000000001746
tp1096
sg104
((lp1097
(F0.029999999998835847
I32
tp1098
a(F1.0999999999985448
I30
tp1099
aF40.0
tp1100
sg130
((lp1101
F40.119999999995343
tp1102
ssba(imeasure_core
ProblemSetSolution
p1103
(dp1104
g3
g178
sg160
g1087
sg163
(dp1105
g181
((lp1106
F40.290000000000873
tp1107
sg230
((lp1108
(F12.959999999999127
I14
tp1109
aF40.059999999997672
tp1110
sg285
((lp1111
(F0.35000000000582077
I7
tp1112
aF40.080000000001746
tp1113
sg330
((lp1114
F40.029999999998836
tp1115
sg379
((lp1116
F40.05000000000291
tp1117
ssba(imeasure_core
ProblemSetSolution
p1118
(dp1119
g3
g443
sg160
g1087
sg163
(dp1120
g446
((lp1121
F48.639999999999418
tp1122
sg492
((lp1123
F40.599999999998545
tp1124
sg543
((lp1125
F42.279999999998836
tp1126
sg590
((lp1127
F40.849999999998545
tp1128
sg640
((lp1129
F40.520000000004075
tp1130
ssba(imeasure_core
ProblemSetSolution
p1131
(dp1132
g3
g4
sg160
S'AnytimeBest-d250_with_LinearHeuristic'
p1133
sg163
(dp1134
g8
((lp1135
F40.30000000000291
tp1136
sg49
((lp1137
(F0.019999999996798579
I25
tp1138
aF40.0
tp1139
sg75
((lp1140
(F0.11999999999534339
I8
tp1141
aF40.059999999997672
tp1142
sg104
((lp1143
(F0.029999999998835847
I32
tp1144
a(F1.0800000000017462
I30
tp1145
aF40.0
tp1146
sg130
((lp1147
F40.110000000000582
tp1148
ssba(imeasure_core
ProblemSetSolution
p1149
(dp1150
g3
g178
sg160
g1133
sg163
(dp1151
g181
((lp1152
F40.19999999999709
tp1153
sg230
((lp1154
(F12.860000000000582
I14
tp1155
aF40.05000000000291
tp1156
sg285
((lp1157
(F0.34999999999854481
I7
tp1158
aF40.080000000001746
tp1159
sg330
((lp1160
F40.039999999993597
tp1161
sg379
((lp1162
F40.060000000004948
tp1163
ssba(imeasure_core
ProblemSetSolution
p1164
(dp1165
g3
g443
sg160
g1133
sg163
(dp1166
g446
((lp1167
F48.560000000004948
tp1168
sg492
((lp1169
F40.619999999995343
tp1170
sg543
((lp1171
F42.710000000006403
tp1172
sg590
((lp1173
F40.649999999994179
tp1174
sg640
((lp1175
F40.330000000001746
tp1176
ssba(imeasure_core
ProblemSetSolution
p1177
(dp1178
g3
g4
sg160
S'AnytimeBest-d400_with_LinearHeuristic'
p1179
sg163
(dp1180
g8
((lp1181
F40.110000000000582
tp1182
sg49
((lp1183
(F0.019999999996798579
I25
tp1184
aF40.0
tp1185
sg75
((lp1186
(F0.11000000000058208
I8
tp1187
aF40.059999999997672
tp1188
sg104
((lp1189
(F0.029999999998835847
I32
tp1190
a(F1.0800000000017462
I30
tp1191
aF40.0
tp1192
sg130
((lp1193
F40.269999999996799
tp1194
ssba(imeasure_core
ProblemSetSolution
p1195
(dp1196
g3
g178
sg160
g1179
sg163
(dp1197
g181
((lp1198
F40.180000000000291
tp1199
sg230
((lp1200
(F12.860000000000582
I14
tp1201
aF40.030000000006112
tp1202
sg285
((lp1203
(F0.34999999999854481
I7
tp1204
aF40.07999999999447
tp1205
sg330
((lp1206
F40.230000000003201
tp1207
sg379
((lp1208
F40.360000000000582
tp1209
ssba(imeasure_core
ProblemSetSolution
p1210
(dp1211
g3
g443
sg160
g1179
sg163
(dp1212
g446
((lp1213
F48.889999999999418
tp1214
sg492
((lp1215
F40.569999999999709
tp1216
sg543
((lp1217
F42.419999999998254
tp1218
sg590
((lp1219
F40.409999999996217
tp1220
sg640
((lp1221
F40.260000000002037
tp1222
ssba.