(lp0
(imeasure_core
ProblemSetSolution
p1
(dp2
S'roomset'
p3
(imeasure_core
RoomSet
p4
(dp5
S'rooms'
p6
(dp7
(iproblems
RoomID
p8
(dp9
S'dusts'
p10
I8
sS'obstacles'
p11
(I0
I4
tp12
sS'robots'
p13
I4
sS'height'
p14
I7
sS'width'
p15
I9
sS'seed'
p16
I1689441204489037471
sb(imulti_robot_problem
MultiRobotState
p17
(dp18
S'obstacle_locations'
p19
c__builtin__
frozenset
p20
((lp21
(I0
I1
tp22
a(I1
I2
tp23
a(I3
I2
tp24
a(I8
I1
tp25
a(I4
I3
tp26
ag12
a(I0
I3
tp27
a(I4
I0
tp28
atp29
Rp30
sg15
I9
sS'dirt_locations'
p31
g20
((lp32
(I0
I0
tp33
a(I7
I0
tp34
a(I7
I6
tp35
a(I1
I4
tp36
a(I6
I2
tp37
a(I2
I3
tp38
a(I5
I1
tp39
a(I3
I5
tp40
atp41
Rp42
sg13
((I6
I0
tp43
(I5
I4
tp44
(I6
I6
tp45
(I5
I0
tp46
tp47
sg14
I7
sbs(iproblems
RoomID
p48
(dp49
g10
I10
sg11
(I4
I5
tp50
sg13
I3
sg14
I8
sg15
I10
sg16
I6660334802794327005
sb(imulti_robot_problem
MultiRobotState
p51
(dp52
g19
g20
((lp53
(I9
I0
tp54
a(I2
I6
tp55
a(I1
I6
tp56
a(I3
I6
tp57
ag50
a(I8
I4
tp58
atp59
Rp60
sg15
I10
sg31
g20
((lp61
(I9
I1
tp62
a(I5
I6
tp63
a(I9
I6
tp64
a(I1
I5
tp65
a(I7
I5
tp66
a(I9
I4
tp67
a(I1
I7
tp68
a(I4
I1
tp69
a(I7
I2
tp70
a(I8
I2
tp71
atp72
Rp73
sg13
((I7
I3
tp74
(I4
I7
tp75
(I4
I2
tp76
tp77
sg14
I8
sbs(iproblems
RoomID
p78
(dp79
g10
I7
sg11
(I2
I5
tp80
sg13
I5
sg14
I9
sg15
I9
sg16
I4640892725076559864
sb(imulti_robot_problem
MultiRobotState
p81
(dp82
g19
g20
((lp83
(I2
I6
tp84
a(I6
I7
tp85
a(I0
I6
tp86
a(I3
I1
tp87
a(I1
I5
tp88
a(I1
I6
tp89
a(I0
I4
tp90
ag80
a(I3
I4
tp91
atp92
Rp93
sg15
I9
sg31
g20
((lp94
(I3
I8
tp95
a(I7
I3
tp96
a(I7
I1
tp97
a(I8
I1
tp98
a(I8
I6
tp99
a(I4
I2
tp100
a(I5
I3
tp101
atp102
Rp103
sg13
((I6
I5
tp104
(I8
I4
tp105
(I7
I6
tp106
(I6
I0
tp107
(I6
I3
tp108
tp109
sg14
I9
sbs(iproblems
RoomID
p110
(dp111
g10
I6
sg11
(I8
I4
tp112
sg13
I4
sg14
I10
sg15
I9
sg16
I3119042104763040036
sb(imulti_robot_problem
MultiRobotState
p113
(dp114
g19
g20
((lp115
(I1
I2
tp116
a(I6
I7
tp117
a(I4
I8
tp118
a(I7
I6
tp119
a(I8
I5
tp120
ag112
atp121
Rp122
sg15
I9
sg31
g20
((lp123
(I6
I8
tp124
a(I8
I7
tp125
a(I6
I6
tp126
a(I3
I0
tp127
a(I7
I2
tp128
a(I6
I5
tp129
atp130
Rp131
sg13
((I5
I9
tp132
(I6
I1
tp133
(I3
I4
tp134
(I2
I7
tp135
tp136
sg14
I10
sbs(iproblems
RoomID
p137
(dp138
g10
I6
sg11
(I3
I0
tp139
sg13
I4
sg14
I10
sg15
I7
sg16
I3914746131789064238
sb(imulti_robot_problem
MultiRobotState
p140
(dp141
g19
g20
((lp142
g139
a(I6
I1
tp143
a(I2
I3
tp144
a(I5
I0
tp145
a(I2
I2
tp146
a(I0
I3
tp147
a(I0
I8
tp148
a(I4
I1
tp149
a(I3
I5
tp150
atp151
Rp152
sg15
I7
sg31
g20
((lp153
(I6
I5
tp154
a(I3
I3
tp155
a(I1
I7
tp156
a(I0
I4
tp157
a(I3
I4
tp158
a(I0
I7
tp159
atp160
Rp161
sg13
((I1
I8
tp162
(I5
I1
tp163
(I5
I3
tp164
(I1
I9
tp165
tp166
sg14
I10
sbssS'name'
p167
S'easy_roomset'
p168
sbsg167
S"AnytimeBeam-w20-gf(1.3, 'exp')_with_PowerHeuristic2"
p169
sS'solutions'
p170
(dp171
g8
((lp172
(F0.3500000000003638
I8
tp173
aF40.340000000000146
tp174
sg48
((lp175
(F0.48999999999978172
I23
tp176
aF40.0
tp177
sg78
((lp178
(F6.0900000000001455
I6
tp179
aF40.100000000000364
tp180
sg110
((lp181
(F1.7899999999990541
I11
tp182
aF40.260000000000218
tp183
sg137
((lp184
(F0.62999999999919964
I7
tp185
aF40.149999999999636
tp186
ssba(imeasure_core
ProblemSetSolution
p187
(dp188
g3
(imeasure_core
RoomSet
p189
(dp190
g6
(dp191
(iproblems
RoomID
p192
(dp193
g10
I6
sg11
(I5
I5
tp194
sg13
I4
sg14
I12
sg15
I11
sg16
I3119042104763040036
sb(imulti_robot_problem
MultiRobotState
p195
(dp196
g19
g20
((lp197
(I4
I6
tp198
a(I10
I4
tp199
a(I3
I0
tp200
a(I9
I8
tp201
a(I10
I6
tp202
a(I2
I1
tp203
a(I8
I9
tp204
a(I2
I3
tp205
a(I0
I10
tp206
a(I9
I5
tp207
a(I10
I3
tp208
a(I7
I9
tp209
ag194
a(I10
I7
tp210
a(I7
I8
tp211
a(I4
I4
tp212
a(I9
I2
tp213
a(I2
I4
tp214
a(I4
I5
tp215
a(I2
I2
tp216
a(I3
I3
tp217
a(I3
I4
tp218
a(I1
I1
tp219
atp220
Rp221
sg15
I11
sg31
g20
((lp222
(I8
I3
tp223
a(I8
I8
tp224
a(I5
I10
tp225
a(I9
I4
tp226
a(I8
I6
tp227
a(I10
I9
tp228
atp229
Rp230
sg13
((I6
I11
tp231
(I7
I2
tp232
(I2
I8
tp233
(I8
I10
tp234
tp235
sg14
I12
sbs(iproblems
RoomID
p236
(dp237
g10
I6
sg11
(I4
I8
tp238
sg13
I4
sg14
I12
sg15
I9
sg16
I3914746131789064238
sb(imulti_robot_problem
MultiRobotState
p239
(dp240
g19
g20
((lp241
(I4
I6
tp242
a(I6
I6
tp243
a(I4
I5
tp244
a(I5
I7
tp245
a(I0
I5
tp246
a(I0
I10
tp247
a(I8
I7
tp248
a(I7
I0
tp249
a(I0
I3
tp250
a(I8
I5
tp251
a(I4
I0
tp252
a(I2
I3
tp253
a(I6
I7
tp254
a(I3
I3
tp255
a(I8
I1
tp256
a(I7
I6
tp257
a(I3
I1
tp258
ag238
a(I5
I0
tp259
a(I2
I2
tp260
a(I0
I9
tp261
a(I8
I6
tp262
a(I5
I3
tp263
a(I6
I1
tp264
atp265
Rp266
sg15
I9
sg31
g20
((lp267
(I1
I8
tp268
a(I1
I9
tp269
a(I4
I3
tp270
a(I4
I4
tp271
a(I2
I11
tp272
a(I2
I10
tp273
atp274
Rp275
sg13
((I1
I10
tp276
(I6
I2
tp277
(I7
I3
tp278
(I1
I11
tp279
tp280
sg14
I12
sbs(iproblems
RoomID
p281
(dp282
g10
I9
sg11
(I9
I9
tp283
sg13
I3
sg14
I10
sg15
I10
sg16
I3273124617966689144
sb(imulti_robot_problem
MultiRobotState
p284
(dp285
g19
g20
((lp286
(I7
I3
tp287
a(I5
I4
tp288
a(I1
I3
tp289
a(I6
I4
tp290
a(I4
I5
tp291
a(I9
I8
tp292
a(I3
I2
tp293
a(I7
I5
tp294
a(I1
I6
tp295
a(I2
I5
tp296
a(I0
I8
tp297
a(I9
I6
tp298
a(I6
I5
tp299
a(I5
I3
tp300
a(I3
I3
tp301
a(I5
I5
tp302
a(I7
I6
tp303
ag283
a(I6
I3
tp304
a(I4
I3
tp305
a(I2
I3
tp306
a(I8
I6
tp307
a(I2
I4
tp308
a(I9
I7
tp309
atp310
Rp311
sg15
I10
sg31
g20
((lp312
(I7
I0
tp313
a(I3
I0
tp314
a(I6
I1
tp315
a(I3
I1
tp316
a(I5
I0
tp317
a(I2
I2
tp318
a(I3
I4
tp319
a(I1
I1
tp320
a(I8
I4
tp321
atp322
Rp323
sg13
((I0
I7
tp324
(I2
I1
tp325
(I6
I6
tp326
tp327
sg14
I10
sbs(iproblems
RoomID
p328
(dp329
g10
I9
sg11
(I9
I10
tp330
sg13
I3
sg14
I11
sg15
I10
sg16
I4253868527325451640
sb(imulti_robot_problem
MultiRobotState
p331
(dp332
g19
g20
((lp333
(I7
I3
tp334
a(I4
I7
tp335
a(I2
I6
tp336
a(I7
I10
tp337
a(I4
I8
tp338
a(I6
I9
tp339
ag330
a(I3
I9
tp340
a(I1
I6
tp341
a(I3
I7
tp342
a(I2
I5
tp343
a(I8
I5
tp344
a(I5
I8
tp345
a(I7
I9
tp346
a(I7
I1
tp347
a(I8
I10
tp348
a(I5
I0
tp349
a(I2
I3
tp350
a(I3
I5
tp351
a(I3
I4
tp352
a(I2
I4
tp353
atp354
Rp355
sg15
I10
sg31
g20
((lp356
(I8
I9
tp357
a(I5
I10
tp358
a(I6
I8
tp359
a(I7
I6
tp360
a(I3
I8
tp361
a(I0
I10
tp362
a(I9
I4
tp363
a(I0
I9
tp364
a(I5
I3
tp365
atp366
Rp367
sg13
((I3
I6
tp368
(I0
I8
tp369
(I2
I1
tp370
tp371
sg14
I11
sbs(iproblems
RoomID
p372
(dp373
g10
I5
sg11
(I5
I7
tp374
sg13
I4
sg14
I9
sg15
I12
sg16
I659184109953178577
sb(imulti_robot_problem
MultiRobotState
p375
(dp376
g19
g20
((lp377
(I7
I3
tp378
a(I4
I7
tp379
a(I8
I2
tp380
a(I6
I6
tp381
a(I4
I5
tp382
a(I7
I7
tp383
a(I11
I0
tp384
a(I7
I5
tp385
a(I9
I4
tp386
a(I2
I5
tp387
a(I0
I8
tp388
a(I10
I3
tp389
a(I7
I2
tp390
a(I4
I6
tp391
a(I6
I4
tp392
a(I4
I3
tp393
a(I3
I3
tp394
a(I6
I1
tp395
ag374
a(I6
I5
tp396
a(I3
I6
tp397
a(I8
I6
tp398
a(I3
I4
tp399
atp400
Rp401
sg15
I12
sg31
g20
((lp402
(I10
I8
tp403
a(I4
I1
tp404
a(I0
I2
tp405
a(I1
I6
tp406
a(I10
I4
tp407
atp408
Rp409
sg13
((I10
I0
tp410
(I7
I0
tp411
(I2
I6
tp412
(I8
I3
tp413
tp414
sg14
I9
sbssg167
S'mild_roomset'
p415
sbsg167
g169
sg170
(dp416
g192
((lp417
F40.760000000000218
tp418
sg236
((lp419
(F0.7999999999992724
I6
tp420
aF40.109999999998763
tp421
sg281
((lp422
F40.069999999999709
tp423
sg328
((lp424
(F0.91000000000167347
I32
tp425
aF40.080000000001746
tp426
sg372
((lp427
(F4.5499999999992724
I18
tp428
aF40.219999999999345
tp429
ssba(imeasure_core
ProblemSetSolution
p430
(dp431
g3
(imeasure_core
RoomSet
p432
(dp433
g6
(dp434
(iproblems
RoomID
p435
(dp436
g10
I13
sg11
(I3
I4
tp437
sg13
I6
sg14
I10
sg15
I12
sg16
I1689441204489037471
sb(imulti_robot_problem
MultiRobotState
p438
(dp439
g19
g20
((lp440
(I7
I3
tp441
a(I1
I3
tp442
a(I8
I7
tp443
a(I10
I6
tp444
a(I7
I7
tp445
a(I6
I2
tp446
a(I1
I6
tp447
a(I9
I4
tp448
a(I4
I2
tp449
a(I5
I1
tp450
a(I10
I3
tp451
a(I2
I7
tp452
a(I9
I3
tp453
a(I9
I5
tp454
a(I0
I5
tp455
a(I11
I5
tp456
a(I8
I5
tp457
a(I5
I2
tp458
a(I0
I2
tp459
a(I3
I8
tp460
a(I4
I3
tp461
a(I0
I4
tp462
ag437
a(I8
I6
tp463
a(I4
I1
tp464
a(I1
I1
tp465
a(I8
I4
tp466
atp467
Rp468
sg15
I12
sg31
g20
((lp469
(I8
I9
tp470
a(I9
I0
tp471
a(I0
I0
tp472
a(I10
I4
tp473
a(I4
I8
tp474
a(I8
I1
tp475
a(I11
I2
tp476
a(I5
I4
tp477
a(I7
I4
tp478
a(I11
I8
tp479
a(I2
I6
tp480
a(I2
I3
tp481
a(I1
I5
tp482
atp483
Rp484
sg13
((I8
I0
tp485
(I7
I6
tp486
(I8
I8
tp487
(I7
I0
tp488
(I2
I4
tp489
(I9
I9
tp490
tp491
sg14
I10
sbs(iproblems
RoomID
p492
(dp493
g10
I15
sg11
(I10
I7
tp494
sg13
I6
sg14
I11
sg15
I13
sg16
I6660334802794327005
sb(imulti_robot_problem
MultiRobotState
p495
(dp496
g19
g20
((lp497
(I4
I7
tp498
a(I11
I7
tp499
a(I5
I6
tp500
a(I2
I8
tp501
a(I9
I9
tp502
a(I9
I10
tp503
a(I10
I8
tp504
a(I9
I0
tp505
ag494
a(I5
I7
tp506
a(I8
I10
tp507
a(I3
I8
tp508
a(I1
I5
tp509
a(I1
I8
tp510
a(I1
I10
tp511
a(I10
I0
tp512
a(I2
I4
tp513
atp514
Rp515
sg15
I13
sg31
g20
((lp516
(I2
I7
tp517
a(I12
I2
tp518
a(I6
I9
tp519
a(I6
I10
tp520
a(I12
I1
tp521
a(I2
I9
tp522
a(I12
I0
tp523
a(I12
I9
tp524
a(I11
I2
tp525
a(I10
I6
tp526
a(I1
I7
tp527
a(I12
I5
tp528
a(I6
I3
tp529
a(I10
I3
tp530
a(I12
I8
tp531
atp532
Rp533
sg13
((I9
I5
tp534
(I5
I10
tp535
(I5
I3
tp536
(I5
I1
tp537
(I9
I3
tp538
(I7
I8
tp539
tp540
sg14
I11
sbs(iproblems
RoomID
p541
(dp542
g10
I11
sg11
(I6
I1
tp543
sg13
I7
sg14
I13
sg15
I10
sg16
I3914746131789064238
sb(imulti_robot_problem
MultiRobotState
p544
(dp545
g19
g20
((lp546
(I0
I0
tp547
a(I7
I0
tp548
a(I9
I1
tp549
a(I2
I9
tp550
a(I7
I1
tp551
a(I9
I2
tp552
ag543
a(I6
I3
tp553
a(I8
I1
tp554
a(I7
I2
tp555
a(I5
I1
tp556
a(I7
I8
tp557
a(I6
I5
tp558
a(I5
I5
tp559
atp560
Rp561
sg15
I10
sg31
g20
((lp562
(I4
I7
tp563
a(I3
I3
tp564
a(I4
I5
tp565
a(I4
I4
tp566
a(I1
I4
tp567
a(I0
I11
tp568
a(I0
I5
tp569
a(I0
I10
tp570
a(I8
I7
tp571
a(I9
I5
tp572
a(I5
I3
tp573
atp574
Rp575
sg13
((I1
I11
tp576
(I8
I4
tp577
(I2
I12
tp578
(I1
I9
tp579
(I2
I11
tp580
(I5
I4
tp581
(I5
I0
tp582
tp583
sg14
I13
sbs(iproblems
RoomID
p584
(dp585
g10
I11
sg11
(I7
I6
tp586
sg13
I7
sg14
I13
sg15
I12
sg16
I3119042104763040036
sb(imulti_robot_problem
MultiRobotState
p587
(dp588
g19
g20
((lp589
(I5
I4
tp590
a(I4
I5
tp591
a(I9
I8
tp592
a(I10
I6
tp593
a(I9
I0
tp594
a(I6
I0
tp595
a(I8
I9
tp596
a(I2
I12
tp597
a(I9
I6
tp598
a(I10
I5
tp599
a(I5
I10
tp600
a(I10
I7
tp601
ag586
a(I9
I9
tp602
a(I8
I6
tp603
a(I11
I6
tp604
a(I9
I7
tp605
atp606
Rp607
sg15
I12
sg31
g20
((lp608
(I1
I2
tp609
a(I4
I4
tp610
a(I5
I11
tp611
a(I5
I6
tp612
a(I3
I4
tp613
a(I8
I0
tp614
a(I8
I10
tp615
a(I0
I11
tp616
a(I2
I3
tp617
a(I7
I8
tp618
a(I4
I0
tp619
atp620
Rp621
sg13
((I7
I12
tp622
(I8
I2
tp623
(I4
I6
tp624
(I3
I9
tp625
(I9
I11
tp626
(I11
I9
tp627
(I9
I3
tp628
tp629
sg14
I13
sbs(iproblems
RoomID
p630
(dp631
g10
I12
sg11
(I8
I7
tp632
sg13
I7
sg14
I12
sg15
I12
sg16
I4640892725076559864
sb(imulti_robot_problem
MultiRobotState
p633
(dp634
g19
g20
((lp635
(I5
I9
tp636
a(I6
I9
tp637
a(I4
I8
tp638
a(I5
I6
tp639
a(I2
I8
tp640
a(I6
I0
tp641
a(I2
I10
tp642
a(I0
I9
tp643
a(I6
I2
tp644
ag632
a(I3
I7
tp645
a(I5
I1
tp646
a(I1
I0
tp647
a(I8
I5
tp648
a(I7
I9
tp649
a(I7
I4
tp650
a(I7
I0
tp651
a(I6
I8
tp652
a(I2
I9
tp653
a(I0
I6
tp654
a(I7
I6
tp655
a(I5
I7
tp656
a(I8
I10
tp657
a(I0
I2
tp658
a(I6
I3
tp659
a(I2
I0
tp660
a(I1
I8
tp661
a(I4
I5
tp662
a(I5
I2
tp663
a(I1
I1
tp664
a(I9
I7
tp665
atp666
Rp667
sg15
I12
sg31
g20
((lp668
(I2
I7
tp669
a(I6
I4
tp670
a(I11
I10
tp671
a(I4
I6
tp672
a(I11
I8
tp673
a(I11
I2
tp674
a(I9
I3
tp675
a(I3
I2
tp676
a(I8
I8
tp677
a(I0
I5
tp678
a(I10
I3
tp679
a(I5
I3
tp680
atp681
Rp682
sg13
((I8
I6
tp683
(I11
I5
tp684
(I10
I8
tp685
(I9
I0
tp686
(I9
I4
tp687
(I9
I2
tp688
(I4
I11
tp689
tp690
sg14
I12
sbssg167
S'heavy_roomset'
p691
sbsg167
g169
sg170
(dp692
g435
((lp693
F41.010000000000218
tp694
sg492
((lp695
(F37.559999999999491
I11
tp696
aF44.420000000000073
tp697
sg541
((lp698
F43.769999999998618
tp699
sg584
((lp700
F68.180000000000291
tp701
sg630
((lp702
F41.1200000000008
tp703
ssba(imeasure_core
ProblemSetSolution
p704
(dp705
g3
g4
sg167
S"AnytimeBeam-w20-gf(1.5, 'exp')_with_PowerHeuristic2"
p706
sg170
(dp707
g8
((lp708
(F0.3500000000003638
I8
tp709
aF40.260000000000218
tp710
sg48
((lp711
(F0.51000000000021828
I23
tp712
aF40.059999999999491
tp713
sg78
((lp714
(F6.1000000000003638
I6
tp715
aF40.049999999999272
tp716
sg110
((lp717
(F1.7900000000008731
I11
tp718
aF40.340000000000146
tp719
sg137
((lp720
(F0.63000000000101863
I7
tp721
aF40.190000000000509
tp722
ssba(imeasure_core
ProblemSetSolution
p723
(dp724
g3
g189
sg167
g706
sg170
(dp725
g192
((lp726
F40.299999999999272
tp727
sg236
((lp728
(F0.79000000000087311
I6
tp729
aF40.159999999999854
tp730
sg281
((lp731
F40.140000000001237
tp732
sg328
((lp733
(F0.8999999999996362
I32
tp734
aF40.069999999999709
tp735
sg372
((lp736
(F4.5399999999990541
I18
tp737
aF40.069999999999709
tp738
ssba(imeasure_core
ProblemSetSolution
p739
(dp740
g3
g432
sg167
g706
sg170
(dp741
g435
((lp742
F40.190000000000509
tp743
sg492
((lp744
(F37.579999999999927
I11
tp745
aF44.430000000000291
tp746
sg541
((lp747
F43.709999999999127
tp748
sg584
((lp749
F67.880000000001019
tp750
sg630
((lp751
F41.1299999999992
tp752
ssba(imeasure_core
ProblemSetSolution
p753
(dp754
g3
g4
sg167
S"AnytimeBeam-w20-gf(1.7, 'exp')_with_PowerHeuristic2"
p755
sg170
(dp756
g8
((lp757
(F0.3500000000003638
I8
tp758
aF40.309999999999491
tp759
sg48
((lp760
(F0.51000000000021828
I23
tp761
aF40.050000000001091
tp762
sg78
((lp763
(F6.0899999999983265
I6
tp764
aF40.299999999999272
tp765
sg110
((lp766
(F1.8099999999994907
I11
tp767
aF40.489999999999782
tp768
sg137
((lp769
(F0.63000000000101863
I7
tp770
aF40.090000000000146
tp771
ssba(imeasure_core
ProblemSetSolution
p772
(dp773
g3
g189
sg167
g755
sg170
(dp774
g192
((lp775
F40.5
tp776
sg236
((lp777
(F0.7999999999992724
I6
tp778
aF40.110000000000582
tp779
sg281
((lp780
F40.069999999999709
tp781
sg328
((lp782
(F0.8999999999996362
I32
tp783
aF40.029999999998836
tp784
sg372
((lp785
(F4.5400000000008731
I18
tp786
aF40.100000000000364
tp787
ssba(imeasure_core
ProblemSetSolution
p788
(dp789
g3
g432
sg167
g755
sg170
(dp790
g435
((lp791
F40.989999999999782
tp792
sg492
((lp793
(F37.630000000001019
I11
tp794
aF44.470000000001164
tp795
sg541
((lp796
F43.769999999998618
tp797
sg584
((lp798
F67.720000000001164
tp799
sg630
((lp800
F41.199999999998909
tp801
ssba(imeasure_core
ProblemSetSolution
p802
(dp803
g3
g4
sg167
S"AnytimeBeam-w20-gf(1.8999999999999999, 'exp')_with_PowerHeuristic2"
p804
sg170
(dp805
g8
((lp806
(F0.34000000000014552
I8
tp807
aF40.079999999999927
tp808
sg48
((lp809
(F0.52000000000043656
I23
tp810
aF40.100000000000364
tp811
sg78
((lp812
(F6.1000000000003638
I6
tp813
aF40.3700000000008
tp814
sg110
((lp815
(F1.8099999999994907
I11
tp816
aF40.420000000000073
tp817
sg137
((lp818
(F0.62999999999919964
I7
tp819
aF40.049999999999272
tp820
ssba(imeasure_core
ProblemSetSolution
p821
(dp822
g3
g189
sg167
g804
sg170
(dp823
g192
((lp824
F40.3700000000008
tp825
sg236
((lp826
(F0.7999999999992724
I6
tp827
aF40.079999999999927
tp828
sg281
((lp829
F40.1299999999992
tp830
sg328
((lp831
(F0.8999999999996362
I32
tp832
aF40.1200000000008
tp833
sg372
((lp834
(F4.5
I18
tp835
aF40.259999999998399
tp836
ssba(imeasure_core
ProblemSetSolution
p837
(dp838
g3
g432
sg167
g804
sg170
(dp839
g435
((lp840
F40.820000000001528
tp841
sg492
((lp842
(F37.6299999999992
I11
tp843
aF44.479999999999563
tp844
sg541
((lp845
F43.859999999998763
tp846
sg584
((lp847
F68.040000000000873
tp848
sg630
((lp849
F41.0
tp850
ssba(imeasure_core
ProblemSetSolution
p851
(dp852
g3
g4
sg167
S"AnytimeBeam-w20-gf(1.3, 'exp')_with_LinearHeuristic"
p853
sg170
(dp854
g8
((lp855
(F33.489999999999782
I223
tp856
aF40.0
tp857
sg48
((lp858
(F6.0399999999990541
I49
tp859
aF40.010000000000218
tp860
sg78
((lp861
(F2.7600000000002183
I6
tp862
aF40.399999999999636
tp863
sg110
((lp864
F40.709999999999127
tp865
sg137
((lp866
F40.010000000000218
tp867
ssba(imeasure_core
ProblemSetSolution
p868
(dp869
g3
g189
sg167
g853
sg170
(dp870
g192
((lp871
F40.140000000001237
tp872
sg236
((lp873
(F2.3799999999991996
I12
tp874
a(F21.029999999998836
I11
tp875
aF40.3799999999992
tp876
sg281
((lp877
F40.010000000000218
tp878
sg328
((lp879
F40.159999999999854
tp880
sg372
((lp881
F40.309999999999491
tp882
ssba(imeasure_core
ProblemSetSolution
p883
(dp884
g3
g432
sg167
g853
sg170
(dp885
g435
((lp886
F41.149999999999636
tp887
sg492
((lp888
F42.159999999999854
tp889
sg541
((lp890
F56.550000000001091
tp891
sg584
((lp892
F45.520000000000437
tp893
sg630
((lp894
F41.5
tp895
ssba(imeasure_core
ProblemSetSolution
p896
(dp897
g3
g4
sg167
S"AnytimeBeam-w20-gf(1.5, 'exp')_with_LinearHeuristic"
p898
sg170
(dp899
g8
((lp900
(F33.299999999999272
I223
tp901
aF40.0
tp902
sg48
((lp903
(F7.9399999999986903
I49
tp904
aF40.049999999999272
tp905
sg78
((lp906
(F3.2800000000006548
I6
tp907
aF40.569999999999709
tp908
sg110
((lp909
F40.25
tp910
sg137
((lp911
F40.020000000000437
tp912
ssba(imeasure_core
ProblemSetSolution
p913
(dp914
g3
g189
sg167
g898
sg170
(dp915
g192
((lp916
F40.690000000000509
tp917
sg236
((lp918
(F2.3999999999996362
I12
tp919
a(F29.43999999999869
I11
tp920
aF40.309999999999491
tp921
sg281
((lp922
F40.119999999998981
tp923
sg328
((lp924
F40.270000000000437
tp925
sg372
((lp926
F40.930000000000291
tp927
ssba(imeasure_core
ProblemSetSolution
p928
(dp929
g3
g432
sg167
g898
sg170
(dp930
g435
((lp931
F43.579999999999927
tp932
sg492
((lp933
F43.6200000000008
tp934
sg541
((lp935
F65.909999999999854
tp936
sg584
((lp937
F49.549999999999272
tp938
sg630
((lp939
F41.5
tp940
ssba(imeasure_core
ProblemSetSolution
p941
(dp942
g3
g4
sg167
S"AnytimeBeam-w20-gf(1.7, 'exp')_with_LinearHeuristic"
p943
sg170
(dp944
g8
((lp945
(F33.530000000000655
I223
tp946
aF40.059999999999491
tp947
sg48
((lp948
(F14.229999999999563
I49
tp949
aF40.050000000001091
tp950
sg78
((lp951
(F3.3599999999987631
I6
tp952
aF41.159999999999854
tp953
sg110
((lp954
F40.449999999998909
tp955
sg137
((lp956
F40.020000000000437
tp957
ssba(imeasure_core
ProblemSetSolution
p958
(dp959
g3
g189
sg167
g943
sg170
(dp960
g192
((lp961
F41.340000000000146
tp962
sg236
((lp963
(F2.4200000000000728
I12
tp964
a(F29.559999999999491
I11
tp965
aF40.039999999999054
tp966
sg281
((lp967
F40.070000000001528
tp968
sg328
((lp969
F40.1299999999992
tp970
sg372
((lp971
F40.860000000000582
tp972
ssba(imeasure_core
ProblemSetSolution
p973
(dp974
g3
g432
sg167
g943
sg170
(dp975
g435
((lp976
F43.699999999998909
tp977
sg492
((lp978
F43.710000000000946
tp979
sg541
((lp980
F65.930000000000291
tp981
sg584
((lp982
F49.449999999998909
tp983
sg630
((lp984
F41.300000000001091
tp985
ssba(imeasure_core
ProblemSetSolution
p986
(dp987
g3
g4
sg167
S"AnytimeBeam-w20-gf(1.8999999999999999, 'exp')_with_LinearHeuristic"
p988
sg170
(dp989
g8
((lp990
(F33.269999999998618
I223
tp991
aF40.090000000000146
tp992
sg48
((lp993
(F22.639999999999418
I49
tp994
aF40.019999999998618
tp995
sg78
((lp996
(F3.9899999999997817
I6
tp997
aF41.890000000001237
tp998
sg110
((lp999
F40.639999999999418
tp1000
sg137
((lp1001
F40.479999999999563
tp1002
ssba(imeasure_core
ProblemSetSolution
p1003
(dp1004
g3
g189
sg167
g988
sg170
(dp1005
g192
((lp1006
F40.090000000000146
tp1007
sg236
((lp1008
(F2.4200000000000728
I12
tp1009
a(F29.530000000000655
I11
tp1010
aF40.030000000000655
tp1011
sg281
((lp1012
F40.149999999999636
tp1013
sg328
((lp1014
F40.1200000000008
tp1015
sg372
((lp1016
F40.779999999998836
tp1017
ssba(imeasure_core
ProblemSetSolution
p1018
(dp1019
g3
g432
sg167
g988
sg170
(dp1020
g435
((lp1021
F43.729999999999563
tp1022
sg492
((lp1023
F43.770000000000437
tp1024
sg541
((lp1025
F65.780000000000655
tp1026
sg584
((lp1027
F49.659999999999854
tp1028
sg630
((lp1029
F41.389999999999418
tp1030
ssba.