(lp0
(imeasure_core
ProblemSetSolution
p1
(dp2
S'roomset'
p3
(imeasure_core
RoomSet
p4
(dp5
S'rooms'
p6
(dp7
(iproblems
RoomID
p8
(dp9
S'dusts'
p10
I6
sS'obstacles'
p11
(I8
I4
tp12
sS'robots'
p13
I4
sS'height'
p14
I10
sS'width'
p15
I9
sS'seed'
p16
I3119042104763040036
sb(imulti_robot_problem
MultiRobotState
p17
(dp18
S'obstacle_locations'
p19
c__builtin__
frozenset
p20
((lp21
(I1
I2
tp22
a(I6
I7
tp23
a(I4
I8
tp24
a(I7
I6
tp25
a(I8
I5
tp26
ag12
atp27
Rp28
sg15
I9
sS'dirt_locations'
p29
g20
((lp30
(I6
I8
tp31
a(I8
I7
tp32
a(I6
I6
tp33
a(I3
I0
tp34
a(I7
I2
tp35
a(I6
I5
tp36
atp37
Rp38
sg13
((I5
I9
tp39
(I6
I1
tp40
(I3
I4
tp41
(I2
I7
tp42
tp43
sg14
I10
sbs(iproblems
RoomID
p44
(dp45
g10
I8
sg11
(I0
I4
tp46
sg13
I4
sg14
I7
sg15
I9
sg16
I1689441204489037471
sb(imulti_robot_problem
MultiRobotState
p47
(dp48
g19
g20
((lp49
(I0
I1
tp50
a(I1
I2
tp51
a(I3
I2
tp52
a(I8
I1
tp53
a(I4
I3
tp54
ag46
a(I0
I3
tp55
a(I4
I0
tp56
atp57
Rp58
sg15
I9
sg29
g20
((lp59
(I0
I0
tp60
a(I7
I0
tp61
a(I7
I6
tp62
a(I1
I4
tp63
a(I6
I2
tp64
a(I2
I3
tp65
a(I5
I1
tp66
a(I3
I5
tp67
atp68
Rp69
sg13
((I6
I0
tp70
(I5
I4
tp71
(I6
I6
tp72
(I5
I0
tp73
tp74
sg14
I7
sbs(iproblems
RoomID
p75
(dp76
g10
I10
sg11
(I4
I5
tp77
sg13
I3
sg14
I8
sg15
I10
sg16
I6660334802794327005
sb(imulti_robot_problem
MultiRobotState
p78
(dp79
g19
g20
((lp80
(I9
I0
tp81
a(I2
I6
tp82
a(I1
I6
tp83
a(I3
I6
tp84
ag77
a(I8
I4
tp85
atp86
Rp87
sg15
I10
sg29
g20
((lp88
(I9
I1
tp89
a(I5
I6
tp90
a(I9
I6
tp91
a(I1
I5
tp92
a(I7
I5
tp93
a(I9
I4
tp94
a(I1
I7
tp95
a(I4
I1
tp96
a(I7
I2
tp97
a(I8
I2
tp98
atp99
Rp100
sg13
((I7
I3
tp101
(I4
I7
tp102
(I4
I2
tp103
tp104
sg14
I8
sbs(iproblems
RoomID
p105
(dp106
g10
I7
sg11
(I2
I5
tp107
sg13
I5
sg14
I9
sg15
I9
sg16
I4640892725076559864
sb(imulti_robot_problem
MultiRobotState
p108
(dp109
g19
g20
((lp110
(I2
I6
tp111
a(I6
I7
tp112
a(I0
I6
tp113
a(I3
I1
tp114
a(I1
I5
tp115
a(I1
I6
tp116
a(I0
I4
tp117
ag107
a(I3
I4
tp118
atp119
Rp120
sg15
I9
sg29
g20
((lp121
(I3
I8
tp122
a(I7
I3
tp123
a(I7
I1
tp124
a(I8
I1
tp125
a(I8
I6
tp126
a(I4
I2
tp127
a(I5
I3
tp128
atp129
Rp130
sg13
((I6
I5
tp131
(I8
I4
tp132
(I7
I6
tp133
(I6
I0
tp134
(I6
I3
tp135
tp136
sg14
I9
sbs(iproblems
RoomID
p137
(dp138
g10
I6
sg11
(I3
I0
tp139
sg13
I4
sg14
I10
sg15
I7
sg16
I3914746131789064238
sb(imulti_robot_problem
MultiRobotState
p140
(dp141
g19
g20
((lp142
g139
a(I6
I1
tp143
a(I2
I3
tp144
a(I5
I0
tp145
a(I2
I2
tp146
a(I0
I3
tp147
a(I0
I8
tp148
a(I4
I1
tp149
a(I3
I5
tp150
atp151
Rp152
sg15
I7
sg29
g20
((lp153
(I6
I5
tp154
a(I3
I3
tp155
a(I1
I7
tp156
a(I0
I4
tp157
a(I3
I4
tp158
a(I0
I7
tp159
atp160
Rp161
sg13
((I1
I8
tp162
(I5
I1
tp163
(I5
I3
tp164
(I1
I9
tp165
tp166
sg14
I10
sbssS'name'
p167
S'easy_roomset'
p168
sbsg167
S"AnytimeBeam-w5-gf(1.5, 'exp')_with_PowerHeuristic2"
p169
sS'solutions'
p170
(dp171
g44
((lp172
(F1.2299999999995634
I8
tp173
aF40.10999999999876
tp174
sg8
((lp175
(F0.3600000000005821
I11
tp176
aF40.02000000000044
tp177
sg137
((lp178
(F0.5999999999985448
I7
tp179
aF40.149999999999636
tp180
sg105
((lp181
(F5.8400000000001455
I6
tp182
aF40.25
tp183
sg75
((lp184
(F0.4900000000016007
I23
tp185
aF40.06000000000131
tp186
ssba(imeasure_core
ProblemSetSolution
p187
(dp188
g3
(imeasure_core
RoomSet
p189
(dp190
g6
(dp191
(iproblems
RoomID
p192
(dp193
g10
I9
sg11
(I9
I9
tp194
sg13
I3
sg14
I10
sg15
I10
sg16
I3273124617966689144
sb(imulti_robot_problem
MultiRobotState
p195
(dp196
g19
g20
((lp197
(I7
I3
tp198
a(I5
I4
tp199
a(I1
I3
tp200
a(I6
I4
tp201
a(I4
I5
tp202
a(I9
I8
tp203
a(I3
I2
tp204
a(I7
I5
tp205
a(I1
I6
tp206
a(I2
I5
tp207
a(I0
I8
tp208
a(I9
I6
tp209
a(I6
I5
tp210
a(I5
I3
tp211
a(I3
I3
tp212
a(I5
I5
tp213
a(I7
I6
tp214
ag194
a(I6
I3
tp215
a(I4
I3
tp216
a(I2
I3
tp217
a(I8
I6
tp218
a(I2
I4
tp219
a(I9
I7
tp220
atp221
Rp222
sg15
I10
sg29
g20
((lp223
(I7
I0
tp224
a(I3
I0
tp225
a(I6
I1
tp226
a(I3
I1
tp227
a(I5
I0
tp228
a(I2
I2
tp229
a(I3
I4
tp230
a(I1
I1
tp231
a(I8
I4
tp232
atp233
Rp234
sg13
((I0
I7
tp235
(I2
I1
tp236
(I6
I6
tp237
tp238
sg14
I10
sbs(iproblems
RoomID
p239
(dp240
g10
I5
sg11
(I5
I7
tp241
sg13
I4
sg14
I9
sg15
I12
sg16
I659184109953178577
sb(imulti_robot_problem
MultiRobotState
p242
(dp243
g19
g20
((lp244
(I7
I3
tp245
a(I4
I7
tp246
a(I8
I2
tp247
a(I6
I6
tp248
a(I4
I5
tp249
a(I7
I7
tp250
a(I11
I0
tp251
a(I7
I5
tp252
a(I9
I4
tp253
a(I2
I5
tp254
a(I0
I8
tp255
a(I10
I3
tp256
a(I7
I2
tp257
a(I4
I6
tp258
a(I6
I4
tp259
a(I4
I3
tp260
a(I3
I3
tp261
a(I6
I1
tp262
ag241
a(I6
I5
tp263
a(I3
I6
tp264
a(I8
I6
tp265
a(I3
I4
tp266
atp267
Rp268
sg15
I12
sg29
g20
((lp269
(I10
I8
tp270
a(I4
I1
tp271
a(I0
I2
tp272
a(I1
I6
tp273
a(I10
I4
tp274
atp275
Rp276
sg13
((I10
I0
tp277
(I7
I0
tp278
(I2
I6
tp279
(I8
I3
tp280
tp281
sg14
I9
sbs(iproblems
RoomID
p282
(dp283
g10
I6
sg11
(I5
I5
tp284
sg13
I4
sg14
I12
sg15
I11
sg16
I3119042104763040036
sb(imulti_robot_problem
MultiRobotState
p285
(dp286
g19
g20
((lp287
(I4
I6
tp288
a(I10
I4
tp289
a(I3
I0
tp290
a(I9
I8
tp291
a(I10
I6
tp292
a(I2
I1
tp293
a(I8
I9
tp294
a(I2
I3
tp295
a(I0
I10
tp296
a(I9
I5
tp297
a(I10
I3
tp298
a(I7
I9
tp299
ag284
a(I10
I7
tp300
a(I7
I8
tp301
a(I4
I4
tp302
a(I9
I2
tp303
a(I2
I4
tp304
a(I4
I5
tp305
a(I2
I2
tp306
a(I3
I3
tp307
a(I3
I4
tp308
a(I1
I1
tp309
atp310
Rp311
sg15
I11
sg29
g20
((lp312
(I8
I3
tp313
a(I8
I8
tp314
a(I5
I10
tp315
a(I9
I4
tp316
a(I8
I6
tp317
a(I10
I9
tp318
atp319
Rp320
sg13
((I6
I11
tp321
(I7
I2
tp322
(I2
I8
tp323
(I8
I10
tp324
tp325
sg14
I12
sbs(iproblems
RoomID
p326
(dp327
g10
I9
sg11
(I9
I10
tp328
sg13
I3
sg14
I11
sg15
I10
sg16
I4253868527325451640
sb(imulti_robot_problem
MultiRobotState
p329
(dp330
g19
g20
((lp331
(I7
I3
tp332
a(I4
I7
tp333
a(I2
I6
tp334
a(I7
I10
tp335
a(I4
I8
tp336
a(I6
I9
tp337
ag328
a(I3
I9
tp338
a(I1
I6
tp339
a(I3
I7
tp340
a(I2
I5
tp341
a(I8
I5
tp342
a(I5
I8
tp343
a(I7
I9
tp344
a(I7
I1
tp345
a(I8
I10
tp346
a(I5
I0
tp347
a(I2
I3
tp348
a(I3
I5
tp349
a(I3
I4
tp350
a(I2
I4
tp351
atp352
Rp353
sg15
I10
sg29
g20
((lp354
(I8
I9
tp355
a(I5
I10
tp356
a(I6
I8
tp357
a(I7
I6
tp358
a(I3
I8
tp359
a(I0
I10
tp360
a(I9
I4
tp361
a(I0
I9
tp362
a(I5
I3
tp363
atp364
Rp365
sg13
((I3
I6
tp366
(I0
I8
tp367
(I2
I1
tp368
tp369
sg14
I11
sbs(iproblems
RoomID
p370
(dp371
g10
I6
sg11
(I4
I8
tp372
sg13
I4
sg14
I12
sg15
I9
sg16
I3914746131789064238
sb(imulti_robot_problem
MultiRobotState
p373
(dp374
g19
g20
((lp375
(I4
I6
tp376
a(I6
I6
tp377
a(I4
I5
tp378
a(I5
I7
tp379
a(I0
I5
tp380
a(I0
I10
tp381
a(I8
I7
tp382
a(I7
I0
tp383
a(I0
I3
tp384
a(I8
I5
tp385
a(I4
I0
tp386
a(I2
I3
tp387
a(I6
I7
tp388
a(I3
I3
tp389
a(I8
I1
tp390
a(I7
I6
tp391
a(I3
I1
tp392
ag372
a(I5
I0
tp393
a(I2
I2
tp394
a(I0
I9
tp395
a(I8
I6
tp396
a(I5
I3
tp397
a(I6
I1
tp398
atp399
Rp400
sg15
I9
sg29
g20
((lp401
(I1
I8
tp402
a(I1
I9
tp403
a(I4
I3
tp404
a(I4
I4
tp405
a(I2
I11
tp406
a(I2
I10
tp407
atp408
Rp409
sg13
((I1
I10
tp410
(I6
I2
tp411
(I7
I3
tp412
(I1
I11
tp413
tp414
sg14
I12
sbssg167
S'mild_roomset'
p415
sbsg167
g169
sg170
(dp416
g370
((lp417
(F0.7700000000004366
I6
tp418
aF40.04999999999927
tp419
sg326
((lp420
(F0.8700000000008004
I32
tp421
aF40.100000000000364
tp422
sg239
((lp423
(F4.309999999999491
I18
tp424
aF40.280000000000655
tp425
sg282
((lp426
F40.68999999999869
tp427
sg192
((lp428
F40.07999999999993
tp429
ssba(imeasure_core
ProblemSetSolution
p430
(dp431
g3
(imeasure_core
RoomSet
p432
(dp433
g6
(dp434
(iproblems
RoomID
p435
(dp436
g10
I15
sg11
(I10
I7
tp437
sg13
I6
sg14
I11
sg15
I13
sg16
I6660334802794327005
sb(imulti_robot_problem
MultiRobotState
p438
(dp439
g19
g20
((lp440
(I4
I7
tp441
a(I11
I7
tp442
a(I5
I6
tp443
a(I2
I8
tp444
a(I9
I9
tp445
a(I9
I10
tp446
a(I10
I8
tp447
a(I9
I0
tp448
ag437
a(I5
I7
tp449
a(I8
I10
tp450
a(I3
I8
tp451
a(I1
I5
tp452
a(I1
I8
tp453
a(I1
I10
tp454
a(I10
I0
tp455
a(I2
I4
tp456
atp457
Rp458
sg15
I13
sg29
g20
((lp459
(I2
I7
tp460
a(I12
I2
tp461
a(I6
I9
tp462
a(I6
I10
tp463
a(I12
I1
tp464
a(I2
I9
tp465
a(I12
I0
tp466
a(I12
I9
tp467
a(I11
I2
tp468
a(I10
I6
tp469
a(I1
I7
tp470
a(I12
I5
tp471
a(I6
I3
tp472
a(I10
I3
tp473
a(I12
I8
tp474
atp475
Rp476
sg13
((I9
I5
tp477
(I5
I10
tp478
(I5
I3
tp479
(I5
I1
tp480
(I9
I3
tp481
(I7
I8
tp482
tp483
sg14
I11
sbs(iproblems
RoomID
p484
(dp485
g10
I11
sg11
(I7
I6
tp486
sg13
I7
sg14
I13
sg15
I12
sg16
I3119042104763040036
sb(imulti_robot_problem
MultiRobotState
p487
(dp488
g19
g20
((lp489
(I5
I4
tp490
a(I4
I5
tp491
a(I9
I8
tp492
a(I10
I6
tp493
a(I9
I0
tp494
a(I6
I0
tp495
a(I8
I9
tp496
a(I2
I12
tp497
a(I9
I6
tp498
a(I10
I5
tp499
a(I5
I10
tp500
a(I10
I7
tp501
ag486
a(I9
I9
tp502
a(I8
I6
tp503
a(I11
I6
tp504
a(I9
I7
tp505
atp506
Rp507
sg15
I12
sg29
g20
((lp508
(I1
I2
tp509
a(I4
I4
tp510
a(I5
I11
tp511
a(I5
I6
tp512
a(I3
I4
tp513
a(I8
I0
tp514
a(I8
I10
tp515
a(I0
I11
tp516
a(I2
I3
tp517
a(I7
I8
tp518
a(I4
I0
tp519
atp520
Rp521
sg13
((I7
I12
tp522
(I8
I2
tp523
(I4
I6
tp524
(I3
I9
tp525
(I9
I11
tp526
(I11
I9
tp527
(I9
I3
tp528
tp529
sg14
I13
sbs(iproblems
RoomID
p530
(dp531
g10
I13
sg11
(I3
I4
tp532
sg13
I6
sg14
I10
sg15
I12
sg16
I1689441204489037471
sb(imulti_robot_problem
MultiRobotState
p533
(dp534
g19
g20
((lp535
(I7
I3
tp536
a(I1
I3
tp537
a(I8
I7
tp538
a(I10
I6
tp539
a(I7
I7
tp540
a(I6
I2
tp541
a(I1
I6
tp542
a(I9
I4
tp543
a(I4
I2
tp544
a(I5
I1
tp545
a(I10
I3
tp546
a(I2
I7
tp547
a(I9
I3
tp548
a(I9
I5
tp549
a(I0
I5
tp550
a(I11
I5
tp551
a(I8
I5
tp552
a(I5
I2
tp553
a(I0
I2
tp554
a(I3
I8
tp555
a(I4
I3
tp556
a(I0
I4
tp557
ag532
a(I8
I6
tp558
a(I4
I1
tp559
a(I1
I1
tp560
a(I8
I4
tp561
atp562
Rp563
sg15
I12
sg29
g20
((lp564
(I8
I9
tp565
a(I9
I0
tp566
a(I0
I0
tp567
a(I10
I4
tp568
a(I4
I8
tp569
a(I8
I1
tp570
a(I11
I2
tp571
a(I5
I4
tp572
a(I7
I4
tp573
a(I11
I8
tp574
a(I2
I6
tp575
a(I2
I3
tp576
a(I1
I5
tp577
atp578
Rp579
sg13
((I8
I0
tp580
(I7
I6
tp581
(I8
I8
tp582
(I7
I0
tp583
(I2
I4
tp584
(I9
I9
tp585
tp586
sg14
I10
sbs(iproblems
RoomID
p587
(dp588
g10
I12
sg11
(I8
I7
tp589
sg13
I7
sg14
I12
sg15
I12
sg16
I4640892725076559864
sb(imulti_robot_problem
MultiRobotState
p590
(dp591
g19
g20
((lp592
(I5
I9
tp593
a(I6
I9
tp594
a(I4
I8
tp595
a(I5
I6
tp596
a(I2
I8
tp597
a(I6
I0
tp598
a(I2
I10
tp599
a(I0
I9
tp600
a(I6
I2
tp601
ag589
a(I3
I7
tp602
a(I5
I1
tp603
a(I1
I0
tp604
a(I8
I5
tp605
a(I7
I9
tp606
a(I7
I4
tp607
a(I7
I0
tp608
a(I6
I8
tp609
a(I2
I9
tp610
a(I0
I6
tp611
a(I7
I6
tp612
a(I5
I7
tp613
a(I8
I10
tp614
a(I0
I2
tp615
a(I6
I3
tp616
a(I2
I0
tp617
a(I1
I8
tp618
a(I4
I5
tp619
a(I5
I2
tp620
a(I1
I1
tp621
a(I9
I7
tp622
atp623
Rp624
sg15
I12
sg29
g20
((lp625
(I2
I7
tp626
a(I6
I4
tp627
a(I11
I10
tp628
a(I4
I6
tp629
a(I11
I8
tp630
a(I11
I2
tp631
a(I9
I3
tp632
a(I3
I2
tp633
a(I8
I8
tp634
a(I0
I5
tp635
a(I10
I3
tp636
a(I5
I3
tp637
atp638
Rp639
sg13
((I8
I6
tp640
(I11
I5
tp641
(I10
I8
tp642
(I9
I0
tp643
(I9
I4
tp644
(I9
I2
tp645
(I4
I11
tp646
tp647
sg14
I12
sbs(iproblems
RoomID
p648
(dp649
g10
I11
sg11
(I6
I1
tp650
sg13
I7
sg14
I13
sg15
I10
sg16
I3914746131789064238
sb(imulti_robot_problem
MultiRobotState
p651
(dp652
g19
g20
((lp653
(I0
I0
tp654
a(I7
I0
tp655
a(I9
I1
tp656
a(I2
I9
tp657
a(I7
I1
tp658
a(I9
I2
tp659
ag650
a(I6
I3
tp660
a(I8
I1
tp661
a(I7
I2
tp662
a(I5
I1
tp663
a(I7
I8
tp664
a(I6
I5
tp665
a(I5
I5
tp666
atp667
Rp668
sg15
I10
sg29
g20
((lp669
(I4
I7
tp670
a(I3
I3
tp671
a(I4
I5
tp672
a(I4
I4
tp673
a(I1
I4
tp674
a(I0
I11
tp675
a(I0
I5
tp676
a(I0
I10
tp677
a(I8
I7
tp678
a(I9
I5
tp679
a(I5
I3
tp680
atp681
Rp682
sg13
((I1
I11
tp683
(I8
I4
tp684
(I2
I12
tp685
(I1
I9
tp686
(I2
I11
tp687
(I5
I4
tp688
(I5
I0
tp689
tp690
sg14
I13
sbssg167
S'heavy_roomset'
p691
sbsg167
g169
sg170
(dp692
g435
((lp693
(F36.92000000000007
I11
tp694
aF43.98999999999978
tp695
sg484
((lp696
F66.75
tp697
sg530
((lp698
F40.77000000000044
tp699
sg587
((lp700
F40.47999999999956
tp701
sg648
((lp702
F42.720000000001164
tp703
ssba(imeasure_core
ProblemSetSolution
p704
(dp705
g3
g4
sg167
S"AnytimeBeam-w15-gf(1.5, 'exp')_with_PowerHeuristic2"
p706
sg170
(dp707
g44
((lp708
(F1.2200000000011642
I8
tp709
aF40.23999999999978
tp710
sg8
((lp711
(F0.4399999999986903
I11
tp712
aF40.1299999999992
tp713
sg137
((lp714
(F0.5999999999985448
I7
tp715
aF40.17000000000007
tp716
sg105
((lp717
(F5.8799999999992
I6
tp718
aF40.20000000000073
tp719
sg75
((lp720
(F0.4899999999997817
I23
tp721
aF40.11000000000058
tp722
ssba(imeasure_core
ProblemSetSolution
p723
(dp724
g3
g189
sg167
g706
sg170
(dp725
g370
((lp726
(F0.7700000000004366
I6
tp727
aF40.2400000000016
tp728
sg326
((lp729
(F0.8600000000005821
I32
tp730
aF40.05999999999949
tp731
sg239
((lp732
(F4.350000000000364
I18
tp733
aF40.090000000000146
tp734
sg282
((lp735
F40.47999999999956
tp736
sg192
((lp737
F40.039999999999054
tp738
ssba(imeasure_core
ProblemSetSolution
p739
(dp740
g3
g432
sg167
g706
sg170
(dp741
g435
((lp742
(F36.970000000001164
I11
tp743
aF43.98000000000138
tp744
sg484
((lp745
F66.3799999999992
tp746
sg530
((lp747
F40.73999999999978
tp748
sg587
((lp749
F40.61000000000058
tp750
sg648
((lp751
F42.70000000000073
tp752
ssba(imeasure_core
ProblemSetSolution
p753
(dp754
g3
g4
sg167
S"AnytimeBeam-w25-gf(1.5, 'exp')_with_PowerHeuristic2"
p755
sg170
(dp756
g44
((lp757
(F1.2199999999993452
I8
tp758
aF40.38999999999942
tp759
sg8
((lp760
(F0.47999999999956344
I11
tp761
aF40.399999999999636
tp762
sg137
((lp763
(F0.5999999999985448
I7
tp764
aF40.19999999999891
tp765
sg105
((lp766
(F5.829999999999927
I6
tp767
aF40.07000000000153
tp768
sg75
((lp769
(F0.5
I23
tp770
aF40.05999999999949
tp771
ssba(imeasure_core
ProblemSetSolution
p772
(dp773
g3
g189
sg167
g755
sg170
(dp774
g370
((lp775
(F0.7700000000004366
I6
tp776
aF40.22999999999956
tp777
sg326
((lp778
(F0.8600000000005821
I32
tp779
aF40.090000000000146
tp780
sg239
((lp781
(F4.3400000000001455
I18
tp782
aF40.01000000000022
tp783
sg282
((lp784
F40.63999999999942
tp785
sg192
((lp786
F40.090000000000146
tp787
ssba(imeasure_core
ProblemSetSolution
p788
(dp789
g3
g432
sg167
g755
sg170
(dp790
g435
((lp791
(F36.82999999999993
I11
tp792
aF43.88000000000102
tp793
sg484
((lp794
F66.96999999999935
tp795
sg530
((lp796
F40.80999999999949
tp797
sg587
((lp798
F40.720000000001164
tp799
sg648
((lp800
F42.840000000000146
tp801
ssba(imeasure_core
ProblemSetSolution
p802
(dp803
g3
g4
sg167
S"AnytimeBeam-w35-gf(1.5, 'exp')_with_PowerHeuristic2"
p804
sg170
(dp805
g44
((lp806
(F1.2299999999995634
I8
tp807
aF40.090000000000146
tp808
sg8
((lp809
(F0.5399999999990541
I11
tp810
aF40.05999999999949
tp811
sg137
((lp812
(F0.5900000000001455
I7
tp813
aF40.280000000000655
tp814
sg105
((lp815
(F5.869999999998981
I6
tp816
aF40.2599999999984
tp817
sg75
((lp818
(F0.4899999999997817
I23
tp819
aF40.030000000000655
tp820
ssba(imeasure_core
ProblemSetSolution
p821
(dp822
g3
g189
sg167
g804
sg170
(dp823
g370
((lp824
(F0.7700000000004366
I6
tp825
aF40.220000000001164
tp826
sg326
((lp827
(F0.8600000000005821
I32
tp828
aF40.0
tp829
sg239
((lp830
(F4.360000000000582
I18
tp831
aF40.14000000000124
tp832
sg282
((lp833
F40.61999999999898
tp834
sg192
((lp835
F40.04999999999927
tp836
ssba(imeasure_core
ProblemSetSolution
p837
(dp838
g3
g432
sg167
g804
sg170
(dp839
g435
((lp840
(F37.039999999999054
I11
tp841
aF44.10999999999876
tp842
sg484
((lp843
F66.39000000000124
tp844
sg530
((lp845
F40.73999999999978
tp846
sg587
((lp847
F40.43999999999869
tp848
sg648
((lp849
F42.830000000001746
tp850
ssba(imeasure_core
ProblemSetSolution
p851
(dp852
g3
g4
sg167
S"AnytimeBeam-w45-gf(1.5, 'exp')_with_PowerHeuristic2"
p853
sg170
(dp854
g44
((lp855
(F1.2300000000013824
I8
tp856
aF40.32999999999993
tp857
sg8
((lp858
(F0.5900000000001455
I11
tp859
aF40.01000000000022
tp860
sg137
((lp861
(F0.5999999999985448
I7
tp862
aF40.159999999999854
tp863
sg105
((lp864
(F5.850000000000364
I6
tp865
aF40.19000000000051
tp866
sg75
((lp867
(F0.4899999999997817
I23
tp868
aF40.030000000000655
tp869
ssba(imeasure_core
ProblemSetSolution
p870
(dp871
g3
g189
sg167
g853
sg170
(dp872
g370
((lp873
(F0.7600000000002183
I6
tp874
aF40.090000000000146
tp875
sg326
((lp876
(F0.8700000000008004
I32
tp877
aF40.05000000000109
tp878
sg239
((lp879
(F4.3400000000001455
I18
tp880
aF40.30000000000109
tp881
sg282
((lp882
F40.45999999999913
tp883
sg192
((lp884
F40.10999999999876
tp885
ssba(imeasure_core
ProblemSetSolution
p886
(dp887
g3
g432
sg167
g853
sg170
(dp888
g435
((lp889
(F36.94999999999891
I11
tp890
aF44.01999999999862
tp891
sg484
((lp892
F66.65999999999985
tp893
sg530
((lp894
F40.7400000000016
tp895
sg587
((lp896
F40.69999999999891
tp897
sg648
((lp898
F42.850000000000364
tp899
ssba(imeasure_core
ProblemSetSolution
p900
(dp901
g3
g4
sg167
S"AnytimeBeam-w5-gf(1.5, 'exp')_with_LinearHeuristic"
p902
sg170
(dp903
g44
((lp904
(F37.19000000000051
I223
tp905
aF40.01000000000022
tp906
sg8
((lp907
(F33.789999999999054
I165
tp908
aF40.13999999999942
tp909
sg137
((lp910
F40.20999999999913
tp911
sg105
((lp912
(F3.3799999999991996
I6
tp913
aF40.100000000000364
tp914
sg75
((lp915
(F27.13000000000102
I49
tp916
aF40.02000000000044
tp917
ssba(imeasure_core
ProblemSetSolution
p918
(dp919
g3
g189
sg167
g902
sg170
(dp920
g370
((lp921
(F2.280000000000655
I12
tp922
a(F27.820000000001528
I11
tp923
aF40.14000000000124
tp924
sg326
((lp925
F40.22999999999956
tp926
sg239
((lp927
F40.789999999999054
tp928
sg282
((lp929
F40.100000000000364
tp930
sg192
((lp931
F40.100000000000364
tp932
ssba(imeasure_core
ProblemSetSolution
p933
(dp934
g3
g432
sg167
g902
sg170
(dp935
g435
((lp936
F41.399999999999636
tp937
sg484
((lp938
F47.030000000000655
tp939
sg530
((lp940
F41.13999999999942
tp941
sg587
((lp942
F44.090000000000146
tp943
sg648
((lp944
F62.030000000000655
tp945
ssba(imeasure_core
ProblemSetSolution
p946
(dp947
g3
g4
sg167
S"AnytimeBeam-w15-gf(1.5, 'exp')_with_LinearHeuristic"
p948
sg170
(dp949
g44
((lp950
(F38.11000000000058
I223
tp951
aF40.030000000002474
tp952
sg8
((lp953
(F15.609999999998763
I165
tp954
aF40.169999999998254
tp955
sg137
((lp956
F40.099999999998545
tp957
sg105
((lp958
(F3.209999999999127
I6
tp959
aF40.029999999998836
tp960
sg75
((lp961
F40.04999999999927
tp962
ssba(imeasure_core
ProblemSetSolution
p963
(dp964
g3
g189
sg167
g948
sg170
(dp965
g370
((lp966
(F2.279999999998836
I12
tp967
a(F27.970000000001164
I11
tp968
aF40.29999999999927
tp969
sg326
((lp970
F40.07999999999811
tp971
sg239
((lp972
F40.80999999999767
tp973
sg282
((lp974
F41.030000000002474
tp975
sg192
((lp976
F40.06000000000131
tp977
ssba(imeasure_core
ProblemSetSolution
p978
(dp979
g3
g432
sg167
g948
sg170
(dp980
g435
((lp981
F41.590000000000146
tp982
sg484
((lp983
F47.20000000000073
tp984
sg530
((lp985
F41.169999999998254
tp986
sg587
((lp987
F44.25
tp988
sg648
((lp989
F62.38000000000102
tp990
ssba(imeasure_core
ProblemSetSolution
p991
(dp992
g3
g4
sg167
S"AnytimeBeam-w25-gf(1.5, 'exp')_with_LinearHeuristic"
p993
sg170
(dp994
g44
((lp995
F40.030000000002474
tp996
sg8
((lp997
(F17.479999999999563
I165
tp998
aF40.0
tp999
sg137
((lp1000
F40.51000000000204
tp1001
sg105
((lp1002
(F3.3100000000013097
I6
tp1003
aF40.56999999999971
tp1004
sg75
((lp1005
F40.05999999999767
tp1006
ssba(imeasure_core
ProblemSetSolution
p1007
(dp1008
g3
g189
sg167
g993
sg170
(dp1009
g370
((lp1010
(F2.279999999998836
I12
tp1011
a(F27.919999999998254
I11
tp1012
aF40.23999999999796
tp1013
sg326
((lp1014
F40.030000000002474
tp1015
sg239
((lp1016
F40.29999999999927
tp1017
sg282
((lp1018
F41.48999999999796
tp1019
sg192
((lp1020
F40.01000000000204
tp1021
ssba(imeasure_core
ProblemSetSolution
p1022
(dp1023
g3
g432
sg167
g993
sg170
(dp1024
g435
((lp1025
F41.409999999999854
tp1026
sg484
((lp1027
F46.93000000000029
tp1028
sg530
((lp1029
F41.340000000000146
tp1030
sg587
((lp1031
F44.39999999999782
tp1032
sg648
((lp1033
F61.970000000001164
tp1034
ssba(imeasure_core
ProblemSetSolution
p1035
(dp1036
g3
g4
sg167
S"AnytimeBeam-w35-gf(1.5, 'exp')_with_LinearHeuristic"
p1037
sg170
(dp1038
g44
((lp1039
F40.080000000001746
tp1040
sg8
((lp1041
(F19.56999999999971
I165
tp1042
aF40.02000000000044
tp1043
sg137
((lp1044
F40.36000000000058
tp1045
sg105
((lp1046
(F3.219999999997526
I6
tp1047
aF40.169999999998254
tp1048
sg75
((lp1049
F40.02000000000044
tp1050
ssba(imeasure_core
ProblemSetSolution
p1051
(dp1052
g3
g189
sg167
g1037
sg170
(dp1053
g370
((lp1054
(F2.3000000000029104
I12
tp1055
a(F27.890000000003056
I11
tp1056
aF40.20000000000073
tp1057
sg326
((lp1058
F40.169999999998254
tp1059
sg239
((lp1060
F40.81999999999971
tp1061
sg282
((lp1062
F41.06000000000131
tp1063
sg192
((lp1064
F40.029999999998836
tp1065
ssba(imeasure_core
ProblemSetSolution
p1066
(dp1067
g3
g432
sg167
g1037
sg170
(dp1068
g435
((lp1069
F41.419999999998254
tp1070
sg484
((lp1071
F46.830000000001746
tp1072
sg530
((lp1073
F41.22999999999956
tp1074
sg587
((lp1075
F44.11999999999898
tp1076
sg648
((lp1077
F62.29000000000087
tp1078
ssba(imeasure_core
ProblemSetSolution
p1079
(dp1080
g3
g4
sg167
S"AnytimeBeam-w45-gf(1.5, 'exp')_with_LinearHeuristic"
p1081
sg170
(dp1082
g44
((lp1083
F40.18000000000029
tp1084
sg8
((lp1085
(F20.700000000000728
I165
tp1086
aF40.02000000000044
tp1087
sg137
((lp1088
F40.55999999999767
tp1089
sg105
((lp1090
(F3.4900000000016007
I6
tp1091
aF40.95000000000073
tp1092
sg75
((lp1093
F40.099999999998545
tp1094
ssba(imeasure_core
ProblemSetSolution
p1095
(dp1096
g3
g189
sg167
g1081
sg170
(dp1097
g370
((lp1098
(F2.279999999998836
I12
tp1099
a(F27.909999999999854
I11
tp1100
aF40.20999999999913
tp1101
sg326
((lp1102
F40.06999999999971
tp1103
sg239
((lp1104
F40.349999999998545
tp1105
sg282
((lp1106
F40.61000000000058
tp1107
sg192
((lp1108
F40.02000000000044
tp1109
ssba(imeasure_core
ProblemSetSolution
p1110
(dp1111
g3
g432
sg167
g1081
sg170
(dp1112
g435
((lp1113
F41.80000000000291
tp1114
sg484
((lp1115
F47.44999999999709
tp1116
sg530
((lp1117
F41.13999999999942
tp1118
sg587
((lp1119
F44.42000000000189
tp1120
sg648
((lp1121
F62.29000000000087
tp1122
ssba.