(lp0
(imeasure_core
ProblemSetSolution
p1
(dp2
S'roomset'
p3
(imeasure_core
RoomSet
p4
(dp5
S'rooms'
p6
(dp7
(iproblems
RoomID
p8
(dp9
S'dusts'
p10
I7
sS'obstacles'
p11
(I1
I3
tp12
sS'robots'
p13
I1
sS'height'
p14
I7
sS'width'
p15
I9
sS'seed'
p16
I1486246605650367638
sb(imulti_robot_problem
MultiRobotState
p17
(dp18
S'obstacle_locations'
p19
c__builtin__
frozenset
p20
((lp21
(I0
I1
tp22
a(I8
I3
tp23
ag12
a(I0
I3
tp24
a(I0
I2
tp25
atp26
Rp27
sg15
I9
sS'dirt_locations'
p28
g20
((lp29
(I7
I5
tp30
a(I7
I0
tp31
a(I0
I4
tp32
a(I1
I0
tp33
a(I4
I4
tp34
a(I6
I5
tp35
a(I4
I0
tp36
atp37
Rp38
sg13
((I5
I1
tp39
tp40
sg14
I7
sbs(iproblems
RoomID
p41
(dp42
g10
I9
sg11
(I7
I5
tp43
sg13
I4
sg14
I10
sg15
I10
sg16
I679259829289197625
sb(imulti_robot_problem
MultiRobotState
p44
(dp45
g19
g20
((lp46
(I9
I6
tp47
a(I8
I6
tp48
a(I7
I6
tp49
ag43
a(I7
I0
tp50
atp51
Rp52
sg15
I10
sg28
g20
((lp53
(I5
I4
tp54
a(I2
I6
tp55
a(I7
I1
tp56
a(I6
I1
tp57
a(I1
I6
tp58
a(I0
I5
tp59
a(I8
I7
tp60
a(I0
I9
tp61
a(I9
I5
tp62
atp63
Rp64
sg13
((I7
I8
tp65
(I6
I7
tp66
(I3
I5
tp67
(I3
I9
tp68
tp69
sg14
I10
sbs(iproblems
RoomID
p70
(dp71
g10
I6
sg11
(I4
I4
tp72
sg13
I4
sg14
I9
sg15
I9
sg16
I5891625650498269233
sb(imulti_robot_problem
MultiRobotState
p73
(dp74
g19
g20
((lp75
(I2
I7
tp76
a(I4
I5
tp77
ag72
a(I3
I6
tp78
atp79
Rp80
sg15
I9
sg28
g20
((lp81
(I7
I4
tp82
a(I8
I3
tp83
a(I0
I5
tp84
a(I5
I5
tp85
a(I6
I6
tp86
a(I4
I0
tp87
atp88
Rp89
sg13
((I4
I6
tp90
(I7
I1
tp91
(I0
I4
tp92
(I7
I2
tp93
tp94
sg14
I9
sbs(iproblems
RoomID
p95
(dp96
g10
I6
sg11
(I1
I6
tp97
sg13
I4
sg14
I8
sg15
I10
sg16
I403795515464475257
sb(imulti_robot_problem
MultiRobotState
p98
(dp99
g19
g20
((lp100
(I8
I3
tp101
a(I1
I3
tp102
a(I6
I7
tp103
a(I0
I4
tp104
ag97
a(I4
I1
tp105
a(I0
I5
tp106
atp107
Rp108
sg15
I10
sg28
g20
((lp109
(I7
I3
tp110
a(I4
I7
tp111
a(I2
I2
tp112
a(I8
I0
tp113
a(I0
I2
tp114
a(I0
I7
tp115
atp116
Rp117
sg13
((I8
I2
tp118
(I6
I1
tp119
(I5
I0
tp120
(I2
I0
tp121
tp122
sg14
I8
sbs(iproblems
RoomID
p123
(dp124
g10
I5
sg11
(I3
I4
tp125
sg13
I1
sg14
I9
sg15
I9
sg16
I2685440357799139976
sb(imulti_robot_problem
MultiRobotState
p126
(dp127
g19
g20
((lp128
(I8
I3
tp129
a(I1
I3
tp130
a(I5
I6
tp131
ag125
a(I2
I4
tp132
a(I3
I8
tp133
a(I2
I3
tp134
a(I7
I8
tp135
a(I1
I1
tp136
atp137
Rp138
sg15
I9
sg28
g20
((lp139
(I0
I1
tp140
a(I0
I0
tp141
a(I3
I1
tp142
a(I8
I7
tp143
a(I5
I0
tp144
atp145
Rp146
sg13
((I5
I5
tp147
tp148
sg14
I9
sbssS'name'
p149
S'easy_roomset'
p150
sbsg149
S'AnytimeBest-d10_with_PowerHeuristic2'
p151
sS'solutions'
p152
(dp153
g8
((lp154
F0.38000000000465661
tp155
sg41
((lp156
F40.229999999995925
tp157
sg70
((lp158
(F0.41000000000349246
I8
tp159
aF40.069999999999709
tp160
sg95
((lp161
F40.030000000006112
tp162
sg123
((lp163
F0.16999999999825377
tp164
ssba(imeasure_core
ProblemSetSolution
p165
(dp166
g3
(imeasure_core
RoomSet
p167
(dp168
g6
(dp169
(iproblems
RoomID
p170
(dp171
g10
I9
sg11
(I7
I7
tp172
sg13
I4
sg14
I12
sg15
I12
sg16
I679259829289197625
sb(imulti_robot_problem
MultiRobotState
p173
(dp174
g19
g20
((lp175
(I6
I4
tp176
a(I6
I9
tp177
a(I6
I6
tp178
a(I5
I6
tp179
a(I9
I8
tp180
a(I11
I9
tp181
ag172
a(I1
I4
tp182
a(I11
I7
tp183
a(I7
I5
tp184
a(I8
I7
tp185
a(I4
I2
tp186
a(I8
I5
tp187
a(I6
I5
tp188
a(I10
I8
tp189
a(I10
I5
tp190
a(I6
I7
tp191
a(I6
I8
tp192
a(I10
I7
tp193
a(I9
I6
tp194
a(I7
I6
tp195
a(I8
I10
tp196
a(I7
I4
tp197
a(I11
I8
tp198
a(I7
I10
tp199
a(I8
I6
tp200
a(I6
I1
tp201
a(I9
I7
tp202
atp203
Rp204
sg15
I12
sg28
g20
((lp205
(I2
I7
tp206
a(I9
I0
tp207
a(I8
I2
tp208
a(I7
I1
tp209
a(I11
I0
tp210
a(I0
I11
tp211
a(I1
I6
tp212
a(I1
I7
tp213
a(I11
I6
tp214
atp215
Rp216
sg13
((I9
I10
tp217
(I8
I9
tp218
(I3
I7
tp219
(I3
I11
tp220
tp221
sg14
I12
sbs(iproblems
RoomID
p222
(dp223
g10
I5
sg11
(I9
I1
tp224
sg13
I3
sg14
I11
sg15
I11
sg16
I2685440357799139976
sb(imulti_robot_problem
MultiRobotState
p225
(dp226
g19
g20
((lp227
(I7
I3
tp228
a(I10
I4
tp229
a(I9
I3
tp230
ag224
a(I7
I1
tp231
a(I5
I6
tp232
a(I10
I6
tp233
a(I1
I4
tp234
a(I9
I9
tp235
a(I3
I9
tp236
a(I9
I4
tp237
a(I6
I8
tp238
a(I9
I6
tp239
a(I3
I4
tp240
a(I10
I3
tp241
a(I7
I2
tp242
a(I5
I3
tp243
a(I8
I3
tp244
a(I5
I5
tp245
a(I10
I7
tp246
a(I8
I5
tp247
a(I9
I2
tp248
a(I3
I6
tp249
a(I4
I5
tp250
a(I6
I5
tp251
a(I7
I10
tp252
a(I9
I5
tp253
a(I3
I5
tp254
a(I7
I8
tp255
a(I2
I4
tp256
a(I10
I9
tp257
atp258
Rp259
sg15
I11
sg28
g20
((lp260
(I1
I2
tp261
a(I9
I10
tp262
a(I6
I1
tp263
a(I4
I1
tp264
a(I0
I2
tp265
atp266
Rp267
sg13
((I6
I6
tp268
(I0
I0
tp269
(I10
I8
tp270
tp271
sg14
I11
sbs(iproblems
RoomID
p272
(dp273
g10
I10
sg11
(I1
I5
tp274
sg13
I4
sg14
I12
sg15
I10
sg16
I1737871632067391849
sb(imulti_robot_problem
MultiRobotState
p275
(dp276
g19
g20
((lp277
(I3
I2
tp278
a(I0
I0
tp279
a(I6
I6
tp280
a(I5
I6
tp281
a(I2
I8
tp282
a(I2
I10
tp283
a(I8
I9
tp284
a(I6
I2
tp285
a(I2
I3
tp286
a(I8
I7
tp287
a(I5
I1
tp288
a(I8
I5
tp289
a(I5
I8
tp290
a(I8
I3
tp291
a(I5
I5
tp292
a(I7
I8
tp293
a(I7
I6
tp294
a(I8
I10
tp295
ag274
a(I6
I5
tp296
a(I2
I2
tp297
a(I4
I1
tp298
a(I2
I4
tp299
atp300
Rp301
sg15
I10
sg28
g20
((lp302
(I0
I1
tp303
a(I4
I10
tp304
a(I4
I8
tp305
a(I3
I0
tp306
a(I9
I6
tp307
a(I3
I10
tp308
a(I5
I11
tp309
a(I2
I7
tp310
a(I1
I9
tp311
a(I3
I4
tp312
atp313
Rp314
sg13
((I4
I9
tp315
(I8
I11
tp316
(I4
I0
tp317
(I3
I9
tp318
tp319
sg14
I12
sbs(iproblems
RoomID
p320
(dp321
g10
I6
sg11
(I3
I9
tp322
sg13
I4
sg14
I11
sg15
I11
sg16
I5891625650498269233
sb(imulti_robot_problem
MultiRobotState
p323
(dp324
g19
g20
((lp325
(I7
I3
tp326
a(I4
I7
tp327
a(I6
I6
tp328
a(I5
I6
tp329
a(I2
I8
tp330
a(I6
I2
tp331
a(I5
I1
tp332
a(I3
I7
tp333
a(I8
I5
tp334
a(I5
I5
tp335
a(I2
I9
tp336
a(I7
I6
tp337
a(I4
I4
tp338
a(I2
I2
tp339
a(I1
I1
tp340
a(I9
I7
tp341
a(I3
I2
tp342
a(I10
I4
tp343
a(I4
I5
tp344
a(I9
I3
tp345
a(I10
I5
tp346
a(I2
I10
tp347
a(I7
I5
tp348
a(I2
I3
tp349
a(I8
I3
tp350
a(I4
I6
tp351
a(I5
I2
tp352
a(I6
I1
tp353
a(I3
I8
tp354
a(I1
I8
tp355
ag322
a(I4
I3
tp356
a(I9
I5
tp357
a(I3
I4
tp358
a(I8
I4
tp359
atp360
Rp361
sg15
I11
sg28
g20
((lp362
(I8
I8
tp363
a(I5
I10
tp364
a(I9
I1
tp365
a(I10
I7
tp366
a(I1
I6
tp367
a(I7
I9
tp368
atp369
Rp370
sg13
((I5
I7
tp371
(I8
I1
tp372
(I0
I5
tp373
(I4
I0
tp374
tp375
sg14
I11
sbs(iproblems
RoomID
p376
(dp377
g10
I7
sg11
(I8
I8
tp378
sg13
I3
sg14
I9
sg15
I9
sg16
I7834319822419845881
sb(imulti_robot_problem
MultiRobotState
p379
(dp380
g19
g20
((lp381
(I4
I7
tp382
a(I1
I3
tp383
a(I5
I0
tp384
a(I6
I6
tp385
a(I5
I6
tp386
a(I2
I8
tp387
a(I3
I5
tp388
a(I4
I6
tp389
a(I2
I6
tp390
a(I0
I5
tp391
a(I3
I7
tp392
a(I0
I3
tp393
a(I0
I8
tp394
a(I8
I5
tp395
a(I5
I8
tp396
a(I3
I3
tp397
a(I2
I7
tp398
a(I6
I7
tp399
a(I5
I5
tp400
a(I7
I8
tp401
a(I4
I4
tp402
a(I1
I5
tp403
a(I1
I8
tp404
ag378
a(I3
I6
tp405
a(I1
I7
tp406
a(I4
I5
tp407
a(I5
I3
tp408
a(I3
I4
tp409
atp410
Rp411
sg15
I9
sg28
g20
((lp412
(I7
I4
tp413
a(I2
I0
tp414
a(I6
I2
tp415
a(I7
I0
tp416
a(I8
I7
tp417
a(I7
I1
tp418
a(I1
I4
tp419
atp420
Rp421
sg13
((I2
I1
tp422
(I2
I3
tp423
(I5
I7
tp424
tp425
sg14
I9
sbssg149
S'mild_roomset'
p426
sbsg149
g151
sg152
(dp427
g170
((lp428
F40.139999999999418
tp429
sg222
((lp430
F40.099999999998545
tp431
sg272
((lp432
F40.010000000002037
tp433
sg320
((lp434
F40.189999999995052
tp435
sg376
((lp436
F40.010000000002037
tp437
ssba(imeasure_core
ProblemSetSolution
p438
(dp439
g3
(imeasure_core
RoomSet
p440
(dp441
g6
(dp442
(iproblems
RoomID
p443
(dp444
g10
I12
sg11
(I6
I3
tp445
sg13
I5
sg14
I10
sg15
I12
sg16
I1486246605650367638
sb(imulti_robot_problem
MultiRobotState
p446
(dp447
g19
g20
((lp448
(I5
I9
tp449
a(I1
I3
tp450
a(I7
I1
tp451
a(I2
I7
tp452
a(I1
I4
tp453
a(I6
I2
tp454
a(I1
I6
tp455
a(I2
I1
tp456
a(I0
I3
tp457
a(I6
I5
tp458
a(I1
I2
tp459
a(I1
I5
tp460
a(I4
I1
tp461
a(I3
I1
tp462
ag445
a(I2
I0
tp463
a(I10
I0
tp464
a(I5
I2
tp465
a(I1
I1
tp466
a(I8
I4
tp467
atp468
Rp469
sg15
I12
sg28
g20
((lp470
(I11
I7
tp471
a(I11
I4
tp472
a(I9
I1
tp473
a(I11
I8
tp474
a(I2
I8
tp475
a(I6
I0
tp476
a(I0
I6
tp477
a(I11
I1
tp478
a(I0
I4
tp479
a(I4
I9
tp480
a(I10
I9
tp481
a(I9
I7
tp482
atp483
Rp484
sg13
((I2
I4
tp485
(I10
I1
tp486
(I2
I5
tp487
(I9
I8
tp488
(I6
I6
tp489
tp490
sg14
I10
sbs(iproblems
RoomID
p491
(dp492
g10
I14
sg11
(I7
I6
tp493
sg13
I7
sg14
I13
sg15
I13
sg16
I679259829289197625
sb(imulti_robot_problem
MultiRobotState
p494
(dp495
g19
g20
((lp496
(I6
I4
tp497
a(I4
I8
tp498
a(I12
I7
tp499
a(I10
I6
tp500
a(I7
I5
tp501
a(I12
I11
tp502
a(I9
I6
tp503
a(I1
I2
tp504
a(I11
I7
tp505
a(I10
I7
tp506
ag493
a(I6
I3
tp507
a(I6
I2
tp508
a(I4
I3
tp509
a(I3
I4
tp510
a(I12
I8
tp511
atp512
Rp513
sg15
I13
sg28
g20
((lp514
(I2
I7
tp515
a(I12
I1
tp516
a(I9
I2
tp517
a(I2
I8
tp518
a(I5
I7
tp519
a(I10
I0
tp520
a(I1
I4
tp521
a(I0
I12
tp522
a(I7
I4
tp523
a(I10
I9
tp524
a(I4
I2
tp525
a(I11
I4
tp526
a(I11
I6
tp527
a(I1
I9
tp528
atp529
Rp530
sg13
((I9
I11
tp531
(I9
I10
tp532
(I4
I7
tp533
(I4
I12
tp534
(I7
I1
tp535
(I1
I8
tp536
(I1
I6
tp537
tp538
sg14
I13
sbs(iproblems
RoomID
p539
(dp540
g10
I11
sg11
(I2
I7
tp541
sg13
I6
sg14
I11
sg15
I13
sg16
I403795515464475257
sb(imulti_robot_problem
MultiRobotState
p542
(dp543
g19
g20
((lp544
g541
a(I10
I8
tp545
a(I1
I7
tp546
a(I3
I10
tp547
a(I4
I4
tp548
a(I1
I4
tp549
a(I12
I5
tp550
a(I0
I6
tp551
a(I0
I5
tp552
a(I3
I6
tp553
a(I2
I2
tp554
a(I0
I8
tp555
a(I7
I9
tp556
atp557
Rp558
sg15
I13
sg28
g20
((lp559
(I6
I4
tp560
a(I0
I0
tp561
a(I2
I9
tp562
a(I11
I5
tp563
a(I8
I9
tp564
a(I11
I1
tp565
a(I2
I3
tp566
a(I1
I10
tp567
a(I12
I2
tp568
a(I0
I3
tp569
a(I5
I2
tp570
atp571
Rp572
sg13
((I10
I3
tp573
(I7
I2
tp574
(I7
I0
tp575
(I3
I1
tp576
(I5
I10
tp577
(I9
I4
tp578
tp579
sg14
I11
sbs(iproblems
RoomID
p580
(dp581
g10
I10
sg11
(I6
I9
tp582
sg13
I5
sg14
I12
sg15
I12
sg16
I2685440357799139976
sb(imulti_robot_problem
MultiRobotState
p583
(dp584
g19
g20
((lp585
(I4
I10
tp586
ag582
a(I9
I1
tp587
a(I5
I11
tp588
a(I3
I0
tp589
a(I0
I7
tp590
a(I3
I9
tp591
a(I0
I5
tp592
a(I1
I4
tp593
a(I0
I3
tp594
a(I4
I0
tp595
a(I1
I2
tp596
a(I11
I10
tp597
a(I6
I10
tp598
a(I5
I6
tp599
a(I9
I11
tp600
a(I7
I9
tp601
a(I4
I5
tp602
a(I3
I5
tp603
a(I3
I4
tp604
a(I2
I4
tp605
a(I1
I9
tp606
atp607
Rp608
sg15
I12
sg28
g20
((lp609
(I11
I7
tp610
a(I8
I3
tp611
a(I10
I11
tp612
a(I7
I1
tp613
a(I10
I5
tp614
a(I8
I10
tp615
a(I6
I3
tp616
a(I3
I6
tp617
a(I9
I10
tp618
a(I6
I5
tp619
atp620
Rp621
sg13
((I7
I7
tp622
(I0
I0
tp623
(I11
I9
tp624
(I0
I2
tp625
(I4
I1
tp626
tp627
sg14
I12
sbs(iproblems
RoomID
p628
(dp629
g10
I11
sg11
(I11
I9
tp630
sg13
I7
sg14
I12
sg15
I12
sg16
I5891625650498269233
sb(imulti_robot_problem
MultiRobotState
p631
(dp632
g19
g20
((lp633
(I4
I4
tp634
a(I4
I8
tp635
a(I5
I6
tp636
a(I8
I11
tp637
ag630
a(I7
I7
tp638
a(I7
I1
tp639
a(I9
I10
tp640
a(I3
I9
tp641
a(I1
I9
tp642
a(I6
I7
tp643
a(I10
I7
tp644
a(I7
I6
tp645
a(I5
I7
tp646
a(I2
I11
tp647
a(I6
I11
tp648
a(I9
I11
tp649
a(I7
I10
tp650
a(I10
I9
tp651
atp652
Rp653
sg15
I12
sg28
g20
((lp654
(I11
I7
tp655
a(I11
I4
tp656
a(I4
I6
tp657
a(I5
I11
tp658
a(I8
I10
tp659
a(I0
I5
tp660
a(I8
I7
tp661
a(I1
I7
tp662
a(I10
I1
tp663
a(I1
I1
tp664
a(I5
I5
tp665
atp666
Rp667
sg13
((I6
I8
tp668
(I9
I2
tp669
(I0
I6
tp670
(I10
I3
tp671
(I9
I5
tp672
(I5
I0
tp673
(I9
I8
tp674
tp675
sg14
I12
sbssg149
S'heavy_roomset'
p676
sbsg149
g151
sg152
(dp677
g443
((lp678
F40.909999999996217
tp679
sg491
((lp680
F44.090000000003783
tp681
sg539
((lp682
F40.459999999999127
tp683
sg580
((lp684
F40.419999999998254
tp685
sg628
((lp686
F47.810000000004948
tp687
ssba(imeasure_core
ProblemSetSolution
p688
(dp689
g3
g4
sg149
S'AnytimeBest-d80_with_PowerHeuristic2'
p690
sg152
(dp691
g8
((lp692
(F0.31000000000494765
I45
tp693
a(F1.180000000000291
I44
tp694
a(F1.4000000000014552
I37
tp695
a(F2.0299999999988358
I36
tp696
a(F2.2400000000052387
I34
tp697
a(F5.0
I33
tp698
a(F5.8100000000049477
I31
tp699
a(F8.0299999999988358
I30
tp700
a(F9.1700000000055297
I28
tp701
a(F9.4800000000032014
I26
tp702
a(F14.819999999999709
I25
tp703
a(F18.330000000001746
I24
tp704
aF24.17000000000553
tp705
sg41
((lp706
(F0.81999999999970896
I20
tp707
aF40.069999999999709
tp708
sg70
((lp709
(F0.4099999999962165
I8
tp710
aF40.129999999997381
tp711
sg95
((lp712
F40.139999999999418
tp713
sg123
((lp714
(F0.26999999999679858
I47
tp715
a(F2.1399999999994179
I45
tp716
a(F2.4599999999991269
I43
tp717
a(F2.7699999999967986
I35
tp718
a(F4.3000000000029104
I33
tp719
a(F4.9700000000011642
I31
tp720
a(F5.5500000000029104
I29
tp721
a(F7.8499999999985448
I27
tp722
a(F10.269999999996799
I25
tp723
a(F10.589999999996508
I23
tp724
aF10.690000000002328
tp725
ssba(imeasure_core
ProblemSetSolution
p726
(dp727
g3
g167
sg149
g690
sg152
(dp728
g170
((lp729
F40.040000000000873
tp730
sg222
((lp731
F40.019999999996799
tp732
sg272
((lp733
(F0.36000000000058208
I12
tp734
aF40.05000000000291
tp735
sg320
((lp736
(F3.5099999999947613
I64
tp737
aF40.169999999998254
tp738
sg376
((lp739
(F0.08000000000174623
I25
tp740
aF40.010000000002037
tp741
ssba(imeasure_core
ProblemSetSolution
p742
(dp743
g3
g440
sg149
g690
sg152
(dp744
g443
((lp745
F40.260000000002037
tp746
sg491
((lp747
F44.069999999999709
tp748
sg539
((lp749
(F26.209999999999127
I19
tp750
aF40.599999999998545
tp751
sg580
((lp752
(F5.930000000000291
I58
tp753
aF40.209999999999127
tp754
sg628
((lp755
F47.92000000000553
tp756
ssba(imeasure_core
ProblemSetSolution
p757
(dp758
g3
g4
sg149
S'AnytimeBest-d150_with_PowerHeuristic2'
p759
sg152
(dp760
g8
((lp761
(F0.31000000000494765
I45
tp762
a(F1.180000000000291
I44
tp763
a(F1.4000000000014552
I37
tp764
a(F2.0299999999988358
I36
tp765
a(F2.2400000000052387
I34
tp766
a(F5.0
I33
tp767
a(F5.8000000000029104
I31
tp768
a(F8.0400000000008731
I30
tp769
a(F9.2000000000043656
I28
tp770
a(F9.5100000000020373
I26
tp771
a(F14.900000000001455
I25
tp772
a(F18.400000000001455
I24
tp773
aF24.240000000005239
tp774
sg41
((lp775
(F0.81999999999970896
I20
tp776
aF40.019999999996799
tp777
sg70
((lp778
(F0.40000000000145519
I8
tp779
aF40.190000000002328
tp780
sg95
((lp781
(F11.849999999998545
I134
tp782
aF40.07999999999447
tp783
sg123
((lp784
(F0.2800000000061118
I47
tp785
a(F2.1400000000066939
I45
tp786
a(F2.4700000000011642
I43
tp787
a(F2.7800000000061118
I35
tp788
a(F4.3300000000017462
I33
tp789
a(F4.9900000000052387
I31
tp790
a(F5.5800000000017462
I29
tp791
a(F7.8800000000046566
I27
tp792
a(F10.310000000004948
I25
tp793
a(F10.620000000002619
I23
tp794
aF10.720000000001164
tp795
ssba(imeasure_core
ProblemSetSolution
p796
(dp797
g3
g167
sg149
g759
sg152
(dp798
g170
((lp799
F40.05000000000291
tp800
sg222
((lp801
(F8.5100000000020373
I127
tp802
aF40.059999999997672
tp803
sg272
((lp804
(F0.36000000000058208
I12
tp805
aF40.029999999998836
tp806
sg320
((lp807
(F3.5200000000040745
I64
tp808
aF40.030000000006112
tp809
sg376
((lp810
(F0.079999999994470272
I25
tp811
aF40.009999999994761
tp812
ssba(imeasure_core
ProblemSetSolution
p813
(dp814
g3
g440
sg149
g759
sg152
(dp815
g443
((lp816
(F31.25
I113
tp817
aF40.190000000002328
tp818
sg491
((lp819
F44.009999999994761
tp820
sg539
((lp821
(F26.150000000001455
I19
tp822
aF40.410000000003492
tp823
sg580
((lp824
(F5.9000000000014552
I58
tp825
aF40.19999999999709
tp826
sg628
((lp827
F47.580000000001746
tp828
ssba(imeasure_core
ProblemSetSolution
p829
(dp830
g3
g4
sg149
S'AnytimeBest-d250_with_PowerHeuristic2'
p831
sg152
(dp832
g8
((lp833
(F0.30999999999767169
I45
tp834
a(F1.1999999999970896
I44
tp835
a(F1.4199999999982538
I37
tp836
a(F2.0599999999976717
I36
tp837
a(F2.25
I34
tp838
a(F5.0299999999988358
I33
tp839
a(F5.8300000000017462
I31
tp840
a(F8.0500000000029104
I30
tp841
a(F9.1999999999970896
I28
tp842
a(F9.5100000000020373
I26
tp843
a(F14.849999999998545
I25
tp844
a(F18.340000000003783
I24
tp845
aF24.209999999999127
tp846
sg41
((lp847
(F0.81000000000494765
I20
tp848
aF40.020000000004075
tp849
sg70
((lp850
(F0.4099999999962165
I8
tp851
aF40.049999999995634
tp852
sg95
((lp853
(F11.709999999999127
I134
tp854
aF40.029999999998836
tp855
sg123
((lp856
(F0.27000000000407454
I47
tp857
a(F2.1200000000026193
I45
tp858
a(F2.4400000000023283
I43
tp859
a(F2.75
I35
tp860
a(F4.2900000000008731
I33
tp861
a(F4.9500000000043656
I31
tp862
a(F5.5400000000008731
I29
tp863
a(F7.8300000000017462
I27
tp864
a(F10.25
I25
tp865
a(F10.560000000004948
I23
tp866
aF10.660000000003492
tp867
ssba(imeasure_core
ProblemSetSolution
p868
(dp869
g3
g167
sg149
g831
sg152
(dp870
g170
((lp871
F40.319999999999709
tp872
sg222
((lp873
(F8.5999999999985448
I127
tp874
aF40.009999999994761
tp875
sg272
((lp876
(F0.36000000000058208
I12
tp877
aF40.030000000006112
tp878
sg320
((lp879
(F3.5
I64
tp880
aF40.029999999998836
tp881
sg376
((lp882
(F0.079999999994470272
I25
tp883
aF40.0
tp884
ssba(imeasure_core
ProblemSetSolution
p885
(dp886
g3
g440
sg149
g831
sg152
(dp887
g443
((lp888
(F30.979999999995925
I113
tp889
aF40.189999999995052
tp890
sg491
((lp891
F44.030000000006112
tp892
sg539
((lp893
(F26.25
I19
tp894
aF40.469999999993888
tp895
sg580
((lp896
(F5.9200000000055297
I58
tp897
aF40.110000000000582
tp898
sg628
((lp899
F47.889999999999418
tp900
ssba(imeasure_core
ProblemSetSolution
p901
(dp902
g3
g4
sg149
S'AnytimeBest-d400_with_PowerHeuristic2'
p903
sg152
(dp904
g8
((lp905
(F0.31000000000494765
I45
tp906
a(F1.1900000000023283
I44
tp907
a(F1.4100000000034925
I37
tp908
a(F2.0300000000061118
I36
tp909
a(F2.2400000000052387
I34
tp910
a(F5.0
I33
tp911
a(F5.8000000000029104
I31
tp912
a(F8.0200000000040745
I30
tp913
a(F9.1600000000034925
I28
tp914
a(F9.4700000000011642
I26
tp915
a(F14.830000000001746
I25
tp916
a(F18.330000000001746
I24
tp917
aF24.150000000001455
tp918
sg41
((lp919
(F0.81000000000494765
I20
tp920
aF40.020000000004075
tp921
sg70
((lp922
(F0.4099999999962165
I8
tp923
aF40.049999999995634
tp924
sg95
((lp925
(F11.669999999998254
I134
tp926
aF40.029999999998836
tp927
sg123
((lp928
(F0.27000000000407454
I47
tp929
a(F2.1399999999994179
I45
tp930
a(F2.4700000000011642
I43
tp931
a(F2.7800000000061118
I35
tp932
a(F4.3400000000037835
I33
tp933
a(F5.0100000000020373
I31
tp934
a(F5.6000000000058208
I29
tp935
a(F7.9200000000055297
I27
tp936
a(F10.370000000002619
I25
tp937
a(F10.690000000002328
I23
tp938
aF10.790000000000873
tp939
ssba(imeasure_core
ProblemSetSolution
p940
(dp941
g3
g167
sg149
g903
sg152
(dp942
g170
((lp943
F40.060000000004948
tp944
sg222
((lp945
(F8.6100000000005821
I127
tp946
aF40.009999999994761
tp947
sg272
((lp948
(F0.36000000000058208
I12
tp949
aF40.029999999998836
tp950
sg320
((lp951
(F3.4600000000064028
I64
tp952
aF40.160000000003492
tp953
sg376
((lp954
(F0.079999999994470272
I25
tp955
aF40.019999999996799
tp956
ssba(imeasure_core
ProblemSetSolution
p957
(dp958
g3
g440
sg149
g903
sg152
(dp959
g443
((lp960
(F31.090000000003783
I113
tp961
aF40.190000000002328
tp962
sg491
((lp963
F44.309999999997672
tp964
sg539
((lp965
(F25.989999999997963
I19
tp966
aF40.770000000004075
tp967
sg580
((lp968
(F5.9399999999950523
I58
tp969
aF40.129999999997381
tp970
sg628
((lp971
F47.319999999999709
tp972
ssba(imeasure_core
ProblemSetSolution
p973
(dp974
g3
g4
sg149
S'AnytimeBest-d10_with_LinearHeuristic'
p975
sg152
(dp976
g8
((lp977
F1.4599999999991269
tp978
sg41
((lp979
F40.110000000000582
tp980
sg70
((lp981
(F0.31999999999970896
I4
tp982
aF40.139999999999418
tp983
sg95
((lp984
F40.129999999997381
tp985
sg123
((lp986
F0.45000000000436557
tp987
ssba(imeasure_core
ProblemSetSolution
p988
(dp989
g3
g167
sg149
g975
sg152
(dp990
g170
((lp991
F40.07999999999447
tp992
sg222
((lp993
(F37.80000000000291
I10
tp994
aF40.060000000004948
tp995
sg272
((lp996
F40.169999999998254
tp997
sg320
((lp998
F40.099999999998545
tp999
sg376
((lp1000
F40.010000000002037
tp1001
ssba(imeasure_core
ProblemSetSolution
p1002
(dp1003
g3
g440
sg149
g975
sg152
(dp1004
g443
((lp1005
F40.419999999998254
tp1006
sg491
((lp1007
F52.809999999997672
tp1008
sg539
((lp1009
(F22.25
I10
tp1010
aF40.309999999997672
tp1011
sg580
((lp1012
F40.200000000004366
tp1013
sg628
((lp1014
F41.769999999996799
tp1015
ssba(imeasure_core
ProblemSetSolution
p1016
(dp1017
g3
g4
sg149
S'AnytimeBest-d80_with_LinearHeuristic'
p1018
sg152
(dp1019
g8
((lp1020
(F0.0099999999947613105
I24
tp1021
aF40.0
tp1022
sg41
((lp1023
F40.069999999999709
tp1024
sg70
((lp1025
(F0.33000000000174623
I4
tp1026
aF40.129999999997381
tp1027
sg95
((lp1028
F40.080000000001746
tp1029
sg123
((lp1030
(F0.019999999996798579
I23
tp1031
aF8.4099999999962165
tp1032
ssba(imeasure_core
ProblemSetSolution
p1033
(dp1034
g3
g167
sg149
g1018
sg152
(dp1035
g170
((lp1036
F40.05000000000291
tp1037
sg222
((lp1038
F40.040000000000873
tp1039
sg272
((lp1040
F40.049999999995634
tp1041
sg320
((lp1042
F40.040000000000873
tp1043
sg376
((lp1044
F40.0
tp1045
ssba(imeasure_core
ProblemSetSolution
p1046
(dp1047
g3
g440
sg149
g1018
sg152
(dp1048
g443
((lp1049
F40.190000000002328
tp1050
sg491
((lp1051
F53.259999999994761
tp1052
sg539
((lp1053
(F22.290000000000873
I10
tp1054
aF43.010000000002037
tp1055
sg580
((lp1056
F40.230000000003201
tp1057
sg628
((lp1058
F42.049999999995634
tp1059
ssba(imeasure_core
ProblemSetSolution
p1060
(dp1061
g3
g4
sg149
S'AnytimeBest-d150_with_LinearHeuristic'
p1062
sg152
(dp1063
g8
((lp1064
(F0.020000000004074536
I24
tp1065
aF40.0
tp1066
sg41
((lp1067
F40.110000000000582
tp1068
sg70
((lp1069
(F0.31999999999970896
I4
tp1070
aF40.139999999999418
tp1071
sg95
((lp1072
F40.090000000003783
tp1073
sg123
((lp1074
(F0.019999999996798579
I23
tp1075
aF8.3899999999994179
tp1076
ssba(imeasure_core
ProblemSetSolution
p1077
(dp1078
g3
g167
sg149
g1062
sg152
(dp1079
g170
((lp1080
F40.110000000000582
tp1081
sg222
((lp1082
F40.010000000002037
tp1083
sg272
((lp1084
F40.049999999995634
tp1085
sg320
((lp1086
F40.040000000000873
tp1087
sg376
((lp1088
F40.059999999997672
tp1089
ssba(imeasure_core
ProblemSetSolution
p1090
(dp1091
g3
g440
sg149
g1062
sg152
(dp1092
g443
((lp1093
F40.480000000003201
tp1094
sg491
((lp1095
F52.82999999999447
tp1096
sg539
((lp1097
(F22.260000000002037
I10
tp1098
aF40.310000000004948
tp1099
sg580
((lp1100
F40.189999999995052
tp1101
sg628
((lp1102
F41.960000000006403
tp1103
ssba(imeasure_core
ProblemSetSolution
p1104
(dp1105
g3
g4
sg149
S'AnytimeBest-d250_with_LinearHeuristic'
p1106
sg152
(dp1107
g8
((lp1108
(F0.010000000002037268
I24
tp1109
aF40.0
tp1110
sg41
((lp1111
F40.419999999998254
tp1112
sg70
((lp1113
(F0.32000000000698492
I4
tp1114
aF40.430000000000291
tp1115
sg95
((lp1116
F40.120000000002619
tp1117
sg123
((lp1118
(F0.020000000004074536
I23
tp1119
aF8.4199999999982538
tp1120
ssba(imeasure_core
ProblemSetSolution
p1121
(dp1122
g3
g167
sg149
g1106
sg152
(dp1123
g170
((lp1124
F40.370000000002619
tp1125
sg222
((lp1126
F40.169999999998254
tp1127
sg272
((lp1128
F40.059999999997672
tp1129
sg320
((lp1130
F40.25
tp1131
sg376
((lp1132
F40.010000000002037
tp1133
ssba(imeasure_core
ProblemSetSolution
p1134
(dp1135
g3
g440
sg149
g1106
sg152
(dp1136
g443
((lp1137
F40.589999999996508
tp1138
sg491
((lp1139
F52.850000000005821
tp1140
sg539
((lp1141
(F22.229999999995925
I10
tp1142
aF40.309999999997672
tp1143
sg580
((lp1144
F40.099999999998545
tp1145
sg628
((lp1146
F41.980000000003201
tp1147
ssba(imeasure_core
ProblemSetSolution
p1148
(dp1149
g3
g4
sg149
S'AnytimeBest-d400_with_LinearHeuristic'
p1150
sg152
(dp1151
g8
((lp1152
(F0.019999999996798579
I24
tp1153
aF40.0
tp1154
sg41
((lp1155
F40.069999999999709
tp1156
sg70
((lp1157
(F0.33000000000174623
I4
tp1158
aF40.139999999999418
tp1159
sg95
((lp1160
F40.229999999995925
tp1161
sg123
((lp1162
(F0.020000000004074536
I23
tp1163
aF8.4400000000023283
tp1164
ssba(imeasure_core
ProblemSetSolution
p1165
(dp1166
g3
g167
sg149
g1150
sg152
(dp1167
g170
((lp1168
F40.080000000001746
tp1169
sg222
((lp1170
F40.139999999999418
tp1171
sg272
((lp1172
F40.180000000000291
tp1173
sg320
((lp1174
F40.190000000002328
tp1175
sg376
((lp1176
F40.029999999998836
tp1177
ssba(imeasure_core
ProblemSetSolution
p1178
(dp1179
g3
g440
sg149
g1150
sg152
(dp1180
g443
((lp1181
F40.950000000004366
tp1182
sg491
((lp1183
F53.559999999997672
tp1184
sg539
((lp1185
(F22.150000000001455
I10
tp1186
aF40.309999999997672
tp1187
sg580
((lp1188
F40.370000000002619
tp1189
sg628
((lp1190
F41.930000000000291
tp1191
ssba.