(lp0
(imeasure_core
ProblemSetSolution
p1
(dp2
S'roomset'
p3
(imeasure_core
RoomSet
p4
(dp5
S'rooms'
p6
(dp7
(iproblems
RoomID
p8
(dp9
S'dusts'
p10
I7
sS'obstacles'
p11
(I1
I3
tp12
sS'robots'
p13
I1
sS'height'
p14
I7
sS'width'
p15
I9
sS'seed'
p16
I1486246605650367638
sb(imulti_robot_problem
MultiRobotState
p17
(dp18
S'obstacle_locations'
p19
c__builtin__
frozenset
p20
((lp21
(I0
I1
tp22
a(I8
I3
tp23
ag12
a(I0
I3
tp24
a(I0
I2
tp25
atp26
Rp27
sg15
I9
sS'dirt_locations'
p28
g20
((lp29
(I7
I5
tp30
a(I7
I0
tp31
a(I0
I4
tp32
a(I1
I0
tp33
a(I4
I4
tp34
a(I6
I5
tp35
a(I4
I0
tp36
atp37
Rp38
sg13
((I5
I1
tp39
tp40
sg14
I7
sbs(iproblems
RoomID
p41
(dp42
g10
I9
sg11
(I7
I5
tp43
sg13
I4
sg14
I10
sg15
I10
sg16
I679259829289197625
sb(imulti_robot_problem
MultiRobotState
p44
(dp45
g19
g20
((lp46
(I9
I6
tp47
a(I8
I6
tp48
a(I7
I6
tp49
ag43
a(I7
I0
tp50
atp51
Rp52
sg15
I10
sg28
g20
((lp53
(I5
I4
tp54
a(I2
I6
tp55
a(I7
I1
tp56
a(I6
I1
tp57
a(I1
I6
tp58
a(I0
I5
tp59
a(I8
I7
tp60
a(I0
I9
tp61
a(I9
I5
tp62
atp63
Rp64
sg13
((I7
I8
tp65
(I6
I7
tp66
(I3
I5
tp67
(I3
I9
tp68
tp69
sg14
I10
sbs(iproblems
RoomID
p70
(dp71
g10
I6
sg11
(I4
I4
tp72
sg13
I4
sg14
I9
sg15
I9
sg16
I5891625650498269233
sb(imulti_robot_problem
MultiRobotState
p73
(dp74
g19
g20
((lp75
(I2
I7
tp76
a(I4
I5
tp77
ag72
a(I3
I6
tp78
atp79
Rp80
sg15
I9
sg28
g20
((lp81
(I7
I4
tp82
a(I8
I3
tp83
a(I0
I5
tp84
a(I5
I5
tp85
a(I6
I6
tp86
a(I4
I0
tp87
atp88
Rp89
sg13
((I4
I6
tp90
(I7
I1
tp91
(I0
I4
tp92
(I7
I2
tp93
tp94
sg14
I9
sbs(iproblems
RoomID
p95
(dp96
g10
I6
sg11
(I1
I6
tp97
sg13
I4
sg14
I8
sg15
I10
sg16
I403795515464475257
sb(imulti_robot_problem
MultiRobotState
p98
(dp99
g19
g20
((lp100
(I8
I3
tp101
a(I1
I3
tp102
a(I6
I7
tp103
a(I0
I4
tp104
ag97
a(I4
I1
tp105
a(I0
I5
tp106
atp107
Rp108
sg15
I10
sg28
g20
((lp109
(I7
I3
tp110
a(I4
I7
tp111
a(I2
I2
tp112
a(I8
I0
tp113
a(I0
I2
tp114
a(I0
I7
tp115
atp116
Rp117
sg13
((I8
I2
tp118
(I6
I1
tp119
(I5
I0
tp120
(I2
I0
tp121
tp122
sg14
I8
sbs(iproblems
RoomID
p123
(dp124
g10
I5
sg11
(I3
I4
tp125
sg13
I1
sg14
I9
sg15
I9
sg16
I2685440357799139976
sb(imulti_robot_problem
MultiRobotState
p126
(dp127
g19
g20
((lp128
(I8
I3
tp129
a(I1
I3
tp130
a(I5
I6
tp131
ag125
a(I2
I4
tp132
a(I3
I8
tp133
a(I2
I3
tp134
a(I7
I8
tp135
a(I1
I1
tp136
atp137
Rp138
sg15
I9
sg28
g20
((lp139
(I0
I1
tp140
a(I0
I0
tp141
a(I3
I1
tp142
a(I8
I7
tp143
a(I5
I0
tp144
atp145
Rp146
sg13
((I5
I5
tp147
tp148
sg14
I9
sbssS'name'
p149
S'easy_roomset'
p150
sbsg149
S'AnytimeBest-d10_with_PowerHeuristic2'
p151
sS'solutions'
p152
(dp153
g8
((lp154
F0.38000000000465661
tp155
sg41
((lp156
F40.119999999995343
tp157
sg95
((lp158
F40.029999999998836
tp159
sg123
((lp160
F0.16999999999825377
tp161
sg70
((lp162
(F0.41000000000349246
I8
tp163
aF40.05000000000291
tp164
ssba(imeasure_core
ProblemSetSolution
p165
(dp166
g3
(imeasure_core
RoomSet
p167
(dp168
g6
(dp169
(iproblems
RoomID
p170
(dp171
g10
I9
sg11
(I7
I7
tp172
sg13
I4
sg14
I12
sg15
I12
sg16
I679259829289197625
sb(imulti_robot_problem
MultiRobotState
p173
(dp174
g19
g20
((lp175
(I6
I4
tp176
a(I6
I9
tp177
a(I6
I6
tp178
a(I5
I6
tp179
a(I9
I8
tp180
a(I11
I9
tp181
ag172
a(I1
I4
tp182
a(I11
I7
tp183
a(I7
I5
tp184
a(I8
I7
tp185
a(I4
I2
tp186
a(I8
I5
tp187
a(I6
I5
tp188
a(I10
I8
tp189
a(I10
I5
tp190
a(I6
I7
tp191
a(I6
I8
tp192
a(I10
I7
tp193
a(I9
I6
tp194
a(I7
I6
tp195
a(I8
I10
tp196
a(I7
I4
tp197
a(I11
I8
tp198
a(I7
I10
tp199
a(I8
I6
tp200
a(I6
I1
tp201
a(I9
I7
tp202
atp203
Rp204
sg15
I12
sg28
g20
((lp205
(I2
I7
tp206
a(I9
I0
tp207
a(I8
I2
tp208
a(I7
I1
tp209
a(I11
I0
tp210
a(I0
I11
tp211
a(I1
I6
tp212
a(I1
I7
tp213
a(I11
I6
tp214
atp215
Rp216
sg13
((I9
I10
tp217
(I8
I9
tp218
(I3
I7
tp219
(I3
I11
tp220
tp221
sg14
I12
sbs(iproblems
RoomID
p222
(dp223
g10
I5
sg11
(I9
I1
tp224
sg13
I3
sg14
I11
sg15
I11
sg16
I2685440357799139976
sb(imulti_robot_problem
MultiRobotState
p225
(dp226
g19
g20
((lp227
(I7
I3
tp228
a(I10
I4
tp229
a(I9
I3
tp230
ag224
a(I7
I1
tp231
a(I5
I6
tp232
a(I10
I6
tp233
a(I1
I4
tp234
a(I9
I9
tp235
a(I3
I9
tp236
a(I9
I4
tp237
a(I6
I8
tp238
a(I9
I6
tp239
a(I3
I4
tp240
a(I10
I3
tp241
a(I7
I2
tp242
a(I5
I3
tp243
a(I8
I3
tp244
a(I5
I5
tp245
a(I10
I7
tp246
a(I8
I5
tp247
a(I9
I2
tp248
a(I3
I6
tp249
a(I4
I5
tp250
a(I6
I5
tp251
a(I7
I10
tp252
a(I9
I5
tp253
a(I3
I5
tp254
a(I7
I8
tp255
a(I2
I4
tp256
a(I10
I9
tp257
atp258
Rp259
sg15
I11
sg28
g20
((lp260
(I1
I2
tp261
a(I9
I10
tp262
a(I6
I1
tp263
a(I4
I1
tp264
a(I0
I2
tp265
atp266
Rp267
sg13
((I6
I6
tp268
(I0
I0
tp269
(I10
I8
tp270
tp271
sg14
I11
sbs(iproblems
RoomID
p272
(dp273
g10
I6
sg11
(I3
I9
tp274
sg13
I4
sg14
I11
sg15
I11
sg16
I5891625650498269233
sb(imulti_robot_problem
MultiRobotState
p275
(dp276
g19
g20
((lp277
(I7
I3
tp278
a(I4
I7
tp279
a(I6
I6
tp280
a(I5
I6
tp281
a(I2
I8
tp282
a(I6
I2
tp283
a(I5
I1
tp284
a(I3
I7
tp285
a(I8
I5
tp286
a(I5
I5
tp287
a(I2
I9
tp288
a(I7
I6
tp289
a(I4
I4
tp290
a(I2
I2
tp291
a(I1
I1
tp292
a(I9
I7
tp293
a(I3
I2
tp294
a(I10
I4
tp295
a(I4
I5
tp296
a(I9
I3
tp297
a(I10
I5
tp298
a(I2
I10
tp299
a(I7
I5
tp300
a(I2
I3
tp301
a(I8
I3
tp302
a(I4
I6
tp303
a(I5
I2
tp304
a(I6
I1
tp305
a(I3
I8
tp306
a(I1
I8
tp307
ag274
a(I4
I3
tp308
a(I9
I5
tp309
a(I3
I4
tp310
a(I8
I4
tp311
atp312
Rp313
sg15
I11
sg28
g20
((lp314
(I8
I8
tp315
a(I5
I10
tp316
a(I9
I1
tp317
a(I10
I7
tp318
a(I1
I6
tp319
a(I7
I9
tp320
atp321
Rp322
sg13
((I5
I7
tp323
(I8
I1
tp324
(I0
I5
tp325
(I4
I0
tp326
tp327
sg14
I11
sbs(iproblems
RoomID
p328
(dp329
g10
I10
sg11
(I1
I5
tp330
sg13
I4
sg14
I12
sg15
I10
sg16
I1737871632067391849
sb(imulti_robot_problem
MultiRobotState
p331
(dp332
g19
g20
((lp333
(I3
I2
tp334
a(I0
I0
tp335
a(I6
I6
tp336
a(I5
I6
tp337
a(I2
I8
tp338
a(I2
I10
tp339
a(I8
I9
tp340
a(I6
I2
tp341
a(I2
I3
tp342
a(I8
I7
tp343
a(I5
I1
tp344
a(I8
I5
tp345
a(I5
I8
tp346
a(I8
I3
tp347
a(I5
I5
tp348
a(I7
I8
tp349
a(I7
I6
tp350
a(I8
I10
tp351
ag330
a(I6
I5
tp352
a(I2
I2
tp353
a(I4
I1
tp354
a(I2
I4
tp355
atp356
Rp357
sg15
I10
sg28
g20
((lp358
(I0
I1
tp359
a(I4
I10
tp360
a(I4
I8
tp361
a(I3
I0
tp362
a(I9
I6
tp363
a(I3
I10
tp364
a(I5
I11
tp365
a(I2
I7
tp366
a(I1
I9
tp367
a(I3
I4
tp368
atp369
Rp370
sg13
((I4
I9
tp371
(I8
I11
tp372
(I4
I0
tp373
(I3
I9
tp374
tp375
sg14
I12
sbs(iproblems
RoomID
p376
(dp377
g10
I7
sg11
(I8
I8
tp378
sg13
I3
sg14
I9
sg15
I9
sg16
I7834319822419845881
sb(imulti_robot_problem
MultiRobotState
p379
(dp380
g19
g20
((lp381
(I4
I7
tp382
a(I1
I3
tp383
a(I5
I0
tp384
a(I6
I6
tp385
a(I5
I6
tp386
a(I2
I8
tp387
a(I3
I5
tp388
a(I4
I6
tp389
a(I2
I6
tp390
a(I0
I5
tp391
a(I3
I7
tp392
a(I0
I3
tp393
a(I0
I8
tp394
a(I8
I5
tp395
a(I5
I8
tp396
a(I3
I3
tp397
a(I2
I7
tp398
a(I6
I7
tp399
a(I5
I5
tp400
a(I7
I8
tp401
a(I4
I4
tp402
a(I1
I5
tp403
a(I1
I8
tp404
ag378
a(I3
I6
tp405
a(I1
I7
tp406
a(I4
I5
tp407
a(I5
I3
tp408
a(I3
I4
tp409
atp410
Rp411
sg15
I9
sg28
g20
((lp412
(I7
I4
tp413
a(I2
I0
tp414
a(I6
I2
tp415
a(I7
I0
tp416
a(I8
I7
tp417
a(I7
I1
tp418
a(I1
I4
tp419
atp420
Rp421
sg13
((I2
I1
tp422
(I2
I3
tp423
(I5
I7
tp424
tp425
sg14
I9
sbssg149
S'mild_roomset'
p426
sbsg149
g151
sg152
(dp427
g170
((lp428
F40.099999999998545
tp429
sg222
((lp430
F40.100000000005821
tp431
sg272
((lp432
F40.159999999996217
tp433
sg328
((lp434
F40.020000000004075
tp435
sg376
((lp436
F40.009999999994761
tp437
ssba(imeasure_core
ProblemSetSolution
p438
(dp439
g3
(imeasure_core
RoomSet
p440
(dp441
g6
(dp442
(iproblems
RoomID
p443
(dp444
g10
I12
sg11
(I6
I3
tp445
sg13
I5
sg14
I10
sg15
I12
sg16
I1486246605650367638
sb(imulti_robot_problem
MultiRobotState
p446
(dp447
g19
g20
((lp448
(I5
I9
tp449
a(I1
I3
tp450
a(I7
I1
tp451
a(I2
I7
tp452
a(I1
I4
tp453
a(I6
I2
tp454
a(I1
I6
tp455
a(I2
I1
tp456
a(I0
I3
tp457
a(I6
I5
tp458
a(I1
I2
tp459
a(I1
I5
tp460
a(I4
I1
tp461
a(I3
I1
tp462
ag445
a(I2
I0
tp463
a(I10
I0
tp464
a(I5
I2
tp465
a(I1
I1
tp466
a(I8
I4
tp467
atp468
Rp469
sg15
I12
sg28
g20
((lp470
(I11
I7
tp471
a(I11
I4
tp472
a(I9
I1
tp473
a(I11
I8
tp474
a(I2
I8
tp475
a(I6
I0
tp476
a(I0
I6
tp477
a(I11
I1
tp478
a(I0
I4
tp479
a(I4
I9
tp480
a(I10
I9
tp481
a(I9
I7
tp482
atp483
Rp484
sg13
((I2
I4
tp485
(I10
I1
tp486
(I2
I5
tp487
(I9
I8
tp488
(I6
I6
tp489
tp490
sg14
I10
sbs(iproblems
RoomID
p491
(dp492
g10
I14
sg11
(I7
I6
tp493
sg13
I7
sg14
I13
sg15
I13
sg16
I679259829289197625
sb(imulti_robot_problem
MultiRobotState
p494
(dp495
g19
g20
((lp496
(I6
I4
tp497
a(I4
I8
tp498
a(I12
I7
tp499
a(I10
I6
tp500
a(I7
I5
tp501
a(I12
I11
tp502
a(I9
I6
tp503
a(I1
I2
tp504
a(I11
I7
tp505
a(I10
I7
tp506
ag493
a(I6
I3
tp507
a(I6
I2
tp508
a(I4
I3
tp509
a(I3
I4
tp510
a(I12
I8
tp511
atp512
Rp513
sg15
I13
sg28
g20
((lp514
(I2
I7
tp515
a(I12
I1
tp516
a(I9
I2
tp517
a(I2
I8
tp518
a(I5
I7
tp519
a(I10
I0
tp520
a(I1
I4
tp521
a(I0
I12
tp522
a(I7
I4
tp523
a(I10
I9
tp524
a(I4
I2
tp525
a(I11
I4
tp526
a(I11
I6
tp527
a(I1
I9
tp528
atp529
Rp530
sg13
((I9
I11
tp531
(I9
I10
tp532
(I4
I7
tp533
(I4
I12
tp534
(I7
I1
tp535
(I1
I8
tp536
(I1
I6
tp537
tp538
sg14
I13
sbs(iproblems
RoomID
p539
(dp540
g10
I11
sg11
(I11
I9
tp541
sg13
I7
sg14
I12
sg15
I12
sg16
I5891625650498269233
sb(imulti_robot_problem
MultiRobotState
p542
(dp543
g19
g20
((lp544
(I4
I4
tp545
a(I4
I8
tp546
a(I5
I6
tp547
a(I8
I11
tp548
ag541
a(I7
I7
tp549
a(I7
I1
tp550
a(I9
I10
tp551
a(I3
I9
tp552
a(I1
I9
tp553
a(I6
I7
tp554
a(I10
I7
tp555
a(I7
I6
tp556
a(I5
I7
tp557
a(I2
I11
tp558
a(I6
I11
tp559
a(I9
I11
tp560
a(I7
I10
tp561
a(I10
I9
tp562
atp563
Rp564
sg15
I12
sg28
g20
((lp565
(I11
I7
tp566
a(I11
I4
tp567
a(I4
I6
tp568
a(I5
I11
tp569
a(I8
I10
tp570
a(I0
I5
tp571
a(I8
I7
tp572
a(I1
I7
tp573
a(I10
I1
tp574
a(I1
I1
tp575
a(I5
I5
tp576
atp577
Rp578
sg13
((I6
I8
tp579
(I9
I2
tp580
(I0
I6
tp581
(I10
I3
tp582
(I9
I5
tp583
(I5
I0
tp584
(I9
I8
tp585
tp586
sg14
I12
sbs(iproblems
RoomID
p587
(dp588
g10
I11
sg11
(I2
I7
tp589
sg13
I6
sg14
I11
sg15
I13
sg16
I403795515464475257
sb(imulti_robot_problem
MultiRobotState
p590
(dp591
g19
g20
((lp592
g589
a(I10
I8
tp593
a(I1
I7
tp594
a(I3
I10
tp595
a(I4
I4
tp596
a(I1
I4
tp597
a(I12
I5
tp598
a(I0
I6
tp599
a(I0
I5
tp600
a(I3
I6
tp601
a(I2
I2
tp602
a(I0
I8
tp603
a(I7
I9
tp604
atp605
Rp606
sg15
I13
sg28
g20
((lp607
(I6
I4
tp608
a(I0
I0
tp609
a(I2
I9
tp610
a(I11
I5
tp611
a(I8
I9
tp612
a(I11
I1
tp613
a(I2
I3
tp614
a(I1
I10
tp615
a(I12
I2
tp616
a(I0
I3
tp617
a(I5
I2
tp618
atp619
Rp620
sg13
((I10
I3
tp621
(I7
I2
tp622
(I7
I0
tp623
(I3
I1
tp624
(I5
I10
tp625
(I9
I4
tp626
tp627
sg14
I11
sbs(iproblems
RoomID
p628
(dp629
g10
I10
sg11
(I6
I9
tp630
sg13
I5
sg14
I12
sg15
I12
sg16
I2685440357799139976
sb(imulti_robot_problem
MultiRobotState
p631
(dp632
g19
g20
((lp633
(I4
I10
tp634
ag630
a(I9
I1
tp635
a(I5
I11
tp636
a(I3
I0
tp637
a(I0
I7
tp638
a(I3
I9
tp639
a(I0
I5
tp640
a(I1
I4
tp641
a(I0
I3
tp642
a(I4
I0
tp643
a(I1
I2
tp644
a(I11
I10
tp645
a(I6
I10
tp646
a(I5
I6
tp647
a(I9
I11
tp648
a(I7
I9
tp649
a(I4
I5
tp650
a(I3
I5
tp651
a(I3
I4
tp652
a(I2
I4
tp653
a(I1
I9
tp654
atp655
Rp656
sg15
I12
sg28
g20
((lp657
(I11
I7
tp658
a(I8
I3
tp659
a(I10
I11
tp660
a(I7
I1
tp661
a(I10
I5
tp662
a(I8
I10
tp663
a(I6
I3
tp664
a(I3
I6
tp665
a(I9
I10
tp666
a(I6
I5
tp667
atp668
Rp669
sg13
((I7
I7
tp670
(I0
I0
tp671
(I11
I9
tp672
(I0
I2
tp673
(I4
I1
tp674
tp675
sg14
I12
sbssg149
S'heavy_roomset'
p676
sbsg149
g151
sg152
(dp677
g443
((lp678
F40.5
tp679
sg491
((lp680
F44.319999999999709
tp681
sg539
((lp682
F48.129999999997381
tp683
sg587
((lp684
F40.680000000000291
tp685
sg628
((lp686
F40.389999999999418
tp687
ssba(imeasure_core
ProblemSetSolution
p688
(dp689
g3
g4
sg149
S'AnytimeBest-d80_with_PowerHeuristic2'
p690
sg152
(dp691
g8
((lp692
(F0.30000000000291038
I45
tp693
a(F1.1600000000034925
I44
tp694
a(F1.3800000000046566
I37
tp695
a(F2.0
I36
tp696
a(F2.2000000000043656
I34
tp697
a(F4.9200000000055297
I33
tp698
a(F5.7100000000064028
I31
tp699
a(F7.9000000000014552
I30
tp700
a(F9.0200000000040745
I28
tp701
a(F9.3300000000017462
I26
tp702
a(F14.590000000003783
I25
tp703
a(F18.040000000000873
I24
tp704
aF23.740000000005239
tp705
sg41
((lp706
(F0.80999999999767169
I20
tp707
aF40.019999999996799
tp708
sg95
((lp709
F40.049999999995634
tp710
sg123
((lp711
(F0.27000000000407454
I47
tp712
a(F2.0800000000017462
I45
tp713
a(F2.3899999999994179
I43
tp714
a(F2.7000000000043656
I35
tp715
a(F4.2099999999991269
I33
tp716
a(F4.8600000000005821
I31
tp717
a(F5.4400000000023283
I29
tp718
a(F7.7000000000043656
I27
tp719
a(F10.090000000003783
I25
tp720
a(F10.400000000001455
I23
tp721
aF10.490000000005239
tp722
sg70
((lp723
(F0.41000000000349246
I8
tp724
aF40.05000000000291
tp725
ssba(imeasure_core
ProblemSetSolution
p726
(dp727
g3
g167
sg149
g690
sg152
(dp728
g170
((lp729
F40.040000000000873
tp730
sg222
((lp731
F40.019999999996799
tp732
sg272
((lp733
(F3.4400000000023283
I64
tp734
aF40.029999999998836
tp735
sg328
((lp736
(F0.36000000000058208
I12
tp737
aF40.029999999998836
tp738
sg376
((lp739
(F0.08000000000174623
I25
tp740
aF40.0
tp741
ssba(imeasure_core
ProblemSetSolution
p742
(dp743
g3
g440
sg149
g690
sg152
(dp744
g443
((lp745
F40.230000000003201
tp746
sg491
((lp747
F43.979999999995925
tp748
sg539
((lp749
F47.569999999999709
tp750
sg587
((lp751
(F26.059999999997672
I19
tp752
aF40.260000000002037
tp753
sg628
((lp754
(F5.8600000000005821
I58
tp755
aF40.049999999995634
tp756
ssba(imeasure_core
ProblemSetSolution
p757
(dp758
g3
g4
sg149
S'AnytimeBest-d150_with_PowerHeuristic2'
p759
sg152
(dp760
g8
((lp761
(F0.30000000000291038
I45
tp762
a(F1.1600000000034925
I44
tp763
a(F1.3700000000026193
I37
tp764
a(F1.9899999999979627
I36
tp765
a(F2.1900000000023283
I34
tp766
a(F4.9100000000034925
I33
tp767
a(F5.7000000000043656
I31
tp768
a(F7.8899999999994179
I30
tp769
a(F9.0200000000040745
I28
tp770
a(F9.319999999999709
I26
tp771
a(F14.590000000003783
I25
tp772
a(F18.040000000000873
I24
tp773
aF23.760000000002037
tp774
sg41
((lp775
(F0.79000000000087311
I20
tp776
aF40.05000000000291
tp777
sg95
((lp778
(F11.430000000000291
I134
tp779
aF40.020000000004075
tp780
sg123
((lp781
(F0.26999999999679858
I47
tp782
a(F2.0899999999965075
I45
tp783
a(F2.4000000000014552
I43
tp784
a(F2.7099999999991269
I35
tp785
a(F4.2299999999959255
I33
tp786
a(F4.8799999999973807
I31
tp787
a(F5.4599999999991269
I29
tp788
a(F7.7299999999959255
I27
tp789
a(F10.119999999995343
I25
tp790
a(F10.430000000000291
I23
tp791
aF10.529999999998836
tp792
sg70
((lp793
(F0.4099999999962165
I8
tp794
aF40.07999999999447
tp795
ssba(imeasure_core
ProblemSetSolution
p796
(dp797
g3
g167
sg149
g759
sg152
(dp798
g170
((lp799
F40.180000000000291
tp800
sg222
((lp801
(F8.3699999999953434
I127
tp802
aF40.010000000002037
tp803
sg272
((lp804
(F3.430000000000291
I64
tp805
aF40.119999999995343
tp806
sg328
((lp807
(F0.36000000000058208
I12
tp808
aF40.029999999998836
tp809
sg376
((lp810
(F0.08000000000174623
I25
tp811
aF40.0
tp812
ssba(imeasure_core
ProblemSetSolution
p813
(dp814
g3
g440
sg149
g759
sg152
(dp815
g443
((lp816
(F30.590000000003783
I113
tp817
aF40.459999999999127
tp818
sg491
((lp819
F44.25
tp820
sg539
((lp821
F48.120000000002619
tp822
sg587
((lp823
(F25.849999999998545
I19
tp824
aF40.319999999999709
tp825
sg628
((lp826
(F5.8700000000026193
I58
tp827
aF40.05000000000291
tp828
ssba(imeasure_core
ProblemSetSolution
p829
(dp830
g3
g4
sg149
S'AnytimeBest-d250_with_PowerHeuristic2'
p831
sg152
(dp832
g8
((lp833
(F0.30000000000291038
I45
tp834
a(F1.1500000000014552
I44
tp835
a(F1.3700000000026193
I37
tp836
a(F1.9800000000032014
I36
tp837
a(F2.1900000000023283
I34
tp838
a(F4.9000000000014552
I33
tp839
a(F5.6900000000023283
I31
tp840
a(F7.8700000000026193
I30
tp841
a(F8.9900000000052387
I28
tp842
a(F9.2900000000008731
I26
tp843
a(F14.55000000000291
I25
tp844
a(F17.990000000005239
I24
tp845
aF23.680000000000291
tp846
sg41
((lp847
(F0.81000000000494765
I20
tp848
aF40.090000000003783
tp849
sg95
((lp850
(F11.459999999999127
I134
tp851
aF40.029999999998836
tp852
sg123
((lp853
(F0.25999999999476131
I47
tp854
a(F2.0799999999944703
I45
tp855
a(F2.3899999999994179
I43
tp856
a(F2.6999999999970896
I35
tp857
a(F4.2099999999991269
I33
tp858
a(F4.8699999999953434
I31
tp859
a(F5.4499999999970896
I29
tp860
a(F7.7099999999991269
I27
tp861
a(F10.089999999996508
I25
tp862
a(F10.409999999996217
I23
tp863
aF10.5
tp864
sg70
((lp865
(F0.40000000000145519
I8
tp866
aF40.05000000000291
tp867
ssba(imeasure_core
ProblemSetSolution
p868
(dp869
g3
g167
sg149
g831
sg152
(dp870
g170
((lp871
F40.25
tp872
sg222
((lp873
(F8.3600000000005821
I127
tp874
aF40.060000000004948
tp875
sg272
((lp876
(F3.430000000000291
I64
tp877
aF40.029999999998836
tp878
sg328
((lp879
(F0.36000000000058208
I12
tp880
aF40.029999999998836
tp881
sg376
((lp882
(F0.08000000000174623
I25
tp883
aF40.0
tp884
ssba(imeasure_core
ProblemSetSolution
p885
(dp886
g3
g440
sg149
g831
sg152
(dp887
g443
((lp888
(F30.650000000001455
I113
tp889
aF40.849999999998545
tp890
sg491
((lp891
F44.230000000003201
tp892
sg539
((lp893
F48.119999999995343
tp894
sg587
((lp895
(F25.870000000002619
I19
tp896
aF40.360000000000582
tp897
sg628
((lp898
(F5.8700000000026193
I58
tp899
aF40.05000000000291
tp900
ssba(imeasure_core
ProblemSetSolution
p901
(dp902
g3
g4
sg149
S'AnytimeBest-d400_with_PowerHeuristic2'
p903
sg152
(dp904
g8
((lp905
(F0.29999999999563443
I45
tp906
a(F1.1499999999941792
I44
tp907
a(F1.3699999999953434
I37
tp908
a(F1.9899999999979627
I36
tp909
a(F2.1899999999950523
I34
tp910
a(F4.9099999999962165
I33
tp911
a(F5.6999999999970896
I31
tp912
a(F7.8799999999973807
I30
tp913
a(F9.0099999999947613
I28
tp914
a(F9.3099999999976717
I26
tp915
a(F14.569999999999709
I25
tp916
a(F18.0
I24
tp917
aF23.709999999999127
tp918
sg41
((lp919
(F0.79999999999563443
I20
tp920
aF40.080000000001746
tp921
sg95
((lp922
(F11.470000000001164
I134
tp923
aF40.020000000004075
tp924
sg123
((lp925
(F0.26999999999679858
I47
tp926
a(F2.0799999999944703
I45
tp927
a(F2.3999999999941792
I43
tp928
a(F2.7099999999991269
I35
tp929
a(F4.2199999999938882
I33
tp930
a(F4.8799999999973807
I31
tp931
a(F5.4599999999991269
I29
tp932
a(F7.7199999999938882
I27
tp933
a(F10.110000000000582
I25
tp934
a(F10.419999999998254
I23
tp935
aF10.519999999996799
tp936
sg70
((lp937
(F0.4099999999962165
I8
tp938
aF40.049999999995634
tp939
ssba(imeasure_core
ProblemSetSolution
p940
(dp941
g3
g167
sg149
g903
sg152
(dp942
g170
((lp943
F40.389999999999418
tp944
sg222
((lp945
(F8.3700000000026193
I127
tp946
aF40.059999999997672
tp947
sg272
((lp948
(F3.430000000000291
I64
tp949
aF40.030000000006112
tp950
sg328
((lp951
(F0.36000000000058208
I12
tp952
aF40.029999999998836
tp953
sg376
((lp954
(F0.08000000000174623
I25
tp955
aF40.0
tp956
ssba(imeasure_core
ProblemSetSolution
p957
(dp958
g3
g440
sg149
g903
sg152
(dp959
g443
((lp960
(F30.69999999999709
I113
tp961
aF40.189999999995052
tp962
sg491
((lp963
F44.270000000004075
tp964
sg539
((lp965
F48.080000000001746
tp966
sg587
((lp967
(F25.899999999994179
I19
tp968
aF40.519999999996799
tp969
sg628
((lp970
(F5.9199999999982538
I58
tp971
aF40.05000000000291
tp972
ssba(imeasure_core
ProblemSetSolution
p973
(dp974
g3
g4
sg149
S'AnytimeBest-d10_with_LinearHeuristic'
p975
sg152
(dp976
g8
((lp977
F1.4399999999950523
tp978
sg41
((lp979
F40.110000000000582
tp980
sg95
((lp981
F40.139999999999418
tp982
sg123
((lp983
F0.46000000000640284
tp984
sg70
((lp985
(F0.31999999999970896
I4
tp986
aF40.139999999999418
tp987
ssba(imeasure_core
ProblemSetSolution
p988
(dp989
g3
g167
sg149
g975
sg152
(dp990
g170
((lp991
F40.059999999997672
tp992
sg222
((lp993
(F37.510000000002037
I10
tp994
aF40.069999999999709
tp995
sg272
((lp996
F40.120000000002619
tp997
sg328
((lp998
F40.099999999998545
tp999
sg376
((lp1000
F40.009999999994761
tp1001
ssba(imeasure_core
ProblemSetSolution
p1002
(dp1003
g3
g440
sg149
g975
sg152
(dp1004
g443
((lp1005
F40.290000000000873
tp1006
sg491
((lp1007
F53.020000000004075
tp1008
sg539
((lp1009
F41.849999999998545
tp1010
sg587
((lp1011
(F21.959999999999127
I10
tp1012
aF43.059999999997672
tp1013
sg628
((lp1014
F40.130000000004657
tp1015
ssba(imeasure_core
ProblemSetSolution
p1016
(dp1017
g3
g4
sg149
S'AnytimeBest-d80_with_LinearHeuristic'
p1018
sg152
(dp1019
g8
((lp1020
(F0.019999999996798579
I24
tp1021
aF40.0
tp1022
sg41
((lp1023
F40.069999999999709
tp1024
sg95
((lp1025
F40.129999999997381
tp1026
sg123
((lp1027
(F0.019999999996798579
I23
tp1028
aF8.2999999999956344
tp1029
sg70
((lp1030
(F0.31999999999970896
I4
tp1031
aF40.150000000001455
tp1032
ssba(imeasure_core
ProblemSetSolution
p1033
(dp1034
g3
g167
sg149
g1018
sg152
(dp1035
g170
((lp1036
F40.05000000000291
tp1037
sg222
((lp1038
F40.059999999997672
tp1039
sg272
((lp1040
F40.040000000000873
tp1041
sg328
((lp1042
F40.069999999999709
tp1043
sg376
((lp1044
F40.040000000000873
tp1045
ssba(imeasure_core
ProblemSetSolution
p1046
(dp1047
g3
g440
sg149
g1018
sg152
(dp1048
g443
((lp1049
F40.479999999995925
tp1050
sg491
((lp1051
F52.680000000000291
tp1052
sg539
((lp1053
F41.710000000006403
tp1054
sg587
((lp1055
(F22.129999999997381
I10
tp1056
aF42.759999999994761
tp1057
sg628
((lp1058
F40.069999999999709
tp1059
ssba(imeasure_core
ProblemSetSolution
p1060
(dp1061
g3
g4
sg149
S'AnytimeBest-d150_with_LinearHeuristic'
p1062
sg152
(dp1063
g8
((lp1064
(F0.010000000002037268
I24
tp1065
aF40.0
tp1066
sg41
((lp1067
F40.080000000001746
tp1068
sg95
((lp1069
F40.069999999999709
tp1070
sg123
((lp1071
(F0.019999999996798579
I23
tp1072
aF8.2699999999967986
tp1073
sg70
((lp1074
(F0.31999999999970896
I4
tp1075
aF40.260000000002037
tp1076
ssba(imeasure_core
ProblemSetSolution
p1077
(dp1078
g3
g167
sg149
g1062
sg152
(dp1079
g170
((lp1080
F40.209999999999127
tp1081
sg222
((lp1082
F40.019999999996799
tp1083
sg272
((lp1084
F40.110000000000582
tp1085
sg328
((lp1086
F40.05000000000291
tp1087
sg376
((lp1088
F40.0
tp1089
ssba(imeasure_core
ProblemSetSolution
p1090
(dp1091
g3
g440
sg149
g1062
sg152
(dp1092
g443
((lp1093
F41.269999999996799
tp1094
sg491
((lp1095
F52.830000000001746
tp1096
sg539
((lp1097
F41.220000000001164
tp1098
sg587
((lp1099
(F21.919999999998254
I10
tp1100
aF42.970000000001164
tp1101
sg628
((lp1102
F40.319999999999709
tp1103
ssba(imeasure_core
ProblemSetSolution
p1104
(dp1105
g3
g4
sg149
S'AnytimeBest-d250_with_LinearHeuristic'
p1106
sg152
(dp1107
g8
((lp1108
(F0.010000000002037268
I24
tp1109
aF40.0
tp1110
sg41
((lp1111
F40.330000000001746
tp1112
sg95
((lp1113
F40.07999999999447
tp1114
sg123
((lp1115
(F0.020000000004074536
I23
tp1116
aF8.319999999999709
tp1117
sg70
((lp1118
(F0.31999999999970896
I4
tp1119
aF40.200000000004366
tp1120
ssba(imeasure_core
ProblemSetSolution
p1121
(dp1122
g3
g167
sg149
g1106
sg152
(dp1123
g170
((lp1124
F40.060000000004948
tp1125
sg222
((lp1126
F40.019999999996799
tp1127
sg272
((lp1128
F40.160000000003492
tp1129
sg328
((lp1130
F40.549999999995634
tp1131
sg376
((lp1132
F40.020000000004075
tp1133
ssba(imeasure_core
ProblemSetSolution
p1134
(dp1135
g3
g440
sg149
g1106
sg152
(dp1136
g443
((lp1137
F41.080000000001746
tp1138
sg491
((lp1139
F52.720000000001164
tp1140
sg539
((lp1141
F41.580000000001746
tp1142
sg587
((lp1143
(F22.080000000001746
I10
tp1144
aF42.659999999996217
tp1145
sg628
((lp1146
F40.290000000000873
tp1147
ssba(imeasure_core
ProblemSetSolution
p1148
(dp1149
g3
g4
sg149
S'AnytimeBest-d400_with_LinearHeuristic'
p1150
sg152
(dp1151
g8
((lp1152
(F0.010000000002037268
I24
tp1153
aF40.0
tp1154
sg41
((lp1155
F40.360000000000582
tp1156
sg95
((lp1157
F40.099999999998545
tp1158
sg123
((lp1159
(F0.020000000004074536
I23
tp1160
aF8.3100000000049477
tp1161
sg70
((lp1162
(F0.31999999999970896
I4
tp1163
aF40.269999999996799
tp1164
ssba(imeasure_core
ProblemSetSolution
p1165
(dp1166
g3
g167
sg149
g1150
sg152
(dp1167
g170
((lp1168
F40.080000000001746
tp1169
sg222
((lp1170
F40.019999999996799
tp1171
sg272
((lp1172
F40.099999999998545
tp1173
sg328
((lp1174
F40.510000000002037
tp1175
sg376
((lp1176
F40.010000000002037
tp1177
ssba(imeasure_core
ProblemSetSolution
p1178
(dp1179
g3
g440
sg149
g1150
sg152
(dp1180
g443
((lp1181
F40.189999999995052
tp1182
sg491
((lp1183
F52.889999999999418
tp1184
sg539
((lp1185
F41.850000000005821
tp1186
sg587
((lp1187
(F22.0
I10
tp1188
aF43.069999999999709
tp1189
sg628
((lp1190
F40.25
tp1191
ssba.