(lp0
(imeasure_core
ProblemSetSolution
p1
(dp2
S'roomset'
p3
(imeasure_core
RoomSet
p4
(dp5
S'rooms'
p6
(dp7
(iproblems
RoomID
p8
(dp9
S'dusts'
p10
I7
sS'obstacles'
p11
(I1
I3
tp12
sS'robots'
p13
I1
sS'height'
p14
I7
sS'width'
p15
I9
sS'seed'
p16
I1486246605650367638
sb(imulti_robot_problem
MultiRobotState
p17
(dp18
S'obstacle_locations'
p19
c__builtin__
frozenset
p20
((lp21
(I0
I1
tp22
a(I8
I3
tp23
ag12
a(I0
I3
tp24
a(I0
I2
tp25
atp26
Rp27
sg15
I9
sS'dirt_locations'
p28
g20
((lp29
(I7
I5
tp30
a(I7
I0
tp31
a(I0
I4
tp32
a(I1
I0
tp33
a(I4
I4
tp34
a(I6
I5
tp35
a(I4
I0
tp36
atp37
Rp38
sg13
((I5
I1
tp39
tp40
sg14
I7
sbs(iproblems
RoomID
p41
(dp42
g10
I9
sg11
(I7
I5
tp43
sg13
I4
sg14
I10
sg15
I10
sg16
I679259829289197625
sb(imulti_robot_problem
MultiRobotState
p44
(dp45
g19
g20
((lp46
(I9
I6
tp47
a(I8
I6
tp48
a(I7
I6
tp49
ag43
a(I7
I0
tp50
atp51
Rp52
sg15
I10
sg28
g20
((lp53
(I5
I4
tp54
a(I2
I6
tp55
a(I7
I1
tp56
a(I6
I1
tp57
a(I1
I6
tp58
a(I0
I5
tp59
a(I8
I7
tp60
a(I0
I9
tp61
a(I9
I5
tp62
atp63
Rp64
sg13
((I7
I8
tp65
(I6
I7
tp66
(I3
I5
tp67
(I3
I9
tp68
tp69
sg14
I10
sbs(iproblems
RoomID
p70
(dp71
g10
I6
sg11
(I1
I6
tp72
sg13
I4
sg14
I8
sg15
I10
sg16
I403795515464475257
sb(imulti_robot_problem
MultiRobotState
p73
(dp74
g19
g20
((lp75
(I8
I3
tp76
a(I1
I3
tp77
a(I6
I7
tp78
a(I0
I4
tp79
ag72
a(I4
I1
tp80
a(I0
I5
tp81
atp82
Rp83
sg15
I10
sg28
g20
((lp84
(I7
I3
tp85
a(I4
I7
tp86
a(I2
I2
tp87
a(I8
I0
tp88
a(I0
I2
tp89
a(I0
I7
tp90
atp91
Rp92
sg13
((I8
I2
tp93
(I6
I1
tp94
(I5
I0
tp95
(I2
I0
tp96
tp97
sg14
I8
sbs(iproblems
RoomID
p98
(dp99
g10
I6
sg11
(I4
I4
tp100
sg13
I4
sg14
I9
sg15
I9
sg16
I5891625650498269233
sb(imulti_robot_problem
MultiRobotState
p101
(dp102
g19
g20
((lp103
(I2
I7
tp104
a(I4
I5
tp105
ag100
a(I3
I6
tp106
atp107
Rp108
sg15
I9
sg28
g20
((lp109
(I7
I4
tp110
a(I8
I3
tp111
a(I0
I5
tp112
a(I5
I5
tp113
a(I6
I6
tp114
a(I4
I0
tp115
atp116
Rp117
sg13
((I4
I6
tp118
(I7
I1
tp119
(I0
I4
tp120
(I7
I2
tp121
tp122
sg14
I9
sbs(iproblems
RoomID
p123
(dp124
g10
I5
sg11
(I3
I4
tp125
sg13
I1
sg14
I9
sg15
I9
sg16
I2685440357799139976
sb(imulti_robot_problem
MultiRobotState
p126
(dp127
g19
g20
((lp128
(I8
I3
tp129
a(I1
I3
tp130
a(I5
I6
tp131
ag125
a(I2
I4
tp132
a(I3
I8
tp133
a(I2
I3
tp134
a(I7
I8
tp135
a(I1
I1
tp136
atp137
Rp138
sg15
I9
sg28
g20
((lp139
(I0
I1
tp140
a(I0
I0
tp141
a(I3
I1
tp142
a(I8
I7
tp143
a(I5
I0
tp144
atp145
Rp146
sg13
((I5
I5
tp147
tp148
sg14
I9
sbssS'name'
p149
S'easy_roomset'
p150
sbsg149
S'LimitedTimeAStar_with_PowerHeuristic2'
p151
sS'solutions'
p152
(dp153
g8
((lp154
F0.070000000001527951
tp155
sg41
((lp156
F0.75
tp157
sg70
((lp158
F46.840000000000146
tp159
sg98
((lp160
F0.41999999999825377
tp161
sg123
((lp162
F0.1000000000003638
tp163
ssba(imeasure_core
ProblemSetSolution
p164
(dp165
g3
(imeasure_core
RoomSet
p166
(dp167
g6
(dp168
(iproblems
RoomID
p169
(dp170
g10
I9
sg11
(I7
I7
tp171
sg13
I4
sg14
I12
sg15
I12
sg16
I679259829289197625
sb(imulti_robot_problem
MultiRobotState
p172
(dp173
g19
g20
((lp174
(I6
I4
tp175
a(I6
I9
tp176
a(I6
I6
tp177
a(I5
I6
tp178
a(I9
I8
tp179
a(I11
I9
tp180
ag171
a(I1
I4
tp181
a(I11
I7
tp182
a(I7
I5
tp183
a(I8
I7
tp184
a(I4
I2
tp185
a(I8
I5
tp186
a(I6
I5
tp187
a(I10
I8
tp188
a(I10
I5
tp189
a(I6
I7
tp190
a(I6
I8
tp191
a(I10
I7
tp192
a(I9
I6
tp193
a(I7
I6
tp194
a(I8
I10
tp195
a(I7
I4
tp196
a(I11
I8
tp197
a(I7
I10
tp198
a(I8
I6
tp199
a(I6
I1
tp200
a(I9
I7
tp201
atp202
Rp203
sg15
I12
sg28
g20
((lp204
(I2
I7
tp205
a(I9
I0
tp206
a(I8
I2
tp207
a(I7
I1
tp208
a(I11
I0
tp209
a(I0
I11
tp210
a(I1
I6
tp211
a(I1
I7
tp212
a(I11
I6
tp213
atp214
Rp215
sg13
((I9
I10
tp216
(I8
I9
tp217
(I3
I7
tp218
(I3
I11
tp219
tp220
sg14
I12
sbs(iproblems
RoomID
p221
(dp222
g10
I5
sg11
(I9
I1
tp223
sg13
I3
sg14
I11
sg15
I11
sg16
I2685440357799139976
sb(imulti_robot_problem
MultiRobotState
p224
(dp225
g19
g20
((lp226
(I7
I3
tp227
a(I10
I4
tp228
a(I9
I3
tp229
ag223
a(I7
I1
tp230
a(I5
I6
tp231
a(I10
I6
tp232
a(I1
I4
tp233
a(I9
I9
tp234
a(I3
I9
tp235
a(I9
I4
tp236
a(I6
I8
tp237
a(I9
I6
tp238
a(I3
I4
tp239
a(I10
I3
tp240
a(I7
I2
tp241
a(I5
I3
tp242
a(I8
I3
tp243
a(I5
I5
tp244
a(I10
I7
tp245
a(I8
I5
tp246
a(I9
I2
tp247
a(I3
I6
tp248
a(I4
I5
tp249
a(I6
I5
tp250
a(I7
I10
tp251
a(I9
I5
tp252
a(I3
I5
tp253
a(I7
I8
tp254
a(I2
I4
tp255
a(I10
I9
tp256
atp257
Rp258
sg15
I11
sg28
g20
((lp259
(I1
I2
tp260
a(I9
I10
tp261
a(I6
I1
tp262
a(I4
I1
tp263
a(I0
I2
tp264
atp265
Rp266
sg13
((I6
I6
tp267
(I0
I0
tp268
(I10
I8
tp269
tp270
sg14
I11
sbs(iproblems
RoomID
p271
(dp272
g10
I10
sg11
(I1
I5
tp273
sg13
I4
sg14
I12
sg15
I10
sg16
I1737871632067391849
sb(imulti_robot_problem
MultiRobotState
p274
(dp275
g19
g20
((lp276
(I3
I2
tp277
a(I0
I0
tp278
a(I6
I6
tp279
a(I5
I6
tp280
a(I2
I8
tp281
a(I2
I10
tp282
a(I8
I9
tp283
a(I6
I2
tp284
a(I2
I3
tp285
a(I8
I7
tp286
a(I5
I1
tp287
a(I8
I5
tp288
a(I5
I8
tp289
a(I8
I3
tp290
a(I5
I5
tp291
a(I7
I8
tp292
a(I7
I6
tp293
a(I8
I10
tp294
ag273
a(I6
I5
tp295
a(I2
I2
tp296
a(I4
I1
tp297
a(I2
I4
tp298
atp299
Rp300
sg15
I10
sg28
g20
((lp301
(I0
I1
tp302
a(I4
I10
tp303
a(I4
I8
tp304
a(I3
I0
tp305
a(I9
I6
tp306
a(I3
I10
tp307
a(I5
I11
tp308
a(I2
I7
tp309
a(I1
I9
tp310
a(I3
I4
tp311
atp312
Rp313
sg13
((I4
I9
tp314
(I8
I11
tp315
(I4
I0
tp316
(I3
I9
tp317
tp318
sg14
I12
sbs(iproblems
RoomID
p319
(dp320
g10
I7
sg11
(I8
I8
tp321
sg13
I3
sg14
I9
sg15
I9
sg16
I7834319822419845881
sb(imulti_robot_problem
MultiRobotState
p322
(dp323
g19
g20
((lp324
(I4
I7
tp325
a(I1
I3
tp326
a(I5
I0
tp327
a(I6
I6
tp328
a(I5
I6
tp329
a(I2
I8
tp330
a(I3
I5
tp331
a(I4
I6
tp332
a(I2
I6
tp333
a(I0
I5
tp334
a(I3
I7
tp335
a(I0
I3
tp336
a(I0
I8
tp337
a(I8
I5
tp338
a(I5
I8
tp339
a(I3
I3
tp340
a(I2
I7
tp341
a(I6
I7
tp342
a(I5
I5
tp343
a(I7
I8
tp344
a(I4
I4
tp345
a(I1
I5
tp346
a(I1
I8
tp347
ag321
a(I3
I6
tp348
a(I1
I7
tp349
a(I4
I5
tp350
a(I5
I3
tp351
a(I3
I4
tp352
atp353
Rp354
sg15
I9
sg28
g20
((lp355
(I7
I4
tp356
a(I2
I0
tp357
a(I6
I2
tp358
a(I7
I0
tp359
a(I8
I7
tp360
a(I7
I1
tp361
a(I1
I4
tp362
atp363
Rp364
sg13
((I2
I1
tp365
(I2
I3
tp366
(I5
I7
tp367
tp368
sg14
I9
sbs(iproblems
RoomID
p369
(dp370
g10
I6
sg11
(I3
I9
tp371
sg13
I4
sg14
I11
sg15
I11
sg16
I5891625650498269233
sb(imulti_robot_problem
MultiRobotState
p372
(dp373
g19
g20
((lp374
(I7
I3
tp375
a(I4
I7
tp376
a(I6
I6
tp377
a(I5
I6
tp378
a(I2
I8
tp379
a(I6
I2
tp380
a(I5
I1
tp381
a(I3
I7
tp382
a(I8
I5
tp383
a(I5
I5
tp384
a(I2
I9
tp385
a(I7
I6
tp386
a(I4
I4
tp387
a(I2
I2
tp388
a(I1
I1
tp389
a(I9
I7
tp390
a(I3
I2
tp391
a(I10
I4
tp392
a(I4
I5
tp393
a(I9
I3
tp394
a(I10
I5
tp395
a(I2
I10
tp396
a(I7
I5
tp397
a(I2
I3
tp398
a(I8
I3
tp399
a(I4
I6
tp400
a(I5
I2
tp401
a(I6
I1
tp402
a(I3
I8
tp403
a(I1
I8
tp404
ag371
a(I4
I3
tp405
a(I9
I5
tp406
a(I3
I4
tp407
a(I8
I4
tp408
atp409
Rp410
sg15
I11
sg28
g20
((lp411
(I8
I8
tp412
a(I5
I10
tp413
a(I9
I1
tp414
a(I10
I7
tp415
a(I1
I6
tp416
a(I7
I9
tp417
atp418
Rp419
sg13
((I5
I7
tp420
(I8
I1
tp421
(I0
I5
tp422
(I4
I0
tp423
tp424
sg14
I11
sbssg149
S'mild_roomset'
p425
sbsg149
g151
sg152
(dp426
g169
((lp427
F509.44000000000051
tp428
sg221
((lp429
F0.22999999999956344
tp430
sg271
((lp431
F0.37000000000080036
tp432
sg319
((lp433
F0.07999999999992724
tp434
sg369
((lp435
F15.289999999999054
tp436
ssba(imeasure_core
ProblemSetSolution
p437
(dp438
g3
(imeasure_core
RoomSet
p439
(dp440
g6
(dp441
(iproblems
RoomID
p442
(dp443
g10
I12
sg11
(I6
I3
tp444
sg13
I5
sg14
I10
sg15
I12
sg16
I1486246605650367638
sb(imulti_robot_problem
MultiRobotState
p445
(dp446
g19
g20
((lp447
(I5
I9
tp448
a(I1
I3
tp449
a(I7
I1
tp450
a(I2
I7
tp451
a(I1
I4
tp452
a(I6
I2
tp453
a(I1
I6
tp454
a(I2
I1
tp455
a(I0
I3
tp456
a(I6
I5
tp457
a(I1
I2
tp458
a(I1
I5
tp459
a(I4
I1
tp460
a(I3
I1
tp461
ag444
a(I2
I0
tp462
a(I10
I0
tp463
a(I5
I2
tp464
a(I1
I1
tp465
a(I8
I4
tp466
atp467
Rp468
sg15
I12
sg28
g20
((lp469
(I11
I7
tp470
a(I11
I4
tp471
a(I9
I1
tp472
a(I11
I8
tp473
a(I2
I8
tp474
a(I6
I0
tp475
a(I0
I6
tp476
a(I11
I1
tp477
a(I0
I4
tp478
a(I4
I9
tp479
a(I10
I9
tp480
a(I9
I7
tp481
atp482
Rp483
sg13
((I2
I4
tp484
(I10
I1
tp485
(I2
I5
tp486
(I9
I8
tp487
(I6
I6
tp488
tp489
sg14
I10
sbs(iproblems
RoomID
p490
(dp491
g10
I14
sg11
(I7
I6
tp492
sg13
I7
sg14
I13
sg15
I13
sg16
I679259829289197625
sb(imulti_robot_problem
MultiRobotState
p493
(dp494
g19
g20
((lp495
(I6
I4
tp496
a(I4
I8
tp497
a(I12
I7
tp498
a(I10
I6
tp499
a(I7
I5
tp500
a(I12
I11
tp501
a(I9
I6
tp502
a(I1
I2
tp503
a(I11
I7
tp504
a(I10
I7
tp505
ag492
a(I6
I3
tp506
a(I6
I2
tp507
a(I4
I3
tp508
a(I3
I4
tp509
a(I12
I8
tp510
atp511
Rp512
sg15
I13
sg28
g20
((lp513
(I2
I7
tp514
a(I12
I1
tp515
a(I9
I2
tp516
a(I2
I8
tp517
a(I5
I7
tp518
a(I10
I0
tp519
a(I1
I4
tp520
a(I0
I12
tp521
a(I7
I4
tp522
a(I10
I9
tp523
a(I4
I2
tp524
a(I11
I4
tp525
a(I11
I6
tp526
a(I1
I9
tp527
atp528
Rp529
sg13
((I9
I11
tp530
(I9
I10
tp531
(I4
I7
tp532
(I4
I12
tp533
(I7
I1
tp534
(I1
I8
tp535
(I1
I6
tp536
tp537
sg14
I13
sbs(iproblems
RoomID
p538
(dp539
g10
I10
sg11
(I6
I9
tp540
sg13
I5
sg14
I12
sg15
I12
sg16
I2685440357799139976
sb(imulti_robot_problem
MultiRobotState
p541
(dp542
g19
g20
((lp543
(I4
I10
tp544
ag540
a(I9
I1
tp545
a(I5
I11
tp546
a(I3
I0
tp547
a(I0
I7
tp548
a(I3
I9
tp549
a(I0
I5
tp550
a(I1
I4
tp551
a(I0
I3
tp552
a(I4
I0
tp553
a(I1
I2
tp554
a(I11
I10
tp555
a(I6
I10
tp556
a(I5
I6
tp557
a(I9
I11
tp558
a(I7
I9
tp559
a(I4
I5
tp560
a(I3
I5
tp561
a(I3
I4
tp562
a(I2
I4
tp563
a(I1
I9
tp564
atp565
Rp566
sg15
I12
sg28
g20
((lp567
(I11
I7
tp568
a(I8
I3
tp569
a(I10
I11
tp570
a(I7
I1
tp571
a(I10
I5
tp572
a(I8
I10
tp573
a(I6
I3
tp574
a(I3
I6
tp575
a(I9
I10
tp576
a(I6
I5
tp577
atp578
Rp579
sg13
((I7
I7
tp580
(I0
I0
tp581
(I11
I9
tp582
(I0
I2
tp583
(I4
I1
tp584
tp585
sg14
I12
sbs(iproblems
RoomID
p586
(dp587
g10
I11
sg11
(I11
I9
tp588
sg13
I7
sg14
I12
sg15
I12
sg16
I5891625650498269233
sb(imulti_robot_problem
MultiRobotState
p589
(dp590
g19
g20
((lp591
(I4
I4
tp592
a(I4
I8
tp593
a(I5
I6
tp594
a(I8
I11
tp595
ag588
a(I7
I7
tp596
a(I7
I1
tp597
a(I9
I10
tp598
a(I3
I9
tp599
a(I1
I9
tp600
a(I6
I7
tp601
a(I10
I7
tp602
a(I7
I6
tp603
a(I5
I7
tp604
a(I2
I11
tp605
a(I6
I11
tp606
a(I9
I11
tp607
a(I7
I10
tp608
a(I10
I9
tp609
atp610
Rp611
sg15
I12
sg28
g20
((lp612
(I11
I7
tp613
a(I11
I4
tp614
a(I4
I6
tp615
a(I5
I11
tp616
a(I8
I10
tp617
a(I0
I5
tp618
a(I8
I7
tp619
a(I1
I7
tp620
a(I10
I1
tp621
a(I1
I1
tp622
a(I5
I5
tp623
atp624
Rp625
sg13
((I6
I8
tp626
(I9
I2
tp627
(I0
I6
tp628
(I10
I3
tp629
(I9
I5
tp630
(I5
I0
tp631
(I9
I8
tp632
tp633
sg14
I12
sbs(iproblems
RoomID
p634
(dp635
g10
I11
sg11
(I2
I7
tp636
sg13
I6
sg14
I11
sg15
I13
sg16
I403795515464475257
sb(imulti_robot_problem
MultiRobotState
p637
(dp638
g19
g20
((lp639
g636
a(I10
I8
tp640
a(I1
I7
tp641
a(I3
I10
tp642
a(I4
I4
tp643
a(I1
I4
tp644
a(I12
I5
tp645
a(I0
I6
tp646
a(I0
I5
tp647
a(I3
I6
tp648
a(I2
I2
tp649
a(I0
I8
tp650
a(I7
I9
tp651
atp652
Rp653
sg15
I13
sg28
g20
((lp654
(I6
I4
tp655
a(I0
I0
tp656
a(I2
I9
tp657
a(I11
I5
tp658
a(I8
I9
tp659
a(I11
I1
tp660
a(I2
I3
tp661
a(I1
I10
tp662
a(I12
I2
tp663
a(I0
I3
tp664
a(I5
I2
tp665
atp666
Rp667
sg13
((I10
I3
tp668
(I7
I2
tp669
(I7
I0
tp670
(I3
I1
tp671
(I5
I10
tp672
(I9
I4
tp673
tp674
sg14
I11
sbssg149
S'heavy_roomset'
p675
sbsg149
g151
sg152
(dp676
g442
((lp677
F278.67000000000007
tp678
sg490
((lp679
F486.38999999999942
tp680
sg538
((lp681
F55.290000000000873
tp682
sg586
((lp683
F63.270000000000437
tp684
sg634
((lp685
F26.399999999999636
tp686
ssba.