(lp0
(imeasure_core
ProblemSetSolution
p1
(dp2
S'roomset'
p3
(imeasure_core
RoomSet
p4
(dp5
S'rooms'
p6
(dp7
(iproblems
RoomID
p8
(dp9
S'dusts'
p10
I8
sS'obstacles'
p11
(I0
I4
tp12
sS'robots'
p13
I4
sS'height'
p14
I7
sS'width'
p15
I9
sS'seed'
p16
I1689441204489037471
sb(imulti_robot_problem
MultiRobotState
p17
(dp18
S'obstacle_locations'
p19
c__builtin__
frozenset
p20
((lp21
(I0
I1
tp22
a(I1
I2
tp23
a(I3
I2
tp24
a(I8
I1
tp25
a(I4
I3
tp26
ag12
a(I0
I3
tp27
a(I4
I0
tp28
atp29
Rp30
sg15
I9
sS'dirt_locations'
p31
g20
((lp32
(I0
I0
tp33
a(I7
I0
tp34
a(I7
I6
tp35
a(I1
I4
tp36
a(I6
I2
tp37
a(I2
I3
tp38
a(I5
I1
tp39
a(I3
I5
tp40
atp41
Rp42
sg13
((I6
I0
tp43
(I5
I4
tp44
(I6
I6
tp45
(I5
I0
tp46
tp47
sg14
I7
sbs(iproblems
RoomID
p48
(dp49
g10
I10
sg11
(I4
I5
tp50
sg13
I3
sg14
I8
sg15
I10
sg16
I6660334802794327005
sb(imulti_robot_problem
MultiRobotState
p51
(dp52
g19
g20
((lp53
(I9
I0
tp54
a(I2
I6
tp55
a(I1
I6
tp56
a(I3
I6
tp57
ag50
a(I8
I4
tp58
atp59
Rp60
sg15
I10
sg31
g20
((lp61
(I9
I1
tp62
a(I5
I6
tp63
a(I9
I6
tp64
a(I1
I5
tp65
a(I7
I5
tp66
a(I9
I4
tp67
a(I1
I7
tp68
a(I4
I1
tp69
a(I7
I2
tp70
a(I8
I2
tp71
atp72
Rp73
sg13
((I7
I3
tp74
(I4
I7
tp75
(I4
I2
tp76
tp77
sg14
I8
sbs(iproblems
RoomID
p78
(dp79
g10
I6
sg11
(I3
I0
tp80
sg13
I4
sg14
I10
sg15
I7
sg16
I3914746131789064238
sb(imulti_robot_problem
MultiRobotState
p81
(dp82
g19
g20
((lp83
g80
a(I6
I1
tp84
a(I2
I3
tp85
a(I5
I0
tp86
a(I2
I2
tp87
a(I0
I3
tp88
a(I0
I8
tp89
a(I4
I1
tp90
a(I3
I5
tp91
atp92
Rp93
sg15
I7
sg31
g20
((lp94
(I6
I5
tp95
a(I3
I3
tp96
a(I1
I7
tp97
a(I0
I4
tp98
a(I3
I4
tp99
a(I0
I7
tp100
atp101
Rp102
sg13
((I1
I8
tp103
(I5
I1
tp104
(I5
I3
tp105
(I1
I9
tp106
tp107
sg14
I10
sbs(iproblems
RoomID
p108
(dp109
g10
I6
sg11
(I8
I4
tp110
sg13
I4
sg14
I10
sg15
I9
sg16
I3119042104763040036
sb(imulti_robot_problem
MultiRobotState
p111
(dp112
g19
g20
((lp113
(I1
I2
tp114
a(I6
I7
tp115
a(I4
I8
tp116
a(I7
I6
tp117
a(I8
I5
tp118
ag110
atp119
Rp120
sg15
I9
sg31
g20
((lp121
(I6
I8
tp122
a(I8
I7
tp123
a(I6
I6
tp124
a(I3
I0
tp125
a(I7
I2
tp126
a(I6
I5
tp127
atp128
Rp129
sg13
((I5
I9
tp130
(I6
I1
tp131
(I3
I4
tp132
(I2
I7
tp133
tp134
sg14
I10
sbs(iproblems
RoomID
p135
(dp136
g10
I7
sg11
(I2
I5
tp137
sg13
I5
sg14
I9
sg15
I9
sg16
I4640892725076559864
sb(imulti_robot_problem
MultiRobotState
p138
(dp139
g19
g20
((lp140
(I2
I6
tp141
a(I6
I7
tp142
a(I0
I6
tp143
a(I3
I1
tp144
a(I1
I5
tp145
a(I1
I6
tp146
a(I0
I4
tp147
ag137
a(I3
I4
tp148
atp149
Rp150
sg15
I9
sg31
g20
((lp151
(I3
I8
tp152
a(I7
I3
tp153
a(I7
I1
tp154
a(I8
I1
tp155
a(I8
I6
tp156
a(I4
I2
tp157
a(I5
I3
tp158
atp159
Rp160
sg13
((I6
I5
tp161
(I8
I4
tp162
(I7
I6
tp163
(I6
I0
tp164
(I6
I3
tp165
tp166
sg14
I9
sbssS'name'
p167
S'easy_roomset'
p168
sbsg167
S"AnytimeBeam-w20-gf(2, 'lin')_with_PowerHeuristic2"
p169
sS'solutions'
p170
(dp171
g8
((lp172
(F0.3500000000003638
I8
tp173
aF40.020000000000437
tp174
sg48
((lp175
(F0.48999999999978172
I23
tp176
aF40.049999999999272
tp177
sg78
((lp178
(F0.4500000000007276
I7
tp179
aF40.010000000000218
tp180
sg108
((lp181
(F1.3299999999999272
I11
tp182
aF40.010000000000218
tp183
sg135
((lp184
(F2.7700000000004366
I6
tp185
aF40.199999999998909
tp186
ssba(imeasure_core
ProblemSetSolution
p187
(dp188
g3
(imeasure_core
RoomSet
p189
(dp190
g6
(dp191
(iproblems
RoomID
p192
(dp193
g10
I6
sg11
(I5
I5
tp194
sg13
I4
sg14
I12
sg15
I11
sg16
I3119042104763040036
sb(imulti_robot_problem
MultiRobotState
p195
(dp196
g19
g20
((lp197
(I4
I6
tp198
a(I10
I4
tp199
a(I3
I0
tp200
a(I9
I8
tp201
a(I10
I6
tp202
a(I2
I1
tp203
a(I8
I9
tp204
a(I2
I3
tp205
a(I0
I10
tp206
a(I9
I5
tp207
a(I10
I3
tp208
a(I7
I9
tp209
ag194
a(I10
I7
tp210
a(I7
I8
tp211
a(I4
I4
tp212
a(I9
I2
tp213
a(I2
I4
tp214
a(I4
I5
tp215
a(I2
I2
tp216
a(I3
I3
tp217
a(I3
I4
tp218
a(I1
I1
tp219
atp220
Rp221
sg15
I11
sg31
g20
((lp222
(I8
I3
tp223
a(I8
I8
tp224
a(I5
I10
tp225
a(I9
I4
tp226
a(I8
I6
tp227
a(I10
I9
tp228
atp229
Rp230
sg13
((I6
I11
tp231
(I7
I2
tp232
(I2
I8
tp233
(I8
I10
tp234
tp235
sg14
I12
sbs(iproblems
RoomID
p236
(dp237
g10
I6
sg11
(I4
I8
tp238
sg13
I4
sg14
I12
sg15
I9
sg16
I3914746131789064238
sb(imulti_robot_problem
MultiRobotState
p239
(dp240
g19
g20
((lp241
(I4
I6
tp242
a(I6
I6
tp243
a(I4
I5
tp244
a(I5
I7
tp245
a(I0
I5
tp246
a(I0
I10
tp247
a(I8
I7
tp248
a(I7
I0
tp249
a(I0
I3
tp250
a(I8
I5
tp251
a(I4
I0
tp252
a(I2
I3
tp253
a(I6
I7
tp254
a(I3
I3
tp255
a(I8
I1
tp256
a(I7
I6
tp257
a(I3
I1
tp258
ag238
a(I5
I0
tp259
a(I2
I2
tp260
a(I0
I9
tp261
a(I8
I6
tp262
a(I5
I3
tp263
a(I6
I1
tp264
atp265
Rp266
sg15
I9
sg31
g20
((lp267
(I1
I8
tp268
a(I1
I9
tp269
a(I4
I3
tp270
a(I4
I4
tp271
a(I2
I11
tp272
a(I2
I10
tp273
atp274
Rp275
sg13
((I1
I10
tp276
(I6
I2
tp277
(I7
I3
tp278
(I1
I11
tp279
tp280
sg14
I12
sbs(iproblems
RoomID
p281
(dp282
g10
I5
sg11
(I5
I7
tp283
sg13
I4
sg14
I9
sg15
I12
sg16
I659184109953178577
sb(imulti_robot_problem
MultiRobotState
p284
(dp285
g19
g20
((lp286
(I7
I3
tp287
a(I4
I7
tp288
a(I8
I2
tp289
a(I6
I6
tp290
a(I4
I5
tp291
a(I7
I7
tp292
a(I11
I0
tp293
a(I7
I5
tp294
a(I9
I4
tp295
a(I2
I5
tp296
a(I0
I8
tp297
a(I10
I3
tp298
a(I7
I2
tp299
a(I4
I6
tp300
a(I6
I4
tp301
a(I4
I3
tp302
a(I3
I3
tp303
a(I6
I1
tp304
ag283
a(I6
I5
tp305
a(I3
I6
tp306
a(I8
I6
tp307
a(I3
I4
tp308
atp309
Rp310
sg15
I12
sg31
g20
((lp311
(I10
I8
tp312
a(I4
I1
tp313
a(I0
I2
tp314
a(I1
I6
tp315
a(I10
I4
tp316
atp317
Rp318
sg13
((I10
I0
tp319
(I7
I0
tp320
(I2
I6
tp321
(I8
I3
tp322
tp323
sg14
I9
sbs(iproblems
RoomID
p324
(dp325
g10
I9
sg11
(I9
I9
tp326
sg13
I3
sg14
I10
sg15
I10
sg16
I3273124617966689144
sb(imulti_robot_problem
MultiRobotState
p327
(dp328
g19
g20
((lp329
(I7
I3
tp330
a(I5
I4
tp331
a(I1
I3
tp332
a(I6
I4
tp333
a(I4
I5
tp334
a(I9
I8
tp335
a(I3
I2
tp336
a(I7
I5
tp337
a(I1
I6
tp338
a(I2
I5
tp339
a(I0
I8
tp340
a(I9
I6
tp341
a(I6
I5
tp342
a(I5
I3
tp343
a(I3
I3
tp344
a(I5
I5
tp345
a(I7
I6
tp346
ag326
a(I6
I3
tp347
a(I4
I3
tp348
a(I2
I3
tp349
a(I8
I6
tp350
a(I2
I4
tp351
a(I9
I7
tp352
atp353
Rp354
sg15
I10
sg31
g20
((lp355
(I7
I0
tp356
a(I3
I0
tp357
a(I6
I1
tp358
a(I3
I1
tp359
a(I5
I0
tp360
a(I2
I2
tp361
a(I3
I4
tp362
a(I1
I1
tp363
a(I8
I4
tp364
atp365
Rp366
sg13
((I0
I7
tp367
(I2
I1
tp368
(I6
I6
tp369
tp370
sg14
I10
sbs(iproblems
RoomID
p371
(dp372
g10
I9
sg11
(I9
I10
tp373
sg13
I3
sg14
I11
sg15
I10
sg16
I4253868527325451640
sb(imulti_robot_problem
MultiRobotState
p374
(dp375
g19
g20
((lp376
(I7
I3
tp377
a(I4
I7
tp378
a(I2
I6
tp379
a(I7
I10
tp380
a(I4
I8
tp381
a(I6
I9
tp382
ag373
a(I3
I9
tp383
a(I1
I6
tp384
a(I3
I7
tp385
a(I2
I5
tp386
a(I8
I5
tp387
a(I5
I8
tp388
a(I7
I9
tp389
a(I7
I1
tp390
a(I8
I10
tp391
a(I5
I0
tp392
a(I2
I3
tp393
a(I3
I5
tp394
a(I3
I4
tp395
a(I2
I4
tp396
atp397
Rp398
sg15
I10
sg31
g20
((lp399
(I8
I9
tp400
a(I5
I10
tp401
a(I6
I8
tp402
a(I7
I6
tp403
a(I3
I8
tp404
a(I0
I10
tp405
a(I9
I4
tp406
a(I0
I9
tp407
a(I5
I3
tp408
atp409
Rp410
sg13
((I3
I6
tp411
(I0
I8
tp412
(I2
I1
tp413
tp414
sg14
I11
sbssg167
S'mild_roomset'
p415
sbsg167
g169
sg170
(dp416
g192
((lp417
(F12.569999999999709
I164
tp418
aF40.200000000000728
tp419
sg236
((lp420
(F0.70999999999912689
I6
tp421
aF40.0
tp422
sg281
((lp423
(F2.7999999999992724
I18
tp424
aF40.069999999999709
tp425
sg324
((lp426
(F7.5100000000002183
I52
tp427
aF40.0
tp428
sg371
((lp429
(F0.88999999999941792
I32
tp430
aF40.110000000000582
tp431
ssba(imeasure_core
ProblemSetSolution
p432
(dp433
g3
(imeasure_core
RoomSet
p434
(dp435
g6
(dp436
(iproblems
RoomID
p437
(dp438
g10
I13
sg11
(I3
I4
tp439
sg13
I6
sg14
I10
sg15
I12
sg16
I1689441204489037471
sb(imulti_robot_problem
MultiRobotState
p440
(dp441
g19
g20
((lp442
(I7
I3
tp443
a(I1
I3
tp444
a(I8
I7
tp445
a(I10
I6
tp446
a(I7
I7
tp447
a(I6
I2
tp448
a(I1
I6
tp449
a(I9
I4
tp450
a(I4
I2
tp451
a(I5
I1
tp452
a(I10
I3
tp453
a(I2
I7
tp454
a(I9
I3
tp455
a(I9
I5
tp456
a(I0
I5
tp457
a(I11
I5
tp458
a(I8
I5
tp459
a(I5
I2
tp460
a(I0
I2
tp461
a(I3
I8
tp462
a(I4
I3
tp463
a(I0
I4
tp464
ag439
a(I8
I6
tp465
a(I4
I1
tp466
a(I1
I1
tp467
a(I8
I4
tp468
atp469
Rp470
sg15
I12
sg31
g20
((lp471
(I8
I9
tp472
a(I9
I0
tp473
a(I0
I0
tp474
a(I10
I4
tp475
a(I4
I8
tp476
a(I8
I1
tp477
a(I11
I2
tp478
a(I5
I4
tp479
a(I7
I4
tp480
a(I11
I8
tp481
a(I2
I6
tp482
a(I2
I3
tp483
a(I1
I5
tp484
atp485
Rp486
sg13
((I8
I0
tp487
(I7
I6
tp488
(I8
I8
tp489
(I7
I0
tp490
(I2
I4
tp491
(I9
I9
tp492
tp493
sg14
I10
sbs(iproblems
RoomID
p494
(dp495
g10
I15
sg11
(I10
I7
tp496
sg13
I6
sg14
I11
sg15
I13
sg16
I6660334802794327005
sb(imulti_robot_problem
MultiRobotState
p497
(dp498
g19
g20
((lp499
(I4
I7
tp500
a(I11
I7
tp501
a(I5
I6
tp502
a(I2
I8
tp503
a(I9
I9
tp504
a(I9
I10
tp505
a(I10
I8
tp506
a(I9
I0
tp507
ag496
a(I5
I7
tp508
a(I8
I10
tp509
a(I3
I8
tp510
a(I1
I5
tp511
a(I1
I8
tp512
a(I1
I10
tp513
a(I10
I0
tp514
a(I2
I4
tp515
atp516
Rp517
sg15
I13
sg31
g20
((lp518
(I2
I7
tp519
a(I12
I2
tp520
a(I6
I9
tp521
a(I6
I10
tp522
a(I12
I1
tp523
a(I2
I9
tp524
a(I12
I0
tp525
a(I12
I9
tp526
a(I11
I2
tp527
a(I10
I6
tp528
a(I1
I7
tp529
a(I12
I5
tp530
a(I6
I3
tp531
a(I10
I3
tp532
a(I12
I8
tp533
atp534
Rp535
sg13
((I9
I5
tp536
(I5
I10
tp537
(I5
I3
tp538
(I5
I1
tp539
(I9
I3
tp540
(I7
I8
tp541
tp542
sg14
I11
sbs(iproblems
RoomID
p543
(dp544
g10
I11
sg11
(I7
I6
tp545
sg13
I7
sg14
I13
sg15
I12
sg16
I3119042104763040036
sb(imulti_robot_problem
MultiRobotState
p546
(dp547
g19
g20
((lp548
(I5
I4
tp549
a(I4
I5
tp550
a(I9
I8
tp551
a(I10
I6
tp552
a(I9
I0
tp553
a(I6
I0
tp554
a(I8
I9
tp555
a(I2
I12
tp556
a(I9
I6
tp557
a(I10
I5
tp558
a(I5
I10
tp559
a(I10
I7
tp560
ag545
a(I9
I9
tp561
a(I8
I6
tp562
a(I11
I6
tp563
a(I9
I7
tp564
atp565
Rp566
sg15
I12
sg31
g20
((lp567
(I1
I2
tp568
a(I4
I4
tp569
a(I5
I11
tp570
a(I5
I6
tp571
a(I3
I4
tp572
a(I8
I0
tp573
a(I8
I10
tp574
a(I0
I11
tp575
a(I2
I3
tp576
a(I7
I8
tp577
a(I4
I0
tp578
atp579
Rp580
sg13
((I7
I12
tp581
(I8
I2
tp582
(I4
I6
tp583
(I3
I9
tp584
(I9
I11
tp585
(I11
I9
tp586
(I9
I3
tp587
tp588
sg14
I13
sbs(iproblems
RoomID
p589
(dp590
g10
I12
sg11
(I8
I7
tp591
sg13
I7
sg14
I12
sg15
I12
sg16
I4640892725076559864
sb(imulti_robot_problem
MultiRobotState
p592
(dp593
g19
g20
((lp594
(I5
I9
tp595
a(I6
I9
tp596
a(I4
I8
tp597
a(I5
I6
tp598
a(I2
I8
tp599
a(I6
I0
tp600
a(I2
I10
tp601
a(I0
I9
tp602
a(I6
I2
tp603
ag591
a(I3
I7
tp604
a(I5
I1
tp605
a(I1
I0
tp606
a(I8
I5
tp607
a(I7
I9
tp608
a(I7
I4
tp609
a(I7
I0
tp610
a(I6
I8
tp611
a(I2
I9
tp612
a(I0
I6
tp613
a(I7
I6
tp614
a(I5
I7
tp615
a(I8
I10
tp616
a(I0
I2
tp617
a(I6
I3
tp618
a(I2
I0
tp619
a(I1
I8
tp620
a(I4
I5
tp621
a(I5
I2
tp622
a(I1
I1
tp623
a(I9
I7
tp624
atp625
Rp626
sg15
I12
sg31
g20
((lp627
(I2
I7
tp628
a(I6
I4
tp629
a(I11
I10
tp630
a(I4
I6
tp631
a(I11
I8
tp632
a(I11
I2
tp633
a(I9
I3
tp634
a(I3
I2
tp635
a(I8
I8
tp636
a(I0
I5
tp637
a(I10
I3
tp638
a(I5
I3
tp639
atp640
Rp641
sg13
((I8
I6
tp642
(I11
I5
tp643
(I10
I8
tp644
(I9
I0
tp645
(I9
I4
tp646
(I9
I2
tp647
(I4
I11
tp648
tp649
sg14
I12
sbs(iproblems
RoomID
p650
(dp651
g10
I11
sg11
(I6
I1
tp652
sg13
I7
sg14
I13
sg15
I10
sg16
I3914746131789064238
sb(imulti_robot_problem
MultiRobotState
p653
(dp654
g19
g20
((lp655
(I0
I0
tp656
a(I7
I0
tp657
a(I9
I1
tp658
a(I2
I9
tp659
a(I7
I1
tp660
a(I9
I2
tp661
ag652
a(I6
I3
tp662
a(I8
I1
tp663
a(I7
I2
tp664
a(I5
I1
tp665
a(I7
I8
tp666
a(I6
I5
tp667
a(I5
I5
tp668
atp669
Rp670
sg15
I10
sg31
g20
((lp671
(I4
I7
tp672
a(I3
I3
tp673
a(I4
I5
tp674
a(I4
I4
tp675
a(I1
I4
tp676
a(I0
I11
tp677
a(I0
I5
tp678
a(I0
I10
tp679
a(I8
I7
tp680
a(I9
I5
tp681
a(I5
I3
tp682
atp683
Rp684
sg13
((I1
I11
tp685
(I8
I4
tp686
(I2
I12
tp687
(I1
I9
tp688
(I2
I11
tp689
(I5
I4
tp690
(I5
I0
tp691
tp692
sg14
I13
sbssg167
S'heavy_roomset'
p693
sbsg167
g169
sg170
(dp694
g437
((lp695
F40.609999999998763
tp696
sg494
((lp697
(F19.690000000000509
I11
tp698
aF41.239999999999782
tp699
sg543
((lp700
F46.470000000001164
tp701
sg589
((lp702
F40.709999999999127
tp703
sg650
((lp704
F40.260000000000218
tp705
ssba(imeasure_core
ProblemSetSolution
p706
(dp707
g3
g4
sg167
S"AnytimeBeam-w20-gf(4, 'lin')_with_PowerHeuristic2"
p708
sg170
(dp709
g8
((lp710
(F0.36000000000058208
I8
tp711
aF40.069999999999709
tp712
sg48
((lp713
(F0.5
I23
tp714
aF40.010000000000218
tp715
sg78
((lp716
(F0.5
I7
tp717
aF40.130000000001019
tp718
sg108
((lp719
(F1.4599999999991269
I11
tp720
aF40.069999999999709
tp721
sg135
((lp722
(F3.1100000000005821
I6
tp723
aF40.729999999999563
tp724
ssba(imeasure_core
ProblemSetSolution
p725
(dp726
g3
g189
sg167
g708
sg170
(dp727
g192
((lp728
(F13.559999999999491
I164
tp729
aF40.530000000000655
tp730
sg236
((lp731
(F0.76000000000021828
I6
tp732
aF40.070000000001528
tp733
sg281
((lp734
(F3.0100000000002183
I18
tp735
aF40.329999999999927
tp736
sg324
((lp737
(F8.5299999999988358
I52
tp738
aF40.0
tp739
sg371
((lp740
(F0.8999999999996362
I32
tp741
aF40.099999999998545
tp742
ssba(imeasure_core
ProblemSetSolution
p743
(dp744
g3
g434
sg167
g708
sg170
(dp745
g437
((lp746
F40.280000000000655
tp747
sg494
((lp748
(F20.630000000001019
I11
tp749
aF40.610000000000582
tp750
sg543
((lp751
F46.770000000000437
tp752
sg589
((lp753
F40.329999999999927
tp754
sg650
((lp755
F42.079999999999927
tp756
ssba(imeasure_core
ProblemSetSolution
p757
(dp758
g3
g4
sg167
S"AnytimeBeam-w20-gf(8, 'lin')_with_PowerHeuristic2"
p759
sg170
(dp760
g8
((lp761
(F0.33999999999832653
I8
tp762
aF40.069999999999709
tp763
sg48
((lp764
(F0.51000000000021828
I23
tp765
aF40.029999999998836
tp766
sg78
((lp767
(F0.56000000000130967
I7
tp768
aF40.040000000000873
tp769
sg108
((lp770
(F1.6000000000003638
I11
tp771
aF40.0
tp772
sg135
((lp773
(F3.3500000000003638
I6
tp774
aF40.029999999998836
tp775
ssba(imeasure_core
ProblemSetSolution
p776
(dp777
g3
g189
sg167
g759
sg170
(dp778
g192
((lp779
(F14.340000000000146
I164
tp780
aF40.0
tp781
sg236
((lp782
(F0.79000000000087311
I6
tp783
aF40.030000000000655
tp784
sg281
((lp785
(F3.2299999999995634
I18
tp786
aF40.059999999999491
tp787
sg324
((lp788
(F14.480000000001382
I47
tp789
aF40.0
tp790
sg371
((lp791
(F0.8999999999996362
I32
tp792
aF40.020000000000437
tp793
ssba(imeasure_core
ProblemSetSolution
p794
(dp795
g3
g434
sg167
g759
sg170
(dp796
g437
((lp797
F40.940000000000509
tp798
sg494
((lp799
(F21.979999999999563
I11
tp800
aF40.639999999999418
tp801
sg543
((lp802
F46.959999999999127
tp803
sg589
((lp804
F40.5
tp805
sg650
((lp806
F42.220000000001164
tp807
ssba(imeasure_core
ProblemSetSolution
p808
(dp809
g3
g4
sg167
S"AnytimeBeam-w20-gf(16, 'lin')_with_PowerHeuristic2"
p810
sg170
(dp811
g8
((lp812
(F0.34000000000014552
I8
tp813
aF40.079999999999927
tp814
sg48
((lp815
(F0.51000000000021828
I23
tp816
aF40.0
tp817
sg78
((lp818
(F0.6000000000003638
I7
tp819
aF40.219999999999345
tp820
sg108
((lp821
(F1.7299999999995634
I11
tp822
aF40.3700000000008
tp823
sg135
((lp824
(F3.9200000000000728
I6
tp825
aF40.359999999998763
tp826
ssba(imeasure_core
ProblemSetSolution
p827
(dp828
g3
g189
sg167
g810
sg170
(dp829
g192
((lp830
(F16.8700000000008
I164
tp831
aF40.290000000000873
tp832
sg236
((lp833
(F0.7999999999992724
I6
tp834
aF40.1299999999992
tp835
sg281
((lp836
(F3.6100000000005821
I18
tp837
aF40.130000000001019
tp838
sg324
((lp839
(F16.600000000000364
I47
tp840
aF40.109999999998763
tp841
sg371
((lp842
(F0.89000000000123691
I32
tp843
aF40.010000000000218
tp844
ssba(imeasure_core
ProblemSetSolution
p845
(dp846
g3
g434
sg167
g810
sg170
(dp847
g437
((lp848
F40.180000000000291
tp849
sg494
((lp850
(F23.790000000000873
I11
tp851
aF40.409999999999854
tp852
sg543
((lp853
F47.950000000000728
tp854
sg589
((lp855
F40.420000000000073
tp856
sg650
((lp857
F41.25
tp858
ssba(imeasure_core
ProblemSetSolution
p859
(dp860
g3
g4
sg167
S"AnytimeBeam-w20-gf(2, 'lin')_with_LinearHeuristic"
p861
sg170
(dp862
g8
((lp863
(F33.119999999998981
I223
tp864
aF40.049999999999272
tp865
sg48
((lp866
(F2.930000000000291
I49
tp867
aF40.059999999999491
tp868
sg78
((lp869
F40.030000000000655
tp870
sg108
((lp871
(F21.860000000000582
I165
tp872
aF40.030000000000655
tp873
sg135
((lp874
(F2.1399999999994179
I6
tp875
aF40.489999999999782
tp876
ssba(imeasure_core
ProblemSetSolution
p877
(dp878
g3
g189
sg167
g861
sg170
(dp879
g192
((lp880
F40.869999999998981
tp881
sg236
((lp882
(F0.52000000000043656
I12
tp883
aF40.300000000001091
tp884
sg281
((lp885
F40.039999999999054
tp886
sg324
((lp887
F40.010000000000218
tp888
sg371
((lp889
F40.069999999999709
tp890
ssba(imeasure_core
ProblemSetSolution
p891
(dp892
g3
g434
sg167
g861
sg170
(dp893
g437
((lp894
F40.260000000000218
tp895
sg494
((lp896
F40.840000000000146
tp897
sg543
((lp898
F44.579999999999927
tp899
sg589
((lp900
F41.190000000000509
tp901
sg650
((lp902
F45.489999999999782
tp903
ssba(imeasure_core
ProblemSetSolution
p904
(dp905
g3
g4
sg167
S"AnytimeBeam-w20-gf(4, 'lin')_with_LinearHeuristic"
p906
sg170
(dp907
g8
((lp908
(F33.209999999999127
I223
tp909
aF40.029999999998836
tp910
sg48
((lp911
(F4.069999999999709
I49
tp912
aF40.050000000001091
tp913
sg78
((lp914
F40.159999999999854
tp915
sg108
((lp916
(F22.680000000000291
I165
tp917
aF40.109999999998763
tp918
sg135
((lp919
(F2.4800000000013824
I6
tp920
aF40.010000000000218
tp921
ssba(imeasure_core
ProblemSetSolution
p922
(dp923
g3
g189
sg167
g906
sg170
(dp924
g192
((lp925
F40.030000000000655
tp926
sg236
((lp927
(F0.6000000000003638
I12
tp928
aF40.010000000000218
tp929
sg281
((lp930
F40.209999999999127
tp931
sg324
((lp932
F40.010000000000218
tp933
sg371
((lp934
F40.090000000000146
tp935
ssba(imeasure_core
ProblemSetSolution
p936
(dp937
g3
g434
sg167
g906
sg170
(dp938
g437
((lp939
F40.270000000000437
tp940
sg494
((lp941
F40.139999999999418
tp942
sg543
((lp943
F45.389999999999418
tp944
sg589
((lp945
F40.920000000000073
tp946
sg650
((lp947
F46.780000000000655
tp948
ssba(imeasure_core
ProblemSetSolution
p949
(dp950
g3
g4
sg167
S"AnytimeBeam-w20-gf(8, 'lin')_with_LinearHeuristic"
p951
sg170
(dp952
g8
((lp953
(F33.350000000000364
I223
tp954
aF40.100000000000364
tp955
sg48
((lp956
(F6.2599999999983993
I49
tp957
aF40.059999999999491
tp958
sg78
((lp959
F40.1299999999992
tp960
sg108
((lp961
(F25.900000000001455
I165
tp962
aF40.239999999999782
tp963
sg135
((lp964
(F2.7000000000007276
I6
tp965
aF40.440000000000509
tp966
ssba(imeasure_core
ProblemSetSolution
p967
(dp968
g3
g189
sg167
g951
sg170
(dp969
g192
((lp970
F40.25
tp971
sg236
((lp972
(F0.88999999999941792
I12
tp973
aF40.110000000000582
tp974
sg281
((lp975
F40.510000000000218
tp976
sg324
((lp977
F40.049999999999272
tp978
sg371
((lp979
F40.180000000000291
tp980
ssba(imeasure_core
ProblemSetSolution
p981
(dp982
g3
g434
sg167
g951
sg170
(dp983
g437
((lp984
F40.049999999999272
tp985
sg494
((lp986
F40.860000000000582
tp987
sg543
((lp988
F46.090000000000146
tp989
sg589
((lp990
F40.950000000000728
tp991
sg650
((lp992
F52.299999999999272
tp993
ssba(imeasure_core
ProblemSetSolution
p994
(dp995
g3
g4
sg167
S"AnytimeBeam-w20-gf(16, 'lin')_with_LinearHeuristic"
p996
sg170
(dp997
g8
((lp998
(F33.289999999999054
I223
tp999
aF40.010000000000218
tp1000
sg48
((lp1001
(F11.180000000000291
I49
tp1002
aF40.059999999999491
tp1003
sg78
((lp1004
F40.1200000000008
tp1005
sg108
((lp1006
(F28.799999999999272
I165
tp1007
aF40.259999999998399
tp1008
sg135
((lp1009
(F3.2100000000009459
I6
tp1010
aF40.350000000000364
tp1011
ssba(imeasure_core
ProblemSetSolution
p1012
(dp1013
g3
g189
sg167
g996
sg170
(dp1014
g192
((lp1015
F40.040000000000873
tp1016
sg236
((lp1017
(F1.1099999999987631
I12
tp1018
aF40.010000000000218
tp1019
sg281
((lp1020
F40.510000000000218
tp1021
sg324
((lp1022
F40.049999999999272
tp1023
sg371
((lp1024
F40.069999999999709
tp1025
ssba(imeasure_core
ProblemSetSolution
p1026
(dp1027
g3
g434
sg167
g996
sg170
(dp1028
g437
((lp1029
F41.520000000000437
tp1030
sg494
((lp1031
F40.190000000000509
tp1032
sg543
((lp1033
F47.159999999999854
tp1034
sg589
((lp1035
F41.3799999999992
tp1036
sg650
((lp1037
F59.630000000001019
tp1038
ssba.