(lp0
(imeasure_core
ProblemSetSolution
p1
(dp2
S'roomset'
p3
(imeasure_core
RoomSet
p4
(dp5
S'rooms'
p6
(dp7
(iproblems
RoomID
p8
(dp9
S'dusts'
p10
I8
sS'obstacles'
p11
(I2
I4
tp12
sS'robots'
p13
I4
sS'height'
p14
I9
sS'width'
p15
I7
sS'seed'
p16
I7283207964119141687
sb(imulti_robot_problem
MultiRobotState
p17
(dp18
S'obstacle_locations'
p19
c__builtin__
frozenset
p20
((lp21
(I4
I6
tp22
a(I4
I3
tp23
a(I3
I0
tp24
a(I4
I2
tp25
a(I3
I4
tp26
ag12
a(I3
I3
tp27
atp28
Rp29
sg15
I7
sS'dirt_locations'
p30
g20
((lp31
(I4
I5
tp32
a(I5
I7
tp33
a(I0
I6
tp34
a(I1
I6
tp35
a(I5
I0
tp36
a(I5
I1
tp37
a(I5
I2
tp38
a(I1
I1
tp39
atp40
Rp41
sg13
((I1
I5
tp42
(I5
I5
tp43
(I3
I1
tp44
(I3
I5
tp45
tp46
sg14
I9
sbs(iproblems
RoomID
p47
(dp48
g10
I8
sg11
(I4
I6
tp49
sg13
I2
sg14
I10
sg15
I8
sg16
I890727360438182992
sb(imulti_robot_problem
MultiRobotState
p50
(dp51
g19
g20
((lp52
(I0
I0
tp53
ag49
a(I6
I6
tp54
a(I5
I6
tp55
a(I7
I6
tp56
a(I7
I4
tp57
a(I4
I2
tp58
a(I2
I4
tp59
atp60
Rp61
sg15
I8
sg30
g20
((lp62
(I7
I0
tp63
a(I7
I1
tp64
a(I6
I3
tp65
a(I1
I8
tp66
a(I0
I5
tp67
a(I5
I1
tp68
a(I1
I0
tp69
a(I0
I3
tp70
atp71
Rp72
sg13
((I2
I8
tp73
(I2
I5
tp74
tp75
sg14
I10
sbs(iproblems
RoomID
p76
(dp77
g10
I5
sg11
(I7
I3
tp78
sg13
I1
sg14
I7
sg15
I8
sg16
I1736392818365009963
sb(imulti_robot_problem
MultiRobotState
p79
(dp80
g19
g20
((lp81
g78
a(I2
I6
tp82
a(I7
I0
tp83
a(I7
I1
tp84
a(I2
I1
tp85
a(I6
I3
tp86
a(I0
I4
tp87
a(I7
I2
tp88
atp89
Rp90
sg15
I8
sg30
g20
((lp91
(I0
I1
tp92
a(I6
I2
tp93
a(I1
I6
tp94
a(I4
I4
tp95
a(I0
I0
tp96
atp97
Rp98
sg13
((I3
I1
tp99
tp100
sg14
I7
sbs(iproblems
RoomID
p101
(dp102
g10
I10
sg11
(I6
I5
tp103
sg13
I5
sg14
I8
sg15
I9
sg16
I3960482443532127989
sb(imulti_robot_problem
MultiRobotState
p104
(dp105
g19
g20
((lp106
(I4
I5
tp107
a(I5
I5
tp108
ag103
a(I6
I6
tp109
atp110
Rp111
sg15
I9
sg30
g20
((lp112
(I2
I7
tp113
a(I2
I6
tp114
a(I5
I0
tp115
a(I5
I7
tp116
a(I1
I4
tp117
a(I1
I5
tp118
a(I3
I6
tp119
a(I8
I0
tp120
a(I8
I5
tp121
a(I5
I3
tp122
atp123
Rp124
sg13
((I4
I3
tp125
(I8
I7
tp126
(I1
I6
tp127
(I7
I3
tp128
(I6
I4
tp129
tp130
sg14
I8
sbs(iproblems
RoomID
p131
(dp132
g10
I7
sg11
(I4
I1
tp133
sg13
I3
sg14
I10
sg15
I10
sg16
I1585446675937841368
sb(imulti_robot_problem
MultiRobotState
p134
(dp135
g19
g20
((lp136
(I3
I2
tp137
a(I2
I6
tp138
a(I6
I7
tp139
a(I6
I1
tp140
a(I7
I2
tp141
a(I5
I0
tp142
ag133
a(I2
I4
tp143
a(I5
I8
tp144
atp145
Rp146
sg15
I10
sg30
g20
((lp147
(I7
I3
tp148
a(I9
I4
tp149
a(I2
I9
tp150
a(I1
I7
tp151
a(I2
I2
tp152
a(I5
I2
tp153
a(I9
I7
tp154
atp155
Rp156
sg13
((I8
I9
tp157
(I4
I4
tp158
(I9
I8
tp159
tp160
sg14
I10
sbssS'name'
p161
S'easy_roomset'
p162
sbsg161
S'LimitedTimeAStar_with_PowerHeuristic2'
p163
sS'solutions'
p164
(dp165
g8
((lp166
F0.54000000000087311
tp167
sg47
((lp168
F0.049999999999272404
tp169
sg76
((lp170
F0.059999999999490683
tp171
sg101
((lp172
F9.2200000000011642
tp173
sg131
((lp174
F0.17000000000007276
tp175
ssba(imeasure_core
ProblemSetSolution
p176
(dp177
g3
(imeasure_core
RoomSet
p178
(dp179
g6
(dp180
(iproblems
RoomID
p181
(dp182
g10
I8
sg11
(I2
I6
tp183
sg13
I4
sg14
I11
sg15
I9
sg16
I7283207964119141687
sb(imulti_robot_problem
MultiRobotState
p184
(dp185
g19
g20
((lp186
(I4
I7
tp187
a(I1
I3
tp188
a(I4
I3
tp189
a(I4
I5
tp190
a(I5
I4
tp191
a(I1
I4
tp192
a(I8
I9
tp193
a(I6
I2
tp194
a(I0
I10
tp195
a(I3
I7
tp196
a(I0
I3
tp197
a(I8
I5
tp198
a(I4
I0
tp199
a(I5
I3
tp200
a(I5
I5
tp201
a(I5
I2
tp202
a(I6
I1
tp203
a(I6
I10
tp204
ag183
a(I6
I3
tp205
a(I3
I6
tp206
a(I3
I5
tp207
a(I3
I4
tp208
a(I2
I4
tp209
atp210
Rp211
sg15
I9
sg30
g20
((lp212
(I7
I0
tp213
a(I6
I8
tp214
a(I7
I1
tp215
a(I5
I6
tp216
a(I1
I8
tp217
a(I0
I8
tp218
a(I4
I1
tp219
a(I5
I8
tp220
atp221
Rp222
sg13
((I1
I7
tp223
(I6
I6
tp224
(I4
I6
tp225
(I2
I1
tp226
tp227
sg14
I11
sbs(iproblems
RoomID
p228
(dp229
g10
I8
sg11
(I3
I5
tp230
sg13
I3
sg14
I12
sg15
I10
sg16
I890727360438182992
sb(imulti_robot_problem
MultiRobotState
p231
(dp232
g19
g20
((lp233
(I4
I7
tp234
a(I0
I0
tp235
a(I3
I0
tp236
a(I3
I2
tp237
a(I1
I4
tp238
a(I8
I9
tp239
a(I7
I5
tp240
a(I2
I3
tp241
a(I3
I4
tp242
a(I5
I8
tp243
ag230
a(I3
I1
tp244
a(I6
I7
tp245
a(I6
I8
tp246
a(I5
I2
tp247
a(I5
I7
tp248
a(I8
I8
tp249
a(I3
I9
tp250
a(I4
I11
tp251
a(I7
I10
tp252
a(I2
I2
tp253
a(I0
I9
tp254
a(I7
I8
tp255
atp256
Rp257
sg15
I10
sg30
g20
((lp258
(I9
I2
tp259
a(I6
I1
tp260
a(I8
I0
tp261
a(I2
I10
tp262
a(I0
I6
tp263
a(I0
I4
tp264
a(I9
I5
tp265
a(I1
I1
tp266
atp267
Rp268
sg13
((I2
I9
tp269
(I2
I6
tp270
(I8
I4
tp271
tp272
sg14
I12
sbs(iproblems
RoomID
p273
(dp274
g10
I5
sg11
(I7
I6
tp275
sg13
I3
sg14
I9
sg15
I10
sg16
I1736392818365009963
sb(imulti_robot_problem
MultiRobotState
p276
(dp277
g19
g20
((lp278
(I7
I3
tp279
a(I9
I1
tp280
a(I4
I8
tp281
a(I9
I3
tp282
a(I7
I7
tp283
a(I6
I2
tp284
a(I0
I5
tp285
a(I0
I4
tp286
a(I8
I5
tp287
a(I7
I2
tp288
a(I1
I2
tp289
a(I3
I8
tp290
a(I9
I0
tp291
a(I9
I2
tp292
ag275
a(I7
I4
tp293
a(I7
I5
tp294
a(I6
I5
tp295
a(I4
I3
tp296
a(I2
I2
tp297
a(I0
I1
tp298
a(I5
I2
tp299
a(I8
I4
tp300
atp301
Rp302
sg15
I10
sg30
g20
((lp303
(I1
I8
tp304
a(I3
I1
tp305
a(I4
I1
tp306
a(I0
I2
tp307
a(I5
I5
tp308
atp309
Rp310
sg13
((I4
I2
tp311
(I1
I0
tp312
(I8
I2
tp313
tp314
sg14
I9
sbs(iproblems
RoomID
p315
(dp316
g10
I7
sg11
(I6
I3
tp317
sg13
I3
sg14
I12
sg15
I12
sg16
I1585446675937841368
sb(imulti_robot_problem
MultiRobotState
p318
(dp319
g19
g20
((lp320
(I5
I9
tp321
a(I4
I3
tp322
a(I5
I7
tp323
a(I8
I2
tp324
a(I4
I10
tp325
a(I7
I3
tp326
a(I2
I8
tp327
a(I9
I3
tp328
a(I3
I11
tp329
a(I7
I1
tp330
a(I7
I7
tp331
a(I6
I2
tp332
a(I5
I1
tp333
a(I1
I11
tp334
a(I8
I5
tp335
a(I7
I2
tp336
a(I2
I7
tp337
a(I6
I7
tp338
a(I6
I8
tp339
a(I2
I9
tp340
a(I5
I2
tp341
a(I7
I6
tp342
a(I6
I6
tp343
a(I2
I11
tp344
ag317
a(I4
I11
tp345
a(I7
I10
tp346
a(I3
I4
tp347
a(I8
I6
tp348
a(I7
I8
tp349
a(I8
I4
tp350
atp351
Rp352
sg15
I12
sg30
g20
((lp353
(I3
I2
tp354
a(I1
I9
tp355
a(I9
I4
tp356
a(I11
I5
tp357
a(I11
I8
tp358
a(I2
I5
tp359
a(I6
I10
tp360
atp361
Rp362
sg13
((I10
I10
tp363
(I5
I5
tp364
(I11
I10
tp365
tp366
sg14
I12
sbs(iproblems
RoomID
p367
(dp368
g10
I9
sg11
(I1
I3
tp369
sg13
I4
sg14
I9
sg15
I10
sg16
I7713914763314685786
sb(imulti_robot_problem
MultiRobotState
p370
(dp371
g19
g20
((lp372
(I3
I2
tp373
ag369
a(I7
I1
tp374
a(I9
I3
tp375
a(I6
I0
tp376
a(I2
I1
tp377
a(I4
I2
tp378
a(I5
I1
tp379
a(I9
I6
tp380
a(I7
I2
tp381
a(I4
I0
tp382
a(I1
I2
tp383
a(I7
I0
tp384
a(I5
I2
tp385
a(I6
I1
tp386
a(I3
I1
tp387
a(I1
I5
tp388
a(I1
I8
tp389
a(I2
I2
tp390
a(I3
I5
tp391
a(I4
I1
tp392
a(I1
I1
tp393
atp394
Rp395
sg15
I10
sg30
g20
((lp396
(I7
I3
tp397
a(I5
I4
tp398
a(I7
I6
tp399
a(I7
I5
tp400
a(I0
I5
tp401
a(I8
I7
tp402
a(I8
I6
tp403
a(I8
I5
tp404
a(I9
I7
tp405
atp406
Rp407
sg13
((I3
I0
tp408
(I7
I7
tp409
(I2
I0
tp410
(I4
I6
tp411
tp412
sg14
I9
sbssg161
S'mild_roomset'
p413
sbsg161
g163
sg164
(dp414
g181
((lp415
F0.10999999999876309
tp416
sg228
((lp417
F385.43000000000029
tp418
sg273
((lp419
F0.36000000000058208
tp420
sg315
((lp421
F31.219999999999345
tp422
sg367
((lp423
F1.0600000000013097
tp424
ssba(imeasure_core
ProblemSetSolution
p425
(dp426
g3
(imeasure_core
RoomSet
p427
(dp428
g6
(dp429
(iproblems
RoomID
p430
(dp431
g10
I13
sg11
(I8
I4
tp432
sg13
I7
sg14
I12
sg15
I10
sg16
I7283207964119141687
sb(imulti_robot_problem
MultiRobotState
p433
(dp434
g19
g20
((lp435
(I6
I3
tp436
a(I5
I2
tp437
a(I6
I10
tp438
a(I6
I0
tp439
a(I7
I4
tp440
a(I0
I11
tp441
a(I6
I2
tp442
a(I3
I6
tp443
a(I2
I2
tp444
a(I0
I4
tp445
a(I3
I4
tp446
a(I5
I8
tp447
ag432
atp448
Rp449
sg15
I10
sg30
g20
((lp450
(I7
I3
tp451
a(I6
I7
tp452
a(I6
I8
tp453
a(I7
I1
tp454
a(I8
I1
tp455
a(I4
I4
tp456
a(I6
I6
tp457
a(I5
I6
tp458
a(I1
I9
tp459
a(I5
I0
tp460
a(I9
I10
tp461
a(I9
I6
tp462
a(I7
I9
tp463
atp464
Rp465
sg13
((I1
I7
tp466
(I7
I6
tp467
(I4
I6
tp468
(I2
I1
tp469
(I6
I4
tp470
(I0
I9
tp471
(I8
I0
tp472
tp473
sg14
I12
sbs(iproblems
RoomID
p474
(dp475
g10
I13
sg11
(I8
I3
tp476
sg13
I5
sg14
I13
sg15
I11
sg16
I890727360438182992
sb(imulti_robot_problem
MultiRobotState
p477
(dp478
g19
g20
((lp479
(I4
I10
tp480
a(I6
I9
tp481
a(I8
I2
tp482
a(I5
I9
tp483
a(I9
I8
tp484
ag476
a(I4
I12
tp485
a(I0
I10
tp486
a(I8
I7
tp487
a(I9
I1
tp488
a(I9
I0
tp489
a(I6
I8
tp490
a(I6
I10
tp491
a(I8
I8
tp492
a(I8
I6
tp493
a(I7
I8
tp494
a(I0
I2
tp495
atp496
Rp497
sg15
I11
sg30
g20
((lp498
(I10
I5
tp499
a(I0
I0
tp500
a(I4
I6
tp501
a(I0
I6
tp502
a(I9
I2
tp503
a(I8
I11
tp504
a(I2
I1
tp505
a(I9
I10
tp506
a(I1
I5
tp507
a(I0
I4
tp508
a(I0
I9
tp509
a(I5
I2
tp510
a(I4
I11
tp511
atp512
Rp513
sg13
((I3
I10
tp514
(I2
I7
tp515
(I9
I4
tp516
(I2
I11
tp517
(I7
I1
tp518
tp519
sg14
I13
sbs(iproblems
RoomID
p520
(dp521
g10
I12
sg11
(I6
I9
tp522
sg13
I6
sg14
I13
sg15
I13
sg16
I1585446675937841368
sb(imulti_robot_problem
MultiRobotState
p523
(dp524
g19
g20
((lp525
(I7
I3
tp526
ag522
a(I8
I11
tp527
a(I7
I7
tp528
a(I4
I12
tp529
a(I10
I3
tp530
a(I5
I8
tp531
a(I7
I4
tp532
a(I1
I12
tp533
a(I2
I9
tp534
a(I8
I1
tp535
a(I7
I6
tp536
a(I6
I3
tp537
a(I9
I2
tp538
a(I7
I5
tp539
a(I7
I2
tp540
a(I7
I10
tp541
a(I8
I4
tp542
a(I3
I4
tp543
a(I2
I4
tp544
a(I9
I12
tp545
a(I9
I7
tp546
atp547
Rp548
sg15
I13
sg30
g20
((lp549
(I3
I3
tp550
a(I2
I8
tp551
a(I12
I9
tp552
a(I6
I10
tp553
a(I8
I10
tp554
a(I2
I10
tp555
a(I12
I5
tp556
a(I4
I3
tp557
a(I5
I1
tp558
a(I7
I9
tp559
a(I5
I2
tp560
a(I3
I5
tp561
atp562
Rp563
sg13
((I10
I11
tp564
(I5
I5
tp565
(I12
I11
tp566
(I1
I10
tp567
(I3
I12
tp568
(I10
I4
tp569
tp570
sg14
I13
sbs(iproblems
RoomID
p571
(dp572
g10
I10
sg11
(I10
I4
tp573
sg13
I5
sg14
I10
sg15
I11
sg16
I1736392818365009963
sb(imulti_robot_problem
MultiRobotState
p574
(dp575
g19
g20
((lp576
(I0
I1
tp577
a(I1
I2
tp578
a(I3
I2
tp579
ag573
a(I4
I5
tp580
a(I7
I4
tp581
a(I6
I2
tp582
a(I2
I3
tp583
a(I10
I1
tp584
a(I3
I8
tp585
a(I10
I0
tp586
a(I10
I3
tp587
a(I10
I2
tp588
atp589
Rp590
sg15
I11
sg30
g20
((lp591
(I5
I9
tp592
a(I5
I5
tp593
a(I3
I1
tp594
a(I8
I8
tp595
a(I0
I5
tp596
a(I3
I9
tp597
a(I8
I4
tp598
a(I4
I1
tp599
a(I6
I5
tp600
a(I5
I3
tp601
atp602
Rp603
sg13
((I4
I2
tp604
(I1
I0
tp605
(I9
I3
tp606
(I1
I9
tp607
(I0
I2
tp608
tp609
sg14
I10
sbs(iproblems
RoomID
p610
(dp611
g10
I15
sg11
(I6
I9
tp612
sg13
I7
sg14
I11
sg15
I12
sg16
I3960482443532127989
sb(imulti_robot_problem
MultiRobotState
p613
(dp614
g19
g20
((lp615
(I5
I9
tp616
ag612
a(I9
I1
tp617
a(I4
I10
tp618
a(I5
I6
tp619
a(I7
I7
tp620
a(I2
I10
tp621
a(I3
I9
tp622
a(I9
I4
tp623
a(I5
I10
tp624
a(I6
I4
tp625
a(I6
I5
tp626
a(I1
I2
tp627
a(I7
I4
tp628
a(I8
I3
tp629
a(I6
I7
tp630
a(I2
I9
tp631
a(I10
I7
tp632
a(I5
I7
tp633
a(I6
I3
tp634
a(I8
I1
tp635
a(I0
I9
tp636
a(I8
I6
tp637
a(I7
I8
tp638
a(I11
I6
tp639
a(I9
I7
tp640
atp641
Rp642
sg15
I12
sg30
g20
((lp643
(I7
I3
tp644
a(I2
I6
tp645
a(I5
I5
tp646
a(I3
I0
tp647
a(I3
I8
tp648
a(I0
I6
tp649
a(I11
I1
tp650
a(I1
I6
tp651
a(I4
I3
tp652
a(I1
I7
tp653
a(I1
I3
tp654
a(I1
I0
tp655
a(I10
I1
tp656
a(I1
I1
tp657
a(I10
I2
tp658
atp659
Rp660
sg13
((I11
I10
tp661
(I1
I8
tp662
(I10
I5
tp663
(I11
I0
tp664
(I4
I8
tp665
(I7
I9
tp666
(I7
I1
tp667
tp668
sg14
I11
sbssg161
S'heavy_roomset'
p669
sbsg161
g163
sg164
(dp670
g430
((lp671
F40.329999999999927
tp672
sg474
((lp673
F313.45999999999913
tp674
sg520
((lp675
F366.46999999999935
tp676
sg571
((lp677
F1.2700000000004366
tp678
sg610
((lp679
F483.80000000000109
tp680
ssba.