(lp0
(imeasure_core
ProblemSetSolution
p1
(dp2
S'roomset'
p3
(imeasure_core
RoomSet
p4
(dp5
S'rooms'
p6
(dp7
(iproblems
RoomID
p8
(dp9
S'dusts'
p10
I10
sS'obstacles'
p11
(I0
I8
tp12
sS'robots'
p13
I4
sS'height'
p14
I10
sS'width'
p15
I9
sS'seed'
p16
I4712128852136459333
sb(imulti_robot_problem
MultiRobotState
p17
(dp18
S'obstacle_locations'
p19
c__builtin__
frozenset
p20
((lp21
(I0
I6
tp22
ag12
a(I2
I3
tp23
a(I1
I5
tp24
a(I8
I0
tp25
a(I1
I1
tp26
a(I0
I7
tp27
atp28
Rp29
sg15
I9
sS'dirt_locations'
p30
g20
((lp31
(I4
I7
tp32
a(I1
I3
tp33
a(I4
I9
tp34
a(I8
I1
tp35
a(I7
I6
tp36
a(I2
I6
tp37
a(I8
I7
tp38
a(I2
I2
tp39
a(I4
I1
tp40
a(I2
I4
tp41
atp42
Rp43
sg13
((I5
I8
tp44
(I6
I9
tp45
(I5
I0
tp46
(I3
I1
tp47
tp48
sg14
I10
sbs(iproblems
RoomID
p49
(dp50
g10
I9
sg11
(I3
I4
tp51
sg13
I1
sg14
I7
sg15
I8
sg16
I6613812840851947673
sb(imulti_robot_problem
MultiRobotState
p52
(dp53
g19
g20
((lp54
(I3
I5
tp55
ag51
a(I2
I4
tp56
a(I2
I1
tp57
a(I1
I4
tp58
atp59
Rp60
sg15
I8
sg30
g20
((lp61
(I6
I4
tp62
a(I5
I4
tp63
a(I6
I0
tp64
a(I7
I5
tp65
a(I1
I6
tp66
a(I2
I2
tp67
a(I0
I5
tp68
a(I4
I1
tp69
a(I4
I0
tp70
atp71
Rp72
sg13
((I3
I1
tp73
tp74
sg14
I7
sbs(iproblems
RoomID
p75
(dp76
g10
I10
sg11
(I4
I5
tp77
sg13
I1
sg14
I8
sg15
I8
sg16
I2893396244277848635
sb(imulti_robot_problem
MultiRobotState
p78
(dp79
g19
g20
((lp80
g77
a(I3
I7
tp81
a(I2
I6
tp82
a(I4
I6
tp83
atp84
Rp85
sg15
I8
sg30
g20
((lp86
(I6
I4
tp87
a(I0
I0
tp88
a(I6
I7
tp89
a(I3
I0
tp90
a(I2
I1
tp91
a(I0
I6
tp92
a(I7
I2
tp93
a(I2
I4
tp94
a(I6
I5
tp95
a(I5
I3
tp96
atp97
Rp98
sg13
((I2
I3
tp99
tp100
sg14
I8
sbs(iproblems
RoomID
p101
(dp102
g10
I10
sg11
(I4
I8
tp103
sg13
I4
sg14
I10
sg15
I7
sg16
I956523682424107605
sb(imulti_robot_problem
MultiRobotState
p104
(dp105
g19
g20
((lp106
(I2
I8
tp107
ag103
a(I3
I7
tp108
a(I2
I9
tp109
a(I4
I2
tp110
atp111
Rp112
sg15
I7
sg30
g20
((lp113
(I5
I9
tp114
a(I4
I7
tp115
a(I1
I3
tp116
a(I3
I3
tp117
a(I5
I5
tp118
a(I6
I1
tp119
a(I5
I4
tp120
a(I0
I4
tp121
a(I5
I2
tp122
a(I5
I3
tp123
atp124
Rp125
sg13
((I1
I9
tp126
(I4
I9
tp127
(I1
I8
tp128
(I0
I3
tp129
tp130
sg14
I10
sbs(iproblems
RoomID
p131
(dp132
g10
I9
sg11
(I5
I3
tp133
sg13
I3
sg14
I7
sg15
I8
sg16
I4594210616595436404
sb(imulti_robot_problem
MultiRobotState
p134
(dp135
g19
g20
((lp136
(I0
I1
tp137
a(I3
I3
tp138
a(I4
I3
tp139
a(I4
I2
tp140
a(I6
I1
tp141
ag133
atp142
Rp143
sg15
I8
sg30
g20
((lp144
(I6
I6
tp145
a(I5
I6
tp146
a(I4
I4
tp147
a(I1
I4
tp148
a(I0
I6
tp149
a(I5
I1
tp150
a(I1
I0
tp151
a(I0
I3
tp152
a(I1
I1
tp153
atp154
Rp155
sg13
((I2
I1
tp156
(I3
I4
tp157
(I3
I6
tp158
tp159
sg14
I7
sbssS'name'
p160
S'easy_roomset'
p161
sbsg160
S'LimitedTimeAStar_with_PowerHeuristic2'
p162
sS'solutions'
p163
(dp164
g8
((lp165
F0.75
tp166
sg49
((lp167
F0.050000000000181899
tp168
sg75
((lp169
F0.18000000000029104
tp170
sg101
((lp171
F0.32999999999992724
tp172
sg131
((lp173
F0.35999999999967258
tp174
ssba(imeasure_core
ProblemSetSolution
p175
(dp176
g3
(imeasure_core
RoomSet
p177
(dp178
g6
(dp179
(iproblems
RoomID
p180
(dp181
g10
I10
sg11
(I8
I7
tp182
sg13
I4
sg14
I12
sg15
I11
sg16
I4712128852136459333
sb(imulti_robot_problem
MultiRobotState
p183
(dp184
g19
g20
((lp185
(I6
I4
tp186
a(I4
I7
tp187
ag182
a(I4
I5
tp188
a(I3
I11
tp189
a(I0
I7
tp190
a(I7
I7
tp191
a(I1
I6
tp192
a(I1
I9
tp193
a(I2
I10
tp194
a(I4
I2
tp195
a(I1
I11
tp196
a(I6
I5
tp197
a(I5
I3
tp198
a(I9
I0
tp199
a(I0
I8
tp200
a(I5
I5
tp201
a(I7
I6
tp202
a(I3
I1
tp203
a(I2
I11
tp204
a(I0
I9
tp205
a(I2
I3
tp206
a(I4
I1
tp207
a(I1
I1
tp208
atp209
Rp210
sg15
I11
sg30
g20
((lp211
(I2
I7
tp212
a(I9
I1
tp213
a(I9
I8
tp214
a(I5
I1
tp215
a(I2
I5
tp216
a(I9
I7
tp217
a(I3
I4
tp218
a(I2
I4
tp219
a(I5
I8
tp220
a(I3
I3
tp221
atp222
Rp223
sg13
((I6
I10
tp224
(I8
I10
tp225
(I7
I0
tp226
(I5
I11
tp227
tp228
sg14
I12
sbs(iproblems
RoomID
p229
(dp230
g10
I9
sg11
(I4
I4
tp231
sg13
I3
sg14
I9
sg15
I10
sg16
I4594210616595436404
sb(imulti_robot_problem
MultiRobotState
p232
(dp233
g19
g20
((lp234
(I1
I3
tp235
a(I3
I0
tp236
a(I2
I1
tp237
a(I1
I6
tp238
a(I9
I4
tp239
a(I3
I7
tp240
a(I0
I3
tp241
a(I1
I2
tp242
a(I5
I5
tp243
a(I1
I5
tp244
a(I7
I6
tp245
ag231
a(I6
I3
tp246
a(I5
I6
tp247
a(I3
I6
tp248
a(I0
I4
tp249
a(I8
I6
tp250
a(I3
I5
tp251
a(I1
I1
tp252
a(I5
I4
tp253
a(I4
I5
tp254
a(I0
I5
tp255
a(I5
I3
tp256
a(I0
I1
tp257
a(I5
I2
tp258
a(I0
I6
tp259
a(I2
I0
tp260
a(I1
I8
tp261
a(I2
I3
tp262
a(I9
I5
tp263
a(I3
I4
tp264
a(I0
I2
tp265
atp266
Rp267
sg15
I10
sg30
g20
((lp268
(I7
I8
tp269
a(I7
I0
tp270
a(I6
I8
tp271
a(I2
I8
tp272
a(I8
I8
tp273
a(I0
I8
tp274
a(I8
I5
tp275
a(I5
I8
tp276
a(I8
I2
tp277
atp278
Rp279
sg13
((I4
I6
tp280
(I2
I5
tp281
(I6
I1
tp282
tp283
sg14
I9
sbs(iproblems
RoomID
p284
(dp285
g10
I6
sg11
(I8
I8
tp286
sg13
I4
sg14
I11
sg15
I12
sg16
I7529058068588108450
sb(imulti_robot_problem
MultiRobotState
p287
(dp288
g19
g20
((lp289
(I5
I9
tp290
a(I6
I9
tp291
a(I2
I6
tp292
a(I3
I2
tp293
a(I9
I1
tp294
a(I4
I10
tp295
a(I6
I6
tp296
a(I7
I7
tp297
a(I7
I1
tp298
a(I4
I6
tp299
a(I10
I4
tp300
a(I7
I5
tp301
a(I6
I8
tp302
a(I3
I7
tp303
a(I5
I8
tp304
a(I8
I2
tp305
a(I5
I5
tp306
a(I7
I6
tp307
a(I4
I4
tp308
a(I7
I4
tp309
a(I1
I5
tp310
ag286
a(I7
I2
tp311
a(I3
I6
tp312
a(I2
I2
tp313
a(I1
I10
tp314
a(I7
I8
tp315
a(I3
I10
tp316
atp317
Rp318
sg15
I12
sg30
g20
((lp319
(I7
I3
tp320
a(I0
I5
tp321
a(I4
I0
tp322
a(I11
I3
tp323
a(I11
I6
tp324
a(I6
I0
tp325
atp326
Rp327
sg13
((I11
I7
tp328
(I6
I2
tp329
(I11
I5
tp330
(I6
I7
tp331
tp332
sg14
I11
sbs(iproblems
RoomID
p333
(dp334
g10
I5
sg11
(I4
I9
tp335
sg13
I4
sg14
I11
sg15
I11
sg16
I1881095652490078568
sb(imulti_robot_problem
MultiRobotState
p336
(dp337
g19
g20
((lp338
(I6
I9
tp339
a(I6
I6
tp340
a(I4
I5
tp341
a(I2
I8
tp342
a(I9
I3
tp343
a(I4
I7
tp344
a(I7
I5
tp345
a(I5
I4
tp346
ag335
a(I6
I5
tp347
a(I3
I5
tp348
a(I7
I4
tp349
a(I1
I7
tp350
a(I6
I7
tp351
a(I4
I6
tp352
a(I7
I6
tp353
a(I4
I4
tp354
a(I8
I10
tp355
a(I6
I3
tp356
a(I7
I10
tp357
a(I2
I2
tp358
a(I4
I8
tp359
a(I7
I8
tp360
a(I1
I1
tp361
a(I8
I4
tp362
atp363
Rp364
sg15
I11
sg30
g20
((lp365
(I1
I10
tp366
a(I5
I9
tp367
a(I0
I0
tp368
a(I10
I2
tp369
a(I9
I7
tp370
atp371
Rp372
sg13
((I5
I7
tp373
(I8
I1
tp374
(I3
I1
tp375
(I8
I8
tp376
tp377
sg14
I11
sbs(iproblems
RoomID
p378
(dp379
g10
I8
sg11
(I5
I0
tp380
sg13
I4
sg14
I9
sg15
I9
sg16
I6858376947525423350
sb(imulti_robot_problem
MultiRobotState
p381
(dp382
g19
g20
((lp383
(I6
I4
tp384
a(I4
I7
tp385
a(I1
I3
tp386
a(I4
I3
tp387
a(I7
I1
tp388
a(I3
I0
tp389
a(I2
I8
tp390
a(I6
I0
tp391
a(I2
I1
tp392
a(I1
I6
tp393
a(I5
I1
tp394
a(I2
I5
tp395
a(I0
I8
tp396
a(I7
I2
tp397
a(I2
I7
tp398
a(I3
I8
tp399
a(I5
I5
tp400
a(I6
I1
tp401
a(I5
I7
tp402
a(I6
I3
tp403
a(I1
I8
tp404
ag380
a(I2
I2
tp405
a(I2
I3
tp406
a(I3
I4
tp407
a(I2
I4
tp408
atp409
Rp410
sg15
I9
sg30
g20
((lp411
(I8
I3
tp412
a(I7
I0
tp413
a(I4
I6
tp414
a(I6
I6
tp415
a(I7
I5
tp416
a(I8
I0
tp417
a(I8
I8
tp418
a(I8
I4
tp419
atp420
Rp421
sg13
((I1
I1
tp422
(I6
I5
tp423
(I8
I2
tp424
(I1
I5
tp425
tp426
sg14
I9
sbssg160
S'mild_roomset'
p427
sbsg160
g162
sg163
(dp428
g180
((lp429
F4.430000000000291
tp430
sg229
((lp431
F0.50999999999930878
tp432
sg378
((lp433
F0.33000000000083674
tp434
sg333
((lp435
F0.1499999999996362
tp436
sg284
((lp437
F10.640000000000327
tp438
ssba(imeasure_core
ProblemSetSolution
p439
(dp440
g3
(imeasure_core
RoomSet
p441
(dp442
g6
(dp443
(iproblems
RoomID
p444
(dp445
g10
I15
sg11
(I5
I9
tp446
sg13
I7
sg14
I13
sg15
I12
sg16
I4712128852136459333
sb(imulti_robot_problem
MultiRobotState
p447
(dp448
g19
g20
((lp449
g446
a(I4
I9
tp450
a(I5
I5
tp451
a(I4
I12
tp452
a(I2
I8
tp453
a(I3
I1
tp454
a(I3
I9
tp455
a(I9
I4
tp456
a(I1
I7
tp457
a(I1
I10
tp458
a(I3
I12
tp459
a(I0
I8
tp460
a(I5
I2
tp461
atp462
Rp463
sg15
I12
sg30
g20
((lp464
(I6
I9
tp465
a(I3
I3
tp466
a(I1
I12
tp467
a(I5
I6
tp468
a(I7
I7
tp469
a(I3
I5
tp470
a(I3
I8
tp471
a(I8
I8
tp472
a(I10
I0
tp473
a(I2
I5
tp474
a(I10
I2
tp475
a(I3
I4
tp476
a(I1
I1
tp477
a(I5
I8
tp478
a(I9
I7
tp479
atp480
Rp481
sg13
((I6
I11
tp482
(I8
I11
tp483
(I7
I0
tp484
(I4
I1
tp485
(I6
I12
tp486
(I10
I9
tp487
(I6
I1
tp488
tp489
sg14
I13
sbs(iproblems
RoomID
p490
(dp491
g10
I14
sg11
(I5
I5
tp492
sg13
I5
sg14
I10
sg15
I11
sg16
I6613812840851947673
sb(imulti_robot_problem
MultiRobotState
p493
(dp494
g19
g20
((lp495
(I4
I7
tp496
a(I2
I6
tp497
a(I6
I6
tp498
a(I4
I5
tp499
a(I7
I5
tp500
a(I1
I6
tp501
a(I8
I7
tp502
a(I3
I7
tp503
a(I10
I3
tp504
a(I3
I5
tp505
a(I10
I8
tp506
a(I6
I3
tp507
ag492
a(I8
I5
tp508
a(I7
I4
tp509
a(I3
I8
tp510
a(I0
I6
tp511
a(I3
I6
tp512
a(I1
I3
tp513
a(I8
I6
tp514
a(I2
I4
tp515
atp516
Rp517
sg15
I11
sg30
g20
((lp518
(I6
I4
tp519
a(I3
I2
tp520
a(I4
I6
tp521
a(I4
I9
tp522
a(I3
I3
tp523
a(I9
I8
tp524
a(I8
I0
tp525
a(I8
I8
tp526
a(I5
I0
tp527
a(I1
I0
tp528
a(I8
I4
tp529
a(I5
I2
tp530
a(I6
I1
tp531
a(I9
I7
tp532
atp533
Rp534
sg13
((I5
I1
tp535
(I0
I8
tp536
(I2
I9
tp537
(I4
I1
tp538
(I7
I6
tp539
tp540
sg14
I10
sbs(iproblems
RoomID
p541
(dp542
g10
I13
sg11
(I1
I6
tp543
sg13
I7
sg14
I10
sg15
I10
sg16
I6858376947525423350
sb(imulti_robot_problem
MultiRobotState
p544
(dp545
g19
g20
((lp546
(I4
I7
tp547
a(I1
I3
tp548
a(I2
I8
tp549
a(I2
I2
tp550
a(I2
I1
tp551
a(I2
I3
tp552
a(I9
I5
tp553
a(I2
I5
tp554
a(I2
I7
tp555
a(I2
I9
tp556
a(I8
I1
tp557
ag543
a(I1
I7
tp558
a(I0
I9
tp559
a(I8
I6
tp560
a(I2
I4
tp561
atp562
Rp563
sg15
I10
sg30
g20
((lp564
(I8
I0
tp565
a(I4
I9
tp566
a(I3
I3
tp567
a(I3
I0
tp568
a(I7
I6
tp569
a(I5
I7
tp570
a(I9
I9
tp571
a(I4
I4
tp572
a(I6
I2
tp573
a(I9
I4
tp574
a(I8
I5
tp575
a(I5
I8
tp576
a(I5
I3
tp577
atp578
Rp579
sg13
((I1
I2
tp580
(I7
I5
tp581
(I7
I2
tp582
(I9
I2
tp583
(I1
I5
tp584
(I9
I0
tp585
(I6
I6
tp586
tp587
sg14
I10
sbs(iproblems
RoomID
p588
(dp589
g10
I15
sg11
(I6
I6
tp590
sg13
I5
sg14
I11
sg15
I11
sg16
I2893396244277848635
sb(imulti_robot_problem
MultiRobotState
p591
(dp592
g19
g20
((lp593
(I7
I3
tp594
a(I4
I7
tp595
a(I5
I5
tp596
a(I4
I8
tp597
a(I5
I6
tp598
a(I2
I8
tp599
ag590
a(I3
I2
tp600
a(I3
I9
tp601
a(I4
I3
tp602
a(I1
I7
tp603
a(I6
I9
tp604
atp605
Rp606
sg15
I11
sg30
g20
((lp607
(I2
I6
tp608
a(I8
I7
tp609
a(I3
I10
tp610
a(I3
I1
tp611
a(I2
I10
tp612
a(I0
I5
tp613
a(I6
I5
tp614
a(I3
I6
tp615
a(I8
I6
tp616
a(I4
I0
tp617
a(I3
I7
tp618
a(I7
I9
tp619
a(I4
I1
tp620
a(I5
I8
tp621
a(I5
I3
tp622
atp623
Rp624
sg13
((I4
I5
tp625
(I0
I9
tp626
(I0
I1
tp627
(I9
I2
tp628
(I8
I10
tp629
tp630
sg14
I11
sbs(iproblems
RoomID
p631
(dp632
g10
I15
sg11
(I4
I8
tp633
sg13
I6
sg14
I13
sg15
I10
sg16
I956523682424107605
sb(imulti_robot_problem
MultiRobotState
p634
(dp635
g19
g20
((lp636
(I5
I9
tp637
a(I6
I9
tp638
a(I7
I10
tp639
ag633
a(I5
I6
tp640
a(I3
I11
tp641
a(I9
I4
tp642
a(I4
I9
tp643
a(I5
I8
tp644
a(I2
I7
tp645
a(I5
I10
tp646
a(I5
I5
tp647
a(I3
I10
tp648
a(I5
I7
tp649
a(I9
I9
tp650
a(I5
I0
tp651
a(I7
I8
tp652
a(I1
I1
tp653
atp654
Rp655
sg15
I10
sg30
g20
((lp656
(I6
I10
tp657
a(I8
I3
tp658
a(I1
I3
tp659
a(I6
I6
tp660
a(I7
I6
tp661
a(I8
I12
tp662
a(I5
I4
tp663
a(I1
I4
tp664
a(I2
I10
tp665
a(I7
I4
tp666
a(I1
I5
tp667
a(I7
I5
tp668
a(I0
I9
tp669
a(I7
I11
tp670
a(I6
I2
tp671
atp672
Rp673
sg13
((I1
I12
tp674
(I6
I12
tp675
(I2
I11
tp676
(I0
I4
tp677
(I9
I1
tp678
(I7
I7
tp679
tp680
sg14
I13
sbssg160
S'heavy_roomset'
p681
sbsg160
g162
sg163
(dp682
g444
((lp683
F281.90999999999985
tp684
sg490
((lp685
F17.139999999999418
tp686
sg588
((lp687
F8.1899999999995998
tp688
sg541
((lp689
F35.910000000000764
tp690
sg631
((lp691
F12.6899999999996
tp692
ssba.