(lp0
(imeasure_core
ProblemSetSolution
p1
(dp2
S'roomset'
p3
(imeasure_core
RoomSet
p4
(dp5
S'rooms'
p6
(dp7
(iproblems
RoomID
p8
(dp9
S'dusts'
p10
I6
sS'obstacles'
p11
(I1
I6
tp12
sS'robots'
p13
I4
sS'height'
p14
I8
sS'width'
p15
I10
sS'seed'
p16
I403795515464475257
sb(imulti_robot_problem
MultiRobotState
p17
(dp18
S'obstacle_locations'
p19
c__builtin__
frozenset
p20
((lp21
(I8
I3
tp22
a(I1
I3
tp23
a(I6
I7
tp24
a(I0
I4
tp25
ag12
a(I4
I1
tp26
a(I0
I5
tp27
atp28
Rp29
sg15
I10
sS'dirt_locations'
p30
g20
((lp31
(I7
I3
tp32
a(I4
I7
tp33
a(I2
I2
tp34
a(I8
I0
tp35
a(I0
I2
tp36
a(I0
I7
tp37
atp38
Rp39
sg13
((I8
I2
tp40
(I6
I1
tp41
(I5
I0
tp42
(I2
I0
tp43
tp44
sg14
I8
sbs(iproblems
RoomID
p45
(dp46
g10
I7
sg11
(I1
I3
tp47
sg13
I1
sg14
I7
sg15
I9
sg16
I1486246605650367638
sb(imulti_robot_problem
MultiRobotState
p48
(dp49
g19
g20
((lp50
(I0
I1
tp51
a(I8
I3
tp52
ag47
a(I0
I3
tp53
a(I0
I2
tp54
atp55
Rp56
sg15
I9
sg30
g20
((lp57
(I7
I5
tp58
a(I7
I0
tp59
a(I0
I4
tp60
a(I1
I0
tp61
a(I4
I4
tp62
a(I6
I5
tp63
a(I4
I0
tp64
atp65
Rp66
sg13
((I5
I1
tp67
tp68
sg14
I7
sbs(iproblems
RoomID
p69
(dp70
g10
I6
sg11
(I4
I4
tp71
sg13
I4
sg14
I9
sg15
I9
sg16
I5891625650498269233
sb(imulti_robot_problem
MultiRobotState
p72
(dp73
g19
g20
((lp74
(I2
I7
tp75
a(I4
I5
tp76
ag71
a(I3
I6
tp77
atp78
Rp79
sg15
I9
sg30
g20
((lp80
(I7
I4
tp81
a(I8
I3
tp82
a(I0
I5
tp83
a(I5
I5
tp84
a(I6
I6
tp85
a(I4
I0
tp86
atp87
Rp88
sg13
((I4
I6
tp89
(I7
I1
tp90
(I0
I4
tp91
(I7
I2
tp92
tp93
sg14
I9
sbs(iproblems
RoomID
p94
(dp95
g10
I9
sg11
(I7
I5
tp96
sg13
I4
sg14
I10
sg15
I10
sg16
I679259829289197625
sb(imulti_robot_problem
MultiRobotState
p97
(dp98
g19
g20
((lp99
(I9
I6
tp100
a(I8
I6
tp101
a(I7
I6
tp102
ag96
a(I7
I0
tp103
atp104
Rp105
sg15
I10
sg30
g20
((lp106
(I5
I4
tp107
a(I2
I6
tp108
a(I7
I1
tp109
a(I6
I1
tp110
a(I1
I6
tp111
a(I0
I5
tp112
a(I8
I7
tp113
a(I0
I9
tp114
a(I9
I5
tp115
atp116
Rp117
sg13
((I7
I8
tp118
(I6
I7
tp119
(I3
I5
tp120
(I3
I9
tp121
tp122
sg14
I10
sbs(iproblems
RoomID
p123
(dp124
g10
I5
sg11
(I3
I4
tp125
sg13
I1
sg14
I9
sg15
I9
sg16
I2685440357799139976
sb(imulti_robot_problem
MultiRobotState
p126
(dp127
g19
g20
((lp128
(I8
I3
tp129
a(I1
I3
tp130
a(I5
I6
tp131
ag125
a(I2
I4
tp132
a(I3
I8
tp133
a(I2
I3
tp134
a(I7
I8
tp135
a(I1
I1
tp136
atp137
Rp138
sg15
I9
sg30
g20
((lp139
(I0
I1
tp140
a(I0
I0
tp141
a(I3
I1
tp142
a(I8
I7
tp143
a(I5
I0
tp144
atp145
Rp146
sg13
((I5
I5
tp147
tp148
sg14
I9
sbssS'name'
p149
S'easy_roomset'
p150
sbsg149
S"AnytimeBeam-w5-gf(1.5, 'exp')_with_PowerHeuristic2"
p151
sS'solutions'
p152
(dp153
g94
((lp154
(F2.8299999999944703
I20
tp155
aF40.15999999999622
tp156
sg8
((lp157
(F3.6700000000055297
I134
tp158
aF40.01000000000204
tp159
sg45
((lp160
(F0.16000000000349246
I45
tp161
a(F0.7399999999979627
I44
tp162
a(F1.360000000000582
I37
tp163
a(F1.9499999999970896
I36
tp164
a(F2.5500000000029104
I34
tp165
a(F4.559999999997672
I33
tp166
a(F6.709999999999127
I31
tp167
a(F9.55000000000291
I30
tp168
a(F12.599999999998545
I28
tp169
a(F14.930000000000291
I26
tp170
a(F19.7699999999968
I25
tp171
a(F25.9800000000032
I24
tp172
aF40.0
tp173
sg69
((lp174
(F1.7399999999979627
I8
tp175
aF40.19000000000233
tp176
sg123
((lp177
(F0.16000000000349246
I47
tp178
a(F1.2200000000011642
I45
tp179
a(F2.2300000000032014
I43
tp180
a(F3.180000000000291
I35
tp181
a(F4.290000000000873
I33
tp182
a(F5.510000000002037
I31
tp183
a(F6.779999999998836
I29
tp184
a(F9.029999999998836
I27
tp185
a(F12.139999999999418
I25
tp186
a(F14.770000000004075
I23
tp187
aF40.0
tp188
ssba(imeasure_core
ProblemSetSolution
p189
(dp190
g3
(imeasure_core
RoomSet
p191
(dp192
g6
(dp193
(iproblems
RoomID
p194
(dp195
g10
I5
sg11
(I9
I1
tp196
sg13
I3
sg14
I11
sg15
I11
sg16
I2685440357799139976
sb(imulti_robot_problem
MultiRobotState
p197
(dp198
g19
g20
((lp199
(I7
I3
tp200
a(I10
I4
tp201
a(I9
I3
tp202
ag196
a(I7
I1
tp203
a(I5
I6
tp204
a(I10
I6
tp205
a(I1
I4
tp206
a(I9
I9
tp207
a(I3
I9
tp208
a(I9
I4
tp209
a(I6
I8
tp210
a(I9
I6
tp211
a(I3
I4
tp212
a(I10
I3
tp213
a(I7
I2
tp214
a(I5
I3
tp215
a(I8
I3
tp216
a(I5
I5
tp217
a(I10
I7
tp218
a(I8
I5
tp219
a(I9
I2
tp220
a(I3
I6
tp221
a(I4
I5
tp222
a(I6
I5
tp223
a(I7
I10
tp224
a(I9
I5
tp225
a(I3
I5
tp226
a(I7
I8
tp227
a(I2
I4
tp228
a(I10
I9
tp229
atp230
Rp231
sg15
I11
sg30
g20
((lp232
(I1
I2
tp233
a(I9
I10
tp234
a(I6
I1
tp235
a(I4
I1
tp236
a(I0
I2
tp237
atp238
Rp239
sg13
((I6
I6
tp240
(I0
I0
tp241
(I10
I8
tp242
tp243
sg14
I11
sbs(iproblems
RoomID
p244
(dp245
g10
I7
sg11
(I8
I8
tp246
sg13
I3
sg14
I9
sg15
I9
sg16
I7834319822419845881
sb(imulti_robot_problem
MultiRobotState
p247
(dp248
g19
g20
((lp249
(I4
I7
tp250
a(I1
I3
tp251
a(I5
I0
tp252
a(I6
I6
tp253
a(I5
I6
tp254
a(I2
I8
tp255
a(I3
I5
tp256
a(I4
I6
tp257
a(I2
I6
tp258
a(I0
I5
tp259
a(I3
I7
tp260
a(I0
I3
tp261
a(I0
I8
tp262
a(I8
I5
tp263
a(I5
I8
tp264
a(I3
I3
tp265
a(I2
I7
tp266
a(I6
I7
tp267
a(I5
I5
tp268
a(I7
I8
tp269
a(I4
I4
tp270
a(I1
I5
tp271
a(I1
I8
tp272
ag246
a(I3
I6
tp273
a(I1
I7
tp274
a(I4
I5
tp275
a(I5
I3
tp276
a(I3
I4
tp277
atp278
Rp279
sg15
I9
sg30
g20
((lp280
(I7
I4
tp281
a(I2
I0
tp282
a(I6
I2
tp283
a(I7
I0
tp284
a(I8
I7
tp285
a(I7
I1
tp286
a(I1
I4
tp287
atp288
Rp289
sg13
((I2
I1
tp290
(I2
I3
tp291
(I5
I7
tp292
tp293
sg14
I9
sbs(iproblems
RoomID
p294
(dp295
g10
I10
sg11
(I1
I5
tp296
sg13
I4
sg14
I12
sg15
I10
sg16
I1737871632067391849
sb(imulti_robot_problem
MultiRobotState
p297
(dp298
g19
g20
((lp299
(I3
I2
tp300
a(I0
I0
tp301
a(I6
I6
tp302
a(I5
I6
tp303
a(I2
I8
tp304
a(I2
I10
tp305
a(I8
I9
tp306
a(I6
I2
tp307
a(I2
I3
tp308
a(I8
I7
tp309
a(I5
I1
tp310
a(I8
I5
tp311
a(I5
I8
tp312
a(I8
I3
tp313
a(I5
I5
tp314
a(I7
I8
tp315
a(I7
I6
tp316
a(I8
I10
tp317
ag296
a(I6
I5
tp318
a(I2
I2
tp319
a(I4
I1
tp320
a(I2
I4
tp321
atp322
Rp323
sg15
I10
sg30
g20
((lp324
(I0
I1
tp325
a(I4
I10
tp326
a(I4
I8
tp327
a(I3
I0
tp328
a(I9
I6
tp329
a(I3
I10
tp330
a(I5
I11
tp331
a(I2
I7
tp332
a(I1
I9
tp333
a(I3
I4
tp334
atp335
Rp336
sg13
((I4
I9
tp337
(I8
I11
tp338
(I4
I0
tp339
(I3
I9
tp340
tp341
sg14
I12
sbs(iproblems
RoomID
p342
(dp343
g10
I9
sg11
(I7
I7
tp344
sg13
I4
sg14
I12
sg15
I12
sg16
I679259829289197625
sb(imulti_robot_problem
MultiRobotState
p345
(dp346
g19
g20
((lp347
(I6
I4
tp348
a(I6
I9
tp349
a(I6
I6
tp350
a(I5
I6
tp351
a(I9
I8
tp352
a(I11
I9
tp353
ag344
a(I1
I4
tp354
a(I11
I7
tp355
a(I7
I5
tp356
a(I8
I7
tp357
a(I4
I2
tp358
a(I8
I5
tp359
a(I6
I5
tp360
a(I10
I8
tp361
a(I10
I5
tp362
a(I6
I7
tp363
a(I6
I8
tp364
a(I10
I7
tp365
a(I9
I6
tp366
a(I7
I6
tp367
a(I8
I10
tp368
a(I7
I4
tp369
a(I11
I8
tp370
a(I7
I10
tp371
a(I8
I6
tp372
a(I6
I1
tp373
a(I9
I7
tp374
atp375
Rp376
sg15
I12
sg30
g20
((lp377
(I2
I7
tp378
a(I9
I0
tp379
a(I8
I2
tp380
a(I7
I1
tp381
a(I11
I0
tp382
a(I0
I11
tp383
a(I1
I6
tp384
a(I1
I7
tp385
a(I11
I6
tp386
atp387
Rp388
sg13
((I9
I10
tp389
(I8
I9
tp390
(I3
I7
tp391
(I3
I11
tp392
tp393
sg14
I12
sbs(iproblems
RoomID
p394
(dp395
g10
I6
sg11
(I3
I9
tp396
sg13
I4
sg14
I11
sg15
I11
sg16
I5891625650498269233
sb(imulti_robot_problem
MultiRobotState
p397
(dp398
g19
g20
((lp399
(I7
I3
tp400
a(I4
I7
tp401
a(I6
I6
tp402
a(I5
I6
tp403
a(I2
I8
tp404
a(I6
I2
tp405
a(I5
I1
tp406
a(I3
I7
tp407
a(I8
I5
tp408
a(I5
I5
tp409
a(I2
I9
tp410
a(I7
I6
tp411
a(I4
I4
tp412
a(I2
I2
tp413
a(I1
I1
tp414
a(I9
I7
tp415
a(I3
I2
tp416
a(I10
I4
tp417
a(I4
I5
tp418
a(I9
I3
tp419
a(I10
I5
tp420
a(I2
I10
tp421
a(I7
I5
tp422
a(I2
I3
tp423
a(I8
I3
tp424
a(I4
I6
tp425
a(I5
I2
tp426
a(I6
I1
tp427
a(I3
I8
tp428
a(I1
I8
tp429
ag396
a(I4
I3
tp430
a(I9
I5
tp431
a(I3
I4
tp432
a(I8
I4
tp433
atp434
Rp435
sg15
I11
sg30
g20
((lp436
(I8
I8
tp437
a(I5
I10
tp438
a(I9
I1
tp439
a(I10
I7
tp440
a(I1
I6
tp441
a(I7
I9
tp442
atp443
Rp444
sg13
((I5
I7
tp445
(I8
I1
tp446
(I0
I5
tp447
(I4
I0
tp448
tp449
sg14
I11
sbssg149
S'mild_roomset'
p450
sbsg149
g151
sg152
(dp451
g194
((lp452
(F26.610000000000582
I127
tp453
aF40.06000000000495
tp454
sg244
((lp455
(F0.12000000000261934
I25
tp456
aF40.0199999999968
tp457
sg294
((lp458
(F1.139999999999418
I12
tp459
aF40.05999999999767
tp460
sg342
((lp461
F40.400000000001455
tp462
sg394
((lp463
(F16.389999999999418
I64
tp464
aF40.48999999999796
tp465
ssba(imeasure_core
ProblemSetSolution
p466
(dp467
g3
(imeasure_core
RoomSet
p468
(dp469
g6
(dp470
(iproblems
RoomID
p471
(dp472
g10
I11
sg11
(I11
I9
tp473
sg13
I7
sg14
I12
sg15
I12
sg16
I5891625650498269233
sb(imulti_robot_problem
MultiRobotState
p474
(dp475
g19
g20
((lp476
(I4
I4
tp477
a(I4
I8
tp478
a(I5
I6
tp479
a(I8
I11
tp480
ag473
a(I7
I7
tp481
a(I7
I1
tp482
a(I9
I10
tp483
a(I3
I9
tp484
a(I1
I9
tp485
a(I6
I7
tp486
a(I10
I7
tp487
a(I7
I6
tp488
a(I5
I7
tp489
a(I2
I11
tp490
a(I6
I11
tp491
a(I9
I11
tp492
a(I7
I10
tp493
a(I10
I9
tp494
atp495
Rp496
sg15
I12
sg30
g20
((lp497
(I11
I7
tp498
a(I11
I4
tp499
a(I4
I6
tp500
a(I5
I11
tp501
a(I8
I10
tp502
a(I0
I5
tp503
a(I8
I7
tp504
a(I1
I7
tp505
a(I10
I1
tp506
a(I1
I1
tp507
a(I5
I5
tp508
atp509
Rp510
sg13
((I6
I8
tp511
(I9
I2
tp512
(I0
I6
tp513
(I10
I3
tp514
(I9
I5
tp515
(I5
I0
tp516
(I9
I8
tp517
tp518
sg14
I12
sbs(iproblems
RoomID
p519
(dp520
g10
I11
sg11
(I2
I7
tp521
sg13
I6
sg14
I11
sg15
I13
sg16
I403795515464475257
sb(imulti_robot_problem
MultiRobotState
p522
(dp523
g19
g20
((lp524
g521
a(I10
I8
tp525
a(I1
I7
tp526
a(I3
I10
tp527
a(I4
I4
tp528
a(I1
I4
tp529
a(I12
I5
tp530
a(I0
I6
tp531
a(I0
I5
tp532
a(I3
I6
tp533
a(I2
I2
tp534
a(I0
I8
tp535
a(I7
I9
tp536
atp537
Rp538
sg15
I13
sg30
g20
((lp539
(I6
I4
tp540
a(I0
I0
tp541
a(I2
I9
tp542
a(I11
I5
tp543
a(I8
I9
tp544
a(I11
I1
tp545
a(I2
I3
tp546
a(I1
I10
tp547
a(I12
I2
tp548
a(I0
I3
tp549
a(I5
I2
tp550
atp551
Rp552
sg13
((I10
I3
tp553
(I7
I2
tp554
(I7
I0
tp555
(I3
I1
tp556
(I5
I10
tp557
(I9
I4
tp558
tp559
sg14
I11
sbs(iproblems
RoomID
p560
(dp561
g10
I12
sg11
(I6
I3
tp562
sg13
I5
sg14
I10
sg15
I12
sg16
I1486246605650367638
sb(imulti_robot_problem
MultiRobotState
p563
(dp564
g19
g20
((lp565
(I5
I9
tp566
a(I1
I3
tp567
a(I7
I1
tp568
a(I2
I7
tp569
a(I1
I4
tp570
a(I6
I2
tp571
a(I1
I6
tp572
a(I2
I1
tp573
a(I0
I3
tp574
a(I6
I5
tp575
a(I1
I2
tp576
a(I1
I5
tp577
a(I4
I1
tp578
a(I3
I1
tp579
ag562
a(I2
I0
tp580
a(I10
I0
tp581
a(I5
I2
tp582
a(I1
I1
tp583
a(I8
I4
tp584
atp585
Rp586
sg15
I12
sg30
g20
((lp587
(I11
I7
tp588
a(I11
I4
tp589
a(I9
I1
tp590
a(I11
I8
tp591
a(I2
I8
tp592
a(I6
I0
tp593
a(I0
I6
tp594
a(I11
I1
tp595
a(I0
I4
tp596
a(I4
I9
tp597
a(I10
I9
tp598
a(I9
I7
tp599
atp600
Rp601
sg13
((I2
I4
tp602
(I10
I1
tp603
(I2
I5
tp604
(I9
I8
tp605
(I6
I6
tp606
tp607
sg14
I10
sbs(iproblems
RoomID
p608
(dp609
g10
I10
sg11
(I6
I9
tp610
sg13
I5
sg14
I12
sg15
I12
sg16
I2685440357799139976
sb(imulti_robot_problem
MultiRobotState
p611
(dp612
g19
g20
((lp613
(I4
I10
tp614
ag610
a(I9
I1
tp615
a(I5
I11
tp616
a(I3
I0
tp617
a(I0
I7
tp618
a(I3
I9
tp619
a(I0
I5
tp620
a(I1
I4
tp621
a(I0
I3
tp622
a(I4
I0
tp623
a(I1
I2
tp624
a(I11
I10
tp625
a(I6
I10
tp626
a(I5
I6
tp627
a(I9
I11
tp628
a(I7
I9
tp629
a(I4
I5
tp630
a(I3
I5
tp631
a(I3
I4
tp632
a(I2
I4
tp633
a(I1
I9
tp634
atp635
Rp636
sg15
I12
sg30
g20
((lp637
(I11
I7
tp638
a(I8
I3
tp639
a(I10
I11
tp640
a(I7
I1
tp641
a(I10
I5
tp642
a(I8
I10
tp643
a(I6
I3
tp644
a(I3
I6
tp645
a(I9
I10
tp646
a(I6
I5
tp647
atp648
Rp649
sg13
((I7
I7
tp650
(I0
I0
tp651
(I11
I9
tp652
(I0
I2
tp653
(I4
I1
tp654
tp655
sg14
I12
sbs(iproblems
RoomID
p656
(dp657
g10
I14
sg11
(I7
I6
tp658
sg13
I7
sg14
I13
sg15
I13
sg16
I679259829289197625
sb(imulti_robot_problem
MultiRobotState
p659
(dp660
g19
g20
((lp661
(I6
I4
tp662
a(I4
I8
tp663
a(I12
I7
tp664
a(I10
I6
tp665
a(I7
I5
tp666
a(I12
I11
tp667
a(I9
I6
tp668
a(I1
I2
tp669
a(I11
I7
tp670
a(I10
I7
tp671
ag658
a(I6
I3
tp672
a(I6
I2
tp673
a(I4
I3
tp674
a(I3
I4
tp675
a(I12
I8
tp676
atp677
Rp678
sg15
I13
sg30
g20
((lp679
(I2
I7
tp680
a(I12
I1
tp681
a(I9
I2
tp682
a(I2
I8
tp683
a(I5
I7
tp684
a(I10
I0
tp685
a(I1
I4
tp686
a(I0
I12
tp687
a(I7
I4
tp688
a(I10
I9
tp689
a(I4
I2
tp690
a(I11
I4
tp691
a(I11
I6
tp692
a(I1
I9
tp693
atp694
Rp695
sg13
((I9
I11
tp696
(I9
I10
tp697
(I4
I7
tp698
(I4
I12
tp699
(I7
I1
tp700
(I1
I8
tp701
(I1
I6
tp702
tp703
sg14
I13
sbssg149
S'heavy_roomset'
p704
sbsg149
g151
sg152
(dp705
g471
((lp706
F50.349999999998545
tp707
sg560
((lp708
F40.720000000001164
tp709
sg608
((lp710
(F24.37999999999738
I58
tp711
aF40.299999999995634
tp712
sg519
((lp713
F41.76000000000204
tp714
sg656
((lp715
F66.83000000000175
tp716
ssba(imeasure_core
ProblemSetSolution
p717
(dp718
g3
g4
sg149
S"AnytimeBeam-w15-gf(1.5, 'exp')_with_PowerHeuristic2"
p719
sg152
(dp720
g94
((lp721
(F2.849999999998545
I20
tp722
aF40.109999999993306
tp723
sg8
((lp724
(F5.9099999999962165
I134
tp725
aF40.029999999998836
tp726
sg45
((lp727
(F0.16999999999825377
I45
tp728
a(F0.7300000000032014
I44
tp729
a(F1.3499999999985448
I37
tp730
a(F1.9400000000023283
I36
tp731
a(F2.5500000000029104
I34
tp732
a(F4.55000000000291
I33
tp733
a(F6.69999999999709
I31
tp734
a(F9.55000000000291
I30
tp735
a(F12.62000000000262
I28
tp736
a(F14.959999999999127
I26
tp737
a(F19.80999999999767
I25
tp738
a(F26.010000000002037
I24
tp739
aF40.0
tp740
sg69
((lp741
(F1.7300000000032014
I8
tp742
aF40.020000000004075
tp743
sg123
((lp744
(F0.16000000000349246
I47
tp745
a(F1.25
I45
tp746
a(F2.280000000006112
I43
tp747
a(F3.2700000000040745
I35
tp748
a(F4.400000000001455
I33
tp749
a(F5.6600000000034925
I31
tp750
a(F6.950000000004366
I29
tp751
a(F9.25
I27
tp752
a(F12.440000000002328
I25
tp753
a(F15.140000000006694
I23
tp754
aF40.0
tp755
ssba(imeasure_core
ProblemSetSolution
p756
(dp757
g3
g191
sg149
g719
sg152
(dp758
g194
((lp759
(F26.56999999999971
I127
tp760
aF40.01000000000204
tp761
sg244
((lp762
(F0.1300000000046566
I25
tp763
aF40.01000000000204
tp764
sg294
((lp765
(F1.139999999999418
I12
tp766
aF40.229999999995925
tp767
sg342
((lp768
F40.7300000000032
tp769
sg394
((lp770
(F16.43000000000029
I64
tp771
aF40.16000000000349
tp772
ssba(imeasure_core
ProblemSetSolution
p773
(dp774
g3
g468
sg149
g719
sg152
(dp775
g471
((lp776
F50.36999999999534
tp777
sg560
((lp778
F40.770000000004075
tp779
sg608
((lp780
(F24.31999999999971
I58
tp781
aF40.25
tp782
sg519
((lp783
F41.70999999999913
tp784
sg656
((lp785
F66.34999999999854
tp786
ssba(imeasure_core
ProblemSetSolution
p787
(dp788
g3
g4
sg149
S"AnytimeBeam-w25-gf(1.5, 'exp')_with_PowerHeuristic2"
p789
sg152
(dp790
g94
((lp791
(F2.8400000000037835
I20
tp792
aF40.099999999998545
tp793
sg8
((lp794
(F6.930000000000291
I134
tp795
aF40.0
tp796
sg45
((lp797
(F0.16999999999825377
I45
tp798
a(F0.7399999999979627
I44
tp799
a(F1.3699999999953434
I37
tp800
a(F1.9699999999938882
I36
tp801
a(F2.5799999999944703
I34
tp802
a(F4.610000000000582
I33
tp803
a(F6.790000000000873
I31
tp804
a(F9.669999999998254
I30
tp805
a(F12.779999999998836
I28
tp806
a(F15.139999999999418
I26
tp807
a(F19.979999999995925
I25
tp808
a(F26.19999999999709
I24
tp809
aF40.0
tp810
sg69
((lp811
(F1.7199999999938882
I8
tp812
aF40.11999999999534
tp813
sg123
((lp814
(F0.16000000000349246
I47
tp815
a(F1.2200000000011642
I45
tp816
a(F2.220000000001164
I43
tp817
a(F3.1700000000055297
I35
tp818
a(F4.2700000000040745
I33
tp819
a(F5.5
I31
tp820
a(F6.760000000002037
I29
tp821
a(F9.0
I27
tp822
a(F12.110000000000582
I25
tp823
a(F14.730000000003201
I23
tp824
aF40.0
tp825
ssba(imeasure_core
ProblemSetSolution
p826
(dp827
g3
g191
sg149
g789
sg152
(dp828
g194
((lp829
(F26.590000000003783
I127
tp830
aF40.13000000000466
tp831
sg244
((lp832
(F0.11999999999534339
I25
tp833
aF40.01000000000204
tp834
sg294
((lp835
(F1.1299999999973807
I12
tp836
aF40.099999999998545
tp837
sg342
((lp838
F40.7699999999968
tp839
sg394
((lp840
(F16.459999999999127
I64
tp841
aF40.099999999998545
tp842
ssba(imeasure_core
ProblemSetSolution
p843
(dp844
g3
g468
sg149
g789
sg152
(dp845
g471
((lp846
F50.13999999999942
tp847
sg560
((lp848
F40.55999999999767
tp849
sg608
((lp850
(F24.37000000000262
I58
tp851
aF40.28000000000611
tp852
sg519
((lp853
F41.4800000000032
tp854
sg656
((lp855
F66.38999999999942
tp856
ssba(imeasure_core
ProblemSetSolution
p857
(dp858
g3
g4
sg149
S"AnytimeBeam-w35-gf(1.5, 'exp')_with_PowerHeuristic2"
p859
sg152
(dp860
g94
((lp861
(F2.8300000000017462
I20
tp862
aF40.04000000000087
tp863
sg8
((lp864
(F7.619999999995343
I134
tp865
aF40.0199999999968
tp866
sg45
((lp867
(F0.16000000000349246
I45
tp868
a(F0.7200000000011642
I44
tp869
a(F1.3400000000037835
I37
tp870
a(F1.930000000000291
I36
tp871
a(F2.529999999998836
I34
tp872
a(F4.529999999998836
I33
tp873
a(F6.680000000000291
I31
tp874
a(F9.519999999996799
I30
tp875
a(F12.590000000003783
I28
tp876
a(F14.930000000000291
I26
tp877
a(F19.7699999999968
I25
tp878
a(F26.0
I24
tp879
aF40.0
tp880
sg69
((lp881
(F1.7300000000032014
I8
tp882
aF40.04000000000087
tp883
sg123
((lp884
(F0.1599999999962165
I47
tp885
a(F1.2200000000011642
I45
tp886
a(F2.2299999999959255
I43
tp887
a(F3.180000000000291
I35
tp888
a(F4.279999999998836
I33
tp889
a(F5.5
I31
tp890
a(F6.769999999996799
I29
tp891
a(F9.010000000002037
I27
tp892
a(F12.119999999995343
I25
tp893
a(F14.75
I23
tp894
aF40.0
tp895
ssba(imeasure_core
ProblemSetSolution
p896
(dp897
g3
g191
sg149
g859
sg152
(dp898
g194
((lp899
(F26.669999999998254
I127
tp900
aF40.169999999998254
tp901
sg244
((lp902
(F0.12999999999738066
I25
tp903
aF40.01000000000204
tp904
sg294
((lp905
(F1.1599999999962165
I12
tp906
aF40.229999999995925
tp907
sg342
((lp908
F40.720000000001164
tp909
sg394
((lp910
(F16.419999999998254
I64
tp911
aF40.06999999999971
tp912
ssba(imeasure_core
ProblemSetSolution
p913
(dp914
g3
g468
sg149
g859
sg152
(dp915
g471
((lp916
F50.55999999999767
tp917
sg560
((lp918
F40.84000000000378
tp919
sg608
((lp920
(F24.68000000000029
I58
tp921
aF40.29000000000087
tp922
sg519
((lp923
F41.63999999999942
tp924
sg656
((lp925
F66.62999999999738
tp926
ssba(imeasure_core
ProblemSetSolution
p927
(dp928
g3
g4
sg149
S"AnytimeBeam-w45-gf(1.5, 'exp')_with_PowerHeuristic2"
p929
sg152
(dp930
g94
((lp931
(F2.8399999999965075
I20
tp932
aF40.06999999999971
tp933
sg8
((lp934
(F8.340000000003783
I134
tp935
aF40.150000000001455
tp936
sg45
((lp937
(F0.1599999999962165
I45
tp938
a(F0.7200000000011642
I44
tp939
a(F1.3300000000017462
I37
tp940
a(F1.9199999999982538
I36
tp941
a(F2.529999999998836
I34
tp942
a(F4.529999999998836
I33
tp943
a(F6.690000000002328
I31
tp944
a(F9.529999999998836
I30
tp945
a(F12.599999999998545
I28
tp946
a(F14.940000000002328
I26
tp947
a(F19.80999999999767
I25
tp948
a(F26.06999999999971
I24
tp949
aF40.0
tp950
sg69
((lp951
(F1.7399999999979627
I8
tp952
aF40.150000000001455
tp953
sg123
((lp954
(F0.1599999999962165
I47
tp955
a(F1.2399999999979627
I45
tp956
a(F2.25
I43
tp957
a(F3.209999999999127
I35
tp958
a(F4.32999999999447
I33
tp959
a(F5.559999999997672
I31
tp960
a(F6.8399999999965075
I29
tp961
a(F9.110000000000582
I27
tp962
a(F12.239999999997963
I25
tp963
a(F14.89999999999418
I23
tp964
aF40.0
tp965
ssba(imeasure_core
ProblemSetSolution
p966
(dp967
g3
g191
sg149
g929
sg152
(dp968
g194
((lp969
(F26.64999999999418
I127
tp970
aF40.15999999999622
tp971
sg244
((lp972
(F0.12000000000261934
I25
tp973
aF40.01000000000204
tp974
sg294
((lp975
(F1.1299999999973807
I12
tp976
aF40.26000000000204
tp977
sg342
((lp978
F40.07999999999447
tp979
sg394
((lp980
(F16.220000000001164
I64
tp981
aF40.06000000000495
tp982
ssba(imeasure_core
ProblemSetSolution
p983
(dp984
g3
g468
sg149
g929
sg152
(dp985
g471
((lp986
F50.200000000004366
tp987
sg560
((lp988
F40.93000000000029
tp989
sg608
((lp990
(F24.610000000000582
I58
tp991
aF40.12999999999738
tp992
sg519
((lp993
F41.56999999999971
tp994
sg656
((lp995
F66.68000000000029
tp996
ssba(imeasure_core
ProblemSetSolution
p997
(dp998
g3
g4
sg149
S"AnytimeBeam-w5-gf(1.5, 'exp')_with_LinearHeuristic"
p999
sg152
(dp1000
g94
((lp1001
F40.169999999998254
tp1002
sg8
((lp1003
F40.19000000000233
tp1004
sg45
((lp1005
(F0.00999999999476131
I24
tp1006
aF40.0
tp1007
sg69
((lp1008
(F1.2699999999967986
I4
tp1009
aF40.25
tp1010
sg123
((lp1011
(F0.01999999999679858
I23
tp1012
aF40.0
tp1013
ssba(imeasure_core
ProblemSetSolution
p1014
(dp1015
g3
g191
sg149
g999
sg152
(dp1016
g194
((lp1017
F40.06999999999971
tp1018
sg244
((lp1019
F40.01000000000204
tp1020
sg294
((lp1021
F40.23999999999796
tp1022
sg342
((lp1023
F40.87999999999738
tp1024
sg394
((lp1025
F40.11000000000058
tp1026
ssba(imeasure_core
ProblemSetSolution
p1027
(dp1028
g3
g468
sg149
g999
sg152
(dp1029
g471
((lp1030
F46.169999999998254
tp1031
sg560
((lp1032
F40.75999999999476
tp1033
sg608
((lp1034
F41.05000000000291
tp1035
sg519
((lp1036
F40.10000000000582
tp1037
sg656
((lp1038
F57.73999999999796
tp1039
ssba(imeasure_core
ProblemSetSolution
p1040
(dp1041
g3
g4
sg149
S"AnytimeBeam-w15-gf(1.5, 'exp')_with_LinearHeuristic"
p1042
sg152
(dp1043
g94
((lp1044
F40.0199999999968
tp1045
sg8
((lp1046
F40.06999999999971
tp1047
sg45
((lp1048
(F0.020000000004074536
I24
tp1049
aF40.0
tp1050
sg69
((lp1051
(F1.1600000000034925
I4
tp1052
aF40.13000000000466
tp1053
sg123
((lp1054
(F0.01999999999679858
I23
tp1055
aF40.0
tp1056
ssba(imeasure_core
ProblemSetSolution
p1057
(dp1058
g3
g191
sg149
g1042
sg152
(dp1059
g194
((lp1060
F40.11999999999534
tp1061
sg244
((lp1062
F40.020000000004075
tp1063
sg294
((lp1064
F40.169999999998254
tp1065
sg342
((lp1066
F40.9800000000032
tp1067
sg394
((lp1068
F40.279999999998836
tp1069
ssba(imeasure_core
ProblemSetSolution
p1070
(dp1071
g3
g468
sg149
g1042
sg152
(dp1072
g471
((lp1073
F46.450000000004366
tp1074
sg560
((lp1075
F40.650000000001455
tp1076
sg608
((lp1077
F41.11000000000058
tp1078
sg519
((lp1079
F40.12999999999738
tp1080
sg656
((lp1081
F57.279999999998836
tp1082
ssba(imeasure_core
ProblemSetSolution
p1083
(dp1084
g3
g4
sg149
S"AnytimeBeam-w25-gf(1.5, 'exp')_with_LinearHeuristic"
p1085
sg152
(dp1086
g94
((lp1087
F40.62000000000262
tp1088
sg8
((lp1089
F40.029999999998836
tp1090
sg45
((lp1091
(F0.01999999999679858
I24
tp1092
aF40.0
tp1093
sg69
((lp1094
(F1.2200000000011642
I4
tp1095
aF40.33999999999651
tp1096
sg123
((lp1097
(F0.020000000004074536
I23
tp1098
aF40.0
tp1099
ssba(imeasure_core
ProblemSetSolution
p1100
(dp1101
g3
g191
sg149
g1085
sg152
(dp1102
g194
((lp1103
F40.12000000000262
tp1104
sg244
((lp1105
F40.00999999999476
tp1106
sg294
((lp1107
F40.26000000000204
tp1108
sg342
((lp1109
F40.720000000001164
tp1110
sg394
((lp1111
F40.29000000000087
tp1112
ssba(imeasure_core
ProblemSetSolution
p1113
(dp1114
g3
g468
sg149
g1085
sg152
(dp1115
g471
((lp1116
F46.48999999999796
tp1117
sg560
((lp1118
F40.68000000000029
tp1119
sg608
((lp1120
F41.06000000000495
tp1121
sg519
((lp1122
F40.20999999999913
tp1123
sg656
((lp1124
F58.00999999999476
tp1125
ssba(imeasure_core
ProblemSetSolution
p1126
(dp1127
g3
g4
sg149
S"AnytimeBeam-w35-gf(1.5, 'exp')_with_LinearHeuristic"
p1128
sg152
(dp1129
g94
((lp1130
F40.900000000001455
tp1131
sg8
((lp1132
F40.04000000000087
tp1133
sg45
((lp1134
(F0.01999999999679858
I24
tp1135
aF40.0
tp1136
sg69
((lp1137
(F1.1699999999982538
I4
tp1138
aF40.229999999995925
tp1139
sg123
((lp1140
(F0.020000000004074536
I23
tp1141
aF40.0
tp1142
ssba(imeasure_core
ProblemSetSolution
p1143
(dp1144
g3
g191
sg149
g1128
sg152
(dp1145
g194
((lp1146
F40.0
tp1147
sg244
((lp1148
F40.0
tp1149
sg294
((lp1150
F40.86000000000058
tp1151
sg342
((lp1152
F40.270000000004075
tp1153
sg394
((lp1154
F40.70999999999913
tp1155
ssba(imeasure_core
ProblemSetSolution
p1156
(dp1157
g3
g468
sg149
g1128
sg152
(dp1158
g471
((lp1159
F46.69000000000233
tp1160
sg560
((lp1161
F40.76000000000204
tp1162
sg608
((lp1163
F41.07999999999447
tp1164
sg519
((lp1165
F40.330000000001746
tp1166
sg656
((lp1167
F57.31999999999971
tp1168
ssba(imeasure_core
ProblemSetSolution
p1169
(dp1170
g3
g4
sg149
S"AnytimeBeam-w45-gf(1.5, 'exp')_with_LinearHeuristic"
p1171
sg152
(dp1172
g94
((lp1173
F40.62000000000262
tp1174
sg8
((lp1175
F40.25
tp1176
sg45
((lp1177
(F0.020000000004074536
I24
tp1178
aF40.0
tp1179
sg69
((lp1180
(F1.3000000000029104
I4
tp1181
aF40.05999999999767
tp1182
sg123
((lp1183
(F0.010000000002037268
I23
tp1184
aF40.0
tp1185
ssba(imeasure_core
ProblemSetSolution
p1186
(dp1187
g3
g191
sg149
g1171
sg152
(dp1188
g194
((lp1189
F40.30000000000291
tp1190
sg244
((lp1191
F40.0199999999968
tp1192
sg294
((lp1193
F40.20999999999913
tp1194
sg342
((lp1195
F40.81000000000495
tp1196
sg394
((lp1197
F40.46999999999389
tp1198
ssba(imeasure_core
ProblemSetSolution
p1199
(dp1200
g3
g468
sg149
g1171
sg152
(dp1201
g471
((lp1202
F46.520000000004075
tp1203
sg560
((lp1204
F40.599999999998545
tp1205
sg608
((lp1206
F40.7300000000032
tp1207
sg519
((lp1208
F40.20999999999913
tp1209
sg656
((lp1210
F57.68000000000029
tp1211
ssba.