(lp0
(imeasure_core
ProblemSetSolution
p1
(dp2
S'roomset'
p3
(imeasure_core
RoomSet
p4
(dp5
S'rooms'
p6
(dp7
(iproblems
RoomID
p8
(dp9
S'dusts'
p10
I6
sS'obstacles'
p11
(I0
I4
tp12
sS'robots'
p13
I1
sS'height'
p14
I9
sS'width'
p15
I9
sS'seed'
p16
I1164115433906158532
sb(imulti_robot_problem
MultiRobotState
p17
(dp18
S'obstacle_locations'
p19
c__builtin__
frozenset
p20
((lp21
(I0
I1
tp22
a(I1
I2
tp23
a(I1
I3
tp24
a(I1
I4
tp25
ag12
atp26
Rp27
sg15
I9
sS'dirt_locations'
p28
g20
((lp29
(I6
I4
tp30
a(I1
I8
tp31
a(I1
I6
tp32
a(I1
I0
tp33
a(I8
I5
tp34
a(I3
I5
tp35
atp36
Rp37
sg13
((I4
I5
tp38
tp39
sg14
I9
sbs(iproblems
RoomID
p40
(dp41
g10
I8
sg11
(I6
I5
tp42
sg13
I5
sg14
I8
sg15
I7
sg16
I2175216119781798972
sb(imulti_robot_problem
MultiRobotState
p43
(dp44
g19
g20
((lp45
(I1
I2
tp46
a(I2
I6
tp47
a(I6
I7
tp48
a(I6
I6
tp49
a(I5
I7
tp50
a(I2
I3
tp51
a(I0
I4
tp52
a(I1
I0
tp53
ag42
atp54
Rp55
sg15
I7
sg28
g20
((lp56
(I5
I4
tp57
a(I5
I5
tp58
a(I4
I4
tp59
a(I0
I6
tp60
a(I0
I5
tp61
a(I1
I7
tp62
a(I4
I2
tp63
a(I0
I2
tp64
atp65
Rp66
sg13
((I1
I3
tp67
(I6
I4
tp68
(I3
I7
tp69
(I6
I0
tp70
(I2
I1
tp71
tp72
sg14
I8
sbs(iproblems
RoomID
p73
(dp74
g10
I9
sg11
(I6
I3
tp75
sg13
I4
sg14
I9
sg15
I10
sg16
I7002664860023442459
sb(imulti_robot_problem
MultiRobotState
p76
(dp77
g19
g20
((lp78
(I7
I4
tp79
a(I7
I3
tp80
ag75
a(I6
I5
tp81
a(I9
I7
tp82
atp83
Rp84
sg15
I10
sg28
g20
((lp85
(I0
I0
tp86
a(I6
I8
tp87
a(I2
I8
tp88
a(I5
I7
tp89
a(I2
I6
tp90
a(I4
I2
tp91
a(I5
I1
tp92
a(I8
I6
tp93
a(I8
I4
tp94
atp95
Rp96
sg13
((I7
I5
tp97
(I7
I6
tp98
(I1
I7
tp99
(I1
I6
tp100
tp101
sg14
I9
sbs(iproblems
RoomID
p102
(dp103
g10
I5
sg11
(I0
I4
tp104
sg13
I5
sg14
I7
sg15
I7
sg16
I8711387064946514083
sb(imulti_robot_problem
MultiRobotState
p105
(dp106
g19
g20
((lp107
(I0
I1
tp108
a(I2
I2
tp109
a(I0
I2
tp110
a(I1
I5
tp111
ag104
a(I0
I3
tp112
a(I2
I4
tp113
a(I6
I5
tp114
atp115
Rp116
sg15
I7
sg28
g20
((lp117
(I5
I6
tp118
a(I6
I4
tp119
a(I3
I2
tp120
a(I6
I1
tp121
a(I6
I6
tp122
atp123
Rp124
sg13
((I1
I1
tp125
(I6
I0
tp126
(I5
I0
tp127
(I1
I3
tp128
(I4
I5
tp129
tp130
sg14
I7
sbs(iproblems
RoomID
p131
(dp132
g10
I9
sg11
(I2
I2
tp133
sg13
I2
sg14
I9
sg15
I7
sg16
I3872982626502034966
sb(imulti_robot_problem
MultiRobotState
p134
(dp135
g19
g20
((lp136
(I4
I1
tp137
a(I2
I6
tp138
a(I3
I1
tp139
a(I5
I0
tp140
ag133
atp141
Rp142
sg15
I7
sg28
g20
((lp143
(I4
I7
tp144
a(I2
I8
tp145
a(I4
I4
tp146
a(I3
I2
tp147
a(I2
I1
tp148
a(I1
I4
tp149
a(I4
I2
tp150
a(I0
I3
tp151
a(I5
I8
tp152
atp153
Rp154
sg13
((I1
I6
tp155
(I1
I7
tp156
tp157
sg14
I9
sbssS'name'
p158
S'easy_roomset'
p159
sbsg158
S"AnytimeBeam-w20-gf(1.3, 'exp')_with_PowerHeuristic2"
p160
sS'solutions'
p161
(dp162
g8
((lp163
(F0.1499999999996362
I42
tp164
a(F3.9799999999995634
I40
tp165
a(F5.3599999999996726
I34
tp166
a(F6.5399999999999636
I30
tp167
a(F7.6099999999996726
I28
tp168
a(F13.4399999999996
I26
tp169
aF40.0
tp170
sg40
((lp171
(F2.0299999999997453
I5
tp172
aF40.25
tp173
sg73
((lp174
(F1.4700000000002547
I11
tp175
aF40.260000000000218
tp176
sg102
((lp177
(F0.84000000000014552
I4
tp178
aF40.039999999999964
tp179
sg131
((lp180
(F1.6099999999996726
I66
tp181
a(F14.369999999999891
I65
tp182
a(F24.819999999999709
I64
tp183
aF40.059999999999491
tp184
ssba(imeasure_core
ProblemSetSolution
p185
(dp186
g3
(imeasure_core
RoomSet
p187
(dp188
g6
(dp189
(iproblems
RoomID
p190
(dp191
g10
I6
sg11
(I5
I5
tp192
sg13
I3
sg14
I11
sg15
I11
sg16
I1164115433906158532
sb(imulti_robot_problem
MultiRobotState
p193
(dp194
g19
g20
((lp195
(I5
I4
tp196
a(I1
I3
tp197
a(I4
I3
tp198
a(I4
I8
tp199
a(I3
I0
tp200
a(I8
I0
tp201
a(I3
I2
tp202
a(I0
I7
tp203
a(I2
I1
tp204
a(I3
I9
tp205
a(I0
I5
tp206
a(I1
I4
tp207
a(I3
I7
tp208
a(I2
I5
tp209
a(I5
I3
tp210
a(I8
I3
tp211
a(I3
I1
tp212
ag192
a(I2
I0
tp213
a(I3
I10
tp214
a(I6
I10
tp215
a(I0
I6
tp216
a(I1
I8
tp217
a(I3
I6
tp218
a(I4
I5
tp219
a(I0
I2
tp220
atp221
Rp222
sg15
I11
sg28
g20
((lp223
(I7
I5
tp224
a(I8
I8
tp225
a(I4
I9
tp226
a(I4
I6
tp227
a(I10
I6
tp228
a(I8
I2
tp229
atp230
Rp231
sg13
((I5
I7
tp232
(I2
I10
tp233
(I2
I8
tp234
tp235
sg14
I11
sbs(iproblems
RoomID
p236
(dp237
g10
I8
sg11
(I5
I4
tp238
sg13
I4
sg14
I10
sg15
I9
sg16
I2175216119781798972
sb(imulti_robot_problem
MultiRobotState
p239
(dp240
g19
g20
((lp241
(I6
I6
tp242
a(I2
I8
tp243
a(I0
I7
tp244
a(I6
I2
tp245
a(I1
I6
tp246
a(I2
I5
tp247
a(I5
I5
tp248
a(I8
I1
tp249
a(I7
I6
tp250
a(I6
I3
tp251
a(I2
I2
tp252
a(I8
I6
tp253
a(I6
I4
tp254
ag238
a(I8
I2
tp255
a(I7
I1
tp256
a(I1
I4
tp257
a(I7
I5
tp258
a(I8
I7
tp259
a(I1
I0
tp260
a(I6
I5
tp261
a(I3
I3
tp262
a(I8
I3
tp263
a(I7
I0
tp264
a(I6
I8
tp265
a(I3
I4
tp266
a(I7
I4
tp267
a(I0
I6
tp268
a(I1
I8
tp269
a(I8
I8
tp270
a(I4
I3
tp271
a(I1
I7
tp272
a(I7
I8
tp273
a(I0
I2
tp274
atp275
Rp276
sg15
I9
sg28
g20
((lp277
(I6
I7
tp278
a(I2
I9
tp279
a(I5
I6
tp280
a(I3
I1
tp281
a(I8
I9
tp282
a(I0
I5
tp283
a(I0
I3
tp284
a(I5
I2
tp285
atp286
Rp287
sg13
((I2
I4
tp288
(I8
I5
tp289
(I4
I9
tp290
(I7
I7
tp291
tp292
sg14
I10
sbs(iproblems
RoomID
p293
(dp294
g10
I9
sg11
(I3
I0
tp295
sg13
I3
sg14
I9
sg15
I12
sg16
I4912931603392816429
sb(imulti_robot_problem
MultiRobotState
p296
(dp297
g19
g20
((lp298
(I6
I4
tp299
a(I4
I7
tp300
a(I0
I0
tp301
a(I4
I8
tp302
a(I5
I6
tp303
a(I2
I8
tp304
a(I0
I7
tp305
a(I4
I6
tp306
a(I7
I5
tp307
a(I4
I2
tp308
a(I0
I3
tp309
a(I7
I2
tp310
a(I6
I8
tp311
a(I10
I5
tp312
a(I5
I5
tp313
a(I7
I8
tp314
a(I4
I4
tp315
a(I5
I2
tp316
ag295
a(I8
I8
tp317
a(I5
I8
tp318
a(I1
I7
tp319
a(I4
I5
tp320
a(I8
I6
tp321
a(I5
I3
tp322
a(I4
I1
tp323
atp324
Rp325
sg15
I12
sg28
g20
((lp326
(I7
I3
tp327
a(I7
I1
tp328
a(I8
I1
tp329
a(I6
I3
tp330
a(I11
I8
tp331
a(I8
I7
tp332
a(I3
I7
tp333
a(I2
I5
tp334
a(I3
I4
tp335
atp336
Rp337
sg13
((I9
I1
tp338
(I1
I6
tp339
(I8
I4
tp340
tp341
sg14
I9
sbs(iproblems
RoomID
p342
(dp343
g10
I9
sg11
(I4
I3
tp344
sg13
I4
sg14
I11
sg15
I12
sg16
I7002664860023442459
sb(imulti_robot_problem
MultiRobotState
p345
(dp346
g19
g20
((lp347
(I11
I8
tp348
a(I0
I0
tp349
a(I10
I4
tp350
a(I3
I0
tp351
a(I9
I3
tp352
a(I6
I0
tp353
a(I2
I1
tp354
a(I8
I9
tp355
a(I9
I4
tp356
a(I5
I1
tp357
a(I8
I5
tp358
a(I5
I8
tp359
a(I8
I2
tp360
a(I7
I0
tp361
a(I8
I7
tp362
a(I3
I3
tp363
a(I1
I5
tp364
a(I8
I1
tp365
a(I9
I6
tp366
a(I3
I1
tp367
a(I9
I2
tp368
a(I2
I0
tp369
ag344
a(I2
I2
tp370
a(I9
I5
tp371
a(I5
I2
tp372
a(I2
I4
tp373
atp374
Rp375
sg15
I12
sg28
g20
((lp376
(I0
I1
tp377
a(I10
I8
tp378
a(I2
I8
tp379
a(I3
I10
tp380
a(I10
I6
tp381
a(I6
I2
tp382
a(I3
I7
tp383
a(I7
I8
tp384
a(I7
I9
tp385
atp386
Rp387
sg13
((I9
I7
tp388
(I8
I8
tp389
(I2
I9
tp390
(I1
I7
tp391
tp392
sg14
I11
sbs(iproblems
RoomID
p393
(dp394
g10
I9
sg11
(I5
I3
tp395
sg13
I3
sg14
I9
sg15
I9
sg16
I1885758236351349410
sb(imulti_robot_problem
MultiRobotState
p396
(dp397
g19
g20
((lp398
(I4
I7
tp399
a(I5
I7
tp400
a(I7
I1
tp401
a(I5
I6
tp402
a(I5
I4
tp403
a(I0
I0
tp404
a(I2
I3
tp405
a(I4
I2
tp406
a(I8
I5
tp407
ag395
a(I6
I7
tp408
a(I5
I5
tp409
a(I4
I4
tp410
a(I1
I5
tp411
a(I4
I3
tp412
a(I0
I4
tp413
a(I1
I6
tp414
a(I3
I4
tp415
a(I2
I4
tp416
atp417
Rp418
sg15
I9
sg28
g20
((lp419
(I7
I3
tp420
a(I7
I0
tp421
a(I3
I0
tp422
a(I6
I1
tp423
a(I1
I4
tp424
a(I0
I5
tp425
a(I5
I0
tp426
a(I1
I1
tp427
a(I8
I4
tp428
atp429
Rp430
sg13
((I0
I1
tp431
(I2
I6
tp432
(I0
I2
tp433
tp434
sg14
I9
sbssg158
S'mild_roomset'
p435
sbsg158
g160
sg161
(dp436
g190
((lp437
(F39.030000000000655
I136
tp438
aF40.020000000000437
tp439
sg236
((lp440
F40.059999999999491
tp441
sg342
((lp442
(F1.6599999999998545
I11
tp443
aF40.3100000000004
tp444
sg293
((lp445
(F0.18000000000029104
I11
tp446
aF40.050000000000182
tp447
sg393
((lp448
(F2.8499999999994543
I65
tp449
aF40.109999999999673
tp450
ssba(imeasure_core
ProblemSetSolution
p451
(dp452
g3
(imeasure_core
RoomSet
p453
(dp454
g6
(dp455
(iproblems
RoomID
p456
(dp457
g10
I11
sg11
(I7
I9
tp458
sg13
I5
sg14
I12
sg15
I12
sg16
I1164115433906158532
sb(imulti_robot_problem
MultiRobotState
p459
(dp460
g19
g20
((lp461
(I4
I7
tp462
a(I1
I3
tp463
a(I5
I6
tp464
a(I9
I3
tp465
a(I1
I4
tp466
a(I0
I5
tp467
a(I7
I11
tp468
a(I1
I0
tp469
a(I5
I8
tp470
a(I3
I3
tp471
a(I3
I1
tp472
a(I6
I7
tp473
a(I6
I8
tp474
a(I7
I8
tp475
a(I5
I7
tp476
ag458
a(I4
I1
tp477
a(I0
I2
tp478
atp479
Rp480
sg15
I12
sg28
g20
((lp481
(I4
I10
tp482
a(I9
I0
tp483
a(I2
I6
tp484
a(I5
I10
tp485
a(I9
I2
tp486
a(I0
I7
tp487
a(I8
I9
tp488
a(I1
I6
tp489
a(I8
I5
tp490
a(I4
I11
tp491
a(I5
I3
tp492
atp493
Rp494
sg13
((I1
I2
tp495
(I2
I11
tp496
(I2
I0
tp497
(I2
I9
tp498
(I11
I7
tp499
tp500
sg14
I12
sbs(iproblems
RoomID
p501
(dp502
g10
I10
sg11
(I0
I7
tp503
sg13
I7
sg14
I10
sg15
I10
sg16
I8711387064946514083
sb(imulti_robot_problem
MultiRobotState
p504
(dp505
g19
g20
((lp506
(I5
I9
tp507
a(I6
I9
tp508
a(I2
I6
tp509
a(I2
I9
tp510
a(I0
I6
tp511
ag503
a(I1
I5
tp512
a(I8
I8
tp513
a(I0
I5
tp514
a(I4
I3
tp515
a(I0
I4
tp516
a(I0
I3
tp517
a(I9
I7
tp518
a(I0
I2
tp519
a(I7
I9
tp520
atp521
Rp522
sg15
I10
sg28
g20
((lp523
(I9
I0
tp524
a(I3
I3
tp525
a(I7
I1
tp526
a(I8
I1
tp527
a(I9
I8
tp528
a(I4
I4
tp529
a(I9
I9
tp530
a(I3
I6
tp531
a(I1
I7
tp532
a(I8
I6
tp533
atp534
Rp535
sg13
((I1
I1
tp536
(I8
I0
tp537
(I7
I0
tp538
(I2
I5
tp539
(I6
I7
tp540
(I8
I9
tp541
(I5
I8
tp542
tp543
sg14
I10
sbs(iproblems
RoomID
p544
(dp545
g10
I14
sg11
(I5
I10
tp546
sg13
I5
sg14
I12
sg15
I10
sg16
I3872982626502034966
sb(imulti_robot_problem
MultiRobotState
p547
(dp548
g19
g20
((lp549
(I5
I9
tp550
a(I6
I9
tp551
a(I5
I7
tp552
a(I3
I2
tp553
ag546
a(I4
I10
tp554
a(I4
I8
tp555
a(I3
I11
tp556
a(I2
I1
tp557
a(I6
I2
tp558
a(I1
I4
tp559
a(I8
I7
tp560
a(I6
I8
tp561
a(I6
I7
tp562
a(I5
I8
tp563
a(I3
I5
tp564
a(I4
I9
tp565
a(I4
I6
tp566
a(I8
I1
tp567
a(I7
I1
tp568
a(I3
I8
tp569
a(I4
I3
tp570
a(I5
I2
tp571
a(I1
I1
tp572
atp573
Rp574
sg15
I10
sg28
g20
((lp575
(I5
I3
tp576
a(I3
I1
tp577
a(I8
I11
tp578
a(I9
I3
tp579
a(I0
I2
tp580
a(I6
I3
tp581
a(I3
I9
tp582
a(I2
I3
tp583
a(I9
I5
tp584
a(I7
I11
tp585
a(I0
I8
tp586
a(I3
I10
tp587
a(I7
I2
tp588
a(I9
I7
tp589
atp590
Rp591
sg13
((I1
I8
tp592
(I2
I9
tp593
(I1
I9
tp594
(I1
I5
tp595
(I6
I5
tp596
tp597
sg14
I12
sbs(iproblems
RoomID
p598
(dp599
g10
I14
sg11
(I0
I3
tp600
sg13
I7
sg14
I12
sg15
I13
sg16
I7002664860023442459
sb(imulti_robot_problem
MultiRobotState
p601
(dp602
g19
g20
((lp603
(I1
I2
tp604
a(I11
I4
tp605
a(I9
I8
tp606
a(I10
I6
tp607
ag600
a(I0
I8
tp608
a(I10
I3
tp609
a(I0
I1
tp610
a(I10
I5
tp611
a(I10
I7
tp612
a(I7
I8
tp613
a(I9
I9
tp614
a(I0
I9
tp615
a(I9
I5
tp616
a(I3
I4
tp617
a(I0
I2
tp618
a(I11
I6
tp619
a(I9
I7
tp620
atp621
Rp622
sg15
I13
sg28
g20
((lp623
(I6
I4
tp624
a(I11
I9
tp625
a(I4
I6
tp626
a(I2
I9
tp627
a(I5
I9
tp628
a(I12
I2
tp629
a(I3
I1
tp630
a(I3
I11
tp631
a(I10
I10
tp632
a(I7
I4
tp633
a(I0
I0
tp634
a(I11
I5
tp635
a(I2
I5
tp636
a(I12
I9
tp637
atp638
Rp639
sg13
((I2
I10
tp640
(I1
I8
tp641
(I8
I10
tp642
(I7
I2
tp643
(I3
I8
tp644
(I6
I2
tp645
(I7
I9
tp646
tp647
sg14
I12
sbs(iproblems
RoomID
p648
(dp649
g10
I10
sg11
(I6
I7
tp650
sg13
I6
sg14
I10
sg15
I13
sg16
I8999366892653588108
sb(imulti_robot_problem
MultiRobotState
p651
(dp652
g19
g20
((lp653
(I5
I4
tp654
ag650
a(I5
I5
tp655
a(I5
I6
tp656
a(I7
I6
tp657
a(I4
I2
tp658
a(I2
I3
tp659
a(I8
I6
tp660
a(I12
I1
tp661
a(I5
I3
tp662
a(I6
I5
tp663
a(I3
I3
tp664
atp665
Rp666
sg15
I13
sg28
g20
((lp667
(I6
I9
tp668
a(I7
I0
tp669
a(I5
I7
tp670
a(I12
I6
tp671
a(I2
I1
tp672
a(I0
I5
tp673
a(I10
I1
tp674
a(I0
I3
tp675
a(I7
I9
tp676
a(I3
I5
tp677
atp678
Rp679
sg13
((I12
I0
tp680
(I6
I1
tp681
(I2
I2
tp682
(I6
I4
tp683
(I4
I6
tp684
(I7
I1
tp685
tp686
sg14
I10
sbssg158
S'heavy_roomset'
p687
sbsg158
g160
sg161
(dp688
g456
((lp689
(F9.8000000000001819
I20
tp690
aF40.920000000000073
tp691
sg501
((lp692
F47.920000000000073
tp693
sg544
((lp694
F40.220000000000255
tp695
sg598
((lp696
F63.289999999999964
tp697
sg648
((lp698
F40.599999999999454
tp699
ssba(imeasure_core
ProblemSetSolution
p700
(dp701
g3
g4
sg158
S"AnytimeBeam-w20-gf(1.5, 'exp')_with_PowerHeuristic2"
p702
sg161
(dp703
g8
((lp704
(F0.14000000000032742
I42
tp705
a(F3.1900000000005093
I40
tp706
a(F4.5600000000004002
I34
tp707
a(F5.75
I30
tp708
a(F6.8100000000004002
I28
tp709
a(F12.650000000000546
I26
tp710
aF40.0
tp711
sg40
((lp712
(F2.0299999999997453
I5
tp713
aF40.359999999999673
tp714
sg73
((lp715
(F1.4800000000004729
I11
tp716
aF40.25
tp717
sg102
((lp718
(F0.84000000000014552
I4
tp719
aF40.170000000000073
tp720
sg131
((lp721
(F1.6000000000003638
I66
tp722
a(F14.289999999999964
I65
tp723
a(F24.600000000000364
I64
tp724
aF40.0
tp725
ssba(imeasure_core
ProblemSetSolution
p726
(dp727
g3
g187
sg158
g702
sg161
(dp728
g190
((lp729
(F38.880000000000109
I136
tp730
aF40.010000000000218
tp731
sg236
((lp732
F40.109999999999673
tp733
sg342
((lp734
(F1.6599999999998545
I11
tp735
aF40.1899999999996
tp736
sg293
((lp737
(F0.18000000000029104
I11
tp738
aF40.110000000000582
tp739
sg393
((lp740
(F2.8500000000003638
I65
tp741
aF40.199999999999818
tp742
ssba(imeasure_core
ProblemSetSolution
p743
(dp744
g3
g453
sg158
g702
sg161
(dp745
g456
((lp746
(F9.7600000000002183
I20
tp747
aF40.470000000000255
tp748
sg501
((lp749
F47.670000000000073
tp750
sg544
((lp751
F40.409999999999854
tp752
sg598
((lp753
F63.510000000000218
tp754
sg648
((lp755
F40.809999999999491
tp756
ssba(imeasure_core
ProblemSetSolution
p757
(dp758
g3
g4
sg158
S"AnytimeBeam-w20-gf(1.7, 'exp')_with_PowerHeuristic2"
p759
sg161
(dp760
g8
((lp761
(F0.1500000000005457
I42
tp762
a(F2.4499999999998181
I40
tp763
a(F3.819999999999709
I34
tp764
a(F5.0
I30
tp765
a(F6.069999999999709
I28
tp766
a(F11.869999999999891
I26
tp767
aF40.0
tp768
sg40
((lp769
(F2.0299999999997453
I5
tp770
aF40.140000000000327
tp771
sg73
((lp772
(F1.4899999999997817
I11
tp773
aF40.489999999999782
tp774
sg102
((lp775
(F0.84000000000014552
I4
tp776
aF40.109999999999673
tp777
sg131
((lp778
(F1.6100000000005821
I66
tp779
a(F14.350000000000364
I65
tp780
a(F24.760000000000218
I64
tp781
aF40.070000000000618
tp782
ssba(imeasure_core
ProblemSetSolution
p783
(dp784
g3
g187
sg158
g759
sg161
(dp785
g190
((lp786
(F38.769999999999527
I136
tp787
aF40.029999999999745
tp788
sg236
((lp789
F40.140000000000327
tp790
sg342
((lp791
(F1.6400000000003274
I11
tp792
aF40.050000000000182
tp793
sg293
((lp794
(F0.17999999999938154
I11
tp795
aF40.019999999999527
tp796
sg393
((lp797
(F2.8599999999996726
I65
tp798
aF40.220000000000255
tp799
ssba(imeasure_core
ProblemSetSolution
p800
(dp801
g3
g453
sg158
g759
sg161
(dp802
g456
((lp803
(F9.7100000000000364
I20
tp804
aF40.470000000000255
tp805
sg501
((lp806
F47.440000000000509
tp807
sg544
((lp808
F40.119999999999891
tp809
sg598
((lp810
F62.899999999999636
tp811
sg648
((lp812
F40.520000000000437
tp813
ssba(imeasure_core
ProblemSetSolution
p814
(dp815
g3
g4
sg158
S"AnytimeBeam-w20-gf(1.8999999999999999, 'exp')_with_PowerHeuristic2"
p816
sg161
(dp817
g8
((lp818
(F0.14000000000032742
I42
tp819
a(F2.8299999999999272
I40
tp820
a(F4.2000000000007276
I34
tp821
a(F5.3800000000001091
I30
tp822
a(F6.4500000000007276
I28
tp823
a(F12.240000000000691
I26
tp824
aF40.0
tp825
sg40
((lp826
(F2.0200000000004366
I5
tp827
aF40.320000000000618
tp828
sg73
((lp829
(F1.4699999999993452
I11
tp830
aF40.039999999999964
tp831
sg102
((lp832
(F0.82999999999992724
I4
tp833
aF40.019999999999527
tp834
sg131
((lp835
(F1.6000000000003638
I66
tp836
a(F14.289999999999964
I65
tp837
a(F24.619999999999891
I64
tp838
aF40.0
tp839
ssba(imeasure_core
ProblemSetSolution
p840
(dp841
g3
g187
sg158
g816
sg161
(dp842
g190
((lp843
(F38.710000000000036
I136
tp844
aF40.020000000000437
tp845
sg236
((lp846
F40.269999999999527
tp847
sg342
((lp848
(F1.6300000000001091
I11
tp849
aF40.019999999999527
tp850
sg293
((lp851
(F0.18000000000029104
I11
tp852
aF40.070000000000618
tp853
sg393
((lp854
(F2.8299999999999272
I65
tp855
aF40.029999999999745
tp856
ssba(imeasure_core
ProblemSetSolution
p857
(dp858
g3
g453
sg158
g816
sg161
(dp859
g456
((lp860
(F9.75
I20
tp861
aF40.449999999999818
tp862
sg501
((lp863
F47.5
tp864
sg544
((lp865
F40.230000000000473
tp866
sg598
((lp867
F63.239999999999782
tp868
sg648
((lp869
F40.510000000000218
tp870
ssba(imeasure_core
ProblemSetSolution
p871
(dp872
g3
g4
sg158
S"AnytimeBeam-w20-gf(1.3, 'exp')_with_LinearHeuristic"
p873
sg161
(dp874
g8
((lp875
(F0.019999999999527063
I28
tp876
aF40.0
tp877
sg40
((lp878
F40.199999999999818
tp879
sg73
((lp880
(F6.1499999999996362
I27
tp881
aF40.130000000000109
tp882
sg102
((lp883
(F4.3400000000001455
I10
tp884
aF40.969999999999345
tp885
sg131
((lp886
(F1.2899999999999636
I25
tp887
a(F19.850000000000364
I24
tp888
a(F33.050000000000182
I23
tp889
aF40.020000000000437
tp890
ssba(imeasure_core
ProblemSetSolution
p891
(dp892
g3
g187
sg158
g873
sg161
(dp893
g190
((lp894
F40.319999999999709
tp895
sg236
((lp896
F40.079999999999927
tp897
sg342
((lp898
F41.079999999999927
tp899
sg293
((lp900
F40.300000000000182
tp901
sg393
((lp902
(F37.789999999999964
I226
tp903
aF40.010000000000218
tp904
ssba(imeasure_core
ProblemSetSolution
p905
(dp906
g3
g453
sg158
g873
sg161
(dp907
g456
((lp908
F42.069999999999709
tp909
sg501
((lp910
F50.510000000000218
tp911
sg544
((lp912
F41.309999999999491
tp913
sg598
((lp914
F53.529999999999745
tp915
sg648
((lp916
F41.170000000000073
tp917
ssba(imeasure_core
ProblemSetSolution
p918
(dp919
g3
g4
sg158
S"AnytimeBeam-w20-gf(1.5, 'exp')_with_LinearHeuristic"
p920
sg161
(dp921
g8
((lp922
(F0.020000000000436557
I28
tp923
a(F26.880000000000109
I26
tp924
aF40.000000000000909
tp925
sg40
((lp926
F40.429999999998472
tp927
sg73
((lp928
(F7.0300000000006548
I27
tp929
aF40.490000000001601
tp930
sg102
((lp931
(F4.8099999999994907
I10
tp932
aF40.779999999998836
tp933
sg131
((lp934
(F1.2900000000008731
I25
tp935
a(F20.190000000000509
I24
tp936
a(F33.180000000000291
I23
tp937
aF40.010000000000218
tp938
ssba(imeasure_core
ProblemSetSolution
p939
(dp940
g3
g187
sg158
g920
sg161
(dp941
g190
((lp942
F40.040000000000873
tp943
sg236
((lp944
F40.529999999998836
tp945
sg342
((lp946
F40.230000000001382
tp947
sg293
((lp948
F40.239999999999782
tp949
sg393
((lp950
(F37.969999999999345
I226
tp951
aF40.019999999998618
tp952
ssba(imeasure_core
ProblemSetSolution
p953
(dp954
g3
g453
sg158
g920
sg161
(dp955
g456
((lp956
F42.489999999999782
tp957
sg501
((lp958
F50.770000000000437
tp959
sg544
((lp960
F41.210000000000946
tp961
sg598
((lp962
F53.529999999998836
tp963
sg648
((lp964
F41.059999999999491
tp965
ssba(imeasure_core
ProblemSetSolution
p966
(dp967
g3
g4
sg158
S"AnytimeBeam-w20-gf(1.7, 'exp')_with_LinearHeuristic"
p968
sg161
(dp969
g8
((lp970
(F0.020000000000436557
I28
tp971
a(F27.840000000000146
I26
tp972
aF40.0
tp973
sg40
((lp974
F40.030000000000655
tp975
sg73
((lp976
(F9.4899999999997817
I27
tp977
aF40.649999999999636
tp978
sg102
((lp979
(F5.2600000000002183
I10
tp980
aF40.100000000000364
tp981
sg131
((lp982
(F1.3099999999994907
I25
tp983
a(F20.360000000000582
I24
tp984
a(F33.3700000000008
I23
tp985
aF40.010000000000218
tp986
ssba(imeasure_core
ProblemSetSolution
p987
(dp988
g3
g187
sg158
g968
sg161
(dp989
g190
((lp990
F40.030000000000655
tp991
sg236
((lp992
F40.459999999999127
tp993
sg342
((lp994
F40.209999999999127
tp995
sg293
((lp996
F40.430000000000291
tp997
sg393
((lp998
(F37.81000000000131
I226
tp999
aF40.030000000000655
tp1000
ssba(imeasure_core
ProblemSetSolution
p1001
(dp1002
g3
g453
sg158
g968
sg161
(dp1003
g456
((lp1004
F42.5
tp1005
sg501
((lp1006
F51.200000000000728
tp1007
sg544
((lp1008
F41.279999999998836
tp1009
sg598
((lp1010
F53.489999999999782
tp1011
sg648
((lp1012
F41.319999999999709
tp1013
ssba(imeasure_core
ProblemSetSolution
p1014
(dp1015
g3
g4
sg158
S"AnytimeBeam-w20-gf(1.8999999999999999, 'exp')_with_LinearHeuristic"
p1016
sg161
(dp1017
g8
((lp1018
(F0.020000000000436557
I28
tp1019
a(F24.200000000000728
I26
tp1020
aF40.0
tp1021
sg40
((lp1022
F40.480000000001382
tp1023
sg73
((lp1024
(F10.239999999999782
I27
tp1025
aF40.239999999999782
tp1026
sg102
((lp1027
(F5.3599999999987631
I10
tp1028
aF40.479999999999563
tp1029
sg131
((lp1030
(F1.2999999999992724
I25
tp1031
a(F20.319999999999709
I24
tp1032
a(F33.260000000000218
I23
tp1033
aF40.010000000000218
tp1034
ssba(imeasure_core
ProblemSetSolution
p1035
(dp1036
g3
g187
sg158
g1016
sg161
(dp1037
g190
((lp1038
F40.18999999999869
tp1039
sg236
((lp1040
F40.090000000000146
tp1041
sg342
((lp1042
F40.239999999999782
tp1043
sg293
((lp1044
F40.320000000001528
tp1045
sg393
((lp1046
(F38.109999999998763
I226
tp1047
aF40.019999999998618
tp1048
ssba(imeasure_core
ProblemSetSolution
p1049
(dp1050
g3
g453
sg158
g1016
sg161
(dp1051
g456
((lp1052
F40.06000000000131
tp1053
sg501
((lp1054
F50.799999999999272
tp1055
sg544
((lp1056
F41.180000000000291
tp1057
sg598
((lp1058
F53.229999999999563
tp1059
sg648
((lp1060
F41.079999999999927
tp1061
ssba.