(lp0
(imeasure_core
ProblemSetSolution
p1
(dp2
S'roomset'
p3
(imeasure_core
RoomSet
p4
(dp5
S'rooms'
p6
(dp7
(iproblems
RoomID
p8
(dp9
S'dusts'
p10
I6
sS'obstacles'
p11
(I5
I1
tp12
sS'robots'
p13
I4
sS'height'
p14
I9
sS'width'
p15
I10
sS'seed'
p16
I2405875930906139466
sb(imulti_robot_problem
MultiRobotState
p17
(dp18
S'obstacle_locations'
p19
c__builtin__
frozenset
p20
((lp21
(I7
I0
tp22
a(I7
I1
tp23
ag12
a(I6
I1
tp24
a(I6
I0
tp25
a(I7
I2
tp26
atp27
Rp28
sg15
I10
sS'dirt_locations'
p29
g20
((lp30
(I7
I3
tp31
a(I2
I1
tp32
a(I6
I4
tp33
a(I5
I6
tp34
a(I5
I2
tp35
a(I0
I7
tp36
atp37
Rp38
sg13
((I7
I6
tp39
(I3
I3
tp40
(I8
I6
tp41
(I0
I2
tp42
tp43
sg14
I9
sbs(iproblems
RoomID
p44
(dp45
g10
I6
sg11
(I6
I7
tp46
sg13
I4
sg14
I10
sg15
I7
sg16
I8744744311366254845
sb(imulti_robot_problem
MultiRobotState
p47
(dp48
g19
g20
((lp49
(I0
I6
tp50
ag46
a(I4
I6
tp51
a(I3
I7
tp52
a(I5
I7
tp53
a(I1
I9
tp54
atp55
Rp56
sg15
I7
sg29
g20
((lp57
(I2
I7
tp58
a(I0
I1
tp59
a(I5
I4
tp60
a(I6
I0
tp61
a(I5
I8
tp62
a(I5
I3
tp63
atp64
Rp65
sg13
((I0
I8
tp66
(I4
I2
tp67
(I3
I0
tp68
(I1
I4
tp69
tp70
sg14
I10
sbs(iproblems
RoomID
p71
(dp72
g10
I8
sg11
(I5
I3
tp73
sg13
I3
sg14
I7
sg15
I7
sg16
I7325839828077136048
sb(imulti_robot_problem
MultiRobotState
p74
(dp75
g19
g20
((lp76
(I6
I4
tp77
a(I5
I4
tp78
a(I5
I5
tp79
a(I6
I6
tp80
a(I3
I1
tp81
a(I6
I0
tp82
a(I2
I0
tp83
a(I0
I4
tp84
ag73
atp85
Rp86
sg15
I7
sg29
g20
((lp87
(I0
I6
tp88
a(I3
I0
tp89
a(I2
I4
tp90
a(I1
I5
tp91
a(I4
I3
tp92
a(I2
I2
tp93
a(I1
I1
tp94
a(I3
I5
tp95
atp96
Rp97
sg13
((I1
I0
tp98
(I3
I3
tp99
(I6
I2
tp100
tp101
sg14
I7
sbs(iproblems
RoomID
p102
(dp103
g10
I10
sg11
(I4
I7
tp104
sg13
I5
sg14
I10
sg15
I8
sg16
I8655808914197340073
sb(imulti_robot_problem
MultiRobotState
p105
(dp106
g19
g20
((lp107
(I2
I7
tp108
ag104
a(I4
I8
tp109
a(I6
I3
tp110
a(I7
I5
tp111
a(I3
I7
tp112
a(I1
I0
tp113
a(I5
I3
tp114
atp115
Rp116
sg15
I8
sg29
g20
((lp117
(I7
I3
tp118
a(I5
I4
tp119
a(I7
I0
tp120
a(I5
I7
tp121
a(I1
I5
tp122
a(I1
I9
tp123
a(I3
I6
tp124
a(I1
I7
tp125
a(I3
I4
tp126
a(I5
I8
tp127
atp128
Rp129
sg13
((I3
I8
tp130
(I7
I9
tp131
(I6
I1
tp132
(I2
I3
tp133
(I5
I5
tp134
tp135
sg14
I10
sbs(iproblems
RoomID
p136
(dp137
g10
I6
sg11
(I4
I6
tp138
sg13
I1
sg14
I8
sg15
I7
sg16
I3537054308274871603
sb(imulti_robot_problem
MultiRobotState
p139
(dp140
g19
g20
((lp141
(I4
I7
tp142
ag138
a(I4
I5
tp143
a(I2
I5
tp144
a(I3
I5
tp145
a(I6
I0
tp146
a(I2
I4
tp147
atp148
Rp149
sg15
I7
sg29
g20
((lp150
(I0
I6
tp151
a(I6
I2
tp152
a(I5
I6
tp153
a(I4
I1
tp154
a(I1
I1
tp155
a(I5
I3
tp156
atp157
Rp158
sg13
((I0
I3
tp159
tp160
sg14
I8
sbssS'name'
p161
S'easy_roomset'
p162
sbsg161
S"AnytimeBeam-w5-gf(1.5, 'exp')_with_PowerHeuristic2"
p163
sS'solutions'
p164
(dp165
g8
((lp166
(F0.35000000000218279
I10
tp167
aF40.470000000001164
tp168
sg44
((lp169
(F1.5799999999981083
I14
tp170
aF40.209999999999127
tp171
sg71
((lp172
(F28.400000000001455
I144
tp173
aF40.200000000000728
tp174
sg102
((lp175
(F6.9899999999979627
I9
tp176
aF41.020000000000437
tp177
sg136
((lp178
(F0.11999999999898137
I49
tp179
a(F0.31999999999970896
I47
tp180
a(F0.52999999999883585
I45
tp181
a(F0.7999999999992724
I43
tp182
a(F1.2299999999995634
I41
tp183
a(F1.6499999999978172
I40
tp184
a(F2.6499999999978172
I39
tp185
a(F3.5400000000008731
I38
tp186
a(F4.7900000000008731
I37
tp187
a(F5.9500000000007276
I35
tp188
a(F7.5799999999981083
I33
tp189
a(F9.8899999999994179
I31
tp190
a(F11.840000000000146
I29
tp191
a(F13.389999999999418
I27
tp192
a(F15.379999999997381
I25
tp193
a(F19.719999999997526
I24
tp194
a(F23.599999999998545
I22
tp195
a(F26.889999999999418
I20
tp196
aF40.0
tp197
ssba(imeasure_core
ProblemSetSolution
p198
(dp199
g3
(imeasure_core
RoomSet
p200
(dp201
g6
(dp202
(iproblems
RoomID
p203
(dp204
g10
I6
sg11
(I1
I8
tp205
sg13
I4
sg14
I11
sg15
I12
sg16
I2405875930906139466
sb(imulti_robot_problem
MultiRobotState
p206
(dp207
g19
g20
((lp208
(I6
I4
tp209
a(I4
I6
tp210
a(I8
I2
tp211
a(I6
I6
tp212
a(I2
I8
tp213
a(I8
I0
tp214
a(I5
I5
tp215
a(I9
I10
tp216
a(I6
I2
tp217
a(I2
I3
tp218
a(I3
I7
tp219
a(I6
I5
tp220
a(I5
I3
tp221
a(I7
I0
tp222
a(I3
I3
tp223
a(I2
I9
tp224
a(I11
I5
tp225
a(I8
I1
tp226
a(I6
I1
tp227
a(I3
I1
tp228
a(I6
I3
tp229
a(I2
I0
tp230
ag205
a(I7
I5
tp231
a(I3
I6
tp232
a(I4
I3
tp233
a(I3
I4
tp234
atp235
Rp236
sg15
I12
sg29
g20
((lp237
(I9
I4
tp238
a(I7
I1
tp239
a(I0
I9
tp240
a(I9
I3
tp241
a(I7
I7
tp242
a(I2
I1
tp243
atp244
Rp245
sg13
((I9
I7
tp246
(I4
I4
tp247
(I10
I8
tp248
(I0
I2
tp249
tp250
sg14
I11
sbs(iproblems
RoomID
p251
(dp252
g10
I10
sg11
(I0
I5
tp253
sg13
I4
sg14
I12
sg15
I10
sg16
I8655808914197340073
sb(imulti_robot_problem
MultiRobotState
p254
(dp255
g19
g20
((lp256
(I5
I9
tp257
a(I5
I4
tp258
a(I5
I7
tp259
a(I6
I6
tp260
a(I4
I8
tp261
a(I8
I0
tp262
a(I0
I7
tp263
a(I7
I5
tp264
a(I2
I3
tp265
a(I1
I4
tp266
a(I6
I8
tp267
a(I1
I11
tp268
a(I9
I6
tp269
a(I5
I8
tp270
a(I4
I6
tp271
a(I3
I8
tp272
a(I6
I7
tp273
a(I5
I5
tp274
a(I3
I4
tp275
a(I4
I4
tp276
a(I6
I3
tp277
a(I2
I0
tp278
a(I6
I5
tp279
ag253
a(I7
I8
tp280
atp281
Rp282
sg15
I10
sg29
g20
((lp283
(I6
I9
tp284
a(I2
I9
tp285
a(I2
I11
tp286
a(I9
I0
tp287
a(I7
I7
tp288
a(I8
I3
tp289
a(I1
I7
tp290
a(I8
I6
tp291
a(I8
I4
tp292
a(I3
I5
tp293
atp294
Rp295
sg13
((I4
I9
tp296
(I8
I11
tp297
(I7
I1
tp298
(I3
I3
tp299
tp300
sg14
I12
sbs(iproblems
RoomID
p301
(dp302
g10
I10
sg11
(I3
I6
tp303
sg13
I4
sg14
I12
sg15
I11
sg16
I4278205817407065157
sb(imulti_robot_problem
MultiRobotState
p304
(dp305
g19
g20
((lp306
(I0
I1
tp307
a(I4
I7
tp308
a(I5
I6
tp309
a(I2
I8
tp310
a(I0
I10
tp311
a(I3
I7
tp312
a(I7
I11
tp313
a(I3
I3
tp314
a(I2
I7
tp315
a(I5
I3
tp316
a(I6
I7
tp317
a(I4
I6
tp318
a(I10
I7
tp319
a(I4
I4
tp320
a(I3
I8
tp321
a(I4
I5
tp322
ag303
a(I1
I10
tp323
a(I3
I5
tp324
a(I1
I9
tp325
atp326
Rp327
sg15
I11
sg29
g20
((lp328
(I1
I2
tp329
a(I8
I1
tp330
a(I9
I2
tp331
a(I6
I1
tp332
a(I5
I7
tp333
a(I8
I9
tp334
a(I3
I0
tp335
a(I9
I4
tp336
a(I0
I2
tp337
a(I4
I0
tp338
atp339
Rp340
sg13
((I6
I10
tp341
(I5
I11
tp342
(I2
I0
tp343
(I9
I1
tp344
tp345
sg14
I12
sbs(iproblems
RoomID
p346
(dp347
g10
I6
sg11
(I3
I3
tp348
sg13
I4
sg14
I12
sg15
I12
sg16
I7193062864237573168
sb(imulti_robot_problem
MultiRobotState
p349
(dp350
g19
g20
((lp351
(I6
I4
tp352
a(I5
I4
tp353
a(I1
I3
tp354
a(I6
I6
tp355
a(I7
I1
tp356
a(I9
I3
tp357
a(I0
I7
tp358
a(I1
I6
tp359
a(I2
I5
tp360
a(I0
I8
tp361
a(I10
I3
tp362
a(I8
I3
tp363
a(I3
I1
tp364
ag348
a(I5
I7
tp365
a(I11
I3
tp366
a(I7
I4
tp367
a(I0
I9
tp368
a(I2
I3
tp369
a(I8
I4
tp370
a(I3
I4
tp371
a(I2
I4
tp372
a(I9
I7
tp373
atp374
Rp375
sg15
I12
sg29
g20
((lp376
(I2
I0
tp377
a(I2
I6
tp378
a(I6
I8
tp379
a(I0
I6
tp380
a(I4
I4
tp381
a(I7
I7
tp382
atp383
Rp384
sg13
((I11
I9
tp385
(I11
I2
tp386
(I4
I11
tp387
(I3
I6
tp388
tp389
sg14
I12
sbs(iproblems
RoomID
p390
(dp391
g10
I10
sg11
(I11
I0
tp392
sg13
I4
sg14
I9
sg15
I12
sg16
I2796939073032698495
sb(imulti_robot_problem
MultiRobotState
p393
(dp394
g19
g20
((lp395
(I7
I3
tp396
a(I5
I7
tp397
a(I9
I1
tp398
a(I6
I6
tp399
a(I8
I0
tp400
a(I7
I7
tp401
a(I5
I8
tp402
a(I3
I3
tp403
a(I8
I1
tp404
a(I4
I8
tp405
a(I6
I3
tp406
a(I7
I2
tp407
a(I3
I6
tp408
a(I6
I4
tp409
a(I5
I4
tp410
a(I2
I6
tp411
a(I7
I1
tp412
a(I4
I5
tp413
ag392
a(I2
I3
tp414
a(I10
I1
tp415
a(I1
I0
tp416
a(I6
I5
tp417
a(I5
I3
tp418
a(I8
I3
tp419
a(I7
I0
tp420
a(I6
I8
tp421
a(I9
I2
tp422
a(I6
I1
tp423
a(I3
I1
tp424
a(I8
I8
tp425
a(I4
I3
tp426
a(I5
I2
tp427
a(I10
I2
tp428
atp429
Rp430
sg15
I12
sg29
g20
((lp431
(I1
I2
tp432
a(I11
I7
tp433
a(I3
I2
tp434
a(I2
I8
tp435
a(I9
I3
tp436
a(I1
I6
tp437
a(I5
I0
tp438
a(I0
I3
tp439
a(I0
I8
tp440
a(I4
I1
tp441
atp442
Rp443
sg13
((I10
I8
tp444
(I4
I6
tp445
(I11
I4
tp446
(I7
I8
tp447
tp448
sg14
I9
sbssg161
S'mild_roomset'
p449
sbsg161
g163
sg164
(dp450
g203
((lp451
(F35.0
I24
tp452
aF40.090000000000146
tp453
sg251
((lp454
F40.119999999998981
tp455
sg301
((lp456
(F5.0600000000013097
I28
tp457
aF40.400000000001455
tp458
sg346
((lp459
(F3.430000000000291
I25
tp460
aF40.079999999998108
tp461
sg390
((lp462
F40.100000000002183
tp463
ssba(imeasure_core
ProblemSetSolution
p464
(dp465
g3
(imeasure_core
RoomSet
p466
(dp467
g6
(dp468
(iproblems
RoomID
p469
(dp470
g10
I11
sg11
(I10
I1
tp471
sg13
I7
sg14
I12
sg15
I13
sg16
I2405875930906139466
sb(imulti_robot_problem
MultiRobotState
p472
(dp473
g19
g20
((lp474
(I7
I3
tp475
a(I9
I1
tp476
a(I7
I1
tp477
a(I5
I6
tp478
a(I8
I11
tp479
a(I8
I0
tp480
a(I1
I4
tp481
a(I6
I2
tp482
a(I0
I7
tp483
ag471
a(I10
I3
tp484
a(I7
I2
tp485
a(I10
I4
tp486
a(I11
I7
tp487
a(I9
I0
tp488
a(I11
I5
tp489
a(I7
I4
tp490
a(I1
I5
tp491
a(I10
I2
tp492
a(I11
I6
tp493
a(I8
I4
tp494
atp495
Rp496
sg15
I13
sg29
g20
((lp497
(I12
I5
tp498
a(I10
I11
tp499
a(I8
I1
tp500
a(I7
I8
tp501
a(I8
I6
tp502
a(I6
I3
tp503
a(I2
I0
tp504
a(I2
I3
tp505
a(I5
I1
tp506
a(I10
I0
tp507
a(I3
I4
tp508
atp509
Rp510
sg13
((I10
I8
tp511
(I9
I2
tp512
(I4
I5
tp513
(I11
I8
tp514
(I1
I2
tp515
(I3
I1
tp516
(I0
I10
tp517
tp518
sg14
I12
sbs(iproblems
RoomID
p519
(dp520
g10
I11
sg11
(I7
I9
tp521
sg13
I6
sg14
I13
sg15
I10
sg16
I8744744311366254845
sb(imulti_robot_problem
MultiRobotState
p522
(dp523
g19
g20
((lp524
(I6
I9
tp525
a(I1
I3
tp526
a(I4
I9
tp527
a(I5
I6
tp528
a(I9
I8
tp529
a(I1
I8
tp530
a(I1
I0
tp531
ag521
a(I3
I4
tp532
a(I5
I8
tp533
a(I9
I7
tp534
atp535
Rp536
sg15
I10
sg29
g20
((lp537
(I0
I1
tp538
a(I7
I3
tp539
a(I9
I0
tp540
a(I1
I12
tp541
a(I4
I10
tp542
a(I5
I11
tp543
a(I9
I10
tp544
a(I7
I11
tp545
a(I3
I7
tp546
a(I0
I8
tp547
a(I9
I6
tp548
atp549
Rp550
sg13
((I0
I10
tp551
(I6
I3
tp552
(I4
I0
tp553
(I1
I6
tp554
(I7
I5
tp555
(I9
I9
tp556
tp557
sg14
I13
sbs(iproblems
RoomID
p558
(dp559
g10
I15
sg11
(I5
I8
tp560
sg13
I7
sg14
I13
sg15
I11
sg16
I8655808914197340073
sb(imulti_robot_problem
MultiRobotState
p561
(dp562
g19
g20
((lp563
(I5
I9
tp564
a(I6
I7
tp565
a(I6
I11
tp566
a(I1
I4
tp567
a(I0
I12
tp568
a(I0
I11
tp569
a(I7
I5
tp570
a(I1
I6
tp571
a(I0
I4
tp572
a(I5
I10
tp573
a(I3
I9
tp574
a(I4
I9
tp575
a(I10
I3
tp576
ag560
atp577
Rp578
sg15
I11
sg29
g20
((lp579
(I2
I7
tp580
a(I7
I3
tp581
a(I4
I6
tp582
a(I1
I12
tp583
a(I5
I6
tp584
a(I8
I5
tp585
a(I7
I7
tp586
a(I7
I9
tp587
a(I2
I0
tp588
a(I9
I4
tp589
a(I7
I10
tp590
a(I0
I8
tp591
a(I9
I6
tp592
a(I6
I5
tp593
a(I9
I7
tp594
atp595
Rp596
sg13
((I9
I11
tp597
(I8
I1
tp598
(I3
I4
tp599
(I8
I7
tp600
(I9
I1
tp601
(I2
I10
tp602
(I2
I12
tp603
tp604
sg14
I13
sbs(iproblems
RoomID
p605
(dp606
g10
I15
sg11
(I4
I8
tp607
sg13
I6
sg14
I13
sg15
I12
sg16
I4278205817407065157
sb(imulti_robot_problem
MultiRobotState
p608
(dp609
g19
g20
((lp610
(I11
I7
tp611
a(I2
I9
tp612
ag607
a(I5
I6
tp613
a(I2
I8
tp614
a(I6
I10
tp615
a(I3
I8
tp616
a(I11
I8
tp617
a(I3
I9
tp618
a(I1
I10
tp619
a(I1
I11
tp620
a(I7
I8
tp621
a(I2
I4
tp622
atp623
Rp624
sg15
I12
sg29
g20
((lp625
(I1
I2
tp626
a(I0
I1
tp627
a(I5
I4
tp628
a(I5
I7
tp629
a(I10
I4
tp630
a(I7
I1
tp631
a(I3
I1
tp632
a(I10
I5
tp633
a(I4
I7
tp634
a(I9
I9
tp635
a(I0
I10
tp636
a(I4
I3
tp637
a(I8
I12
tp638
a(I4
I1
tp639
a(I0
I2
tp640
atp641
Rp642
sg13
((I7
I10
tp643
(I6
I12
tp644
(I2
I0
tp645
(I9
I1
tp646
(I10
I3
tp647
(I4
I0
tp648
tp649
sg14
I13
sbs(iproblems
RoomID
p650
(dp651
g10
I15
sg11
(I3
I6
tp652
sg13
I7
sg14
I10
sg15
I13
sg16
I2796939073032698495
sb(imulti_robot_problem
MultiRobotState
p653
(dp654
g19
g20
((lp655
(I5
I9
tp656
a(I6
I9
tp657
a(I4
I6
tp658
a(I5
I0
tp659
a(I6
I6
tp660
a(I4
I5
tp661
a(I5
I4
tp662
a(I6
I7
tp663
a(I6
I2
tp664
a(I0
I5
tp665
a(I8
I7
tp666
a(I5
I1
tp667
a(I6
I4
tp668
a(I12
I9
tp669
a(I5
I8
tp670
a(I5
I3
tp671
a(I2
I7
tp672
a(I4
I9
tp673
a(I5
I5
tp674
a(I3
I1
tp675
a(I4
I8
tp676
a(I2
I0
tp677
a(I3
I9
tp678
a(I6
I5
tp679
ag652
a(I5
I7
tp680
a(I7
I8
tp681
atp682
Rp683
sg15
I13
sg29
g20
((lp684
(I1
I2
tp685
a(I8
I2
tp686
a(I2
I9
tp687
a(I12
I0
tp688
a(I4
I1
tp689
a(I12
I8
tp690
a(I6
I0
tp691
a(I9
I9
tp692
a(I2
I3
tp693
a(I9
I4
tp694
a(I1
I7
tp695
a(I0
I9
tp696
a(I7
I9
tp697
a(I3
I4
tp698
a(I3
I3
tp699
atp700
Rp701
sg13
((I10
I2
tp702
(I11
I8
tp703
(I12
I5
tp704
(I8
I9
tp705
(I10
I3
tp706
(I0
I3
tp707
(I11
I2
tp708
tp709
sg14
I10
sbssg161
S'heavy_roomset'
p710
sbsg161
g163
sg164
(dp711
g469
((lp712
F46.149999999997817
tp713
sg519
((lp714
F41.380000000001019
tp715
sg558
((lp716
F42.849999999998545
tp717
sg605
((lp718
F42.819999999999709
tp719
sg650
((lp720
F41.970000000001164
tp721
ssba(imeasure_core
ProblemSetSolution
p722
(dp723
g3
g4
sg161
S"AnytimeBeam-w15-gf(1.5, 'exp')_with_PowerHeuristic2"
p724
sg164
(dp725
g8
((lp726
(F0.44000000000232831
I10
tp727
aF40.06000000000131
tp728
sg44
((lp729
(F1.6500000000014552
I14
tp730
aF40.110000000000582
tp731
sg71
((lp732
(F28.509999999998399
I144
tp733
aF40.069999999999709
tp734
sg102
((lp735
(F7.0099999999983993
I9
tp736
aF40.68999999999869
tp737
sg136
((lp738
(F0.12000000000261934
I49
tp739
a(F0.31999999999970896
I47
tp740
a(F0.54000000000087311
I45
tp741
a(F0.80000000000291038
I43
tp742
a(F1.2400000000016007
I41
tp743
a(F1.6599999999998545
I40
tp744
a(F2.6599999999998545
I39
tp745
a(F3.5400000000008731
I38
tp746
a(F4.7900000000008731
I37
tp747
a(F5.9500000000007276
I35
tp748
a(F7.5800000000017462
I33
tp749
a(F9.8900000000030559
I31
tp750
a(F11.840000000000146
I29
tp751
a(F13.390000000003056
I27
tp752
a(F15.370000000002619
I25
tp753
a(F19.710000000002765
I24
tp754
a(F23.569999999999709
I22
tp755
a(F26.840000000000146
I20
tp756
aF40.0
tp757
ssba(imeasure_core
ProblemSetSolution
p758
(dp759
g3
g200
sg161
g724
sg164
(dp760
g203
((lp761
(F35.120000000002619
I24
tp762
aF40.030000000002474
tp763
sg251
((lp764
F40.669999999998254
tp765
sg301
((lp766
(F5.0200000000004366
I28
tp767
aF40.010000000002037
tp768
sg346
((lp769
(F3.430000000000291
I25
tp770
aF40.139999999999418
tp771
sg390
((lp772
F40.119999999998981
tp773
ssba(imeasure_core
ProblemSetSolution
p774
(dp775
g3
g466
sg161
g724
sg164
(dp776
g469
((lp777
F45.970000000001164
tp778
sg519
((lp779
F41.459999999999127
tp780
sg558
((lp781
F42.790000000000873
tp782
sg605
((lp783
F42.900000000001455
tp784
sg650
((lp785
F41.899999999997817
tp786
ssba(imeasure_core
ProblemSetSolution
p787
(dp788
g3
g4
sg161
S"AnytimeBeam-w25-gf(1.5, 'exp')_with_PowerHeuristic2"
p789
sg164
(dp790
g8
((lp791
(F0.48999999999796273
I10
tp792
aF40.009999999998399
tp793
sg44
((lp794
(F1.6599999999998545
I14
tp795
aF40.06000000000131
tp796
sg71
((lp797
(F28.680000000000291
I144
tp798
aF40.119999999998981
tp799
sg102
((lp800
(F6.9900000000016007
I9
tp801
aF40.630000000001019
tp802
sg136
((lp803
(F0.11999999999898137
I49
tp804
a(F0.32999999999810825
I47
tp805
a(F0.54000000000087311
I45
tp806
a(F0.7999999999992724
I43
tp807
a(F1.2399999999979627
I41
tp808
a(F1.6599999999998545
I40
tp809
a(F2.6699999999982538
I39
tp810
a(F3.5600000000013097
I38
tp811
a(F4.8100000000013097
I37
tp812
a(F5.9599999999991269
I35
tp813
a(F7.5900000000001455
I33
tp814
a(F9.8899999999994179
I31
tp815
a(F11.840000000000146
I29
tp816
a(F13.380000000001019
I27
tp817
a(F15.360000000000582
I25
tp818
a(F19.659999999999854
I24
tp819
a(F23.509999999998399
I22
tp820
a(F26.790000000000873
I20
tp821
aF40.0
tp822
ssba(imeasure_core
ProblemSetSolution
p823
(dp824
g3
g200
sg161
g789
sg164
(dp825
g203
((lp826
(F34.889999999999418
I24
tp827
aF40.069999999999709
tp828
sg251
((lp829
F40.139999999999418
tp830
sg301
((lp831
(F5.0299999999988358
I28
tp832
aF40.020000000000437
tp833
sg346
((lp834
(F3.4700000000011642
I25
tp835
aF40.119999999998981
tp836
sg390
((lp837
F40.090000000000146
tp838
ssba(imeasure_core
ProblemSetSolution
p839
(dp840
g3
g466
sg161
g789
sg164
(dp841
g469
((lp842
F45.950000000000728
tp843
sg519
((lp844
F41.490000000001601
tp845
sg558
((lp846
F42.739999999997963
tp847
sg605
((lp848
F42.770000000000437
tp849
sg650
((lp850
F41.869999999998981
tp851
ssba(imeasure_core
ProblemSetSolution
p852
(dp853
g3
g4
sg161
S"AnytimeBeam-w35-gf(1.5, 'exp')_with_PowerHeuristic2"
p854
sg164
(dp855
g8
((lp856
(F0.56000000000130967
I10
tp857
aF40.260000000002037
tp858
sg44
((lp859
(F1.6499999999978172
I14
tp860
aF40.059999999997672
tp861
sg71
((lp862
(F28.470000000001164
I144
tp863
aF40.040000000000873
tp864
sg102
((lp865
(F6.9900000000016007
I9
tp866
aF40.850000000002183
tp867
sg136
((lp868
(F0.11999999999898137
I49
tp869
a(F0.32999999999810825
I47
tp870
a(F0.53999999999723514
I45
tp871
a(F0.7999999999992724
I43
tp872
a(F1.2399999999979627
I41
tp873
a(F1.6599999999998545
I40
tp874
a(F2.6599999999998545
I39
tp875
a(F3.5499999999992724
I38
tp876
a(F4.7899999999972351
I37
tp877
a(F5.9499999999970896
I35
tp878
a(F7.5799999999981083
I33
tp879
a(F9.8899999999994179
I31
tp880
a(F11.840000000000146
I29
tp881
a(F13.389999999999418
I27
tp882
a(F15.369999999998981
I25
tp883
a(F19.68999999999869
I24
tp884
a(F23.539999999997235
I22
tp885
a(F26.819999999999709
I20
tp886
aF40.0
tp887
ssba(imeasure_core
ProblemSetSolution
p888
(dp889
g3
g200
sg161
g854
sg164
(dp890
g203
((lp891
(F35.079999999998108
I24
tp892
aF40.139999999999418
tp893
sg251
((lp894
F40.299999999999272
tp895
sg301
((lp896
(F5.0099999999983993
I28
tp897
aF40.599999999998545
tp898
sg346
((lp899
(F3.4099999999998545
I25
tp900
aF40.040000000000873
tp901
sg390
((lp902
F40.139999999999418
tp903
ssba(imeasure_core
ProblemSetSolution
p904
(dp905
g3
g466
sg161
g854
sg164
(dp906
g469
((lp907
F46.049999999999272
tp908
sg519
((lp909
F41.480000000003201
tp910
sg558
((lp911
F42.779999999998836
tp912
sg605
((lp913
F42.899999999997817
tp914
sg650
((lp915
F41.81000000000131
tp916
ssba(imeasure_core
ProblemSetSolution
p917
(dp918
g3
g4
sg161
S"AnytimeBeam-w45-gf(1.5, 'exp')_with_PowerHeuristic2"
p919
sg164
(dp920
g8
((lp921
(F0.59000000000014552
I10
tp922
aF40.309999999997672
tp923
sg44
((lp924
(F1.6100000000005821
I14
tp925
aF40.240000000001601
tp926
sg71
((lp927
(F28.299999999999272
I144
tp928
aF40.049999999999272
tp929
sg102
((lp930
(F6.9900000000016007
I9
tp931
aF40.829999999998108
tp932
sg136
((lp933
(F0.12000000000261934
I49
tp934
a(F0.33000000000174623
I47
tp935
a(F0.54000000000087311
I45
tp936
a(F0.81000000000130967
I43
tp937
a(F1.2400000000016007
I41
tp938
a(F1.6700000000018917
I40
tp939
a(F2.6600000000034925
I39
tp940
a(F3.5500000000029104
I38
tp941
a(F4.8100000000013097
I37
tp942
a(F5.9800000000032014
I35
tp943
a(F7.6100000000005821
I33
tp944
a(F9.930000000000291
I31
tp945
a(F11.890000000003056
I29
tp946
a(F13.450000000000728
I27
tp947
a(F15.430000000000291
I25
tp948
a(F19.760000000002037
I24
tp949
a(F23.660000000003492
I22
tp950
a(F26.940000000002328
I20
tp951
aF40.0
tp952
ssba(imeasure_core
ProblemSetSolution
p953
(dp954
g3
g200
sg161
g919
sg164
(dp955
g203
((lp956
(F34.930000000000291
I24
tp957
aF40.120000000002619
tp958
sg251
((lp959
F40.209999999999127
tp960
sg301
((lp961
(F5.0200000000004366
I28
tp962
aF40.639999999999418
tp963
sg346
((lp964
(F3.430000000000291
I25
tp965
aF40.010000000002037
tp966
sg390
((lp967
F40.069999999999709
tp968
ssba(imeasure_core
ProblemSetSolution
p969
(dp970
g3
g466
sg161
g919
sg164
(dp971
g469
((lp972
F46.150000000001455
tp973
sg519
((lp974
F41.569999999999709
tp975
sg558
((lp976
F42.790000000000873
tp977
sg605
((lp978
F42.679999999996653
tp979
sg650
((lp980
F42.010000000002037
tp981
ssba(imeasure_core
ProblemSetSolution
p982
(dp983
g3
g4
sg161
S"AnytimeBeam-w5-gf(1.5, 'exp')_with_LinearHeuristic"
p984
sg164
(dp985
g8
((lp986
F40.040000000000873
tp987
sg44
((lp988
F40.049999999999272
tp989
sg71
((lp990
(F1.3400000000001455
I58
tp991
a(F25.090000000000146
I56
tp992
aF40.110000000000582
tp993
sg102
((lp994
(F4.1000000000021828
I6
tp995
aF40.670000000001892
tp996
sg136
((lp997
(F0.020000000000436557
I22
tp998
a(F0.13999999999941792
I20
tp999
aF40.0
tp1000
ssba(imeasure_core
ProblemSetSolution
p1001
(dp1002
g3
g200
sg161
g984
sg164
(dp1003
g203
((lp1004
F40.139999999999418
tp1005
sg251
((lp1006
F41.149999999997817
tp1007
sg301
((lp1008
F40.710000000002765
tp1009
sg346
((lp1010
F40.669999999998254
tp1011
sg390
((lp1012
F40.170000000001892
tp1013
ssba(imeasure_core
ProblemSetSolution
p1014
(dp1015
g3
g466
sg161
g984
sg164
(dp1016
g469
((lp1017
F80.379999999997381
tp1018
sg519
((lp1019
F47.010000000002037
tp1020
sg558
((lp1021
F80.520000000000437
tp1022
sg605
((lp1023
F49.430000000000291
tp1024
sg650
((lp1025
F42.0
tp1026
ssba(imeasure_core
ProblemSetSolution
p1027
(dp1028
g3
g4
sg161
S"AnytimeBeam-w15-gf(1.5, 'exp')_with_LinearHeuristic"
p1029
sg164
(dp1030
g8
((lp1031
F40.0
tp1032
sg44
((lp1033
F40.399999999997817
tp1034
sg71
((lp1035
(F1.3100000000013097
I58
tp1036
a(F23.450000000000728
I56
tp1037
aF40.020000000000437
tp1038
sg102
((lp1039
(F3.9500000000007276
I6
tp1040
aF40.979999999999563
tp1041
sg136
((lp1042
(F0.020000000000436557
I22
tp1043
a(F0.13999999999941792
I20
tp1044
aF40.0
tp1045
ssba(imeasure_core
ProblemSetSolution
p1046
(dp1047
g3
g200
sg161
g1029
sg164
(dp1048
g203
((lp1049
F40.5
tp1050
sg251
((lp1051
F41.029999999998836
tp1052
sg301
((lp1053
F40.06000000000131
tp1054
sg346
((lp1055
F40.779999999998836
tp1056
sg390
((lp1057
F40.270000000000437
tp1058
ssba(imeasure_core
ProblemSetSolution
p1059
(dp1060
g3
g466
sg161
g1029
sg164
(dp1061
g469
((lp1062
F80.340000000000146
tp1063
sg519
((lp1064
F47.159999999999854
tp1065
sg558
((lp1066
F80.830000000001746
tp1067
sg605
((lp1068
F49.399999999997817
tp1069
sg650
((lp1070
F42.100000000002183
tp1071
ssba(imeasure_core
ProblemSetSolution
p1072
(dp1073
g3
g4
sg161
S"AnytimeBeam-w25-gf(1.5, 'exp')_with_LinearHeuristic"
p1074
sg164
(dp1075
g8
((lp1076
(F37.590000000000146
I198
tp1077
aF40.0
tp1078
sg44
((lp1079
F40.370000000002619
tp1080
sg71
((lp1081
(F1.5999999999985448
I58
tp1082
a(F19.729999999999563
I56
tp1083
a(F39.139999999999418
I55
tp1084
aF40.019999999996799
tp1085
sg102
((lp1086
(F4.5400000000008731
I6
tp1087
aF40.330000000001746
tp1088
sg136
((lp1089
(F0.020000000000436557
I22
tp1090
a(F0.13999999999941792
I20
tp1091
aF40.0
tp1092
ssba(imeasure_core
ProblemSetSolution
p1093
(dp1094
g3
g200
sg161
g1074
sg164
(dp1095
g203
((lp1096
F40.490000000001601
tp1097
sg251
((lp1098
F41.029999999998836
tp1099
sg301
((lp1100
F40.659999999999854
tp1101
sg346
((lp1102
F40.459999999999127
tp1103
sg390
((lp1104
F40.139999999999418
tp1105
ssba(imeasure_core
ProblemSetSolution
p1106
(dp1107
g3
g466
sg161
g1074
sg164
(dp1108
g469
((lp1109
F80.389999999999418
tp1110
sg519
((lp1111
F47.220000000001164
tp1112
sg558
((lp1113
F80.700000000000728
tp1114
sg605
((lp1115
F49.520000000000437
tp1116
sg650
((lp1117
F41.959999999999127
tp1118
ssba(imeasure_core
ProblemSetSolution
p1119
(dp1120
g3
g4
sg161
S"AnytimeBeam-w35-gf(1.5, 'exp')_with_LinearHeuristic"
p1121
sg164
(dp1122
g8
((lp1123
F40.06000000000131
tp1124
sg44
((lp1125
F40.239999999997963
tp1126
sg71
((lp1127
(F1.5499999999992724
I58
tp1128
a(F18.479999999999563
I56
tp1129
a(F37.56000000000131
I55
tp1130
aF40.0
tp1131
sg102
((lp1132
(F4.4400000000023283
I6
tp1133
aF40.100000000002183
tp1134
sg136
((lp1135
(F0.020000000000436557
I22
tp1136
a(F0.13999999999941792
I20
tp1137
aF40.0
tp1138
ssba(imeasure_core
ProblemSetSolution
p1139
(dp1140
g3
g200
sg161
g1121
sg164
(dp1141
g203
((lp1142
F40.619999999998981
tp1143
sg251
((lp1144
F41.419999999998254
tp1145
sg301
((lp1146
F40.569999999999709
tp1147
sg346
((lp1148
F40.620000000002619
tp1149
sg390
((lp1150
F40.259999999998399
tp1151
ssba(imeasure_core
ProblemSetSolution
p1152
(dp1153
g3
g466
sg161
g1121
sg164
(dp1154
g469
((lp1155
F80.520000000000437
tp1156
sg519
((lp1157
F47.029999999998836
tp1158
sg558
((lp1159
F80.430000000000291
tp1160
sg605
((lp1161
F49.729999999999563
tp1162
sg650
((lp1163
F42.200000000000728
tp1164
ssba(imeasure_core
ProblemSetSolution
p1165
(dp1166
g3
g4
sg161
S"AnytimeBeam-w45-gf(1.5, 'exp')_with_LinearHeuristic"
p1167
sg164
(dp1168
g8
((lp1169
F40.169999999998254
tp1170
sg44
((lp1171
F40.150000000001455
tp1172
sg71
((lp1173
(F1.680000000000291
I58
tp1174
a(F20.340000000000146
I56
tp1175
a(F39.68999999999869
I55
tp1176
aF40.0
tp1177
sg102
((lp1178
(F4.930000000000291
I6
tp1179
aF40.259999999998399
tp1180
sg136
((lp1181
(F0.020000000000436557
I22
tp1182
a(F0.13999999999941792
I20
tp1183
aF40.0
tp1184
ssba(imeasure_core
ProblemSetSolution
p1185
(dp1186
g3
g200
sg161
g1167
sg164
(dp1187
g203
((lp1188
F40.25
tp1189
sg251
((lp1190
F41.030000000002474
tp1191
sg301
((lp1192
F40.579999999998108
tp1193
sg346
((lp1194
F40.549999999999272
tp1195
sg390
((lp1196
F40.240000000001601
tp1197
ssba(imeasure_core
ProblemSetSolution
p1198
(dp1199
g3
g466
sg161
g1167
sg164
(dp1200
g469
((lp1201
F80.190000000002328
tp1202
sg519
((lp1203
F47.149999999997817
tp1204
sg558
((lp1205
F80.540000000000873
tp1206
sg605
((lp1207
F49.700000000000728
tp1208
sg650
((lp1209
F42.139999999999418
tp1210
ssba.