(lp0
(imeasure_core
ProblemSetSolution
p1
(dp2
S'roomset'
p3
(imeasure_core
RoomSet
p4
(dp5
S'rooms'
p6
(dp7
(iproblems
RoomID
p8
(dp9
S'dusts'
p10
I8
sS'obstacles'
p11
(I0
I4
tp12
sS'robots'
p13
I4
sS'height'
p14
I7
sS'width'
p15
I9
sS'seed'
p16
I1689441204489037471
sb(imulti_robot_problem
MultiRobotState
p17
(dp18
S'obstacle_locations'
p19
c__builtin__
frozenset
p20
((lp21
(I0
I1
tp22
a(I1
I2
tp23
a(I3
I2
tp24
a(I8
I1
tp25
a(I4
I3
tp26
ag12
a(I0
I3
tp27
a(I4
I0
tp28
atp29
Rp30
sg15
I9
sS'dirt_locations'
p31
g20
((lp32
(I0
I0
tp33
a(I7
I0
tp34
a(I7
I6
tp35
a(I1
I4
tp36
a(I6
I2
tp37
a(I2
I3
tp38
a(I5
I1
tp39
a(I3
I5
tp40
atp41
Rp42
sg13
((I6
I0
tp43
(I5
I4
tp44
(I6
I6
tp45
(I5
I0
tp46
tp47
sg14
I7
sbs(iproblems
RoomID
p48
(dp49
g10
I10
sg11
(I4
I5
tp50
sg13
I3
sg14
I8
sg15
I10
sg16
I6660334802794327005
sb(imulti_robot_problem
MultiRobotState
p51
(dp52
g19
g20
((lp53
(I9
I0
tp54
a(I2
I6
tp55
a(I1
I6
tp56
a(I3
I6
tp57
ag50
a(I8
I4
tp58
atp59
Rp60
sg15
I10
sg31
g20
((lp61
(I9
I1
tp62
a(I5
I6
tp63
a(I9
I6
tp64
a(I1
I5
tp65
a(I7
I5
tp66
a(I9
I4
tp67
a(I1
I7
tp68
a(I4
I1
tp69
a(I7
I2
tp70
a(I8
I2
tp71
atp72
Rp73
sg13
((I7
I3
tp74
(I4
I7
tp75
(I4
I2
tp76
tp77
sg14
I8
sbs(iproblems
RoomID
p78
(dp79
g10
I6
sg11
(I3
I0
tp80
sg13
I4
sg14
I10
sg15
I7
sg16
I3914746131789064238
sb(imulti_robot_problem
MultiRobotState
p81
(dp82
g19
g20
((lp83
g80
a(I6
I1
tp84
a(I2
I3
tp85
a(I5
I0
tp86
a(I2
I2
tp87
a(I0
I3
tp88
a(I0
I8
tp89
a(I4
I1
tp90
a(I3
I5
tp91
atp92
Rp93
sg15
I7
sg31
g20
((lp94
(I6
I5
tp95
a(I3
I3
tp96
a(I1
I7
tp97
a(I0
I4
tp98
a(I3
I4
tp99
a(I0
I7
tp100
atp101
Rp102
sg13
((I1
I8
tp103
(I5
I1
tp104
(I5
I3
tp105
(I1
I9
tp106
tp107
sg14
I10
sbs(iproblems
RoomID
p108
(dp109
g10
I7
sg11
(I2
I5
tp110
sg13
I5
sg14
I9
sg15
I9
sg16
I4640892725076559864
sb(imulti_robot_problem
MultiRobotState
p111
(dp112
g19
g20
((lp113
(I2
I6
tp114
a(I6
I7
tp115
a(I0
I6
tp116
a(I3
I1
tp117
a(I1
I5
tp118
a(I1
I6
tp119
a(I0
I4
tp120
ag110
a(I3
I4
tp121
atp122
Rp123
sg15
I9
sg31
g20
((lp124
(I3
I8
tp125
a(I7
I3
tp126
a(I7
I1
tp127
a(I8
I1
tp128
a(I8
I6
tp129
a(I4
I2
tp130
a(I5
I3
tp131
atp132
Rp133
sg13
((I6
I5
tp134
(I8
I4
tp135
(I7
I6
tp136
(I6
I0
tp137
(I6
I3
tp138
tp139
sg14
I9
sbs(iproblems
RoomID
p140
(dp141
g10
I6
sg11
(I8
I4
tp142
sg13
I4
sg14
I10
sg15
I9
sg16
I3119042104763040036
sb(imulti_robot_problem
MultiRobotState
p143
(dp144
g19
g20
((lp145
(I1
I2
tp146
a(I6
I7
tp147
a(I4
I8
tp148
a(I7
I6
tp149
a(I8
I5
tp150
ag142
atp151
Rp152
sg15
I9
sg31
g20
((lp153
(I6
I8
tp154
a(I8
I7
tp155
a(I6
I6
tp156
a(I3
I0
tp157
a(I7
I2
tp158
a(I6
I5
tp159
atp160
Rp161
sg13
((I5
I9
tp162
(I6
I1
tp163
(I3
I4
tp164
(I2
I7
tp165
tp166
sg14
I10
sbssS'name'
p167
S'easy_roomset'
p168
sbsg167
S"AnytimeBeam-w20-gf(1.3, 'exp')_with_PowerHeuristic2"
p169
sS'solutions'
p170
(dp171
g8
((lp172
(F0.3500000000003638
I8
tp173
aF40.140000000001237
tp174
sg48
((lp175
(F0.51000000000021828
I23
tp176
aF40.049999999999272
tp177
sg78
((lp178
(F0.63000000000101863
I7
tp179
aF40.100000000000364
tp180
sg108
((lp181
(F6.1499999999996362
I6
tp182
aF40.090000000000146
tp183
sg140
((lp184
(F1.7999999999992724
I11
tp185
aF40.530000000000655
tp186
ssba(imeasure_core
ProblemSetSolution
p187
(dp188
g3
(imeasure_core
RoomSet
p189
(dp190
g6
(dp191
(iproblems
RoomID
p192
(dp193
g10
I6
sg11
(I5
I5
tp194
sg13
I4
sg14
I12
sg15
I11
sg16
I3119042104763040036
sb(imulti_robot_problem
MultiRobotState
p195
(dp196
g19
g20
((lp197
(I4
I6
tp198
a(I10
I4
tp199
a(I3
I0
tp200
a(I9
I8
tp201
a(I10
I6
tp202
a(I2
I1
tp203
a(I8
I9
tp204
a(I2
I3
tp205
a(I0
I10
tp206
a(I9
I5
tp207
a(I10
I3
tp208
a(I7
I9
tp209
ag194
a(I10
I7
tp210
a(I7
I8
tp211
a(I4
I4
tp212
a(I9
I2
tp213
a(I2
I4
tp214
a(I4
I5
tp215
a(I2
I2
tp216
a(I3
I3
tp217
a(I3
I4
tp218
a(I1
I1
tp219
atp220
Rp221
sg15
I11
sg31
g20
((lp222
(I8
I3
tp223
a(I8
I8
tp224
a(I5
I10
tp225
a(I9
I4
tp226
a(I8
I6
tp227
a(I10
I9
tp228
atp229
Rp230
sg13
((I6
I11
tp231
(I7
I2
tp232
(I2
I8
tp233
(I8
I10
tp234
tp235
sg14
I12
sbs(iproblems
RoomID
p236
(dp237
g10
I6
sg11
(I4
I8
tp238
sg13
I4
sg14
I12
sg15
I9
sg16
I3914746131789064238
sb(imulti_robot_problem
MultiRobotState
p239
(dp240
g19
g20
((lp241
(I4
I6
tp242
a(I6
I6
tp243
a(I4
I5
tp244
a(I5
I7
tp245
a(I0
I5
tp246
a(I0
I10
tp247
a(I8
I7
tp248
a(I7
I0
tp249
a(I0
I3
tp250
a(I8
I5
tp251
a(I4
I0
tp252
a(I2
I3
tp253
a(I6
I7
tp254
a(I3
I3
tp255
a(I8
I1
tp256
a(I7
I6
tp257
a(I3
I1
tp258
ag238
a(I5
I0
tp259
a(I2
I2
tp260
a(I0
I9
tp261
a(I8
I6
tp262
a(I5
I3
tp263
a(I6
I1
tp264
atp265
Rp266
sg15
I9
sg31
g20
((lp267
(I1
I8
tp268
a(I1
I9
tp269
a(I4
I3
tp270
a(I4
I4
tp271
a(I2
I11
tp272
a(I2
I10
tp273
atp274
Rp275
sg13
((I1
I10
tp276
(I6
I2
tp277
(I7
I3
tp278
(I1
I11
tp279
tp280
sg14
I12
sbs(iproblems
RoomID
p281
(dp282
g10
I5
sg11
(I5
I7
tp283
sg13
I4
sg14
I9
sg15
I12
sg16
I659184109953178577
sb(imulti_robot_problem
MultiRobotState
p284
(dp285
g19
g20
((lp286
(I7
I3
tp287
a(I4
I7
tp288
a(I8
I2
tp289
a(I6
I6
tp290
a(I4
I5
tp291
a(I7
I7
tp292
a(I11
I0
tp293
a(I7
I5
tp294
a(I9
I4
tp295
a(I2
I5
tp296
a(I0
I8
tp297
a(I10
I3
tp298
a(I7
I2
tp299
a(I4
I6
tp300
a(I6
I4
tp301
a(I4
I3
tp302
a(I3
I3
tp303
a(I6
I1
tp304
ag283
a(I6
I5
tp305
a(I3
I6
tp306
a(I8
I6
tp307
a(I3
I4
tp308
atp309
Rp310
sg15
I12
sg31
g20
((lp311
(I10
I8
tp312
a(I4
I1
tp313
a(I0
I2
tp314
a(I1
I6
tp315
a(I10
I4
tp316
atp317
Rp318
sg13
((I10
I0
tp319
(I7
I0
tp320
(I2
I6
tp321
(I8
I3
tp322
tp323
sg14
I9
sbs(iproblems
RoomID
p324
(dp325
g10
I9
sg11
(I9
I9
tp326
sg13
I3
sg14
I10
sg15
I10
sg16
I3273124617966689144
sb(imulti_robot_problem
MultiRobotState
p327
(dp328
g19
g20
((lp329
(I7
I3
tp330
a(I5
I4
tp331
a(I1
I3
tp332
a(I6
I4
tp333
a(I4
I5
tp334
a(I9
I8
tp335
a(I3
I2
tp336
a(I7
I5
tp337
a(I1
I6
tp338
a(I2
I5
tp339
a(I0
I8
tp340
a(I9
I6
tp341
a(I6
I5
tp342
a(I5
I3
tp343
a(I3
I3
tp344
a(I5
I5
tp345
a(I7
I6
tp346
ag326
a(I6
I3
tp347
a(I4
I3
tp348
a(I2
I3
tp349
a(I8
I6
tp350
a(I2
I4
tp351
a(I9
I7
tp352
atp353
Rp354
sg15
I10
sg31
g20
((lp355
(I7
I0
tp356
a(I3
I0
tp357
a(I6
I1
tp358
a(I3
I1
tp359
a(I5
I0
tp360
a(I2
I2
tp361
a(I3
I4
tp362
a(I1
I1
tp363
a(I8
I4
tp364
atp365
Rp366
sg13
((I0
I7
tp367
(I2
I1
tp368
(I6
I6
tp369
tp370
sg14
I10
sbs(iproblems
RoomID
p371
(dp372
g10
I9
sg11
(I9
I10
tp373
sg13
I3
sg14
I11
sg15
I10
sg16
I4253868527325451640
sb(imulti_robot_problem
MultiRobotState
p374
(dp375
g19
g20
((lp376
(I7
I3
tp377
a(I4
I7
tp378
a(I2
I6
tp379
a(I7
I10
tp380
a(I4
I8
tp381
a(I6
I9
tp382
ag373
a(I3
I9
tp383
a(I1
I6
tp384
a(I3
I7
tp385
a(I2
I5
tp386
a(I8
I5
tp387
a(I5
I8
tp388
a(I7
I9
tp389
a(I7
I1
tp390
a(I8
I10
tp391
a(I5
I0
tp392
a(I2
I3
tp393
a(I3
I5
tp394
a(I3
I4
tp395
a(I2
I4
tp396
atp397
Rp398
sg15
I10
sg31
g20
((lp399
(I8
I9
tp400
a(I5
I10
tp401
a(I6
I8
tp402
a(I7
I6
tp403
a(I3
I8
tp404
a(I0
I10
tp405
a(I9
I4
tp406
a(I0
I9
tp407
a(I5
I3
tp408
atp409
Rp410
sg13
((I3
I6
tp411
(I0
I8
tp412
(I2
I1
tp413
tp414
sg14
I11
sbssg167
S'mild_roomset'
p415
sbsg167
g169
sg170
(dp416
g192
((lp417
F40.56000000000131
tp418
sg236
((lp419
(F0.80999999999949068
I6
tp420
aF40.199999999998909
tp421
sg281
((lp422
(F4.5799999999999272
I18
tp423
aF40.040000000000873
tp424
sg324
((lp425
F40.049999999999272
tp426
sg371
((lp427
(F0.90999999999985448
I32
tp428
aF40.020000000000437
tp429
ssba(imeasure_core
ProblemSetSolution
p430
(dp431
g3
(imeasure_core
RoomSet
p432
(dp433
g6
(dp434
(iproblems
RoomID
p435
(dp436
g10
I13
sg11
(I3
I4
tp437
sg13
I6
sg14
I10
sg15
I12
sg16
I1689441204489037471
sb(imulti_robot_problem
MultiRobotState
p438
(dp439
g19
g20
((lp440
(I7
I3
tp441
a(I1
I3
tp442
a(I8
I7
tp443
a(I10
I6
tp444
a(I7
I7
tp445
a(I6
I2
tp446
a(I1
I6
tp447
a(I9
I4
tp448
a(I4
I2
tp449
a(I5
I1
tp450
a(I10
I3
tp451
a(I2
I7
tp452
a(I9
I3
tp453
a(I9
I5
tp454
a(I0
I5
tp455
a(I11
I5
tp456
a(I8
I5
tp457
a(I5
I2
tp458
a(I0
I2
tp459
a(I3
I8
tp460
a(I4
I3
tp461
a(I0
I4
tp462
ag437
a(I8
I6
tp463
a(I4
I1
tp464
a(I1
I1
tp465
a(I8
I4
tp466
atp467
Rp468
sg15
I12
sg31
g20
((lp469
(I8
I9
tp470
a(I9
I0
tp471
a(I0
I0
tp472
a(I10
I4
tp473
a(I4
I8
tp474
a(I8
I1
tp475
a(I11
I2
tp476
a(I5
I4
tp477
a(I7
I4
tp478
a(I11
I8
tp479
a(I2
I6
tp480
a(I2
I3
tp481
a(I1
I5
tp482
atp483
Rp484
sg13
((I8
I0
tp485
(I7
I6
tp486
(I8
I8
tp487
(I7
I0
tp488
(I2
I4
tp489
(I9
I9
tp490
tp491
sg14
I10
sbs(iproblems
RoomID
p492
(dp493
g10
I15
sg11
(I10
I7
tp494
sg13
I6
sg14
I11
sg15
I13
sg16
I6660334802794327005
sb(imulti_robot_problem
MultiRobotState
p495
(dp496
g19
g20
((lp497
(I4
I7
tp498
a(I11
I7
tp499
a(I5
I6
tp500
a(I2
I8
tp501
a(I9
I9
tp502
a(I9
I10
tp503
a(I10
I8
tp504
a(I9
I0
tp505
ag494
a(I5
I7
tp506
a(I8
I10
tp507
a(I3
I8
tp508
a(I1
I5
tp509
a(I1
I8
tp510
a(I1
I10
tp511
a(I10
I0
tp512
a(I2
I4
tp513
atp514
Rp515
sg15
I13
sg31
g20
((lp516
(I2
I7
tp517
a(I12
I2
tp518
a(I6
I9
tp519
a(I6
I10
tp520
a(I12
I1
tp521
a(I2
I9
tp522
a(I12
I0
tp523
a(I12
I9
tp524
a(I11
I2
tp525
a(I10
I6
tp526
a(I1
I7
tp527
a(I12
I5
tp528
a(I6
I3
tp529
a(I10
I3
tp530
a(I12
I8
tp531
atp532
Rp533
sg13
((I9
I5
tp534
(I5
I10
tp535
(I5
I3
tp536
(I5
I1
tp537
(I9
I3
tp538
(I7
I8
tp539
tp540
sg14
I11
sbs(iproblems
RoomID
p541
(dp542
g10
I11
sg11
(I7
I6
tp543
sg13
I7
sg14
I13
sg15
I12
sg16
I3119042104763040036
sb(imulti_robot_problem
MultiRobotState
p544
(dp545
g19
g20
((lp546
(I5
I4
tp547
a(I4
I5
tp548
a(I9
I8
tp549
a(I10
I6
tp550
a(I9
I0
tp551
a(I6
I0
tp552
a(I8
I9
tp553
a(I2
I12
tp554
a(I9
I6
tp555
a(I10
I5
tp556
a(I5
I10
tp557
a(I10
I7
tp558
ag543
a(I9
I9
tp559
a(I8
I6
tp560
a(I11
I6
tp561
a(I9
I7
tp562
atp563
Rp564
sg15
I12
sg31
g20
((lp565
(I1
I2
tp566
a(I4
I4
tp567
a(I5
I11
tp568
a(I5
I6
tp569
a(I3
I4
tp570
a(I8
I0
tp571
a(I8
I10
tp572
a(I0
I11
tp573
a(I2
I3
tp574
a(I7
I8
tp575
a(I4
I0
tp576
atp577
Rp578
sg13
((I7
I12
tp579
(I8
I2
tp580
(I4
I6
tp581
(I3
I9
tp582
(I9
I11
tp583
(I11
I9
tp584
(I9
I3
tp585
tp586
sg14
I13
sbs(iproblems
RoomID
p587
(dp588
g10
I12
sg11
(I8
I7
tp589
sg13
I7
sg14
I12
sg15
I12
sg16
I4640892725076559864
sb(imulti_robot_problem
MultiRobotState
p590
(dp591
g19
g20
((lp592
(I5
I9
tp593
a(I6
I9
tp594
a(I4
I8
tp595
a(I5
I6
tp596
a(I2
I8
tp597
a(I6
I0
tp598
a(I2
I10
tp599
a(I0
I9
tp600
a(I6
I2
tp601
ag589
a(I3
I7
tp602
a(I5
I1
tp603
a(I1
I0
tp604
a(I8
I5
tp605
a(I7
I9
tp606
a(I7
I4
tp607
a(I7
I0
tp608
a(I6
I8
tp609
a(I2
I9
tp610
a(I0
I6
tp611
a(I7
I6
tp612
a(I5
I7
tp613
a(I8
I10
tp614
a(I0
I2
tp615
a(I6
I3
tp616
a(I2
I0
tp617
a(I1
I8
tp618
a(I4
I5
tp619
a(I5
I2
tp620
a(I1
I1
tp621
a(I9
I7
tp622
atp623
Rp624
sg15
I12
sg31
g20
((lp625
(I2
I7
tp626
a(I6
I4
tp627
a(I11
I10
tp628
a(I4
I6
tp629
a(I11
I8
tp630
a(I11
I2
tp631
a(I9
I3
tp632
a(I3
I2
tp633
a(I8
I8
tp634
a(I0
I5
tp635
a(I10
I3
tp636
a(I5
I3
tp637
atp638
Rp639
sg13
((I8
I6
tp640
(I11
I5
tp641
(I10
I8
tp642
(I9
I0
tp643
(I9
I4
tp644
(I9
I2
tp645
(I4
I11
tp646
tp647
sg14
I12
sbs(iproblems
RoomID
p648
(dp649
g10
I11
sg11
(I6
I1
tp650
sg13
I7
sg14
I13
sg15
I10
sg16
I3914746131789064238
sb(imulti_robot_problem
MultiRobotState
p651
(dp652
g19
g20
((lp653
(I0
I0
tp654
a(I7
I0
tp655
a(I9
I1
tp656
a(I2
I9
tp657
a(I7
I1
tp658
a(I9
I2
tp659
ag650
a(I6
I3
tp660
a(I8
I1
tp661
a(I7
I2
tp662
a(I5
I1
tp663
a(I7
I8
tp664
a(I6
I5
tp665
a(I5
I5
tp666
atp667
Rp668
sg15
I10
sg31
g20
((lp669
(I4
I7
tp670
a(I3
I3
tp671
a(I4
I5
tp672
a(I4
I4
tp673
a(I1
I4
tp674
a(I0
I11
tp675
a(I0
I5
tp676
a(I0
I10
tp677
a(I8
I7
tp678
a(I9
I5
tp679
a(I5
I3
tp680
atp681
Rp682
sg13
((I1
I11
tp683
(I8
I4
tp684
(I2
I12
tp685
(I1
I9
tp686
(I2
I11
tp687
(I5
I4
tp688
(I5
I0
tp689
tp690
sg14
I13
sbssg167
S'heavy_roomset'
p691
sbsg167
g169
sg170
(dp692
g435
((lp693
F40.319999999999709
tp694
sg492
((lp695
(F37.889999999999418
I11
tp696
aF44.75
tp697
sg541
((lp698
F68.059999999999491
tp699
sg587
((lp700
F41.31000000000131
tp701
sg648
((lp702
F44.049999999999272
tp703
ssba(imeasure_core
ProblemSetSolution
p704
(dp705
g3
g4
sg167
S"AnytimeBeam-w20-gf(1.5, 'exp')_with_PowerHeuristic2"
p706
sg170
(dp707
g8
((lp708
(F0.3500000000003638
I8
tp709
aF40.040000000000873
tp710
sg48
((lp711
(F0.51999999999861757
I23
tp712
aF40.0
tp713
sg78
((lp714
(F0.63999999999941792
I7
tp715
aF40.059999999999491
tp716
sg108
((lp717
(F6.1399999999994179
I6
tp718
aF40.420000000000073
tp719
sg140
((lp720
(F1.7999999999992724
I11
tp721
aF40.159999999999854
tp722
ssba(imeasure_core
ProblemSetSolution
p723
(dp724
g3
g189
sg167
g706
sg170
(dp725
g192
((lp726
F40.899999999999636
tp727
sg236
((lp728
(F0.7999999999992724
I6
tp729
aF40.059999999999491
tp730
sg281
((lp731
(F4.5400000000008731
I18
tp732
aF40.220000000001164
tp733
sg324
((lp734
F40.029999999998836
tp735
sg371
((lp736
(F0.90999999999985448
I32
tp737
aF40.050000000001091
tp738
ssba(imeasure_core
ProblemSetSolution
p739
(dp740
g3
g432
sg167
g706
sg170
(dp741
g435
((lp742
F40.210000000000946
tp743
sg492
((lp744
(F37.639999999999418
I11
tp745
aF44.539999999999054
tp746
sg541
((lp747
F68.050000000001091
tp748
sg587
((lp749
F41.239999999999782
tp750
sg648
((lp751
F43.930000000000291
tp752
ssba(imeasure_core
ProblemSetSolution
p753
(dp754
g3
g4
sg167
S"AnytimeBeam-w20-gf(1.7, 'exp')_with_PowerHeuristic2"
p755
sg170
(dp756
g8
((lp757
(F0.34000000000014552
I8
tp758
aF40.269999999998618
tp759
sg48
((lp760
(F0.51000000000021828
I23
tp761
aF40.020000000000437
tp762
sg78
((lp763
(F0.62000000000080036
I7
tp764
aF40.340000000000146
tp765
sg108
((lp766
(F6.0599999999994907
I6
tp767
aF40.930000000000291
tp768
sg140
((lp769
(F1.7999999999992724
I11
tp770
aF40.360000000000582
tp771
ssba(imeasure_core
ProblemSetSolution
p772
(dp773
g3
g189
sg167
g755
sg170
(dp774
g192
((lp775
F40.719999999999345
tp776
sg236
((lp777
(F0.79000000000087311
I6
tp778
aF40.090000000000146
tp779
sg281
((lp780
(F4.5499999999992724
I18
tp781
aF40.110000000000582
tp782
sg324
((lp783
F40.109999999998763
tp784
sg371
((lp785
(F0.90000000000145519
I32
tp786
aF40.130000000001019
tp787
ssba(imeasure_core
ProblemSetSolution
p788
(dp789
g3
g432
sg167
g755
sg170
(dp790
g435
((lp791
F40.119999999998981
tp792
sg492
((lp793
(F37.819999999999709
I11
tp794
aF44.690000000000509
tp795
sg541
((lp796
F67.899999999999636
tp797
sg587
((lp798
F41.260000000000218
tp799
sg648
((lp800
F43.809999999999491
tp801
ssba(imeasure_core
ProblemSetSolution
p802
(dp803
g3
g4
sg167
S"AnytimeBeam-w20-gf(1.8999999999999999, 'exp')_with_PowerHeuristic2"
p804
sg170
(dp805
g8
((lp806
(F0.3500000000003638
I8
tp807
aF40.110000000000582
tp808
sg48
((lp809
(F0.52000000000043656
I23
tp810
aF40.090000000000146
tp811
sg78
((lp812
(F0.62999999999919964
I7
tp813
aF40.200000000000728
tp814
sg108
((lp815
(F6.0999999999985448
I6
tp816
aF40.279999999998836
tp817
sg140
((lp818
(F1.819999999999709
I11
tp819
aF40.170000000000073
tp820
ssba(imeasure_core
ProblemSetSolution
p821
(dp822
g3
g189
sg167
g804
sg170
(dp823
g192
((lp824
F40.850000000000364
tp825
sg236
((lp826
(F0.80999999999949068
I6
tp827
aF40.040000000000873
tp828
sg281
((lp829
(F4.5999999999985448
I18
tp830
aF40.019999999998618
tp831
sg324
((lp832
F40.100000000000364
tp833
sg371
((lp834
(F0.8999999999996362
I32
tp835
aF40.090000000000146
tp836
ssba(imeasure_core
ProblemSetSolution
p837
(dp838
g3
g432
sg167
g804
sg170
(dp839
g435
((lp840
F40.420000000000073
tp841
sg492
((lp842
(F37.680000000000291
I11
tp843
aF44.579999999999927
tp844
sg541
((lp845
F68.039999999999054
tp846
sg587
((lp847
F41.050000000001091
tp848
sg648
((lp849
F43.840000000000146
tp850
ssba(imeasure_core
ProblemSetSolution
p851
(dp852
g3
g4
sg167
S"AnytimeBeam-w20-gf(1.3, 'exp')_with_LinearHeuristic"
p853
sg170
(dp854
g8
((lp855
(F33.68999999999869
I223
tp856
aF40.009999999998399
tp857
sg48
((lp858
(F6.1700000000000728
I49
tp859
aF40.020000000000437
tp860
sg78
((lp861
F40.190000000000509
tp862
sg108
((lp863
(F3.1299999999991996
I6
tp864
aF40.0
tp865
sg140
((lp866
F40.489999999999782
tp867
ssba(imeasure_core
ProblemSetSolution
p868
(dp869
g3
g189
sg167
g853
sg170
(dp870
g192
((lp871
F40.350000000000364
tp872
sg236
((lp873
(F2.3799999999991996
I12
tp874
a(F21.039999999999054
I11
tp875
aF40.030000000000655
tp876
sg281
((lp877
F40.069999999999709
tp878
sg324
((lp879
F40.039999999999054
tp880
sg371
((lp881
F40.290000000000873
tp882
ssba(imeasure_core
ProblemSetSolution
p883
(dp884
g3
g432
sg167
g853
sg170
(dp885
g435
((lp886
F40.930000000000291
tp887
sg492
((lp888
F41.959999999999127
tp889
sg541
((lp890
F42.5
tp891
sg587
((lp892
F40.510000000000218
tp893
sg648
((lp894
F62.100000000000364
tp895
ssba(imeasure_core
ProblemSetSolution
p896
(dp897
g3
g4
sg167
S"AnytimeBeam-w20-gf(1.5, 'exp')_with_LinearHeuristic"
p898
sg170
(dp899
g8
((lp900
(F33.680000000000291
I223
tp901
aF40.0
tp902
sg48
((lp903
(F8.0100000000002183
I49
tp904
aF40.019999999998618
tp905
sg78
((lp906
F40.100000000000364
tp907
sg108
((lp908
(F3.6700000000000728
I6
tp909
aF41.200000000000728
tp910
sg140
((lp911
F40.350000000000364
tp912
ssba(imeasure_core
ProblemSetSolution
p913
(dp914
g3
g189
sg167
g898
sg170
(dp915
g192
((lp916
F40.489999999999782
tp917
sg236
((lp918
(F2.4200000000000728
I12
tp919
a(F28.829999999999927
I11
tp920
aF40.049999999999272
tp921
sg281
((lp922
F41.1200000000008
tp923
sg324
((lp924
F40.109999999998763
tp925
sg371
((lp926
F40.260000000000218
tp927
ssba(imeasure_core
ProblemSetSolution
p928
(dp929
g3
g432
sg167
g898
sg170
(dp930
g435
((lp931
F43.360000000000582
tp932
sg492
((lp933
F43.809999999999491
tp934
sg541
((lp935
F49.850000000000364
tp936
sg587
((lp937
F41.289999999999054
tp938
sg648
((lp939
F65.280000000000655
tp940
ssba(imeasure_core
ProblemSetSolution
p941
(dp942
g3
g4
sg167
S"AnytimeBeam-w20-gf(1.7, 'exp')_with_LinearHeuristic"
p943
sg170
(dp944
g8
((lp945
(F33.579999999999927
I223
tp946
aF40.059999999999491
tp947
sg48
((lp948
(F14.280000000000655
I49
tp949
aF40.06000000000131
tp950
sg78
((lp951
F40.059999999999491
tp952
sg108
((lp953
(F4.1000000000003638
I6
tp954
aF40.789999999999054
tp955
sg140
((lp956
F40.100000000000364
tp957
ssba(imeasure_core
ProblemSetSolution
p958
(dp959
g3
g189
sg167
g943
sg170
(dp960
g192
((lp961
F40.950000000000728
tp962
sg236
((lp963
(F2.429999999998472
I12
tp964
a(F29.590000000000146
I11
tp965
aF40.1299999999992
tp966
sg281
((lp967
F41.299999999999272
tp968
sg324
((lp969
F40.210000000000946
tp970
sg371
((lp971
F40.059999999999491
tp972
ssba(imeasure_core
ProblemSetSolution
p973
(dp974
g3
g432
sg167
g943
sg170
(dp975
g435
((lp976
F43.3700000000008
tp977
sg492
((lp978
F43.699999999998909
tp979
sg541
((lp980
F49.659999999999854
tp981
sg587
((lp982
F41.380000000001019
tp983
sg648
((lp984
F65.709999999999127
tp985
ssba(imeasure_core
ProblemSetSolution
p986
(dp987
g3
g4
sg167
S"AnytimeBeam-w20-gf(1.8999999999999999, 'exp')_with_LinearHeuristic"
p988
sg170
(dp989
g8
((lp990
(F33.5
I223
tp991
aF40.079999999999927
tp992
sg48
((lp993
(F22.630000000001019
I49
tp994
aF40.090000000000146
tp995
sg78
((lp996
F40.149999999999636
tp997
sg108
((lp998
(F5.1700000000000728
I6
tp999
aF40.650000000001455
tp1000
sg140
((lp1001
F40.75
tp1002
ssba(imeasure_core
ProblemSetSolution
p1003
(dp1004
g3
g189
sg167
g988
sg170
(dp1005
g192
((lp1006
F40.579999999999927
tp1007
sg236
((lp1008
(F2.4200000000000728
I12
tp1009
a(F29.759999999998399
I11
tp1010
aF40.269999999998618
tp1011
sg281
((lp1012
F40.079999999999927
tp1013
sg324
((lp1014
F40.040000000000873
tp1015
sg371
((lp1016
F40.25
tp1017
ssba(imeasure_core
ProblemSetSolution
p1018
(dp1019
g3
g432
sg167
g988
sg170
(dp1020
g435
((lp1021
F43.449999999998909
tp1022
sg492
((lp1023
F43.440000000000509
tp1024
sg541
((lp1025
F49.390000000001237
tp1026
sg587
((lp1027
F41.269999999998618
tp1028
sg648
((lp1029
F65.300000000001091
tp1030
ssba.