(lp0
(imeasure_core
ProblemSetSolution
p1
(dp2
S'roomset'
p3
(imeasure_core
RoomSet
p4
(dp5
S'rooms'
p6
(dp7
(iproblems
RoomID
p8
(dp9
S'dusts'
p10
I6
sS'obstacles'
p11
(I5
I1
tp12
sS'robots'
p13
I4
sS'height'
p14
I9
sS'width'
p15
I10
sS'seed'
p16
I2405875930906139466
sb(imulti_robot_problem
MultiRobotState
p17
(dp18
S'obstacle_locations'
p19
c__builtin__
frozenset
p20
((lp21
(I7
I0
tp22
a(I7
I1
tp23
ag12
a(I6
I1
tp24
a(I6
I0
tp25
a(I7
I2
tp26
atp27
Rp28
sg15
I10
sS'dirt_locations'
p29
g20
((lp30
(I7
I3
tp31
a(I2
I1
tp32
a(I6
I4
tp33
a(I5
I6
tp34
a(I5
I2
tp35
a(I0
I7
tp36
atp37
Rp38
sg13
((I7
I6
tp39
(I3
I3
tp40
(I8
I6
tp41
(I0
I2
tp42
tp43
sg14
I9
sbs(iproblems
RoomID
p44
(dp45
g10
I6
sg11
(I6
I7
tp46
sg13
I4
sg14
I10
sg15
I7
sg16
I8744744311366254845
sb(imulti_robot_problem
MultiRobotState
p47
(dp48
g19
g20
((lp49
(I0
I6
tp50
ag46
a(I4
I6
tp51
a(I3
I7
tp52
a(I5
I7
tp53
a(I1
I9
tp54
atp55
Rp56
sg15
I7
sg29
g20
((lp57
(I2
I7
tp58
a(I0
I1
tp59
a(I5
I4
tp60
a(I6
I0
tp61
a(I5
I8
tp62
a(I5
I3
tp63
atp64
Rp65
sg13
((I0
I8
tp66
(I4
I2
tp67
(I3
I0
tp68
(I1
I4
tp69
tp70
sg14
I10
sbs(iproblems
RoomID
p71
(dp72
g10
I8
sg11
(I5
I3
tp73
sg13
I3
sg14
I7
sg15
I7
sg16
I7325839828077136048
sb(imulti_robot_problem
MultiRobotState
p74
(dp75
g19
g20
((lp76
(I6
I4
tp77
a(I5
I4
tp78
a(I5
I5
tp79
a(I6
I6
tp80
a(I3
I1
tp81
a(I6
I0
tp82
a(I2
I0
tp83
a(I0
I4
tp84
ag73
atp85
Rp86
sg15
I7
sg29
g20
((lp87
(I0
I6
tp88
a(I3
I0
tp89
a(I2
I4
tp90
a(I1
I5
tp91
a(I4
I3
tp92
a(I2
I2
tp93
a(I1
I1
tp94
a(I3
I5
tp95
atp96
Rp97
sg13
((I1
I0
tp98
(I3
I3
tp99
(I6
I2
tp100
tp101
sg14
I7
sbs(iproblems
RoomID
p102
(dp103
g10
I10
sg11
(I4
I7
tp104
sg13
I5
sg14
I10
sg15
I8
sg16
I8655808914197340073
sb(imulti_robot_problem
MultiRobotState
p105
(dp106
g19
g20
((lp107
(I2
I7
tp108
ag104
a(I4
I8
tp109
a(I6
I3
tp110
a(I7
I5
tp111
a(I3
I7
tp112
a(I1
I0
tp113
a(I5
I3
tp114
atp115
Rp116
sg15
I8
sg29
g20
((lp117
(I7
I3
tp118
a(I5
I4
tp119
a(I7
I0
tp120
a(I5
I7
tp121
a(I1
I5
tp122
a(I1
I9
tp123
a(I3
I6
tp124
a(I1
I7
tp125
a(I3
I4
tp126
a(I5
I8
tp127
atp128
Rp129
sg13
((I3
I8
tp130
(I7
I9
tp131
(I6
I1
tp132
(I2
I3
tp133
(I5
I5
tp134
tp135
sg14
I10
sbs(iproblems
RoomID
p136
(dp137
g10
I6
sg11
(I4
I6
tp138
sg13
I1
sg14
I8
sg15
I7
sg16
I3537054308274871603
sb(imulti_robot_problem
MultiRobotState
p139
(dp140
g19
g20
((lp141
(I4
I7
tp142
ag138
a(I4
I5
tp143
a(I2
I5
tp144
a(I3
I5
tp145
a(I6
I0
tp146
a(I2
I4
tp147
atp148
Rp149
sg15
I7
sg29
g20
((lp150
(I0
I6
tp151
a(I6
I2
tp152
a(I5
I6
tp153
a(I4
I1
tp154
a(I1
I1
tp155
a(I5
I3
tp156
atp157
Rp158
sg13
((I0
I3
tp159
tp160
sg14
I8
sbssS'name'
p161
S'easy_roomset'
p162
sbsg161
S"AnytimeBeam-w20-gf(2, 'lin')_with_PowerHeuristic2"
p163
sS'solutions'
p164
(dp165
g8
((lp166
(F0.46999999999934516
I10
tp167
aF40.039999999999054
tp168
sg44
((lp169
(F0.78000000000065484
I14
tp170
aF40.040000000000873
tp171
sg71
((lp172
(F8.2699999999986176
I144
tp173
aF40.069999999999709
tp174
sg102
((lp175
(F2.8600000000005821
I9
tp176
aF40.170000000000073
tp177
sg136
((lp178
(F0.11999999999898137
I49
tp179
a(F0.32999999999992724
I47
tp180
a(F0.5499999999992724
I45
tp181
a(F0.80999999999949068
I43
tp182
a(F1.25
I41
tp183
a(F1.680000000000291
I40
tp184
a(F2.680000000000291
I39
tp185
a(F3.5599999999994907
I38
tp186
a(F4.819999999999709
I37
tp187
a(F5.9899999999997817
I35
tp188
a(F7.6199999999989814
I33
tp189
a(F9.9499999999989086
I31
tp190
a(F11.909999999999854
I29
tp191
a(F13.479999999999563
I27
tp192
a(F15.459999999999127
I25
tp193
a(F19.819999999999709
I24
tp194
a(F23.690000000000509
I22
tp195
a(F26.969999999999345
I20
tp196
aF40.0
tp197
ssba(imeasure_core
ProblemSetSolution
p198
(dp199
g3
(imeasure_core
RoomSet
p200
(dp201
g6
(dp202
(iproblems
RoomID
p203
(dp204
g10
I6
sg11
(I1
I8
tp205
sg13
I4
sg14
I11
sg15
I12
sg16
I2405875930906139466
sb(imulti_robot_problem
MultiRobotState
p206
(dp207
g19
g20
((lp208
(I6
I4
tp209
a(I4
I6
tp210
a(I8
I2
tp211
a(I6
I6
tp212
a(I2
I8
tp213
a(I8
I0
tp214
a(I5
I5
tp215
a(I9
I10
tp216
a(I6
I2
tp217
a(I2
I3
tp218
a(I3
I7
tp219
a(I6
I5
tp220
a(I5
I3
tp221
a(I7
I0
tp222
a(I3
I3
tp223
a(I2
I9
tp224
a(I11
I5
tp225
a(I8
I1
tp226
a(I6
I1
tp227
a(I3
I1
tp228
a(I6
I3
tp229
a(I2
I0
tp230
ag205
a(I7
I5
tp231
a(I3
I6
tp232
a(I4
I3
tp233
a(I3
I4
tp234
atp235
Rp236
sg15
I12
sg29
g20
((lp237
(I9
I4
tp238
a(I7
I1
tp239
a(I0
I9
tp240
a(I9
I3
tp241
a(I7
I7
tp242
a(I2
I1
tp243
atp244
Rp245
sg13
((I9
I7
tp246
(I4
I4
tp247
(I10
I8
tp248
(I0
I2
tp249
tp250
sg14
I11
sbs(iproblems
RoomID
p251
(dp252
g10
I10
sg11
(I0
I5
tp253
sg13
I4
sg14
I12
sg15
I10
sg16
I8655808914197340073
sb(imulti_robot_problem
MultiRobotState
p254
(dp255
g19
g20
((lp256
(I5
I9
tp257
a(I5
I4
tp258
a(I5
I7
tp259
a(I6
I6
tp260
a(I4
I8
tp261
a(I8
I0
tp262
a(I0
I7
tp263
a(I7
I5
tp264
a(I2
I3
tp265
a(I1
I4
tp266
a(I6
I8
tp267
a(I1
I11
tp268
a(I9
I6
tp269
a(I5
I8
tp270
a(I4
I6
tp271
a(I3
I8
tp272
a(I6
I7
tp273
a(I5
I5
tp274
a(I3
I4
tp275
a(I4
I4
tp276
a(I6
I3
tp277
a(I2
I0
tp278
a(I6
I5
tp279
ag253
a(I7
I8
tp280
atp281
Rp282
sg15
I10
sg29
g20
((lp283
(I6
I9
tp284
a(I2
I9
tp285
a(I2
I11
tp286
a(I9
I0
tp287
a(I7
I7
tp288
a(I8
I3
tp289
a(I1
I7
tp290
a(I8
I6
tp291
a(I8
I4
tp292
a(I3
I5
tp293
atp294
Rp295
sg13
((I4
I9
tp296
(I8
I11
tp297
(I7
I1
tp298
(I3
I3
tp299
tp300
sg14
I12
sbs(iproblems
RoomID
p301
(dp302
g10
I6
sg11
(I3
I3
tp303
sg13
I4
sg14
I12
sg15
I12
sg16
I7193062864237573168
sb(imulti_robot_problem
MultiRobotState
p304
(dp305
g19
g20
((lp306
(I6
I4
tp307
a(I5
I4
tp308
a(I1
I3
tp309
a(I6
I6
tp310
a(I7
I1
tp311
a(I9
I3
tp312
a(I0
I7
tp313
a(I1
I6
tp314
a(I2
I5
tp315
a(I0
I8
tp316
a(I10
I3
tp317
a(I8
I3
tp318
a(I3
I1
tp319
ag303
a(I5
I7
tp320
a(I11
I3
tp321
a(I7
I4
tp322
a(I0
I9
tp323
a(I2
I3
tp324
a(I8
I4
tp325
a(I3
I4
tp326
a(I2
I4
tp327
a(I9
I7
tp328
atp329
Rp330
sg15
I12
sg29
g20
((lp331
(I2
I0
tp332
a(I2
I6
tp333
a(I6
I8
tp334
a(I0
I6
tp335
a(I4
I4
tp336
a(I7
I7
tp337
atp338
Rp339
sg13
((I11
I9
tp340
(I11
I2
tp341
(I4
I11
tp342
(I3
I6
tp343
tp344
sg14
I12
sbs(iproblems
RoomID
p345
(dp346
g10
I10
sg11
(I11
I0
tp347
sg13
I4
sg14
I9
sg15
I12
sg16
I2796939073032698495
sb(imulti_robot_problem
MultiRobotState
p348
(dp349
g19
g20
((lp350
(I7
I3
tp351
a(I5
I7
tp352
a(I9
I1
tp353
a(I6
I6
tp354
a(I8
I0
tp355
a(I7
I7
tp356
a(I5
I8
tp357
a(I3
I3
tp358
a(I8
I1
tp359
a(I4
I8
tp360
a(I6
I3
tp361
a(I7
I2
tp362
a(I3
I6
tp363
a(I6
I4
tp364
a(I5
I4
tp365
a(I2
I6
tp366
a(I7
I1
tp367
a(I4
I5
tp368
ag347
a(I2
I3
tp369
a(I10
I1
tp370
a(I1
I0
tp371
a(I6
I5
tp372
a(I5
I3
tp373
a(I8
I3
tp374
a(I7
I0
tp375
a(I6
I8
tp376
a(I9
I2
tp377
a(I6
I1
tp378
a(I3
I1
tp379
a(I8
I8
tp380
a(I4
I3
tp381
a(I5
I2
tp382
a(I10
I2
tp383
atp384
Rp385
sg15
I12
sg29
g20
((lp386
(I1
I2
tp387
a(I11
I7
tp388
a(I3
I2
tp389
a(I2
I8
tp390
a(I9
I3
tp391
a(I1
I6
tp392
a(I5
I0
tp393
a(I0
I3
tp394
a(I0
I8
tp395
a(I4
I1
tp396
atp397
Rp398
sg13
((I10
I8
tp399
(I4
I6
tp400
(I11
I4
tp401
(I7
I8
tp402
tp403
sg14
I9
sbs(iproblems
RoomID
p404
(dp405
g10
I10
sg11
(I3
I6
tp406
sg13
I4
sg14
I12
sg15
I11
sg16
I4278205817407065157
sb(imulti_robot_problem
MultiRobotState
p407
(dp408
g19
g20
((lp409
(I0
I1
tp410
a(I4
I7
tp411
a(I5
I6
tp412
a(I2
I8
tp413
a(I0
I10
tp414
a(I3
I7
tp415
a(I7
I11
tp416
a(I3
I3
tp417
a(I2
I7
tp418
a(I5
I3
tp419
a(I6
I7
tp420
a(I4
I6
tp421
a(I10
I7
tp422
a(I4
I4
tp423
a(I3
I8
tp424
a(I4
I5
tp425
ag406
a(I1
I10
tp426
a(I3
I5
tp427
a(I1
I9
tp428
atp429
Rp430
sg15
I11
sg29
g20
((lp431
(I1
I2
tp432
a(I8
I1
tp433
a(I9
I2
tp434
a(I6
I1
tp435
a(I5
I7
tp436
a(I8
I9
tp437
a(I3
I0
tp438
a(I9
I4
tp439
a(I0
I2
tp440
a(I4
I0
tp441
atp442
Rp443
sg13
((I6
I10
tp444
(I5
I11
tp445
(I2
I0
tp446
(I9
I1
tp447
tp448
sg14
I12
sbssg161
S'mild_roomset'
p449
sbsg161
g163
sg164
(dp450
g203
((lp451
(F8.3600000000005821
I32
tp452
aF40.079999999999927
tp453
sg251
((lp454
(F20.930000000000291
I171
tp455
aF40.049999999999272
tp456
sg301
((lp457
(F3.0600000000013097
I25
tp458
aF40.200000000000728
tp459
sg345
((lp460
F40.030000000000655
tp461
sg404
((lp462
(F2.8699999999989814
I28
tp463
aF40.359999999998763
tp464
ssba(imeasure_core
ProblemSetSolution
p465
(dp466
g3
(imeasure_core
RoomSet
p467
(dp468
g6
(dp469
(iproblems
RoomID
p470
(dp471
g10
I11
sg11
(I10
I1
tp472
sg13
I7
sg14
I12
sg15
I13
sg16
I2405875930906139466
sb(imulti_robot_problem
MultiRobotState
p473
(dp474
g19
g20
((lp475
(I7
I3
tp476
a(I9
I1
tp477
a(I7
I1
tp478
a(I5
I6
tp479
a(I8
I11
tp480
a(I8
I0
tp481
a(I1
I4
tp482
a(I6
I2
tp483
a(I0
I7
tp484
ag472
a(I10
I3
tp485
a(I7
I2
tp486
a(I10
I4
tp487
a(I11
I7
tp488
a(I9
I0
tp489
a(I11
I5
tp490
a(I7
I4
tp491
a(I1
I5
tp492
a(I10
I2
tp493
a(I11
I6
tp494
a(I8
I4
tp495
atp496
Rp497
sg15
I13
sg29
g20
((lp498
(I12
I5
tp499
a(I10
I11
tp500
a(I8
I1
tp501
a(I7
I8
tp502
a(I8
I6
tp503
a(I6
I3
tp504
a(I2
I0
tp505
a(I2
I3
tp506
a(I5
I1
tp507
a(I10
I0
tp508
a(I3
I4
tp509
atp510
Rp511
sg13
((I10
I8
tp512
(I9
I2
tp513
(I4
I5
tp514
(I11
I8
tp515
(I1
I2
tp516
(I3
I1
tp517
(I0
I10
tp518
tp519
sg14
I12
sbs(iproblems
RoomID
p520
(dp521
g10
I11
sg11
(I7
I9
tp522
sg13
I6
sg14
I13
sg15
I10
sg16
I8744744311366254845
sb(imulti_robot_problem
MultiRobotState
p523
(dp524
g19
g20
((lp525
(I6
I9
tp526
a(I1
I3
tp527
a(I4
I9
tp528
a(I5
I6
tp529
a(I9
I8
tp530
a(I1
I8
tp531
a(I1
I0
tp532
ag522
a(I3
I4
tp533
a(I5
I8
tp534
a(I9
I7
tp535
atp536
Rp537
sg15
I10
sg29
g20
((lp538
(I0
I1
tp539
a(I7
I3
tp540
a(I9
I0
tp541
a(I1
I12
tp542
a(I4
I10
tp543
a(I5
I11
tp544
a(I9
I10
tp545
a(I7
I11
tp546
a(I3
I7
tp547
a(I0
I8
tp548
a(I9
I6
tp549
atp550
Rp551
sg13
((I0
I10
tp552
(I6
I3
tp553
(I4
I0
tp554
(I1
I6
tp555
(I7
I5
tp556
(I9
I9
tp557
tp558
sg14
I13
sbs(iproblems
RoomID
p559
(dp560
g10
I15
sg11
(I5
I8
tp561
sg13
I7
sg14
I13
sg15
I11
sg16
I8655808914197340073
sb(imulti_robot_problem
MultiRobotState
p562
(dp563
g19
g20
((lp564
(I5
I9
tp565
a(I6
I7
tp566
a(I6
I11
tp567
a(I1
I4
tp568
a(I0
I12
tp569
a(I0
I11
tp570
a(I7
I5
tp571
a(I1
I6
tp572
a(I0
I4
tp573
a(I5
I10
tp574
a(I3
I9
tp575
a(I4
I9
tp576
a(I10
I3
tp577
ag561
atp578
Rp579
sg15
I11
sg29
g20
((lp580
(I2
I7
tp581
a(I7
I3
tp582
a(I4
I6
tp583
a(I1
I12
tp584
a(I5
I6
tp585
a(I8
I5
tp586
a(I7
I7
tp587
a(I7
I9
tp588
a(I2
I0
tp589
a(I9
I4
tp590
a(I7
I10
tp591
a(I0
I8
tp592
a(I9
I6
tp593
a(I6
I5
tp594
a(I9
I7
tp595
atp596
Rp597
sg13
((I9
I11
tp598
(I8
I1
tp599
(I3
I4
tp600
(I8
I7
tp601
(I9
I1
tp602
(I2
I10
tp603
(I2
I12
tp604
tp605
sg14
I13
sbs(iproblems
RoomID
p606
(dp607
g10
I15
sg11
(I3
I6
tp608
sg13
I7
sg14
I10
sg15
I13
sg16
I2796939073032698495
sb(imulti_robot_problem
MultiRobotState
p609
(dp610
g19
g20
((lp611
(I5
I9
tp612
a(I6
I9
tp613
a(I4
I6
tp614
a(I5
I0
tp615
a(I6
I6
tp616
a(I4
I5
tp617
a(I5
I4
tp618
a(I6
I7
tp619
a(I6
I2
tp620
a(I0
I5
tp621
a(I8
I7
tp622
a(I5
I1
tp623
a(I6
I4
tp624
a(I12
I9
tp625
a(I5
I8
tp626
a(I5
I3
tp627
a(I2
I7
tp628
a(I4
I9
tp629
a(I5
I5
tp630
a(I3
I1
tp631
a(I4
I8
tp632
a(I2
I0
tp633
a(I3
I9
tp634
a(I6
I5
tp635
ag608
a(I5
I7
tp636
a(I7
I8
tp637
atp638
Rp639
sg15
I13
sg29
g20
((lp640
(I1
I2
tp641
a(I8
I2
tp642
a(I2
I9
tp643
a(I12
I0
tp644
a(I4
I1
tp645
a(I12
I8
tp646
a(I6
I0
tp647
a(I9
I9
tp648
a(I2
I3
tp649
a(I9
I4
tp650
a(I1
I7
tp651
a(I0
I9
tp652
a(I7
I9
tp653
a(I3
I4
tp654
a(I3
I3
tp655
atp656
Rp657
sg13
((I10
I2
tp658
(I11
I8
tp659
(I12
I5
tp660
(I8
I9
tp661
(I10
I3
tp662
(I0
I3
tp663
(I11
I2
tp664
tp665
sg14
I10
sbs(iproblems
RoomID
p666
(dp667
g10
I15
sg11
(I4
I8
tp668
sg13
I6
sg14
I13
sg15
I12
sg16
I4278205817407065157
sb(imulti_robot_problem
MultiRobotState
p669
(dp670
g19
g20
((lp671
(I11
I7
tp672
a(I2
I9
tp673
ag668
a(I5
I6
tp674
a(I2
I8
tp675
a(I6
I10
tp676
a(I3
I8
tp677
a(I11
I8
tp678
a(I3
I9
tp679
a(I1
I10
tp680
a(I1
I11
tp681
a(I7
I8
tp682
a(I2
I4
tp683
atp684
Rp685
sg15
I12
sg29
g20
((lp686
(I1
I2
tp687
a(I0
I1
tp688
a(I5
I4
tp689
a(I5
I7
tp690
a(I10
I4
tp691
a(I7
I1
tp692
a(I3
I1
tp693
a(I10
I5
tp694
a(I4
I7
tp695
a(I9
I9
tp696
a(I0
I10
tp697
a(I4
I3
tp698
a(I8
I12
tp699
a(I4
I1
tp700
a(I0
I2
tp701
atp702
Rp703
sg13
((I7
I10
tp704
(I6
I12
tp705
(I2
I0
tp706
(I9
I1
tp707
(I10
I3
tp708
(I4
I0
tp709
tp710
sg14
I13
sbssg161
S'heavy_roomset'
p711
sbsg161
g163
sg164
(dp712
g470
((lp713
F42.409999999999854
tp714
sg520
((lp715
(F17.600000000000364
I13
tp716
aF40.110000000000582
tp717
sg559
((lp718
F42.680000000000291
tp719
sg606
((lp720
F40.079999999999927
tp721
sg666
((lp722
(F29.719999999999345
I15
tp723
aF40.289999999999054
tp724
ssba(imeasure_core
ProblemSetSolution
p725
(dp726
g3
g4
sg161
S"AnytimeBeam-w20-gf(4, 'lin')_with_PowerHeuristic2"
p727
sg164
(dp728
g8
((lp729
(F0.48000000000138243
I10
tp730
aF40.040000000000873
tp731
sg44
((lp732
(F1.0300000000006548
I14
tp733
aF40.110000000000582
tp734
sg71
((lp735
(F9.3099999999994907
I144
tp736
aF40.149999999999636
tp737
sg102
((lp738
(F3.3899999999994179
I9
tp739
aF40.119999999998981
tp740
sg136
((lp741
(F0.12000000000080036
I49
tp742
a(F0.32999999999992724
I47
tp743
a(F0.55000000000109139
I45
tp744
a(F0.81999999999970896
I43
tp745
a(F1.25
I41
tp746
a(F1.680000000000291
I40
tp747
a(F2.6900000000005093
I39
tp748
a(F3.5900000000001455
I38
tp749
a(F4.8500000000003638
I37
tp750
a(F6.0200000000004366
I35
tp751
a(F7.6599999999998545
I33
tp752
a(F9.9899999999997817
I31
tp753
a(F11.960000000000946
I29
tp754
a(F13.520000000000437
I27
tp755
a(F15.510000000000218
I25
tp756
a(F19.819999999999709
I24
tp757
a(F23.659999999999854
I22
tp758
a(F26.920000000000073
I20
tp759
aF40.0
tp760
ssba(imeasure_core
ProblemSetSolution
p761
(dp762
g3
g200
sg161
g727
sg164
(dp763
g203
((lp764
(F9.2200000000011642
I32
tp765
aF40.380000000001019
tp766
sg251
((lp767
(F23.109999999998763
I171
tp768
aF40.069999999999709
tp769
sg301
((lp770
(F3.3699999999989814
I25
tp771
aF40.0
tp772
sg345
((lp773
F40.030000000000655
tp774
sg404
((lp775
(F3.0899999999983265
I28
tp776
aF40.019999999998618
tp777
ssba(imeasure_core
ProblemSetSolution
p778
(dp779
g3
g467
sg161
g727
sg164
(dp780
g470
((lp781
F43.229999999999563
tp782
sg520
((lp783
(F19.390000000001237
I13
tp784
aF41.81000000000131
tp785
sg559
((lp786
F42.829999999999927
tp787
sg606
((lp788
F40.279999999998836
tp789
sg666
((lp790
(F32.540000000000873
I15
tp791
aF41.070000000001528
tp792
ssba(imeasure_core
ProblemSetSolution
p793
(dp794
g3
g4
sg161
S"AnytimeBeam-w20-gf(8, 'lin')_with_PowerHeuristic2"
p795
sg164
(dp796
g8
((lp797
(F0.46000000000094587
I10
tp798
aF40.050000000001091
tp799
sg44
((lp800
(F1.2600000000002183
I14
tp801
aF40.079999999999927
tp802
sg71
((lp803
(F10.299999999999272
I144
tp804
aF40.020000000000437
tp805
sg102
((lp806
(F4.0100000000002183
I9
tp807
aF40.069999999999709
tp808
sg136
((lp809
(F0.11999999999898137
I49
tp810
a(F0.31999999999970896
I47
tp811
a(F0.53999999999905413
I45
tp812
a(F0.7999999999992724
I43
tp813
a(F1.2299999999995634
I41
tp814
a(F1.6599999999998545
I40
tp815
a(F2.6599999999998545
I39
tp816
a(F3.5499999999992724
I38
tp817
a(F4.7999999999992724
I37
tp818
a(F5.9499999999989086
I35
tp819
a(F7.5900000000001455
I33
tp820
a(F9.8999999999996362
I31
tp821
a(F11.850000000000364
I29
tp822
a(F13.389999999999418
I27
tp823
a(F15.359999999998763
I25
tp824
a(F19.670000000000073
I24
tp825
a(F23.549999999999272
I22
tp826
a(F26.840000000000146
I20
tp827
aF40.0
tp828
ssba(imeasure_core
ProblemSetSolution
p829
(dp830
g3
g200
sg161
g795
sg164
(dp831
g203
((lp832
(F10.109999999998763
I24
tp833
aF40.0
tp834
sg251
((lp835
(F26.590000000000146
I171
tp836
aF40.1299999999992
tp837
sg301
((lp838
(F3.4600000000009459
I25
tp839
aF40.069999999999709
tp840
sg345
((lp841
F40.0
tp842
sg404
((lp843
(F3.4700000000011642
I28
tp844
aF40.030000000000655
tp845
ssba(imeasure_core
ProblemSetSolution
p846
(dp847
g3
g467
sg161
g795
sg164
(dp848
g470
((lp849
F44.299999999999272
tp850
sg520
((lp851
(F22.260000000000218
I13
tp852
aF41.579999999999927
tp853
sg559
((lp854
F43.000000000001819
tp855
sg606
((lp856
F40.520000000000437
tp857
sg666
((lp858
(F37.879999999997381
I15
tp859
aF40.94999999999709
tp860
ssba(imeasure_core
ProblemSetSolution
p861
(dp862
g3
g4
sg161
S"AnytimeBeam-w20-gf(16, 'lin')_with_PowerHeuristic2"
p863
sg164
(dp864
g8
((lp865
(F0.46999999999752617
I10
tp866
aF40.139999999999418
tp867
sg44
((lp868
(F1.3400000000001455
I14
tp869
aF40.419999999998254
tp870
sg71
((lp871
(F11.090000000000146
I144
tp872
aF40.020000000000437
tp873
sg102
((lp874
(F4.6300000000010186
I9
tp875
aF40.229999999999563
tp876
sg136
((lp877
(F0.12000000000261934
I49
tp878
a(F0.33000000000174623
I47
tp879
a(F0.54000000000087311
I45
tp880
a(F0.81000000000130967
I43
tp881
a(F1.2400000000016007
I41
tp882
a(F1.6700000000018917
I40
tp883
a(F2.6700000000018917
I39
tp884
a(F3.5500000000029104
I38
tp885
a(F4.8100000000013097
I37
tp886
a(F5.9800000000032014
I35
tp887
a(F7.6200000000026193
I33
tp888
a(F9.9500000000007276
I31
tp889
a(F11.909999999999854
I29
tp890
a(F13.480000000003201
I27
tp891
a(F15.460000000002765
I25
tp892
a(F19.81000000000131
I24
tp893
a(F23.690000000002328
I22
tp894
a(F26.980000000003201
I20
tp895
aF40.0
tp896
ssba(imeasure_core
ProblemSetSolution
p897
(dp898
g3
g200
sg161
g863
sg164
(dp899
g203
((lp900
(F11.600000000002183
I24
tp901
aF40.030000000002474
tp902
sg251
((lp903
(F29.459999999999127
I171
tp904
aF40.149999999997817
tp905
sg301
((lp906
(F3.4099999999998545
I25
tp907
aF40.040000000000873
tp908
sg345
((lp909
F40.010000000002037
tp910
sg404
((lp911
(F3.9299999999966531
I28
tp912
aF40.429999999996653
tp913
ssba(imeasure_core
ProblemSetSolution
p914
(dp915
g3
g467
sg161
g863
sg164
(dp916
g470
((lp917
F45.68999999999869
tp918
sg520
((lp919
(F26.200000000000728
I13
tp920
aF40.280000000002474
tp921
sg559
((lp922
F43.369999999998981
tp923
sg606
((lp924
F40.489999999997963
tp925
sg666
((lp926
F42.170000000001892
tp927
ssba(imeasure_core
ProblemSetSolution
p928
(dp929
g3
g4
sg161
S"AnytimeBeam-w20-gf(2, 'lin')_with_LinearHeuristic"
p930
sg164
(dp931
g8
((lp932
F40.259999999998399
tp933
sg44
((lp934
F40.110000000000582
tp935
sg71
((lp936
(F1.25
I58
tp937
aF40.020000000000437
tp938
sg102
((lp939
(F2.7799999999988358
I6
tp940
aF40.279999999998836
tp941
sg136
((lp942
(F0.020000000000436557
I22
tp943
a(F0.15000000000145519
I20
tp944
aF40.0
tp945
ssba(imeasure_core
ProblemSetSolution
p946
(dp947
g3
g200
sg161
g930
sg164
(dp948
g203
((lp949
F40.05000000000291
tp950
sg251
((lp951
F40.369999999998981
tp952
sg301
((lp953
F40.009999999998399
tp954
sg345
((lp955
F40.06000000000131
tp956
sg404
((lp957
(F23.200000000000728
I146
tp958
aF40.020000000000437
tp959
ssba(imeasure_core
ProblemSetSolution
p960
(dp961
g3
g467
sg161
g930
sg164
(dp962
g470
((lp963
F41.840000000000146
tp964
sg520
((lp965
(F18.049999999999272
I8
tp966
aF40.770000000000437
tp967
sg559
((lp968
F40.419999999998254
tp969
sg606
((lp970
F43.369999999998981
tp971
sg666
((lp972
F40.860000000000582
tp973
ssba(imeasure_core
ProblemSetSolution
p974
(dp975
g3
g4
sg161
S"AnytimeBeam-w20-gf(4, 'lin')_with_LinearHeuristic"
p976
sg164
(dp977
g8
((lp978
F40.209999999999127
tp979
sg44
((lp980
F40.209999999999127
tp981
sg71
((lp982
(F1.2600000000020373
I58
tp983
aF40.010000000002037
tp984
sg102
((lp985
(F2.8999999999978172
I6
tp986
aF40.119999999998981
tp987
sg136
((lp988
(F0.020000000000436557
I22
tp989
a(F0.13999999999941792
I20
tp990
aF40.0
tp991
ssba(imeasure_core
ProblemSetSolution
p992
(dp993
g3
g200
sg161
g976
sg164
(dp994
g203
((lp995
F40.400000000001455
tp996
sg251
((lp997
F40.669999999998254
tp998
sg301
((lp999
F40.220000000001164
tp1000
sg345
((lp1001
F40.0
tp1002
sg404
((lp1003
(F25.459999999999127
I146
tp1004
aF40.009999999998399
tp1005
ssba(imeasure_core
ProblemSetSolution
p1006
(dp1007
g3
g467
sg161
g976
sg164
(dp1008
g470
((lp1009
F43.619999999998981
tp1010
sg520
((lp1011
(F20.059999999997672
I8
tp1012
aF40.200000000000728
tp1013
sg559
((lp1014
F41.069999999999709
tp1015
sg606
((lp1016
F46.469999999997526
tp1017
sg666
((lp1018
F41.760000000002037
tp1019
ssba(imeasure_core
ProblemSetSolution
p1020
(dp1021
g3
g4
sg161
S"AnytimeBeam-w20-gf(8, 'lin')_with_LinearHeuristic"
p1022
sg164
(dp1023
g8
((lp1024
F40.279999999998836
tp1025
sg44
((lp1026
F40.110000000000582
tp1027
sg71
((lp1028
(F1.2799999999988358
I58
tp1029
aF40.049999999999272
tp1030
sg102
((lp1031
(F3.069999999999709
I6
tp1032
aF40.31000000000131
tp1033
sg136
((lp1034
(F0.020000000000436557
I22
tp1035
a(F0.13999999999941792
I20
tp1036
aF40.0
tp1037
ssba(imeasure_core
ProblemSetSolution
p1038
(dp1039
g3
g200
sg161
g1022
sg164
(dp1040
g203
((lp1041
F40.110000000000582
tp1042
sg251
((lp1043
F40.129999999997381
tp1044
sg301
((lp1045
F40.069999999999709
tp1046
sg345
((lp1047
F40.040000000000873
tp1048
sg404
((lp1049
(F28.370000000002619
I146
tp1050
aF40.31000000000131
tp1051
ssba(imeasure_core
ProblemSetSolution
p1052
(dp1053
g3
g467
sg161
g1022
sg164
(dp1054
g470
((lp1055
F47.569999999999709
tp1056
sg520
((lp1057
(F24.140000000003056
I8
tp1058
aF40.5
tp1059
sg559
((lp1060
F42.540000000000873
tp1061
sg606
((lp1062
F53.709999999999127
tp1063
sg666
((lp1064
F40.490000000001601
tp1065
ssba(imeasure_core
ProblemSetSolution
p1066
(dp1067
g3
g4
sg161
S"AnytimeBeam-w20-gf(16, 'lin')_with_LinearHeuristic"
p1068
sg164
(dp1069
g8
((lp1070
F40.040000000000873
tp1071
sg44
((lp1072
F40.110000000000582
tp1073
sg71
((lp1074
(F1.4700000000011642
I58
tp1075
aF40.110000000000582
tp1076
sg102
((lp1077
(F3.3999999999978172
I6
tp1078
aF40.180000000000291
tp1079
sg136
((lp1080
(F0.020000000000436557
I22
tp1081
a(F0.14999999999781721
I20
tp1082
aF40.0
tp1083
ssba(imeasure_core
ProblemSetSolution
p1084
(dp1085
g3
g200
sg161
g1068
sg164
(dp1086
g203
((lp1087
F40.220000000001164
tp1088
sg251
((lp1089
F40.470000000001164
tp1090
sg301
((lp1091
F40.269999999996799
tp1092
sg345
((lp1093
F40.010000000002037
tp1094
sg404
((lp1095
(F32.759999999998399
I146
tp1096
aF40.06000000000131
tp1097
ssba(imeasure_core
ProblemSetSolution
p1098
(dp1099
g3
g467
sg161
g1068
sg164
(dp1100
g470
((lp1101
F44.44999999999709
tp1102
sg520
((lp1103
(F28.25
I8
tp1104
aF40.940000000002328
tp1105
sg559
((lp1106
F45.19999999999709
tp1107
sg606
((lp1108
F58.530000000002474
tp1109
sg666
((lp1110
F40.540000000000873
tp1111
ssba.