(lp0
(imeasure_core
ProblemSetSolution
p1
(dp2
S'roomset'
p3
(imeasure_core
RoomSet
p4
(dp5
S'rooms'
p6
(dp7
(iproblems
RoomID
p8
(dp9
S'dusts'
p10
I8
sS'obstacles'
p11
(I5
I7
tp12
sS'robots'
p13
I5
sS'height'
p14
I9
sS'width'
p15
I10
sS'seed'
p16
I5594871498841892311
sb(imulti_robot_problem
MultiRobotState
p17
(dp18
S'obstacle_locations'
p19
c__builtin__
frozenset
p20
((lp21
(I4
I7
tp22
a(I3
I6
tp23
a(I5
I1
tp24
a(I1
I0
tp25
ag12
a(I8
I3
tp26
a(I5
I8
tp27
atp28
Rp29
sg15
I10
sS'dirt_locations'
p30
g20
((lp31
(I0
I1
tp32
a(I9
I0
tp33
a(I8
I2
tp34
a(I6
I0
tp35
a(I1
I1
tp36
a(I1
I5
tp37
a(I9
I4
tp38
a(I2
I4
tp39
atp40
Rp41
sg13
((I7
I6
tp42
(I8
I4
tp43
(I5
I4
tp44
(I7
I2
tp45
(I7
I8
tp46
tp47
sg14
I9
sbs(iproblems
RoomID
p48
(dp49
g10
I6
sg11
(I4
I4
tp50
sg13
I5
sg14
I7
sg15
I8
sg16
I8833747186876682921
sb(imulti_robot_problem
MultiRobotState
p51
(dp52
g19
g20
((lp53
(I2
I2
tp54
ag50
a(I3
I4
tp55
a(I3
I3
tp56
a(I3
I5
tp57
atp58
Rp59
sg15
I8
sg30
g20
((lp60
(I6
I4
tp61
a(I5
I4
tp62
a(I1
I3
tp63
a(I5
I1
tp64
a(I0
I3
tp65
a(I5
I3
tp66
atp67
Rp68
sg13
((I2
I1
tp69
(I6
I1
tp70
(I3
I1
tp71
(I5
I0
tp72
(I7
I3
tp73
tp74
sg14
I7
sbs(iproblems
RoomID
p75
(dp76
g10
I5
sg11
(I6
I4
tp77
sg13
I2
sg14
I8
sg15
I10
sg16
I1662056218554549082
sb(imulti_robot_problem
MultiRobotState
p78
(dp79
g19
g20
((lp80
g77
a(I4
I6
tp81
a(I3
I6
tp82
a(I4
I4
tp83
a(I9
I6
tp84
a(I5
I5
tp85
atp86
Rp87
sg15
I10
sg30
g20
((lp88
(I4
I5
tp89
a(I8
I3
tp90
a(I8
I4
tp91
a(I7
I7
tp92
a(I3
I3
tp93
atp94
Rp95
sg13
((I9
I3
tp96
(I2
I0
tp97
tp98
sg14
I8
sbs(iproblems
RoomID
p99
(dp100
g10
I6
sg11
(I2
I3
tp101
sg13
I1
sg14
I8
sg15
I8
sg16
I1085536589165212248
sb(imulti_robot_problem
MultiRobotState
p102
(dp103
g19
g20
((lp104
(I1
I5
tp105
ag101
a(I1
I4
tp106
a(I1
I6
tp107
a(I0
I7
tp108
a(I4
I0
tp109
atp110
Rp111
sg15
I8
sg30
g20
((lp112
(I0
I1
tp113
a(I1
I2
tp114
a(I7
I3
tp115
a(I5
I1
tp116
a(I6
I0
tp117
a(I2
I1
tp118
atp119
Rp120
sg13
((I3
I2
tp121
tp122
sg14
I8
sbs(iproblems
RoomID
p123
(dp124
g10
I7
sg11
(I5
I2
tp125
sg13
I5
sg14
I8
sg15
I9
sg16
I365562409358139953
sb(imulti_robot_problem
MultiRobotState
p126
(dp127
g19
g20
((lp128
(I6
I4
tp129
a(I5
I5
tp130
a(I2
I1
tp131
a(I3
I7
tp132
a(I2
I5
tp133
ag125
a(I0
I2
tp134
a(I5
I3
tp135
atp136
Rp137
sg15
I9
sg30
g20
((lp138
(I2
I0
tp139
a(I1
I6
tp140
a(I8
I2
tp141
a(I4
I5
tp142
a(I8
I6
tp143
a(I5
I7
tp144
a(I3
I4
tp145
atp146
Rp147
sg13
((I4
I2
tp148
(I8
I3
tp149
(I6
I3
tp150
(I2
I4
tp151
(I6
I7
tp152
tp153
sg14
I8
sbssS'name'
p154
S'easy_roomset'
p155
sbsg154
S'LimitedTimeAStar_with_PowerHeuristic2'
p156
sS'solutions'
p157
(dp158
g8
((lp159
F13.839999999999236
tp160
sg48
((lp161
F0.62000000000080036
tp162
sg75
((lp163
F0.019999999999527063
tp164
sg99
((lp165
F0.03999999999996362
tp166
sg123
((lp167
F300.72000000000025
tp168
ssba(imeasure_core
ProblemSetSolution
p169
(dp170
g3
(imeasure_core
RoomSet
p171
(dp172
g6
(dp173
(iproblems
RoomID
p174
(dp175
g10
I8
sg11
(I9
I3
tp176
sg13
I4
sg14
I11
sg15
I12
sg16
I5594871498841892311
sb(imulti_robot_problem
MultiRobotState
p177
(dp178
g19
g20
((lp179
(I5
I9
tp180
a(I6
I9
tp181
a(I11
I9
tp182
a(I9
I1
tp183
a(I4
I8
tp184
a(I8
I0
tp185
a(I6
I0
tp186
a(I9
I9
tp187
ag176
a(I9
I4
tp188
a(I4
I2
tp189
a(I3
I7
tp190
a(I5
I8
tp191
a(I7
I9
tp192
a(I10
I8
tp193
a(I9
I0
tp194
a(I7
I0
tp195
a(I6
I8
tp196
a(I9
I2
tp197
a(I5
I7
tp198
a(I8
I10
tp199
a(I2
I0
tp200
a(I5
I0
tp201
a(I0
I9
tp202
a(I10
I0
tp203
a(I10
I2
tp204
atp205
Rp206
sg15
I12
sg30
g20
((lp207
(I2
I6
tp208
a(I11
I5
tp209
a(I6
I1
tp210
a(I11
I1
tp211
a(I2
I1
tp212
a(I8
I8
tp213
a(I0
I2
tp214
a(I3
I5
tp215
atp216
Rp217
sg13
((I9
I7
tp218
(I10
I5
tp219
(I6
I5
tp220
(I8
I3
tp221
tp222
sg14
I11
sbs(iproblems
RoomID
p223
(dp224
g10
I6
sg11
(I9
I4
tp225
sg13
I4
sg14
I9
sg15
I10
sg16
I8833747186876682921
sb(imulti_robot_problem
MultiRobotState
p226
(dp227
g19
g20
((lp228
(I4
I7
tp229
a(I4
I8
tp230
a(I4
I5
tp231
a(I2
I1
tp232
a(I7
I5
tp233
a(I2
I3
tp234
ag225
a(I2
I5
tp235
a(I6
I5
tp236
a(I3
I5
tp237
a(I2
I7
tp238
a(I8
I3
tp239
a(I5
I5
tp240
a(I3
I4
tp241
a(I7
I4
tp242
a(I5
I6
tp243
a(I8
I8
tp244
a(I3
I6
tp245
a(I4
I1
tp246
a(I1
I1
tp247
atp248
Rp249
sg15
I10
sg30
g20
((lp250
(I3
I2
tp251
a(I6
I2
tp252
a(I7
I0
tp253
a(I1
I4
tp254
a(I0
I4
tp255
a(I0
I7
tp256
atp257
Rp258
sg13
((I3
I1
tp259
(I8
I1
tp260
(I3
I3
tp261
(I4
I2
tp262
tp263
sg14
I9
sbs(iproblems
RoomID
p264
(dp265
g10
I7
sg11
(I8
I4
tp266
sg13
I4
sg14
I10
sg15
I11
sg16
I365562409358139953
sb(imulti_robot_problem
MultiRobotState
p267
(dp268
g19
g20
((lp269
(I7
I3
tp270
a(I8
I7
tp271
a(I4
I8
tp272
a(I2
I8
tp273
a(I5
I9
tp274
a(I6
I2
tp275
a(I1
I6
tp276
a(I9
I4
tp277
a(I6
I4
tp278
a(I9
I6
tp279
a(I6
I5
tp280
a(I10
I8
tp281
a(I10
I5
tp282
a(I6
I7
tp283
a(I10
I7
tp284
a(I7
I6
tp285
a(I3
I1
tp286
a(I0
I5
tp287
a(I3
I8
tp288
a(I7
I5
tp289
a(I8
I6
tp290
ag266
a(I5
I2
tp291
a(I6
I1
tp292
a(I9
I7
tp293
atp294
Rp295
sg15
I11
sg30
g20
((lp296
(I5
I6
tp297
a(I6
I9
tp298
a(I1
I7
tp299
a(I4
I5
tp300
a(I10
I3
tp301
a(I0
I2
tp302
a(I2
I1
tp303
atp304
Rp305
sg13
((I10
I4
tp306
(I7
I4
tp307
(I3
I6
tp308
(I8
I9
tp309
tp310
sg14
I10
sbs(iproblems
RoomID
p311
(dp312
g10
I10
sg11
(I4
I8
tp313
sg13
I3
sg14
I11
sg15
I9
sg16
I6645345695289302126
sb(imulti_robot_problem
MultiRobotState
p314
(dp315
g19
g20
((lp316
(I5
I9
tp317
a(I3
I2
tp318
a(I3
I1
tp319
ag313
a(I4
I5
tp320
a(I1
I4
tp321
a(I4
I2
tp322
a(I3
I7
tp323
a(I4
I6
tp324
a(I3
I3
tp325
a(I4
I1
tp326
a(I6
I1
tp327
a(I4
I4
tp328
a(I2
I4
tp329
a(I3
I8
tp330
a(I1
I5
tp331
a(I4
I3
tp332
a(I3
I5
tp333
a(I3
I4
tp334
a(I1
I1
tp335
a(I8
I4
tp336
atp337
Rp338
sg15
I9
sg30
g20
((lp339
(I0
I1
tp340
a(I5
I4
tp341
a(I6
I7
tp342
a(I8
I2
tp343
a(I8
I7
tp344
a(I8
I8
tp345
a(I2
I3
tp346
a(I3
I6
tp347
a(I1
I0
tp348
a(I5
I5
tp349
atp350
Rp351
sg13
((I1
I6
tp352
(I0
I9
tp353
(I0
I5
tp354
tp355
sg14
I11
sbs(iproblems
RoomID
p356
(dp357
g10
I8
sg11
(I4
I6
tp358
sg13
I3
sg14
I9
sg15
I12
sg16
I4800841617172907184
sb(imulti_robot_problem
MultiRobotState
p359
(dp360
g19
g20
((lp361
(I5
I4
tp362
ag358
a(I8
I7
tp363
a(I6
I6
tp364
a(I4
I5
tp365
a(I9
I8
tp366
a(I9
I3
tp367
a(I6
I0
tp368
a(I2
I1
tp369
a(I10
I1
tp370
a(I4
I2
tp371
a(I8
I5
tp372
a(I7
I2
tp373
a(I5
I3
tp374
a(I8
I3
tp375
a(I3
I1
tp376
a(I3
I3
tp377
a(I11
I8
tp378
a(I7
I1
tp379
a(I11
I3
tp380
a(I6
I3
tp381
a(I0
I6
tp382
a(I4
I3
tp383
a(I8
I6
tp384
a(I8
I4
tp385
a(I9
I7
tp386
atp387
Rp388
sg15
I12
sg30
g20
((lp389
(I11
I4
tp390
a(I8
I2
tp391
a(I10
I7
tp392
a(I7
I6
tp393
a(I1
I4
tp394
a(I11
I0
tp395
a(I9
I2
tp396
a(I0
I2
tp397
atp398
Rp399
sg13
((I9
I1
tp400
(I0
I4
tp401
(I7
I4
tp402
tp403
sg14
I9
sbssg154
S'mild_roomset'
p404
sbsg154
g156
sg157
(dp405
g174
((lp406
F0.63999999999941792
tp407
sg223
((lp408
F280.57000000000062
tp409
sg264
((lp410
F0.18999999999959982
tp411
sg311
((lp412
F13.320000000000618
tp413
sg356
((lp414
F0.099999999999454303
tp415
ssba(imeasure_core
ProblemSetSolution
p416
(dp417
g3
(imeasure_core
RoomSet
p418
(dp419
g6
(dp420
(iproblems
RoomID
p421
(dp422
g10
I13
sg11
(I9
I8
tp423
sg13
I7
sg14
I12
sg15
I13
sg16
I5594871498841892311
sb(imulti_robot_problem
MultiRobotState
p424
(dp425
g19
g20
((lp426
(I5
I9
tp427
a(I6
I9
tp428
a(I1
I3
tp429
a(I10
I4
tp430
a(I4
I8
tp431
ag423
a(I1
I4
tp432
a(I11
I3
tp433
a(I8
I6
tp434
a(I9
I6
tp435
a(I5
I5
tp436
a(I9
I5
tp437
a(I6
I7
tp438
a(I6
I8
tp439
a(I6
I10
tp440
a(I8
I10
tp441
a(I5
I0
tp442
a(I10
I0
tp443
a(I7
I9
tp444
a(I9
I7
tp445
atp446
Rp447
sg15
I13
sg30
g20
((lp448
(I2
I7
tp449
a(I10
I5
tp450
a(I11
I5
tp451
a(I6
I1
tp452
a(I8
I0
tp453
a(I2
I1
tp454
a(I2
I0
tp455
a(I0
I10
tp456
a(I7
I10
tp457
a(I12
I10
tp458
a(I5
I2
tp459
a(I0
I2
tp460
a(I3
I5
tp461
atp462
Rp463
sg13
((I10
I8
tp464
(I11
I6
tp465
(I7
I5
tp466
(I9
I3
tp467
(I9
I11
tp468
(I12
I1
tp469
(I9
I9
tp470
tp471
sg14
I12
sbs(iproblems
RoomID
p472
(dp473
g10
I11
sg11
(I8
I7
tp474
sg13
I7
sg14
I10
sg15
I11
sg16
I8833747186876682921
sb(imulti_robot_problem
MultiRobotState
p475
(dp476
g19
g20
((lp477
(I5
I7
tp478
a(I4
I8
tp479
a(I4
I5
tp480
a(I2
I1
tp481
ag474
a(I5
I1
tp482
a(I5
I5
tp483
a(I6
I7
tp484
a(I4
I6
tp485
a(I8
I1
tp486
a(I4
I4
tp487
a(I6
I3
tp488
a(I8
I8
tp489
a(I3
I3
tp490
a(I7
I8
tp491
a(I10
I2
tp492
atp493
Rp494
sg15
I11
sg30
g20
((lp495
(I10
I5
tp496
a(I7
I6
tp497
a(I4
I7
tp498
a(I1
I4
tp499
a(I9
I9
tp500
a(I3
I8
tp501
a(I0
I5
tp502
a(I8
I6
tp503
a(I2
I5
tp504
a(I0
I8
tp505
a(I7
I2
tp506
atp507
Rp508
sg13
((I3
I1
tp509
(I9
I1
tp510
(I5
I2
tp511
(I4
I3
tp512
(I8
I0
tp513
(I10
I4
tp514
(I8
I5
tp515
tp516
sg14
I10
sbs(iproblems
RoomID
p517
(dp518
g10
I11
sg11
(I4
I6
tp519
sg13
I5
sg14
I11
sg15
I11
sg16
I1085536589165212248
sb(imulti_robot_problem
MultiRobotState
p520
(dp521
g19
g20
((lp522
(I10
I5
tp523
a(I2
I6
tp524
ag519
a(I9
I3
tp525
a(I3
I2
tp526
a(I9
I9
tp527
a(I1
I8
tp528
a(I1
I9
tp529
a(I1
I7
tp530
a(I3
I7
tp531
a(I6
I9
tp532
a(I5
I8
tp533
a(I3
I3
tp534
atp535
Rp536
sg15
I11
sg30
g20
((lp537
(I0
I1
tp538
a(I4
I9
tp539
a(I10
I4
tp540
a(I10
I7
tp541
a(I6
I0
tp542
a(I0
I7
tp543
a(I2
I3
tp544
a(I1
I4
tp545
a(I2
I2
tp546
a(I10
I0
tp547
a(I0
I10
tp548
atp549
Rp550
sg13
((I5
I3
tp551
(I0
I2
tp552
(I3
I1
tp553
(I7
I1
tp554
(I9
I0
tp555
tp556
sg14
I11
sbs(iproblems
RoomID
p557
(dp558
g10
I12
sg11
(I0
I5
tp559
sg13
I7
sg14
I11
sg15
I12
sg16
I365562409358139953
sb(imulti_robot_problem
MultiRobotState
p560
(dp561
g19
g20
((lp562
(I1
I3
tp563
a(I6
I6
tp564
a(I0
I4
tp565
a(I7
I5
tp566
ag559
a(I8
I7
tp567
a(I4
I2
tp568
a(I2
I9
tp569
a(I10
I7
tp570
a(I7
I8
tp571
a(I7
I6
tp572
a(I3
I1
tp573
a(I4
I8
tp574
a(I3
I9
tp575
a(I2
I2
tp576
a(I8
I6
tp577
a(I5
I2
tp578
a(I11
I6
tp579
a(I8
I4
tp580
atp581
Rp582
sg15
I12
sg30
g20
((lp583
(I3
I2
tp584
a(I11
I9
tp585
a(I4
I9
tp586
a(I10
I4
tp587
a(I5
I7
tp588
a(I2
I1
tp589
a(I0
I6
tp590
a(I1
I6
tp591
a(I7
I10
tp592
a(I3
I7
tp593
a(I5
I10
tp594
a(I0
I2
tp595
atp596
Rp597
sg13
((I6
I3
tp598
(I10
I5
tp599
(I3
I6
tp600
(I8
I10
tp601
(I4
I6
tp602
(I11
I3
tp603
(I1
I8
tp604
tp605
sg14
I11
sbs(iproblems
RoomID
p606
(dp607
g10
I13
sg11
(I3
I8
tp608
sg13
I5
sg14
I10
sg15
I10
sg16
I5338040351619750409
sb(imulti_robot_problem
MultiRobotState
p609
(dp610
g19
g20
((lp611
(I4
I7
tp612
a(I2
I6
tp613
a(I9
I1
tp614
a(I2
I8
tp615
a(I6
I1
tp616
a(I1
I4
tp617
ag608
a(I1
I6
tp618
a(I4
I3
tp619
a(I1
I7
tp620
a(I2
I5
tp621
a(I9
I7
tp622
a(I2
I4
tp623
a(I6
I8
tp624
atp625
Rp626
sg15
I10
sg30
g20
((lp627
(I6
I9
tp628
a(I1
I3
tp629
a(I4
I9
tp630
a(I4
I6
tp631
a(I6
I6
tp632
a(I8
I3
tp633
a(I2
I1
tp634
a(I8
I9
tp635
a(I1
I8
tp636
a(I7
I5
tp637
a(I3
I6
tp638
a(I9
I6
tp639
a(I4
I0
tp640
atp641
Rp642
sg13
((I2
I0
tp643
(I3
I5
tp644
(I5
I0
tp645
(I5
I2
tp646
(I4
I5
tp647
tp648
sg14
I10
sbssg154
S'heavy_roomset'
p649
sbsg154
g156
sg157
(dp650
g421
((lp651
F275.06999999999971
tp652
sg472
((lp653
F25.449999999999818
tp654
sg517
((lp655
F2.5
tp656
sg557
((lp657
F292.68000000000029
tp658
sg606
((lp659
F297.19000000000051
tp660
ssba.