(lp0
(imeasure_core
ProblemSetSolution
p1
(dp2
S'roomset'
p3
(imeasure_core
RoomSet
p4
(dp5
S'rooms'
p6
(dp7
(iproblems
RoomID
p8
(dp9
S'dusts'
p10
I8
sS'obstacles'
p11
(I2
I4
tp12
sS'robots'
p13
I4
sS'height'
p14
I9
sS'width'
p15
I7
sS'seed'
p16
I7283207964119141687
sb(imulti_robot_problem
MultiRobotState
p17
(dp18
S'obstacle_locations'
p19
c__builtin__
frozenset
p20
((lp21
(I4
I6
tp22
a(I4
I3
tp23
a(I3
I0
tp24
a(I4
I2
tp25
a(I3
I4
tp26
ag12
a(I3
I3
tp27
atp28
Rp29
sg15
I7
sS'dirt_locations'
p30
g20
((lp31
(I4
I5
tp32
a(I5
I7
tp33
a(I0
I6
tp34
a(I1
I6
tp35
a(I5
I0
tp36
a(I5
I1
tp37
a(I5
I2
tp38
a(I1
I1
tp39
atp40
Rp41
sg13
((I1
I5
tp42
(I5
I5
tp43
(I3
I1
tp44
(I3
I5
tp45
tp46
sg14
I9
sbs(iproblems
RoomID
p47
(dp48
g10
I8
sg11
(I4
I6
tp49
sg13
I2
sg14
I10
sg15
I8
sg16
I890727360438182992
sb(imulti_robot_problem
MultiRobotState
p50
(dp51
g19
g20
((lp52
(I0
I0
tp53
ag49
a(I6
I6
tp54
a(I5
I6
tp55
a(I7
I6
tp56
a(I7
I4
tp57
a(I4
I2
tp58
a(I2
I4
tp59
atp60
Rp61
sg15
I8
sg30
g20
((lp62
(I7
I0
tp63
a(I7
I1
tp64
a(I6
I3
tp65
a(I1
I8
tp66
a(I0
I5
tp67
a(I5
I1
tp68
a(I1
I0
tp69
a(I0
I3
tp70
atp71
Rp72
sg13
((I2
I8
tp73
(I2
I5
tp74
tp75
sg14
I10
sbs(iproblems
RoomID
p76
(dp77
g10
I7
sg11
(I4
I1
tp78
sg13
I3
sg14
I10
sg15
I10
sg16
I1585446675937841368
sb(imulti_robot_problem
MultiRobotState
p79
(dp80
g19
g20
((lp81
(I3
I2
tp82
a(I2
I6
tp83
a(I6
I7
tp84
a(I6
I1
tp85
a(I7
I2
tp86
a(I5
I0
tp87
ag78
a(I2
I4
tp88
a(I5
I8
tp89
atp90
Rp91
sg15
I10
sg30
g20
((lp92
(I7
I3
tp93
a(I9
I4
tp94
a(I2
I9
tp95
a(I1
I7
tp96
a(I2
I2
tp97
a(I5
I2
tp98
a(I9
I7
tp99
atp100
Rp101
sg13
((I8
I9
tp102
(I4
I4
tp103
(I9
I8
tp104
tp105
sg14
I10
sbs(iproblems
RoomID
p106
(dp107
g10
I5
sg11
(I7
I3
tp108
sg13
I1
sg14
I7
sg15
I8
sg16
I1736392818365009963
sb(imulti_robot_problem
MultiRobotState
p109
(dp110
g19
g20
((lp111
g108
a(I2
I6
tp112
a(I7
I0
tp113
a(I7
I1
tp114
a(I2
I1
tp115
a(I6
I3
tp116
a(I0
I4
tp117
a(I7
I2
tp118
atp119
Rp120
sg15
I8
sg30
g20
((lp121
(I0
I1
tp122
a(I6
I2
tp123
a(I1
I6
tp124
a(I4
I4
tp125
a(I0
I0
tp126
atp127
Rp128
sg13
((I3
I1
tp129
tp130
sg14
I7
sbs(iproblems
RoomID
p131
(dp132
g10
I10
sg11
(I6
I5
tp133
sg13
I5
sg14
I8
sg15
I9
sg16
I3960482443532127989
sb(imulti_robot_problem
MultiRobotState
p134
(dp135
g19
g20
((lp136
(I4
I5
tp137
a(I5
I5
tp138
ag133
a(I6
I6
tp139
atp140
Rp141
sg15
I9
sg30
g20
((lp142
(I2
I7
tp143
a(I2
I6
tp144
a(I5
I0
tp145
a(I5
I7
tp146
a(I1
I4
tp147
a(I1
I5
tp148
a(I3
I6
tp149
a(I8
I0
tp150
a(I8
I5
tp151
a(I5
I3
tp152
atp153
Rp154
sg13
((I4
I3
tp155
(I8
I7
tp156
(I1
I6
tp157
(I7
I3
tp158
(I6
I4
tp159
tp160
sg14
I8
sbssS'name'
p161
S'easy_roomset'
p162
sbsg161
S'AnytimeBest-d10_with_PowerHeuristic2'
p163
sS'solutions'
p164
(dp165
g8
((lp166
F40.020000000004075
tp167
sg47
((lp168
F40.0
tp169
sg76
((lp170
F40.029999999998836
tp171
sg106
((lp172
F0.1599999999962165
tp173
sg131
((lp174
(F2.0400000000008731
I10
tp175
aF40.060000000004948
tp176
ssba(imeasure_core
ProblemSetSolution
p177
(dp178
g3
(imeasure_core
RoomSet
p179
(dp180
g6
(dp181
(iproblems
RoomID
p182
(dp183
g10
I8
sg11
(I2
I6
tp184
sg13
I4
sg14
I11
sg15
I9
sg16
I7283207964119141687
sb(imulti_robot_problem
MultiRobotState
p185
(dp186
g19
g20
((lp187
(I4
I7
tp188
a(I1
I3
tp189
a(I4
I3
tp190
a(I4
I5
tp191
a(I5
I4
tp192
a(I1
I4
tp193
a(I8
I9
tp194
a(I6
I2
tp195
a(I0
I10
tp196
a(I3
I7
tp197
a(I0
I3
tp198
a(I8
I5
tp199
a(I4
I0
tp200
a(I5
I3
tp201
a(I5
I5
tp202
a(I5
I2
tp203
a(I6
I1
tp204
a(I6
I10
tp205
ag184
a(I6
I3
tp206
a(I3
I6
tp207
a(I3
I5
tp208
a(I3
I4
tp209
a(I2
I4
tp210
atp211
Rp212
sg15
I9
sg30
g20
((lp213
(I7
I0
tp214
a(I6
I8
tp215
a(I7
I1
tp216
a(I5
I6
tp217
a(I1
I8
tp218
a(I0
I8
tp219
a(I4
I1
tp220
a(I5
I8
tp221
atp222
Rp223
sg13
((I1
I7
tp224
(I6
I6
tp225
(I4
I6
tp226
(I2
I1
tp227
tp228
sg14
I11
sbs(iproblems
RoomID
p229
(dp230
g10
I8
sg11
(I3
I5
tp231
sg13
I3
sg14
I12
sg15
I10
sg16
I890727360438182992
sb(imulti_robot_problem
MultiRobotState
p232
(dp233
g19
g20
((lp234
(I4
I7
tp235
a(I0
I0
tp236
a(I3
I0
tp237
a(I3
I2
tp238
a(I1
I4
tp239
a(I8
I9
tp240
a(I7
I5
tp241
a(I2
I3
tp242
a(I3
I4
tp243
a(I5
I8
tp244
ag231
a(I3
I1
tp245
a(I6
I7
tp246
a(I6
I8
tp247
a(I5
I2
tp248
a(I5
I7
tp249
a(I8
I8
tp250
a(I3
I9
tp251
a(I4
I11
tp252
a(I7
I10
tp253
a(I2
I2
tp254
a(I0
I9
tp255
a(I7
I8
tp256
atp257
Rp258
sg15
I10
sg30
g20
((lp259
(I9
I2
tp260
a(I6
I1
tp261
a(I8
I0
tp262
a(I2
I10
tp263
a(I0
I6
tp264
a(I0
I4
tp265
a(I9
I5
tp266
a(I1
I1
tp267
atp268
Rp269
sg13
((I2
I9
tp270
(I2
I6
tp271
(I8
I4
tp272
tp273
sg14
I12
sbs(iproblems
RoomID
p274
(dp275
g10
I7
sg11
(I6
I3
tp276
sg13
I3
sg14
I12
sg15
I12
sg16
I1585446675937841368
sb(imulti_robot_problem
MultiRobotState
p277
(dp278
g19
g20
((lp279
(I5
I9
tp280
a(I4
I3
tp281
a(I5
I7
tp282
a(I8
I2
tp283
a(I4
I10
tp284
a(I7
I3
tp285
a(I2
I8
tp286
a(I9
I3
tp287
a(I3
I11
tp288
a(I7
I1
tp289
a(I7
I7
tp290
a(I6
I2
tp291
a(I5
I1
tp292
a(I1
I11
tp293
a(I8
I5
tp294
a(I7
I2
tp295
a(I2
I7
tp296
a(I6
I7
tp297
a(I6
I8
tp298
a(I2
I9
tp299
a(I5
I2
tp300
a(I7
I6
tp301
a(I6
I6
tp302
a(I2
I11
tp303
ag276
a(I4
I11
tp304
a(I7
I10
tp305
a(I3
I4
tp306
a(I8
I6
tp307
a(I7
I8
tp308
a(I8
I4
tp309
atp310
Rp311
sg15
I12
sg30
g20
((lp312
(I3
I2
tp313
a(I1
I9
tp314
a(I9
I4
tp315
a(I11
I5
tp316
a(I11
I8
tp317
a(I2
I5
tp318
a(I6
I10
tp319
atp320
Rp321
sg13
((I10
I10
tp322
(I5
I5
tp323
(I11
I10
tp324
tp325
sg14
I12
sbs(iproblems
RoomID
p326
(dp327
g10
I5
sg11
(I7
I6
tp328
sg13
I3
sg14
I9
sg15
I10
sg16
I1736392818365009963
sb(imulti_robot_problem
MultiRobotState
p329
(dp330
g19
g20
((lp331
(I7
I3
tp332
a(I9
I1
tp333
a(I4
I8
tp334
a(I9
I3
tp335
a(I7
I7
tp336
a(I6
I2
tp337
a(I0
I5
tp338
a(I0
I4
tp339
a(I8
I5
tp340
a(I7
I2
tp341
a(I1
I2
tp342
a(I3
I8
tp343
a(I9
I0
tp344
a(I9
I2
tp345
ag328
a(I7
I4
tp346
a(I7
I5
tp347
a(I6
I5
tp348
a(I4
I3
tp349
a(I2
I2
tp350
a(I0
I1
tp351
a(I5
I2
tp352
a(I8
I4
tp353
atp354
Rp355
sg15
I10
sg30
g20
((lp356
(I1
I8
tp357
a(I3
I1
tp358
a(I4
I1
tp359
a(I0
I2
tp360
a(I5
I5
tp361
atp362
Rp363
sg13
((I4
I2
tp364
(I1
I0
tp365
(I8
I2
tp366
tp367
sg14
I9
sbs(iproblems
RoomID
p368
(dp369
g10
I9
sg11
(I1
I3
tp370
sg13
I4
sg14
I9
sg15
I10
sg16
I7713914763314685786
sb(imulti_robot_problem
MultiRobotState
p371
(dp372
g19
g20
((lp373
(I3
I2
tp374
ag370
a(I7
I1
tp375
a(I9
I3
tp376
a(I6
I0
tp377
a(I2
I1
tp378
a(I4
I2
tp379
a(I5
I1
tp380
a(I9
I6
tp381
a(I7
I2
tp382
a(I4
I0
tp383
a(I1
I2
tp384
a(I7
I0
tp385
a(I5
I2
tp386
a(I6
I1
tp387
a(I3
I1
tp388
a(I1
I5
tp389
a(I1
I8
tp390
a(I2
I2
tp391
a(I3
I5
tp392
a(I4
I1
tp393
a(I1
I1
tp394
atp395
Rp396
sg15
I10
sg30
g20
((lp397
(I7
I3
tp398
a(I5
I4
tp399
a(I7
I6
tp400
a(I7
I5
tp401
a(I0
I5
tp402
a(I8
I7
tp403
a(I8
I6
tp404
a(I8
I5
tp405
a(I9
I7
tp406
atp407
Rp408
sg13
((I3
I0
tp409
(I7
I7
tp410
(I2
I0
tp411
(I4
I6
tp412
tp413
sg14
I9
sbssg161
S'mild_roomset'
p414
sbsg161
g163
sg164
(dp415
g182
((lp416
(F0.10999999999330612
I7
tp417
aF40.089999999996508
tp418
sg229
((lp419
F40.089999999996508
tp420
sg274
((lp421
F40.060000000004948
tp422
sg326
((lp423
F40.019999999996799
tp424
sg368
((lp425
F40.060000000004948
tp426
ssba(imeasure_core
ProblemSetSolution
p427
(dp428
g3
(imeasure_core
RoomSet
p429
(dp430
g6
(dp431
(iproblems
RoomID
p432
(dp433
g10
I13
sg11
(I8
I4
tp434
sg13
I7
sg14
I12
sg15
I10
sg16
I7283207964119141687
sb(imulti_robot_problem
MultiRobotState
p435
(dp436
g19
g20
((lp437
(I6
I3
tp438
a(I5
I2
tp439
a(I6
I10
tp440
a(I6
I0
tp441
a(I7
I4
tp442
a(I0
I11
tp443
a(I6
I2
tp444
a(I3
I6
tp445
a(I2
I2
tp446
a(I0
I4
tp447
a(I3
I4
tp448
a(I5
I8
tp449
ag434
atp450
Rp451
sg15
I10
sg30
g20
((lp452
(I7
I3
tp453
a(I6
I7
tp454
a(I6
I8
tp455
a(I7
I1
tp456
a(I8
I1
tp457
a(I4
I4
tp458
a(I6
I6
tp459
a(I5
I6
tp460
a(I1
I9
tp461
a(I5
I0
tp462
a(I9
I10
tp463
a(I9
I6
tp464
a(I7
I9
tp465
atp466
Rp467
sg13
((I1
I7
tp468
(I7
I6
tp469
(I4
I6
tp470
(I2
I1
tp471
(I6
I4
tp472
(I0
I9
tp473
(I8
I0
tp474
tp475
sg14
I12
sbs(iproblems
RoomID
p476
(dp477
g10
I13
sg11
(I8
I3
tp478
sg13
I5
sg14
I13
sg15
I11
sg16
I890727360438182992
sb(imulti_robot_problem
MultiRobotState
p479
(dp480
g19
g20
((lp481
(I4
I10
tp482
a(I6
I9
tp483
a(I8
I2
tp484
a(I5
I9
tp485
a(I9
I8
tp486
ag478
a(I4
I12
tp487
a(I0
I10
tp488
a(I8
I7
tp489
a(I9
I1
tp490
a(I9
I0
tp491
a(I6
I8
tp492
a(I6
I10
tp493
a(I8
I8
tp494
a(I8
I6
tp495
a(I7
I8
tp496
a(I0
I2
tp497
atp498
Rp499
sg15
I11
sg30
g20
((lp500
(I10
I5
tp501
a(I0
I0
tp502
a(I4
I6
tp503
a(I0
I6
tp504
a(I9
I2
tp505
a(I8
I11
tp506
a(I2
I1
tp507
a(I9
I10
tp508
a(I1
I5
tp509
a(I0
I4
tp510
a(I0
I9
tp511
a(I5
I2
tp512
a(I4
I11
tp513
atp514
Rp515
sg13
((I3
I10
tp516
(I2
I7
tp517
(I9
I4
tp518
(I2
I11
tp519
(I7
I1
tp520
tp521
sg14
I13
sbs(iproblems
RoomID
p522
(dp523
g10
I15
sg11
(I6
I9
tp524
sg13
I7
sg14
I11
sg15
I12
sg16
I3960482443532127989
sb(imulti_robot_problem
MultiRobotState
p525
(dp526
g19
g20
((lp527
(I5
I9
tp528
ag524
a(I9
I1
tp529
a(I4
I10
tp530
a(I5
I6
tp531
a(I7
I7
tp532
a(I2
I10
tp533
a(I3
I9
tp534
a(I9
I4
tp535
a(I5
I10
tp536
a(I6
I4
tp537
a(I6
I5
tp538
a(I1
I2
tp539
a(I7
I4
tp540
a(I8
I3
tp541
a(I6
I7
tp542
a(I2
I9
tp543
a(I10
I7
tp544
a(I5
I7
tp545
a(I6
I3
tp546
a(I8
I1
tp547
a(I0
I9
tp548
a(I8
I6
tp549
a(I7
I8
tp550
a(I11
I6
tp551
a(I9
I7
tp552
atp553
Rp554
sg15
I12
sg30
g20
((lp555
(I7
I3
tp556
a(I2
I6
tp557
a(I5
I5
tp558
a(I3
I0
tp559
a(I3
I8
tp560
a(I0
I6
tp561
a(I11
I1
tp562
a(I1
I6
tp563
a(I4
I3
tp564
a(I1
I7
tp565
a(I1
I3
tp566
a(I1
I0
tp567
a(I10
I1
tp568
a(I1
I1
tp569
a(I10
I2
tp570
atp571
Rp572
sg13
((I11
I10
tp573
(I1
I8
tp574
(I10
I5
tp575
(I11
I0
tp576
(I4
I8
tp577
(I7
I9
tp578
(I7
I1
tp579
tp580
sg14
I11
sbs(iproblems
RoomID
p581
(dp582
g10
I10
sg11
(I10
I4
tp583
sg13
I5
sg14
I10
sg15
I11
sg16
I1736392818365009963
sb(imulti_robot_problem
MultiRobotState
p584
(dp585
g19
g20
((lp586
(I0
I1
tp587
a(I1
I2
tp588
a(I3
I2
tp589
ag583
a(I4
I5
tp590
a(I7
I4
tp591
a(I6
I2
tp592
a(I2
I3
tp593
a(I10
I1
tp594
a(I3
I8
tp595
a(I10
I0
tp596
a(I10
I3
tp597
a(I10
I2
tp598
atp599
Rp600
sg15
I11
sg30
g20
((lp601
(I5
I9
tp602
a(I5
I5
tp603
a(I3
I1
tp604
a(I8
I8
tp605
a(I0
I5
tp606
a(I3
I9
tp607
a(I8
I4
tp608
a(I4
I1
tp609
a(I6
I5
tp610
a(I5
I3
tp611
atp612
Rp613
sg13
((I4
I2
tp614
(I1
I0
tp615
(I9
I3
tp616
(I1
I9
tp617
(I0
I2
tp618
tp619
sg14
I10
sbs(iproblems
RoomID
p620
(dp621
g10
I12
sg11
(I6
I9
tp622
sg13
I6
sg14
I13
sg15
I13
sg16
I1585446675937841368
sb(imulti_robot_problem
MultiRobotState
p623
(dp624
g19
g20
((lp625
(I7
I3
tp626
ag622
a(I8
I11
tp627
a(I7
I7
tp628
a(I4
I12
tp629
a(I10
I3
tp630
a(I5
I8
tp631
a(I7
I4
tp632
a(I1
I12
tp633
a(I2
I9
tp634
a(I8
I1
tp635
a(I7
I6
tp636
a(I6
I3
tp637
a(I9
I2
tp638
a(I7
I5
tp639
a(I7
I2
tp640
a(I7
I10
tp641
a(I8
I4
tp642
a(I3
I4
tp643
a(I2
I4
tp644
a(I9
I12
tp645
a(I9
I7
tp646
atp647
Rp648
sg15
I13
sg30
g20
((lp649
(I3
I3
tp650
a(I2
I8
tp651
a(I12
I9
tp652
a(I6
I10
tp653
a(I8
I10
tp654
a(I2
I10
tp655
a(I12
I5
tp656
a(I4
I3
tp657
a(I5
I1
tp658
a(I7
I9
tp659
a(I5
I2
tp660
a(I3
I5
tp661
atp662
Rp663
sg13
((I10
I11
tp664
(I5
I5
tp665
(I12
I11
tp666
(I1
I10
tp667
(I3
I12
tp668
(I10
I4
tp669
tp670
sg14
I13
sbssg161
S'heavy_roomset'
p671
sbsg161
g163
sg164
(dp672
g432
((lp673
(F39.839999999996508
I10
tp674
aF40.319999999999709
tp675
sg476
((lp676
F40.319999999999709
tp677
sg522
((lp678
F40.299999999995634
tp679
sg581
((lp680
(F1.2600000000020373
I9
tp681
aF40.05000000000291
tp682
sg620
((lp683
F40.489999999997963
tp684
ssba(imeasure_core
ProblemSetSolution
p685
(dp686
g3
g4
sg161
S'AnytimeBest-d80_with_PowerHeuristic2'
p687
sg164
(dp688
g8
((lp689
(F1.75
I28
tp690
aF40.05000000000291
tp691
sg47
((lp692
(F0.049999999995634425
I19
tp693
a(F24.930000000000291
I18
tp694
aF40.0
tp695
sg76
((lp696
(F0.16999999999825377
I14
tp697
aF40.019999999996799
tp698
sg106
((lp699
(F0.11000000000058208
I30
tp700
a(F0.13000000000465661
I28
tp701
a(F0.61000000000058208
I27
tp702
a(F0.90000000000145519
I25
tp703
a(F1.0400000000008731
I23
tp704
a(F1.1500000000014552
I22
tp705
a(F2.7200000000011642
I21
tp706
a(F2.8099999999976717
I20
tp707
aF3.3899999999994179
tp708
sg131
((lp709
(F2.0400000000008731
I10
tp710
aF40.400000000001455
tp711
ssba(imeasure_core
ProblemSetSolution
p712
(dp713
g3
g179
sg161
g687
sg164
(dp714
g182
((lp715
(F0.12000000000261934
I7
tp716
aF40.040000000000873
tp717
sg229
((lp718
F40.150000000001455
tp719
sg274
((lp720
(F0.22000000000116415
I20
tp721
aF40.009999999994761
tp722
sg326
((lp723
(F2.0300000000061118
I66
tp724
aF40.060000000004948
tp725
sg368
((lp726
(F0.54999999999563443
I15
tp727
aF40.049999999995634
tp728
ssba(imeasure_core
ProblemSetSolution
p729
(dp730
g3
g429
sg161
g687
sg164
(dp731
g432
((lp732
(F39.819999999999709
I10
tp733
aF40.319999999999709
tp734
sg476
((lp735
F40.700000000004366
tp736
sg522
((lp737
F40.559999999997672
tp738
sg581
((lp739
(F1.2299999999959255
I9
tp740
aF40.059999999997672
tp741
sg620
((lp742
F40.809999999997672
tp743
ssba(imeasure_core
ProblemSetSolution
p744
(dp745
g3
g4
sg161
S'AnytimeBest-d150_with_PowerHeuristic2'
p746
sg164
(dp747
g8
((lp748
(F1.7300000000032014
I28
tp749
aF40.05000000000291
tp750
sg47
((lp751
(F0.049999999995634425
I19
tp752
a(F25.059999999997672
I18
tp753
aF40.0
tp754
sg76
((lp755
(F0.1599999999962165
I14
tp756
aF40.029999999998836
tp757
sg106
((lp758
(F0.11000000000058208
I30
tp759
a(F0.12999999999738066
I28
tp760
a(F0.59999999999854481
I27
tp761
a(F0.88999999999941792
I25
tp762
a(F1.0299999999988358
I23
tp763
a(F1.1299999999973807
I22
tp764
a(F2.6999999999970896
I21
tp765
a(F2.7799999999988358
I20
tp766
aF3.3600000000005821
tp767
sg131
((lp768
(F2.0499999999956344
I10
tp769
aF40.309999999997672
tp770
ssba(imeasure_core
ProblemSetSolution
p771
(dp772
g3
g179
sg161
g746
sg164
(dp773
g182
((lp774
(F0.11000000000058208
I7
tp775
aF40.089999999996508
tp776
sg229
((lp777
F40.069999999999709
tp778
sg274
((lp779
(F0.23000000000320142
I20
tp780
aF40.010000000002037
tp781
sg326
((lp782
(F2.0100000000020373
I66
tp783
aF40.010000000002037
tp784
sg368
((lp785
(F0.54999999999563443
I15
tp786
aF40.099999999998545
tp787
ssba(imeasure_core
ProblemSetSolution
p788
(dp789
g3
g429
sg161
g746
sg164
(dp790
g432
((lp791
(F39.519999999996799
I10
tp792
aF40.319999999999709
tp793
sg476
((lp794
F40.629999999997381
tp795
sg522
((lp796
F40.529999999998836
tp797
sg581
((lp798
(F1.2300000000032014
I9
tp799
aF40.05000000000291
tp800
sg620
((lp801
F40.720000000001164
tp802
ssba(imeasure_core
ProblemSetSolution
p803
(dp804
g3
g4
sg161
S'AnytimeBest-d250_with_PowerHeuristic2'
p805
sg164
(dp806
g8
((lp807
(F1.7299999999959255
I28
tp808
aF40.180000000000291
tp809
sg47
((lp810
(F0.049999999995634425
I19
tp811
a(F24.939999999995052
I18
tp812
aF40.0
tp813
sg76
((lp814
(F0.1599999999962165
I14
tp815
aF40.019999999996799
tp816
sg106
((lp817
(F0.12000000000261934
I30
tp818
a(F0.13000000000465661
I28
tp819
a(F0.61000000000058208
I27
tp820
a(F0.90000000000145519
I25
tp821
a(F1.0400000000008731
I23
tp822
a(F1.1399999999994179
I22
tp823
a(F2.7000000000043656
I21
tp824
a(F2.7900000000008731
I20
tp825
aF3.3700000000026193
tp826
sg131
((lp827
(F2.0400000000008731
I10
tp828
aF40.059999999997672
tp829
ssba(imeasure_core
ProblemSetSolution
p830
(dp831
g3
g179
sg161
g805
sg164
(dp832
g182
((lp833
(F0.12000000000261934
I7
tp834
aF40.040000000000873
tp835
sg229
((lp836
F40.069999999999709
tp837
sg274
((lp838
(F0.23000000000320142
I20
tp839
aF40.020000000004075
tp840
sg326
((lp841
(F2.0099999999947613
I66
tp842
aF40.029999999998836
tp843
sg368
((lp844
(F0.54000000000087311
I15
tp845
aF40.069999999999709
tp846
ssba(imeasure_core
ProblemSetSolution
p847
(dp848
g3
g429
sg161
g805
sg164
(dp849
g432
((lp850
(F39.710000000006403
I10
tp851
aF40.319999999999709
tp852
sg476
((lp853
F41.360000000000582
tp854
sg522
((lp855
F40.450000000004366
tp856
sg581
((lp857
(F1.2600000000020373
I9
tp858
aF40.049999999995634
tp859
sg620
((lp860
F40.700000000004366
tp861
ssba(imeasure_core
ProblemSetSolution
p862
(dp863
g3
g4
sg161
S'AnytimeBest-d400_with_PowerHeuristic2'
p864
sg164
(dp865
g8
((lp866
(F1.7299999999959255
I28
tp867
aF40.109999999993306
tp868
sg47
((lp869
(F0.060000000004947651
I19
tp870
a(F24.950000000004366
I18
tp871
aF40.0
tp872
sg76
((lp873
(F0.16000000000349246
I14
tp874
aF40.030000000006112
tp875
sg106
((lp876
(F0.11000000000058208
I30
tp877
a(F0.12999999999738066
I28
tp878
a(F0.59999999999854481
I27
tp879
a(F0.88999999999941792
I25
tp880
a(F1.0299999999988358
I23
tp881
a(F1.1299999999973807
I22
tp882
a(F2.6899999999950523
I21
tp883
a(F2.7799999999988358
I20
tp884
aF3.3600000000005821
tp885
sg131
((lp886
(F2.0399999999935972
I10
tp887
aF40.059999999997672
tp888
ssba(imeasure_core
ProblemSetSolution
p889
(dp890
g3
g179
sg161
g864
sg164
(dp891
g182
((lp892
(F0.10999999999330612
I7
tp893
aF40.109999999993306
tp894
sg229
((lp895
F40.230000000003201
tp896
sg274
((lp897
(F0.22000000000116415
I20
tp898
aF40.019999999996799
tp899
sg326
((lp900
(F2.0100000000020373
I66
tp901
aF40.010000000002037
tp902
sg368
((lp903
(F0.55000000000291038
I15
tp904
aF40.130000000004657
tp905
ssba(imeasure_core
ProblemSetSolution
p906
(dp907
g3
g429
sg161
g864
sg164
(dp908
g432
((lp909
(F39.709999999999127
I10
tp910
aF40.319999999999709
tp911
sg476
((lp912
F40.840000000003783
tp913
sg522
((lp914
F40.989999999997963
tp915
sg581
((lp916
(F1.2600000000020373
I9
tp917
aF40.05000000000291
tp918
sg620
((lp919
F40.720000000001164
tp920
ssba(imeasure_core
ProblemSetSolution
p921
(dp922
g3
g4
sg161
S'AnytimeBest-d10_with_LinearHeuristic'
p923
sg164
(dp924
g8
((lp925
(F0.33000000000174623
I5
tp926
aF40.410000000003492
tp927
sg47
((lp928
F40.019999999996799
tp929
sg76
((lp930
F40.060000000004948
tp931
sg106
((lp932
F0.57999999999447027
tp933
sg131
((lp934
(F2.319999999999709
I10
tp935
aF40.17000000000553
tp936
ssba(imeasure_core
ProblemSetSolution
p937
(dp938
g3
g179
sg161
g923
sg164
(dp939
g182
((lp940
F40.209999999999127
tp941
sg229
((lp942
F40.029999999998836
tp943
sg274
((lp944
F40.099999999998545
tp945
sg326
((lp946
F40.05000000000291
tp947
sg368
((lp948
F40.089999999996508
tp949
ssba(imeasure_core
ProblemSetSolution
p950
(dp951
g3
g429
sg161
g923
sg164
(dp952
g432
((lp953
F41.680000000000291
tp954
sg476
((lp955
F40.400000000001455
tp956
sg522
((lp957
F43.889999999999418
tp958
sg581
((lp959
F40.510000000002037
tp960
sg620
((lp961
F41.57999999999447
tp962
ssba(imeasure_core
ProblemSetSolution
p963
(dp964
g3
g4
sg161
S'AnytimeBest-d80_with_LinearHeuristic'
p965
sg164
(dp966
g8
((lp967
(F0.33000000000174623
I5
tp968
aF40.139999999999418
tp969
sg47
((lp970
(F0.11000000000058208
I22
tp971
aF40.020000000004075
tp972
sg76
((lp973
F40.049999999995634
tp974
sg106
((lp975
(F0.020000000004074536
I20
tp976
aF6.9000000000014552
tp977
sg131
((lp978
(F2.319999999999709
I10
tp979
aF40.169999999998254
tp980
ssba(imeasure_core
ProblemSetSolution
p981
(dp982
g3
g179
sg161
g965
sg164
(dp983
g182
((lp984
F40.17000000000553
tp985
sg229
((lp986
F40.089999999996508
tp987
sg274
((lp988
F40.069999999999709
tp989
sg326
((lp990
(F0.33000000000174623
I23
tp991
a(F8.9499999999970896
I21
tp992
a(F12.0
I20
tp993
a(F17.80000000000291
I19
tp994
aF40.069999999999709
tp995
sg368
((lp996
F40.139999999999418
tp997
ssba(imeasure_core
ProblemSetSolution
p998
(dp999
g3
g429
sg161
g965
sg164
(dp1000
g432
((lp1001
F41.440000000002328
tp1002
sg476
((lp1003
F40.439999999995052
tp1004
sg522
((lp1005
F43.720000000001164
tp1006
sg581
((lp1007
F40.419999999998254
tp1008
sg620
((lp1009
F40.970000000001164
tp1010
ssba(imeasure_core
ProblemSetSolution
p1011
(dp1012
g3
g4
sg161
S'AnytimeBest-d150_with_LinearHeuristic'
p1013
sg164
(dp1014
g8
((lp1015
(F0.33999999999650754
I5
tp1016
aF40.150000000001455
tp1017
sg47
((lp1018
(F0.11000000000058208
I22
tp1019
aF40.019999999996799
tp1020
sg76
((lp1021
F40.05000000000291
tp1022
sg106
((lp1023
(F0.019999999996798579
I20
tp1024
aF6.9399999999950523
tp1025
sg131
((lp1026
(F2.3100000000049477
I10
tp1027
aF40.17000000000553
tp1028
ssba(imeasure_core
ProblemSetSolution
p1029
(dp1030
g3
g179
sg161
g1013
sg164
(dp1031
g182
((lp1032
F40.059999999997672
tp1033
sg229
((lp1034
F40.080000000001746
tp1035
sg274
((lp1036
F40.029999999998836
tp1037
sg326
((lp1038
(F0.31999999999970896
I23
tp1039
a(F8.9199999999982538
I21
tp1040
a(F11.979999999995925
I20
tp1041
a(F17.720000000001164
I19
tp1042
aF40.049999999995634
tp1043
sg368
((lp1044
F40.030000000006112
tp1045
ssba(imeasure_core
ProblemSetSolution
p1046
(dp1047
g3
g429
sg161
g1013
sg164
(dp1048
g432
((lp1049
F41.42000000000553
tp1050
sg476
((lp1051
F40.57999999999447
tp1052
sg522
((lp1053
F43.720000000001164
tp1054
sg581
((lp1055
(F35.400000000001455
I95
tp1056
aF40.440000000002328
tp1057
sg620
((lp1058
F40.639999999999418
tp1059
ssba(imeasure_core
ProblemSetSolution
p1060
(dp1061
g3
g4
sg161
S'AnytimeBest-d250_with_LinearHeuristic'
p1062
sg164
(dp1063
g8
((lp1064
(F0.32999999999447027
I5
tp1065
aF40.19999999999709
tp1066
sg47
((lp1067
(F0.12000000000261934
I22
tp1068
aF40.010000000002037
tp1069
sg76
((lp1070
F40.049999999995634
tp1071
sg106
((lp1072
(F0.020000000004074536
I20
tp1073
aF6.9000000000014552
tp1074
sg131
((lp1075
(F2.319999999999709
I10
tp1076
aF40.169999999998254
tp1077
ssba(imeasure_core
ProblemSetSolution
p1078
(dp1079
g3
g179
sg161
g1062
sg164
(dp1080
g182
((lp1081
(F24.440000000002328
I177
tp1082
aF40.05000000000291
tp1083
sg229
((lp1084
F40.05000000000291
tp1085
sg274
((lp1086
F40.029999999998836
tp1087
sg326
((lp1088
(F0.31999999999970896
I23
tp1089
a(F8.9000000000014552
I21
tp1090
a(F11.94999999999709
I20
tp1091
a(F17.680000000000291
I19
tp1092
aF40.049999999995634
tp1093
sg368
((lp1094
F40.139999999999418
tp1095
ssba(imeasure_core
ProblemSetSolution
p1096
(dp1097
g3
g429
sg161
g1062
sg164
(dp1098
g432
((lp1099
F41.440000000002328
tp1100
sg476
((lp1101
F40.44999999999709
tp1102
sg522
((lp1103
F43.67000000000553
tp1104
sg581
((lp1105
(F35.269999999996799
I95
tp1106
aF40.289999999993597
tp1107
sg620
((lp1108
F40.490000000005239
tp1109
ssba(imeasure_core
ProblemSetSolution
p1110
(dp1111
g3
g4
sg161
S'AnytimeBest-d400_with_LinearHeuristic'
p1112
sg164
(dp1113
g8
((lp1114
(F0.33000000000174623
I5
tp1115
aF40.139999999999418
tp1116
sg47
((lp1117
(F0.11000000000058208
I22
tp1118
aF40.020000000004075
tp1119
sg76
((lp1120
F40.05000000000291
tp1121
sg106
((lp1122
(F0.019999999996798579
I20
tp1123
aF6.9399999999950523
tp1124
sg131
((lp1125
(F2.3100000000049477
I10
tp1126
aF40.169999999998254
tp1127
ssba(imeasure_core
ProblemSetSolution
p1128
(dp1129
g3
g179
sg161
g1112
sg164
(dp1130
g182
((lp1131
(F24.30000000000291
I177
tp1132
aF40.060000000004948
tp1133
sg229
((lp1134
F40.059999999997672
tp1135
sg274
((lp1136
F40.029999999998836
tp1137
sg326
((lp1138
(F0.33000000000174623
I23
tp1139
a(F8.9199999999982538
I21
tp1140
a(F11.980000000003201
I20
tp1141
a(F17.770000000004075
I19
tp1142
aF40.060000000004948
tp1143
sg368
((lp1144
F40.259999999994761
tp1145
ssba(imeasure_core
ProblemSetSolution
p1146
(dp1147
g3
g429
sg161
g1112
sg164
(dp1148
g432
((lp1149
F41.379999999997381
tp1150
sg476
((lp1151
F40.430000000000291
tp1152
sg522
((lp1153
F43.580000000001746
tp1154
sg581
((lp1155
(F35.639999999999418
I95
tp1156
aF40.730000000003201
tp1157
sg620
((lp1158
F41.019999999996799
tp1159
ssba.