(lp0
(imeasure_core
ProblemSetSolution
p1
(dp2
S'roomset'
p3
(imeasure_core
RoomSet
p4
(dp5
S'rooms'
p6
(dp7
(iproblems
RoomID
p8
(dp9
S'dusts'
p10
I8
sS'obstacles'
p11
(I1
I6
tp12
sS'robots'
p13
I4
sS'height'
p14
I10
sS'width'
p15
I9
sS'seed'
p16
I3433768247134474666
sb(imulti_robot_problem
MultiRobotState
p17
(dp18
S'obstacle_locations'
p19
c__builtin__
frozenset
p20
((lp21
(I4
I9
tp22
a(I4
I6
tp23
a(I0
I7
tp24
ag12
a(I0
I9
tp25
a(I8
I6
tp26
a(I0
I8
tp27
a(I3
I3
tp28
atp29
Rp30
sg15
I9
sS'dirt_locations'
p31
g20
((lp32
(I3
I2
tp33
a(I7
I7
tp34
a(I1
I9
tp35
a(I8
I7
tp36
a(I5
I4
tp37
a(I1
I1
tp38
a(I5
I8
tp39
a(I7
I9
tp40
atp41
Rp42
sg13
((I5
I9
tp43
(I5
I5
tp44
(I6
I9
tp45
(I2
I0
tp46
tp47
sg14
I10
sbs(iproblems
RoomID
p48
(dp49
g10
I7
sg11
(I2
I2
tp50
sg13
I3
sg14
I9
sg15
I9
sg16
I6241004153072892496
sb(imulti_robot_problem
MultiRobotState
p51
(dp52
g19
g20
((lp53
(I7
I3
tp54
a(I3
I2
tp55
a(I7
I1
tp56
a(I5
I1
tp57
ag50
a(I4
I1
tp58
a(I7
I7
tp59
atp60
Rp61
sg15
I9
sg31
g20
((lp62
(I3
I8
tp63
a(I1
I5
tp64
a(I4
I8
tp65
a(I3
I7
tp66
a(I5
I7
tp67
a(I3
I4
tp68
a(I6
I0
tp69
atp70
Rp71
sg13
((I6
I5
tp72
(I4
I3
tp73
(I3
I5
tp74
tp75
sg14
I9
sbs(iproblems
RoomID
p76
(dp77
g10
I9
sg11
(I4
I3
tp78
sg13
I3
sg14
I9
sg15
I8
sg16
I6161655336973386967
sb(imulti_robot_problem
MultiRobotState
p79
(dp80
g19
g20
((lp81
(I6
I3
tp82
a(I7
I3
tp83
a(I5
I4
tp84
ag78
a(I6
I6
tp85
a(I5
I2
tp86
a(I2
I1
tp87
atp88
Rp89
sg15
I8
sg31
g20
((lp90
(I6
I4
tp91
a(I6
I8
tp92
a(I2
I0
tp93
a(I5
I7
tp94
a(I1
I4
tp95
a(I1
I5
tp96
a(I0
I5
tp97
a(I2
I5
tp98
a(I4
I1
tp99
atp100
Rp101
sg13
((I3
I5
tp102
(I4
I6
tp103
(I4
I5
tp104
tp105
sg14
I9
sbs(iproblems
RoomID
p106
(dp107
g10
I10
sg11
(I6
I4
tp108
sg13
I4
sg14
I7
sg15
I10
sg16
I3125140389427113411
sb(imulti_robot_problem
MultiRobotState
p109
(dp110
g19
g20
((lp111
(I6
I3
tp112
a(I5
I1
tp113
a(I5
I2
tp114
ag108
atp115
Rp116
sg15
I10
sg31
g20
((lp117
(I1
I2
tp118
a(I7
I3
tp119
a(I0
I0
tp120
a(I3
I3
tp121
a(I6
I2
tp122
a(I1
I6
tp123
a(I9
I4
tp124
a(I2
I5
tp125
a(I0
I2
tp126
a(I7
I2
tp127
atp128
Rp129
sg13
((I9
I0
tp130
(I6
I5
tp131
(I1
I4
tp132
(I1
I3
tp133
tp134
sg14
I7
sbs(iproblems
RoomID
p135
(dp136
g10
I6
sg11
(I7
I4
tp137
sg13
I4
sg14
I8
sg15
I9
sg16
I8554152435637441414
sb(imulti_robot_problem
MultiRobotState
p138
(dp139
g19
g20
((lp140
(I6
I6
tp141
a(I5
I7
tp142
ag137
a(I2
I0
tp143
a(I7
I5
tp144
a(I3
I7
tp145
a(I0
I3
tp146
a(I4
I1
tp147
atp148
Rp149
sg15
I9
sg31
g20
((lp150
(I7
I3
tp151
a(I1
I6
tp152
a(I5
I1
tp153
a(I8
I6
tp154
a(I0
I2
tp155
a(I4
I0
tp156
atp157
Rp158
sg13
((I5
I3
tp159
(I6
I2
tp160
(I6
I3
tp161
(I6
I4
tp162
tp163
sg14
I8
sbssS'name'
p164
S'easy_roomset'
p165
sbsg164
S"AnytimeBeam-w5-gf(1.5, 'exp')_with_PowerHeuristic2"
p166
sS'solutions'
p167
(dp168
g8
((lp169
(F0.27000000000407454
I10
tp170
aF40.209999999999127
tp171
sg48
((lp172
(F0.19000000000232831
I8
tp173
aF40.069999999999709
tp174
sg76
((lp175
(F2.9700000000011642
I48
tp176
aF40.060000000004948
tp177
sg106
((lp178
(F1.7299999999959255
I13
tp179
aF40.269999999996799
tp180
sg135
((lp181
(F1.0200000000040745
I8
tp182
aF40.150000000001455
tp183
ssba(imeasure_core
ProblemSetSolution
p184
(dp185
g3
(imeasure_core
RoomSet
p186
(dp187
g6
(dp188
(iproblems
RoomID
p189
(dp190
g10
I10
sg11
(I1
I6
tp191
sg13
I3
sg14
I12
sg15
I9
sg16
I4927760411464392432
sb(imulti_robot_problem
MultiRobotState
p192
(dp193
g19
g20
((lp194
(I5
I9
tp195
a(I1
I3
tp196
a(I4
I5
tp197
a(I7
I7
tp198
a(I6
I0
tp199
a(I3
I9
tp200
ag191
a(I8
I7
tp201
a(I3
I7
tp202
a(I2
I5
tp203
a(I7
I9
tp204
a(I3
I1
tp205
a(I4
I6
tp206
a(I2
I9
tp207
a(I3
I10
tp208
a(I6
I10
tp209
a(I2
I11
tp210
a(I3
I8
tp211
a(I0
I6
tp212
a(I3
I6
tp213
a(I2
I2
tp214
a(I2
I3
tp215
a(I3
I4
tp216
a(I7
I6
tp217
atp218
Rp219
sg15
I9
sg31
g20
((lp220
(I1
I2
tp221
a(I6
I4
tp222
a(I6
I9
tp223
a(I8
I2
tp224
a(I8
I0
tp225
a(I1
I10
tp226
a(I0
I9
tp227
a(I1
I0
tp228
a(I0
I2
tp229
a(I4
I11
tp230
atp231
Rp232
sg13
((I1
I11
tp233
(I0
I11
tp234
(I7
I5
tp235
tp236
sg14
I12
sbs(iproblems
RoomID
p237
(dp238
g10
I8
sg11
(I1
I11
tp239
sg13
I4
sg14
I12
sg15
I11
sg16
I3433768247134474666
sb(imulti_robot_problem
MultiRobotState
p240
(dp241
g19
g20
((lp242
(I9
I3
tp243
a(I3
I6
tp244
a(I4
I8
tp245
a(I4
I5
tp246
a(I2
I8
tp247
a(I10
I6
tp248
a(I2
I10
tp249
a(I8
I7
tp250
a(I2
I3
tp251
a(I0
I10
tp252
a(I9
I4
tp253
a(I3
I7
tp254
ag239
a(I10
I3
tp255
a(I5
I8
tp256
a(I10
I4
tp257
a(I2
I7
tp258
a(I10
I5
tp259
a(I6
I7
tp260
a(I2
I9
tp261
a(I9
I6
tp262
a(I1
I8
tp263
a(I3
I8
tp264
a(I0
I11
tp265
a(I8
I8
tp266
a(I4
I11
tp267
a(I5
I0
tp268
a(I0
I9
tp269
a(I4
I9
tp270
a(I7
I8
tp271
atp272
Rp273
sg15
I11
sg31
g20
((lp274
(I4
I3
tp275
a(I5
I11
tp276
a(I9
I8
tp277
a(I2
I11
tp278
a(I9
I11
tp279
a(I7
I10
tp280
a(I1
I1
tp281
a(I6
I5
tp282
atp283
Rp284
sg13
((I7
I11
tp285
(I7
I7
tp286
(I2
I0
tp287
(I10
I9
tp288
tp289
sg14
I12
sbs(iproblems
RoomID
p290
(dp291
g10
I7
sg11
(I10
I3
tp292
sg13
I3
sg14
I11
sg15
I11
sg16
I6241004153072892496
sb(imulti_robot_problem
MultiRobotState
p293
(dp294
g19
g20
((lp295
(I3
I2
tp296
a(I0
I0
tp297
a(I9
I8
tp298
a(I7
I7
tp299
a(I8
I9
tp300
a(I6
I2
tp301
a(I2
I3
tp302
a(I9
I4
tp303
a(I4
I2
tp304
a(I5
I1
tp305
a(I0
I3
tp306
ag292
a(I1
I2
tp307
a(I9
I5
tp308
a(I5
I5
tp309
a(I10
I7
tp310
a(I8
I5
tp311
a(I6
I1
tp312
a(I1
I8
tp313
a(I8
I8
tp314
a(I8
I6
tp315
a(I7
I8
tp316
a(I2
I4
tp317
atp318
Rp319
sg15
I11
sg31
g20
((lp320
(I4
I10
tp321
a(I6
I9
tp322
a(I4
I9
tp323
a(I9
I1
tp324
a(I5
I10
tp325
a(I3
I10
tp326
a(I8
I0
tp327
atp328
Rp329
sg13
((I5
I4
tp330
(I4
I6
tp331
(I1
I6
tp332
tp333
sg14
I11
sbs(iproblems
RoomID
p334
(dp335
g10
I6
sg11
(I5
I4
tp336
sg13
I4
sg14
I10
sg15
I11
sg16
I8554152435637441414
sb(imulti_robot_problem
MultiRobotState
p337
(dp338
g19
g20
((lp339
(I6
I4
tp340
ag336
a(I4
I5
tp341
a(I2
I8
tp342
a(I9
I3
tp343
a(I7
I7
tp344
a(I0
I7
tp345
a(I6
I2
tp346
a(I2
I1
tp347
a(I3
I7
tp348
a(I5
I1
tp349
a(I0
I3
tp350
a(I8
I5
tp351
a(I5
I3
tp352
a(I3
I8
tp353
a(I8
I3
tp354
a(I4
I9
tp355
a(I6
I8
tp356
a(I7
I0
tp357
a(I6
I3
tp358
a(I7
I5
tp359
a(I3
I6
tp360
a(I8
I6
tp361
a(I7
I8
tp362
a(I10
I9
tp363
atp364
Rp365
sg15
I11
sg31
g20
((lp366
(I1
I3
tp367
a(I9
I4
tp368
a(I5
I0
tp369
a(I3
I0
tp370
a(I4
I2
tp371
a(I7
I2
tp372
atp373
Rp374
sg13
((I8
I2
tp375
(I8
I4
tp376
(I9
I7
tp377
(I0
I2
tp378
tp379
sg14
I10
sbs(iproblems
RoomID
p380
(dp381
g10
I10
sg11
(I5
I4
tp382
sg13
I4
sg14
I9
sg15
I12
sg16
I3125140389427113411
sb(imulti_robot_problem
MultiRobotState
p383
(dp384
g19
g20
((lp385
(I7
I3
tp386
a(I4
I7
tp387
a(I2
I6
tp388
a(I2
I7
tp389
a(I6
I6
tp390
a(I5
I6
tp391
ag382
a(I1
I4
tp392
a(I6
I2
tp393
a(I10
I1
tp394
a(I3
I7
tp395
a(I5
I1
tp396
a(I2
I5
tp397
a(I6
I5
tp398
a(I3
I3
tp399
a(I6
I4
tp400
a(I9
I5
tp401
a(I6
I7
tp402
a(I5
I5
tp403
a(I10
I7
tp404
a(I6
I1
tp405
a(I7
I4
tp406
a(I8
I6
tp407
a(I5
I3
tp408
a(I5
I2
tp409
a(I8
I4
tp410
atp411
Rp412
sg15
I12
sg31
g20
((lp413
(I0
I0
tp414
a(I11
I4
tp415
a(I8
I2
tp416
a(I3
I0
tp417
a(I6
I0
tp418
a(I1
I8
tp419
a(I2
I3
tp420
a(I0
I3
tp421
a(I11
I6
tp422
a(I3
I5
tp423
atp424
Rp425
sg13
((I11
I0
tp426
(I7
I7
tp427
(I1
I5
tp428
(I2
I4
tp429
tp430
sg14
I9
sbssg164
S'mild_roomset'
p431
sbsg164
g166
sg167
(dp432
g189
((lp433
F40.120000000002619
tp434
sg237
((lp435
(F3.5799999999944703
I30
tp436
aF40.009999999994761
tp437
sg290
((lp438
(F0.85000000000582077
I13
tp439
aF40.060000000004948
tp440
sg334
((lp441
(F14.089999999996508
I55
tp442
aF40.189999999995052
tp443
sg380
((lp444
F40.209999999999127
tp445
ssba(imeasure_core
ProblemSetSolution
p446
(dp447
g3
(imeasure_core
RoomSet
p448
(dp449
g6
(dp450
(iproblems
RoomID
p451
(dp452
g10
I15
sg11
(I3
I3
tp453
sg13
I5
sg14
I13
sg15
I10
sg16
I4927760411464392432
sb(imulti_robot_problem
MultiRobotState
p454
(dp455
g19
g20
((lp456
(I6
I10
tp457
a(I6
I11
tp458
a(I3
I11
tp459
a(I2
I1
tp460
a(I2
I10
tp461
a(I3
I9
tp462
a(I2
I3
tp463
a(I1
I0
tp464
a(I4
I0
tp465
a(I1
I2
tp466
ag453
a(I7
I6
tp467
a(I3
I1
tp468
a(I1
I1
tp469
a(I1
I7
tp470
a(I1
I3
tp471
a(I3
I10
tp472
a(I9
I12
tp473
atp474
Rp475
sg15
I10
sg31
g20
((lp476
(I9
I0
tp477
a(I9
I7
tp478
a(I7
I0
tp479
a(I8
I2
tp480
a(I5
I5
tp481
a(I8
I10
tp482
a(I1
I4
tp483
a(I8
I8
tp484
a(I2
I12
tp485
a(I8
I7
tp486
a(I1
I10
tp487
a(I7
I11
tp488
a(I4
I12
tp489
a(I0
I2
tp490
a(I0
I10
tp491
atp492
Rp493
sg13
((I1
I12
tp494
(I0
I12
tp495
(I8
I5
tp496
(I7
I9
tp497
(I7
I4
tp498
tp499
sg14
I13
sbs(iproblems
RoomID
p500
(dp501
g10
I13
sg11
(I4
I11
tp502
sg13
I6
sg14
I13
sg15
I12
sg16
I3433768247134474666
sb(imulti_robot_problem
MultiRobotState
p503
(dp504
g19
g20
((lp505
(I4
I10
tp506
a(I5
I11
tp507
a(I6
I11
tp508
a(I9
I8
tp509
a(I6
I0
tp510
a(I0
I12
tp511
a(I4
I12
tp512
a(I2
I3
tp513
a(I2
I12
tp514
a(I10
I3
tp515
ag502
a(I11
I7
tp516
a(I3
I12
tp517
a(I3
I10
tp518
a(I11
I3
tp519
a(I0
I11
tp520
a(I8
I8
tp521
a(I1
I9
tp522
a(I1
I6
tp523
a(I1
I1
tp524
a(I0
I10
tp525
atp526
Rp527
sg15
I12
sg31
g20
((lp528
(I10
I8
tp529
a(I10
I5
tp530
a(I6
I7
tp531
a(I6
I8
tp532
a(I4
I4
tp533
a(I10
I12
tp534
a(I9
I9
tp535
a(I8
I10
tp536
a(I7
I5
tp537
a(I7
I10
tp538
a(I6
I12
tp539
a(I5
I10
tp540
a(I5
I3
tp541
atp542
Rp543
sg13
((I7
I12
tp544
(I7
I7
tp545
(I8
I12
tp546
(I2
I0
tp547
(I11
I9
tp548
(I1
I2
tp549
tp550
sg14
I13
sbs(iproblems
RoomID
p551
(dp552
g10
I15
sg11
(I1
I6
tp553
sg13
I6
sg14
I10
sg15
I13
sg16
I3125140389427113411
sb(imulti_robot_problem
MultiRobotState
p554
(dp555
g19
g20
((lp556
(I7
I3
tp557
a(I3
I3
tp558
a(I1
I5
tp559
a(I6
I1
tp560
a(I1
I4
tp561
a(I7
I4
tp562
a(I2
I0
tp563
a(I11
I1
tp564
a(I2
I3
tp565
a(I0
I7
tp566
a(I8
I7
tp567
a(I6
I2
tp568
ag553
atp569
Rp570
sg15
I13
sg31
g20
((lp571
(I0
I1
tp572
a(I2
I6
tp573
a(I2
I9
tp574
a(I11
I8
tp575
a(I2
I8
tp576
a(I9
I3
tp577
a(I6
I0
tp578
a(I3
I0
tp579
a(I7
I7
tp580
a(I6
I3
tp581
a(I9
I2
tp582
a(I12
I4
tp583
a(I0
I4
tp584
a(I2
I4
tp585
a(I9
I7
tp586
atp587
Rp588
sg13
((I12
I0
tp589
(I7
I8
tp590
(I2
I5
tp591
(I4
I5
tp592
(I12
I7
tp593
(I9
I4
tp594
tp595
sg14
I10
sbs(iproblems
RoomID
p596
(dp597
g10
I12
sg11
(I3
I3
tp598
sg13
I6
sg14
I12
sg15
I12
sg16
I6241004153072892496
sb(imulti_robot_problem
MultiRobotState
p599
(dp600
g19
g20
((lp601
(I9
I3
tp602
ag598
a(I2
I9
tp603
a(I7
I1
tp604
a(I11
I8
tp605
a(I3
I4
tp606
a(I6
I1
tp607
a(I3
I1
tp608
a(I5
I2
tp609
a(I4
I3
tp610
a(I4
I2
tp611
a(I8
I5
tp612
a(I11
I6
tp613
atp614
Rp615
sg15
I12
sg31
g20
((lp616
(I4
I10
tp617
a(I0
I0
tp618
a(I7
I10
tp619
a(I5
I11
tp620
a(I8
I0
tp621
a(I9
I10
tp622
a(I8
I7
tp623
a(I10
I1
tp624
a(I2
I5
tp625
a(I8
I9
tp626
a(I4
I11
tp627
a(I10
I4
tp628
atp629
Rp630
sg13
((I8
I6
tp631
(I5
I4
tp632
(I7
I2
tp633
(I4
I7
tp634
(I1
I7
tp635
(I5
I6
tp636
tp637
sg14
I12
sbs(iproblems
RoomID
p638
(dp639
g10
I11
sg11
(I3
I6
tp640
sg13
I7
sg14
I11
sg15
I12
sg16
I8554152435637441414
sb(imulti_robot_problem
MultiRobotState
p641
(dp642
g19
g20
((lp643
(I3
I1
tp644
a(I3
I8
tp645
a(I4
I5
tp646
a(I2
I8
tp647
a(I11
I2
tp648
a(I1
I7
tp649
a(I7
I5
tp650
a(I9
I4
tp651
a(I3
I7
tp652
a(I5
I1
tp653
a(I9
I6
tp654
a(I7
I9
tp655
a(I6
I3
tp656
a(I7
I6
tp657
a(I4
I4
tp658
a(I7
I4
tp659
a(I1
I8
tp660
a(I8
I8
tp661
ag640
a(I0
I4
tp662
a(I0
I9
tp663
a(I8
I6
tp664
a(I9
I7
tp665
atp666
Rp667
sg15
I12
sg31
g20
((lp668
(I11
I10
tp669
a(I4
I9
tp670
a(I2
I9
tp671
a(I3
I0
tp672
a(I8
I0
tp673
a(I4
I7
tp674
a(I1
I4
tp675
a(I0
I3
tp676
a(I0
I8
tp677
a(I5
I2
tp678
a(I7
I2
tp679
atp680
Rp681
sg13
((I6
I4
tp682
(I8
I2
tp683
(I8
I5
tp684
(I10
I8
tp685
(I1
I2
tp686
(I6
I0
tp687
(I10
I4
tp688
tp689
sg14
I11
sbssg164
S'heavy_roomset'
p690
sbsg164
g166
sg167
(dp691
g451
((lp692
F41.330000000001746
tp693
sg500
((lp694
F42.230000000003201
tp695
sg551
((lp696
F44.379999999997381
tp697
sg596
((lp698
F41.589999999996508
tp699
sg638
((lp700
F48.889999999999418
tp701
ssba(imeasure_core
ProblemSetSolution
p702
(dp703
g3
g4
sg164
S"AnytimeBeam-w15-gf(1.5, 'exp')_with_PowerHeuristic2"
p704
sg167
(dp705
g8
((lp706
(F0.38000000000465661
I10
tp707
aF40.0
tp708
sg48
((lp709
(F0.19000000000232831
I8
tp710
aF40.040000000000873
tp711
sg76
((lp712
(F2.9900000000052387
I48
tp713
aF40.060000000004948
tp714
sg106
((lp715
(F1.75
I13
tp716
aF40.32999999999447
tp717
sg135
((lp718
(F1.0300000000061118
I8
tp719
aF40.130000000004657
tp720
ssba(imeasure_core
ProblemSetSolution
p721
(dp722
g3
g186
sg164
g704
sg167
(dp723
g189
((lp724
F40.120000000002619
tp725
sg237
((lp726
(F3.5599999999976717
I30
tp727
aF40.040000000000873
tp728
sg290
((lp729
(F0.84999999999854481
I13
tp730
aF40.040000000000873
tp731
sg334
((lp732
(F14.110000000000582
I55
tp733
aF40.209999999999127
tp734
sg380
((lp735
F40.080000000001746
tp736
ssba(imeasure_core
ProblemSetSolution
p737
(dp738
g3
g448
sg164
g704
sg167
(dp739
g451
((lp740
F41.430000000000291
tp741
sg500
((lp742
F42.589999999996508
tp743
sg551
((lp744
F44.489999999997963
tp745
sg596
((lp746
F41.360000000000582
tp747
sg638
((lp748
F48.830000000001746
tp749
ssba(imeasure_core
ProblemSetSolution
p750
(dp751
g3
g4
sg164
S"AnytimeBeam-w25-gf(1.5, 'exp')_with_PowerHeuristic2"
p752
sg167
(dp753
g8
((lp754
(F0.44000000000232831
I10
tp755
aF40.130000000004657
tp756
sg48
((lp757
(F0.18999999999505235
I8
tp758
aF40.009999999994761
tp759
sg76
((lp760
(F3.0
I48
tp761
aF40.069999999999709
tp762
sg106
((lp763
(F1.7300000000032014
I13
tp764
aF40.110000000000582
tp765
sg135
((lp766
(F1.0200000000040745
I8
tp767
aF40.139999999999418
tp768
ssba(imeasure_core
ProblemSetSolution
p769
(dp770
g3
g186
sg164
g752
sg167
(dp771
g189
((lp772
F40.120000000002619
tp773
sg237
((lp774
(F3.5599999999976717
I30
tp775
aF40.129999999997381
tp776
sg290
((lp777
(F0.84999999999854481
I13
tp778
aF40.120000000002619
tp779
sg334
((lp780
(F14.089999999996508
I55
tp781
aF40.190000000002328
tp782
sg380
((lp783
F40.159999999996217
tp784
ssba(imeasure_core
ProblemSetSolution
p785
(dp786
g3
g448
sg164
g752
sg167
(dp787
g451
((lp788
F41.330000000001746
tp789
sg500
((lp790
F42.029999999998836
tp791
sg551
((lp792
F44.279999999998836
tp793
sg596
((lp794
F41.529999999998836
tp795
sg638
((lp796
F48.830000000001746
tp797
ssba(imeasure_core
ProblemSetSolution
p798
(dp799
g3
g4
sg164
S"AnytimeBeam-w35-gf(1.5, 'exp')_with_PowerHeuristic2"
p800
sg167
(dp801
g8
((lp802
(F0.5
I10
tp803
aF40.220000000001164
tp804
sg48
((lp805
(F0.19999999999708962
I8
tp806
aF40.049999999995634
tp807
sg76
((lp808
(F2.9500000000043656
I48
tp809
aF40.17000000000553
tp810
sg106
((lp811
(F1.7399999999979627
I13
tp812
aF40.419999999998254
tp813
sg135
((lp814
(F1.0199999999967986
I8
tp815
aF40.159999999996217
tp816
ssba(imeasure_core
ProblemSetSolution
p817
(dp818
g3
g186
sg164
g800
sg167
(dp819
g189
((lp820
F40.150000000001455
tp821
sg237
((lp822
(F3.5500000000029104
I30
tp823
aF40.020000000004075
tp824
sg290
((lp825
(F0.85999999999330612
I13
tp826
aF40.029999999998836
tp827
sg334
((lp828
(F14.139999999999418
I55
tp829
aF40.229999999995925
tp830
sg380
((lp831
F40.240000000005239
tp832
ssba(imeasure_core
ProblemSetSolution
p833
(dp834
g3
g448
sg164
g800
sg167
(dp835
g451
((lp836
F41.330000000001746
tp837
sg500
((lp838
F42.010000000002037
tp839
sg551
((lp840
F44.419999999998254
tp841
sg596
((lp842
F41.430000000000291
tp843
sg638
((lp844
F48.900000000001455
tp845
ssba(imeasure_core
ProblemSetSolution
p846
(dp847
g3
g4
sg164
S"AnytimeBeam-w45-gf(1.5, 'exp')_with_PowerHeuristic2"
p848
sg167
(dp849
g8
((lp850
(F0.55000000000291038
I10
tp851
aF40.140000000006694
tp852
sg48
((lp853
(F0.18999999999505235
I8
tp854
aF40.009999999994761
tp855
sg76
((lp856
(F2.9700000000011642
I48
tp857
aF40.0
tp858
sg106
((lp859
(F1.7300000000032014
I13
tp860
aF40.230000000003201
tp861
sg135
((lp862
(F1.0199999999967986
I8
tp863
aF40.389999999999418
tp864
ssba(imeasure_core
ProblemSetSolution
p865
(dp866
g3
g186
sg164
g848
sg167
(dp867
g189
((lp868
F40.180000000000291
tp869
sg237
((lp870
(F3.569999999999709
I30
tp871
aF40.049999999995634
tp872
sg290
((lp873
(F0.85000000000582077
I13
tp874
aF40.020000000004075
tp875
sg334
((lp876
(F14.239999999997963
I55
tp877
aF40.379999999997381
tp878
sg380
((lp879
F40.180000000000291
tp880
ssba(imeasure_core
ProblemSetSolution
p881
(dp882
g3
g448
sg164
g848
sg167
(dp883
g451
((lp884
F41.440000000002328
tp885
sg500
((lp886
F42.279999999998836
tp887
sg551
((lp888
F44.5
tp889
sg596
((lp890
F41.599999999998545
tp891
sg638
((lp892
F48.940000000002328
tp893
ssba(imeasure_core
ProblemSetSolution
p894
(dp895
g3
g4
sg164
S"AnytimeBeam-w5-gf(1.5, 'exp')_with_LinearHeuristic"
p896
sg167
(dp897
g8
((lp898
(F0.87000000000261934
I29
tp899
aF40.240000000005239
tp900
sg48
((lp901
(F0.29000000000087311
I7
tp902
aF40.009999999994761
tp903
sg76
((lp904
F40.120000000002619
tp905
sg106
((lp906
F40.0
tp907
sg135
((lp908
F40.190000000002328
tp909
ssba(imeasure_core
ProblemSetSolution
p910
(dp911
g3
g186
sg164
g896
sg167
(dp912
g189
((lp913
F40.059999999997672
tp914
sg237
((lp915
F41.139999999999418
tp916
sg290
((lp917
(F2.0299999999988358
I27
tp918
aF40.239999999997963
tp919
sg334
((lp920
(F1.1000000000058208
I8
tp921
aF40.060000000004948
tp922
sg380
((lp923
F40.319999999999709
tp924
ssba(imeasure_core
ProblemSetSolution
p925
(dp926
g3
g448
sg164
g896
sg167
(dp927
g451
((lp928
F41.960000000006403
tp929
sg500
((lp930
F41.129999999997381
tp931
sg551
((lp932
F43.430000000000291
tp933
sg596
((lp934
F45.639999999999418
tp935
sg638
((lp936
F57.760000000002037
tp937
ssba(imeasure_core
ProblemSetSolution
p938
(dp939
g3
g4
sg164
S"AnytimeBeam-w15-gf(1.5, 'exp')_with_LinearHeuristic"
p940
sg167
(dp941
g8
((lp942
(F1.1399999999994179
I29
tp943
aF40.150000000001455
tp944
sg48
((lp945
(F0.30000000000291038
I7
tp946
aF40.05000000000291
tp947
sg76
((lp948
F40.339999999996508
tp949
sg106
((lp950
F40.270000000004075
tp951
sg135
((lp952
F40.229999999995925
tp953
ssba(imeasure_core
ProblemSetSolution
p954
(dp955
g3
g186
sg164
g940
sg167
(dp956
g189
((lp957
F40.120000000002619
tp958
sg237
((lp959
F40.799999999995634
tp960
sg290
((lp961
(F2.0
I27
tp962
aF40.220000000001164
tp963
sg334
((lp964
(F1.0900000000037835
I8
tp965
aF40.120000000002619
tp966
sg380
((lp967
F40.650000000001455
tp968
ssba(imeasure_core
ProblemSetSolution
p969
(dp970
g3
g448
sg164
g940
sg167
(dp971
g451
((lp972
F42.409999999996217
tp973
sg500
((lp974
F41.55000000000291
tp975
sg551
((lp976
F43.819999999999709
tp977
sg596
((lp978
F45.819999999999709
tp979
sg638
((lp980
F58.069999999999709
tp981
ssba(imeasure_core
ProblemSetSolution
p982
(dp983
g3
g4
sg164
S"AnytimeBeam-w25-gf(1.5, 'exp')_with_LinearHeuristic"
p984
sg167
(dp985
g8
((lp986
(F1.2799999999988358
I29
tp987
aF40.169999999998254
tp988
sg48
((lp989
(F0.30000000000291038
I7
tp990
aF40.05000000000291
tp991
sg76
((lp992
F40.25
tp993
sg106
((lp994
F40.159999999996217
tp995
sg135
((lp996
F40.379999999997381
tp997
ssba(imeasure_core
ProblemSetSolution
p998
(dp999
g3
g186
sg164
g984
sg167
(dp1000
g189
((lp1001
F40.090000000003783
tp1002
sg237
((lp1003
F40.989999999997963
tp1004
sg290
((lp1005
(F2.0100000000020373
I27
tp1006
aF40.220000000001164
tp1007
sg334
((lp1008
(F1.0800000000017462
I8
tp1009
aF40.360000000000582
tp1010
sg380
((lp1011
F40.430000000000291
tp1012
ssba(imeasure_core
ProblemSetSolution
p1013
(dp1014
g3
g448
sg164
g984
sg167
(dp1015
g451
((lp1016
F42.19999999999709
tp1017
sg500
((lp1018
F41.090000000003783
tp1019
sg551
((lp1020
F43.559999999997672
tp1021
sg596
((lp1022
F45.950000000004366
tp1023
sg638
((lp1024
F57.889999999999418
tp1025
ssba(imeasure_core
ProblemSetSolution
p1026
(dp1027
g3
g4
sg164
S"AnytimeBeam-w35-gf(1.5, 'exp')_with_LinearHeuristic"
p1028
sg167
(dp1029
g8
((lp1030
(F1.4899999999979627
I29
tp1031
aF40.339999999996508
tp1032
sg48
((lp1033
(F0.30000000000291038
I7
tp1034
aF40.010000000002037
tp1035
sg76
((lp1036
F40.419999999998254
tp1037
sg106
((lp1038
F40.110000000000582
tp1039
sg135
((lp1040
F40.389999999999418
tp1041
ssba(imeasure_core
ProblemSetSolution
p1042
(dp1043
g3
g186
sg164
g1028
sg167
(dp1044
g189
((lp1045
F40.069999999999709
tp1046
sg237
((lp1047
F41.020000000004075
tp1048
sg290
((lp1049
(F2.0199999999967986
I27
tp1050
aF40.029999999998836
tp1051
sg334
((lp1052
(F1.0899999999965075
I8
tp1053
aF40.259999999994761
tp1054
sg380
((lp1055
F40.270000000004075
tp1056
ssba(imeasure_core
ProblemSetSolution
p1057
(dp1058
g3
g448
sg164
g1028
sg167
(dp1059
g451
((lp1060
F41.94999999999709
tp1061
sg500
((lp1062
F41.069999999999709
tp1063
sg551
((lp1064
F43.490000000005239
tp1065
sg596
((lp1066
F45.559999999997672
tp1067
sg638
((lp1068
F58.040000000000873
tp1069
ssba(imeasure_core
ProblemSetSolution
p1070
(dp1071
g3
g4
sg164
S"AnytimeBeam-w45-gf(1.5, 'exp')_with_LinearHeuristic"
p1072
sg167
(dp1073
g8
((lp1074
(F1.6799999999930151
I29
tp1075
aF40.279999999998836
tp1076
sg48
((lp1077
(F0.29999999999563443
I7
tp1078
aF40.049999999995634
tp1079
sg76
((lp1080
F40.099999999998545
tp1081
sg106
((lp1082
F40.650000000001455
tp1083
sg135
((lp1084
F40.190000000002328
tp1085
ssba(imeasure_core
ProblemSetSolution
p1086
(dp1087
g3
g186
sg164
g1072
sg167
(dp1088
g189
((lp1089
F40.119999999995343
tp1090
sg237
((lp1091
F40.100000000005821
tp1092
sg290
((lp1093
(F2.0199999999967986
I27
tp1094
aF40.139999999999418
tp1095
sg334
((lp1096
(F1.0899999999965075
I8
tp1097
aF40.07999999999447
tp1098
sg380
((lp1099
F40.630000000004657
tp1100
ssba(imeasure_core
ProblemSetSolution
p1101
(dp1102
g3
g448
sg164
g1072
sg167
(dp1103
g451
((lp1104
F41.939999999995052
tp1105
sg500
((lp1106
F41.100000000005821
tp1107
sg551
((lp1108
F43.529999999998836
tp1109
sg596
((lp1110
F45.599999999998545
tp1111
sg638
((lp1112
F57.930000000000291
tp1113
ssba.