(lp0
(imeasure_core
ProblemSetSolution
p1
(dp2
S'roomset'
p3
(imeasure_core
RoomSet
p4
(dp5
S'rooms'
p6
(dp7
(iproblems
RoomID
p8
(dp9
S'dusts'
p10
I8
sS'obstacles'
p11
(I1
I6
tp12
sS'robots'
p13
I4
sS'height'
p14
I10
sS'width'
p15
I9
sS'seed'
p16
I3433768247134474666
sb(imulti_robot_problem
MultiRobotState
p17
(dp18
S'obstacle_locations'
p19
c__builtin__
frozenset
p20
((lp21
(I4
I9
tp22
a(I4
I6
tp23
a(I0
I7
tp24
ag12
a(I0
I9
tp25
a(I8
I6
tp26
a(I0
I8
tp27
a(I3
I3
tp28
atp29
Rp30
sg15
I9
sS'dirt_locations'
p31
g20
((lp32
(I3
I2
tp33
a(I7
I7
tp34
a(I1
I9
tp35
a(I8
I7
tp36
a(I5
I4
tp37
a(I1
I1
tp38
a(I5
I8
tp39
a(I7
I9
tp40
atp41
Rp42
sg13
((I5
I9
tp43
(I5
I5
tp44
(I6
I9
tp45
(I2
I0
tp46
tp47
sg14
I10
sbs(iproblems
RoomID
p48
(dp49
g10
I7
sg11
(I2
I2
tp50
sg13
I3
sg14
I9
sg15
I9
sg16
I6241004153072892496
sb(imulti_robot_problem
MultiRobotState
p51
(dp52
g19
g20
((lp53
(I7
I3
tp54
a(I3
I2
tp55
a(I7
I1
tp56
a(I5
I1
tp57
ag50
a(I4
I1
tp58
a(I7
I7
tp59
atp60
Rp61
sg15
I9
sg31
g20
((lp62
(I3
I8
tp63
a(I1
I5
tp64
a(I4
I8
tp65
a(I3
I7
tp66
a(I5
I7
tp67
a(I3
I4
tp68
a(I6
I0
tp69
atp70
Rp71
sg13
((I6
I5
tp72
(I4
I3
tp73
(I3
I5
tp74
tp75
sg14
I9
sbs(iproblems
RoomID
p76
(dp77
g10
I9
sg11
(I4
I3
tp78
sg13
I3
sg14
I9
sg15
I8
sg16
I6161655336973386967
sb(imulti_robot_problem
MultiRobotState
p79
(dp80
g19
g20
((lp81
(I6
I3
tp82
a(I7
I3
tp83
a(I5
I4
tp84
ag78
a(I6
I6
tp85
a(I5
I2
tp86
a(I2
I1
tp87
atp88
Rp89
sg15
I8
sg31
g20
((lp90
(I6
I4
tp91
a(I6
I8
tp92
a(I2
I0
tp93
a(I5
I7
tp94
a(I1
I4
tp95
a(I1
I5
tp96
a(I0
I5
tp97
a(I2
I5
tp98
a(I4
I1
tp99
atp100
Rp101
sg13
((I3
I5
tp102
(I4
I6
tp103
(I4
I5
tp104
tp105
sg14
I9
sbs(iproblems
RoomID
p106
(dp107
g10
I10
sg11
(I6
I4
tp108
sg13
I4
sg14
I7
sg15
I10
sg16
I3125140389427113411
sb(imulti_robot_problem
MultiRobotState
p109
(dp110
g19
g20
((lp111
(I6
I3
tp112
a(I5
I1
tp113
a(I5
I2
tp114
ag108
atp115
Rp116
sg15
I10
sg31
g20
((lp117
(I1
I2
tp118
a(I7
I3
tp119
a(I0
I0
tp120
a(I3
I3
tp121
a(I6
I2
tp122
a(I1
I6
tp123
a(I9
I4
tp124
a(I2
I5
tp125
a(I0
I2
tp126
a(I7
I2
tp127
atp128
Rp129
sg13
((I9
I0
tp130
(I6
I5
tp131
(I1
I4
tp132
(I1
I3
tp133
tp134
sg14
I7
sbs(iproblems
RoomID
p135
(dp136
g10
I6
sg11
(I7
I4
tp137
sg13
I4
sg14
I8
sg15
I9
sg16
I8554152435637441414
sb(imulti_robot_problem
MultiRobotState
p138
(dp139
g19
g20
((lp140
(I6
I6
tp141
a(I5
I7
tp142
ag137
a(I2
I0
tp143
a(I7
I5
tp144
a(I3
I7
tp145
a(I0
I3
tp146
a(I4
I1
tp147
atp148
Rp149
sg15
I9
sg31
g20
((lp150
(I7
I3
tp151
a(I1
I6
tp152
a(I5
I1
tp153
a(I8
I6
tp154
a(I0
I2
tp155
a(I4
I0
tp156
atp157
Rp158
sg13
((I5
I3
tp159
(I6
I2
tp160
(I6
I3
tp161
(I6
I4
tp162
tp163
sg14
I8
sbssS'name'
p164
S'easy_roomset'
p165
sbsg164
S'LimitedTimeAStar_with_PowerHeuristic2'
p166
sS'solutions'
p167
(dp168
g8
((lp169
F0.36000000000058208
tp170
sg48
((lp171
F0.090000000000145519
tp172
sg76
((lp173
F0.35000000000218279
tp174
sg106
((lp175
F0.81999999999970896
tp176
sg135
((lp177
F0.25999999999839929
tp178
ssba(imeasure_core
ProblemSetSolution
p179
(dp180
g3
(imeasure_core
RoomSet
p181
(dp182
g6
(dp183
(iproblems
RoomID
p184
(dp185
g10
I10
sg11
(I1
I6
tp186
sg13
I3
sg14
I12
sg15
I9
sg16
I4927760411464392432
sb(imulti_robot_problem
MultiRobotState
p187
(dp188
g19
g20
((lp189
(I5
I9
tp190
a(I1
I3
tp191
a(I4
I5
tp192
a(I7
I7
tp193
a(I6
I0
tp194
a(I3
I9
tp195
ag186
a(I8
I7
tp196
a(I3
I7
tp197
a(I2
I5
tp198
a(I7
I9
tp199
a(I3
I1
tp200
a(I4
I6
tp201
a(I2
I9
tp202
a(I3
I10
tp203
a(I6
I10
tp204
a(I2
I11
tp205
a(I3
I8
tp206
a(I0
I6
tp207
a(I3
I6
tp208
a(I2
I2
tp209
a(I2
I3
tp210
a(I3
I4
tp211
a(I7
I6
tp212
atp213
Rp214
sg15
I9
sg31
g20
((lp215
(I1
I2
tp216
a(I6
I4
tp217
a(I6
I9
tp218
a(I8
I2
tp219
a(I8
I0
tp220
a(I1
I10
tp221
a(I0
I9
tp222
a(I1
I0
tp223
a(I0
I2
tp224
a(I4
I11
tp225
atp226
Rp227
sg13
((I1
I11
tp228
(I0
I11
tp229
(I7
I5
tp230
tp231
sg14
I12
sbs(iproblems
RoomID
p232
(dp233
g10
I8
sg11
(I1
I11
tp234
sg13
I4
sg14
I12
sg15
I11
sg16
I3433768247134474666
sb(imulti_robot_problem
MultiRobotState
p235
(dp236
g19
g20
((lp237
(I9
I3
tp238
a(I3
I6
tp239
a(I4
I8
tp240
a(I4
I5
tp241
a(I2
I8
tp242
a(I10
I6
tp243
a(I2
I10
tp244
a(I8
I7
tp245
a(I2
I3
tp246
a(I0
I10
tp247
a(I9
I4
tp248
a(I3
I7
tp249
ag234
a(I10
I3
tp250
a(I5
I8
tp251
a(I10
I4
tp252
a(I2
I7
tp253
a(I10
I5
tp254
a(I6
I7
tp255
a(I2
I9
tp256
a(I9
I6
tp257
a(I1
I8
tp258
a(I3
I8
tp259
a(I0
I11
tp260
a(I8
I8
tp261
a(I4
I11
tp262
a(I5
I0
tp263
a(I0
I9
tp264
a(I4
I9
tp265
a(I7
I8
tp266
atp267
Rp268
sg15
I11
sg31
g20
((lp269
(I4
I3
tp270
a(I5
I11
tp271
a(I9
I8
tp272
a(I2
I11
tp273
a(I9
I11
tp274
a(I7
I10
tp275
a(I1
I1
tp276
a(I6
I5
tp277
atp278
Rp279
sg13
((I7
I11
tp280
(I7
I7
tp281
(I2
I0
tp282
(I10
I9
tp283
tp284
sg14
I12
sbs(iproblems
RoomID
p285
(dp286
g10
I6
sg11
(I5
I4
tp287
sg13
I4
sg14
I10
sg15
I11
sg16
I8554152435637441414
sb(imulti_robot_problem
MultiRobotState
p288
(dp289
g19
g20
((lp290
(I6
I4
tp291
ag287
a(I4
I5
tp292
a(I2
I8
tp293
a(I9
I3
tp294
a(I7
I7
tp295
a(I0
I7
tp296
a(I6
I2
tp297
a(I2
I1
tp298
a(I3
I7
tp299
a(I5
I1
tp300
a(I0
I3
tp301
a(I8
I5
tp302
a(I5
I3
tp303
a(I3
I8
tp304
a(I8
I3
tp305
a(I4
I9
tp306
a(I6
I8
tp307
a(I7
I0
tp308
a(I6
I3
tp309
a(I7
I5
tp310
a(I3
I6
tp311
a(I8
I6
tp312
a(I7
I8
tp313
a(I10
I9
tp314
atp315
Rp316
sg15
I11
sg31
g20
((lp317
(I1
I3
tp318
a(I9
I4
tp319
a(I5
I0
tp320
a(I3
I0
tp321
a(I4
I2
tp322
a(I7
I2
tp323
atp324
Rp325
sg13
((I8
I2
tp326
(I8
I4
tp327
(I9
I7
tp328
(I0
I2
tp329
tp330
sg14
I10
sbs(iproblems
RoomID
p331
(dp332
g10
I7
sg11
(I10
I3
tp333
sg13
I3
sg14
I11
sg15
I11
sg16
I6241004153072892496
sb(imulti_robot_problem
MultiRobotState
p334
(dp335
g19
g20
((lp336
(I3
I2
tp337
a(I0
I0
tp338
a(I9
I8
tp339
a(I7
I7
tp340
a(I8
I9
tp341
a(I6
I2
tp342
a(I2
I3
tp343
a(I9
I4
tp344
a(I4
I2
tp345
a(I5
I1
tp346
a(I0
I3
tp347
ag333
a(I1
I2
tp348
a(I9
I5
tp349
a(I5
I5
tp350
a(I10
I7
tp351
a(I8
I5
tp352
a(I6
I1
tp353
a(I1
I8
tp354
a(I8
I8
tp355
a(I8
I6
tp356
a(I7
I8
tp357
a(I2
I4
tp358
atp359
Rp360
sg15
I11
sg31
g20
((lp361
(I4
I10
tp362
a(I6
I9
tp363
a(I4
I9
tp364
a(I9
I1
tp365
a(I5
I10
tp366
a(I3
I10
tp367
a(I8
I0
tp368
atp369
Rp370
sg13
((I5
I4
tp371
(I4
I6
tp372
(I1
I6
tp373
tp374
sg14
I11
sbs(iproblems
RoomID
p375
(dp376
g10
I10
sg11
(I5
I4
tp377
sg13
I4
sg14
I9
sg15
I12
sg16
I3125140389427113411
sb(imulti_robot_problem
MultiRobotState
p378
(dp379
g19
g20
((lp380
(I7
I3
tp381
a(I4
I7
tp382
a(I2
I6
tp383
a(I2
I7
tp384
a(I6
I6
tp385
a(I5
I6
tp386
ag377
a(I1
I4
tp387
a(I6
I2
tp388
a(I10
I1
tp389
a(I3
I7
tp390
a(I5
I1
tp391
a(I2
I5
tp392
a(I6
I5
tp393
a(I3
I3
tp394
a(I6
I4
tp395
a(I9
I5
tp396
a(I6
I7
tp397
a(I5
I5
tp398
a(I10
I7
tp399
a(I6
I1
tp400
a(I7
I4
tp401
a(I8
I6
tp402
a(I5
I3
tp403
a(I5
I2
tp404
a(I8
I4
tp405
atp406
Rp407
sg15
I12
sg31
g20
((lp408
(I0
I0
tp409
a(I11
I4
tp410
a(I8
I2
tp411
a(I3
I0
tp412
a(I6
I0
tp413
a(I1
I8
tp414
a(I2
I3
tp415
a(I0
I3
tp416
a(I11
I6
tp417
a(I3
I5
tp418
atp419
Rp420
sg13
((I11
I0
tp421
(I7
I7
tp422
(I1
I5
tp423
(I2
I4
tp424
tp425
sg14
I9
sbssg164
S'mild_roomset'
p426
sbsg164
g166
sg167
(dp427
g184
((lp428
F129.21000000000276
tp429
sg232
((lp430
F39.219999999997526
tp431
sg285
((lp432
F1.680000000000291
tp433
sg331
((lp434
F0.15000000000145519
tp435
sg375
((lp436
F382.48999999999796
tp437
ssba(imeasure_core
ProblemSetSolution
p438
(dp439
g3
(imeasure_core
RoomSet
p440
(dp441
g6
(dp442
(iproblems
RoomID
p443
(dp444
g10
I15
sg11
(I3
I3
tp445
sg13
I5
sg14
I13
sg15
I10
sg16
I4927760411464392432
sb(imulti_robot_problem
MultiRobotState
p446
(dp447
g19
g20
((lp448
(I6
I10
tp449
a(I6
I11
tp450
a(I3
I11
tp451
a(I2
I1
tp452
a(I2
I10
tp453
a(I3
I9
tp454
a(I2
I3
tp455
a(I1
I0
tp456
a(I4
I0
tp457
a(I1
I2
tp458
ag445
a(I7
I6
tp459
a(I3
I1
tp460
a(I1
I1
tp461
a(I1
I7
tp462
a(I1
I3
tp463
a(I3
I10
tp464
a(I9
I12
tp465
atp466
Rp467
sg15
I10
sg31
g20
((lp468
(I9
I0
tp469
a(I9
I7
tp470
a(I7
I0
tp471
a(I8
I2
tp472
a(I5
I5
tp473
a(I8
I10
tp474
a(I1
I4
tp475
a(I8
I8
tp476
a(I2
I12
tp477
a(I8
I7
tp478
a(I1
I10
tp479
a(I7
I11
tp480
a(I4
I12
tp481
a(I0
I2
tp482
a(I0
I10
tp483
atp484
Rp485
sg13
((I1
I12
tp486
(I0
I12
tp487
(I8
I5
tp488
(I7
I9
tp489
(I7
I4
tp490
tp491
sg14
I13
sbs(iproblems
RoomID
p492
(dp493
g10
I13
sg11
(I4
I11
tp494
sg13
I6
sg14
I13
sg15
I12
sg16
I3433768247134474666
sb(imulti_robot_problem
MultiRobotState
p495
(dp496
g19
g20
((lp497
(I4
I10
tp498
a(I5
I11
tp499
a(I6
I11
tp500
a(I9
I8
tp501
a(I6
I0
tp502
a(I0
I12
tp503
a(I4
I12
tp504
a(I2
I3
tp505
a(I2
I12
tp506
a(I10
I3
tp507
ag494
a(I11
I7
tp508
a(I3
I12
tp509
a(I3
I10
tp510
a(I11
I3
tp511
a(I0
I11
tp512
a(I8
I8
tp513
a(I1
I9
tp514
a(I1
I6
tp515
a(I1
I1
tp516
a(I0
I10
tp517
atp518
Rp519
sg15
I12
sg31
g20
((lp520
(I10
I8
tp521
a(I10
I5
tp522
a(I6
I7
tp523
a(I6
I8
tp524
a(I4
I4
tp525
a(I10
I12
tp526
a(I9
I9
tp527
a(I8
I10
tp528
a(I7
I5
tp529
a(I7
I10
tp530
a(I6
I12
tp531
a(I5
I10
tp532
a(I5
I3
tp533
atp534
Rp535
sg13
((I7
I12
tp536
(I7
I7
tp537
(I8
I12
tp538
(I2
I0
tp539
(I11
I9
tp540
(I1
I2
tp541
tp542
sg14
I13
sbs(iproblems
RoomID
p543
(dp544
g10
I11
sg11
(I3
I6
tp545
sg13
I7
sg14
I11
sg15
I12
sg16
I8554152435637441414
sb(imulti_robot_problem
MultiRobotState
p546
(dp547
g19
g20
((lp548
(I3
I1
tp549
a(I3
I8
tp550
a(I4
I5
tp551
a(I2
I8
tp552
a(I11
I2
tp553
a(I1
I7
tp554
a(I7
I5
tp555
a(I9
I4
tp556
a(I3
I7
tp557
a(I5
I1
tp558
a(I9
I6
tp559
a(I7
I9
tp560
a(I6
I3
tp561
a(I7
I6
tp562
a(I4
I4
tp563
a(I7
I4
tp564
a(I1
I8
tp565
a(I8
I8
tp566
ag545
a(I0
I4
tp567
a(I0
I9
tp568
a(I8
I6
tp569
a(I9
I7
tp570
atp571
Rp572
sg15
I12
sg31
g20
((lp573
(I11
I10
tp574
a(I4
I9
tp575
a(I2
I9
tp576
a(I3
I0
tp577
a(I8
I0
tp578
a(I4
I7
tp579
a(I1
I4
tp580
a(I0
I3
tp581
a(I0
I8
tp582
a(I5
I2
tp583
a(I7
I2
tp584
atp585
Rp586
sg13
((I6
I4
tp587
(I8
I2
tp588
(I8
I5
tp589
(I10
I8
tp590
(I1
I2
tp591
(I6
I0
tp592
(I10
I4
tp593
tp594
sg14
I11
sbs(iproblems
RoomID
p595
(dp596
g10
I15
sg11
(I1
I6
tp597
sg13
I6
sg14
I10
sg15
I13
sg16
I3125140389427113411
sb(imulti_robot_problem
MultiRobotState
p598
(dp599
g19
g20
((lp600
(I7
I3
tp601
a(I3
I3
tp602
a(I1
I5
tp603
a(I6
I1
tp604
a(I1
I4
tp605
a(I7
I4
tp606
a(I2
I0
tp607
a(I11
I1
tp608
a(I2
I3
tp609
a(I0
I7
tp610
a(I8
I7
tp611
a(I6
I2
tp612
ag597
atp613
Rp614
sg15
I13
sg31
g20
((lp615
(I0
I1
tp616
a(I2
I6
tp617
a(I2
I9
tp618
a(I11
I8
tp619
a(I2
I8
tp620
a(I9
I3
tp621
a(I6
I0
tp622
a(I3
I0
tp623
a(I7
I7
tp624
a(I6
I3
tp625
a(I9
I2
tp626
a(I12
I4
tp627
a(I0
I4
tp628
a(I2
I4
tp629
a(I9
I7
tp630
atp631
Rp632
sg13
((I12
I0
tp633
(I7
I8
tp634
(I2
I5
tp635
(I4
I5
tp636
(I12
I7
tp637
(I9
I4
tp638
tp639
sg14
I10
sbs(iproblems
RoomID
p640
(dp641
g10
I12
sg11
(I3
I3
tp642
sg13
I6
sg14
I12
sg15
I12
sg16
I6241004153072892496
sb(imulti_robot_problem
MultiRobotState
p643
(dp644
g19
g20
((lp645
(I9
I3
tp646
ag642
a(I2
I9
tp647
a(I7
I1
tp648
a(I11
I8
tp649
a(I3
I4
tp650
a(I6
I1
tp651
a(I3
I1
tp652
a(I5
I2
tp653
a(I4
I3
tp654
a(I4
I2
tp655
a(I8
I5
tp656
a(I11
I6
tp657
atp658
Rp659
sg15
I12
sg31
g20
((lp660
(I4
I10
tp661
a(I0
I0
tp662
a(I7
I10
tp663
a(I5
I11
tp664
a(I8
I0
tp665
a(I9
I10
tp666
a(I8
I7
tp667
a(I10
I1
tp668
a(I2
I5
tp669
a(I8
I9
tp670
a(I4
I11
tp671
a(I10
I4
tp672
atp673
Rp674
sg13
((I8
I6
tp675
(I5
I4
tp676
(I7
I2
tp677
(I4
I7
tp678
(I1
I7
tp679
(I5
I6
tp680
tp681
sg14
I12
sbssg164
S'heavy_roomset'
p682
sbsg164
g166
sg167
(dp683
g443
((lp684
F447.54999999999927
tp685
sg492
((lp686
F19.970000000001164
tp687
sg543
((lp688
F49.709999999999127
tp689
sg640
((lp690
F385.54000000000087
tp691
sg595
((lp692
F391.77000000000044
tp693
ssba.