(lp0
(imeasure_core
ProblemSetSolution
p1
(dp2
S'roomset'
p3
(imeasure_core
RoomSet
p4
(dp5
S'rooms'
p6
(dp7
(iproblems
RoomID
p8
(dp9
S'dusts'
p10
I8
sS'obstacles'
p11
(I2
I4
tp12
sS'robots'
p13
I4
sS'height'
p14
I9
sS'width'
p15
I7
sS'seed'
p16
I7283207964119141687
sb(imulti_robot_problem
MultiRobotState
p17
(dp18
S'obstacle_locations'
p19
c__builtin__
frozenset
p20
((lp21
(I4
I6
tp22
a(I4
I3
tp23
a(I3
I0
tp24
a(I4
I2
tp25
a(I3
I4
tp26
ag12
a(I3
I3
tp27
atp28
Rp29
sg15
I7
sS'dirt_locations'
p30
g20
((lp31
(I4
I5
tp32
a(I5
I7
tp33
a(I0
I6
tp34
a(I1
I6
tp35
a(I5
I0
tp36
a(I5
I1
tp37
a(I5
I2
tp38
a(I1
I1
tp39
atp40
Rp41
sg13
((I1
I5
tp42
(I5
I5
tp43
(I3
I1
tp44
(I3
I5
tp45
tp46
sg14
I9
sbs(iproblems
RoomID
p47
(dp48
g10
I8
sg11
(I4
I6
tp49
sg13
I2
sg14
I10
sg15
I8
sg16
I890727360438182992
sb(imulti_robot_problem
MultiRobotState
p50
(dp51
g19
g20
((lp52
(I0
I0
tp53
ag49
a(I6
I6
tp54
a(I5
I6
tp55
a(I7
I6
tp56
a(I7
I4
tp57
a(I4
I2
tp58
a(I2
I4
tp59
atp60
Rp61
sg15
I8
sg30
g20
((lp62
(I7
I0
tp63
a(I7
I1
tp64
a(I6
I3
tp65
a(I1
I8
tp66
a(I0
I5
tp67
a(I5
I1
tp68
a(I1
I0
tp69
a(I0
I3
tp70
atp71
Rp72
sg13
((I2
I8
tp73
(I2
I5
tp74
tp75
sg14
I10
sbs(iproblems
RoomID
p76
(dp77
g10
I7
sg11
(I4
I1
tp78
sg13
I3
sg14
I10
sg15
I10
sg16
I1585446675937841368
sb(imulti_robot_problem
MultiRobotState
p79
(dp80
g19
g20
((lp81
(I3
I2
tp82
a(I2
I6
tp83
a(I6
I7
tp84
a(I6
I1
tp85
a(I7
I2
tp86
a(I5
I0
tp87
ag78
a(I2
I4
tp88
a(I5
I8
tp89
atp90
Rp91
sg15
I10
sg30
g20
((lp92
(I7
I3
tp93
a(I9
I4
tp94
a(I2
I9
tp95
a(I1
I7
tp96
a(I2
I2
tp97
a(I5
I2
tp98
a(I9
I7
tp99
atp100
Rp101
sg13
((I8
I9
tp102
(I4
I4
tp103
(I9
I8
tp104
tp105
sg14
I10
sbs(iproblems
RoomID
p106
(dp107
g10
I5
sg11
(I7
I3
tp108
sg13
I1
sg14
I7
sg15
I8
sg16
I1736392818365009963
sb(imulti_robot_problem
MultiRobotState
p109
(dp110
g19
g20
((lp111
g108
a(I2
I6
tp112
a(I7
I0
tp113
a(I7
I1
tp114
a(I2
I1
tp115
a(I6
I3
tp116
a(I0
I4
tp117
a(I7
I2
tp118
atp119
Rp120
sg15
I8
sg30
g20
((lp121
(I0
I1
tp122
a(I6
I2
tp123
a(I1
I6
tp124
a(I4
I4
tp125
a(I0
I0
tp126
atp127
Rp128
sg13
((I3
I1
tp129
tp130
sg14
I7
sbs(iproblems
RoomID
p131
(dp132
g10
I10
sg11
(I6
I5
tp133
sg13
I5
sg14
I8
sg15
I9
sg16
I3960482443532127989
sb(imulti_robot_problem
MultiRobotState
p134
(dp135
g19
g20
((lp136
(I4
I5
tp137
a(I5
I5
tp138
ag133
a(I6
I6
tp139
atp140
Rp141
sg15
I9
sg30
g20
((lp142
(I2
I7
tp143
a(I2
I6
tp144
a(I5
I0
tp145
a(I5
I7
tp146
a(I1
I4
tp147
a(I1
I5
tp148
a(I3
I6
tp149
a(I8
I0
tp150
a(I8
I5
tp151
a(I5
I3
tp152
atp153
Rp154
sg13
((I4
I3
tp155
(I8
I7
tp156
(I1
I6
tp157
(I7
I3
tp158
(I6
I4
tp159
tp160
sg14
I8
sbssS'name'
p161
S'easy_roomset'
p162
sbsg161
S"AnytimeBeam-w5-gf(1.5, 'exp')_with_PowerHeuristic2"
p163
sS'solutions'
p164
(dp165
g8
((lp166
(F1.069999999999709
I28
tp167
aF40.160000000003492
tp168
sg47
((lp169
(F0.099999999998544808
I19
tp170
aF40.0
tp171
sg76
((lp172
(F0.4699999999938882
I14
tp173
aF40.029999999998836
tp174
sg106
((lp175
(F0.079999999994470272
I30
tp176
a(F0.16999999999825377
I28
tp177
a(F0.48999999999796273
I27
tp178
a(F0.89999999999417923
I25
tp179
a(F1.2599999999947613
I23
tp180
a(F1.5499999999956344
I22
tp181
a(F2.7799999999988358
I21
tp182
a(F3.8600000000005821
I20
tp183
aF40.0
tp184
sg131
((lp185
(F9.1199999999953434
I10
tp186
aF42.069999999999709
tp187
ssba(imeasure_core
ProblemSetSolution
p188
(dp189
g3
(imeasure_core
RoomSet
p190
(dp191
g6
(dp192
(iproblems
RoomID
p193
(dp194
g10
I8
sg11
(I2
I6
tp195
sg13
I4
sg14
I11
sg15
I9
sg16
I7283207964119141687
sb(imulti_robot_problem
MultiRobotState
p196
(dp197
g19
g20
((lp198
(I4
I7
tp199
a(I1
I3
tp200
a(I4
I3
tp201
a(I4
I5
tp202
a(I5
I4
tp203
a(I1
I4
tp204
a(I8
I9
tp205
a(I6
I2
tp206
a(I0
I10
tp207
a(I3
I7
tp208
a(I0
I3
tp209
a(I8
I5
tp210
a(I4
I0
tp211
a(I5
I3
tp212
a(I5
I5
tp213
a(I5
I2
tp214
a(I6
I1
tp215
a(I6
I10
tp216
ag195
a(I6
I3
tp217
a(I3
I6
tp218
a(I3
I5
tp219
a(I3
I4
tp220
a(I2
I4
tp221
atp222
Rp223
sg15
I9
sg30
g20
((lp224
(I7
I0
tp225
a(I6
I8
tp226
a(I7
I1
tp227
a(I5
I6
tp228
a(I1
I8
tp229
a(I0
I8
tp230
a(I4
I1
tp231
a(I5
I8
tp232
atp233
Rp234
sg13
((I1
I7
tp235
(I6
I6
tp236
(I4
I6
tp237
(I2
I1
tp238
tp239
sg14
I11
sbs(iproblems
RoomID
p240
(dp241
g10
I8
sg11
(I3
I5
tp242
sg13
I3
sg14
I12
sg15
I10
sg16
I890727360438182992
sb(imulti_robot_problem
MultiRobotState
p243
(dp244
g19
g20
((lp245
(I4
I7
tp246
a(I0
I0
tp247
a(I3
I0
tp248
a(I3
I2
tp249
a(I1
I4
tp250
a(I8
I9
tp251
a(I7
I5
tp252
a(I2
I3
tp253
a(I3
I4
tp254
a(I5
I8
tp255
ag242
a(I3
I1
tp256
a(I6
I7
tp257
a(I6
I8
tp258
a(I5
I2
tp259
a(I5
I7
tp260
a(I8
I8
tp261
a(I3
I9
tp262
a(I4
I11
tp263
a(I7
I10
tp264
a(I2
I2
tp265
a(I0
I9
tp266
a(I7
I8
tp267
atp268
Rp269
sg15
I10
sg30
g20
((lp270
(I9
I2
tp271
a(I6
I1
tp272
a(I8
I0
tp273
a(I2
I10
tp274
a(I0
I6
tp275
a(I0
I4
tp276
a(I9
I5
tp277
a(I1
I1
tp278
atp279
Rp280
sg13
((I2
I9
tp281
(I2
I6
tp282
(I8
I4
tp283
tp284
sg14
I12
sbs(iproblems
RoomID
p285
(dp286
g10
I7
sg11
(I6
I3
tp287
sg13
I3
sg14
I12
sg15
I12
sg16
I1585446675937841368
sb(imulti_robot_problem
MultiRobotState
p288
(dp289
g19
g20
((lp290
(I5
I9
tp291
a(I4
I3
tp292
a(I5
I7
tp293
a(I8
I2
tp294
a(I4
I10
tp295
a(I7
I3
tp296
a(I2
I8
tp297
a(I9
I3
tp298
a(I3
I11
tp299
a(I7
I1
tp300
a(I7
I7
tp301
a(I6
I2
tp302
a(I5
I1
tp303
a(I1
I11
tp304
a(I8
I5
tp305
a(I7
I2
tp306
a(I2
I7
tp307
a(I6
I7
tp308
a(I6
I8
tp309
a(I2
I9
tp310
a(I5
I2
tp311
a(I7
I6
tp312
a(I6
I6
tp313
a(I2
I11
tp314
ag287
a(I4
I11
tp315
a(I7
I10
tp316
a(I3
I4
tp317
a(I8
I6
tp318
a(I7
I8
tp319
a(I8
I4
tp320
atp321
Rp322
sg15
I12
sg30
g20
((lp323
(I3
I2
tp324
a(I1
I9
tp325
a(I9
I4
tp326
a(I11
I5
tp327
a(I11
I8
tp328
a(I2
I5
tp329
a(I6
I10
tp330
atp331
Rp332
sg13
((I10
I10
tp333
(I5
I5
tp334
(I11
I10
tp335
tp336
sg14
I12
sbs(iproblems
RoomID
p337
(dp338
g10
I5
sg11
(I7
I6
tp339
sg13
I3
sg14
I9
sg15
I10
sg16
I1736392818365009963
sb(imulti_robot_problem
MultiRobotState
p340
(dp341
g19
g20
((lp342
(I7
I3
tp343
a(I9
I1
tp344
a(I4
I8
tp345
a(I9
I3
tp346
a(I7
I7
tp347
a(I6
I2
tp348
a(I0
I5
tp349
a(I0
I4
tp350
a(I8
I5
tp351
a(I7
I2
tp352
a(I1
I2
tp353
a(I3
I8
tp354
a(I9
I0
tp355
a(I9
I2
tp356
ag339
a(I7
I4
tp357
a(I7
I5
tp358
a(I6
I5
tp359
a(I4
I3
tp360
a(I2
I2
tp361
a(I0
I1
tp362
a(I5
I2
tp363
a(I8
I4
tp364
atp365
Rp366
sg15
I10
sg30
g20
((lp367
(I1
I8
tp368
a(I3
I1
tp369
a(I4
I1
tp370
a(I0
I2
tp371
a(I5
I5
tp372
atp373
Rp374
sg13
((I4
I2
tp375
(I1
I0
tp376
(I8
I2
tp377
tp378
sg14
I9
sbs(iproblems
RoomID
p379
(dp380
g10
I9
sg11
(I1
I3
tp381
sg13
I4
sg14
I9
sg15
I10
sg16
I7713914763314685786
sb(imulti_robot_problem
MultiRobotState
p382
(dp383
g19
g20
((lp384
(I3
I2
tp385
ag381
a(I7
I1
tp386
a(I9
I3
tp387
a(I6
I0
tp388
a(I2
I1
tp389
a(I4
I2
tp390
a(I5
I1
tp391
a(I9
I6
tp392
a(I7
I2
tp393
a(I4
I0
tp394
a(I1
I2
tp395
a(I7
I0
tp396
a(I5
I2
tp397
a(I6
I1
tp398
a(I3
I1
tp399
a(I1
I5
tp400
a(I1
I8
tp401
a(I2
I2
tp402
a(I3
I5
tp403
a(I4
I1
tp404
a(I1
I1
tp405
atp406
Rp407
sg15
I10
sg30
g20
((lp408
(I7
I3
tp409
a(I5
I4
tp410
a(I7
I6
tp411
a(I7
I5
tp412
a(I0
I5
tp413
a(I8
I7
tp414
a(I8
I6
tp415
a(I8
I5
tp416
a(I9
I7
tp417
atp418
Rp419
sg13
((I3
I0
tp420
(I7
I7
tp421
(I2
I0
tp422
(I4
I6
tp423
tp424
sg14
I9
sbssg161
S'mild_roomset'
p425
sbsg161
g163
sg164
(dp426
g193
((lp427
(F0.30999999999767169
I7
tp428
aF40.169999999998254
tp429
sg240
((lp430
F40.139999999999418
tp431
sg285
((lp432
(F0.59999999999854481
I20
tp433
aF40.019999999996799
tp434
sg337
((lp435
(F6.4600000000064028
I66
tp436
aF40.090000000003783
tp437
sg379
((lp438
(F2.3700000000026193
I15
tp439
aF40.260000000002037
tp440
ssba(imeasure_core
ProblemSetSolution
p441
(dp442
g3
(imeasure_core
RoomSet
p443
(dp444
g6
(dp445
(iproblems
RoomID
p446
(dp447
g10
I13
sg11
(I8
I4
tp448
sg13
I7
sg14
I12
sg15
I10
sg16
I7283207964119141687
sb(imulti_robot_problem
MultiRobotState
p449
(dp450
g19
g20
((lp451
(I6
I3
tp452
a(I5
I2
tp453
a(I6
I10
tp454
a(I6
I0
tp455
a(I7
I4
tp456
a(I0
I11
tp457
a(I6
I2
tp458
a(I3
I6
tp459
a(I2
I2
tp460
a(I0
I4
tp461
a(I3
I4
tp462
a(I5
I8
tp463
ag448
atp464
Rp465
sg15
I10
sg30
g20
((lp466
(I7
I3
tp467
a(I6
I7
tp468
a(I6
I8
tp469
a(I7
I1
tp470
a(I8
I1
tp471
a(I4
I4
tp472
a(I6
I6
tp473
a(I5
I6
tp474
a(I1
I9
tp475
a(I5
I0
tp476
a(I9
I10
tp477
a(I9
I6
tp478
a(I7
I9
tp479
atp480
Rp481
sg13
((I1
I7
tp482
(I7
I6
tp483
(I4
I6
tp484
(I2
I1
tp485
(I6
I4
tp486
(I0
I9
tp487
(I8
I0
tp488
tp489
sg14
I12
sbs(iproblems
RoomID
p490
(dp491
g10
I13
sg11
(I8
I3
tp492
sg13
I5
sg14
I13
sg15
I11
sg16
I890727360438182992
sb(imulti_robot_problem
MultiRobotState
p493
(dp494
g19
g20
((lp495
(I4
I10
tp496
a(I6
I9
tp497
a(I8
I2
tp498
a(I5
I9
tp499
a(I9
I8
tp500
ag492
a(I4
I12
tp501
a(I0
I10
tp502
a(I8
I7
tp503
a(I9
I1
tp504
a(I9
I0
tp505
a(I6
I8
tp506
a(I6
I10
tp507
a(I8
I8
tp508
a(I8
I6
tp509
a(I7
I8
tp510
a(I0
I2
tp511
atp512
Rp513
sg15
I11
sg30
g20
((lp514
(I10
I5
tp515
a(I0
I0
tp516
a(I4
I6
tp517
a(I0
I6
tp518
a(I9
I2
tp519
a(I8
I11
tp520
a(I2
I1
tp521
a(I9
I10
tp522
a(I1
I5
tp523
a(I0
I4
tp524
a(I0
I9
tp525
a(I5
I2
tp526
a(I4
I11
tp527
atp528
Rp529
sg13
((I3
I10
tp530
(I2
I7
tp531
(I9
I4
tp532
(I2
I11
tp533
(I7
I1
tp534
tp535
sg14
I13
sbs(iproblems
RoomID
p536
(dp537
g10
I10
sg11
(I10
I4
tp538
sg13
I5
sg14
I10
sg15
I11
sg16
I1736392818365009963
sb(imulti_robot_problem
MultiRobotState
p539
(dp540
g19
g20
((lp541
(I0
I1
tp542
a(I1
I2
tp543
a(I3
I2
tp544
ag538
a(I4
I5
tp545
a(I7
I4
tp546
a(I6
I2
tp547
a(I2
I3
tp548
a(I10
I1
tp549
a(I3
I8
tp550
a(I10
I0
tp551
a(I10
I3
tp552
a(I10
I2
tp553
atp554
Rp555
sg15
I11
sg30
g20
((lp556
(I5
I9
tp557
a(I5
I5
tp558
a(I3
I1
tp559
a(I8
I8
tp560
a(I0
I5
tp561
a(I3
I9
tp562
a(I8
I4
tp563
a(I4
I1
tp564
a(I6
I5
tp565
a(I5
I3
tp566
atp567
Rp568
sg13
((I4
I2
tp569
(I1
I0
tp570
(I9
I3
tp571
(I1
I9
tp572
(I0
I2
tp573
tp574
sg14
I10
sbs(iproblems
RoomID
p575
(dp576
g10
I15
sg11
(I6
I9
tp577
sg13
I7
sg14
I11
sg15
I12
sg16
I3960482443532127989
sb(imulti_robot_problem
MultiRobotState
p578
(dp579
g19
g20
((lp580
(I5
I9
tp581
ag577
a(I9
I1
tp582
a(I4
I10
tp583
a(I5
I6
tp584
a(I7
I7
tp585
a(I2
I10
tp586
a(I3
I9
tp587
a(I9
I4
tp588
a(I5
I10
tp589
a(I6
I4
tp590
a(I6
I5
tp591
a(I1
I2
tp592
a(I7
I4
tp593
a(I8
I3
tp594
a(I6
I7
tp595
a(I2
I9
tp596
a(I10
I7
tp597
a(I5
I7
tp598
a(I6
I3
tp599
a(I8
I1
tp600
a(I0
I9
tp601
a(I8
I6
tp602
a(I7
I8
tp603
a(I11
I6
tp604
a(I9
I7
tp605
atp606
Rp607
sg15
I12
sg30
g20
((lp608
(I7
I3
tp609
a(I2
I6
tp610
a(I5
I5
tp611
a(I3
I0
tp612
a(I3
I8
tp613
a(I0
I6
tp614
a(I11
I1
tp615
a(I1
I6
tp616
a(I4
I3
tp617
a(I1
I7
tp618
a(I1
I3
tp619
a(I1
I0
tp620
a(I10
I1
tp621
a(I1
I1
tp622
a(I10
I2
tp623
atp624
Rp625
sg13
((I11
I10
tp626
(I1
I8
tp627
(I10
I5
tp628
(I11
I0
tp629
(I4
I8
tp630
(I7
I9
tp631
(I7
I1
tp632
tp633
sg14
I11
sbs(iproblems
RoomID
p634
(dp635
g10
I12
sg11
(I6
I9
tp636
sg13
I6
sg14
I13
sg15
I13
sg16
I1585446675937841368
sb(imulti_robot_problem
MultiRobotState
p637
(dp638
g19
g20
((lp639
(I7
I3
tp640
ag636
a(I8
I11
tp641
a(I7
I7
tp642
a(I4
I12
tp643
a(I10
I3
tp644
a(I5
I8
tp645
a(I7
I4
tp646
a(I1
I12
tp647
a(I2
I9
tp648
a(I8
I1
tp649
a(I7
I6
tp650
a(I6
I3
tp651
a(I9
I2
tp652
a(I7
I5
tp653
a(I7
I2
tp654
a(I7
I10
tp655
a(I8
I4
tp656
a(I3
I4
tp657
a(I2
I4
tp658
a(I9
I12
tp659
a(I9
I7
tp660
atp661
Rp662
sg15
I13
sg30
g20
((lp663
(I3
I3
tp664
a(I2
I8
tp665
a(I12
I9
tp666
a(I6
I10
tp667
a(I8
I10
tp668
a(I2
I10
tp669
a(I12
I5
tp670
a(I4
I3
tp671
a(I5
I1
tp672
a(I7
I9
tp673
a(I5
I2
tp674
a(I3
I5
tp675
atp676
Rp677
sg13
((I10
I11
tp678
(I5
I5
tp679
(I12
I11
tp680
(I1
I10
tp681
(I3
I12
tp682
(I10
I4
tp683
tp684
sg14
I13
sbssg161
S'heavy_roomset'
p685
sbsg161
g163
sg164
(dp686
g446
((lp687
F40.5
tp688
sg490
((lp689
F41.220000000001164
tp690
sg536
((lp691
(F4.930000000000291
I9
tp692
aF40.060000000004948
tp693
sg575
((lp694
F41.129999999997381
tp695
sg634
((lp696
F42.209999999999127
tp697
ssba(imeasure_core
ProblemSetSolution
p698
(dp699
g3
g4
sg161
S"AnytimeBeam-w15-gf(1.5, 'exp')_with_PowerHeuristic2"
p700
sg164
(dp701
g8
((lp702
(F1.6999999999970896
I28
tp703
aF40.129999999997381
tp704
sg47
((lp705
(F0.10000000000582077
I19
tp706
a(F28.67000000000553
I18
tp707
aF40.0
tp708
sg76
((lp709
(F0.47000000000116415
I14
tp710
aF40.020000000004075
tp711
sg106
((lp712
(F0.08000000000174623
I30
tp713
a(F0.1599999999962165
I28
tp714
a(F0.47999999999592546
I27
tp715
a(F0.90000000000145519
I25
tp716
a(F1.25
I23
tp717
a(F1.5499999999956344
I22
tp718
a(F2.7699999999967986
I21
tp719
a(F3.8600000000005821
I20
tp720
aF40.0
tp721
sg131
((lp722
(F9.1299999999973807
I10
tp723
aF40.349999999998545
tp724
ssba(imeasure_core
ProblemSetSolution
p725
(dp726
g3
g190
sg161
g700
sg164
(dp727
g193
((lp728
(F0.30999999999767169
I7
tp729
aF40.150000000001455
tp730
sg240
((lp731
F40.189999999995052
tp732
sg285
((lp733
(F0.5900000000037835
I20
tp734
aF40.010000000002037
tp735
sg337
((lp736
(F6.430000000000291
I66
tp737
aF40.159999999996217
tp738
sg379
((lp739
(F2.3600000000005821
I15
tp740
aF40.350000000005821
tp741
ssba(imeasure_core
ProblemSetSolution
p742
(dp743
g3
g443
sg161
g700
sg164
(dp744
g446
((lp745
F40.57999999999447
tp746
sg490
((lp747
F40.290000000000873
tp748
sg536
((lp749
(F4.9700000000011642
I9
tp750
aF40.440000000002328
tp751
sg575
((lp752
F41.629999999997381
tp753
sg634
((lp754
F42.400000000001455
tp755
ssba(imeasure_core
ProblemSetSolution
p756
(dp757
g3
g4
sg161
S"AnytimeBeam-w25-gf(1.5, 'exp')_with_PowerHeuristic2"
p758
sg164
(dp759
g8
((lp760
(F1.8600000000005821
I28
tp761
aF40.0
tp762
sg47
((lp763
(F0.099999999998544808
I19
tp764
a(F29.599999999998545
I18
tp765
aF40.010000000002037
tp766
sg76
((lp767
(F0.4699999999938882
I14
tp768
aF40.019999999996799
tp769
sg106
((lp770
(F0.08000000000174623
I30
tp771
a(F0.16000000000349246
I28
tp772
a(F0.48999999999796273
I27
tp773
a(F0.91000000000349246
I25
tp774
a(F1.2600000000020373
I23
tp775
a(F1.569999999999709
I22
tp776
a(F2.7900000000008731
I21
tp777
a(F3.8799999999973807
I20
tp778
aF40.0
tp779
sg131
((lp780
(F9.1699999999982538
I10
tp781
aF40.349999999998545
tp782
ssba(imeasure_core
ProblemSetSolution
p783
(dp784
g3
g190
sg161
g758
sg164
(dp785
g193
((lp786
(F0.31999999999970896
I7
tp787
aF40.010000000002037
tp788
sg240
((lp789
F40.120000000002619
tp790
sg285
((lp791
(F0.59999999999854481
I20
tp792
aF40.059999999997672
tp793
sg337
((lp794
(F6.4799999999959255
I66
tp795
aF40.150000000001455
tp796
sg379
((lp797
(F2.3399999999965075
I15
tp798
aF40.059999999997672
tp799
ssba(imeasure_core
ProblemSetSolution
p800
(dp801
g3
g443
sg161
g758
sg164
(dp802
g446
((lp803
F40.629999999997381
tp804
sg490
((lp805
F41.330000000001746
tp806
sg536
((lp807
(F4.9499999999970896
I9
tp808
aF40.319999999999709
tp809
sg575
((lp810
F41.440000000002328
tp811
sg634
((lp812
F42.309999999997672
tp813
ssba(imeasure_core
ProblemSetSolution
p814
(dp815
g3
g4
sg161
S"AnytimeBeam-w35-gf(1.5, 'exp')_with_PowerHeuristic2"
p816
sg164
(dp817
g8
((lp818
(F2.1100000000005821
I28
tp819
aF40.30000000000291
tp820
sg47
((lp821
(F0.099999999998544808
I19
tp822
a(F28.769999999996799
I18
tp823
aF40.009999999994761
tp824
sg76
((lp825
(F0.47000000000116415
I14
tp826
aF40.040000000000873
tp827
sg106
((lp828
(F0.069999999999708962
I30
tp829
a(F0.16000000000349246
I28
tp830
a(F0.48000000000320142
I27
tp831
a(F0.90000000000145519
I25
tp832
a(F1.2600000000020373
I23
tp833
a(F1.5599999999976717
I22
tp834
a(F2.7799999999988358
I21
tp835
a(F3.8700000000026193
I20
tp836
aF40.0
tp837
sg131
((lp838
(F9.0999999999985448
I10
tp839
aF41.989999999997963
tp840
ssba(imeasure_core
ProblemSetSolution
p841
(dp842
g3
g190
sg161
g816
sg164
(dp843
g193
((lp844
(F0.30999999999767169
I7
tp845
aF40.209999999999127
tp846
sg240
((lp847
F40.060000000004948
tp848
sg285
((lp849
(F0.58999999999650754
I20
tp850
aF40.009999999994761
tp851
sg337
((lp852
(F6.4700000000011642
I66
tp853
aF40.139999999999418
tp854
sg379
((lp855
(F2.3400000000037835
I15
tp856
aF40.150000000001455
tp857
ssba(imeasure_core
ProblemSetSolution
p858
(dp859
g3
g443
sg161
g816
sg164
(dp860
g446
((lp861
F40.479999999995925
tp862
sg490
((lp863
F41.280000000006112
tp864
sg536
((lp865
(F4.9599999999991269
I9
tp866
aF40.209999999999127
tp867
sg575
((lp868
F41.419999999998254
tp869
sg634
((lp870
F42.169999999998254
tp871
ssba(imeasure_core
ProblemSetSolution
p872
(dp873
g3
g4
sg161
S"AnytimeBeam-w45-gf(1.5, 'exp')_with_PowerHeuristic2"
p874
sg164
(dp875
g8
((lp876
(F2.2299999999959255
I28
tp877
aF40.059999999997672
tp878
sg47
((lp879
(F0.099999999998544808
I19
tp880
aF40.010000000002037
tp881
sg76
((lp882
(F0.47000000000116415
I14
tp883
aF40.040000000000873
tp884
sg106
((lp885
(F0.069999999999708962
I30
tp886
a(F0.1599999999962165
I28
tp887
a(F0.47999999999592546
I27
tp888
a(F0.90000000000145519
I25
tp889
a(F1.25
I23
tp890
a(F1.5499999999956344
I22
tp891
a(F2.7799999999988358
I21
tp892
a(F3.8799999999973807
I20
tp893
aF40.0
tp894
sg131
((lp895
(F9.0999999999985448
I10
tp896
aF42.080000000001746
tp897
ssba(imeasure_core
ProblemSetSolution
p898
(dp899
g3
g190
sg161
g874
sg164
(dp900
g193
((lp901
(F0.31000000000494765
I7
tp902
aF40.160000000003492
tp903
sg240
((lp904
F40.150000000001455
tp905
sg285
((lp906
(F0.59999999999854481
I20
tp907
aF40.029999999998836
tp908
sg337
((lp909
(F6.4799999999959255
I66
tp910
aF40.159999999996217
tp911
sg379
((lp912
(F2.3400000000037835
I15
tp913
aF40.17000000000553
tp914
ssba(imeasure_core
ProblemSetSolution
p915
(dp916
g3
g443
sg161
g874
sg164
(dp917
g446
((lp918
F40.680000000000291
tp919
sg490
((lp920
F41.5
tp921
sg536
((lp922
(F4.9199999999982538
I9
tp923
aF40.19999999999709
tp924
sg575
((lp925
F41.30000000000291
tp926
sg634
((lp927
F42.299999999995634
tp928
ssba(imeasure_core
ProblemSetSolution
p929
(dp930
g3
g4
sg161
S"AnytimeBeam-w5-gf(1.5, 'exp')_with_LinearHeuristic"
p931
sg164
(dp932
g8
((lp933
(F0.26999999999679858
I5
tp934
aF40.19999999999709
tp935
sg47
((lp936
(F0.25
I22
tp937
aF40.0
tp938
sg76
((lp939
F40.130000000004657
tp940
sg106
((lp941
(F0.019999999996798579
I20
tp942
aF40.0
tp943
sg131
((lp944
(F10.209999999999127
I10
tp945
aF40.709999999999127
tp946
ssba(imeasure_core
ProblemSetSolution
p947
(dp948
g3
g190
sg161
g931
sg164
(dp949
g193
((lp950
F40.460000000006403
tp951
sg240
((lp952
F40.129999999997381
tp953
sg285
((lp954
F40.260000000002037
tp955
sg337
((lp956
(F1.0499999999956344
I23
tp957
a(F22.819999999999709
I21
tp958
a(F32.680000000000291
I20
tp959
aF40.009999999994761
tp960
sg379
((lp961
F40.180000000000291
tp962
ssba(imeasure_core
ProblemSetSolution
p963
(dp964
g3
g443
sg161
g931
sg164
(dp965
g446
((lp966
F87.67000000000553
tp967
sg490
((lp968
F40.619999999995343
tp969
sg536
((lp970
F41.150000000001455
tp971
sg575
((lp972
F47.709999999999127
tp973
sg634
((lp974
F44.970000000001164
tp975
ssba(imeasure_core
ProblemSetSolution
p976
(dp977
g3
g4
sg161
S"AnytimeBeam-w15-gf(1.5, 'exp')_with_LinearHeuristic"
p978
sg164
(dp979
g8
((lp980
(F0.36000000000058208
I5
tp981
aF40.180000000000291
tp982
sg47
((lp983
(F0.25999999999476131
I22
tp984
aF40.009999999994761
tp985
sg76
((lp986
F40.010000000002037
tp987
sg106
((lp988
(F0.020000000004074536
I20
tp989
aF40.0
tp990
sg131
((lp991
(F10.190000000002328
I10
tp992
aF40.669999999998254
tp993
ssba(imeasure_core
ProblemSetSolution
p994
(dp995
g3
g190
sg161
g978
sg164
(dp996
g193
((lp997
F40.5
tp998
sg240
((lp999
F40.180000000000291
tp1000
sg285
((lp1001
F40.150000000001455
tp1002
sg337
((lp1003
(F1.0400000000008731
I23
tp1004
a(F22.779999999998836
I21
tp1005
a(F32.680000000000291
I20
tp1006
aF40.029999999998836
tp1007
sg379
((lp1008
F40.319999999999709
tp1009
ssba(imeasure_core
ProblemSetSolution
p1010
(dp1011
g3
g443
sg161
g978
sg164
(dp1012
g446
((lp1013
F87.459999999999127
tp1014
sg490
((lp1015
F40.669999999998254
tp1016
sg536
((lp1017
F41.240000000005239
tp1018
sg575
((lp1019
F47.839999999996508
tp1020
sg634
((lp1021
F45.120000000002619
tp1022
ssba(imeasure_core
ProblemSetSolution
p1023
(dp1024
g3
g4
sg161
S"AnytimeBeam-w25-gf(1.5, 'exp')_with_LinearHeuristic"
p1025
sg164
(dp1026
g8
((lp1027
(F0.40000000000145519
I5
tp1028
aF40.110000000000582
tp1029
sg47
((lp1030
(F0.26000000000203727
I22
tp1031
aF40.0
tp1032
sg76
((lp1033
F40.139999999999418
tp1034
sg106
((lp1035
(F0.010000000002037268
I20
tp1036
aF40.0
tp1037
sg131
((lp1038
(F10.190000000002328
I10
tp1039
aF40.790000000000873
tp1040
ssba(imeasure_core
ProblemSetSolution
p1041
(dp1042
g3
g190
sg161
g1025
sg164
(dp1043
g193
((lp1044
F40.530000000006112
tp1045
sg240
((lp1046
F40.049999999995634
tp1047
sg285
((lp1048
F40.480000000003201
tp1049
sg337
((lp1050
(F1.0499999999956344
I23
tp1051
a(F22.839999999996508
I21
tp1052
a(F32.69999999999709
I20
tp1053
aF40.019999999996799
tp1054
sg379
((lp1055
F40.05000000000291
tp1056
ssba(imeasure_core
ProblemSetSolution
p1057
(dp1058
g3
g443
sg161
g1025
sg164
(dp1059
g446
((lp1060
F87.389999999999418
tp1061
sg490
((lp1062
F40.669999999998254
tp1063
sg536
((lp1064
F41.19999999999709
tp1065
sg575
((lp1066
F48.160000000003492
tp1067
sg634
((lp1068
F44.980000000003201
tp1069
ssba(imeasure_core
ProblemSetSolution
p1070
(dp1071
g3
g4
sg161
S"AnytimeBeam-w35-gf(1.5, 'exp')_with_LinearHeuristic"
p1072
sg164
(dp1073
g8
((lp1074
(F0.44999999999708962
I5
tp1075
aF40.07999999999447
tp1076
sg47
((lp1077
(F0.26000000000203727
I22
tp1078
aF40.010000000002037
tp1079
sg76
((lp1080
F40.089999999996508
tp1081
sg106
((lp1082
(F0.010000000002037268
I20
tp1083
aF40.0
tp1084
sg131
((lp1085
(F10.180000000000291
I10
tp1086
aF40.600000000005821
tp1087
ssba(imeasure_core
ProblemSetSolution
p1088
(dp1089
g3
g190
sg161
g1072
sg164
(dp1090
g193
((lp1091
F40.630000000004657
tp1092
sg240
((lp1093
F40.049999999995634
tp1094
sg285
((lp1095
F40.110000000000582
tp1096
sg337
((lp1097
(F1.0500000000029104
I23
tp1098
a(F22.80000000000291
I21
tp1099
a(F32.680000000000291
I20
tp1100
aF40.090000000003783
tp1101
sg379
((lp1102
F40.069999999999709
tp1103
ssba(imeasure_core
ProblemSetSolution
p1104
(dp1105
g3
g443
sg161
g1072
sg164
(dp1106
g446
((lp1107
F87.639999999999418
tp1108
sg490
((lp1109
F40.659999999996217
tp1110
sg536
((lp1111
F41.230000000003201
tp1112
sg575
((lp1113
F47.669999999998254
tp1114
sg634
((lp1115
F44.989999999997963
tp1116
ssba(imeasure_core
ProblemSetSolution
p1117
(dp1118
g3
g4
sg161
S"AnytimeBeam-w45-gf(1.5, 'exp')_with_LinearHeuristic"
p1119
sg164
(dp1120
g8
((lp1121
(F0.47000000000116415
I5
tp1122
aF40.120000000002619
tp1123
sg47
((lp1124
(F0.25
I22
tp1125
aF40.0
tp1126
sg76
((lp1127
F40.069999999999709
tp1128
sg106
((lp1129
(F0.019999999996798579
I20
tp1130
aF40.0
tp1131
sg131
((lp1132
(F10.169999999998254
I10
tp1133
aF40.649999999994179
tp1134
ssba(imeasure_core
ProblemSetSolution
p1135
(dp1136
g3
g190
sg161
g1119
sg164
(dp1137
g193
((lp1138
F40.440000000002328
tp1139
sg240
((lp1140
F40.020000000004075
tp1141
sg285
((lp1142
F40.139999999999418
tp1143
sg337
((lp1144
(F1.0399999999935972
I23
tp1145
a(F22.789999999993597
I21
tp1146
a(F32.659999999996217
I20
tp1147
aF40.009999999994761
tp1148
sg379
((lp1149
F40.220000000001164
tp1150
ssba(imeasure_core
ProblemSetSolution
p1151
(dp1152
g3
g443
sg161
g1119
sg164
(dp1153
g446
((lp1154
F87.479999999995925
tp1155
sg490
((lp1156
F40.730000000003201
tp1157
sg536
((lp1158
F41.30000000000291
tp1159
sg575
((lp1160
F47.649999999994179
tp1161
sg634
((lp1162
F45.180000000000291
tp1163
ssba.