(lp0
(imeasure_core
ProblemSetSolution
p1
(dp2
S'roomset'
p3
(imeasure_core
RoomSet
p4
(dp5
S'rooms'
p6
(dp7
(iproblems
RoomID
p8
(dp9
S'dusts'
p10
I6
sS'obstacles'
p11
(I3
I2
tp12
sS'robots'
p13
I1
sS'height'
p14
I9
sS'width'
p15
I10
sS'seed'
p16
I6832892905590973747
sb(imulti_robot_problem
MultiRobotState
p17
(dp18
S'obstacle_locations'
p19
c__builtin__
frozenset
p20
((lp21
(I3
I0
tp22
a(I2
I0
tp23
ag12
a(I3
I1
tp24
atp25
Rp26
sg15
I10
sS'dirt_locations'
p27
g20
((lp28
(I1
I2
tp29
a(I2
I7
tp30
a(I0
I0
tp31
a(I0
I5
tp32
a(I5
I6
tp33
a(I0
I2
tp34
atp35
Rp36
sg13
((I8
I4
tp37
tp38
sg14
I9
sbs(iproblems
RoomID
p39
(dp40
g10
I7
sg11
(I3
I5
tp41
sg13
I5
sg14
I7
sg15
I9
sg16
I6924344268699531175
sb(imulti_robot_problem
MultiRobotState
p42
(dp43
g19
g20
((lp44
(I2
I6
tp45
a(I1
I6
tp46
a(I3
I6
tp47
ag41
atp48
Rp49
sg15
I9
sg27
g20
((lp50
(I1
I2
tp51
a(I0
I0
tp52
a(I5
I0
tp53
a(I7
I1
tp54
a(I8
I6
tp55
a(I3
I4
tp56
a(I6
I5
tp57
atp58
Rp59
sg13
((I4
I0
tp60
(I7
I2
tp61
(I1
I1
tp62
(I6
I1
tp63
(I8
I4
tp64
tp65
sg14
I7
sbs(iproblems
RoomID
p66
(dp67
g10
I8
sg11
(I5
I0
tp68
sg13
I4
sg14
I10
sg15
I10
sg16
I3562373307524659409
sb(imulti_robot_problem
MultiRobotState
p69
(dp70
g19
g20
((lp71
(I6
I3
tp72
a(I6
I7
tp73
ag68
a(I3
I6
tp74
a(I8
I1
tp75
a(I7
I0
tp76
a(I6
I0
tp77
atp78
Rp79
sg15
I10
sg27
g20
((lp80
(I1
I3
tp81
a(I2
I9
tp82
a(I7
I6
tp83
a(I7
I7
tp84
a(I8
I9
tp85
a(I1
I8
tp86
a(I1
I6
tp87
a(I2
I2
tp88
atp89
Rp90
sg13
((I9
I8
tp91
(I6
I5
tp92
(I5
I1
tp93
(I8
I8
tp94
tp95
sg14
I10
sbs(iproblems
RoomID
p96
(dp97
g10
I5
sg11
(I4
I7
tp98
sg13
I3
sg14
I9
sg15
I7
sg16
I2524308075868763041
sb(imulti_robot_problem
MultiRobotState
p99
(dp100
g19
g20
((lp101
(I1
I2
tp102
a(I3
I8
tp103
ag98
a(I4
I6
tp104
a(I4
I1
tp105
a(I2
I4
tp106
a(I3
I5
tp107
atp108
Rp109
sg15
I7
sg27
g20
((lp110
(I2
I6
tp111
a(I5
I2
tp112
a(I3
I3
tp113
a(I0
I7
tp114
a(I3
I6
tp115
atp116
Rp117
sg13
((I0
I6
tp118
(I3
I1
tp119
(I4
I8
tp120
tp121
sg14
I9
sbs(iproblems
RoomID
p122
(dp123
g10
I6
sg11
(I3
I1
tp124
sg13
I4
sg14
I8
sg15
I7
sg16
I807570059310326234
sb(imulti_robot_problem
MultiRobotState
p125
(dp126
g19
g20
((lp127
(I6
I3
tp128
a(I4
I2
tp129
ag124
a(I5
I3
tp130
atp131
Rp132
sg15
I7
sg27
g20
((lp133
(I3
I2
tp134
a(I6
I7
tp135
a(I4
I6
tp136
a(I0
I4
tp137
a(I1
I0
tp138
a(I5
I2
tp139
atp140
Rp141
sg13
((I1
I2
tp142
(I0
I1
tp143
(I3
I7
tp144
(I2
I4
tp145
tp146
sg14
I8
sbssS'name'
p147
S'easy_roomset'
p148
sbsg147
S"AnytimeBeam-w20-gf(2, 'lin')_with_PowerHeuristic2"
p149
sS'solutions'
p150
(dp151
g8
((lp152
(F0.1599999999962165
I50
tp153
a(F1.25
I44
tp154
a(F15.799999999995634
I43
tp155
a(F16.720000000001164
I42
tp156
a(F17.650000000001455
I38
tp157
a(F38.400000000001455
I37
tp158
a(F39.919999999998254
I35
tp159
aF40.0
tp160
sg39
((lp161
(F3.1299999999973807
I7
tp162
aF40.360000000000582
tp163
sg66
((lp164
(F1.0899999999965075
I10
tp165
aF40.080000000001746
tp166
sg122
((lp167
F40.169999999998254
tp168
sg96
((lp169
(F0.079999999994470272
I7
tp170
aF40.0
tp171
ssba(imeasure_core
ProblemSetSolution
p172
(dp173
g3
(imeasure_core
RoomSet
p174
(dp175
g6
(dp176
(iproblems
RoomID
p177
(dp178
g10
I6
sg11
(I6
I2
tp179
sg13
I3
sg14
I11
sg15
I12
sg16
I6832892905590973747
sb(imulti_robot_problem
MultiRobotState
p180
(dp181
g19
g20
((lp182
(I6
I4
tp183
a(I2
I6
tp184
a(I4
I3
tp185
a(I3
I0
tp186
a(I2
I8
tp187
a(I7
I7
tp188
a(I7
I5
tp189
a(I4
I2
tp190
a(I5
I3
tp191
a(I4
I1
tp192
a(I7
I6
tp193
a(I6
I3
tp194
a(I4
I5
tp195
ag179
a(I3
I6
tp196
a(I8
I6
tp197
a(I4
I0
tp198
a(I5
I2
tp199
a(I2
I4
tp200
atp201
Rp202
sg15
I12
sg27
g20
((lp203
(I1
I6
tp204
a(I6
I8
tp205
a(I2
I9
tp206
a(I0
I3
tp207
a(I0
I2
tp208
a(I7
I9
tp209
atp210
Rp211
sg13
((I10
I6
tp212
(I1
I2
tp213
(I0
I0
tp214
tp215
sg14
I11
sbs(iproblems
RoomID
p216
(dp217
g10
I7
sg11
(I3
I1
tp218
sg13
I4
sg14
I9
sg15
I11
sg16
I6924344268699531175
sb(imulti_robot_problem
MultiRobotState
p219
(dp220
g19
g20
((lp221
(I4
I7
tp222
ag218
a(I6
I6
tp223
a(I5
I6
tp224
a(I2
I8
tp225
a(I9
I8
tp226
a(I7
I7
tp227
a(I0
I7
tp228
a(I7
I5
tp229
a(I8
I7
tp230
a(I0
I3
tp231
a(I0
I8
tp232
a(I8
I5
tp233
a(I6
I3
tp234
a(I5
I2
tp235
a(I7
I6
tp236
a(I4
I8
tp237
a(I7
I4
tp238
a(I3
I8
tp239
a(I0
I6
tp240
a(I8
I8
tp241
a(I4
I1
tp242
a(I9
I7
tp243
atp244
Rp245
sg15
I11
sg27
g20
((lp246
(I8
I3
tp247
a(I1
I3
tp248
a(I4
I6
tp249
a(I4
I3
tp250
a(I0
I4
tp251
a(I10
I5
tp252
a(I0
I0
tp253
atp254
Rp255
sg13
((I6
I0
tp256
(I9
I3
tp257
(I1
I1
tp258
(I8
I1
tp259
tp260
sg14
I9
sbs(iproblems
RoomID
p261
(dp262
g10
I6
sg11
(I2
I5
tp263
sg13
I4
sg14
I10
sg15
I9
sg16
I807570059310326234
sb(imulti_robot_problem
MultiRobotState
p264
(dp265
g19
g20
((lp266
(I6
I4
tp267
a(I3
I2
tp268
a(I1
I3
tp269
a(I8
I2
tp270
a(I2
I3
tp271
a(I3
I8
tp272
ag263
a(I1
I0
tp273
a(I1
I2
tp274
a(I7
I4
tp275
a(I4
I1
tp276
a(I3
I3
tp277
a(I3
I4
tp278
a(I1
I1
tp279
a(I6
I3
tp280
a(I2
I0
tp281
a(I1
I8
tp282
a(I2
I2
tp283
a(I5
I2
tp284
a(I0
I2
tp285
a(I8
I4
tp286
atp287
Rp288
sg15
I9
sg27
g20
((lp289
(I7
I3
tp290
a(I2
I6
tp291
a(I1
I6
tp292
a(I4
I2
tp293
a(I5
I8
tp294
a(I7
I9
tp295
atp296
Rp297
sg13
((I6
I2
tp298
(I0
I1
tp299
(I3
I9
tp300
(I3
I5
tp301
tp302
sg14
I10
sbs(iproblems
RoomID
p303
(dp304
g10
I10
sg11
(I6
I8
tp305
sg13
I3
sg14
I11
sg15
I10
sg16
I7391799147228763464
sb(imulti_robot_problem
MultiRobotState
p306
(dp307
g19
g20
((lp308
(I5
I9
tp309
a(I4
I7
tp310
a(I4
I6
tp311
a(I4
I8
tp312
a(I4
I5
tp313
a(I6
I9
tp314
a(I0
I7
tp315
a(I1
I4
tp316
a(I3
I7
tp317
a(I5
I8
tp318
ag305
a(I2
I7
tp319
a(I3
I8
tp320
a(I4
I9
tp321
a(I3
I3
tp322
a(I9
I2
tp323
a(I6
I3
tp324
a(I3
I6
tp325
a(I1
I7
tp326
a(I0
I9
tp327
a(I7
I8
tp328
a(I0
I2
tp329
a(I1
I9
tp330
atp331
Rp332
sg15
I10
sg27
g20
((lp333
(I8
I3
tp334
a(I5
I10
tp335
a(I5
I5
tp336
a(I2
I8
tp337
a(I7
I6
tp338
a(I6
I0
tp339
a(I2
I10
tp340
a(I9
I4
tp341
a(I1
I10
tp342
a(I0
I3
tp343
atp344
Rp345
sg13
((I3
I10
tp346
(I7
I1
tp347
(I1
I5
tp348
tp349
sg14
I11
sbs(iproblems
RoomID
p350
(dp351
g10
I8
sg11
(I11
I7
tp352
sg13
I4
sg14
I12
sg15
I12
sg16
I3562373307524659409
sb(imulti_robot_problem
MultiRobotState
p353
(dp354
g19
g20
((lp355
(I6
I4
tp356
a(I6
I9
tp357
a(I3
I2
tp358
a(I9
I1
tp359
a(I6
I6
tp360
a(I5
I6
tp361
a(I9
I8
tp362
a(I3
I11
tp363
a(I7
I1
tp364
ag352
a(I8
I9
tp365
a(I3
I9
tp366
a(I11
I8
tp367
a(I10
I2
tp368
a(I4
I2
tp369
a(I7
I2
tp370
a(I10
I8
tp371
a(I8
I3
tp372
a(I8
I1
tp373
a(I3
I10
tp374
a(I5
I11
tp375
a(I6
I3
tp376
a(I6
I11
tp377
a(I6
I5
tp378
a(I7
I10
tp379
a(I4
I8
tp380
a(I11
I6
tp381
a(I4
I11
tp382
atp383
Rp384
sg15
I12
sg27
g20
((lp385
(I7
I3
tp386
a(I1
I3
tp387
a(I10
I11
tp388
a(I1
I7
tp389
a(I8
I8
tp390
a(I2
I2
tp391
a(I3
I7
tp392
a(I7
I9
tp393
atp394
Rp395
sg13
((I11
I10
tp396
(I7
I6
tp397
(I10
I10
tp398
(I2
I10
tp399
tp400
sg14
I12
sbssg147
S'mild_roomset'
p401
sbsg147
g149
sg150
(dp402
g177
((lp403
(F0.26000000000203727
I10
tp404
aF40.040000000000873
tp405
sg216
((lp406
(F14.479999999995925
I49
tp407
aF40.269999999996799
tp408
sg261
((lp409
(F8.7000000000043656
I108
tp410
aF40.360000000000582
tp411
sg303
((lp412
(F1.3700000000026193
I36
tp413
aF40.010000000002037
tp414
sg350
((lp415
(F5.7399999999979627
I75
tp416
aF40.189999999995052
tp417
ssba(imeasure_core
ProblemSetSolution
p418
(dp419
g3
(imeasure_core
RoomSet
p420
(dp421
g6
(dp422
(iproblems
RoomID
p423
(dp424
g10
I11
sg11
(I4
I2
tp425
sg13
I5
sg14
I12
sg15
I13
sg16
I6832892905590973747
sb(imulti_robot_problem
MultiRobotState
p426
(dp427
g19
g20
((lp428
(I5
I9
tp429
a(I6
I9
tp430
a(I8
I2
tp431
a(I3
I0
tp432
a(I3
I4
tp433
a(I12
I11
tp434
ag425
a(I4
I1
tp435
a(I4
I0
tp436
atp437
Rp438
sg15
I13
sg27
g20
((lp439
(I2
I7
tp440
a(I9
I0
tp441
a(I6
I8
tp442
a(I4
I5
tp443
a(I2
I8
tp444
a(I8
I10
tp445
a(I2
I10
tp446
a(I1
I7
tp447
a(I3
I7
tp448
a(I2
I5
tp449
a(I0
I8
tp450
atp451
Rp452
sg13
((I11
I6
tp453
(I1
I2
tp454
(I1
I0
tp455
(I0
I3
tp456
(I0
I2
tp457
tp458
sg14
I12
sbs(iproblems
RoomID
p459
(dp460
g10
I12
sg11
(I6
I7
tp461
sg13
I7
sg14
I10
sg15
I12
sg16
I6924344268699531175
sb(imulti_robot_problem
MultiRobotState
p462
(dp463
g19
g20
((lp464
(I4
I7
tp465
ag461
a(I2
I9
tp466
a(I4
I8
tp467
a(I9
I6
tp468
a(I5
I7
tp469
a(I0
I6
tp470
a(I3
I9
tp471
a(I0
I9
tp472
a(I4
I9
tp473
a(I4
I1
tp474
atp475
Rp476
sg15
I12
sg27
g20
((lp477
(I7
I3
tp478
a(I5
I4
tp479
a(I1
I3
tp480
a(I9
I1
tp481
a(I8
I3
tp482
a(I0
I7
tp483
a(I8
I8
tp484
a(I0
I0
tp485
a(I0
I4
tp486
a(I0
I8
tp487
a(I11
I6
tp488
a(I9
I7
tp489
atp490
Rp491
sg13
((I6
I0
tp492
(I10
I4
tp493
(I1
I1
tp494
(I8
I2
tp495
(I11
I5
tp496
(I5
I6
tp497
(I10
I9
tp498
tp499
sg14
I10
sbs(iproblems
RoomID
p500
(dp501
g10
I11
sg11
(I5
I1
tp502
sg13
I7
sg14
I11
sg15
I10
sg16
I807570059310326234
sb(imulti_robot_problem
MultiRobotState
p503
(dp504
g19
g20
((lp505
(I7
I3
tp506
a(I4
I6
tp507
a(I7
I4
tp508
a(I6
I2
tp509
a(I1
I9
tp510
a(I9
I4
tp511
ag502
a(I0
I3
tp512
a(I5
I2
tp513
a(I8
I4
tp514
atp515
Rp516
sg15
I10
sg27
g20
((lp517
(I5
I9
tp518
a(I6
I9
tp519
a(I2
I9
tp520
a(I4
I8
tp521
a(I9
I2
tp522
a(I2
I0
tp523
a(I1
I6
tp524
a(I9
I5
tp525
a(I4
I2
tp526
a(I1
I0
tp527
a(I3
I5
tp528
atp529
Rp530
sg13
((I1
I3
tp531
(I0
I2
tp532
(I4
I10
tp533
(I4
I5
tp534
(I8
I10
tp535
(I8
I3
tp536
(I2
I6
tp537
tp538
sg14
I11
sbs(iproblems
RoomID
p539
(dp540
g10
I13
sg11
(I7
I4
tp541
sg13
I6
sg14
I13
sg15
I13
sg16
I3562373307524659409
sb(imulti_robot_problem
MultiRobotState
p542
(dp543
g19
g20
((lp544
(I7
I3
tp545
a(I5
I4
tp546
a(I4
I9
tp547
a(I9
I1
tp548
a(I5
I9
tp549
a(I8
I1
tp550
a(I11
I2
tp551
a(I9
I3
tp552
a(I3
I11
tp553
a(I11
I7
tp554
ag541
a(I10
I1
tp555
a(I3
I10
tp556
a(I10
I5
tp557
a(I8
I2
tp558
atp559
Rp560
sg15
I13
sg27
g20
((lp561
(I8
I3
tp562
a(I3
I12
tp563
a(I4
I8
tp564
a(I6
I10
tp565
a(I9
I9
tp566
a(I12
I6
tp567
a(I8
I9
tp568
a(I1
I8
tp569
a(I4
I3
tp570
a(I2
I2
tp571
a(I4
I2
tp572
a(I11
I12
tp573
a(I2
I4
tp574
atp575
Rp576
sg13
((I12
I11
tp577
(I7
I6
tp578
(I7
I1
tp579
(I10
I11
tp580
(I2
I11
tp581
(I9
I8
tp582
tp583
sg14
I13
sbs(iproblems
RoomID
p584
(dp585
g10
I15
sg11
(I4
I8
tp586
sg13
I6
sg14
I12
sg15
I11
sg16
I7391799147228763464
sb(imulti_robot_problem
MultiRobotState
p587
(dp588
g19
g20
((lp589
(I6
I4
tp590
a(I4
I7
tp591
ag586
a(I5
I6
tp592
a(I2
I8
tp593
a(I5
I7
tp594
a(I6
I9
tp595
a(I4
I2
tp596
a(I9
I2
tp597
a(I1
I6
tp598
a(I10
I7
tp599
a(I8
I6
tp600
a(I2
I4
tp601
atp602
Rp603
sg15
I11
sg27
g20
((lp604
(I7
I0
tp605
a(I10
I4
tp606
a(I6
I11
tp607
a(I7
I6
tp608
a(I1
I4
tp609
a(I8
I9
tp610
a(I1
I8
tp611
a(I3
I9
tp612
a(I0
I10
tp613
a(I9
I4
tp614
a(I7
I10
tp615
a(I1
I10
tp616
a(I4
I3
tp617
a(I0
I3
tp618
a(I0
I2
tp619
atp620
Rp621
sg13
((I4
I6
tp622
(I3
I11
tp623
(I7
I1
tp624
(I2
I5
tp625
(I5
I9
tp626
(I2
I11
tp627
tp628
sg14
I12
sbssg147
S'heavy_roomset'
p629
sbsg147
g149
sg150
(dp630
g423
((lp631
(F12.730000000003201
I24
tp632
aF40.880000000004657
tp633
sg459
((lp634
F57.569999999999709
tp635
sg500
((lp636
F40.010000000002037
tp637
sg539
((lp638
(F28.049999999995634
I15
tp639
aF40.430000000000291
tp640
sg584
((lp641
F40.769999999996799
tp642
ssba(imeasure_core
ProblemSetSolution
p643
(dp644
g3
g4
sg147
S"AnytimeBeam-w20-gf(4, 'lin')_with_PowerHeuristic2"
p645
sg150
(dp646
g8
((lp647
(F0.1599999999962165
I50
tp648
a(F0.68000000000029104
I44
tp649
a(F7.9099999999962165
I43
tp650
a(F8.819999999999709
I42
tp651
a(F9.7399999999979627
I38
tp652
a(F19.980000000003201
I37
tp653
a(F21.529999999998836
I35
tp654
a(F22.790000000000873
I33
tp655
a(F23.760000000002037
I31
tp656
a(F25.510000000002037
I29
tp657
a(F28.110000000000582
I27
tp658
a(F34.290000000000873
I25
tp659
a(F38.769999999996799
I24
tp660
aF40.0
tp661
sg39
((lp662
(F3.5800000000017462
I7
tp663
aF40.089999999996508
tp664
sg66
((lp665
(F1.2200000000011642
I10
tp666
aF40.040000000000873
tp667
sg122
((lp668
F40.129999999997381
tp669
sg96
((lp670
(F0.090000000003783498
I7
tp671
aF40.05000000000291
tp672
ssba(imeasure_core
ProblemSetSolution
p673
(dp674
g3
g174
sg147
g645
sg150
(dp675
g177
((lp676
(F0.26000000000203727
I10
tp677
aF40.0
tp678
sg216
((lp679
(F28.940000000002328
I49
tp680
aF40.0
tp681
sg261
((lp682
(F9.6500000000014552
I108
tp683
aF40.099999999998545
tp684
sg303
((lp685
(F1.5700000000069849
I36
tp686
aF40.05000000000291
tp687
sg350
((lp688
(F6.4599999999991269
I75
tp689
aF40.110000000000582
tp690
ssba(imeasure_core
ProblemSetSolution
p691
(dp692
g3
g420
sg147
g645
sg150
(dp693
g423
((lp694
(F15.410000000003492
I24
tp695
aF40.180000000000291
tp696
sg459
((lp697
F40.180000000000291
tp698
sg500
((lp699
F40.620000000002619
tp700
sg539
((lp701
(F30.180000000000291
I15
tp702
aF41.019999999996799
tp703
sg584
((lp704
F41.529999999998836
tp705
ssba(imeasure_core
ProblemSetSolution
p706
(dp707
g3
g4
sg147
S"AnytimeBeam-w20-gf(8, 'lin')_with_PowerHeuristic2"
p708
sg150
(dp709
g8
((lp710
(F0.15000000000145519
I50
tp711
a(F0.40000000000145519
I44
tp712
a(F4.1100000000005821
I43
tp713
a(F5.0199999999967986
I42
tp714
a(F5.9400000000023283
I38
tp715
a(F10.299999999995634
I37
tp716
a(F11.870000000002619
I35
tp717
a(F13.150000000001455
I33
tp718
a(F14.120000000002619
I31
tp719
a(F15.919999999998254
I29
tp720
a(F18.540000000000873
I27
tp721
a(F22.049999999995634
I25
tp722
a(F26.569999999999709
I22
tp723
a(F29.209999999999127
I20
tp724
aF40.0
tp725
sg39
((lp726
(F4.1100000000005821
I7
tp727
aF41.459999999999127
tp728
sg66
((lp729
(F1.4199999999982538
I10
tp730
aF40.279999999998836
tp731
sg122
((lp732
F40.110000000000582
tp733
sg96
((lp734
(F0.08000000000174623
I7
tp735
aF40.010000000002037
tp736
ssba(imeasure_core
ProblemSetSolution
p737
(dp738
g3
g174
sg147
g708
sg150
(dp739
g177
((lp740
(F0.25
I10
tp741
aF40.029999999998836
tp742
sg216
((lp743
F40.009999999994761
tp744
sg261
((lp745
(F10.790000000000873
I108
tp746
aF40.190000000002328
tp747
sg303
((lp748
(F1.7300000000032014
I36
tp749
aF40.059999999997672
tp750
sg350
((lp751
(F7.3400000000037835
I75
tp752
aF40.760000000002037
tp753
ssba(imeasure_core
ProblemSetSolution
p754
(dp755
g3
g420
sg147
g708
sg150
(dp756
g423
((lp757
(F18.779999999998836
I24
tp758
aF40.410000000003492
tp759
sg459
((lp760
F40.729999999995925
tp761
sg500
((lp762
F40.650000000001455
tp763
sg539
((lp764
(F33.779999999998836
I15
tp765
aF41.110000000000582
tp766
sg584
((lp767
F41.180000000000291
tp768
ssba(imeasure_core
ProblemSetSolution
p769
(dp770
g3
g4
sg147
S"AnytimeBeam-w20-gf(16, 'lin')_with_PowerHeuristic2"
p771
sg150
(dp772
g8
((lp773
(F0.1599999999962165
I50
tp774
a(F0.41999999999825377
I44
tp775
a(F2.1299999999973807
I43
tp776
a(F3.0499999999956344
I42
tp777
a(F3.9599999999991269
I38
tp778
a(F5.5599999999976717
I37
tp779
a(F7.1299999999973807
I35
tp780
a(F8.4000000000014552
I33
tp781
a(F9.3899999999994179
I31
tp782
a(F11.180000000000291
I29
tp783
a(F13.769999999996799
I27
tp784
a(F17.25
I25
tp785
a(F21.75
I22
tp786
a(F24.370000000002619
I20
tp787
aF40.0
tp788
sg39
((lp789
(F5.2999999999956344
I7
tp790
aF40.309999999997672
tp791
sg66
((lp792
(F1.5200000000040745
I10
tp793
aF40.190000000002328
tp794
sg122
((lp795
F40.040000000000873
tp796
sg96
((lp797
(F0.08000000000174623
I7
tp798
aF40.0
tp799
ssba(imeasure_core
ProblemSetSolution
p800
(dp801
g3
g174
sg147
g771
sg150
(dp802
g177
((lp803
(F0.25
I10
tp804
aF40.060000000004948
tp805
sg216
((lp806
F40.0
tp807
sg261
((lp808
(F12.189999999995052
I108
tp809
aF40.139999999999418
tp810
sg303
((lp811
(F1.7699999999967986
I36
tp812
aF40.0
tp813
sg350
((lp814
(F8.3099999999976717
I75
tp815
aF40.930000000000291
tp816
ssba(imeasure_core
ProblemSetSolution
p817
(dp818
g3
g420
sg147
g771
sg150
(dp819
g423
((lp820
(F22.489999999997963
I24
tp821
aF40.819999999999709
tp822
sg459
((lp823
F41.719999999993888
tp824
sg500
((lp825
F45.110000000000582
tp826
sg539
((lp827
(F38.330000000001746
I15
tp828
aF41.690000000002328
tp829
sg584
((lp830
F41.540000000000873
tp831
ssba(imeasure_core
ProblemSetSolution
p832
(dp833
g3
g4
sg147
S"AnytimeBeam-w20-gf(2, 'lin')_with_LinearHeuristic"
p834
sg150
(dp835
g8
((lp836
(F0.0
I20
tp837
aF40.0
tp838
sg39
((lp839
(F3.0400000000008731
I7
tp840
aF40.219999999993888
tp841
sg66
((lp842
F40.350000000005821
tp843
sg122
((lp844
F40.059999999997672
tp845
sg96
((lp846
(F1.9799999999959255
I47
tp847
a(F4.5400000000008731
I46
tp848
a(F10.209999999999127
I45
tp849
a(F15.619999999995343
I44
tp850
a(F22.369999999995343
I43
tp851
a(F27.459999999999127
I42
tp852
a(F32.729999999995925
I41
tp853
aF40.059999999997672
tp854
ssba(imeasure_core
ProblemSetSolution
p855
(dp856
g3
g174
sg147
g834
sg150
(dp857
g177
((lp858
(F0.45999999999912689
I12
tp859
aF40.010000000002037
tp860
sg216
((lp861
F40.400000000001455
tp862
sg261
((lp863
F40.510000000002037
tp864
sg303
((lp865
(F1.2299999999959255
I38
tp866
aF40.019999999996799
tp867
sg350
((lp868
(F2.7399999999979627
I31
tp869
a(F8.180000000000291
I30
tp870
a(F14.139999999999418
I29
tp871
a(F22.059999999997672
I28
tp872
a(F30.94999999999709
I27
tp873
a(F38.660000000003492
I26
tp874
aF40.010000000002037
tp875
ssba(imeasure_core
ProblemSetSolution
p876
(dp877
g3
g420
sg147
g834
sg150
(dp878
g423
((lp879
F40.759999999994761
tp880
sg459
((lp881
F42.060000000004948
tp882
sg500
((lp883
F40.269999999996799
tp884
sg539
((lp885
F40.540000000000873
tp886
sg584
((lp887
F41.349999999998545
tp888
ssba(imeasure_core
ProblemSetSolution
p889
(dp890
g3
g4
sg147
S"AnytimeBeam-w20-gf(4, 'lin')_with_LinearHeuristic"
p891
sg150
(dp892
g8
((lp893
(F0.010000000002037268
I20
tp894
aF40.0
tp895
sg39
((lp896
(F3.5
I7
tp897
aF40.309999999997672
tp898
sg66
((lp899
F40.639999999999418
tp900
sg122
((lp901
F40.110000000000582
tp902
sg96
((lp903
(F2.3600000000005821
I47
tp904
a(F5.3100000000049477
I46
tp905
a(F11.180000000000291
I45
tp906
a(F16.860000000000582
I44
tp907
a(F23.819999999999709
I43
tp908
a(F29.290000000000873
I42
tp909
a(F35.090000000003783
I41
tp910
aF40.0
tp911
ssba(imeasure_core
ProblemSetSolution
p912
(dp913
g3
g174
sg147
g891
sg150
(dp914
g177
((lp915
(F0.48000000000320142
I12
tp916
aF40.019999999996799
tp917
sg216
((lp918
F40.100000000005821
tp919
sg261
((lp920
F40.259999999994761
tp921
sg303
((lp922
(F1.3000000000029104
I38
tp923
aF40.010000000002037
tp924
sg350
((lp925
(F3.2799999999988358
I31
tp926
a(F9.3700000000026193
I30
tp927
a(F16.340000000003783
I29
tp928
a(F25.660000000003492
I28
tp929
a(F35.830000000001746
I27
tp930
aF40.0
tp931
ssba(imeasure_core
ProblemSetSolution
p932
(dp933
g3
g420
sg147
g891
sg150
(dp934
g423
((lp935
F40.879999999997381
tp936
sg459
((lp937
F42.870000000002619
tp938
sg500
((lp939
F41.379999999997381
tp940
sg539
((lp941
F42.020000000004075
tp942
sg584
((lp943
F40.639999999999418
tp944
ssba(imeasure_core
ProblemSetSolution
p945
(dp946
g3
g4
sg147
S"AnytimeBeam-w20-gf(8, 'lin')_with_LinearHeuristic"
p947
sg150
(dp948
g8
((lp949
(F0.010000000002037268
I20
tp950
aF40.0
tp951
sg39
((lp952
(F3.819999999999709
I7
tp953
aF40.459999999999127
tp954
sg66
((lp955
F40.129999999997381
tp956
sg122
((lp957
F40.150000000001455
tp958
sg96
((lp959
(F3.0500000000029104
I47
tp960
a(F6.680000000000291
I46
tp961
a(F13.600000000005821
I45
tp962
a(F20.400000000001455
I44
tp963
a(F28.680000000000291
I43
tp964
a(F35.390000000006694
I42
tp965
aF40.0
tp966
ssba(imeasure_core
ProblemSetSolution
p967
(dp968
g3
g174
sg147
g947
sg150
(dp969
g177
((lp970
(F0.51000000000203727
I12
tp971
aF40.05000000000291
tp972
sg216
((lp973
F40.029999999998836
tp974
sg261
((lp975
F40.340000000003783
tp976
sg303
((lp977
(F1.4299999999930151
I38
tp978
aF40.029999999998836
tp979
sg350
((lp980
(F3.6100000000005821
I31
tp981
a(F10.299999999995634
I30
tp982
a(F17.619999999995343
I29
tp983
a(F27.25
I28
tp984
a(F37.799999999995634
I27
tp985
aF40.129999999997381
tp986
ssba(imeasure_core
ProblemSetSolution
p987
(dp988
g3
g420
sg147
g947
sg150
(dp989
g423
((lp990
F40.069999999999709
tp991
sg459
((lp992
F44.930000000000291
tp993
sg500
((lp994
F47.19999999999709
tp995
sg539
((lp996
F42.400000000001455
tp997
sg584
((lp998
F40.220000000001164
tp999
ssba(imeasure_core
ProblemSetSolution
p1000
(dp1001
g3
g4
sg147
S"AnytimeBeam-w20-gf(16, 'lin')_with_LinearHeuristic"
p1002
sg150
(dp1003
g8
((lp1004
(F0.020000000004074536
I20
tp1005
aF40.0
tp1006
sg39
((lp1007
(F4.5500000000029104
I7
tp1008
aF40.05000000000291
tp1009
sg66
((lp1010
F40.059999999997672
tp1011
sg122
((lp1012
F40.280000000006112
tp1013
sg96
((lp1014
(F3.3700000000026193
I47
tp1015
a(F7.3899999999994179
I46
tp1016
a(F14.959999999999127
I45
tp1017
a(F22.489999999997963
I44
tp1018
a(F31.599999999998545
I43
tp1019
a(F39.05000000000291
I42
tp1020
aF40.019999999996799
tp1021
ssba(imeasure_core
ProblemSetSolution
p1022
(dp1023
g3
g174
sg147
g1002
sg150
(dp1024
g177
((lp1025
(F0.51999999999679858
I12
tp1026
aF40.039999999993597
tp1027
sg216
((lp1028
F40.240000000005239
tp1029
sg261
((lp1030
F40.259999999994761
tp1031
sg303
((lp1032
(F1.5200000000040745
I38
tp1033
aF40.080000000001746
tp1034
sg350
((lp1035
(F3.8600000000005821
I31
tp1036
a(F11.080000000001746
I30
tp1037
a(F18.970000000001164
I29
tp1038
a(F29.330000000001746
I28
tp1039
aF40.010000000002037
tp1040
ssba(imeasure_core
ProblemSetSolution
p1041
(dp1042
g3
g420
sg147
g1002
sg150
(dp1043
g423
((lp1044
F40.879999999997381
tp1045
sg459
((lp1046
F40.330000000001746
tp1047
sg500
((lp1048
F46.110000000000582
tp1049
sg539
((lp1050
F47.479999999995925
tp1051
sg584
((lp1052
F41.440000000002328
tp1053
ssba.