(lp0
(imeasure_core
ProblemSetSolution
p1
(dp2
S'roomset'
p3
(imeasure_core
RoomSet
p4
(dp5
S'rooms'
p6
(dp7
(iproblems
RoomID
p8
(dp9
S'dusts'
p10
I8
sS'obstacles'
p11
(I2
I8
tp12
sS'robots'
p13
I4
sS'height'
p14
I10
sS'width'
p15
I7
sS'seed'
p16
I7106521602475165645
sb(imulti_robot_problem
MultiRobotState
p17
(dp18
S'obstacle_locations'
p19
c__builtin__
frozenset
p20
((lp21
(I3
I8
tp22
a(I5
I9
tp23
a(I4
I9
tp24
ag12
a(I5
I2
tp25
a(I5
I8
tp26
atp27
Rp28
sg15
I7
sS'dirt_locations'
p29
g20
((lp30
(I1
I2
tp31
a(I2
I7
tp32
a(I0
I0
tp33
a(I3
I1
tp34
a(I6
I0
tp35
a(I2
I1
tp36
a(I2
I3
tp37
a(I2
I5
tp38
atp39
Rp40
sg13
((I0
I8
tp41
(I4
I5
tp42
(I3
I9
tp43
(I1
I8
tp44
tp45
sg14
I10
sbs(iproblems
RoomID
p46
(dp47
g10
I10
sg11
(I3
I3
tp48
sg13
I4
sg14
I10
sg15
I8
sg16
I746805015404516437
sb(imulti_robot_problem
MultiRobotState
p49
(dp50
g19
g20
((lp51
(I7
I4
tp52
ag48
a(I4
I2
tp53
a(I6
I1
tp54
a(I3
I1
tp55
a(I4
I1
tp56
a(I1
I4
tp57
atp58
Rp59
sg15
I8
sg29
g20
((lp60
(I4
I6
tp61
a(I6
I3
tp62
a(I2
I0
tp63
a(I3
I9
tp64
a(I2
I3
tp65
a(I3
I6
tp66
a(I5
I1
tp67
a(I1
I0
tp68
a(I0
I8
tp69
a(I5
I8
tp70
atp71
Rp72
sg13
((I3
I8
tp73
(I4
I8
tp74
(I4
I9
tp75
(I0
I3
tp76
tp77
sg14
I10
sbs(iproblems
RoomID
p78
(dp79
g10
I6
sg11
(I7
I4
tp80
sg13
I2
sg14
I7
sg15
I9
sg16
I4029557120079369747
sb(imulti_robot_problem
MultiRobotState
p81
(dp82
g19
g20
((lp83
g80
a(I7
I5
tp84
a(I4
I1
tp85
a(I6
I1
tp86
a(I8
I5
tp87
a(I8
I4
tp88
atp89
Rp90
sg15
I9
sg29
g20
((lp91
(I2
I6
tp92
a(I6
I6
tp93
a(I3
I0
tp94
a(I2
I5
tp95
a(I1
I1
tp96
a(I5
I3
tp97
atp98
Rp99
sg13
((I6
I0
tp100
(I3
I1
tp101
tp102
sg14
I7
sbs(iproblems
RoomID
p103
(dp104
g10
I5
sg11
(I4
I5
tp105
sg13
I1
sg14
I9
sg15
I8
sg16
I6604845167042249220
sb(imulti_robot_problem
MultiRobotState
p106
(dp107
g19
g20
((lp108
(I7
I4
tp109
ag105
a(I5
I4
tp110
a(I6
I1
tp111
a(I6
I5
tp112
atp113
Rp114
sg15
I8
sg29
g20
((lp115
(I2
I8
tp116
a(I1
I0
tp117
a(I1
I1
tp118
a(I4
I3
tp119
a(I4
I8
tp120
atp121
Rp122
sg13
((I3
I6
tp123
tp124
sg14
I9
sbs(iproblems
RoomID
p125
(dp126
g10
I9
sg11
(I7
I6
tp127
sg13
I5
sg14
I9
sg15
I9
sg16
I8963783824838420066
sb(imulti_robot_problem
MultiRobotState
p128
(dp129
g19
g20
((lp130
(I2
I7
tp131
a(I5
I5
tp132
a(I6
I6
tp133
ag127
a(I4
I4
tp134
a(I7
I1
tp135
a(I7
I5
tp136
a(I2
I2
tp137
a(I6
I5
tp138
atp139
Rp140
sg15
I9
sg29
g20
((lp141
(I3
I0
tp142
a(I2
I1
tp143
a(I6
I3
tp144
a(I0
I7
tp145
a(I3
I7
tp146
a(I8
I6
tp147
a(I0
I8
tp148
a(I8
I5
tp149
a(I7
I2
tp150
atp151
Rp152
sg13
((I7
I7
tp153
(I2
I4
tp154
(I3
I2
tp155
(I4
I7
tp156
(I5
I0
tp157
tp158
sg14
I9
sbssS'name'
p159
S'easy_roomset'
p160
sbsg159
S'AnytimeBest-d10_with_PowerHeuristic2'
p161
sS'solutions'
p162
(dp163
g8
((lp164
F40.140000000000001
tp165
sg46
((lp166
F40.780000000000001
tp167
sg78
((lp168
F40.019999999999996
tp169
sg103
((lp170
F0.24000000000000909
tp171
sg125
((lp172
(F1.3199999999999932
I7
tp173
aF40.239999999999995
tp174
ssba(imeasure_core
ProblemSetSolution
p175
(dp176
g3
(imeasure_core
RoomSet
p177
(dp178
g6
(dp179
(iproblems
RoomID
p180
(dp181
g10
I6
sg11
(I5
I8
tp182
sg13
I3
sg14
I9
sg15
I11
sg16
I4029557120079369747
sb(imulti_robot_problem
MultiRobotState
p183
(dp184
g19
g20
((lp185
(I7
I3
tp186
a(I1
I3
tp187
a(I4
I8
tp188
a(I10
I6
tp189
a(I7
I1
tp190
a(I1
I4
tp191
a(I3
I7
tp192
a(I5
I1
tp193
a(I2
I5
tp194
a(I8
I5
tp195
ag182
a(I10
I5
tp196
a(I4
I6
tp197
a(I10
I7
tp198
a(I9
I6
tp199
a(I6
I1
tp200
a(I4
I4
tp201
a(I6
I3
tp202
a(I3
I6
tp203
a(I1
I7
tp204
a(I9
I5
tp205
a(I2
I4
tp206
a(I8
I4
tp207
atp208
Rp209
sg15
I11
sg29
g20
((lp210
(I3
I8
tp211
a(I8
I8
tp212
a(I7
I2
tp213
a(I5
I2
tp214
a(I1
I1
tp215
a(I2
I1
tp216
atp217
Rp218
sg13
((I8
I0
tp219
(I3
I1
tp220
(I4
I0
tp221
tp222
sg14
I9
sbs(iproblems
RoomID
p223
(dp224
g10
I10
sg11
(I4
I4
tp225
sg13
I4
sg14
I12
sg15
I12
sg16
I2569146471088859254
sb(imulti_robot_problem
MultiRobotState
p226
(dp227
g19
g20
((lp228
(I5
I4
tp229
a(I4
I8
tp230
a(I4
I5
tp231
a(I11
I2
tp232
a(I4
I7
tp233
a(I1
I9
tp234
a(I10
I3
tp235
a(I5
I8
tp236
a(I5
I5
tp237
a(I3
I3
tp238
ag225
a(I2
I11
tp239
a(I5
I6
tp240
a(I7
I2
tp241
a(I4
I3
tp242
a(I2
I2
tp243
a(I10
I0
tp244
a(I5
I11
tp245
a(I1
I1
tp246
atp247
Rp248
sg15
I12
sg29
g20
((lp249
(I2
I7
tp250
a(I10
I10
tp251
a(I3
I0
tp252
a(I3
I11
tp253
a(I0
I2
tp254
a(I1
I5
tp255
a(I9
I4
tp256
a(I0
I8
tp257
a(I2
I4
tp258
a(I11
I6
tp259
atp260
Rp261
sg13
((I9
I11
tp262
(I7
I10
tp263
(I6
I0
tp264
(I10
I1
tp265
tp266
sg14
I12
sbs(iproblems
RoomID
p267
(dp268
g10
I6
sg11
(I4
I5
tp269
sg13
I3
sg14
I12
sg15
I12
sg16
I1360307757430227195
sb(imulti_robot_problem
MultiRobotState
p270
(dp271
g19
g20
((lp272
(I6
I4
tp273
a(I3
I2
tp274
a(I10
I4
tp275
a(I3
I0
tp276
a(I5
I4
tp277
a(I7
I5
tp278
a(I5
I1
tp279
a(I8
I5
tp280
a(I6
I5
tp281
a(I4
I0
tp282
a(I7
I4
tp283
a(I8
I3
tp284
a(I6
I7
tp285
a(I5
I5
tp286
a(I8
I10
tp287
a(I6
I3
tp288
a(I5
I6
tp289
a(I6
I2
tp290
ag269
a(I9
I5
tp291
a(I5
I3
tp292
atp293
Rp294
sg15
I12
sg29
g20
((lp295
(I3
I3
tp296
a(I4
I3
tp297
a(I9
I2
tp298
a(I5
I7
tp299
a(I0
I2
tp300
a(I11
I6
tp301
atp302
Rp303
sg13
((I11
I11
tp304
(I1
I3
tp305
(I0
I1
tp306
tp307
sg14
I12
sbs(iproblems
RoomID
p308
(dp309
g10
I7
sg11
(I5
I4
tp310
sg13
I3
sg14
I11
sg15
I12
sg16
I2577854692418029171
sb(imulti_robot_problem
MultiRobotState
p311
(dp312
g19
g20
((lp313
(I4
I7
tp314
a(I3
I0
tp315
a(I8
I0
tp316
a(I2
I1
tp317
a(I6
I2
tp318
a(I1
I6
tp319
a(I5
I1
tp320
a(I4
I0
tp321
a(I1
I2
tp322
a(I4
I9
tp323
a(I3
I3
tp324
a(I8
I1
tp325
a(I3
I10
tp326
a(I6
I3
tp327
a(I3
I6
tp328
a(I1
I10
tp329
a(I8
I6
tp330
a(I3
I5
tp331
ag310
a(I2
I6
tp332
a(I7
I1
tp333
a(I6
I0
tp334
a(I1
I9
tp335
a(I4
I2
tp336
a(I0
I8
tp337
a(I5
I3
tp338
a(I0
I1
tp339
a(I7
I0
tp340
a(I5
I2
tp341
a(I6
I1
tp342
a(I3
I1
tp343
a(I3
I8
tp344
a(I3
I4
tp345
a(I2
I4
tp346
atp347
Rp348
sg15
I12
sg29
g20
((lp349
(I4
I10
tp350
a(I10
I5
tp351
a(I10
I1
tp352
a(I2
I8
tp353
a(I7
I6
tp354
a(I4
I4
tp355
a(I9
I7
tp356
atp357
Rp358
sg13
((I10
I6
tp359
(I1
I4
tp360
(I11
I8
tp361
tp362
sg14
I11
sbs(iproblems
RoomID
p363
(dp364
g10
I6
sg11
(I2
I4
tp365
sg13
I3
sg14
I10
sg15
I10
sg16
I1821862095355237593
sb(imulti_robot_problem
MultiRobotState
p366
(dp367
g19
g20
((lp368
(I6
I4
tp369
a(I4
I7
tp370
a(I2
I6
tp371
a(I5
I6
tp372
a(I6
I0
tp373
a(I1
I9
tp374
a(I8
I5
tp375
a(I7
I2
tp376
a(I7
I9
tp377
a(I5
I3
tp378
a(I6
I7
tp379
a(I3
I3
tp380
a(I5
I5
tp381
a(I4
I4
tp382
a(I6
I3
tp383
a(I4
I5
tp384
a(I6
I5
tp385
a(I4
I3
tp386
a(I0
I4
tp387
a(I8
I6
tp388
a(I3
I5
tp389
a(I3
I4
tp390
ag365
atp391
Rp392
sg15
I10
sg29
g20
((lp393
(I0
I6
tp394
a(I7
I0
tp395
a(I5
I1
tp396
a(I2
I3
tp397
a(I2
I8
tp398
a(I9
I6
tp399
atp400
Rp401
sg13
((I2
I2
tp402
(I4
I2
tp403
(I0
I7
tp404
tp405
sg14
I10
sbssg159
S'mild_roomset'
p406
sbsg159
g161
sg162
(dp407
g180
((lp408
F40.02000000000001
tp409
sg223
((lp410
F40.310000000000002
tp411
sg267
((lp412
F40.049999999999983
tp413
sg308
((lp414
F40.120000000000005
tp415
sg363
((lp416
F40.0
tp417
ssba(imeasure_core
ProblemSetSolution
p418
(dp419
g3
(imeasure_core
RoomSet
p420
(dp421
g6
(dp422
(iproblems
RoomID
p423
(dp424
g10
I13
sg11
(I5
I3
tp425
sg13
I6
sg14
I13
sg15
I10
sg16
I7106521602475165645
sb(imulti_robot_problem
MultiRobotState
p426
(dp427
g19
g20
((lp428
(I5
I6
tp429
a(I5
I11
tp430
a(I7
I12
tp431
a(I0
I12
tp432
a(I2
I3
tp433
a(I6
I12
tp434
a(I7
I2
tp435
ag425
a(I1
I2
tp436
a(I4
I5
tp437
a(I8
I12
tp438
a(I7
I1
tp439
a(I2
I11
tp440
a(I6
I3
tp441
a(I6
I11
tp442
a(I0
I4
tp443
a(I0
I9
tp444
a(I0
I5
tp445
a(I3
I4
tp446
atp447
Rp448
sg15
I10
sg29
g20
((lp449
(I0
I1
tp450
a(I8
I3
tp451
a(I4
I6
tp452
a(I7
I11
tp453
a(I6
I9
tp454
a(I0
I11
tp455
a(I3
I9
tp456
a(I2
I12
tp457
a(I8
I6
tp458
a(I5
I1
tp459
a(I3
I7
tp460
a(I0
I3
tp461
a(I3
I5
tp462
atp463
Rp464
sg13
((I0
I10
tp465
(I6
I7
tp466
(I4
I11
tp467
(I1
I11
tp468
(I9
I0
tp469
(I3
I1
tp470
tp471
sg14
I13
sbs(iproblems
RoomID
p472
(dp473
g10
I15
sg11
(I9
I4
tp474
sg13
I6
sg14
I13
sg15
I11
sg16
I746805015404516437
sb(imulti_robot_problem
MultiRobotState
p475
(dp476
g19
g20
((lp477
(I8
I0
tp478
a(I4
I8
tp479
a(I4
I5
tp480
a(I10
I6
tp481
a(I6
I0
tp482
a(I3
I5
tp483
a(I3
I9
tp484
ag474
a(I4
I2
tp485
a(I7
I2
tp486
a(I7
I9
tp487
a(I10
I5
tp488
a(I5
I5
tp489
a(I4
I4
tp490
a(I1
I8
tp491
a(I8
I6
tp492
a(I5
I3
tp493
a(I5
I2
tp494
a(I2
I4
tp495
a(I9
I7
tp496
atp497
Rp498
sg15
I11
sg29
g20
((lp499
(I3
I12
tp500
a(I9
I1
tp501
a(I7
I1
tp502
a(I8
I1
tp503
a(I6
I10
tp504
a(I8
I9
tp505
a(I2
I0
tp506
a(I2
I3
tp507
a(I0
I10
tp508
a(I2
I2
tp509
a(I7
I11
tp510
a(I2
I5
tp511
a(I8
I5
tp512
a(I5
I8
tp513
a(I4
I11
tp514
atp515
Rp516
sg13
((I4
I10
tp517
(I6
I11
tp518
(I5
I12
tp519
(I0
I5
tp520
(I1
I0
tp521
(I7
I10
tp522
tp523
sg14
I13
sbs(iproblems
RoomID
p524
(dp525
g10
I11
sg11
(I9
I6
tp526
sg13
I6
sg14
I10
sg15
I12
sg16
I4029557120079369747
sb(imulti_robot_problem
MultiRobotState
p527
(dp528
g19
g20
((lp529
(I11
I7
tp530
a(I10
I6
tp531
a(I5
I5
tp532
a(I7
I1
tp533
a(I10
I7
tp534
a(I9
I8
tp535
a(I4
I4
tp536
a(I1
I6
tp537
a(I3
I6
tp538
a(I1
I7
tp539
ag526
a(I11
I6
tp540
atp541
Rp542
sg15
I12
sg29
g20
((lp543
(I1
I2
tp544
a(I1
I3
tp545
a(I4
I9
tp546
a(I8
I2
tp547
a(I8
I1
tp548
a(I6
I1
tp549
a(I2
I1
tp550
a(I7
I4
tp551
a(I1
I8
tp552
a(I5
I2
tp553
a(I1
I1
tp554
atp555
Rp556
sg13
((I8
I0
tp557
(I4
I1
tp558
(I4
I0
tp559
(I3
I9
tp560
(I8
I9
tp561
(I3
I8
tp562
tp563
sg14
I10
sbs(iproblems
RoomID
p564
(dp565
g10
I10
sg11
(I6
I7
tp566
sg13
I5
sg14
I12
sg15
I11
sg16
I6604845167042249220
sb(imulti_robot_problem
MultiRobotState
p567
(dp568
g19
g20
((lp569
(I9
I0
tp570
ag566
a(I7
I1
tp571
a(I2
I8
tp572
a(I10
I6
tp573
a(I7
I7
tp574
a(I8
I8
tp575
a(I9
I4
tp576
a(I8
I6
tp577
a(I7
I11
tp578
a(I9
I7
tp579
atp580
Rp581
sg15
I11
sg29
g20
((lp582
(I10
I5
tp583
a(I3
I3
tp584
a(I5
I11
tp585
a(I8
I1
tp586
a(I9
I8
tp587
a(I6
I9
tp588
a(I0
I7
tp589
a(I0
I10
tp590
a(I4
I1
tp591
a(I8
I4
tp592
atp593
Rp594
sg13
((I4
I8
tp595
(I1
I0
tp596
(I2
I2
tp597
(I3
I11
tp598
(I6
I5
tp599
tp600
sg14
I12
sbs(iproblems
RoomID
p601
(dp602
g10
I15
sg11
(I5
I5
tp603
sg13
I6
sg14
I13
sg15
I13
sg16
I2569146471088859254
sb(imulti_robot_problem
MultiRobotState
p604
(dp605
g19
g20
((lp606
(I12
I2
tp607
a(I5
I4
tp608
a(I3
I3
tp609
a(I5
I9
tp610
a(I4
I5
tp611
a(I6
I1
tp612
a(I10
I10
tp613
a(I8
I8
tp614
a(I4
I3
tp615
a(I2
I2
tp616
a(I9
I11
tp617
a(I8
I12
tp618
a(I1
I1
tp619
a(I12
I3
tp620
ag603
atp621
Rp622
sg15
I13
sg29
g20
((lp623
(I10
I5
tp624
a(I3
I12
tp625
a(I8
I2
tp626
a(I5
I6
tp627
a(I12
I7
tp628
a(I11
I3
tp629
a(I0
I2
tp630
a(I11
I0
tp631
a(I0
I9
tp632
a(I2
I12
tp633
a(I1
I10
tp634
a(I3
I7
tp635
a(I10
I11
tp636
a(I2
I4
tp637
a(I5
I12
tp638
atp639
Rp640
sg13
((I9
I12
tp641
(I7
I11
tp642
(I7
I0
tp643
(I10
I1
tp644
(I1
I5
tp645
(I4
I0
tp646
tp647
sg14
I13
sbssg159
S'heavy_roomset'
p648
sbsg159
g161
sg162
(dp649
g423
((lp650
F40.389999999999986
tp651
sg472
((lp652
F41.370000000000005
tp653
sg524
((lp654
(F7.2100000000000364
I6
tp655
aF40.160000000000025
tp656
sg564
((lp657
F40.300000000000011
tp658
sg601
((lp659
F41.0
tp660
ssba(imeasure_core
ProblemSetSolution
p661
(dp662
g3
g4
sg159
S'AnytimeBest-d80_with_PowerHeuristic2'
p663
sg162
(dp664
g8
((lp665
(F0.53999999999996362
I15
tp666
aF40.039999999999964
tp667
sg46
((lp668
(F1.8400000000000318
I20
tp669
aF40.060000000000059
tp670
sg78
((lp671
(F0.069999999999936335
I18
tp672
aF40.0
tp673
sg103
((lp674
(F0.14999999999997726
I35
tp675
a(F1.3199999999999363
I33
tp676
a(F1.9399999999999409
I30
tp677
a(F2.2999999999999545
I26
tp678
a(F3.2899999999999636
I25
tp679
a(F3.5
I23
tp680
a(F3.9099999999999682
I21
tp681
a(F5.2899999999999636
I20
tp682
a(F5.5299999999999727
I18
tp683
aF6.6100000000000136
tp684
sg125
((lp685
(F1.3299999999999272
I7
tp686
aF40.119999999999891
tp687
ssba(imeasure_core
ProblemSetSolution
p688
(dp689
g3
g177
sg159
g663
sg162
(dp690
g180
((lp691
(F0.10999999999989996
I15
tp692
aF40.009999999999991
tp693
sg223
((lp694
F40.069999999999936
tp695
sg267
((lp696
F40.009999999999991
tp697
sg308
((lp698
(F0.5300000000000864
I29
tp699
aF40.009999999999991
tp700
sg363
((lp701
(F0.11000000000001364
I13
tp702
aF40.009999999999991
tp703
ssba(imeasure_core
ProblemSetSolution
p704
(dp705
g3
g420
sg159
g663
sg162
(dp706
g423
((lp707
F41.090000000000032
tp708
sg472
((lp709
F41.200000000000045
tp710
sg524
((lp711
(F7.2400000000000091
I6
tp712
aF40.190000000000055
tp713
sg564
((lp714
(F5.6699999999998454
I21
tp715
aF40.319999999999936
tp716
sg601
((lp717
(F39.769999999999982
I27
tp718
aF40.319999999999936
tp719
ssba(imeasure_core
ProblemSetSolution
p720
(dp721
g3
g4
sg159
S'AnytimeBest-d150_with_PowerHeuristic2'
p722
sg162
(dp723
g8
((lp724
(F0.53999999999996362
I15
tp725
aF40.080000000000155
tp726
sg46
((lp727
(F1.8299999999999272
I20
tp728
aF40.059999999999945
tp729
sg78
((lp730
(F0.069999999999936335
I18
tp731
aF40.0
tp732
sg103
((lp733
(F0.14999999999986358
I35
tp734
a(F1.3099999999999454
I33
tp735
a(F1.9199999999998454
I30
tp736
a(F2.2799999999999727
I26
tp737
a(F3.2599999999999909
I25
tp738
a(F3.4800000000000182
I23
tp739
a(F3.8899999999998727
I21
tp740
a(F5.2599999999999909
I20
tp741
a(F5.5
I18
tp742
aF6.5799999999999272
tp743
sg125
((lp744
(F1.3199999999999363
I7
tp745
aF40.190000000000055
tp746
ssba(imeasure_core
ProblemSetSolution
p747
(dp748
g3
g177
sg159
g722
sg162
(dp749
g180
((lp750
(F0.099999999999909051
I15
tp751
aF40.009999999999991
tp752
sg223
((lp753
(F8.4100000000000819
I122
tp754
aF40.049999999999955
tp755
sg267
((lp756
F40.110000000000127
tp757
sg308
((lp758
(F0.54999999999995453
I29
tp759
aF40.009999999999991
tp760
sg363
((lp761
(F0.10999999999989996
I13
tp762
aF40.009999999999991
tp763
ssba(imeasure_core
ProblemSetSolution
p764
(dp765
g3
g420
sg159
g722
sg162
(dp766
g423
((lp767
F41.079999999999927
tp768
sg472
((lp769
F40.789999999999964
tp770
sg524
((lp771
(F7.0800000000001546
I6
tp772
aF40.160000000000082
tp773
sg564
((lp774
(F5.6800000000000637
I21
tp775
aF40.25
tp776
sg601
((lp777
(F39.8599999999999
I27
tp778
aF40.319999999999936
tp779
ssba(imeasure_core
ProblemSetSolution
p780
(dp781
g3
g4
sg159
S'AnytimeBest-d250_with_PowerHeuristic2'
p782
sg162
(dp783
g8
((lp784
(F0.53999999999996362
I15
tp785
aF40.029999999999973
tp786
sg46
((lp787
(F1.8300000000001546
I20
tp788
aF40.130000000000109
tp789
sg78
((lp790
(F0.069999999999936335
I18
tp791
aF40.0
tp792
sg103
((lp793
(F0.14999999999986358
I35
tp794
a(F1.3199999999999363
I33
tp795
a(F1.9400000000000546
I30
tp796
a(F2.2999999999999545
I26
tp797
a(F3.2799999999999727
I25
tp798
a(F3.4900000000000091
I23
tp799
a(F3.9099999999998545
I21
tp800
a(F5.2799999999999727
I20
tp801
a(F5.5199999999999818
I18
tp802
aF6.5999999999999091
tp803
sg125
((lp804
(F1.3199999999999363
I7
tp805
aF40.069999999999936
tp806
ssba(imeasure_core
ProblemSetSolution
p807
(dp808
g3
g177
sg159
g782
sg162
(dp809
g180
((lp810
(F0.12000000000011823
I15
tp811
aF40.009999999999991
tp812
sg223
((lp813
(F8.3600000000001273
I122
tp814
aF40.050000000000182
tp815
sg267
((lp816
F40.019999999999982
tp817
sg308
((lp818
(F0.53999999999996362
I29
tp819
aF40.0
tp820
sg363
((lp821
(F0.10999999999989996
I13
tp822
aF40.009999999999764
tp823
ssba(imeasure_core
ProblemSetSolution
p824
(dp825
g3
g420
sg159
g782
sg162
(dp826
g423
((lp827
F41.210000000000036
tp828
sg472
((lp829
F40.840000000000146
tp830
sg524
((lp831
(F7.1100000000001273
I6
tp832
aF40.159999999999854
tp833
sg564
((lp834
(F5.5900000000001455
I21
tp835
aF40.309999999999945
tp836
sg601
((lp837
(F39.950000000000273
I27
tp838
aF40.320000000000164
tp839
ssba(imeasure_core
ProblemSetSolution
p840
(dp841
g3
g4
sg159
S'AnytimeBest-d400_with_PowerHeuristic2'
p842
sg162
(dp843
g8
((lp844
(F0.52999999999974534
I15
tp845
aF40.039999999999964
tp846
sg46
((lp847
(F1.8299999999999272
I20
tp848
aF40.099999999999909
tp849
sg78
((lp850
(F0.05999999999994543
I18
tp851
aF40.0
tp852
sg103
((lp853
(F0.15000000000009095
I35
tp854
a(F1.3200000000001637
I33
tp855
a(F1.9400000000000546
I30
tp856
a(F2.2999999999997272
I26
tp857
a(F3.2899999999999636
I25
tp858
a(F3.5
I23
tp859
a(F3.9099999999998545
I21
tp860
a(F5.2899999999999636
I20
tp861
a(F5.5299999999997453
I18
tp862
aF6.5999999999999091
tp863
sg125
((lp864
(F1.3400000000001455
I7
tp865
aF40.260000000000218
tp866
ssba(imeasure_core
ProblemSetSolution
p867
(dp868
g3
g177
sg159
g842
sg162
(dp869
g180
((lp870
(F0.099999999999909051
I15
tp871
aF40.010000000000218
tp872
sg223
((lp873
(F8.3599999999996726
I122
tp874
aF40.049999999999727
tp875
sg267
((lp876
F40.230000000000018
tp877
sg308
((lp878
(F0.5500000000001819
I29
tp879
aF40.010000000000218
tp880
sg363
((lp881
(F0.10999999999967258
I13
tp882
aF40.009999999999764
tp883
ssba(imeasure_core
ProblemSetSolution
p884
(dp885
g3
g420
sg159
g842
sg162
(dp886
g423
((lp887
F40.369999999999891
tp888
sg472
((lp889
F40.980000000000018
tp890
sg524
((lp891
(F7.1999999999998181
I6
tp892
aF40.349999999999909
tp893
sg564
((lp894
(F5.6100000000001273
I21
tp895
aF40.349999999999909
tp896
sg601
((lp897
(F39.980000000000018
I27
tp898
aF40.320000000000164
tp899
ssba(imeasure_core
ProblemSetSolution
p900
(dp901
g3
g4
sg159
S'AnytimeBest-d10_with_LinearHeuristic'
p902
sg162
(dp903
g8
((lp904
F40.149999999999636
tp905
sg46
((lp906
F40.160000000000309
tp907
sg78
((lp908
(F0.029999999999745341
I10
tp909
aF40.019999999999982
tp910
sg103
((lp911
F0.75
tp912
sg125
((lp913
F40.170000000000073
tp914
ssba(imeasure_core
ProblemSetSolution
p915
(dp916
g3
g177
sg159
g902
sg162
(dp917
g180
((lp918
F40.039999999999964
tp919
sg223
((lp920
F40.110000000000127
tp921
sg267
((lp922
F40.059999999999945
tp923
sg308
((lp924
F40.079999999999927
tp925
sg363
((lp926
F40.019999999999982
tp927
ssba(imeasure_core
ProblemSetSolution
p928
(dp929
g3
g420
sg159
g902
sg162
(dp930
g423
((lp931
F40.190000000000055
tp932
sg472
((lp933
F40.490000000000236
tp934
sg524
((lp935
(F11.369999999999891
I7
tp936
aF40.9699999999998
tp937
sg564
((lp938
F40.2199999999998
tp939
sg601
((lp940
F41.420000000000073
tp941
ssba(imeasure_core
ProblemSetSolution
p942
(dp943
g3
g4
sg159
S'AnytimeBest-d80_with_LinearHeuristic'
p944
sg162
(dp945
g8
((lp946
F40.059999999999945
tp947
sg46
((lp948
(F1.8800000000001091
I24
tp949
aF40.139999999999873
tp950
sg78
((lp951
(F0.030000000000200089
I10
tp952
aF40.019999999999982
tp953
sg103
((lp954
(F0.010000000000218279
I18
tp955
aF6.3499999999999091
tp956
sg125
((lp957
F40.390000000000327
tp958
ssba(imeasure_core
ProblemSetSolution
p959
(dp960
g3
g177
sg159
g944
sg162
(dp961
g180
((lp962
F40.059999999999945
tp963
sg223
((lp964
F40.130000000000109
tp965
sg267
((lp966
F40.039999999999964
tp967
sg308
((lp968
F40.0300000000002
tp969
sg363
((lp970
F40.099999999999909
tp971
ssba(imeasure_core
ProblemSetSolution
p972
(dp973
g3
g420
sg159
g944
sg162
(dp974
g423
((lp975
F40.920000000000073
tp976
sg472
((lp977
F40.700000000000273
tp978
sg524
((lp979
(F11.279999999999745
I7
tp980
aF40.869999999999891
tp981
sg564
((lp982
F40.389999999999873
tp983
sg601
((lp984
F40.849999999999909
tp985
ssba(imeasure_core
ProblemSetSolution
p986
(dp987
g3
g4
sg159
S'AnytimeBest-d150_with_LinearHeuristic'
p988
sg162
(dp989
g8
((lp990
F40.409999999999854
tp991
sg46
((lp992
(F1.8800000000001091
I24
tp993
aF40.110000000000127
tp994
sg78
((lp995
(F0.030000000000200089
I10
tp996
aF40.019999999999982
tp997
sg103
((lp998
(F0.010000000000218279
I18
tp999
aF6.3400000000001455
tp1000
sg125
((lp1001
(F31.1899999999996
I91
tp1002
aF40.170000000000073
tp1003
ssba(imeasure_core
ProblemSetSolution
p1004
(dp1005
g3
g177
sg159
g988
sg162
(dp1006
g180
((lp1007
F40.050000000000182
tp1008
sg223
((lp1009
F40.349999999999454
tp1010
sg267
((lp1011
F40.0600000000004
tp1012
sg308
((lp1013
F40.019999999999527
tp1014
sg363
((lp1015
(F10.140000000000327
I134
tp1016
a(F11.100000000000364
I133
tp1017
a(F12.210000000000036
I132
tp1018
a(F12.829999999999927
I131
tp1019
aF40.140000000000327
tp1020
ssba(imeasure_core
ProblemSetSolution
p1021
(dp1022
g3
g420
sg159
g988
sg162
(dp1023
g423
((lp1024
F41.359999999999673
tp1025
sg472
((lp1026
F40.610000000000582
tp1027
sg524
((lp1028
(F11.420000000000073
I7
tp1029
aF41.25
tp1030
sg564
((lp1031
F40.299999999999272
tp1032
sg601
((lp1033
F41.3700000000008
tp1034
ssba(imeasure_core
ProblemSetSolution
p1035
(dp1036
g3
g4
sg159
S'AnytimeBest-d250_with_LinearHeuristic'
p1037
sg162
(dp1038
g8
((lp1039
(F30.220000000000255
I155
tp1040
aF40.070000000000618
tp1041
sg46
((lp1042
(F1.8699999999998909
I24
tp1043
aF40.109999999999673
tp1044
sg78
((lp1045
(F0.029999999999745341
I10
tp1046
aF40.019999999999527
tp1047
sg103
((lp1048
(F0.010000000000218279
I18
tp1049
aF6.3600000000005821
tp1050
sg125
((lp1051
(F31.1899999999996
I91
tp1052
aF40.359999999999673
tp1053
ssba(imeasure_core
ProblemSetSolution
p1054
(dp1055
g3
g177
sg159
g1037
sg162
(dp1056
g180
((lp1057
F40.109999999999673
tp1058
sg223
((lp1059
F40.430000000000291
tp1060
sg267
((lp1061
F40.109999999999673
tp1062
sg308
((lp1063
F40.030000000000655
tp1064
sg363
((lp1065
(F10.139999999999418
I134
tp1066
a(F11.109999999999673
I133
tp1067
a(F12.210000000000036
I132
tp1068
a(F12.829999999999927
I131
tp1069
aF40.119999999999891
tp1070
ssba(imeasure_core
ProblemSetSolution
p1071
(dp1072
g3
g420
sg159
g1037
sg162
(dp1073
g423
((lp1074
F40.359999999999673
tp1075
sg472
((lp1076
F40.529999999999745
tp1077
sg524
((lp1078
(F11.420000000000073
I7
tp1079
aF41.279999999999745
tp1080
sg564
((lp1081
F40.300000000000182
tp1082
sg601
((lp1083
F41.369999999999891
tp1084
ssba(imeasure_core
ProblemSetSolution
p1085
(dp1086
g3
g4
sg159
S'AnytimeBest-d400_with_LinearHeuristic'
p1087
sg162
(dp1088
g8
((lp1089
(F30.390000000000327
I155
tp1090
aF40.079999999999927
tp1091
sg46
((lp1092
(F1.8800000000001091
I24
tp1093
aF40.110000000000582
tp1094
sg78
((lp1095
(F0.029999999999745341
I10
tp1096
aF40.019999999999527
tp1097
sg103
((lp1098
(F0.010000000000218279
I18
tp1099
aF6.3800000000001091
tp1100
sg125
((lp1101
(F31.25
I91
tp1102
aF40.380000000000109
tp1103
ssba(imeasure_core
ProblemSetSolution
p1104
(dp1105
g3
g177
sg159
g1087
sg162
(dp1106
g180
((lp1107
F40.099999999999454
tp1108
sg223
((lp1109
F40.320000000000618
tp1110
sg267
((lp1111
F40.229999999999563
tp1112
sg308
((lp1113
F40.020000000000437
tp1114
sg363
((lp1115
(F10.179999999999382
I134
tp1116
a(F11.169999999999163
I133
tp1117
a(F12.269999999999527
I132
tp1118
a(F12.889999999999418
I131
tp1119
aF40.069999999999709
tp1120
ssba(imeasure_core
ProblemSetSolution
p1121
(dp1122
g3
g420
sg159
g1087
sg162
(dp1123
g423
((lp1124
F40.489999999999782
tp1125
sg472
((lp1126
F40.390000000000327
tp1127
sg524
((lp1128
(F11.420000000000073
I7
tp1129
aF41.219999999999345
tp1130
sg564
((lp1131
F40.230000000000473
tp1132
sg601
((lp1133
F41.229999999999563
tp1134
ssba.