(lp0
(imeasure_core
ProblemSetSolution
p1
(dp2
S'roomset'
p3
(imeasure_core
RoomSet
p4
(dp5
S'rooms'
p6
(dp7
(iproblems
RoomID
p8
(dp9
S'dusts'
p10
I8
sS'obstacles'
p11
(I2
I8
tp12
sS'robots'
p13
I4
sS'height'
p14
I10
sS'width'
p15
I7
sS'seed'
p16
I7106521602475165645
sb(imulti_robot_problem
MultiRobotState
p17
(dp18
S'obstacle_locations'
p19
c__builtin__
frozenset
p20
((lp21
(I3
I8
tp22
a(I5
I9
tp23
a(I4
I9
tp24
ag12
a(I5
I2
tp25
a(I5
I8
tp26
atp27
Rp28
sg15
I7
sS'dirt_locations'
p29
g20
((lp30
(I1
I2
tp31
a(I2
I7
tp32
a(I0
I0
tp33
a(I3
I1
tp34
a(I6
I0
tp35
a(I2
I1
tp36
a(I2
I3
tp37
a(I2
I5
tp38
atp39
Rp40
sg13
((I0
I8
tp41
(I4
I5
tp42
(I3
I9
tp43
(I1
I8
tp44
tp45
sg14
I10
sbs(iproblems
RoomID
p46
(dp47
g10
I10
sg11
(I3
I3
tp48
sg13
I4
sg14
I10
sg15
I8
sg16
I746805015404516437
sb(imulti_robot_problem
MultiRobotState
p49
(dp50
g19
g20
((lp51
(I7
I4
tp52
ag48
a(I4
I2
tp53
a(I6
I1
tp54
a(I3
I1
tp55
a(I4
I1
tp56
a(I1
I4
tp57
atp58
Rp59
sg15
I8
sg29
g20
((lp60
(I4
I6
tp61
a(I6
I3
tp62
a(I2
I0
tp63
a(I3
I9
tp64
a(I2
I3
tp65
a(I3
I6
tp66
a(I5
I1
tp67
a(I1
I0
tp68
a(I0
I8
tp69
a(I5
I8
tp70
atp71
Rp72
sg13
((I3
I8
tp73
(I4
I8
tp74
(I4
I9
tp75
(I0
I3
tp76
tp77
sg14
I10
sbs(iproblems
RoomID
p78
(dp79
g10
I6
sg11
(I7
I4
tp80
sg13
I2
sg14
I7
sg15
I9
sg16
I4029557120079369747
sb(imulti_robot_problem
MultiRobotState
p81
(dp82
g19
g20
((lp83
g80
a(I7
I5
tp84
a(I4
I1
tp85
a(I6
I1
tp86
a(I8
I5
tp87
a(I8
I4
tp88
atp89
Rp90
sg15
I9
sg29
g20
((lp91
(I2
I6
tp92
a(I6
I6
tp93
a(I3
I0
tp94
a(I2
I5
tp95
a(I1
I1
tp96
a(I5
I3
tp97
atp98
Rp99
sg13
((I6
I0
tp100
(I3
I1
tp101
tp102
sg14
I7
sbs(iproblems
RoomID
p103
(dp104
g10
I5
sg11
(I4
I5
tp105
sg13
I1
sg14
I9
sg15
I8
sg16
I6604845167042249220
sb(imulti_robot_problem
MultiRobotState
p106
(dp107
g19
g20
((lp108
(I7
I4
tp109
ag105
a(I5
I4
tp110
a(I6
I1
tp111
a(I6
I5
tp112
atp113
Rp114
sg15
I8
sg29
g20
((lp115
(I2
I8
tp116
a(I1
I0
tp117
a(I1
I1
tp118
a(I4
I3
tp119
a(I4
I8
tp120
atp121
Rp122
sg13
((I3
I6
tp123
tp124
sg14
I9
sbs(iproblems
RoomID
p125
(dp126
g10
I9
sg11
(I7
I6
tp127
sg13
I5
sg14
I9
sg15
I9
sg16
I8963783824838420066
sb(imulti_robot_problem
MultiRobotState
p128
(dp129
g19
g20
((lp130
(I2
I7
tp131
a(I5
I5
tp132
a(I6
I6
tp133
ag127
a(I4
I4
tp134
a(I7
I1
tp135
a(I7
I5
tp136
a(I2
I2
tp137
a(I6
I5
tp138
atp139
Rp140
sg15
I9
sg29
g20
((lp141
(I3
I0
tp142
a(I2
I1
tp143
a(I6
I3
tp144
a(I0
I7
tp145
a(I3
I7
tp146
a(I8
I6
tp147
a(I0
I8
tp148
a(I8
I5
tp149
a(I7
I2
tp150
atp151
Rp152
sg13
((I7
I7
tp153
(I2
I4
tp154
(I3
I2
tp155
(I4
I7
tp156
(I5
I0
tp157
tp158
sg14
I9
sbssS'name'
p159
S'easy_roomset'
p160
sbsg159
S"AnytimeBeam-w20-gf(2, 'lin')_with_PowerHeuristic2"
p161
sS'solutions'
p162
(dp163
g8
((lp164
(F0.57000000000000006
I15
tp165
aF40.009999999999998
tp166
sg46
((lp167
(F2.5500000000000043
I20
tp168
aF40.030000000000001
tp169
sg78
((lp170
(F0.10999999999999943
I18
tp171
aF40.0
tp172
sg103
((lp173
(F0.099999999999994316
I35
tp174
a(F0.79000000000000625
I33
tp175
a(F1.6400000000000006
I30
tp176
a(F2.3299999999999983
I26
tp177
a(F3.1099999999999994
I25
tp178
a(F3.8599999999999994
I23
tp179
a(F4.6099999999999994
I21
tp180
a(F5.9300000000000068
I20
tp181
a(F7.1599999999999966
I18
tp182
aF40.000000000000014
tp183
sg125
((lp184
(F2.2599999999999909
I7
tp185
aF40.099999999999994
tp186
ssba(imeasure_core
ProblemSetSolution
p187
(dp188
g3
(imeasure_core
RoomSet
p189
(dp190
g6
(dp191
(iproblems
RoomID
p192
(dp193
g10
I6
sg11
(I5
I8
tp194
sg13
I3
sg14
I9
sg15
I11
sg16
I4029557120079369747
sb(imulti_robot_problem
MultiRobotState
p195
(dp196
g19
g20
((lp197
(I7
I3
tp198
a(I1
I3
tp199
a(I4
I8
tp200
a(I10
I6
tp201
a(I7
I1
tp202
a(I1
I4
tp203
a(I3
I7
tp204
a(I5
I1
tp205
a(I2
I5
tp206
a(I8
I5
tp207
ag194
a(I10
I5
tp208
a(I4
I6
tp209
a(I10
I7
tp210
a(I9
I6
tp211
a(I6
I1
tp212
a(I4
I4
tp213
a(I6
I3
tp214
a(I3
I6
tp215
a(I1
I7
tp216
a(I9
I5
tp217
a(I2
I4
tp218
a(I8
I4
tp219
atp220
Rp221
sg15
I11
sg29
g20
((lp222
(I3
I8
tp223
a(I8
I8
tp224
a(I7
I2
tp225
a(I5
I2
tp226
a(I1
I1
tp227
a(I2
I1
tp228
atp229
Rp230
sg13
((I8
I0
tp231
(I3
I1
tp232
(I4
I0
tp233
tp234
sg14
I9
sbs(iproblems
RoomID
p235
(dp236
g10
I10
sg11
(I4
I4
tp237
sg13
I4
sg14
I12
sg15
I12
sg16
I2569146471088859254
sb(imulti_robot_problem
MultiRobotState
p238
(dp239
g19
g20
((lp240
(I5
I4
tp241
a(I4
I8
tp242
a(I4
I5
tp243
a(I11
I2
tp244
a(I4
I7
tp245
a(I1
I9
tp246
a(I10
I3
tp247
a(I5
I8
tp248
a(I5
I5
tp249
a(I3
I3
tp250
ag237
a(I2
I11
tp251
a(I5
I6
tp252
a(I7
I2
tp253
a(I4
I3
tp254
a(I2
I2
tp255
a(I10
I0
tp256
a(I5
I11
tp257
a(I1
I1
tp258
atp259
Rp260
sg15
I12
sg29
g20
((lp261
(I2
I7
tp262
a(I10
I10
tp263
a(I3
I0
tp264
a(I3
I11
tp265
a(I0
I2
tp266
a(I1
I5
tp267
a(I9
I4
tp268
a(I0
I8
tp269
a(I2
I4
tp270
a(I11
I6
tp271
atp272
Rp273
sg13
((I9
I11
tp274
(I7
I10
tp275
(I6
I0
tp276
(I10
I1
tp277
tp278
sg14
I12
sbs(iproblems
RoomID
p279
(dp280
g10
I6
sg11
(I4
I5
tp281
sg13
I3
sg14
I12
sg15
I12
sg16
I1360307757430227195
sb(imulti_robot_problem
MultiRobotState
p282
(dp283
g19
g20
((lp284
(I6
I4
tp285
a(I3
I2
tp286
a(I10
I4
tp287
a(I3
I0
tp288
a(I5
I4
tp289
a(I7
I5
tp290
a(I5
I1
tp291
a(I8
I5
tp292
a(I6
I5
tp293
a(I4
I0
tp294
a(I7
I4
tp295
a(I8
I3
tp296
a(I6
I7
tp297
a(I5
I5
tp298
a(I8
I10
tp299
a(I6
I3
tp300
a(I5
I6
tp301
a(I6
I2
tp302
ag281
a(I9
I5
tp303
a(I5
I3
tp304
atp305
Rp306
sg15
I12
sg29
g20
((lp307
(I3
I3
tp308
a(I4
I3
tp309
a(I9
I2
tp310
a(I5
I7
tp311
a(I0
I2
tp312
a(I11
I6
tp313
atp314
Rp315
sg13
((I11
I11
tp316
(I1
I3
tp317
(I0
I1
tp318
tp319
sg14
I12
sbs(iproblems
RoomID
p320
(dp321
g10
I7
sg11
(I5
I4
tp322
sg13
I3
sg14
I11
sg15
I12
sg16
I2577854692418029171
sb(imulti_robot_problem
MultiRobotState
p323
(dp324
g19
g20
((lp325
(I4
I7
tp326
a(I3
I0
tp327
a(I8
I0
tp328
a(I2
I1
tp329
a(I6
I2
tp330
a(I1
I6
tp331
a(I5
I1
tp332
a(I4
I0
tp333
a(I1
I2
tp334
a(I4
I9
tp335
a(I3
I3
tp336
a(I8
I1
tp337
a(I3
I10
tp338
a(I6
I3
tp339
a(I3
I6
tp340
a(I1
I10
tp341
a(I8
I6
tp342
a(I3
I5
tp343
ag322
a(I2
I6
tp344
a(I7
I1
tp345
a(I6
I0
tp346
a(I1
I9
tp347
a(I4
I2
tp348
a(I0
I8
tp349
a(I5
I3
tp350
a(I0
I1
tp351
a(I7
I0
tp352
a(I5
I2
tp353
a(I6
I1
tp354
a(I3
I1
tp355
a(I3
I8
tp356
a(I3
I4
tp357
a(I2
I4
tp358
atp359
Rp360
sg15
I12
sg29
g20
((lp361
(I4
I10
tp362
a(I10
I5
tp363
a(I10
I1
tp364
a(I2
I8
tp365
a(I7
I6
tp366
a(I4
I4
tp367
a(I9
I7
tp368
atp369
Rp370
sg13
((I10
I6
tp371
(I1
I4
tp372
(I11
I8
tp373
tp374
sg14
I11
sbs(iproblems
RoomID
p375
(dp376
g10
I6
sg11
(I2
I4
tp377
sg13
I3
sg14
I10
sg15
I10
sg16
I1821862095355237593
sb(imulti_robot_problem
MultiRobotState
p378
(dp379
g19
g20
((lp380
(I6
I4
tp381
a(I4
I7
tp382
a(I2
I6
tp383
a(I5
I6
tp384
a(I6
I0
tp385
a(I1
I9
tp386
a(I8
I5
tp387
a(I7
I2
tp388
a(I7
I9
tp389
a(I5
I3
tp390
a(I6
I7
tp391
a(I3
I3
tp392
a(I5
I5
tp393
a(I4
I4
tp394
a(I6
I3
tp395
a(I4
I5
tp396
a(I6
I5
tp397
a(I4
I3
tp398
a(I0
I4
tp399
a(I8
I6
tp400
a(I3
I5
tp401
a(I3
I4
tp402
ag377
atp403
Rp404
sg15
I10
sg29
g20
((lp405
(I0
I6
tp406
a(I7
I0
tp407
a(I5
I1
tp408
a(I2
I3
tp409
a(I2
I8
tp410
a(I9
I6
tp411
atp412
Rp413
sg13
((I2
I2
tp414
(I4
I2
tp415
(I0
I7
tp416
tp417
sg14
I10
sbssg159
S'mild_roomset'
p418
sbsg159
g161
sg162
(dp419
g192
((lp420
(F0.28999999999999204
I15
tp421
aF40.0
tp422
sg235
((lp423
(F15.20999999999998
I122
tp424
aF40.219999999999999
tp425
sg320
((lp426
(F1.3000000000000114
I29
tp427
aF40.050000000000011
tp428
sg375
((lp429
(F0.28000000000002956
I13
tp430
aF40.0
tp431
sg279
((lp432
F40.149999999999977
tp433
ssba(imeasure_core
ProblemSetSolution
p434
(dp435
g3
(imeasure_core
RoomSet
p436
(dp437
g6
(dp438
(iproblems
RoomID
p439
(dp440
g10
I13
sg11
(I5
I3
tp441
sg13
I6
sg14
I13
sg15
I10
sg16
I7106521602475165645
sb(imulti_robot_problem
MultiRobotState
p442
(dp443
g19
g20
((lp444
(I5
I6
tp445
a(I5
I11
tp446
a(I7
I12
tp447
a(I0
I12
tp448
a(I2
I3
tp449
a(I6
I12
tp450
a(I7
I2
tp451
ag441
a(I1
I2
tp452
a(I4
I5
tp453
a(I8
I12
tp454
a(I7
I1
tp455
a(I2
I11
tp456
a(I6
I3
tp457
a(I6
I11
tp458
a(I0
I4
tp459
a(I0
I9
tp460
a(I0
I5
tp461
a(I3
I4
tp462
atp463
Rp464
sg15
I10
sg29
g20
((lp465
(I0
I1
tp466
a(I8
I3
tp467
a(I4
I6
tp468
a(I7
I11
tp469
a(I6
I9
tp470
a(I0
I11
tp471
a(I3
I9
tp472
a(I2
I12
tp473
a(I8
I6
tp474
a(I5
I1
tp475
a(I3
I7
tp476
a(I0
I3
tp477
a(I3
I5
tp478
atp479
Rp480
sg13
((I0
I10
tp481
(I6
I7
tp482
(I4
I11
tp483
(I1
I11
tp484
(I9
I0
tp485
(I3
I1
tp486
tp487
sg14
I13
sbs(iproblems
RoomID
p488
(dp489
g10
I15
sg11
(I9
I4
tp490
sg13
I6
sg14
I13
sg15
I11
sg16
I746805015404516437
sb(imulti_robot_problem
MultiRobotState
p491
(dp492
g19
g20
((lp493
(I8
I0
tp494
a(I4
I8
tp495
a(I4
I5
tp496
a(I10
I6
tp497
a(I6
I0
tp498
a(I3
I5
tp499
a(I3
I9
tp500
ag490
a(I4
I2
tp501
a(I7
I2
tp502
a(I7
I9
tp503
a(I10
I5
tp504
a(I5
I5
tp505
a(I4
I4
tp506
a(I1
I8
tp507
a(I8
I6
tp508
a(I5
I3
tp509
a(I5
I2
tp510
a(I2
I4
tp511
a(I9
I7
tp512
atp513
Rp514
sg15
I11
sg29
g20
((lp515
(I3
I12
tp516
a(I9
I1
tp517
a(I7
I1
tp518
a(I8
I1
tp519
a(I6
I10
tp520
a(I8
I9
tp521
a(I2
I0
tp522
a(I2
I3
tp523
a(I0
I10
tp524
a(I2
I2
tp525
a(I7
I11
tp526
a(I2
I5
tp527
a(I8
I5
tp528
a(I5
I8
tp529
a(I4
I11
tp530
atp531
Rp532
sg13
((I4
I10
tp533
(I6
I11
tp534
(I5
I12
tp535
(I0
I5
tp536
(I1
I0
tp537
(I7
I10
tp538
tp539
sg14
I13
sbs(iproblems
RoomID
p540
(dp541
g10
I11
sg11
(I9
I6
tp542
sg13
I6
sg14
I10
sg15
I12
sg16
I4029557120079369747
sb(imulti_robot_problem
MultiRobotState
p543
(dp544
g19
g20
((lp545
(I11
I7
tp546
a(I10
I6
tp547
a(I5
I5
tp548
a(I7
I1
tp549
a(I10
I7
tp550
a(I9
I8
tp551
a(I4
I4
tp552
a(I1
I6
tp553
a(I3
I6
tp554
a(I1
I7
tp555
ag542
a(I11
I6
tp556
atp557
Rp558
sg15
I12
sg29
g20
((lp559
(I1
I2
tp560
a(I1
I3
tp561
a(I4
I9
tp562
a(I8
I2
tp563
a(I8
I1
tp564
a(I6
I1
tp565
a(I2
I1
tp566
a(I7
I4
tp567
a(I1
I8
tp568
a(I5
I2
tp569
a(I1
I1
tp570
atp571
Rp572
sg13
((I8
I0
tp573
(I4
I1
tp574
(I4
I0
tp575
(I3
I9
tp576
(I8
I9
tp577
(I3
I8
tp578
tp579
sg14
I10
sbs(iproblems
RoomID
p580
(dp581
g10
I15
sg11
(I5
I5
tp582
sg13
I6
sg14
I13
sg15
I13
sg16
I2569146471088859254
sb(imulti_robot_problem
MultiRobotState
p583
(dp584
g19
g20
((lp585
(I12
I2
tp586
a(I5
I4
tp587
a(I3
I3
tp588
a(I5
I9
tp589
a(I4
I5
tp590
a(I6
I1
tp591
a(I10
I10
tp592
a(I8
I8
tp593
a(I4
I3
tp594
a(I2
I2
tp595
a(I9
I11
tp596
a(I8
I12
tp597
a(I1
I1
tp598
a(I12
I3
tp599
ag582
atp600
Rp601
sg15
I13
sg29
g20
((lp602
(I10
I5
tp603
a(I3
I12
tp604
a(I8
I2
tp605
a(I5
I6
tp606
a(I12
I7
tp607
a(I11
I3
tp608
a(I0
I2
tp609
a(I11
I0
tp610
a(I0
I9
tp611
a(I2
I12
tp612
a(I1
I10
tp613
a(I3
I7
tp614
a(I10
I11
tp615
a(I2
I4
tp616
a(I5
I12
tp617
atp618
Rp619
sg13
((I9
I12
tp620
(I7
I11
tp621
(I7
I0
tp622
(I10
I1
tp623
(I1
I5
tp624
(I4
I0
tp625
tp626
sg14
I13
sbs(iproblems
RoomID
p627
(dp628
g10
I10
sg11
(I6
I7
tp629
sg13
I5
sg14
I12
sg15
I11
sg16
I6604845167042249220
sb(imulti_robot_problem
MultiRobotState
p630
(dp631
g19
g20
((lp632
(I9
I0
tp633
ag629
a(I7
I1
tp634
a(I2
I8
tp635
a(I10
I6
tp636
a(I7
I7
tp637
a(I8
I8
tp638
a(I9
I4
tp639
a(I8
I6
tp640
a(I7
I11
tp641
a(I9
I7
tp642
atp643
Rp644
sg15
I11
sg29
g20
((lp645
(I10
I5
tp646
a(I3
I3
tp647
a(I5
I11
tp648
a(I8
I1
tp649
a(I9
I8
tp650
a(I6
I9
tp651
a(I0
I7
tp652
a(I0
I10
tp653
a(I4
I1
tp654
a(I8
I4
tp655
atp656
Rp657
sg13
((I4
I8
tp658
(I1
I0
tp659
(I2
I2
tp660
(I3
I11
tp661
(I6
I5
tp662
tp663
sg14
I12
sbssg159
S'heavy_roomset'
p664
sbsg159
g161
sg162
(dp665
g439
((lp666
F40.550000000000011
tp667
sg488
((lp668
F40.069999999999993
tp669
sg540
((lp670
(F9.6399999999999864
I6
tp671
aF40.090000000000032
tp672
sg580
((lp673
F41.360000000000014
tp674
sg627
((lp675
(F10.549999999999955
I21
tp676
aF40.349999999999909
tp677
ssba(imeasure_core
ProblemSetSolution
p678
(dp679
g3
g4
sg159
S"AnytimeBeam-w20-gf(4, 'lin')_with_PowerHeuristic2"
p680
sg162
(dp681
g8
((lp682
(F0.56999999999993634
I15
tp683
aF40.120000000000005
tp684
sg46
((lp685
(F2.9499999999999318
I20
tp686
aF40.149999999999977
tp687
sg78
((lp688
(F0.11000000000001364
I18
tp689
aF40.0
tp690
sg103
((lp691
(F0.10000000000002274
I35
tp692
a(F0.78999999999996362
I33
tp693
a(F1.6499999999999773
I30
tp694
a(F2.3299999999999272
I26
tp695
a(F3.1200000000000045
I25
tp696
a(F3.8700000000000045
I23
tp697
a(F4.6200000000000045
I21
tp698
a(F5.9499999999999318
I20
tp699
a(F7.17999999999995
I18
tp700
aF40.0
tp701
sg125
((lp702
(F2.7799999999999727
I7
tp703
aF40.709999999999923
tp704
ssba(imeasure_core
ProblemSetSolution
p705
(dp706
g3
g189
sg159
g680
sg162
(dp707
g192
((lp708
(F0.2800000000000864
I15
tp709
aF40.040000000000077
tp710
sg235
((lp711
(F20.189999999999941
I122
tp712
aF40.370000000000005
tp713
sg320
((lp714
(F1.5099999999999909
I29
tp715
aF40.009999999999991
tp716
sg375
((lp717
(F0.28999999999996362
I13
tp718
aF40.009999999999991
tp719
sg279
((lp720
F40.259999999999991
tp721
ssba(imeasure_core
ProblemSetSolution
p722
(dp723
g3
g436
sg159
g680
sg162
(dp724
g439
((lp725
F40.089999999999918
tp726
sg488
((lp727
F40.050000000000182
tp728
sg540
((lp729
(F11.159999999999854
I6
tp730
aF45.7199999999998
tp731
sg580
((lp732
F41.420000000000073
tp733
sg627
((lp734
(F12.980000000000018
I21
tp735
aF40.0
tp736
ssba(imeasure_core
ProblemSetSolution
p737
(dp738
g3
g4
sg159
S"AnytimeBeam-w20-gf(8, 'lin')_with_PowerHeuristic2"
p739
sg162
(dp740
g8
((lp741
(F0.57999999999992724
I15
tp742
aF40.009999999999991
tp743
sg46
((lp744
(F3.3900000000001
I20
tp745
aF40.039999999999964
tp746
sg78
((lp747
(F0.11000000000012733
I18
tp748
aF40.009999999999991
tp749
sg103
((lp750
(F0.090000000000145519
I35
tp751
a(F0.77999999999997272
I33
tp752
a(F1.6300000000001091
I30
tp753
a(F2.3100000000001728
I26
tp754
a(F3.1000000000001364
I25
tp755
a(F3.8500000000001364
I23
tp756
a(F4.6000000000001364
I21
tp757
a(F5.9200000000000728
I20
tp758
a(F7.1500000000000909
I18
tp759
aF40.0
tp760
sg125
((lp761
(F3.4200000000000728
I7
tp762
aF40.320000000000164
tp763
ssba(imeasure_core
ProblemSetSolution
p764
(dp765
g3
g189
sg159
g739
sg162
(dp766
g192
((lp767
(F0.28999999999996362
I15
tp768
aF40.029999999999973
tp769
sg235
((lp770
(F25.460000000000036
I122
tp771
aF40.240000000000009
tp772
sg320
((lp773
(F1.7200000000000273
I29
tp774
aF40.059999999999945
tp775
sg375
((lp776
(F0.27999999999997272
I13
tp777
aF40.019999999999982
tp778
sg279
((lp779
F40.230000000000018
tp780
ssba(imeasure_core
ProblemSetSolution
p781
(dp782
g3
g436
sg159
g739
sg162
(dp783
g439
((lp784
F40.0
tp785
sg488
((lp786
F40.119999999999891
tp787
sg540
((lp788
(F13.410000000000082
I6
tp789
aF41.470000000000027
tp790
sg580
((lp791
F41.330000000000155
tp792
sg627
((lp793
(F16.069999999999936
I21
tp794
aF40.419999999999845
tp795
ssba(imeasure_core
ProblemSetSolution
p796
(dp797
g3
g4
sg159
S"AnytimeBeam-w20-gf(16, 'lin')_with_PowerHeuristic2"
p798
sg162
(dp799
g8
((lp800
(F0.58000000000015461
I15
tp801
aF40.050000000000182
tp802
sg46
((lp803
(F3.6699999999998454
I20
tp804
aF40.079999999999927
tp805
sg78
((lp806
(F0.10999999999989996
I18
tp807
aF40.0
tp808
sg103
((lp809
(F0.089999999999918145
I35
tp810
a(F0.77999999999997272
I33
tp811
a(F1.6299999999998818
I30
tp812
a(F2.3099999999999454
I26
tp813
a(F3.0999999999999091
I25
tp814
a(F3.8599999999999
I23
tp815
a(F4.6199999999998909
I21
tp816
a(F5.9400000000000546
I20
tp817
a(F7.1700000000000728
I18
tp818
aF40.0
tp819
sg125
((lp820
(F3.7699999999999818
I7
tp821
aF40.629999999999882
tp822
ssba(imeasure_core
ProblemSetSolution
p823
(dp824
g3
g189
sg159
g798
sg162
(dp825
g192
((lp826
(F0.27000000000020918
I15
tp827
aF40.000000000000227
tp828
sg235
((lp829
(F31.179999999999836
I122
tp830
aF40.210000000000036
tp831
sg320
((lp832
(F1.9899999999997817
I29
tp833
aF40.029999999999745
tp834
sg375
((lp835
(F0.28000000000020009
I13
tp836
aF40.0300000000002
tp837
sg279
((lp838
F40.190000000000055
tp839
ssba(imeasure_core
ProblemSetSolution
p840
(dp841
g3
g436
sg159
g798
sg162
(dp842
g439
((lp843
F40.559999999999945
tp844
sg488
((lp845
F41.120000000000346
tp846
sg540
((lp847
(F16.599999999999909
I6
tp848
aF41.449999999999818
tp849
sg580
((lp850
F40.889999999999873
tp851
sg627
((lp852
(F18.480000000000018
I21
tp853
aF40.519999999999982
tp854
ssba(imeasure_core
ProblemSetSolution
p855
(dp856
g3
g4
sg159
S"AnytimeBeam-w20-gf(2, 'lin')_with_LinearHeuristic"
p857
sg162
(dp858
g8
((lp859
(F11.869999999999891
I155
tp860
aF40.050000000000182
tp861
sg46
((lp862
(F1.6799999999998363
I24
tp863
aF40.009999999999764
tp864
sg78
((lp865
(F0.070000000000163709
I10
tp866
aF40.010000000000218
tp867
sg103
((lp868
(F0.0099999999997635314
I18
tp869
aF40.0
tp870
sg125
((lp871
(F22.0
I91
tp872
aF40.349999999999909
tp873
ssba(imeasure_core
ProblemSetSolution
p874
(dp875
g3
g189
sg159
g857
sg162
(dp876
g192
((lp877
F40.25
tp878
sg235
((lp879
F40.179999999999836
tp880
sg320
((lp881
F40.019999999999982
tp882
sg375
((lp883
(F9.7400000000002365
I134
tp884
a(F21.960000000000036
I133
tp885
a(F34.900000000000091
I132
tp886
aF40.010000000000218
tp887
sg279
((lp888
F40.190000000000055
tp889
ssba(imeasure_core
ProblemSetSolution
p890
(dp891
g3
g436
sg159
g857
sg162
(dp892
g439
((lp893
F40.090000000000146
tp894
sg488
((lp895
F40.659999999999854
tp896
sg540
((lp897
(F13.400000000000091
I7
tp898
aF40.350000000000364
tp899
sg580
((lp900
F41.599999999999909
tp901
sg627
((lp902
F40.849999999999909
tp903
ssba(imeasure_core
ProblemSetSolution
p904
(dp905
g3
g4
sg159
S"AnytimeBeam-w20-gf(4, 'lin')_with_LinearHeuristic"
p906
sg162
(dp907
g8
((lp908
(F11.849999999999909
I155
tp909
aF40.0300000000002
tp910
sg46
((lp911
(F1.8799999999996544
I24
tp912
aF40.019999999999982
tp913
sg78
((lp914
(F0.069999999999708962
I10
tp915
aF40.0
tp916
sg103
((lp917
(F0.0099999999997635314
I18
tp918
aF40.0
tp919
sg125
((lp920
(F24.359999999999673
I91
tp921
aF40.039999999999964
tp922
ssba(imeasure_core
ProblemSetSolution
p923
(dp924
g3
g189
sg159
g906
sg162
(dp925
g192
((lp926
F40.009999999999764
tp927
sg235
((lp928
F40.269999999999982
tp929
sg320
((lp930
F40.129999999999654
tp931
sg375
((lp932
(F10.570000000000164
I134
tp933
a(F23.790000000000418
I133
tp934
a(F37.890000000000327
I132
tp935
aF40.010000000000218
tp936
sg279
((lp937
F40.240000000000236
tp938
ssba(imeasure_core
ProblemSetSolution
p939
(dp940
g3
g436
sg159
g906
sg162
(dp941
g439
((lp942
F40.239999999999782
tp943
sg488
((lp944
F41.610000000000127
tp945
sg540
((lp946
(F15.779999999999745
I7
tp947
aF41.239999999999782
tp948
sg580
((lp949
F42.150000000000091
tp950
sg627
((lp951
F40.230000000000018
tp952
ssba(imeasure_core
ProblemSetSolution
p953
(dp954
g3
g4
sg159
S"AnytimeBeam-w20-gf(8, 'lin')_with_LinearHeuristic"
p955
sg162
(dp956
g8
((lp957
(F11.860000000000127
I155
tp958
aF40.009999999999764
tp959
sg46
((lp960
(F2.0700000000001637
I24
tp961
aF40.050000000000182
tp962
sg78
((lp963
(F0.070000000000163709
I10
tp964
aF40.0
tp965
sg103
((lp966
(F0.010000000000218279
I18
tp967
aF40.0
tp968
sg125
((lp969
(F26.539999999999964
I91
tp970
aF40.039999999999964
tp971
ssba(imeasure_core
ProblemSetSolution
p972
(dp973
g3
g189
sg159
g955
sg162
(dp974
g192
((lp975
F40.070000000000164
tp976
sg235
((lp977
F40.130000000000109
tp978
sg320
((lp979
F40.050000000000182
tp980
sg375
((lp981
(F11.909999999999854
I134
tp982
a(F26.670000000000073
I133
tp983
aF40.269999999999982
tp984
sg279
((lp985
F40.049999999999727
tp986
ssba(imeasure_core
ProblemSetSolution
p987
(dp988
g3
g436
sg159
g955
sg162
(dp989
g439
((lp990
F40.369999999999891
tp991
sg488
((lp992
F41.230000000000018
tp993
sg540
((lp994
(F18.819999999999709
I7
tp995
aF44.029999999999745
tp996
sg580
((lp997
F40.75
tp998
sg627
((lp999
F40.300000000000182
tp1000
ssba(imeasure_core
ProblemSetSolution
p1001
(dp1002
g3
g4
sg159
S"AnytimeBeam-w20-gf(16, 'lin')_with_LinearHeuristic"
p1003
sg162
(dp1004
g8
((lp1005
(F11.850000000000364
I155
tp1006
aF40.020000000000437
tp1007
sg46
((lp1008
(F2.319999999999709
I24
tp1009
aF40.0
tp1010
sg78
((lp1011
(F0.069999999999708962
I10
tp1012
aF40.0
tp1013
sg103
((lp1014
(F0.009999999999308784
I18
tp1015
aF40.0
tp1016
sg125
((lp1017
(F29.920000000000073
I91
tp1018
aF40.25
tp1019
ssba(imeasure_core
ProblemSetSolution
p1020
(dp1021
g3
g189
sg159
g1003
sg162
(dp1022
g192
((lp1023
F40.020000000000437
tp1024
sg235
((lp1025
F40.069999999999709
tp1026
sg320
((lp1027
F40.0
tp1028
sg375
((lp1029
(F14.549999999999272
I134
tp1030
a(F31.799999999999272
I133
tp1031
aF40.149999999999636
tp1032
sg279
((lp1033
F40.070000000000618
tp1034
ssba(imeasure_core
ProblemSetSolution
p1035
(dp1036
g3
g436
sg159
g1003
sg162
(dp1037
g439
((lp1038
F40.25
tp1039
sg488
((lp1040
F41.399999999999636
tp1041
sg540
((lp1042
(F21.230000000000473
I7
tp1043
aF42.480000000000473
tp1044
sg580
((lp1045
F42.75
tp1046
sg627
((lp1047
F40.419999999999163
tp1048
ssba.