(lp0
(imeasure_core
ProblemSetSolution
p1
(dp2
S'roomset'
p3
(imeasure_core
RoomSet
p4
(dp5
S'rooms'
p6
(dp7
(iproblems
RoomID
p8
(dp9
S'dusts'
p10
I7
sS'obstacles'
p11
(I1
I3
tp12
sS'robots'
p13
I1
sS'height'
p14
I7
sS'width'
p15
I9
sS'seed'
p16
I1486246605650367638
sb(imulti_robot_problem
MultiRobotState
p17
(dp18
S'obstacle_locations'
p19
c__builtin__
frozenset
p20
((lp21
(I0
I1
tp22
a(I8
I3
tp23
ag12
a(I0
I3
tp24
a(I0
I2
tp25
atp26
Rp27
sg15
I9
sS'dirt_locations'
p28
g20
((lp29
(I7
I5
tp30
a(I7
I0
tp31
a(I0
I4
tp32
a(I1
I0
tp33
a(I4
I4
tp34
a(I6
I5
tp35
a(I4
I0
tp36
atp37
Rp38
sg13
((I5
I1
tp39
tp40
sg14
I7
sbs(iproblems
RoomID
p41
(dp42
g10
I9
sg11
(I7
I5
tp43
sg13
I4
sg14
I10
sg15
I10
sg16
I679259829289197625
sb(imulti_robot_problem
MultiRobotState
p44
(dp45
g19
g20
((lp46
(I9
I6
tp47
a(I8
I6
tp48
a(I7
I6
tp49
ag43
a(I7
I0
tp50
atp51
Rp52
sg15
I10
sg28
g20
((lp53
(I5
I4
tp54
a(I2
I6
tp55
a(I7
I1
tp56
a(I6
I1
tp57
a(I1
I6
tp58
a(I0
I5
tp59
a(I8
I7
tp60
a(I0
I9
tp61
a(I9
I5
tp62
atp63
Rp64
sg13
((I7
I8
tp65
(I6
I7
tp66
(I3
I5
tp67
(I3
I9
tp68
tp69
sg14
I10
sbs(iproblems
RoomID
p70
(dp71
g10
I6
sg11
(I4
I4
tp72
sg13
I4
sg14
I9
sg15
I9
sg16
I5891625650498269233
sb(imulti_robot_problem
MultiRobotState
p73
(dp74
g19
g20
((lp75
(I2
I7
tp76
a(I4
I5
tp77
ag72
a(I3
I6
tp78
atp79
Rp80
sg15
I9
sg28
g20
((lp81
(I7
I4
tp82
a(I8
I3
tp83
a(I0
I5
tp84
a(I5
I5
tp85
a(I6
I6
tp86
a(I4
I0
tp87
atp88
Rp89
sg13
((I4
I6
tp90
(I7
I1
tp91
(I0
I4
tp92
(I7
I2
tp93
tp94
sg14
I9
sbs(iproblems
RoomID
p95
(dp96
g10
I5
sg11
(I3
I4
tp97
sg13
I1
sg14
I9
sg15
I9
sg16
I2685440357799139976
sb(imulti_robot_problem
MultiRobotState
p98
(dp99
g19
g20
((lp100
(I8
I3
tp101
a(I1
I3
tp102
a(I5
I6
tp103
ag97
a(I2
I4
tp104
a(I3
I8
tp105
a(I2
I3
tp106
a(I7
I8
tp107
a(I1
I1
tp108
atp109
Rp110
sg15
I9
sg28
g20
((lp111
(I0
I1
tp112
a(I0
I0
tp113
a(I3
I1
tp114
a(I8
I7
tp115
a(I5
I0
tp116
atp117
Rp118
sg13
((I5
I5
tp119
tp120
sg14
I9
sbs(iproblems
RoomID
p121
(dp122
g10
I6
sg11
(I1
I6
tp123
sg13
I4
sg14
I8
sg15
I10
sg16
I403795515464475257
sb(imulti_robot_problem
MultiRobotState
p124
(dp125
g19
g20
((lp126
(I8
I3
tp127
a(I1
I3
tp128
a(I6
I7
tp129
a(I0
I4
tp130
ag123
a(I4
I1
tp131
a(I0
I5
tp132
atp133
Rp134
sg15
I10
sg28
g20
((lp135
(I7
I3
tp136
a(I4
I7
tp137
a(I2
I2
tp138
a(I8
I0
tp139
a(I0
I2
tp140
a(I0
I7
tp141
atp142
Rp143
sg13
((I8
I2
tp144
(I6
I1
tp145
(I5
I0
tp146
(I2
I0
tp147
tp148
sg14
I8
sbssS'name'
p149
S'easy_roomset'
p150
sbsg149
S"AnytimeBeam-w20-gf(2, 'lin')_with_PowerHeuristic2"
p151
sS'solutions'
p152
(dp153
g8
((lp154
(F0.11000000000058208
I45
tp155
a(F8.7900000000008731
I44
tp156
a(F15.159999999999854
I42
tp157
a(F15.640000000003056
I39
tp158
a(F15.950000000000728
I37
tp159
a(F16.56000000000131
I36
tp160
a(F17.180000000000291
I34
tp161
a(F19.220000000001164
I33
tp162
a(F23.920000000001892
I31
tp163
a(F34.890000000003056
I30
tp164
aF40.0
tp165
sg41
((lp166
(F1.4000000000014552
I20
tp167
aF40.05000000000291
tp168
sg95
((lp169
(F0.17000000000189175
I47
tp170
a(F1.2700000000004366
I45
tp171
a(F2.319999999999709
I43
tp172
a(F3.319999999999709
I35
tp173
a(F4.4700000000011642
I33
tp174
a(F5.75
I31
tp175
a(F7.069999999999709
I29
tp176
a(F9.4000000000014552
I27
tp177
a(F12.639999999999418
I25
tp178
a(F15.380000000001019
I23
tp179
aF40.0
tp180
sg70
((lp181
(F0.94999999999708962
I8
tp182
aF40.059999999997672
tp183
sg121
((lp184
(F13.670000000001892
I134
tp185
aF40.190000000002328
tp186
ssba(imeasure_core
ProblemSetSolution
p187
(dp188
g3
(imeasure_core
RoomSet
p189
(dp190
g6
(dp191
(iproblems
RoomID
p192
(dp193
g10
I9
sg11
(I7
I7
tp194
sg13
I4
sg14
I12
sg15
I12
sg16
I679259829289197625
sb(imulti_robot_problem
MultiRobotState
p195
(dp196
g19
g20
((lp197
(I6
I4
tp198
a(I6
I9
tp199
a(I6
I6
tp200
a(I5
I6
tp201
a(I9
I8
tp202
a(I11
I9
tp203
ag194
a(I1
I4
tp204
a(I11
I7
tp205
a(I7
I5
tp206
a(I8
I7
tp207
a(I4
I2
tp208
a(I8
I5
tp209
a(I6
I5
tp210
a(I10
I8
tp211
a(I10
I5
tp212
a(I6
I7
tp213
a(I6
I8
tp214
a(I10
I7
tp215
a(I9
I6
tp216
a(I7
I6
tp217
a(I8
I10
tp218
a(I7
I4
tp219
a(I11
I8
tp220
a(I7
I10
tp221
a(I8
I6
tp222
a(I6
I1
tp223
a(I9
I7
tp224
atp225
Rp226
sg15
I12
sg28
g20
((lp227
(I2
I7
tp228
a(I9
I0
tp229
a(I8
I2
tp230
a(I7
I1
tp231
a(I11
I0
tp232
a(I0
I11
tp233
a(I1
I6
tp234
a(I1
I7
tp235
a(I11
I6
tp236
atp237
Rp238
sg13
((I9
I10
tp239
(I8
I9
tp240
(I3
I7
tp241
(I3
I11
tp242
tp243
sg14
I12
sbs(iproblems
RoomID
p244
(dp245
g10
I5
sg11
(I9
I1
tp246
sg13
I3
sg14
I11
sg15
I11
sg16
I2685440357799139976
sb(imulti_robot_problem
MultiRobotState
p247
(dp248
g19
g20
((lp249
(I7
I3
tp250
a(I10
I4
tp251
a(I9
I3
tp252
ag246
a(I7
I1
tp253
a(I5
I6
tp254
a(I10
I6
tp255
a(I1
I4
tp256
a(I9
I9
tp257
a(I3
I9
tp258
a(I9
I4
tp259
a(I6
I8
tp260
a(I9
I6
tp261
a(I3
I4
tp262
a(I10
I3
tp263
a(I7
I2
tp264
a(I5
I3
tp265
a(I8
I3
tp266
a(I5
I5
tp267
a(I10
I7
tp268
a(I8
I5
tp269
a(I9
I2
tp270
a(I3
I6
tp271
a(I4
I5
tp272
a(I6
I5
tp273
a(I7
I10
tp274
a(I9
I5
tp275
a(I3
I5
tp276
a(I7
I8
tp277
a(I2
I4
tp278
a(I10
I9
tp279
atp280
Rp281
sg15
I11
sg28
g20
((lp282
(I1
I2
tp283
a(I9
I10
tp284
a(I6
I1
tp285
a(I4
I1
tp286
a(I0
I2
tp287
atp288
Rp289
sg13
((I6
I6
tp290
(I0
I0
tp291
(I10
I8
tp292
tp293
sg14
I11
sbs(iproblems
RoomID
p294
(dp295
g10
I10
sg11
(I1
I5
tp296
sg13
I4
sg14
I12
sg15
I10
sg16
I1737871632067391849
sb(imulti_robot_problem
MultiRobotState
p297
(dp298
g19
g20
((lp299
(I3
I2
tp300
a(I0
I0
tp301
a(I6
I6
tp302
a(I5
I6
tp303
a(I2
I8
tp304
a(I2
I10
tp305
a(I8
I9
tp306
a(I6
I2
tp307
a(I2
I3
tp308
a(I8
I7
tp309
a(I5
I1
tp310
a(I8
I5
tp311
a(I5
I8
tp312
a(I8
I3
tp313
a(I5
I5
tp314
a(I7
I8
tp315
a(I7
I6
tp316
a(I8
I10
tp317
ag296
a(I6
I5
tp318
a(I2
I2
tp319
a(I4
I1
tp320
a(I2
I4
tp321
atp322
Rp323
sg15
I10
sg28
g20
((lp324
(I0
I1
tp325
a(I4
I10
tp326
a(I4
I8
tp327
a(I3
I0
tp328
a(I9
I6
tp329
a(I3
I10
tp330
a(I5
I11
tp331
a(I2
I7
tp332
a(I1
I9
tp333
a(I3
I4
tp334
atp335
Rp336
sg13
((I4
I9
tp337
(I8
I11
tp338
(I4
I0
tp339
(I3
I9
tp340
tp341
sg14
I12
sbs(iproblems
RoomID
p342
(dp343
g10
I7
sg11
(I8
I8
tp344
sg13
I3
sg14
I9
sg15
I9
sg16
I7834319822419845881
sb(imulti_robot_problem
MultiRobotState
p345
(dp346
g19
g20
((lp347
(I4
I7
tp348
a(I1
I3
tp349
a(I5
I0
tp350
a(I6
I6
tp351
a(I5
I6
tp352
a(I2
I8
tp353
a(I3
I5
tp354
a(I4
I6
tp355
a(I2
I6
tp356
a(I0
I5
tp357
a(I3
I7
tp358
a(I0
I3
tp359
a(I0
I8
tp360
a(I8
I5
tp361
a(I5
I8
tp362
a(I3
I3
tp363
a(I2
I7
tp364
a(I6
I7
tp365
a(I5
I5
tp366
a(I7
I8
tp367
a(I4
I4
tp368
a(I1
I5
tp369
a(I1
I8
tp370
ag344
a(I3
I6
tp371
a(I1
I7
tp372
a(I4
I5
tp373
a(I5
I3
tp374
a(I3
I4
tp375
atp376
Rp377
sg15
I9
sg28
g20
((lp378
(I7
I4
tp379
a(I2
I0
tp380
a(I6
I2
tp381
a(I7
I0
tp382
a(I8
I7
tp383
a(I7
I1
tp384
a(I1
I4
tp385
atp386
Rp387
sg13
((I2
I1
tp388
(I2
I3
tp389
(I5
I7
tp390
tp391
sg14
I9
sbs(iproblems
RoomID
p392
(dp393
g10
I6
sg11
(I3
I9
tp394
sg13
I4
sg14
I11
sg15
I11
sg16
I5891625650498269233
sb(imulti_robot_problem
MultiRobotState
p395
(dp396
g19
g20
((lp397
(I7
I3
tp398
a(I4
I7
tp399
a(I6
I6
tp400
a(I5
I6
tp401
a(I2
I8
tp402
a(I6
I2
tp403
a(I5
I1
tp404
a(I3
I7
tp405
a(I8
I5
tp406
a(I5
I5
tp407
a(I2
I9
tp408
a(I7
I6
tp409
a(I4
I4
tp410
a(I2
I2
tp411
a(I1
I1
tp412
a(I9
I7
tp413
a(I3
I2
tp414
a(I10
I4
tp415
a(I4
I5
tp416
a(I9
I3
tp417
a(I10
I5
tp418
a(I2
I10
tp419
a(I7
I5
tp420
a(I2
I3
tp421
a(I8
I3
tp422
a(I4
I6
tp423
a(I5
I2
tp424
a(I6
I1
tp425
a(I3
I8
tp426
a(I1
I8
tp427
ag394
a(I4
I3
tp428
a(I9
I5
tp429
a(I3
I4
tp430
a(I8
I4
tp431
atp432
Rp433
sg15
I11
sg28
g20
((lp434
(I8
I8
tp435
a(I5
I10
tp436
a(I9
I1
tp437
a(I10
I7
tp438
a(I1
I6
tp439
a(I7
I9
tp440
atp441
Rp442
sg13
((I5
I7
tp443
(I8
I1
tp444
(I0
I5
tp445
(I4
I0
tp446
tp447
sg14
I11
sbssg149
S'mild_roomset'
p448
sbsg149
g151
sg152
(dp449
g192
((lp450
F40.25
tp451
sg244
((lp452
(F7.8499999999985448
I127
tp453
aF40.020000000000437
tp454
sg294
((lp455
(F1.1499999999978172
I12
tp456
aF40.129999999997381
tp457
sg342
((lp458
(F0.13999999999941792
I25
tp459
aF40.0
tp460
sg392
((lp461
(F4.8800000000010186
I64
tp462
aF40.280000000002474
tp463
ssba(imeasure_core
ProblemSetSolution
p464
(dp465
g3
(imeasure_core
RoomSet
p466
(dp467
g6
(dp468
(iproblems
RoomID
p469
(dp470
g10
I12
sg11
(I6
I3
tp471
sg13
I5
sg14
I10
sg15
I12
sg16
I1486246605650367638
sb(imulti_robot_problem
MultiRobotState
p472
(dp473
g19
g20
((lp474
(I5
I9
tp475
a(I1
I3
tp476
a(I7
I1
tp477
a(I2
I7
tp478
a(I1
I4
tp479
a(I6
I2
tp480
a(I1
I6
tp481
a(I2
I1
tp482
a(I0
I3
tp483
a(I6
I5
tp484
a(I1
I2
tp485
a(I1
I5
tp486
a(I4
I1
tp487
a(I3
I1
tp488
ag471
a(I2
I0
tp489
a(I10
I0
tp490
a(I5
I2
tp491
a(I1
I1
tp492
a(I8
I4
tp493
atp494
Rp495
sg15
I12
sg28
g20
((lp496
(I11
I7
tp497
a(I11
I4
tp498
a(I9
I1
tp499
a(I11
I8
tp500
a(I2
I8
tp501
a(I6
I0
tp502
a(I0
I6
tp503
a(I11
I1
tp504
a(I0
I4
tp505
a(I4
I9
tp506
a(I10
I9
tp507
a(I9
I7
tp508
atp509
Rp510
sg13
((I2
I4
tp511
(I10
I1
tp512
(I2
I5
tp513
(I9
I8
tp514
(I6
I6
tp515
tp516
sg14
I10
sbs(iproblems
RoomID
p517
(dp518
g10
I14
sg11
(I7
I6
tp519
sg13
I7
sg14
I13
sg15
I13
sg16
I679259829289197625
sb(imulti_robot_problem
MultiRobotState
p520
(dp521
g19
g20
((lp522
(I6
I4
tp523
a(I4
I8
tp524
a(I12
I7
tp525
a(I10
I6
tp526
a(I7
I5
tp527
a(I12
I11
tp528
a(I9
I6
tp529
a(I1
I2
tp530
a(I11
I7
tp531
a(I10
I7
tp532
ag519
a(I6
I3
tp533
a(I6
I2
tp534
a(I4
I3
tp535
a(I3
I4
tp536
a(I12
I8
tp537
atp538
Rp539
sg15
I13
sg28
g20
((lp540
(I2
I7
tp541
a(I12
I1
tp542
a(I9
I2
tp543
a(I2
I8
tp544
a(I5
I7
tp545
a(I10
I0
tp546
a(I1
I4
tp547
a(I0
I12
tp548
a(I7
I4
tp549
a(I10
I9
tp550
a(I4
I2
tp551
a(I11
I4
tp552
a(I11
I6
tp553
a(I1
I9
tp554
atp555
Rp556
sg13
((I9
I11
tp557
(I9
I10
tp558
(I4
I7
tp559
(I4
I12
tp560
(I7
I1
tp561
(I1
I8
tp562
(I1
I6
tp563
tp564
sg14
I13
sbs(iproblems
RoomID
p565
(dp566
g10
I11
sg11
(I2
I7
tp567
sg13
I6
sg14
I11
sg15
I13
sg16
I403795515464475257
sb(imulti_robot_problem
MultiRobotState
p568
(dp569
g19
g20
((lp570
g567
a(I10
I8
tp571
a(I1
I7
tp572
a(I3
I10
tp573
a(I4
I4
tp574
a(I1
I4
tp575
a(I12
I5
tp576
a(I0
I6
tp577
a(I0
I5
tp578
a(I3
I6
tp579
a(I2
I2
tp580
a(I0
I8
tp581
a(I7
I9
tp582
atp583
Rp584
sg15
I13
sg28
g20
((lp585
(I6
I4
tp586
a(I0
I0
tp587
a(I2
I9
tp588
a(I11
I5
tp589
a(I8
I9
tp590
a(I11
I1
tp591
a(I2
I3
tp592
a(I1
I10
tp593
a(I12
I2
tp594
a(I0
I3
tp595
a(I5
I2
tp596
atp597
Rp598
sg13
((I10
I3
tp599
(I7
I2
tp600
(I7
I0
tp601
(I3
I1
tp602
(I5
I10
tp603
(I9
I4
tp604
tp605
sg14
I11
sbs(iproblems
RoomID
p606
(dp607
g10
I10
sg11
(I6
I9
tp608
sg13
I5
sg14
I12
sg15
I12
sg16
I2685440357799139976
sb(imulti_robot_problem
MultiRobotState
p609
(dp610
g19
g20
((lp611
(I4
I10
tp612
ag608
a(I9
I1
tp613
a(I5
I11
tp614
a(I3
I0
tp615
a(I0
I7
tp616
a(I3
I9
tp617
a(I0
I5
tp618
a(I1
I4
tp619
a(I0
I3
tp620
a(I4
I0
tp621
a(I1
I2
tp622
a(I11
I10
tp623
a(I6
I10
tp624
a(I5
I6
tp625
a(I9
I11
tp626
a(I7
I9
tp627
a(I4
I5
tp628
a(I3
I5
tp629
a(I3
I4
tp630
a(I2
I4
tp631
a(I1
I9
tp632
atp633
Rp634
sg15
I12
sg28
g20
((lp635
(I11
I7
tp636
a(I8
I3
tp637
a(I10
I11
tp638
a(I7
I1
tp639
a(I10
I5
tp640
a(I8
I10
tp641
a(I6
I3
tp642
a(I3
I6
tp643
a(I9
I10
tp644
a(I6
I5
tp645
atp646
Rp647
sg13
((I7
I7
tp648
(I0
I0
tp649
(I11
I9
tp650
(I0
I2
tp651
(I4
I1
tp652
tp653
sg14
I12
sbs(iproblems
RoomID
p654
(dp655
g10
I11
sg11
(I11
I9
tp656
sg13
I7
sg14
I12
sg15
I12
sg16
I5891625650498269233
sb(imulti_robot_problem
MultiRobotState
p657
(dp658
g19
g20
((lp659
(I4
I4
tp660
a(I4
I8
tp661
a(I5
I6
tp662
a(I8
I11
tp663
ag656
a(I7
I7
tp664
a(I7
I1
tp665
a(I9
I10
tp666
a(I3
I9
tp667
a(I1
I9
tp668
a(I6
I7
tp669
a(I10
I7
tp670
a(I7
I6
tp671
a(I5
I7
tp672
a(I2
I11
tp673
a(I6
I11
tp674
a(I9
I11
tp675
a(I7
I10
tp676
a(I10
I9
tp677
atp678
Rp679
sg15
I12
sg28
g20
((lp680
(I11
I7
tp681
a(I11
I4
tp682
a(I4
I6
tp683
a(I5
I11
tp684
a(I8
I10
tp685
a(I0
I5
tp686
a(I8
I7
tp687
a(I1
I7
tp688
a(I10
I1
tp689
a(I1
I1
tp690
a(I5
I5
tp691
atp692
Rp693
sg13
((I6
I8
tp694
(I9
I2
tp695
(I0
I6
tp696
(I10
I3
tp697
(I9
I5
tp698
(I5
I0
tp699
(I9
I8
tp700
tp701
sg14
I12
sbssg149
S'heavy_roomset'
p702
sbsg149
g151
sg152
(dp703
g469
((lp704
(F29.680000000000291
I113
tp705
aF40.009999999998399
tp706
sg517
((lp707
F42.659999999999854
tp708
sg654
((lp709
F42.720000000001164
tp710
sg606
((lp711
(F9.5700000000033469
I58
tp712
aF40.100000000002183
tp713
sg565
((lp714
(F28.450000000000728
I19
tp715
aF42.0
tp716
ssba(imeasure_core
ProblemSetSolution
p717
(dp718
g3
g4
sg149
S"AnytimeBeam-w20-gf(4, 'lin')_with_PowerHeuristic2"
p719
sg152
(dp720
g8
((lp721
(F0.11999999999898137
I45
tp722
a(F4.7899999999972351
I44
tp723
a(F7.8599999999969441
I41
tp724
a(F8.2599999999983993
I37
tp725
a(F8.8599999999969441
I36
tp726
a(F9.4799999999995634
I34
tp727
a(F11.489999999997963
I33
tp728
a(F13.709999999999127
I31
tp729
a(F16.649999999997817
I30
tp730
a(F19.819999999999709
I28
tp731
a(F22.25
I26
tp732
a(F27.269999999996799
I25
tp733
aF40.0
tp734
sg41
((lp735
(F1.5399999999972351
I20
tp736
aF40.219999999997526
tp737
sg95
((lp738
(F0.16999999999825377
I47
tp739
a(F1.2599999999983993
I45
tp740
a(F2.2999999999992724
I43
tp741
a(F3.2900000000008731
I35
tp742
a(F4.430000000000291
I33
tp743
a(F5.7000000000007276
I31
tp744
a(F7.0099999999983993
I29
tp745
a(F9.3299999999981083
I27
tp746
a(F12.549999999999272
I25
tp747
a(F15.299999999999272
I23
tp748
aF40.0
tp749
sg70
((lp750
(F1.1300000000010186
I8
tp751
aF40.130000000001019
tp752
sg121
((lp753
(F15.369999999998981
I134
tp754
aF40.020000000000437
tp755
ssba(imeasure_core
ProblemSetSolution
p756
(dp757
g3
g189
sg149
g719
sg152
(dp758
g192
((lp759
F40.430000000000291
tp760
sg244
((lp761
(F9.5799999999981083
I127
tp762
aF40.040000000000873
tp763
sg294
((lp764
(F1.1699999999982538
I12
tp765
aF40.129999999997381
tp766
sg342
((lp767
(F0.13000000000101863
I25
tp768
aF40.0
tp769
sg392
((lp770
(F5.3300000000017462
I64
tp771
aF40.260000000002037
tp772
ssba(imeasure_core
ProblemSetSolution
p773
(dp774
g3
g466
sg149
g719
sg152
(dp775
g469
((lp776
(F34.739999999997963
I113
tp777
aF40.270000000000437
tp778
sg517
((lp779
F42.459999999999127
tp780
sg654
((lp781
F43.090000000000146
tp782
sg606
((lp783
(F10.950000000000728
I58
tp784
aF40.670000000001892
tp785
sg565
((lp786
(F30.369999999998981
I19
tp787
aF41.579999999998108
tp788
ssba(imeasure_core
ProblemSetSolution
p789
(dp790
g3
g4
sg149
S"AnytimeBeam-w20-gf(8, 'lin')_with_PowerHeuristic2"
p791
sg152
(dp792
g8
((lp793
(F0.11000000000058208
I45
tp794
a(F2.5499999999992724
I44
tp795
a(F4.4399999999986903
I39
tp796
a(F4.75
I37
tp797
a(F5.3499999999985448
I36
tp798
a(F5.9699999999975262
I34
tp799
a(F8.0299999999988358
I33
tp800
a(F10.270000000000437
I31
tp801
a(F13.209999999999127
I30
tp802
a(F16.379999999997381
I28
tp803
a(F18.790000000000873
I26
tp804
a(F23.779999999998836
I25
tp805
a(F30.209999999999127
I24
tp806
aF40.0
tp807
sg41
((lp808
(F1.75
I20
tp809
aF40.290000000000873
tp810
sg95
((lp811
(F0.15999999999985448
I47
tp812
a(F1.25
I45
tp813
a(F2.2900000000008731
I43
tp814
a(F3.2800000000024738
I35
tp815
a(F4.4200000000018917
I33
tp816
a(F5.7000000000007276
I31
tp817
a(F7.0100000000020373
I29
tp818
a(F9.3400000000001455
I27
tp819
a(F12.569999999999709
I25
tp820
a(F15.31000000000131
I23
tp821
aF40.0
tp822
sg70
((lp823
(F1.2899999999972351
I8
tp824
aF40.019999999996799
tp825
sg121
((lp826
(F17.659999999999854
I134
tp827
aF40.200000000000728
tp828
ssba(imeasure_core
ProblemSetSolution
p829
(dp830
g3
g189
sg149
g791
sg152
(dp831
g192
((lp832
F40.049999999999272
tp833
sg244
((lp834
(F12.940000000002328
I127
tp835
aF40.170000000001892
tp836
sg294
((lp837
(F1.1699999999982538
I12
tp838
aF40.18999999999869
tp839
sg342
((lp840
(F0.13000000000101863
I25
tp841
aF40.0
tp842
sg392
((lp843
(F6.2900000000008731
I64
tp844
aF40.120000000002619
tp845
ssba(imeasure_core
ProblemSetSolution
p846
(dp847
g3
g466
sg149
g791
sg152
(dp848
g469
((lp849
F40.989999999997963
tp850
sg517
((lp851
F42.779999999998836
tp852
sg654
((lp853
F43.709999999999127
tp854
sg606
((lp855
(F12.989999999997963
I58
tp856
aF40.770000000000437
tp857
sg565
((lp858
(F33.210000000002765
I19
tp859
aF42.210000000002765
tp860
ssba(imeasure_core
ProblemSetSolution
p861
(dp862
g3
g4
sg149
S"AnytimeBeam-w20-gf(16, 'lin')_with_PowerHeuristic2"
p863
sg152
(dp864
g8
((lp865
(F0.11000000000058208
I45
tp866
a(F1.4199999999982538
I44
tp867
a(F2.7099999999991269
I37
tp868
a(F3.3099999999976717
I36
tp869
a(F3.9199999999982538
I34
tp870
a(F5.9799999999995634
I33
tp871
a(F8.1899999999986903
I31
tp872
a(F11.119999999998981
I30
tp873
a(F14.279999999998836
I28
tp874
a(F16.68999999999869
I26
tp875
a(F21.68999999999869
I25
tp876
a(F28.099999999998545
I24
tp877
aF40.0
tp878
sg41
((lp879
(F2.0900000000001455
I20
tp880
aF40.169999999998254
tp881
sg95
((lp882
(F0.16999999999825377
I47
tp883
a(F1.2700000000004366
I45
tp884
a(F2.2999999999992724
I43
tp885
a(F3.2900000000008731
I35
tp886
a(F4.4399999999986903
I33
tp887
a(F5.7099999999991269
I31
tp888
a(F7.0200000000004366
I29
tp889
a(F9.3299999999981083
I27
tp890
a(F12.540000000000873
I25
tp891
a(F15.270000000000437
I23
tp892
aF40.0
tp893
sg70
((lp894
(F1.430000000000291
I8
tp895
aF40.080000000001746
tp896
sg121
((lp897
(F20.009999999998399
I134
tp898
aF40.299999999999272
tp899
ssba(imeasure_core
ProblemSetSolution
p900
(dp901
g3
g189
sg149
g863
sg152
(dp902
g192
((lp903
F40.240000000001601
tp904
sg244
((lp905
(F17.389999999999418
I127
tp906
aF40.029999999998836
tp907
sg294
((lp908
(F1.1700000000018917
I12
tp909
aF40.120000000002619
tp910
sg342
((lp911
(F0.13999999999941792
I25
tp912
aF40.0
tp913
sg392
((lp914
(F7.3400000000001455
I64
tp915
aF40.039999999997235
tp916
ssba(imeasure_core
ProblemSetSolution
p917
(dp918
g3
g466
sg149
g863
sg152
(dp919
g469
((lp920
F40.220000000001164
tp921
sg517
((lp922
F43.200000000000728
tp923
sg654
((lp924
F44.409999999999854
tp925
sg606
((lp926
(F15.110000000000582
I58
tp927
aF40.299999999999272
tp928
sg565
((lp929
(F36.579999999998108
I19
tp930
aF42.299999999999272
tp931
ssba(imeasure_core
ProblemSetSolution
p932
(dp933
g3
g4
sg149
S"AnytimeBeam-w20-gf(2, 'lin')_with_LinearHeuristic"
p934
sg152
(dp935
g8
((lp936
(F0.020000000000436557
I24
tp937
aF40.0
tp938
sg41
((lp939
F40.090000000000146
tp940
sg95
((lp941
(F0.020000000000436557
I23
tp942
aF40.0
tp943
sg70
((lp944
(F0.65000000000145519
I4
tp945
aF40.170000000001892
tp946
sg121
((lp947
F40.149999999997817
tp948
ssba(imeasure_core
ProblemSetSolution
p949
(dp950
g3
g189
sg149
g934
sg152
(dp951
g192
((lp952
F40.030000000002474
tp953
sg244
((lp954
F40.109999999996944
tp955
sg294
((lp956
F40.110000000000582
tp957
sg342
((lp958
F40.030000000002474
tp959
sg392
((lp960
F40.079999999998108
tp961
ssba(imeasure_core
ProblemSetSolution
p962
(dp963
g3
g466
sg149
g934
sg152
(dp964
g469
((lp965
F40.25
tp966
sg517
((lp967
F47.569999999999709
tp968
sg654
((lp969
F41.409999999999854
tp970
sg606
((lp971
F40.889999999999418
tp972
sg565
((lp973
(F23.200000000000728
I10
tp974
aF40.440000000002328
tp975
ssba(imeasure_core
ProblemSetSolution
p976
(dp977
g3
g4
sg149
S"AnytimeBeam-w20-gf(4, 'lin')_with_LinearHeuristic"
p978
sg152
(dp979
g8
((lp980
(F0.020000000000436557
I24
tp981
aF40.0
tp982
sg41
((lp983
F40.739999999997963
tp984
sg95
((lp985
(F0.020000000000436557
I23
tp986
aF40.0
tp987
sg70
((lp988
(F0.72999999999956344
I4
tp989
aF40.350000000002183
tp990
sg121
((lp991
F40.009999999998399
tp992
ssba(imeasure_core
ProblemSetSolution
p993
(dp994
g3
g189
sg149
g978
sg152
(dp995
g192
((lp996
F40.149999999997817
tp997
sg244
((lp998
F40.159999999999854
tp999
sg294
((lp1000
F40.150000000001455
tp1001
sg342
((lp1002
F40.130000000001019
tp1003
sg392
((lp1004
F40.090000000000146
tp1005
ssba(imeasure_core
ProblemSetSolution
p1006
(dp1007
g3
g466
sg149
g978
sg152
(dp1008
g469
((lp1009
F40.110000000000582
tp1010
sg517
((lp1011
F49.299999999995634
tp1012
sg654
((lp1013
F42.80000000000291
tp1014
sg606
((lp1015
F40.599999999998545
tp1016
sg565
((lp1017
(F25.660000000003492
I10
tp1018
aF42.0
tp1019
ssba(imeasure_core
ProblemSetSolution
p1020
(dp1021
g3
g4
sg149
S"AnytimeBeam-w20-gf(8, 'lin')_with_LinearHeuristic"
p1022
sg152
(dp1023
g8
((lp1024
(F0.010000000002037268
I24
tp1025
aF40.0
tp1026
sg41
((lp1027
F40.150000000001455
tp1028
sg95
((lp1029
(F0.010000000002037268
I23
tp1030
aF40.0
tp1031
sg70
((lp1032
(F0.76999999999679858
I4
tp1033
aF40.039999999993597
tp1034
sg121
((lp1035
F40.210000000006403
tp1036
ssba(imeasure_core
ProblemSetSolution
p1037
(dp1038
g3
g189
sg149
g1022
sg152
(dp1039
g192
((lp1040
F40.17000000000553
tp1041
sg244
((lp1042
F40.059999999997672
tp1043
sg294
((lp1044
F40.139999999999418
tp1045
sg342
((lp1046
F40.0
tp1047
sg392
((lp1048
F40.230000000003201
tp1049
ssba(imeasure_core
ProblemSetSolution
p1050
(dp1051
g3
g466
sg149
g1022
sg152
(dp1052
g469
((lp1053
F40.010000000002037
tp1054
sg517
((lp1055
F50.330000000001746
tp1056
sg654
((lp1057
F43.680000000000291
tp1058
sg606
((lp1059
F40.040000000000873
tp1060
sg565
((lp1061
(F26.839999999996508
I10
tp1062
aF41.589999999996508
tp1063
ssba(imeasure_core
ProblemSetSolution
p1064
(dp1065
g3
g4
sg149
S"AnytimeBeam-w20-gf(16, 'lin')_with_LinearHeuristic"
p1066
sg152
(dp1067
g8
((lp1068
(F0.0099999999947613105
I24
tp1069
aF40.0
tp1070
sg41
((lp1071
F40.309999999997672
tp1072
sg95
((lp1073
(F0.020000000004074536
I23
tp1074
aF40.0
tp1075
sg70
((lp1076
(F0.81999999999970896
I4
tp1077
aF40.139999999999418
tp1078
sg121
((lp1079
F40.200000000004366
tp1080
ssba(imeasure_core
ProblemSetSolution
p1081
(dp1082
g3
g189
sg149
g1066
sg152
(dp1083
g192
((lp1084
F40.060000000004948
tp1085
sg244
((lp1086
F40.209999999999127
tp1087
sg294
((lp1088
F40.360000000000582
tp1089
sg342
((lp1090
F40.149999999994179
tp1091
sg392
((lp1092
F40.17000000000553
tp1093
ssba(imeasure_core
ProblemSetSolution
p1094
(dp1095
g3
g466
sg149
g1066
sg152
(dp1096
g469
((lp1097
F40.149999999994179
tp1098
sg517
((lp1099
F52.650000000001455
tp1100
sg654
((lp1101
F45.129999999997381
tp1102
sg606
((lp1103
F40.470000000001164
tp1104
sg565
((lp1105
(F29.150000000001455
I10
tp1106
aF42.360000000000582
tp1107
ssba.