(lp0
(imeasure_core
ProblemSetSolution
p1
(dp2
S'roomset'
p3
(imeasure_core
RoomSet
p4
(dp5
S'rooms'
p6
(dp7
(iproblems
RoomID
p8
(dp9
S'dusts'
p10
I8
sS'obstacles'
p11
(I1
I6
tp12
sS'robots'
p13
I4
sS'height'
p14
I10
sS'width'
p15
I9
sS'seed'
p16
I3433768247134474666
sb(imulti_robot_problem
MultiRobotState
p17
(dp18
S'obstacle_locations'
p19
c__builtin__
frozenset
p20
((lp21
(I4
I9
tp22
a(I4
I6
tp23
a(I0
I7
tp24
ag12
a(I0
I9
tp25
a(I8
I6
tp26
a(I0
I8
tp27
a(I3
I3
tp28
atp29
Rp30
sg15
I9
sS'dirt_locations'
p31
g20
((lp32
(I3
I2
tp33
a(I7
I7
tp34
a(I1
I9
tp35
a(I8
I7
tp36
a(I5
I4
tp37
a(I1
I1
tp38
a(I5
I8
tp39
a(I7
I9
tp40
atp41
Rp42
sg13
((I5
I9
tp43
(I5
I5
tp44
(I6
I9
tp45
(I2
I0
tp46
tp47
sg14
I10
sbs(iproblems
RoomID
p48
(dp49
g10
I7
sg11
(I2
I2
tp50
sg13
I3
sg14
I9
sg15
I9
sg16
I6241004153072892496
sb(imulti_robot_problem
MultiRobotState
p51
(dp52
g19
g20
((lp53
(I7
I3
tp54
a(I3
I2
tp55
a(I7
I1
tp56
a(I5
I1
tp57
ag50
a(I4
I1
tp58
a(I7
I7
tp59
atp60
Rp61
sg15
I9
sg31
g20
((lp62
(I3
I8
tp63
a(I1
I5
tp64
a(I4
I8
tp65
a(I3
I7
tp66
a(I5
I7
tp67
a(I3
I4
tp68
a(I6
I0
tp69
atp70
Rp71
sg13
((I6
I5
tp72
(I4
I3
tp73
(I3
I5
tp74
tp75
sg14
I9
sbs(iproblems
RoomID
p76
(dp77
g10
I6
sg11
(I7
I4
tp78
sg13
I4
sg14
I8
sg15
I9
sg16
I8554152435637441414
sb(imulti_robot_problem
MultiRobotState
p79
(dp80
g19
g20
((lp81
(I6
I6
tp82
a(I5
I7
tp83
ag78
a(I2
I0
tp84
a(I7
I5
tp85
a(I3
I7
tp86
a(I0
I3
tp87
a(I4
I1
tp88
atp89
Rp90
sg15
I9
sg31
g20
((lp91
(I7
I3
tp92
a(I1
I6
tp93
a(I5
I1
tp94
a(I8
I6
tp95
a(I0
I2
tp96
a(I4
I0
tp97
atp98
Rp99
sg13
((I5
I3
tp100
(I6
I2
tp101
(I6
I3
tp102
(I6
I4
tp103
tp104
sg14
I8
sbs(iproblems
RoomID
p105
(dp106
g10
I9
sg11
(I4
I3
tp107
sg13
I3
sg14
I9
sg15
I8
sg16
I6161655336973386967
sb(imulti_robot_problem
MultiRobotState
p108
(dp109
g19
g20
((lp110
(I6
I3
tp111
a(I7
I3
tp112
a(I5
I4
tp113
ag107
a(I6
I6
tp114
a(I5
I2
tp115
a(I2
I1
tp116
atp117
Rp118
sg15
I8
sg31
g20
((lp119
(I6
I4
tp120
a(I6
I8
tp121
a(I2
I0
tp122
a(I5
I7
tp123
a(I1
I4
tp124
a(I1
I5
tp125
a(I0
I5
tp126
a(I2
I5
tp127
a(I4
I1
tp128
atp129
Rp130
sg13
((I3
I5
tp131
(I4
I6
tp132
(I4
I5
tp133
tp134
sg14
I9
sbs(iproblems
RoomID
p135
(dp136
g10
I10
sg11
(I6
I4
tp137
sg13
I4
sg14
I7
sg15
I10
sg16
I3125140389427113411
sb(imulti_robot_problem
MultiRobotState
p138
(dp139
g19
g20
((lp140
(I6
I3
tp141
a(I5
I1
tp142
a(I5
I2
tp143
ag137
atp144
Rp145
sg15
I10
sg31
g20
((lp146
(I1
I2
tp147
a(I7
I3
tp148
a(I0
I0
tp149
a(I3
I3
tp150
a(I6
I2
tp151
a(I1
I6
tp152
a(I9
I4
tp153
a(I2
I5
tp154
a(I0
I2
tp155
a(I7
I2
tp156
atp157
Rp158
sg13
((I9
I0
tp159
(I6
I5
tp160
(I1
I4
tp161
(I1
I3
tp162
tp163
sg14
I7
sbssS'name'
p164
S'easy_roomset'
p165
sbsg164
S"AnytimeBeam-w20-gf(1.3, 'exp')_with_PowerHeuristic2"
p166
sS'solutions'
p167
(dp168
g8
((lp169
(F0.40000000000145519
I10
tp170
aF40.029999999998836
tp171
sg48
((lp172
(F0.20000000000436557
I8
tp173
aF40.020000000004075
tp174
sg76
((lp175
(F1.0299999999988358
I8
tp176
aF40.279999999998836
tp177
sg105
((lp178
(F2.9799999999959255
I48
tp179
aF40.069999999999709
tp180
sg135
((lp181
(F1.7399999999979627
I13
tp182
aF40.010000000002037
tp183
ssba(imeasure_core
ProblemSetSolution
p184
(dp185
g3
(imeasure_core
RoomSet
p186
(dp187
g6
(dp188
(iproblems
RoomID
p189
(dp190
g10
I10
sg11
(I1
I6
tp191
sg13
I3
sg14
I12
sg15
I9
sg16
I4927760411464392432
sb(imulti_robot_problem
MultiRobotState
p192
(dp193
g19
g20
((lp194
(I5
I9
tp195
a(I1
I3
tp196
a(I4
I5
tp197
a(I7
I7
tp198
a(I6
I0
tp199
a(I3
I9
tp200
ag191
a(I8
I7
tp201
a(I3
I7
tp202
a(I2
I5
tp203
a(I7
I9
tp204
a(I3
I1
tp205
a(I4
I6
tp206
a(I2
I9
tp207
a(I3
I10
tp208
a(I6
I10
tp209
a(I2
I11
tp210
a(I3
I8
tp211
a(I0
I6
tp212
a(I3
I6
tp213
a(I2
I2
tp214
a(I2
I3
tp215
a(I3
I4
tp216
a(I7
I6
tp217
atp218
Rp219
sg15
I9
sg31
g20
((lp220
(I1
I2
tp221
a(I6
I4
tp222
a(I6
I9
tp223
a(I8
I2
tp224
a(I8
I0
tp225
a(I1
I10
tp226
a(I0
I9
tp227
a(I1
I0
tp228
a(I0
I2
tp229
a(I4
I11
tp230
atp231
Rp232
sg13
((I1
I11
tp233
(I0
I11
tp234
(I7
I5
tp235
tp236
sg14
I12
sbs(iproblems
RoomID
p237
(dp238
g10
I8
sg11
(I1
I11
tp239
sg13
I4
sg14
I12
sg15
I11
sg16
I3433768247134474666
sb(imulti_robot_problem
MultiRobotState
p240
(dp241
g19
g20
((lp242
(I9
I3
tp243
a(I3
I6
tp244
a(I4
I8
tp245
a(I4
I5
tp246
a(I2
I8
tp247
a(I10
I6
tp248
a(I2
I10
tp249
a(I8
I7
tp250
a(I2
I3
tp251
a(I0
I10
tp252
a(I9
I4
tp253
a(I3
I7
tp254
ag239
a(I10
I3
tp255
a(I5
I8
tp256
a(I10
I4
tp257
a(I2
I7
tp258
a(I10
I5
tp259
a(I6
I7
tp260
a(I2
I9
tp261
a(I9
I6
tp262
a(I1
I8
tp263
a(I3
I8
tp264
a(I0
I11
tp265
a(I8
I8
tp266
a(I4
I11
tp267
a(I5
I0
tp268
a(I0
I9
tp269
a(I4
I9
tp270
a(I7
I8
tp271
atp272
Rp273
sg15
I11
sg31
g20
((lp274
(I4
I3
tp275
a(I5
I11
tp276
a(I9
I8
tp277
a(I2
I11
tp278
a(I9
I11
tp279
a(I7
I10
tp280
a(I1
I1
tp281
a(I6
I5
tp282
atp283
Rp284
sg13
((I7
I11
tp285
(I7
I7
tp286
(I2
I0
tp287
(I10
I9
tp288
tp289
sg14
I12
sbs(iproblems
RoomID
p290
(dp291
g10
I6
sg11
(I5
I4
tp292
sg13
I4
sg14
I10
sg15
I11
sg16
I8554152435637441414
sb(imulti_robot_problem
MultiRobotState
p293
(dp294
g19
g20
((lp295
(I6
I4
tp296
ag292
a(I4
I5
tp297
a(I2
I8
tp298
a(I9
I3
tp299
a(I7
I7
tp300
a(I0
I7
tp301
a(I6
I2
tp302
a(I2
I1
tp303
a(I3
I7
tp304
a(I5
I1
tp305
a(I0
I3
tp306
a(I8
I5
tp307
a(I5
I3
tp308
a(I3
I8
tp309
a(I8
I3
tp310
a(I4
I9
tp311
a(I6
I8
tp312
a(I7
I0
tp313
a(I6
I3
tp314
a(I7
I5
tp315
a(I3
I6
tp316
a(I8
I6
tp317
a(I7
I8
tp318
a(I10
I9
tp319
atp320
Rp321
sg15
I11
sg31
g20
((lp322
(I1
I3
tp323
a(I9
I4
tp324
a(I5
I0
tp325
a(I3
I0
tp326
a(I4
I2
tp327
a(I7
I2
tp328
atp329
Rp330
sg13
((I8
I2
tp331
(I8
I4
tp332
(I9
I7
tp333
(I0
I2
tp334
tp335
sg14
I10
sbs(iproblems
RoomID
p336
(dp337
g10
I10
sg11
(I5
I4
tp338
sg13
I4
sg14
I9
sg15
I12
sg16
I3125140389427113411
sb(imulti_robot_problem
MultiRobotState
p339
(dp340
g19
g20
((lp341
(I7
I3
tp342
a(I4
I7
tp343
a(I2
I6
tp344
a(I2
I7
tp345
a(I6
I6
tp346
a(I5
I6
tp347
ag338
a(I1
I4
tp348
a(I6
I2
tp349
a(I10
I1
tp350
a(I3
I7
tp351
a(I5
I1
tp352
a(I2
I5
tp353
a(I6
I5
tp354
a(I3
I3
tp355
a(I6
I4
tp356
a(I9
I5
tp357
a(I6
I7
tp358
a(I5
I5
tp359
a(I10
I7
tp360
a(I6
I1
tp361
a(I7
I4
tp362
a(I8
I6
tp363
a(I5
I3
tp364
a(I5
I2
tp365
a(I8
I4
tp366
atp367
Rp368
sg15
I12
sg31
g20
((lp369
(I0
I0
tp370
a(I11
I4
tp371
a(I8
I2
tp372
a(I3
I0
tp373
a(I6
I0
tp374
a(I1
I8
tp375
a(I2
I3
tp376
a(I0
I3
tp377
a(I11
I6
tp378
a(I3
I5
tp379
atp380
Rp381
sg13
((I11
I0
tp382
(I7
I7
tp383
(I1
I5
tp384
(I2
I4
tp385
tp386
sg14
I9
sbs(iproblems
RoomID
p387
(dp388
g10
I7
sg11
(I10
I3
tp389
sg13
I3
sg14
I11
sg15
I11
sg16
I6241004153072892496
sb(imulti_robot_problem
MultiRobotState
p390
(dp391
g19
g20
((lp392
(I3
I2
tp393
a(I0
I0
tp394
a(I9
I8
tp395
a(I7
I7
tp396
a(I8
I9
tp397
a(I6
I2
tp398
a(I2
I3
tp399
a(I9
I4
tp400
a(I4
I2
tp401
a(I5
I1
tp402
a(I0
I3
tp403
ag389
a(I1
I2
tp404
a(I9
I5
tp405
a(I5
I5
tp406
a(I10
I7
tp407
a(I8
I5
tp408
a(I6
I1
tp409
a(I1
I8
tp410
a(I8
I8
tp411
a(I8
I6
tp412
a(I7
I8
tp413
a(I2
I4
tp414
atp415
Rp416
sg15
I11
sg31
g20
((lp417
(I4
I10
tp418
a(I6
I9
tp419
a(I4
I9
tp420
a(I9
I1
tp421
a(I5
I10
tp422
a(I3
I10
tp423
a(I8
I0
tp424
atp425
Rp426
sg13
((I5
I4
tp427
(I4
I6
tp428
(I1
I6
tp429
tp430
sg14
I11
sbssg164
S'mild_roomset'
p431
sbsg164
g166
sg167
(dp432
g189
((lp433
F40.019999999996799
tp434
sg237
((lp435
(F3.5500000000029104
I30
tp436
aF40.099999999998545
tp437
sg290
((lp438
(F14.169999999998254
I55
tp439
aF40.450000000004366
tp440
sg336
((lp441
F40.309999999997672
tp442
sg387
((lp443
(F0.84999999999854481
I13
tp444
aF40.110000000000582
tp445
ssba(imeasure_core
ProblemSetSolution
p446
(dp447
g3
(imeasure_core
RoomSet
p448
(dp449
g6
(dp450
(iproblems
RoomID
p451
(dp452
g10
I15
sg11
(I3
I3
tp453
sg13
I5
sg14
I13
sg15
I10
sg16
I4927760411464392432
sb(imulti_robot_problem
MultiRobotState
p454
(dp455
g19
g20
((lp456
(I6
I10
tp457
a(I6
I11
tp458
a(I3
I11
tp459
a(I2
I1
tp460
a(I2
I10
tp461
a(I3
I9
tp462
a(I2
I3
tp463
a(I1
I0
tp464
a(I4
I0
tp465
a(I1
I2
tp466
ag453
a(I7
I6
tp467
a(I3
I1
tp468
a(I1
I1
tp469
a(I1
I7
tp470
a(I1
I3
tp471
a(I3
I10
tp472
a(I9
I12
tp473
atp474
Rp475
sg15
I10
sg31
g20
((lp476
(I9
I0
tp477
a(I9
I7
tp478
a(I7
I0
tp479
a(I8
I2
tp480
a(I5
I5
tp481
a(I8
I10
tp482
a(I1
I4
tp483
a(I8
I8
tp484
a(I2
I12
tp485
a(I8
I7
tp486
a(I1
I10
tp487
a(I7
I11
tp488
a(I4
I12
tp489
a(I0
I2
tp490
a(I0
I10
tp491
atp492
Rp493
sg13
((I1
I12
tp494
(I0
I12
tp495
(I8
I5
tp496
(I7
I9
tp497
(I7
I4
tp498
tp499
sg14
I13
sbs(iproblems
RoomID
p500
(dp501
g10
I13
sg11
(I4
I11
tp502
sg13
I6
sg14
I13
sg15
I12
sg16
I3433768247134474666
sb(imulti_robot_problem
MultiRobotState
p503
(dp504
g19
g20
((lp505
(I4
I10
tp506
a(I5
I11
tp507
a(I6
I11
tp508
a(I9
I8
tp509
a(I6
I0
tp510
a(I0
I12
tp511
a(I4
I12
tp512
a(I2
I3
tp513
a(I2
I12
tp514
a(I10
I3
tp515
ag502
a(I11
I7
tp516
a(I3
I12
tp517
a(I3
I10
tp518
a(I11
I3
tp519
a(I0
I11
tp520
a(I8
I8
tp521
a(I1
I9
tp522
a(I1
I6
tp523
a(I1
I1
tp524
a(I0
I10
tp525
atp526
Rp527
sg15
I12
sg31
g20
((lp528
(I10
I8
tp529
a(I10
I5
tp530
a(I6
I7
tp531
a(I6
I8
tp532
a(I4
I4
tp533
a(I10
I12
tp534
a(I9
I9
tp535
a(I8
I10
tp536
a(I7
I5
tp537
a(I7
I10
tp538
a(I6
I12
tp539
a(I5
I10
tp540
a(I5
I3
tp541
atp542
Rp543
sg13
((I7
I12
tp544
(I7
I7
tp545
(I8
I12
tp546
(I2
I0
tp547
(I11
I9
tp548
(I1
I2
tp549
tp550
sg14
I13
sbs(iproblems
RoomID
p551
(dp552
g10
I12
sg11
(I3
I3
tp553
sg13
I6
sg14
I12
sg15
I12
sg16
I6241004153072892496
sb(imulti_robot_problem
MultiRobotState
p554
(dp555
g19
g20
((lp556
(I9
I3
tp557
ag553
a(I2
I9
tp558
a(I7
I1
tp559
a(I11
I8
tp560
a(I3
I4
tp561
a(I6
I1
tp562
a(I3
I1
tp563
a(I5
I2
tp564
a(I4
I3
tp565
a(I4
I2
tp566
a(I8
I5
tp567
a(I11
I6
tp568
atp569
Rp570
sg15
I12
sg31
g20
((lp571
(I4
I10
tp572
a(I0
I0
tp573
a(I7
I10
tp574
a(I5
I11
tp575
a(I8
I0
tp576
a(I9
I10
tp577
a(I8
I7
tp578
a(I10
I1
tp579
a(I2
I5
tp580
a(I8
I9
tp581
a(I4
I11
tp582
a(I10
I4
tp583
atp584
Rp585
sg13
((I8
I6
tp586
(I5
I4
tp587
(I7
I2
tp588
(I4
I7
tp589
(I1
I7
tp590
(I5
I6
tp591
tp592
sg14
I12
sbs(iproblems
RoomID
p593
(dp594
g10
I11
sg11
(I3
I6
tp595
sg13
I7
sg14
I11
sg15
I12
sg16
I8554152435637441414
sb(imulti_robot_problem
MultiRobotState
p596
(dp597
g19
g20
((lp598
(I3
I1
tp599
a(I3
I8
tp600
a(I4
I5
tp601
a(I2
I8
tp602
a(I11
I2
tp603
a(I1
I7
tp604
a(I7
I5
tp605
a(I9
I4
tp606
a(I3
I7
tp607
a(I5
I1
tp608
a(I9
I6
tp609
a(I7
I9
tp610
a(I6
I3
tp611
a(I7
I6
tp612
a(I4
I4
tp613
a(I7
I4
tp614
a(I1
I8
tp615
a(I8
I8
tp616
ag595
a(I0
I4
tp617
a(I0
I9
tp618
a(I8
I6
tp619
a(I9
I7
tp620
atp621
Rp622
sg15
I12
sg31
g20
((lp623
(I11
I10
tp624
a(I4
I9
tp625
a(I2
I9
tp626
a(I3
I0
tp627
a(I8
I0
tp628
a(I4
I7
tp629
a(I1
I4
tp630
a(I0
I3
tp631
a(I0
I8
tp632
a(I5
I2
tp633
a(I7
I2
tp634
atp635
Rp636
sg13
((I6
I4
tp637
(I8
I2
tp638
(I8
I5
tp639
(I10
I8
tp640
(I1
I2
tp641
(I6
I0
tp642
(I10
I4
tp643
tp644
sg14
I11
sbs(iproblems
RoomID
p645
(dp646
g10
I15
sg11
(I1
I6
tp647
sg13
I6
sg14
I10
sg15
I13
sg16
I3125140389427113411
sb(imulti_robot_problem
MultiRobotState
p648
(dp649
g19
g20
((lp650
(I7
I3
tp651
a(I3
I3
tp652
a(I1
I5
tp653
a(I6
I1
tp654
a(I1
I4
tp655
a(I7
I4
tp656
a(I2
I0
tp657
a(I11
I1
tp658
a(I2
I3
tp659
a(I0
I7
tp660
a(I8
I7
tp661
a(I6
I2
tp662
ag647
atp663
Rp664
sg15
I13
sg31
g20
((lp665
(I0
I1
tp666
a(I2
I6
tp667
a(I2
I9
tp668
a(I11
I8
tp669
a(I2
I8
tp670
a(I9
I3
tp671
a(I6
I0
tp672
a(I3
I0
tp673
a(I7
I7
tp674
a(I6
I3
tp675
a(I9
I2
tp676
a(I12
I4
tp677
a(I0
I4
tp678
a(I2
I4
tp679
a(I9
I7
tp680
atp681
Rp682
sg13
((I12
I0
tp683
(I7
I8
tp684
(I2
I5
tp685
(I4
I5
tp686
(I12
I7
tp687
(I9
I4
tp688
tp689
sg14
I10
sbssg164
S'heavy_roomset'
p690
sbsg164
g166
sg167
(dp691
g451
((lp692
F41.309999999997672
tp693
sg500
((lp694
F41.989999999997963
tp695
sg551
((lp696
F41.400000000001455
tp697
sg593
((lp698
F48.809999999997672
tp699
sg645
((lp700
F44.319999999999709
tp701
ssba(imeasure_core
ProblemSetSolution
p702
(dp703
g3
g4
sg164
S"AnytimeBeam-w20-gf(1.5, 'exp')_with_PowerHeuristic2"
p704
sg167
(dp705
g8
((lp706
(F0.40000000000145519
I10
tp707
aF40.040000000000873
tp708
sg48
((lp709
(F0.19999999999708962
I8
tp710
aF40.040000000000873
tp711
sg76
((lp712
(F1.0199999999967986
I8
tp713
aF40.599999999998545
tp714
sg105
((lp715
(F3.0
I48
tp716
aF40.05000000000291
tp717
sg135
((lp718
(F1.7299999999959255
I13
tp719
aF40.07999999999447
tp720
ssba(imeasure_core
ProblemSetSolution
p721
(dp722
g3
g186
sg164
g704
sg167
(dp723
g189
((lp724
F40.150000000001455
tp725
sg237
((lp726
(F3.5299999999988358
I30
tp727
aF40.110000000000582
tp728
sg290
((lp729
(F14.19999999999709
I55
tp730
aF40.610000000000582
tp731
sg336
((lp732
F40.369999999995343
tp733
sg387
((lp734
(F0.85000000000582077
I13
tp735
aF40.060000000004948
tp736
ssba(imeasure_core
ProblemSetSolution
p737
(dp738
g3
g448
sg164
g704
sg167
(dp739
g451
((lp740
F40.150000000001455
tp741
sg500
((lp742
F41.900000000001455
tp743
sg551
((lp744
F41.430000000000291
tp745
sg593
((lp746
F48.779999999998836
tp747
sg645
((lp748
F44.190000000002328
tp749
ssba(imeasure_core
ProblemSetSolution
p750
(dp751
g3
g4
sg164
S"AnytimeBeam-w20-gf(1.7, 'exp')_with_PowerHeuristic2"
p752
sg167
(dp753
g8
((lp754
(F0.41000000000349246
I10
tp755
aF40.180000000000291
tp756
sg48
((lp757
(F0.20000000000436557
I8
tp758
aF40.030000000006112
tp759
sg76
((lp760
(F1.0199999999967986
I8
tp761
aF40.659999999996217
tp762
sg105
((lp763
(F3.0299999999988358
I48
tp764
aF40.190000000002328
tp765
sg135
((lp766
(F1.7299999999959255
I13
tp767
aF40.299999999995634
tp768
ssba(imeasure_core
ProblemSetSolution
p769
(dp770
g3
g186
sg164
g752
sg167
(dp771
g189
((lp772
F40.129999999997381
tp773
sg237
((lp774
(F3.5600000000049477
I30
tp775
aF40.120000000002619
tp776
sg290
((lp777
(F14.209999999999127
I55
tp778
aF40.450000000004366
tp779
sg336
((lp780
F40.44999999999709
tp781
sg387
((lp782
(F0.86000000000058208
I13
tp783
aF40.069999999999709
tp784
ssba(imeasure_core
ProblemSetSolution
p785
(dp786
g3
g448
sg164
g752
sg167
(dp787
g451
((lp788
F40.069999999999709
tp789
sg500
((lp790
F41.940000000002328
tp791
sg551
((lp792
F41.25
tp793
sg593
((lp794
F48.549999999995634
tp795
sg645
((lp796
F44.200000000004366
tp797
ssba(imeasure_core
ProblemSetSolution
p798
(dp799
g3
g4
sg164
S"AnytimeBeam-w20-gf(1.8999999999999999, 'exp')_with_PowerHeuristic2"
p800
sg167
(dp801
g8
((lp802
(F0.41000000000349246
I10
tp803
aF40.120000000002619
tp804
sg48
((lp805
(F0.19000000000232831
I8
tp806
aF40.120000000002619
tp807
sg76
((lp808
(F1.0199999999967986
I8
tp809
aF40.009999999994761
tp810
sg105
((lp811
(F3.0
I48
tp812
aF40.05000000000291
tp813
sg135
((lp814
(F1.7399999999979627
I13
tp815
aF40.040000000000873
tp816
ssba(imeasure_core
ProblemSetSolution
p817
(dp818
g3
g186
sg164
g800
sg167
(dp819
g189
((lp820
F40.110000000000582
tp821
sg237
((lp822
(F3.5599999999976717
I30
tp823
aF40.029999999998836
tp824
sg290
((lp825
(F14.089999999996508
I55
tp826
aF40.30000000000291
tp827
sg336
((lp828
F40.319999999999709
tp829
sg387
((lp830
(F0.84999999999854481
I13
tp831
aF40.049999999995634
tp832
ssba(imeasure_core
ProblemSetSolution
p833
(dp834
g3
g448
sg164
g800
sg167
(dp835
g451
((lp836
F41.389999999999418
tp837
sg500
((lp838
F41.980000000003201
tp839
sg551
((lp840
F41.229999999995925
tp841
sg593
((lp842
F48.559999999997672
tp843
sg645
((lp844
F44.330000000001746
tp845
ssba(imeasure_core
ProblemSetSolution
p846
(dp847
g3
g4
sg164
S"AnytimeBeam-w20-gf(1.3, 'exp')_with_LinearHeuristic"
p848
sg167
(dp849
g8
((lp850
(F1.2299999999959255
I29
tp851
aF40.260000000002037
tp852
sg48
((lp853
(F0.29000000000087311
I7
tp854
aF40.009999999994761
tp855
sg76
((lp856
F40.209999999999127
tp857
sg105
((lp858
F40.210000000006403
tp859
sg135
((lp860
F40.169999999998254
tp861
ssba(imeasure_core
ProblemSetSolution
p862
(dp863
g3
g186
sg164
g848
sg167
(dp864
g189
((lp865
F40.19999999999709
tp866
sg237
((lp867
F41.230000000003201
tp868
sg290
((lp869
(F1.0899999999965075
I8
tp870
aF40.129999999997381
tp871
sg336
((lp872
F40.389999999999418
tp873
sg387
((lp874
(F2.0100000000020373
I27
tp875
aF40.209999999999127
tp876
ssba(imeasure_core
ProblemSetSolution
p877
(dp878
g3
g448
sg164
g848
sg167
(dp879
g451
((lp880
F40.830000000001746
tp881
sg500
((lp882
F42.569999999999709
tp883
sg551
((lp884
F43.309999999997672
tp885
sg593
((lp886
F56.529999999998836
tp887
sg645
((lp888
F43.450000000004366
tp889
ssba(imeasure_core
ProblemSetSolution
p890
(dp891
g3
g4
sg164
S"AnytimeBeam-w20-gf(1.5, 'exp')_with_LinearHeuristic"
p892
sg167
(dp893
g8
((lp894
(F1.2399999999979627
I29
tp895
aF40.389999999999418
tp896
sg48
((lp897
(F0.29000000000087311
I7
tp898
aF40.019999999996799
tp899
sg76
((lp900
F40.240000000005239
tp901
sg105
((lp902
F40.25
tp903
sg135
((lp904
F40.299999999995634
tp905
ssba(imeasure_core
ProblemSetSolution
p906
(dp907
g3
g186
sg164
g892
sg167
(dp908
g189
((lp909
F40.080000000001746
tp910
sg237
((lp911
F40.669999999998254
tp912
sg290
((lp913
(F1.0800000000017462
I8
tp914
aF40.339999999996508
tp915
sg336
((lp916
F40.790000000000873
tp917
sg387
((lp918
(F2.0
I27
tp919
aF40.180000000000291
tp920
ssba(imeasure_core
ProblemSetSolution
p921
(dp922
g3
g448
sg164
g892
sg167
(dp923
g451
((lp924
F42.290000000000873
tp925
sg500
((lp926
F41.349999999998545
tp927
sg551
((lp928
F45.870000000002619
tp929
sg593
((lp930
F57.779999999998836
tp931
sg645
((lp932
F43.819999999999709
tp933
ssba(imeasure_core
ProblemSetSolution
p934
(dp935
g3
g4
sg164
S"AnytimeBeam-w20-gf(1.7, 'exp')_with_LinearHeuristic"
p936
sg167
(dp937
g8
((lp938
(F1.2399999999979627
I29
tp939
aF40.150000000001455
tp940
sg48
((lp941
(F0.29000000000087311
I7
tp942
aF40.099999999998545
tp943
sg76
((lp944
F40.069999999999709
tp945
sg105
((lp946
F40.0
tp947
sg135
((lp948
F40.089999999996508
tp949
ssba(imeasure_core
ProblemSetSolution
p950
(dp951
g3
g186
sg164
g936
sg167
(dp952
g189
((lp953
F40.040000000000873
tp954
sg237
((lp955
F40.630000000004657
tp956
sg290
((lp957
(F1.0899999999965075
I8
tp958
aF40.129999999997381
tp959
sg336
((lp960
F40.650000000001455
tp961
sg387
((lp962
(F2.0299999999988358
I27
tp963
aF40.209999999999127
tp964
ssba(imeasure_core
ProblemSetSolution
p965
(dp966
g3
g448
sg164
g936
sg167
(dp967
g451
((lp968
F42.419999999998254
tp969
sg500
((lp970
F41.459999999999127
tp971
sg551
((lp972
F45.950000000004366
tp973
sg593
((lp974
F57.899999999994179
tp975
sg645
((lp976
F43.80000000000291
tp977
ssba(imeasure_core
ProblemSetSolution
p978
(dp979
g3
g4
sg164
S"AnytimeBeam-w20-gf(1.8999999999999999, 'exp')_with_LinearHeuristic"
p980
sg167
(dp981
g8
((lp982
(F1.2399999999979627
I29
tp983
aF40.099999999998545
tp984
sg48
((lp985
(F0.29000000000087311
I7
tp986
aF40.069999999999709
tp987
sg76
((lp988
F40.17000000000553
tp989
sg105
((lp990
F40.239999999997963
tp991
sg135
((lp992
F40.129999999997381
tp993
ssba(imeasure_core
ProblemSetSolution
p994
(dp995
g3
g186
sg164
g980
sg167
(dp996
g189
((lp997
F40.090000000003783
tp998
sg237
((lp999
F40.349999999998545
tp1000
sg290
((lp1001
(F1.0899999999965075
I8
tp1002
aF40.19999999999709
tp1003
sg336
((lp1004
F40.669999999998254
tp1005
sg387
((lp1006
(F2.0100000000020373
I27
tp1007
aF40.180000000000291
tp1008
ssba(imeasure_core
ProblemSetSolution
p1009
(dp1010
g3
g448
sg164
g980
sg167
(dp1011
g451
((lp1012
F42.110000000000582
tp1013
sg500
((lp1014
F41.090000000003783
tp1015
sg551
((lp1016
F45.759999999994761
tp1017
sg593
((lp1018
F58.05000000000291
tp1019
sg645
((lp1020
F43.94999999999709
tp1021
ssba.