(lp0
(imeasure_core
ProblemSetSolution
p1
(dp2
S'roomset'
p3
(imeasure_core
RoomSet
p4
(dp5
S'rooms'
p6
(dp7
(iproblems
RoomID
p8
(dp9
S'dusts'
p10
I6
sS'obstacles'
p11
(I5
I1
tp12
sS'robots'
p13
I4
sS'height'
p14
I9
sS'width'
p15
I10
sS'seed'
p16
I2405875930906139466
sb(imulti_robot_problem
MultiRobotState
p17
(dp18
S'obstacle_locations'
p19
c__builtin__
frozenset
p20
((lp21
(I7
I0
tp22
a(I7
I1
tp23
ag12
a(I6
I1
tp24
a(I6
I0
tp25
a(I7
I2
tp26
atp27
Rp28
sg15
I10
sS'dirt_locations'
p29
g20
((lp30
(I7
I3
tp31
a(I2
I1
tp32
a(I6
I4
tp33
a(I5
I6
tp34
a(I5
I2
tp35
a(I0
I7
tp36
atp37
Rp38
sg13
((I7
I6
tp39
(I3
I3
tp40
(I8
I6
tp41
(I0
I2
tp42
tp43
sg14
I9
sbs(iproblems
RoomID
p44
(dp45
g10
I6
sg11
(I6
I7
tp46
sg13
I4
sg14
I10
sg15
I7
sg16
I8744744311366254845
sb(imulti_robot_problem
MultiRobotState
p47
(dp48
g19
g20
((lp49
(I0
I6
tp50
ag46
a(I4
I6
tp51
a(I3
I7
tp52
a(I5
I7
tp53
a(I1
I9
tp54
atp55
Rp56
sg15
I7
sg29
g20
((lp57
(I2
I7
tp58
a(I0
I1
tp59
a(I5
I4
tp60
a(I6
I0
tp61
a(I5
I8
tp62
a(I5
I3
tp63
atp64
Rp65
sg13
((I0
I8
tp66
(I4
I2
tp67
(I3
I0
tp68
(I1
I4
tp69
tp70
sg14
I10
sbs(iproblems
RoomID
p71
(dp72
g10
I8
sg11
(I5
I3
tp73
sg13
I3
sg14
I7
sg15
I7
sg16
I7325839828077136048
sb(imulti_robot_problem
MultiRobotState
p74
(dp75
g19
g20
((lp76
(I6
I4
tp77
a(I5
I4
tp78
a(I5
I5
tp79
a(I6
I6
tp80
a(I3
I1
tp81
a(I6
I0
tp82
a(I2
I0
tp83
a(I0
I4
tp84
ag73
atp85
Rp86
sg15
I7
sg29
g20
((lp87
(I0
I6
tp88
a(I3
I0
tp89
a(I2
I4
tp90
a(I1
I5
tp91
a(I4
I3
tp92
a(I2
I2
tp93
a(I1
I1
tp94
a(I3
I5
tp95
atp96
Rp97
sg13
((I1
I0
tp98
(I3
I3
tp99
(I6
I2
tp100
tp101
sg14
I7
sbs(iproblems
RoomID
p102
(dp103
g10
I10
sg11
(I4
I7
tp104
sg13
I5
sg14
I10
sg15
I8
sg16
I8655808914197340073
sb(imulti_robot_problem
MultiRobotState
p105
(dp106
g19
g20
((lp107
(I2
I7
tp108
ag104
a(I4
I8
tp109
a(I6
I3
tp110
a(I7
I5
tp111
a(I3
I7
tp112
a(I1
I0
tp113
a(I5
I3
tp114
atp115
Rp116
sg15
I8
sg29
g20
((lp117
(I7
I3
tp118
a(I5
I4
tp119
a(I7
I0
tp120
a(I5
I7
tp121
a(I1
I5
tp122
a(I1
I9
tp123
a(I3
I6
tp124
a(I1
I7
tp125
a(I3
I4
tp126
a(I5
I8
tp127
atp128
Rp129
sg13
((I3
I8
tp130
(I7
I9
tp131
(I6
I1
tp132
(I2
I3
tp133
(I5
I5
tp134
tp135
sg14
I10
sbs(iproblems
RoomID
p136
(dp137
g10
I6
sg11
(I4
I6
tp138
sg13
I1
sg14
I8
sg15
I7
sg16
I3537054308274871603
sb(imulti_robot_problem
MultiRobotState
p139
(dp140
g19
g20
((lp141
(I4
I7
tp142
ag138
a(I4
I5
tp143
a(I2
I5
tp144
a(I3
I5
tp145
a(I6
I0
tp146
a(I2
I4
tp147
atp148
Rp149
sg15
I7
sg29
g20
((lp150
(I0
I6
tp151
a(I6
I2
tp152
a(I5
I6
tp153
a(I4
I1
tp154
a(I1
I1
tp155
a(I5
I3
tp156
atp157
Rp158
sg13
((I0
I3
tp159
tp160
sg14
I8
sbssS'name'
p161
S'easy_roomset'
p162
sbsg161
S'AnytimeBest-d10_with_PowerHeuristic2'
p163
sS'solutions'
p164
(dp165
g8
((lp166
(F0.4500000000007276
I10
tp167
aF40.049999999999272
tp168
sg44
((lp169
F40.25
tp170
sg136
((lp171
F0.2000000000007276
tp172
sg102
((lp173
(F1.680000000000291
I9
tp174
aF40.069999999999709
tp175
sg71
((lp176
F40.029999999998836
tp177
ssba(imeasure_core
ProblemSetSolution
p178
(dp179
g3
(imeasure_core
RoomSet
p180
(dp181
g6
(dp182
(iproblems
RoomID
p183
(dp184
g10
I6
sg11
(I1
I8
tp185
sg13
I4
sg14
I11
sg15
I12
sg16
I2405875930906139466
sb(imulti_robot_problem
MultiRobotState
p186
(dp187
g19
g20
((lp188
(I6
I4
tp189
a(I4
I6
tp190
a(I8
I2
tp191
a(I6
I6
tp192
a(I2
I8
tp193
a(I8
I0
tp194
a(I5
I5
tp195
a(I9
I10
tp196
a(I6
I2
tp197
a(I2
I3
tp198
a(I3
I7
tp199
a(I6
I5
tp200
a(I5
I3
tp201
a(I7
I0
tp202
a(I3
I3
tp203
a(I2
I9
tp204
a(I11
I5
tp205
a(I8
I1
tp206
a(I6
I1
tp207
a(I3
I1
tp208
a(I6
I3
tp209
a(I2
I0
tp210
ag185
a(I7
I5
tp211
a(I3
I6
tp212
a(I4
I3
tp213
a(I3
I4
tp214
atp215
Rp216
sg15
I12
sg29
g20
((lp217
(I9
I4
tp218
a(I7
I1
tp219
a(I0
I9
tp220
a(I9
I3
tp221
a(I7
I7
tp222
a(I2
I1
tp223
atp224
Rp225
sg13
((I9
I7
tp226
(I4
I4
tp227
(I10
I8
tp228
(I0
I2
tp229
tp230
sg14
I11
sbs(iproblems
RoomID
p231
(dp232
g10
I10
sg11
(I0
I5
tp233
sg13
I4
sg14
I12
sg15
I10
sg16
I8655808914197340073
sb(imulti_robot_problem
MultiRobotState
p234
(dp235
g19
g20
((lp236
(I5
I9
tp237
a(I5
I4
tp238
a(I5
I7
tp239
a(I6
I6
tp240
a(I4
I8
tp241
a(I8
I0
tp242
a(I0
I7
tp243
a(I7
I5
tp244
a(I2
I3
tp245
a(I1
I4
tp246
a(I6
I8
tp247
a(I1
I11
tp248
a(I9
I6
tp249
a(I5
I8
tp250
a(I4
I6
tp251
a(I3
I8
tp252
a(I6
I7
tp253
a(I5
I5
tp254
a(I3
I4
tp255
a(I4
I4
tp256
a(I6
I3
tp257
a(I2
I0
tp258
a(I6
I5
tp259
ag233
a(I7
I8
tp260
atp261
Rp262
sg15
I10
sg29
g20
((lp263
(I6
I9
tp264
a(I2
I9
tp265
a(I2
I11
tp266
a(I9
I0
tp267
a(I7
I7
tp268
a(I8
I3
tp269
a(I1
I7
tp270
a(I8
I6
tp271
a(I8
I4
tp272
a(I3
I5
tp273
atp274
Rp275
sg13
((I4
I9
tp276
(I8
I11
tp277
(I7
I1
tp278
(I3
I3
tp279
tp280
sg14
I12
sbs(iproblems
RoomID
p281
(dp282
g10
I10
sg11
(I3
I6
tp283
sg13
I4
sg14
I12
sg15
I11
sg16
I4278205817407065157
sb(imulti_robot_problem
MultiRobotState
p284
(dp285
g19
g20
((lp286
(I0
I1
tp287
a(I4
I7
tp288
a(I5
I6
tp289
a(I2
I8
tp290
a(I0
I10
tp291
a(I3
I7
tp292
a(I7
I11
tp293
a(I3
I3
tp294
a(I2
I7
tp295
a(I5
I3
tp296
a(I6
I7
tp297
a(I4
I6
tp298
a(I10
I7
tp299
a(I4
I4
tp300
a(I3
I8
tp301
a(I4
I5
tp302
ag283
a(I1
I10
tp303
a(I3
I5
tp304
a(I1
I9
tp305
atp306
Rp307
sg15
I11
sg29
g20
((lp308
(I1
I2
tp309
a(I8
I1
tp310
a(I9
I2
tp311
a(I6
I1
tp312
a(I5
I7
tp313
a(I8
I9
tp314
a(I3
I0
tp315
a(I9
I4
tp316
a(I0
I2
tp317
a(I4
I0
tp318
atp319
Rp320
sg13
((I6
I10
tp321
(I5
I11
tp322
(I2
I0
tp323
(I9
I1
tp324
tp325
sg14
I12
sbs(iproblems
RoomID
p326
(dp327
g10
I6
sg11
(I3
I3
tp328
sg13
I4
sg14
I12
sg15
I12
sg16
I7193062864237573168
sb(imulti_robot_problem
MultiRobotState
p329
(dp330
g19
g20
((lp331
(I6
I4
tp332
a(I5
I4
tp333
a(I1
I3
tp334
a(I6
I6
tp335
a(I7
I1
tp336
a(I9
I3
tp337
a(I0
I7
tp338
a(I1
I6
tp339
a(I2
I5
tp340
a(I0
I8
tp341
a(I10
I3
tp342
a(I8
I3
tp343
a(I3
I1
tp344
ag328
a(I5
I7
tp345
a(I11
I3
tp346
a(I7
I4
tp347
a(I0
I9
tp348
a(I2
I3
tp349
a(I8
I4
tp350
a(I3
I4
tp351
a(I2
I4
tp352
a(I9
I7
tp353
atp354
Rp355
sg15
I12
sg29
g20
((lp356
(I2
I0
tp357
a(I2
I6
tp358
a(I6
I8
tp359
a(I0
I6
tp360
a(I4
I4
tp361
a(I7
I7
tp362
atp363
Rp364
sg13
((I11
I9
tp365
(I11
I2
tp366
(I4
I11
tp367
(I3
I6
tp368
tp369
sg14
I12
sbs(iproblems
RoomID
p370
(dp371
g10
I10
sg11
(I11
I0
tp372
sg13
I4
sg14
I9
sg15
I12
sg16
I2796939073032698495
sb(imulti_robot_problem
MultiRobotState
p373
(dp374
g19
g20
((lp375
(I7
I3
tp376
a(I5
I7
tp377
a(I9
I1
tp378
a(I6
I6
tp379
a(I8
I0
tp380
a(I7
I7
tp381
a(I5
I8
tp382
a(I3
I3
tp383
a(I8
I1
tp384
a(I4
I8
tp385
a(I6
I3
tp386
a(I7
I2
tp387
a(I3
I6
tp388
a(I6
I4
tp389
a(I5
I4
tp390
a(I2
I6
tp391
a(I7
I1
tp392
a(I4
I5
tp393
ag372
a(I2
I3
tp394
a(I10
I1
tp395
a(I1
I0
tp396
a(I6
I5
tp397
a(I5
I3
tp398
a(I8
I3
tp399
a(I7
I0
tp400
a(I6
I8
tp401
a(I9
I2
tp402
a(I6
I1
tp403
a(I3
I1
tp404
a(I8
I8
tp405
a(I4
I3
tp406
a(I5
I2
tp407
a(I10
I2
tp408
atp409
Rp410
sg15
I12
sg29
g20
((lp411
(I1
I2
tp412
a(I11
I7
tp413
a(I3
I2
tp414
a(I2
I8
tp415
a(I9
I3
tp416
a(I1
I6
tp417
a(I5
I0
tp418
a(I0
I3
tp419
a(I0
I8
tp420
a(I4
I1
tp421
atp422
Rp423
sg13
((I10
I8
tp424
(I4
I6
tp425
(I11
I4
tp426
(I7
I8
tp427
tp428
sg14
I9
sbssg161
S'mild_roomset'
p429
sbsg161
g163
sg164
(dp430
g183
((lp431
F40.259999999998399
tp432
sg231
((lp433
F40.299999999999272
tp434
sg281
((lp435
F40.330000000001746
tp436
sg326
((lp437
F40.06000000000131
tp438
sg370
((lp439
F40.18999999999869
tp440
ssba(imeasure_core
ProblemSetSolution
p441
(dp442
g3
(imeasure_core
RoomSet
p443
(dp444
g6
(dp445
(iproblems
RoomID
p446
(dp447
g10
I11
sg11
(I10
I1
tp448
sg13
I7
sg14
I12
sg15
I13
sg16
I2405875930906139466
sb(imulti_robot_problem
MultiRobotState
p449
(dp450
g19
g20
((lp451
(I7
I3
tp452
a(I9
I1
tp453
a(I7
I1
tp454
a(I5
I6
tp455
a(I8
I11
tp456
a(I8
I0
tp457
a(I1
I4
tp458
a(I6
I2
tp459
a(I0
I7
tp460
ag448
a(I10
I3
tp461
a(I7
I2
tp462
a(I10
I4
tp463
a(I11
I7
tp464
a(I9
I0
tp465
a(I11
I5
tp466
a(I7
I4
tp467
a(I1
I5
tp468
a(I10
I2
tp469
a(I11
I6
tp470
a(I8
I4
tp471
atp472
Rp473
sg15
I13
sg29
g20
((lp474
(I12
I5
tp475
a(I10
I11
tp476
a(I8
I1
tp477
a(I7
I8
tp478
a(I8
I6
tp479
a(I6
I3
tp480
a(I2
I0
tp481
a(I2
I3
tp482
a(I5
I1
tp483
a(I10
I0
tp484
a(I3
I4
tp485
atp486
Rp487
sg13
((I10
I8
tp488
(I9
I2
tp489
(I4
I5
tp490
(I11
I8
tp491
(I1
I2
tp492
(I3
I1
tp493
(I0
I10
tp494
tp495
sg14
I12
sbs(iproblems
RoomID
p496
(dp497
g10
I11
sg11
(I7
I9
tp498
sg13
I6
sg14
I13
sg15
I10
sg16
I8744744311366254845
sb(imulti_robot_problem
MultiRobotState
p499
(dp500
g19
g20
((lp501
(I6
I9
tp502
a(I1
I3
tp503
a(I4
I9
tp504
a(I5
I6
tp505
a(I9
I8
tp506
a(I1
I8
tp507
a(I1
I0
tp508
ag498
a(I3
I4
tp509
a(I5
I8
tp510
a(I9
I7
tp511
atp512
Rp513
sg15
I10
sg29
g20
((lp514
(I0
I1
tp515
a(I7
I3
tp516
a(I9
I0
tp517
a(I1
I12
tp518
a(I4
I10
tp519
a(I5
I11
tp520
a(I9
I10
tp521
a(I7
I11
tp522
a(I3
I7
tp523
a(I0
I8
tp524
a(I9
I6
tp525
atp526
Rp527
sg13
((I0
I10
tp528
(I6
I3
tp529
(I4
I0
tp530
(I1
I6
tp531
(I7
I5
tp532
(I9
I9
tp533
tp534
sg14
I13
sbs(iproblems
RoomID
p535
(dp536
g10
I15
sg11
(I5
I8
tp537
sg13
I7
sg14
I13
sg15
I11
sg16
I8655808914197340073
sb(imulti_robot_problem
MultiRobotState
p538
(dp539
g19
g20
((lp540
(I5
I9
tp541
a(I6
I7
tp542
a(I6
I11
tp543
a(I1
I4
tp544
a(I0
I12
tp545
a(I0
I11
tp546
a(I7
I5
tp547
a(I1
I6
tp548
a(I0
I4
tp549
a(I5
I10
tp550
a(I3
I9
tp551
a(I4
I9
tp552
a(I10
I3
tp553
ag537
atp554
Rp555
sg15
I11
sg29
g20
((lp556
(I2
I7
tp557
a(I7
I3
tp558
a(I4
I6
tp559
a(I1
I12
tp560
a(I5
I6
tp561
a(I8
I5
tp562
a(I7
I7
tp563
a(I7
I9
tp564
a(I2
I0
tp565
a(I9
I4
tp566
a(I7
I10
tp567
a(I0
I8
tp568
a(I9
I6
tp569
a(I6
I5
tp570
a(I9
I7
tp571
atp572
Rp573
sg13
((I9
I11
tp574
(I8
I1
tp575
(I3
I4
tp576
(I8
I7
tp577
(I9
I1
tp578
(I2
I10
tp579
(I2
I12
tp580
tp581
sg14
I13
sbs(iproblems
RoomID
p582
(dp583
g10
I15
sg11
(I4
I8
tp584
sg13
I6
sg14
I13
sg15
I12
sg16
I4278205817407065157
sb(imulti_robot_problem
MultiRobotState
p585
(dp586
g19
g20
((lp587
(I11
I7
tp588
a(I2
I9
tp589
ag584
a(I5
I6
tp590
a(I2
I8
tp591
a(I6
I10
tp592
a(I3
I8
tp593
a(I11
I8
tp594
a(I3
I9
tp595
a(I1
I10
tp596
a(I1
I11
tp597
a(I7
I8
tp598
a(I2
I4
tp599
atp600
Rp601
sg15
I12
sg29
g20
((lp602
(I1
I2
tp603
a(I0
I1
tp604
a(I5
I4
tp605
a(I5
I7
tp606
a(I10
I4
tp607
a(I7
I1
tp608
a(I3
I1
tp609
a(I10
I5
tp610
a(I4
I7
tp611
a(I9
I9
tp612
a(I0
I10
tp613
a(I4
I3
tp614
a(I8
I12
tp615
a(I4
I1
tp616
a(I0
I2
tp617
atp618
Rp619
sg13
((I7
I10
tp620
(I6
I12
tp621
(I2
I0
tp622
(I9
I1
tp623
(I10
I3
tp624
(I4
I0
tp625
tp626
sg14
I13
sbs(iproblems
RoomID
p627
(dp628
g10
I15
sg11
(I3
I6
tp629
sg13
I7
sg14
I10
sg15
I13
sg16
I2796939073032698495
sb(imulti_robot_problem
MultiRobotState
p630
(dp631
g19
g20
((lp632
(I5
I9
tp633
a(I6
I9
tp634
a(I4
I6
tp635
a(I5
I0
tp636
a(I6
I6
tp637
a(I4
I5
tp638
a(I5
I4
tp639
a(I6
I7
tp640
a(I6
I2
tp641
a(I0
I5
tp642
a(I8
I7
tp643
a(I5
I1
tp644
a(I6
I4
tp645
a(I12
I9
tp646
a(I5
I8
tp647
a(I5
I3
tp648
a(I2
I7
tp649
a(I4
I9
tp650
a(I5
I5
tp651
a(I3
I1
tp652
a(I4
I8
tp653
a(I2
I0
tp654
a(I3
I9
tp655
a(I6
I5
tp656
ag629
a(I5
I7
tp657
a(I7
I8
tp658
atp659
Rp660
sg15
I13
sg29
g20
((lp661
(I1
I2
tp662
a(I8
I2
tp663
a(I2
I9
tp664
a(I12
I0
tp665
a(I4
I1
tp666
a(I12
I8
tp667
a(I6
I0
tp668
a(I9
I9
tp669
a(I2
I3
tp670
a(I9
I4
tp671
a(I1
I7
tp672
a(I0
I9
tp673
a(I7
I9
tp674
a(I3
I4
tp675
a(I3
I3
tp676
atp677
Rp678
sg13
((I10
I2
tp679
(I11
I8
tp680
(I12
I5
tp681
(I8
I9
tp682
(I10
I3
tp683
(I0
I3
tp684
(I11
I2
tp685
tp686
sg14
I10
sbssg161
S'heavy_roomset'
p687
sbsg161
g163
sg164
(dp688
g446
((lp689
F46.770000000000437
tp690
sg496
((lp691
F40.119999999998981
tp692
sg535
((lp693
F43.680000000000291
tp694
sg582
((lp695
F40.720000000001164
tp696
sg627
((lp697
F40.409999999999854
tp698
ssba(imeasure_core
ProblemSetSolution
p699
(dp700
g3
g4
sg161
S'AnytimeBest-d80_with_PowerHeuristic2'
p701
sg164
(dp702
g8
((lp703
(F0.43999999999869033
I10
tp704
aF40.049999999999272
tp705
sg44
((lp706
(F0.36000000000058208
I14
tp707
aF40.009999999998399
tp708
sg136
((lp709
(F0.18999999999869033
I49
tp710
a(F0.32999999999810825
I47
tp711
a(F0.40999999999985448
I45
tp712
a(F0.61000000000058208
I43
tp713
a(F1.1399999999994179
I41
tp714
a(F1.2700000000004366
I40
tp715
a(F2.4799999999995634
I39
tp716
a(F2.5099999999983993
I38
tp717
a(F3.3400000000001455
I37
tp718
a(F3.4700000000011642
I35
tp719
a(F4.819999999999709
I33
tp720
a(F6.6499999999978172
I31
tp721
a(F6.8999999999978172
I29
tp722
a(F7.0299999999988358
I27
tp723
a(F8.3999999999978172
I25
tp724
a(F12.950000000000728
I24
tp725
a(F13.079999999998108
I22
tp726
a(F13.720000000001164
I20
tp727
aF13.959999999999127
tp728
sg102
((lp729
(F1.6699999999982538
I9
tp730
aF40.069999999999709
tp731
sg71
((lp732
F40.010000000002037
tp733
ssba(imeasure_core
ProblemSetSolution
p734
(dp735
g3
g180
sg161
g701
sg164
(dp736
g183
((lp737
(F7.4099999999998545
I24
tp738
aF40.079999999998108
tp739
sg231
((lp740
F40.029999999998836
tp741
sg281
((lp742
(F1.4799999999995634
I28
tp743
aF40.05000000000291
tp744
sg326
((lp745
(F0.89999999999781721
I25
tp746
aF40.029999999998836
tp747
sg370
((lp748
F40.139999999999418
tp749
ssba(imeasure_core
ProblemSetSolution
p750
(dp751
g3
g443
sg161
g701
sg164
(dp752
g446
((lp753
F46.869999999998981
tp754
sg496
((lp755
(F12.380000000001019
I13
tp756
aF40.159999999999854
tp757
sg535
((lp758
F43.479999999999563
tp759
sg582
((lp760
(F22.980000000003201
I15
tp761
aF40.580000000001746
tp762
sg627
((lp763
F40.259999999998399
tp764
ssba(imeasure_core
ProblemSetSolution
p765
(dp766
g3
g4
sg161
S'AnytimeBest-d150_with_PowerHeuristic2'
p767
sg164
(dp768
g8
((lp769
(F0.4500000000007276
I10
tp770
aF40.05000000000291
tp771
sg44
((lp772
(F0.3599999999969441
I14
tp773
aF40.009999999998399
tp774
sg136
((lp775
(F0.18999999999869033
I49
tp776
a(F0.32999999999810825
I47
tp777
a(F0.40999999999985448
I45
tp778
a(F0.6099999999969441
I43
tp779
a(F1.1299999999973807
I41
tp780
a(F1.2699999999967986
I40
tp781
a(F2.4699999999975262
I39
tp782
a(F2.5099999999983993
I38
tp783
a(F3.3400000000001455
I37
tp784
a(F3.4699999999975262
I35
tp785
a(F4.8099999999976717
I33
tp786
a(F6.6299999999973807
I31
tp787
a(F6.8699999999989814
I29
tp788
a(F7.0099999999983993
I27
tp789
a(F8.3699999999989814
I25
tp790
a(F12.889999999999418
I24
tp791
a(F13.009999999998399
I22
tp792
a(F13.659999999999854
I20
tp793
aF13.909999999999854
tp794
sg102
((lp795
(F1.7099999999991269
I9
tp796
aF40.069999999999709
tp797
sg71
((lp798
(F9.9099999999998545
I144
tp799
aF40.010000000002037
tp800
ssba(imeasure_core
ProblemSetSolution
p801
(dp802
g3
g180
sg161
g767
sg164
(dp803
g183
((lp804
(F7.4399999999986903
I24
tp805
aF40.119999999998981
tp806
sg231
((lp807
F40.040000000000873
tp808
sg281
((lp809
(F1.4799999999995634
I28
tp810
aF40.099999999998545
tp811
sg326
((lp812
(F0.90999999999985448
I25
tp813
aF40.029999999998836
tp814
sg370
((lp815
F40.159999999999854
tp816
ssba(imeasure_core
ProblemSetSolution
p817
(dp818
g3
g443
sg161
g767
sg164
(dp819
g446
((lp820
F46.920000000001892
tp821
sg496
((lp822
(F12.31000000000131
I13
tp823
aF40.159999999999854
tp824
sg535
((lp825
F43.290000000000873
tp826
sg582
((lp827
(F22.93999999999869
I15
tp828
aF40.579999999998108
tp829
sg627
((lp830
F41.069999999999709
tp831
ssba(imeasure_core
ProblemSetSolution
p832
(dp833
g3
g4
sg161
S'AnytimeBest-d250_with_PowerHeuristic2'
p834
sg164
(dp835
g8
((lp836
(F0.44000000000232831
I10
tp837
aF40.05000000000291
tp838
sg44
((lp839
(F0.3599999999969441
I14
tp840
aF40.059999999997672
tp841
sg136
((lp842
(F0.18999999999869033
I49
tp843
a(F0.32999999999810825
I47
tp844
a(F0.40999999999985448
I45
tp845
a(F0.61000000000058208
I43
tp846
a(F1.1399999999994179
I41
tp847
a(F1.2700000000004366
I40
tp848
a(F2.4899999999979627
I39
tp849
a(F2.5200000000004366
I38
tp850
a(F3.3499999999985448
I37
tp851
a(F3.4899999999979627
I35
tp852
a(F4.8400000000001455
I33
tp853
a(F6.6599999999998545
I31
tp854
a(F6.8999999999978172
I29
tp855
a(F7.0399999999972351
I27
tp856
a(F8.3999999999978172
I25
tp857
a(F12.969999999997526
I24
tp858
a(F13.099999999998545
I22
tp859
a(F13.739999999997963
I20
tp860
aF13.989999999997963
tp861
sg102
((lp862
(F1.6699999999982538
I9
tp863
aF40.069999999999709
tp864
sg71
((lp865
(F9.9400000000023283
I144
tp866
aF40.010000000002037
tp867
ssba(imeasure_core
ProblemSetSolution
p868
(dp869
g3
g180
sg161
g834
sg164
(dp870
g183
((lp871
(F7.4699999999975262
I24
tp872
aF40.110000000000582
tp873
sg231
((lp874
(F22.219999999997526
I171
tp875
aF40.059999999997672
tp876
sg281
((lp877
(F1.4799999999995634
I28
tp878
aF40.100000000002183
tp879
sg326
((lp880
(F0.90999999999985448
I25
tp881
aF40.029999999998836
tp882
sg370
((lp883
F40.149999999997817
tp884
ssba(imeasure_core
ProblemSetSolution
p885
(dp886
g3
g443
sg161
g834
sg164
(dp887
g446
((lp888
F46.780000000002474
tp889
sg496
((lp890
(F12.430000000000291
I13
tp891
aF40.159999999999854
tp892
sg535
((lp893
F43.399999999997817
tp894
sg582
((lp895
(F22.990000000001601
I15
tp896
aF40.510000000002037
tp897
sg627
((lp898
F40.270000000000437
tp899
ssba(imeasure_core
ProblemSetSolution
p900
(dp901
g3
g4
sg161
S'AnytimeBest-d400_with_PowerHeuristic2'
p902
sg164
(dp903
g8
((lp904
(F0.43000000000029104
I10
tp905
aF40.049999999999272
tp906
sg44
((lp907
(F0.36000000000058208
I14
tp908
aF40.020000000000437
tp909
sg136
((lp910
(F0.2000000000007276
I49
tp911
a(F0.34000000000014552
I47
tp912
a(F0.41999999999825377
I45
tp913
a(F0.61999999999898137
I43
tp914
a(F1.1599999999998545
I41
tp915
a(F1.2900000000008731
I40
tp916
a(F2.5200000000004366
I39
tp917
a(F2.5499999999992724
I38
tp918
a(F3.3899999999994179
I37
tp919
a(F3.5299999999988358
I35
tp920
a(F4.8999999999978172
I33
tp921
a(F6.7399999999979627
I31
tp922
a(F6.9899999999979627
I29
tp923
a(F7.1300000000010186
I27
tp924
a(F8.5
I25
tp925
a(F13.059999999997672
I24
tp926
a(F13.18999999999869
I22
tp927
a(F13.829999999998108
I20
tp928
aF14.079999999998108
tp929
sg102
((lp930
(F1.7000000000007276
I9
tp931
aF40.069999999999709
tp932
sg71
((lp933
(F9.9900000000016007
I144
tp934
aF40.010000000002037
tp935
ssba(imeasure_core
ProblemSetSolution
p936
(dp937
g3
g180
sg161
g902
sg164
(dp938
g183
((lp939
(F7.4099999999998545
I24
tp940
aF40.210000000002765
tp941
sg231
((lp942
(F22.229999999999563
I171
tp943
aF40.119999999998981
tp944
sg281
((lp945
(F1.4799999999995634
I28
tp946
aF40.110000000000582
tp947
sg326
((lp948
(F0.89999999999781721
I25
tp949
aF40.059999999997672
tp950
sg370
((lp951
F40.150000000001455
tp952
ssba(imeasure_core
ProblemSetSolution
p953
(dp954
g3
g443
sg161
g902
sg164
(dp955
g446
((lp956
F46.620000000002619
tp957
sg496
((lp958
(F12.369999999998981
I13
tp959
aF40.169999999998254
tp960
sg535
((lp961
F43.450000000000728
tp962
sg582
((lp963
(F22.970000000001164
I15
tp964
aF40.489999999997963
tp965
sg627
((lp966
F40.710000000002765
tp967
ssba(imeasure_core
ProblemSetSolution
p968
(dp969
g3
g4
sg161
S'AnytimeBest-d10_with_LinearHeuristic'
p970
sg164
(dp971
g8
((lp972
F40.139999999999418
tp973
sg44
((lp974
F40.180000000000291
tp975
sg136
((lp976
F0.77000000000043656
tp977
sg102
((lp978
(F1.930000000000291
I6
tp979
aF40.450000000000728
tp980
sg71
((lp981
F40.049999999999272
tp982
ssba(imeasure_core
ProblemSetSolution
p983
(dp984
g3
g180
sg161
g970
sg164
(dp985
g183
((lp986
F40.110000000000582
tp987
sg231
((lp988
F40.119999999998981
tp989
sg281
((lp990
F40.150000000001455
tp991
sg326
((lp992
F40.059999999997672
tp993
sg370
((lp994
F40.110000000000582
tp995
ssba(imeasure_core
ProblemSetSolution
p996
(dp997
g3
g443
sg161
g970
sg164
(dp998
g446
((lp999
F43.960000000002765
tp1000
sg496
((lp1001
(F15.019999999996799
I8
tp1002
aF40.840000000000146
tp1003
sg535
((lp1004
F47.779999999998836
tp1005
sg582
((lp1006
F40.729999999999563
tp1007
sg627
((lp1008
F51.419999999998254
tp1009
ssba(imeasure_core
ProblemSetSolution
p1010
(dp1011
g3
g4
sg161
S'AnytimeBest-d80_with_LinearHeuristic'
p1012
sg164
(dp1013
g8
((lp1014
F40.090000000000146
tp1015
sg44
((lp1016
F40.06000000000131
tp1017
sg136
((lp1018
(F0.029999999998835847
I22
tp1019
a(F0.22999999999956344
I20
tp1020
aF11.549999999999272
tp1021
sg102
((lp1022
(F1.930000000000291
I6
tp1023
aF40.180000000000291
tp1024
sg71
((lp1025
(F1.7000000000007276
I58
tp1026
a(F17.81000000000131
I56
tp1027
a(F33.979999999999563
I55
tp1028
aF40.069999999999709
tp1029
ssba(imeasure_core
ProblemSetSolution
p1030
(dp1031
g3
g180
sg161
g1012
sg164
(dp1032
g183
((lp1033
F40.029999999998836
tp1034
sg231
((lp1035
F40.25
tp1036
sg281
((lp1037
F40.06000000000131
tp1038
sg326
((lp1039
F40.099999999998545
tp1040
sg370
((lp1041
F40.040000000000873
tp1042
ssba(imeasure_core
ProblemSetSolution
p1043
(dp1044
g3
g443
sg161
g1012
sg164
(dp1045
g446
((lp1046
F44.559999999997672
tp1047
sg496
((lp1048
(F15.130000000001019
I8
tp1049
aF41.170000000001892
tp1050
sg535
((lp1051
F47.68999999999869
tp1052
sg582
((lp1053
F42.360000000000582
tp1054
sg627
((lp1055
F51.580000000001746
tp1056
ssba(imeasure_core
ProblemSetSolution
p1057
(dp1058
g3
g4
sg161
S'AnytimeBest-d150_with_LinearHeuristic'
p1059
sg164
(dp1060
g8
((lp1061
F40.139999999999418
tp1062
sg44
((lp1063
F40.059999999997672
tp1064
sg136
((lp1065
(F0.029999999998835847
I22
tp1066
a(F0.22999999999956344
I20
tp1067
aF11.619999999998981
tp1068
sg102
((lp1069
(F1.9399999999986903
I6
tp1070
aF40.369999999998981
tp1071
sg71
((lp1072
(F1.7000000000007276
I58
tp1073
a(F17.730000000003201
I56
tp1074
a(F33.75
I55
tp1075
aF40.05000000000291
tp1076
ssba(imeasure_core
ProblemSetSolution
p1077
(dp1078
g3
g180
sg161
g1059
sg164
(dp1079
g183
((lp1080
F40.029999999998836
tp1081
sg231
((lp1082
F40.06000000000131
tp1083
sg281
((lp1084
(F29.5
I146
tp1085
aF40.079999999998108
tp1086
sg326
((lp1087
F40.209999999999127
tp1088
sg370
((lp1089
F40.030000000002474
tp1090
ssba(imeasure_core
ProblemSetSolution
p1091
(dp1092
g3
g443
sg161
g1059
sg164
(dp1093
g446
((lp1094
F44.510000000002037
tp1095
sg496
((lp1096
(F14.959999999999127
I8
tp1097
aF40.859999999996944
tp1098
sg535
((lp1099
F48.240000000001601
tp1100
sg582
((lp1101
F40.75
tp1102
sg627
((lp1103
F51.840000000000146
tp1104
ssba(imeasure_core
ProblemSetSolution
p1105
(dp1106
g3
g4
sg161
S'AnytimeBest-d250_with_LinearHeuristic'
p1107
sg164
(dp1108
g8
((lp1109
F40.18999999999869
tp1110
sg44
((lp1111
F40.06000000000131
tp1112
sg136
((lp1113
(F0.030000000002473826
I22
tp1114
a(F0.23000000000320142
I20
tp1115
aF11.600000000002183
tp1116
sg102
((lp1117
(F1.9500000000007276
I6
tp1118
aF40.369999999998981
tp1119
sg71
((lp1120
(F1.7099999999991269
I58
tp1121
a(F17.68999999999869
I56
tp1122
a(F33.540000000000873
I55
tp1123
aF40.049999999999272
tp1124
ssba(imeasure_core
ProblemSetSolution
p1125
(dp1126
g3
g180
sg161
g1107
sg164
(dp1127
g183
((lp1128
F40.040000000000873
tp1129
sg231
((lp1130
F40.06000000000131
tp1131
sg281
((lp1132
(F29.389999999999418
I146
tp1133
aF40.659999999999854
tp1134
sg326
((lp1135
F40.049999999999272
tp1136
sg370
((lp1137
F40.049999999999272
tp1138
ssba(imeasure_core
ProblemSetSolution
p1139
(dp1140
g3
g443
sg161
g1107
sg164
(dp1141
g446
((lp1142
F44.040000000000873
tp1143
sg496
((lp1144
(F15.049999999999272
I8
tp1145
aF40.960000000002765
tp1146
sg535
((lp1147
F47.819999999999709
tp1148
sg582
((lp1149
F40.359999999996944
tp1150
sg627
((lp1151
F51.55000000000291
tp1152
ssba(imeasure_core
ProblemSetSolution
p1153
(dp1154
g3
g4
sg161
S'AnytimeBest-d400_with_LinearHeuristic'
p1155
sg164
(dp1156
g8
((lp1157
F40.400000000001455
tp1158
sg44
((lp1159
F40.069999999999709
tp1160
sg136
((lp1161
(F0.020000000000436557
I22
tp1162
a(F0.22999999999956344
I20
tp1163
aF11.610000000000582
tp1164
sg102
((lp1165
(F1.930000000000291
I6
tp1166
aF40.239999999997963
tp1167
sg71
((lp1168
(F1.7099999999991269
I58
tp1169
a(F17.809999999997672
I56
tp1170
a(F33.879999999997381
I55
tp1171
aF40.090000000000146
tp1172
ssba(imeasure_core
ProblemSetSolution
p1173
(dp1174
g3
g180
sg161
g1155
sg164
(dp1175
g183
((lp1176
F40.040000000000873
tp1177
sg231
((lp1178
F40.340000000000146
tp1179
sg281
((lp1180
(F29.599999999998545
I146
tp1181
aF40.079999999998108
tp1182
sg326
((lp1183
F40.05000000000291
tp1184
sg370
((lp1185
F40.049999999999272
tp1186
ssba(imeasure_core
ProblemSetSolution
p1187
(dp1188
g3
g443
sg161
g1155
sg164
(dp1189
g446
((lp1190
F44.459999999999127
tp1191
sg496
((lp1192
(F14.930000000000291
I8
tp1193
aF40.740000000001601
tp1194
sg535
((lp1195
F47.959999999999127
tp1196
sg582
((lp1197
F42.229999999999563
tp1198
sg627
((lp1199
F51.370000000002619
tp1200
ssba.