(lp0
(imeasure_core
ProblemSetSolution
p1
(dp2
S'roomset'
p3
(imeasure_core
RoomSet
p4
(dp5
S'rooms'
p6
(dp7
(iproblems
RoomID
p8
(dp9
S'dusts'
p10
I6
sS'obstacles'
p11
(I5
I1
tp12
sS'robots'
p13
I4
sS'height'
p14
I9
sS'width'
p15
I10
sS'seed'
p16
I2405875930906139466
sb(imulti_robot_problem
MultiRobotState
p17
(dp18
S'obstacle_locations'
p19
c__builtin__
frozenset
p20
((lp21
(I7
I0
tp22
a(I7
I1
tp23
ag12
a(I6
I1
tp24
a(I6
I0
tp25
a(I7
I2
tp26
atp27
Rp28
sg15
I10
sS'dirt_locations'
p29
g20
((lp30
(I7
I3
tp31
a(I2
I1
tp32
a(I6
I4
tp33
a(I5
I6
tp34
a(I5
I2
tp35
a(I0
I7
tp36
atp37
Rp38
sg13
((I7
I6
tp39
(I3
I3
tp40
(I8
I6
tp41
(I0
I2
tp42
tp43
sg14
I9
sbs(iproblems
RoomID
p44
(dp45
g10
I6
sg11
(I6
I7
tp46
sg13
I4
sg14
I10
sg15
I7
sg16
I8744744311366254845
sb(imulti_robot_problem
MultiRobotState
p47
(dp48
g19
g20
((lp49
(I0
I6
tp50
ag46
a(I4
I6
tp51
a(I3
I7
tp52
a(I5
I7
tp53
a(I1
I9
tp54
atp55
Rp56
sg15
I7
sg29
g20
((lp57
(I2
I7
tp58
a(I0
I1
tp59
a(I5
I4
tp60
a(I6
I0
tp61
a(I5
I8
tp62
a(I5
I3
tp63
atp64
Rp65
sg13
((I0
I8
tp66
(I4
I2
tp67
(I3
I0
tp68
(I1
I4
tp69
tp70
sg14
I10
sbs(iproblems
RoomID
p71
(dp72
g10
I8
sg11
(I5
I3
tp73
sg13
I3
sg14
I7
sg15
I7
sg16
I7325839828077136048
sb(imulti_robot_problem
MultiRobotState
p74
(dp75
g19
g20
((lp76
(I6
I4
tp77
a(I5
I4
tp78
a(I5
I5
tp79
a(I6
I6
tp80
a(I3
I1
tp81
a(I6
I0
tp82
a(I2
I0
tp83
a(I0
I4
tp84
ag73
atp85
Rp86
sg15
I7
sg29
g20
((lp87
(I0
I6
tp88
a(I3
I0
tp89
a(I2
I4
tp90
a(I1
I5
tp91
a(I4
I3
tp92
a(I2
I2
tp93
a(I1
I1
tp94
a(I3
I5
tp95
atp96
Rp97
sg13
((I1
I0
tp98
(I3
I3
tp99
(I6
I2
tp100
tp101
sg14
I7
sbs(iproblems
RoomID
p102
(dp103
g10
I6
sg11
(I4
I6
tp104
sg13
I1
sg14
I8
sg15
I7
sg16
I3537054308274871603
sb(imulti_robot_problem
MultiRobotState
p105
(dp106
g19
g20
((lp107
(I4
I7
tp108
ag104
a(I4
I5
tp109
a(I2
I5
tp110
a(I3
I5
tp111
a(I6
I0
tp112
a(I2
I4
tp113
atp114
Rp115
sg15
I7
sg29
g20
((lp116
(I0
I6
tp117
a(I6
I2
tp118
a(I5
I6
tp119
a(I4
I1
tp120
a(I1
I1
tp121
a(I5
I3
tp122
atp123
Rp124
sg13
((I0
I3
tp125
tp126
sg14
I8
sbs(iproblems
RoomID
p127
(dp128
g10
I10
sg11
(I4
I7
tp129
sg13
I5
sg14
I10
sg15
I8
sg16
I8655808914197340073
sb(imulti_robot_problem
MultiRobotState
p130
(dp131
g19
g20
((lp132
(I2
I7
tp133
ag129
a(I4
I8
tp134
a(I6
I3
tp135
a(I7
I5
tp136
a(I3
I7
tp137
a(I1
I0
tp138
a(I5
I3
tp139
atp140
Rp141
sg15
I8
sg29
g20
((lp142
(I7
I3
tp143
a(I5
I4
tp144
a(I7
I0
tp145
a(I5
I7
tp146
a(I1
I5
tp147
a(I1
I9
tp148
a(I3
I6
tp149
a(I1
I7
tp150
a(I3
I4
tp151
a(I5
I8
tp152
atp153
Rp154
sg13
((I3
I8
tp155
(I7
I9
tp156
(I6
I1
tp157
(I2
I3
tp158
(I5
I5
tp159
tp160
sg14
I10
sbssS'name'
p161
S'easy_roomset'
p162
sbsg161
S"AnytimeBeam-w20-gf(2, 'lin')_with_PowerHeuristic2"
p163
sS'solutions'
p164
(dp165
g8
((lp166
(F0.47999999999956344
I10
tp167
aF40.0
tp168
sg44
((lp169
(F0.76000000000021828
I14
tp170
aF40.049999999999272
tp171
sg71
((lp172
(F8.2800000000006548
I144
tp173
aF40.110000000000582
tp174
sg102
((lp175
(F0.11000000000058208
I49
tp176
a(F0.31999999999970896
I47
tp177
a(F0.52999999999883585
I45
tp178
a(F0.7999999999992724
I43
tp179
a(F1.2299999999995634
I41
tp180
a(F1.6499999999996362
I40
tp181
a(F2.6499999999996362
I39
tp182
a(F3.5399999999990541
I38
tp183
a(F4.7899999999990541
I37
tp184
a(F5.9499999999989086
I35
tp185
a(F7.5799999999999272
I33
tp186
a(F9.9099999999998545
I31
tp187
a(F11.860000000000582
I29
tp188
a(F13.409999999999854
I27
tp189
a(F15.3799999999992
I25
tp190
a(F19.690000000000509
I24
tp191
a(F23.559999999999491
I22
tp192
a(F26.850000000000364
I20
tp193
aF40.0
tp194
sg127
((lp195
(F3.1000000000003638
I9
tp196
aF40.770000000000437
tp197
ssba(imeasure_core
ProblemSetSolution
p198
(dp199
g3
(imeasure_core
RoomSet
p200
(dp201
g6
(dp202
(iproblems
RoomID
p203
(dp204
g10
I6
sg11
(I1
I8
tp205
sg13
I4
sg14
I11
sg15
I12
sg16
I2405875930906139466
sb(imulti_robot_problem
MultiRobotState
p206
(dp207
g19
g20
((lp208
(I6
I4
tp209
a(I4
I6
tp210
a(I8
I2
tp211
a(I6
I6
tp212
a(I2
I8
tp213
a(I8
I0
tp214
a(I5
I5
tp215
a(I9
I10
tp216
a(I6
I2
tp217
a(I2
I3
tp218
a(I3
I7
tp219
a(I6
I5
tp220
a(I5
I3
tp221
a(I7
I0
tp222
a(I3
I3
tp223
a(I2
I9
tp224
a(I11
I5
tp225
a(I8
I1
tp226
a(I6
I1
tp227
a(I3
I1
tp228
a(I6
I3
tp229
a(I2
I0
tp230
ag205
a(I7
I5
tp231
a(I3
I6
tp232
a(I4
I3
tp233
a(I3
I4
tp234
atp235
Rp236
sg15
I12
sg29
g20
((lp237
(I9
I4
tp238
a(I7
I1
tp239
a(I0
I9
tp240
a(I9
I3
tp241
a(I7
I7
tp242
a(I2
I1
tp243
atp244
Rp245
sg13
((I9
I7
tp246
(I4
I4
tp247
(I10
I8
tp248
(I0
I2
tp249
tp250
sg14
I11
sbs(iproblems
RoomID
p251
(dp252
g10
I10
sg11
(I0
I5
tp253
sg13
I4
sg14
I12
sg15
I10
sg16
I8655808914197340073
sb(imulti_robot_problem
MultiRobotState
p254
(dp255
g19
g20
((lp256
(I5
I9
tp257
a(I5
I4
tp258
a(I5
I7
tp259
a(I6
I6
tp260
a(I4
I8
tp261
a(I8
I0
tp262
a(I0
I7
tp263
a(I7
I5
tp264
a(I2
I3
tp265
a(I1
I4
tp266
a(I6
I8
tp267
a(I1
I11
tp268
a(I9
I6
tp269
a(I5
I8
tp270
a(I4
I6
tp271
a(I3
I8
tp272
a(I6
I7
tp273
a(I5
I5
tp274
a(I3
I4
tp275
a(I4
I4
tp276
a(I6
I3
tp277
a(I2
I0
tp278
a(I6
I5
tp279
ag253
a(I7
I8
tp280
atp281
Rp282
sg15
I10
sg29
g20
((lp283
(I6
I9
tp284
a(I2
I9
tp285
a(I2
I11
tp286
a(I9
I0
tp287
a(I7
I7
tp288
a(I8
I3
tp289
a(I1
I7
tp290
a(I8
I6
tp291
a(I8
I4
tp292
a(I3
I5
tp293
atp294
Rp295
sg13
((I4
I9
tp296
(I8
I11
tp297
(I7
I1
tp298
(I3
I3
tp299
tp300
sg14
I12
sbs(iproblems
RoomID
p301
(dp302
g10
I6
sg11
(I3
I3
tp303
sg13
I4
sg14
I12
sg15
I12
sg16
I7193062864237573168
sb(imulti_robot_problem
MultiRobotState
p304
(dp305
g19
g20
((lp306
(I6
I4
tp307
a(I5
I4
tp308
a(I1
I3
tp309
a(I6
I6
tp310
a(I7
I1
tp311
a(I9
I3
tp312
a(I0
I7
tp313
a(I1
I6
tp314
a(I2
I5
tp315
a(I0
I8
tp316
a(I10
I3
tp317
a(I8
I3
tp318
a(I3
I1
tp319
ag303
a(I5
I7
tp320
a(I11
I3
tp321
a(I7
I4
tp322
a(I0
I9
tp323
a(I2
I3
tp324
a(I8
I4
tp325
a(I3
I4
tp326
a(I2
I4
tp327
a(I9
I7
tp328
atp329
Rp330
sg15
I12
sg29
g20
((lp331
(I2
I0
tp332
a(I2
I6
tp333
a(I6
I8
tp334
a(I0
I6
tp335
a(I4
I4
tp336
a(I7
I7
tp337
atp338
Rp339
sg13
((I11
I9
tp340
(I11
I2
tp341
(I4
I11
tp342
(I3
I6
tp343
tp344
sg14
I12
sbs(iproblems
RoomID
p345
(dp346
g10
I10
sg11
(I11
I0
tp347
sg13
I4
sg14
I9
sg15
I12
sg16
I2796939073032698495
sb(imulti_robot_problem
MultiRobotState
p348
(dp349
g19
g20
((lp350
(I7
I3
tp351
a(I5
I7
tp352
a(I9
I1
tp353
a(I6
I6
tp354
a(I8
I0
tp355
a(I7
I7
tp356
a(I5
I8
tp357
a(I3
I3
tp358
a(I8
I1
tp359
a(I4
I8
tp360
a(I6
I3
tp361
a(I7
I2
tp362
a(I3
I6
tp363
a(I6
I4
tp364
a(I5
I4
tp365
a(I2
I6
tp366
a(I7
I1
tp367
a(I4
I5
tp368
ag347
a(I2
I3
tp369
a(I10
I1
tp370
a(I1
I0
tp371
a(I6
I5
tp372
a(I5
I3
tp373
a(I8
I3
tp374
a(I7
I0
tp375
a(I6
I8
tp376
a(I9
I2
tp377
a(I6
I1
tp378
a(I3
I1
tp379
a(I8
I8
tp380
a(I4
I3
tp381
a(I5
I2
tp382
a(I10
I2
tp383
atp384
Rp385
sg15
I12
sg29
g20
((lp386
(I1
I2
tp387
a(I11
I7
tp388
a(I3
I2
tp389
a(I2
I8
tp390
a(I9
I3
tp391
a(I1
I6
tp392
a(I5
I0
tp393
a(I0
I3
tp394
a(I0
I8
tp395
a(I4
I1
tp396
atp397
Rp398
sg13
((I10
I8
tp399
(I4
I6
tp400
(I11
I4
tp401
(I7
I8
tp402
tp403
sg14
I9
sbs(iproblems
RoomID
p404
(dp405
g10
I10
sg11
(I3
I6
tp406
sg13
I4
sg14
I12
sg15
I11
sg16
I4278205817407065157
sb(imulti_robot_problem
MultiRobotState
p407
(dp408
g19
g20
((lp409
(I0
I1
tp410
a(I4
I7
tp411
a(I5
I6
tp412
a(I2
I8
tp413
a(I0
I10
tp414
a(I3
I7
tp415
a(I7
I11
tp416
a(I3
I3
tp417
a(I2
I7
tp418
a(I5
I3
tp419
a(I6
I7
tp420
a(I4
I6
tp421
a(I10
I7
tp422
a(I4
I4
tp423
a(I3
I8
tp424
a(I4
I5
tp425
ag406
a(I1
I10
tp426
a(I3
I5
tp427
a(I1
I9
tp428
atp429
Rp430
sg15
I11
sg29
g20
((lp431
(I1
I2
tp432
a(I8
I1
tp433
a(I9
I2
tp434
a(I6
I1
tp435
a(I5
I7
tp436
a(I8
I9
tp437
a(I3
I0
tp438
a(I9
I4
tp439
a(I0
I2
tp440
a(I4
I0
tp441
atp442
Rp443
sg13
((I6
I10
tp444
(I5
I11
tp445
(I2
I0
tp446
(I9
I1
tp447
tp448
sg14
I12
sbssg161
S'mild_roomset'
p449
sbsg161
g163
sg164
(dp450
g203
((lp451
(F8.3100000000013097
I32
tp452
aF40.010000000000218
tp453
sg251
((lp454
(F21.130000000001019
I171
tp455
aF40.0
tp456
sg301
((lp457
(F3.0500000000010914
I25
tp458
aF40.140000000001237
tp459
sg345
((lp460
F40.069999999999709
tp461
sg404
((lp462
(F2.8400000000001455
I28
tp463
aF40.100000000000364
tp464
ssba(imeasure_core
ProblemSetSolution
p465
(dp466
g3
(imeasure_core
RoomSet
p467
(dp468
g6
(dp469
(iproblems
RoomID
p470
(dp471
g10
I11
sg11
(I10
I1
tp472
sg13
I7
sg14
I12
sg15
I13
sg16
I2405875930906139466
sb(imulti_robot_problem
MultiRobotState
p473
(dp474
g19
g20
((lp475
(I7
I3
tp476
a(I9
I1
tp477
a(I7
I1
tp478
a(I5
I6
tp479
a(I8
I11
tp480
a(I8
I0
tp481
a(I1
I4
tp482
a(I6
I2
tp483
a(I0
I7
tp484
ag472
a(I10
I3
tp485
a(I7
I2
tp486
a(I10
I4
tp487
a(I11
I7
tp488
a(I9
I0
tp489
a(I11
I5
tp490
a(I7
I4
tp491
a(I1
I5
tp492
a(I10
I2
tp493
a(I11
I6
tp494
a(I8
I4
tp495
atp496
Rp497
sg15
I13
sg29
g20
((lp498
(I12
I5
tp499
a(I10
I11
tp500
a(I8
I1
tp501
a(I7
I8
tp502
a(I8
I6
tp503
a(I6
I3
tp504
a(I2
I0
tp505
a(I2
I3
tp506
a(I5
I1
tp507
a(I10
I0
tp508
a(I3
I4
tp509
atp510
Rp511
sg13
((I10
I8
tp512
(I9
I2
tp513
(I4
I5
tp514
(I11
I8
tp515
(I1
I2
tp516
(I3
I1
tp517
(I0
I10
tp518
tp519
sg14
I12
sbs(iproblems
RoomID
p520
(dp521
g10
I11
sg11
(I7
I9
tp522
sg13
I6
sg14
I13
sg15
I10
sg16
I8744744311366254845
sb(imulti_robot_problem
MultiRobotState
p523
(dp524
g19
g20
((lp525
(I6
I9
tp526
a(I1
I3
tp527
a(I4
I9
tp528
a(I5
I6
tp529
a(I9
I8
tp530
a(I1
I8
tp531
a(I1
I0
tp532
ag522
a(I3
I4
tp533
a(I5
I8
tp534
a(I9
I7
tp535
atp536
Rp537
sg15
I10
sg29
g20
((lp538
(I0
I1
tp539
a(I7
I3
tp540
a(I9
I0
tp541
a(I1
I12
tp542
a(I4
I10
tp543
a(I5
I11
tp544
a(I9
I10
tp545
a(I7
I11
tp546
a(I3
I7
tp547
a(I0
I8
tp548
a(I9
I6
tp549
atp550
Rp551
sg13
((I0
I10
tp552
(I6
I3
tp553
(I4
I0
tp554
(I1
I6
tp555
(I7
I5
tp556
(I9
I9
tp557
tp558
sg14
I13
sbs(iproblems
RoomID
p559
(dp560
g10
I15
sg11
(I3
I6
tp561
sg13
I7
sg14
I10
sg15
I13
sg16
I2796939073032698495
sb(imulti_robot_problem
MultiRobotState
p562
(dp563
g19
g20
((lp564
(I5
I9
tp565
a(I6
I9
tp566
a(I4
I6
tp567
a(I5
I0
tp568
a(I6
I6
tp569
a(I4
I5
tp570
a(I5
I4
tp571
a(I6
I7
tp572
a(I6
I2
tp573
a(I0
I5
tp574
a(I8
I7
tp575
a(I5
I1
tp576
a(I6
I4
tp577
a(I12
I9
tp578
a(I5
I8
tp579
a(I5
I3
tp580
a(I2
I7
tp581
a(I4
I9
tp582
a(I5
I5
tp583
a(I3
I1
tp584
a(I4
I8
tp585
a(I2
I0
tp586
a(I3
I9
tp587
a(I6
I5
tp588
ag561
a(I5
I7
tp589
a(I7
I8
tp590
atp591
Rp592
sg15
I13
sg29
g20
((lp593
(I1
I2
tp594
a(I8
I2
tp595
a(I2
I9
tp596
a(I12
I0
tp597
a(I4
I1
tp598
a(I12
I8
tp599
a(I6
I0
tp600
a(I9
I9
tp601
a(I2
I3
tp602
a(I9
I4
tp603
a(I1
I7
tp604
a(I0
I9
tp605
a(I7
I9
tp606
a(I3
I4
tp607
a(I3
I3
tp608
atp609
Rp610
sg13
((I10
I2
tp611
(I11
I8
tp612
(I12
I5
tp613
(I8
I9
tp614
(I10
I3
tp615
(I0
I3
tp616
(I11
I2
tp617
tp618
sg14
I10
sbs(iproblems
RoomID
p619
(dp620
g10
I15
sg11
(I4
I8
tp621
sg13
I6
sg14
I13
sg15
I12
sg16
I4278205817407065157
sb(imulti_robot_problem
MultiRobotState
p622
(dp623
g19
g20
((lp624
(I11
I7
tp625
a(I2
I9
tp626
ag621
a(I5
I6
tp627
a(I2
I8
tp628
a(I6
I10
tp629
a(I3
I8
tp630
a(I11
I8
tp631
a(I3
I9
tp632
a(I1
I10
tp633
a(I1
I11
tp634
a(I7
I8
tp635
a(I2
I4
tp636
atp637
Rp638
sg15
I12
sg29
g20
((lp639
(I1
I2
tp640
a(I0
I1
tp641
a(I5
I4
tp642
a(I5
I7
tp643
a(I10
I4
tp644
a(I7
I1
tp645
a(I3
I1
tp646
a(I10
I5
tp647
a(I4
I7
tp648
a(I9
I9
tp649
a(I0
I10
tp650
a(I4
I3
tp651
a(I8
I12
tp652
a(I4
I1
tp653
a(I0
I2
tp654
atp655
Rp656
sg13
((I7
I10
tp657
(I6
I12
tp658
(I2
I0
tp659
(I9
I1
tp660
(I10
I3
tp661
(I4
I0
tp662
tp663
sg14
I13
sbs(iproblems
RoomID
p664
(dp665
g10
I15
sg11
(I5
I8
tp666
sg13
I7
sg14
I13
sg15
I11
sg16
I8655808914197340073
sb(imulti_robot_problem
MultiRobotState
p667
(dp668
g19
g20
((lp669
(I5
I9
tp670
a(I6
I7
tp671
a(I6
I11
tp672
a(I1
I4
tp673
a(I0
I12
tp674
a(I0
I11
tp675
a(I7
I5
tp676
a(I1
I6
tp677
a(I0
I4
tp678
a(I5
I10
tp679
a(I3
I9
tp680
a(I4
I9
tp681
a(I10
I3
tp682
ag666
atp683
Rp684
sg15
I11
sg29
g20
((lp685
(I2
I7
tp686
a(I7
I3
tp687
a(I4
I6
tp688
a(I1
I12
tp689
a(I5
I6
tp690
a(I8
I5
tp691
a(I7
I7
tp692
a(I7
I9
tp693
a(I2
I0
tp694
a(I9
I4
tp695
a(I7
I10
tp696
a(I0
I8
tp697
a(I9
I6
tp698
a(I6
I5
tp699
a(I9
I7
tp700
atp701
Rp702
sg13
((I9
I11
tp703
(I8
I1
tp704
(I3
I4
tp705
(I8
I7
tp706
(I9
I1
tp707
(I2
I10
tp708
(I2
I12
tp709
tp710
sg14
I13
sbssg161
S'heavy_roomset'
p711
sbsg161
g163
sg164
(dp712
g470
((lp713
F42.109999999998763
tp714
sg520
((lp715
(F17.460000000000946
I13
tp716
aF41.659999999999854
tp717
sg559
((lp718
F40.340000000000146
tp719
sg664
((lp720
F42.389999999999418
tp721
sg619
((lp722
(F29.450000000000728
I15
tp723
aF40.020000000000437
tp724
ssba(imeasure_core
ProblemSetSolution
p725
(dp726
g3
g4
sg161
S"AnytimeBeam-w20-gf(4, 'lin')_with_PowerHeuristic2"
p727
sg164
(dp728
g8
((lp729
(F0.46000000000094587
I10
tp730
aF40.130000000001019
tp731
sg44
((lp732
(F1.0199999999986176
I14
tp733
aF40.090000000000146
tp734
sg71
((lp735
(F9.2199999999993452
I144
tp736
aF40.029999999998836
tp737
sg102
((lp738
(F0.12000000000080036
I49
tp739
a(F0.32999999999992724
I47
tp740
a(F0.54000000000087311
I45
tp741
a(F0.81000000000130967
I43
tp742
a(F1.2399999999997817
I41
tp743
a(F1.6599999999998545
I40
tp744
a(F2.6599999999998545
I39
tp745
a(F3.5500000000010914
I38
tp746
a(F4.7900000000008731
I37
tp747
a(F5.9500000000007276
I35
tp748
a(F7.5900000000001455
I33
tp749
a(F9.9200000000000728
I31
tp750
a(F11.880000000001019
I29
tp751
a(F13.440000000000509
I27
tp752
a(F15.440000000000509
I25
tp753
a(F19.81000000000131
I24
tp754
a(F23.720000000001164
I22
tp755
a(F27.030000000000655
I20
tp756
aF40.0
tp757
sg127
((lp758
(F3.8800000000010186
I9
tp759
aF40.1200000000008
tp760
ssba(imeasure_core
ProblemSetSolution
p761
(dp762
g3
g200
sg161
g727
sg164
(dp763
g203
((lp764
(F9.2600000000002183
I32
tp765
aF40.479999999999563
tp766
sg251
((lp767
(F22.969999999999345
I171
tp768
aF40.049999999999272
tp769
sg301
((lp770
(F3.2800000000006548
I25
tp771
aF40.010000000000218
tp772
sg345
((lp773
F40.0
tp774
sg404
((lp775
(F3.1200000000008004
I28
tp776
aF40.270000000000437
tp777
ssba(imeasure_core
ProblemSetSolution
p778
(dp779
g3
g467
sg161
g727
sg164
(dp780
g470
((lp781
F42.729999999999563
tp782
sg520
((lp783
(F19.190000000000509
I13
tp784
aF41.489999999999782
tp785
sg559
((lp786
F40.020000000000437
tp787
sg664
((lp788
F42.959999999999127
tp789
sg619
((lp790
(F32.350000000000364
I15
tp791
aF40.850000000000364
tp792
ssba(imeasure_core
ProblemSetSolution
p793
(dp794
g3
g4
sg161
S"AnytimeBeam-w20-gf(8, 'lin')_with_PowerHeuristic2"
p795
sg164
(dp796
g8
((lp797
(F0.47000000000116415
I10
tp798
aF40.31000000000131
tp799
sg44
((lp800
(F1.2600000000002183
I14
tp801
aF40.059999999999491
tp802
sg71
((lp803
(F10.069999999999709
I144
tp804
aF40.0
tp805
sg102
((lp806
(F0.12000000000080036
I49
tp807
a(F0.32999999999992724
I47
tp808
a(F0.53999999999905413
I45
tp809
a(F0.80999999999949068
I43
tp810
a(F1.2399999999997817
I41
tp811
a(F1.6700000000000728
I40
tp812
a(F2.6700000000000728
I39
tp813
a(F3.569999999999709
I38
tp814
a(F4.8299999999999272
I37
tp815
a(F5.9899999999997817
I35
tp816
a(F7.6399999999994179
I33
tp817
a(F9.9699999999993452
I31
tp818
a(F11.930000000000291
I29
tp819
a(F13.489999999999782
I27
tp820
a(F15.469999999999345
I25
tp821
a(F19.770000000000437
I24
tp822
a(F23.639999999999418
I22
tp823
a(F26.920000000000073
I20
tp824
aF40.0
tp825
sg127
((lp826
(F4.9500000000007276
I9
tp827
aF40.3700000000008
tp828
ssba(imeasure_core
ProblemSetSolution
p829
(dp830
g3
g200
sg161
g795
sg164
(dp831
g203
((lp832
(F9.9599999999991269
I24
tp833
aF40.18999999999869
tp834
sg251
((lp835
(F25.640000000001237
I171
tp836
aF40.180000000000291
tp837
sg301
((lp838
(F3.3800000000010186
I25
tp839
aF40.100000000000364
tp840
sg345
((lp841
F40.020000000000437
tp842
sg404
((lp843
(F3.4200000000000728
I28
tp844
aF40.090000000000146
tp845
ssba(imeasure_core
ProblemSetSolution
p846
(dp847
g3
g467
sg161
g795
sg164
(dp848
g470
((lp849
F44.020000000000437
tp850
sg520
((lp851
(F22.020000000000437
I13
tp852
aF41.300000000001091
tp853
sg559
((lp854
F40.369999999998981
tp855
sg664
((lp856
F42.950000000000728
tp857
sg619
((lp858
(F37.720000000001164
I15
tp859
aF40.790000000000873
tp860
ssba(imeasure_core
ProblemSetSolution
p861
(dp862
g3
g4
sg161
S"AnytimeBeam-w20-gf(16, 'lin')_with_PowerHeuristic2"
p863
sg164
(dp864
g8
((lp865
(F0.46999999999752617
I10
tp866
aF40.279999999998836
tp867
sg44
((lp868
(F1.3400000000001455
I14
tp869
aF40.490000000001601
tp870
sg71
((lp871
(F10.909999999999854
I144
tp872
aF40.379999999997381
tp873
sg102
((lp874
(F0.12000000000261934
I49
tp875
a(F0.33000000000174623
I47
tp876
a(F0.53000000000247383
I45
tp877
a(F0.7999999999992724
I43
tp878
a(F1.2299999999995634
I41
tp879
a(F1.6500000000014552
I40
tp880
a(F2.6399999999994179
I39
tp881
a(F3.5200000000004366
I38
tp882
a(F4.7700000000004366
I37
tp883
a(F5.9200000000018917
I35
tp884
a(F7.5400000000008731
I33
tp885
a(F9.8500000000021828
I31
tp886
a(F11.790000000000873
I29
tp887
a(F13.330000000001746
I27
tp888
a(F15.299999999999272
I25
tp889
a(F19.600000000002183
I24
tp890
a(F23.430000000000291
I22
tp891
a(F26.680000000000291
I20
tp892
aF40.0
tp893
sg127
((lp894
(F6.0
I9
tp895
aF40.200000000000728
tp896
ssba(imeasure_core
ProblemSetSolution
p897
(dp898
g3
g200
sg161
g863
sg164
(dp899
g203
((lp900
(F11.490000000001601
I24
tp901
aF40.030000000002474
tp902
sg251
((lp903
(F28.279999999998836
I171
tp904
aF40.040000000000873
tp905
sg301
((lp906
(F3.4099999999998545
I25
tp907
aF40.319999999999709
tp908
sg345
((lp909
F40.020000000000437
tp910
sg404
((lp911
(F3.9099999999998545
I28
tp912
aF40.369999999998981
tp913
ssba(imeasure_core
ProblemSetSolution
p914
(dp915
g3
g467
sg161
g863
sg164
(dp916
g470
((lp917
F45.260000000002037
tp918
sg520
((lp919
(F25.93999999999869
I13
tp920
aF41.219999999997526
tp921
sg559
((lp922
F40.090000000000146
tp923
sg664
((lp924
F43.25
tp925
sg619
((lp926
F41.290000000000873
tp927
ssba(imeasure_core
ProblemSetSolution
p928
(dp929
g3
g4
sg161
S"AnytimeBeam-w20-gf(2, 'lin')_with_LinearHeuristic"
p930
sg164
(dp931
g8
((lp932
F40.43999999999869
tp933
sg44
((lp934
F40.130000000001019
tp935
sg71
((lp936
(F1.2299999999995634
I58
tp937
aF40.0
tp938
sg102
((lp939
(F0.019999999996798579
I22
tp940
a(F0.13999999999941792
I20
tp941
aF40.0
tp942
sg127
((lp943
(F2.9899999999979627
I6
tp944
aF40.399999999997817
tp945
ssba(imeasure_core
ProblemSetSolution
p946
(dp947
g3
g200
sg161
g930
sg164
(dp948
g203
((lp949
F40.139999999999418
tp950
sg251
((lp951
F40.029999999998836
tp952
sg301
((lp953
F40.319999999999709
tp954
sg345
((lp955
F40.049999999999272
tp956
sg404
((lp957
(F23.740000000001601
I146
tp958
aF40.010000000002037
tp959
ssba(imeasure_core
ProblemSetSolution
p960
(dp961
g3
g467
sg161
g930
sg164
(dp962
g470
((lp963
F42.049999999999272
tp964
sg520
((lp965
(F18.389999999999418
I8
tp966
aF41.529999999998836
tp967
sg559
((lp968
F43.690000000002328
tp969
sg664
((lp970
F40.590000000000146
tp971
sg619
((lp972
F40.069999999999709
tp973
ssba(imeasure_core
ProblemSetSolution
p974
(dp975
g3
g4
sg161
S"AnytimeBeam-w20-gf(4, 'lin')_with_LinearHeuristic"
p976
sg164
(dp977
g8
((lp978
F40.100000000002183
tp979
sg44
((lp980
F40.259999999998399
tp981
sg71
((lp982
(F1.25
I58
tp983
aF40.009999999998399
tp984
sg102
((lp985
(F0.020000000000436557
I22
tp986
a(F0.15000000000145519
I20
tp987
aF40.0
tp988
sg127
((lp989
(F3.3300000000017462
I6
tp990
aF40.390000000003056
tp991
ssba(imeasure_core
ProblemSetSolution
p992
(dp993
g3
g200
sg161
g976
sg164
(dp994
g203
((lp995
F40.260000000002037
tp996
sg251
((lp997
F40.159999999999854
tp998
sg301
((lp999
F40.069999999999709
tp1000
sg345
((lp1001
F40.049999999999272
tp1002
sg404
((lp1003
(F25.139999999999418
I146
tp1004
aF40.149999999997817
tp1005
ssba(imeasure_core
ProblemSetSolution
p1006
(dp1007
g3
g467
sg161
g976
sg164
(dp1008
g470
((lp1009
F43.599999999998545
tp1010
sg520
((lp1011
(F19.979999999999563
I8
tp1012
aF42.760000000002037
tp1013
sg559
((lp1014
F46.289999999997235
tp1015
sg664
((lp1016
F41.209999999999127
tp1017
sg619
((lp1018
F41.670000000001892
tp1019
ssba(imeasure_core
ProblemSetSolution
p1020
(dp1021
g3
g4
sg161
S"AnytimeBeam-w20-gf(8, 'lin')_with_LinearHeuristic"
p1022
sg164
(dp1023
g8
((lp1024
F40.020000000000437
tp1025
sg44
((lp1026
F40.010000000002037
tp1027
sg71
((lp1028
(F1.2799999999988358
I58
tp1029
aF40.019999999996799
tp1030
sg102
((lp1031
(F0.020000000000436557
I22
tp1032
a(F0.15000000000145519
I20
tp1033
aF40.0
tp1034
sg127
((lp1035
(F3.5500000000029104
I6
tp1036
aF40.210000000002765
tp1037
ssba(imeasure_core
ProblemSetSolution
p1038
(dp1039
g3
g200
sg161
g1022
sg164
(dp1040
g203
((lp1041
F40.029999999998836
tp1042
sg251
((lp1043
F40.56000000000131
tp1044
sg301
((lp1045
F40.149999999997817
tp1046
sg345
((lp1047
F40.06000000000131
tp1048
sg404
((lp1049
(F28.049999999999272
I146
tp1050
aF40.110000000000582
tp1051
ssba(imeasure_core
ProblemSetSolution
p1052
(dp1053
g3
g467
sg161
g1022
sg164
(dp1054
g470
((lp1055
F47.470000000001164
tp1056
sg520
((lp1057
(F23.739999999997963
I8
tp1058
aF45.380000000001019
tp1059
sg559
((lp1060
F53.149999999997817
tp1061
sg664
((lp1062
F42.650000000001455
tp1063
sg619
((lp1064
F40.180000000000291
tp1065
ssba(imeasure_core
ProblemSetSolution
p1066
(dp1067
g3
g4
sg161
S"AnytimeBeam-w20-gf(16, 'lin')_with_LinearHeuristic"
p1068
sg164
(dp1069
g8
((lp1070
F40.349999999998545
tp1071
sg44
((lp1072
F40.119999999998981
tp1073
sg71
((lp1074
(F1.4200000000018917
I58
tp1075
aF40.0
tp1076
sg102
((lp1077
(F0.020000000000436557
I22
tp1078
a(F0.13999999999941792
I20
tp1079
aF40.0
tp1080
sg127
((lp1081
(F4.0400000000008731
I6
tp1082
aF40.200000000000728
tp1083
ssba(imeasure_core
ProblemSetSolution
p1084
(dp1085
g3
g200
sg161
g1068
sg164
(dp1086
g203
((lp1087
F40.340000000000146
tp1088
sg251
((lp1089
F40.349999999998545
tp1090
sg301
((lp1091
F40.080000000001746
tp1092
sg345
((lp1093
F40.049999999999272
tp1094
sg404
((lp1095
(F32.080000000001746
I146
tp1096
aF40.030000000002474
tp1097
ssba(imeasure_core
ProblemSetSolution
p1098
(dp1099
g3
g467
sg161
g1068
sg164
(dp1100
g470
((lp1101
F44.0
tp1102
sg520
((lp1103
(F27.919999999998254
I8
tp1104
aF40.43999999999869
tp1105
sg559
((lp1106
F57.920000000001892
tp1107
sg664
((lp1108
F45.360000000000582
tp1109
sg619
((lp1110
F40.0
tp1111
ssba.