(lp0
(imeasure_core
ProblemSetSolution
p1
(dp2
S'roomset'
p3
(imeasure_core
RoomSet
p4
(dp5
S'rooms'
p6
(dp7
(iproblems
RoomID
p8
(dp9
S'dusts'
p10
I6
sS'obstacles'
p11
(I0
I4
tp12
sS'robots'
p13
I1
sS'height'
p14
I9
sS'width'
p15
I9
sS'seed'
p16
I1164115433906158532
sb(imulti_robot_problem
MultiRobotState
p17
(dp18
S'obstacle_locations'
p19
c__builtin__
frozenset
p20
((lp21
(I0
I1
tp22
a(I1
I2
tp23
a(I1
I3
tp24
a(I1
I4
tp25
ag12
atp26
Rp27
sg15
I9
sS'dirt_locations'
p28
g20
((lp29
(I6
I4
tp30
a(I1
I8
tp31
a(I1
I6
tp32
a(I1
I0
tp33
a(I8
I5
tp34
a(I3
I5
tp35
atp36
Rp37
sg13
((I4
I5
tp38
tp39
sg14
I9
sbs(iproblems
RoomID
p40
(dp41
g10
I8
sg11
(I6
I5
tp42
sg13
I5
sg14
I8
sg15
I7
sg16
I2175216119781798972
sb(imulti_robot_problem
MultiRobotState
p43
(dp44
g19
g20
((lp45
(I1
I2
tp46
a(I2
I6
tp47
a(I6
I7
tp48
a(I6
I6
tp49
a(I5
I7
tp50
a(I2
I3
tp51
a(I0
I4
tp52
a(I1
I0
tp53
ag42
atp54
Rp55
sg15
I7
sg28
g20
((lp56
(I5
I4
tp57
a(I5
I5
tp58
a(I4
I4
tp59
a(I0
I6
tp60
a(I0
I5
tp61
a(I1
I7
tp62
a(I4
I2
tp63
a(I0
I2
tp64
atp65
Rp66
sg13
((I1
I3
tp67
(I6
I4
tp68
(I3
I7
tp69
(I6
I0
tp70
(I2
I1
tp71
tp72
sg14
I8
sbs(iproblems
RoomID
p73
(dp74
g10
I9
sg11
(I2
I2
tp75
sg13
I2
sg14
I9
sg15
I7
sg16
I3872982626502034966
sb(imulti_robot_problem
MultiRobotState
p76
(dp77
g19
g20
((lp78
(I4
I1
tp79
a(I2
I6
tp80
a(I3
I1
tp81
a(I5
I0
tp82
ag75
atp83
Rp84
sg15
I7
sg28
g20
((lp85
(I4
I7
tp86
a(I2
I8
tp87
a(I4
I4
tp88
a(I3
I2
tp89
a(I2
I1
tp90
a(I1
I4
tp91
a(I4
I2
tp92
a(I0
I3
tp93
a(I5
I8
tp94
atp95
Rp96
sg13
((I1
I6
tp97
(I1
I7
tp98
tp99
sg14
I9
sbs(iproblems
RoomID
p100
(dp101
g10
I9
sg11
(I6
I3
tp102
sg13
I4
sg14
I9
sg15
I10
sg16
I7002664860023442459
sb(imulti_robot_problem
MultiRobotState
p103
(dp104
g19
g20
((lp105
(I7
I4
tp106
a(I7
I3
tp107
ag102
a(I6
I5
tp108
a(I9
I7
tp109
atp110
Rp111
sg15
I10
sg28
g20
((lp112
(I0
I0
tp113
a(I6
I8
tp114
a(I2
I8
tp115
a(I5
I7
tp116
a(I2
I6
tp117
a(I4
I2
tp118
a(I5
I1
tp119
a(I8
I6
tp120
a(I8
I4
tp121
atp122
Rp123
sg13
((I7
I5
tp124
(I7
I6
tp125
(I1
I7
tp126
(I1
I6
tp127
tp128
sg14
I9
sbs(iproblems
RoomID
p129
(dp130
g10
I5
sg11
(I0
I4
tp131
sg13
I5
sg14
I7
sg15
I7
sg16
I8711387064946514083
sb(imulti_robot_problem
MultiRobotState
p132
(dp133
g19
g20
((lp134
(I0
I1
tp135
a(I2
I2
tp136
a(I0
I2
tp137
a(I1
I5
tp138
ag131
a(I0
I3
tp139
a(I2
I4
tp140
a(I6
I5
tp141
atp142
Rp143
sg15
I7
sg28
g20
((lp144
(I5
I6
tp145
a(I6
I4
tp146
a(I3
I2
tp147
a(I6
I1
tp148
a(I6
I6
tp149
atp150
Rp151
sg13
((I1
I1
tp152
(I6
I0
tp153
(I5
I0
tp154
(I1
I3
tp155
(I4
I5
tp156
tp157
sg14
I7
sbssS'name'
p158
S'easy_roomset'
p159
sbsg158
S"AnytimeBeam-w20-gf(2, 'lin')_with_PowerHeuristic2"
p160
sS'solutions'
p161
(dp162
g8
((lp163
(F0.1499999999996362
I42
tp164
a(F16.289999999999964
I36
tp165
a(F23.839999999999236
I34
tp166
a(F33.739999999999782
I32
tp167
a(F34.979999999999563
I30
tp168
a(F36.059999999999491
I28
tp169
aF40.0
tp170
sg40
((lp171
(F0.96000000000003638
I5
tp172
aF40.019999999999527
tp173
sg73
((lp174
(F1.319999999999709
I66
tp175
aF40.010000000000218
tp176
sg100
((lp177
(F1.1300000000001091
I11
tp178
aF40.0
tp179
sg129
((lp180
(F0.63000000000010914
I4
tp181
aF40.029999999999745
tp182
ssba(imeasure_core
ProblemSetSolution
p183
(dp184
g3
(imeasure_core
RoomSet
p185
(dp186
g6
(dp187
(iproblems
RoomID
p188
(dp189
g10
I6
sg11
(I5
I5
tp190
sg13
I3
sg14
I11
sg15
I11
sg16
I1164115433906158532
sb(imulti_robot_problem
MultiRobotState
p191
(dp192
g19
g20
((lp193
(I5
I4
tp194
a(I1
I3
tp195
a(I4
I3
tp196
a(I4
I8
tp197
a(I3
I0
tp198
a(I8
I0
tp199
a(I3
I2
tp200
a(I0
I7
tp201
a(I2
I1
tp202
a(I3
I9
tp203
a(I0
I5
tp204
a(I1
I4
tp205
a(I3
I7
tp206
a(I2
I5
tp207
a(I5
I3
tp208
a(I8
I3
tp209
a(I3
I1
tp210
ag190
a(I2
I0
tp211
a(I3
I10
tp212
a(I6
I10
tp213
a(I0
I6
tp214
a(I1
I8
tp215
a(I3
I6
tp216
a(I4
I5
tp217
a(I0
I2
tp218
atp219
Rp220
sg15
I11
sg28
g20
((lp221
(I7
I5
tp222
a(I8
I8
tp223
a(I4
I9
tp224
a(I4
I6
tp225
a(I10
I6
tp226
a(I8
I2
tp227
atp228
Rp229
sg13
((I5
I7
tp230
(I2
I10
tp231
(I2
I8
tp232
tp233
sg14
I11
sbs(iproblems
RoomID
p234
(dp235
g10
I8
sg11
(I5
I4
tp236
sg13
I4
sg14
I10
sg15
I9
sg16
I2175216119781798972
sb(imulti_robot_problem
MultiRobotState
p237
(dp238
g19
g20
((lp239
(I6
I6
tp240
a(I2
I8
tp241
a(I0
I7
tp242
a(I6
I2
tp243
a(I1
I6
tp244
a(I2
I5
tp245
a(I5
I5
tp246
a(I8
I1
tp247
a(I7
I6
tp248
a(I6
I3
tp249
a(I2
I2
tp250
a(I8
I6
tp251
a(I6
I4
tp252
ag236
a(I8
I2
tp253
a(I7
I1
tp254
a(I1
I4
tp255
a(I7
I5
tp256
a(I8
I7
tp257
a(I1
I0
tp258
a(I6
I5
tp259
a(I3
I3
tp260
a(I8
I3
tp261
a(I7
I0
tp262
a(I6
I8
tp263
a(I3
I4
tp264
a(I7
I4
tp265
a(I0
I6
tp266
a(I1
I8
tp267
a(I8
I8
tp268
a(I4
I3
tp269
a(I1
I7
tp270
a(I7
I8
tp271
a(I0
I2
tp272
atp273
Rp274
sg15
I9
sg28
g20
((lp275
(I6
I7
tp276
a(I2
I9
tp277
a(I5
I6
tp278
a(I3
I1
tp279
a(I8
I9
tp280
a(I0
I5
tp281
a(I0
I3
tp282
a(I5
I2
tp283
atp284
Rp285
sg13
((I2
I4
tp286
(I8
I5
tp287
(I4
I9
tp288
(I7
I7
tp289
tp290
sg14
I10
sbs(iproblems
RoomID
p291
(dp292
g10
I9
sg11
(I5
I3
tp293
sg13
I3
sg14
I9
sg15
I9
sg16
I1885758236351349410
sb(imulti_robot_problem
MultiRobotState
p294
(dp295
g19
g20
((lp296
(I4
I7
tp297
a(I5
I7
tp298
a(I7
I1
tp299
a(I5
I6
tp300
a(I5
I4
tp301
a(I0
I0
tp302
a(I2
I3
tp303
a(I4
I2
tp304
a(I8
I5
tp305
ag293
a(I6
I7
tp306
a(I5
I5
tp307
a(I4
I4
tp308
a(I1
I5
tp309
a(I4
I3
tp310
a(I0
I4
tp311
a(I1
I6
tp312
a(I3
I4
tp313
a(I2
I4
tp314
atp315
Rp316
sg15
I9
sg28
g20
((lp317
(I7
I3
tp318
a(I7
I0
tp319
a(I3
I0
tp320
a(I6
I1
tp321
a(I1
I4
tp322
a(I0
I5
tp323
a(I5
I0
tp324
a(I1
I1
tp325
a(I8
I4
tp326
atp327
Rp328
sg13
((I0
I1
tp329
(I2
I6
tp330
(I0
I2
tp331
tp332
sg14
I9
sbs(iproblems
RoomID
p333
(dp334
g10
I9
sg11
(I4
I3
tp335
sg13
I4
sg14
I11
sg15
I12
sg16
I7002664860023442459
sb(imulti_robot_problem
MultiRobotState
p336
(dp337
g19
g20
((lp338
(I11
I8
tp339
a(I0
I0
tp340
a(I10
I4
tp341
a(I3
I0
tp342
a(I9
I3
tp343
a(I6
I0
tp344
a(I2
I1
tp345
a(I8
I9
tp346
a(I9
I4
tp347
a(I5
I1
tp348
a(I8
I5
tp349
a(I5
I8
tp350
a(I8
I2
tp351
a(I7
I0
tp352
a(I8
I7
tp353
a(I3
I3
tp354
a(I1
I5
tp355
a(I8
I1
tp356
a(I9
I6
tp357
a(I3
I1
tp358
a(I9
I2
tp359
a(I2
I0
tp360
ag335
a(I2
I2
tp361
a(I9
I5
tp362
a(I5
I2
tp363
a(I2
I4
tp364
atp365
Rp366
sg15
I12
sg28
g20
((lp367
(I0
I1
tp368
a(I10
I8
tp369
a(I2
I8
tp370
a(I3
I10
tp371
a(I10
I6
tp372
a(I6
I2
tp373
a(I3
I7
tp374
a(I7
I8
tp375
a(I7
I9
tp376
atp377
Rp378
sg13
((I9
I7
tp379
(I8
I8
tp380
(I2
I9
tp381
(I1
I7
tp382
tp383
sg14
I11
sbs(iproblems
RoomID
p384
(dp385
g10
I9
sg11
(I3
I0
tp386
sg13
I3
sg14
I9
sg15
I12
sg16
I4912931603392816429
sb(imulti_robot_problem
MultiRobotState
p387
(dp388
g19
g20
((lp389
(I6
I4
tp390
a(I4
I7
tp391
a(I0
I0
tp392
a(I4
I8
tp393
a(I5
I6
tp394
a(I2
I8
tp395
a(I0
I7
tp396
a(I4
I6
tp397
a(I7
I5
tp398
a(I4
I2
tp399
a(I0
I3
tp400
a(I7
I2
tp401
a(I6
I8
tp402
a(I10
I5
tp403
a(I5
I5
tp404
a(I7
I8
tp405
a(I4
I4
tp406
a(I5
I2
tp407
ag386
a(I8
I8
tp408
a(I5
I8
tp409
a(I1
I7
tp410
a(I4
I5
tp411
a(I8
I6
tp412
a(I5
I3
tp413
a(I4
I1
tp414
atp415
Rp416
sg15
I12
sg28
g20
((lp417
(I7
I3
tp418
a(I7
I1
tp419
a(I8
I1
tp420
a(I6
I3
tp421
a(I11
I8
tp422
a(I8
I7
tp423
a(I3
I7
tp424
a(I2
I5
tp425
a(I3
I4
tp426
atp427
Rp428
sg13
((I9
I1
tp429
(I1
I6
tp430
(I8
I4
tp431
tp432
sg14
I9
sbssg158
S'mild_roomset'
p433
sbsg158
g160
sg161
(dp434
g188
((lp435
(F16.760000000000218
I145
tp436
aF40.130000000000109
tp437
sg234
((lp438
F40.0
tp439
sg291
((lp440
(F1.9700000000002547
I65
tp441
aF40.0600000000004
tp442
sg333
((lp443
(F1.589999999999236
I11
tp444
aF40.109999999999673
tp445
sg384
((lp446
(F0.18000000000029104
I11
tp447
aF40.0
tp448
ssba(imeasure_core
ProblemSetSolution
p449
(dp450
g3
(imeasure_core
RoomSet
p451
(dp452
g6
(dp453
(iproblems
RoomID
p454
(dp455
g10
I11
sg11
(I7
I9
tp456
sg13
I5
sg14
I12
sg15
I12
sg16
I1164115433906158532
sb(imulti_robot_problem
MultiRobotState
p457
(dp458
g19
g20
((lp459
(I4
I7
tp460
a(I1
I3
tp461
a(I5
I6
tp462
a(I9
I3
tp463
a(I1
I4
tp464
a(I0
I5
tp465
a(I7
I11
tp466
a(I1
I0
tp467
a(I5
I8
tp468
a(I3
I3
tp469
a(I3
I1
tp470
a(I6
I7
tp471
a(I6
I8
tp472
a(I7
I8
tp473
a(I5
I7
tp474
ag456
a(I4
I1
tp475
a(I0
I2
tp476
atp477
Rp478
sg15
I12
sg28
g20
((lp479
(I4
I10
tp480
a(I9
I0
tp481
a(I2
I6
tp482
a(I5
I10
tp483
a(I9
I2
tp484
a(I0
I7
tp485
a(I8
I9
tp486
a(I1
I6
tp487
a(I8
I5
tp488
a(I4
I11
tp489
a(I5
I3
tp490
atp491
Rp492
sg13
((I1
I2
tp493
(I2
I11
tp494
(I2
I0
tp495
(I2
I9
tp496
(I11
I7
tp497
tp498
sg14
I12
sbs(iproblems
RoomID
p499
(dp500
g10
I10
sg11
(I0
I7
tp501
sg13
I7
sg14
I10
sg15
I10
sg16
I8711387064946514083
sb(imulti_robot_problem
MultiRobotState
p502
(dp503
g19
g20
((lp504
(I5
I9
tp505
a(I6
I9
tp506
a(I2
I6
tp507
a(I2
I9
tp508
a(I0
I6
tp509
ag501
a(I1
I5
tp510
a(I8
I8
tp511
a(I0
I5
tp512
a(I4
I3
tp513
a(I0
I4
tp514
a(I0
I3
tp515
a(I9
I7
tp516
a(I0
I2
tp517
a(I7
I9
tp518
atp519
Rp520
sg15
I10
sg28
g20
((lp521
(I9
I0
tp522
a(I3
I3
tp523
a(I7
I1
tp524
a(I8
I1
tp525
a(I9
I8
tp526
a(I4
I4
tp527
a(I9
I9
tp528
a(I3
I6
tp529
a(I1
I7
tp530
a(I8
I6
tp531
atp532
Rp533
sg13
((I1
I1
tp534
(I8
I0
tp535
(I7
I0
tp536
(I2
I5
tp537
(I6
I7
tp538
(I8
I9
tp539
(I5
I8
tp540
tp541
sg14
I10
sbs(iproblems
RoomID
p542
(dp543
g10
I10
sg11
(I6
I7
tp544
sg13
I6
sg14
I10
sg15
I13
sg16
I8999366892653588108
sb(imulti_robot_problem
MultiRobotState
p545
(dp546
g19
g20
((lp547
(I5
I4
tp548
ag544
a(I5
I5
tp549
a(I5
I6
tp550
a(I7
I6
tp551
a(I4
I2
tp552
a(I2
I3
tp553
a(I8
I6
tp554
a(I12
I1
tp555
a(I5
I3
tp556
a(I6
I5
tp557
a(I3
I3
tp558
atp559
Rp560
sg15
I13
sg28
g20
((lp561
(I6
I9
tp562
a(I7
I0
tp563
a(I5
I7
tp564
a(I12
I6
tp565
a(I2
I1
tp566
a(I0
I5
tp567
a(I10
I1
tp568
a(I0
I3
tp569
a(I7
I9
tp570
a(I3
I5
tp571
atp572
Rp573
sg13
((I12
I0
tp574
(I6
I1
tp575
(I2
I2
tp576
(I6
I4
tp577
(I4
I6
tp578
(I7
I1
tp579
tp580
sg14
I10
sbs(iproblems
RoomID
p581
(dp582
g10
I14
sg11
(I0
I3
tp583
sg13
I7
sg14
I12
sg15
I13
sg16
I7002664860023442459
sb(imulti_robot_problem
MultiRobotState
p584
(dp585
g19
g20
((lp586
(I1
I2
tp587
a(I11
I4
tp588
a(I9
I8
tp589
a(I10
I6
tp590
ag583
a(I0
I8
tp591
a(I10
I3
tp592
a(I0
I1
tp593
a(I10
I5
tp594
a(I10
I7
tp595
a(I7
I8
tp596
a(I9
I9
tp597
a(I0
I9
tp598
a(I9
I5
tp599
a(I3
I4
tp600
a(I0
I2
tp601
a(I11
I6
tp602
a(I9
I7
tp603
atp604
Rp605
sg15
I13
sg28
g20
((lp606
(I6
I4
tp607
a(I11
I9
tp608
a(I4
I6
tp609
a(I2
I9
tp610
a(I5
I9
tp611
a(I12
I2
tp612
a(I3
I1
tp613
a(I3
I11
tp614
a(I10
I10
tp615
a(I7
I4
tp616
a(I0
I0
tp617
a(I11
I5
tp618
a(I2
I5
tp619
a(I12
I9
tp620
atp621
Rp622
sg13
((I2
I10
tp623
(I1
I8
tp624
(I8
I10
tp625
(I7
I2
tp626
(I3
I8
tp627
(I6
I2
tp628
(I7
I9
tp629
tp630
sg14
I12
sbs(iproblems
RoomID
p631
(dp632
g10
I14
sg11
(I5
I10
tp633
sg13
I5
sg14
I12
sg15
I10
sg16
I3872982626502034966
sb(imulti_robot_problem
MultiRobotState
p634
(dp635
g19
g20
((lp636
(I5
I9
tp637
a(I6
I9
tp638
a(I5
I7
tp639
a(I3
I2
tp640
ag633
a(I4
I10
tp641
a(I4
I8
tp642
a(I3
I11
tp643
a(I2
I1
tp644
a(I6
I2
tp645
a(I1
I4
tp646
a(I8
I7
tp647
a(I6
I8
tp648
a(I6
I7
tp649
a(I5
I8
tp650
a(I3
I5
tp651
a(I4
I9
tp652
a(I4
I6
tp653
a(I8
I1
tp654
a(I7
I1
tp655
a(I3
I8
tp656
a(I4
I3
tp657
a(I5
I2
tp658
a(I1
I1
tp659
atp660
Rp661
sg15
I10
sg28
g20
((lp662
(I5
I3
tp663
a(I3
I1
tp664
a(I8
I11
tp665
a(I9
I3
tp666
a(I0
I2
tp667
a(I6
I3
tp668
a(I3
I9
tp669
a(I2
I3
tp670
a(I9
I5
tp671
a(I7
I11
tp672
a(I0
I8
tp673
a(I3
I10
tp674
a(I7
I2
tp675
a(I9
I7
tp676
atp677
Rp678
sg13
((I1
I8
tp679
(I2
I9
tp680
(I1
I9
tp681
(I1
I5
tp682
(I6
I5
tp683
tp684
sg14
I12
sbssg158
S'heavy_roomset'
p685
sbsg158
g160
sg161
(dp686
g454
((lp687
(F6.8400000000001455
I20
tp688
aF40.309999999999491
tp689
sg499
((lp690
(F19.820000000000618
I7
tp691
aF57.550000000000182
tp692
sg542
((lp693
(F18.020000000000437
I20
tp694
aF40.770000000000437
tp695
sg581
((lp696
F46.159999999999854
tp697
sg631
((lp698
F40.079999999999927
tp699
ssba(imeasure_core
ProblemSetSolution
p700
(dp701
g3
g4
sg158
S"AnytimeBeam-w20-gf(4, 'lin')_with_PowerHeuristic2"
p702
sg161
(dp703
g8
((lp704
(F0.1499999999996362
I42
tp705
a(F8.8800000000001091
I36
tp706
a(F11.920000000000073
I34
tp707
a(F16.949999999999818
I32
tp708
a(F17.869999999999891
I30
tp709
a(F18.930000000000291
I28
tp710
a(F37.909999999999854
I26
tp711
aF40.0
tp712
sg40
((lp713
(F1.0500000000001819
I5
tp714
aF40.010000000000218
tp715
sg73
((lp716
(F1.4099999999998545
I66
tp717
a(F11.4399999999996
I65
tp718
a(F19.969999999999345
I64
tp719
a(F32.529999999999745
I63
tp720
aF40.019999999999527
tp721
sg100
((lp722
(F1.3100000000004002
I11
tp723
aF40.079999999999927
tp724
sg129
((lp725
(F0.72000000000025466
I4
tp726
aF40.010000000000218
tp727
ssba(imeasure_core
ProblemSetSolution
p728
(dp729
g3
g185
sg158
g702
sg161
(dp730
g188
((lp731
(F17.630000000000109
I142
tp732
aF40.229999999999563
tp733
sg234
((lp734
F40.0600000000004
tp735
sg291
((lp736
(F2.1199999999998909
I65
tp737
aF40.010000000000218
tp738
sg333
((lp739
(F1.6199999999998909
I11
tp740
aF40.260000000000218
tp741
sg384
((lp742
(F0.17999999999938154
I11
tp743
aF40.0
tp744
ssba(imeasure_core
ProblemSetSolution
p745
(dp746
g3
g451
sg158
g702
sg161
(dp747
g454
((lp748
(F7.6299999999991996
I20
tp749
aF40.210000000000036
tp750
sg499
((lp751
(F21.479999999999563
I7
tp752
aF43.529999999999745
tp753
sg542
((lp754
(F20.289999999999964
I20
tp755
aF40.670000000000073
tp756
sg581
((lp757
F46.099999999999454
tp758
sg631
((lp759
F40.0600000000004
tp760
ssba(imeasure_core
ProblemSetSolution
p761
(dp762
g3
g4
sg158
S"AnytimeBeam-w20-gf(8, 'lin')_with_PowerHeuristic2"
p763
sg161
(dp764
g8
((lp765
(F0.14000000000032742
I42
tp766
a(F4.7100000000000364
I36
tp767
a(F6.6099999999996726
I34
tp768
a(F8.75
I32
tp769
a(F9.680000000000291
I30
tp770
a(F10.739999999999782
I28
tp771
a(F20.409999999999854
I26
tp772
aF40.0
tp773
sg40
((lp774
(F1.1700000000000728
I5
tp775
aF40.140000000000327
tp776
sg73
((lp777
(F1.5099999999993088
I66
tp778
a(F12.719999999999345
I65
tp779
a(F21.969999999999345
I64
tp780
a(F35.929999999999382
I63
tp781
aF40.0
tp782
sg100
((lp783
(F1.4299999999993815
I11
tp784
aF40.359999999999673
tp785
sg129
((lp786
(F0.78999999999996362
I4
tp787
aF40.109999999999673
tp788
ssba(imeasure_core
ProblemSetSolution
p789
(dp790
g3
g185
sg158
g763
sg161
(dp791
g188
((lp792
(F19.760000000000218
I142
tp793
aF40.090000000000146
tp794
sg234
((lp795
F40.020000000000437
tp796
sg291
((lp797
(F2.5
I65
tp798
aF40.109999999999673
tp799
sg333
((lp800
(F1.6300000000001091
I11
tp801
aF40.319999999999709
tp802
sg384
((lp803
(F0.18000000000029104
I11
tp804
aF40.0
tp805
ssba(imeasure_core
ProblemSetSolution
p806
(dp807
g3
g451
sg158
g763
sg161
(dp808
g454
((lp809
(F8.3599999999996726
I20
tp810
aF40.859999999999673
tp811
sg499
((lp812
(F24.150000000000546
I7
tp813
aF44.240000000000691
tp814
sg542
((lp815
(F23.139999999999418
I20
tp816
aF41.409999999999854
tp817
sg581
((lp818
F46.25
tp819
sg631
((lp820
F40.099999999999454
tp821
ssba(imeasure_core
ProblemSetSolution
p822
(dp823
g3
g4
sg158
S"AnytimeBeam-w20-gf(16, 'lin')_with_PowerHeuristic2"
p824
sg161
(dp825
g8
((lp826
(F0.14000000000032742
I42
tp827
a(F2.569999999999709
I36
tp828
a(F3.3299999999999272
I34
tp829
a(F4.4899999999997817
I32
tp830
a(F5.4200000000000728
I30
tp831
a(F6.4800000000004729
I28
tp832
a(F12.25
I26
tp833
aF40.0
tp834
sg40
((lp835
(F1.3699999999998909
I5
tp836
aF40.569999999999709
tp837
sg73
((lp838
(F1.5600000000004002
I66
tp839
a(F13.490000000000691
I65
tp840
a(F23.340000000000146
I64
tp841
a(F38.210000000000036
I63
tp842
aF40.010000000000218
tp843
sg100
((lp844
(F1.4400000000005093
I11
tp845
aF40.320000000000618
tp846
sg129
((lp847
(F0.82999999999992724
I4
tp848
aF40.089999999999236
tp849
ssba(imeasure_core
ProblemSetSolution
p850
(dp851
g3
g185
sg158
g824
sg161
(dp852
g188
((lp853
(F19.930000000000291
I137
tp854
aF40.070000000000618
tp855
sg234
((lp856
F40.039999999999964
tp857
sg291
((lp858
(F2.7399999999997817
I65
tp859
aF40.059999999999491
tp860
sg333
((lp861
(F1.6300000000001091
I11
tp862
aF40.170000000000073
tp863
sg384
((lp864
(F0.19000000000050932
I11
tp865
aF40.010000000000218
tp866
ssba(imeasure_core
ProblemSetSolution
p867
(dp868
g3
g451
sg158
g824
sg161
(dp869
g454
((lp870
(F9.1999999999998181
I20
tp871
aF40.609999999999673
tp872
sg499
((lp873
(F28.109999999999673
I7
tp874
aF41.789999999999964
tp875
sg542
((lp876
(F28.010000000000218
I20
tp877
aF41.340000000000146
tp878
sg581
((lp879
F46.449999999999818
tp880
sg631
((lp881
F40.070000000000618
tp882
ssba(imeasure_core
ProblemSetSolution
p883
(dp884
g3
g4
sg158
S"AnytimeBeam-w20-gf(2, 'lin')_with_LinearHeuristic"
p885
sg161
(dp886
g8
((lp887
(F0.020000000000436557
I28
tp888
aF40.0
tp889
sg40
((lp890
F40.270000000000437
tp891
sg73
((lp892
(F0.8999999999996362
I25
tp893
aF40.019999999999527
tp894
sg100
((lp895
(F4.5700000000006185
I27
tp896
aF40.100000000000364
tp897
sg129
((lp898
(F2.6099999999996726
I10
tp899
aF40.079999999999927
tp900
ssba(imeasure_core
ProblemSetSolution
p901
(dp902
g3
g185
sg158
g885
sg161
(dp903
g188
((lp904
F40.069999999999709
tp905
sg234
((lp906
F40.050000000000182
tp907
sg291
((lp908
(F13.460000000000036
I226
tp909
aF40.090000000000146
tp910
sg333
((lp911
F40.149999999999636
tp912
sg384
((lp913
F40.0600000000004
tp914
ssba(imeasure_core
ProblemSetSolution
p915
(dp916
g3
g451
sg158
g885
sg161
(dp917
g454
((lp918
F40.399999999999636
tp919
sg499
((lp920
(F30.170000000000073
I7
tp921
aF40.149999999999636
tp922
sg542
((lp923
F40.190000000000509
tp924
sg581
((lp925
F40.75
tp926
sg631
((lp927
F40.269999999999527
tp928
ssba(imeasure_core
ProblemSetSolution
p929
(dp930
g3
g4
sg158
S"AnytimeBeam-w20-gf(4, 'lin')_with_LinearHeuristic"
p931
sg161
(dp932
g8
((lp933
(F0.020000000000436557
I28
tp934
aF40.0
tp935
sg40
((lp936
F40.090000000000146
tp937
sg73
((lp938
(F0.98000000000047294
I25
tp939
aF40.010000000000218
tp940
sg100
((lp941
(F5.0900000000001455
I27
tp942
aF40.010000000000218
tp943
sg129
((lp944
(F3.0900000000001455
I10
tp945
aF40.090000000000146
tp946
ssba(imeasure_core
ProblemSetSolution
p947
(dp948
g3
g185
sg158
g931
sg161
(dp949
g188
((lp950
F40.019999999999527
tp951
sg234
((lp952
F40.079999999999927
tp953
sg291
((lp954
(F14.809999999999491
I226
tp955
aF40.25
tp956
sg333
((lp957
F40.149999999999636
tp958
sg384
((lp959
F40.100000000000364
tp960
ssba(imeasure_core
ProblemSetSolution
p961
(dp962
g3
g451
sg158
g931
sg161
(dp963
g454
((lp964
F40.389999999999418
tp965
sg499
((lp966
(F33.410000000001673
I7
tp967
aF44.030000000000655
tp968
sg542
((lp969
F40.210000000000946
tp970
sg581
((lp971
F41.309999999999491
tp972
sg631
((lp973
F40.149999999999636
tp974
ssba(imeasure_core
ProblemSetSolution
p975
(dp976
g3
g4
sg158
S"AnytimeBeam-w20-gf(8, 'lin')_with_LinearHeuristic"
p977
sg161
(dp978
g8
((lp979
(F0.020000000000436557
I28
tp980
aF40.0
tp981
sg40
((lp982
F40.059999999999491
tp983
sg73
((lp984
(F0.98999999999978172
I25
tp985
aF40.010000000000218
tp986
sg100
((lp987
(F5.4899999999997817
I27
tp988
aF40.319999999999709
tp989
sg129
((lp990
(F3.6200000000008004
I10
tp991
aF40.5
tp992
ssba(imeasure_core
ProblemSetSolution
p993
(dp994
g3
g185
sg158
g977
sg161
(dp995
g188
((lp996
F40.159999999999854
tp997
sg234
((lp998
F40.010000000000218
tp999
sg291
((lp1000
(F15.960000000000946
I226
tp1001
aF40.010000000000218
tp1002
sg333
((lp1003
F40.159999999999854
tp1004
sg384
((lp1005
F40.180000000000291
tp1006
ssba(imeasure_core
ProblemSetSolution
p1007
(dp1008
g3
g451
sg158
g977
sg161
(dp1009
g454
((lp1010
F40.159999999999854
tp1011
sg499
((lp1012
(F35.149999999999636
I7
tp1013
aF40.75
tp1014
sg542
((lp1015
F40.329999999999927
tp1016
sg581
((lp1017
F41.590000000000146
tp1018
sg631
((lp1019
F40.170000000000073
tp1020
ssba(imeasure_core
ProblemSetSolution
p1021
(dp1022
g3
g4
sg158
S"AnytimeBeam-w20-gf(16, 'lin')_with_LinearHeuristic"
p1023
sg161
(dp1024
g8
((lp1025
(F0.030000000000654836
I28
tp1026
aF40.0
tp1027
sg40
((lp1028
F40.229999999999563
tp1029
sg73
((lp1030
(F0.98999999999978172
I25
tp1031
a(F23.659999999999854
I24
tp1032
a(F32.829999999999927
I23
tp1033
aF40.0
tp1034
sg100
((lp1035
(F5.6399999999994179
I27
tp1036
aF40.200000000000728
tp1037
sg129
((lp1038
(F3.7600000000002183
I10
tp1039
aF40.18999999999869
tp1040
ssba(imeasure_core
ProblemSetSolution
p1041
(dp1042
g3
g185
sg158
g1023
sg161
(dp1043
g188
((lp1044
F40.240000000001601
tp1045
sg234
((lp1046
F40.059999999999491
tp1047
sg291
((lp1048
(F18.350000000000364
I226
tp1049
aF40.149999999999636
tp1050
sg333
((lp1051
F40.139999999999418
tp1052
sg384
((lp1053
F40.1200000000008
tp1054
ssba(imeasure_core
ProblemSetSolution
p1055
(dp1056
g3
g451
sg158
g1023
sg161
(dp1057
g454
((lp1058
F40.180000000000291
tp1059
sg499
((lp1060
(F39.68999999999869
I7
tp1061
aF43.709999999999127
tp1062
sg542
((lp1063
F40.0
tp1064
sg581
((lp1065
F42.329999999999927
tp1066
sg631
((lp1067
F40.020000000000437
tp1068
ssba.