(lp0
(imeasure_core
ProblemSetSolution
p1
(dp2
S'roomset'
p3
(imeasure_core
RoomSet
p4
(dp5
S'rooms'
p6
(dp7
(iproblems
RoomID
p8
(dp9
S'dusts'
p10
I6
sS'obstacles'
p11
(I3
I2
tp12
sS'robots'
p13
I1
sS'height'
p14
I9
sS'width'
p15
I10
sS'seed'
p16
I6832892905590973747
sb(imulti_robot_problem
MultiRobotState
p17
(dp18
S'obstacle_locations'
p19
c__builtin__
frozenset
p20
((lp21
(I3
I0
tp22
a(I2
I0
tp23
ag12
a(I3
I1
tp24
atp25
Rp26
sg15
I10
sS'dirt_locations'
p27
g20
((lp28
(I1
I2
tp29
a(I2
I7
tp30
a(I0
I0
tp31
a(I0
I5
tp32
a(I5
I6
tp33
a(I0
I2
tp34
atp35
Rp36
sg13
((I8
I4
tp37
tp38
sg14
I9
sbs(iproblems
RoomID
p39
(dp40
g10
I7
sg11
(I3
I5
tp41
sg13
I5
sg14
I7
sg15
I9
sg16
I6924344268699531175
sb(imulti_robot_problem
MultiRobotState
p42
(dp43
g19
g20
((lp44
(I2
I6
tp45
a(I1
I6
tp46
a(I3
I6
tp47
ag41
atp48
Rp49
sg15
I9
sg27
g20
((lp50
(I1
I2
tp51
a(I0
I0
tp52
a(I5
I0
tp53
a(I7
I1
tp54
a(I8
I6
tp55
a(I3
I4
tp56
a(I6
I5
tp57
atp58
Rp59
sg13
((I4
I0
tp60
(I7
I2
tp61
(I1
I1
tp62
(I6
I1
tp63
(I8
I4
tp64
tp65
sg14
I7
sbs(iproblems
RoomID
p66
(dp67
g10
I5
sg11
(I4
I7
tp68
sg13
I3
sg14
I9
sg15
I7
sg16
I2524308075868763041
sb(imulti_robot_problem
MultiRobotState
p69
(dp70
g19
g20
((lp71
(I1
I2
tp72
a(I3
I8
tp73
ag68
a(I4
I6
tp74
a(I4
I1
tp75
a(I2
I4
tp76
a(I3
I5
tp77
atp78
Rp79
sg15
I7
sg27
g20
((lp80
(I2
I6
tp81
a(I5
I2
tp82
a(I3
I3
tp83
a(I0
I7
tp84
a(I3
I6
tp85
atp86
Rp87
sg13
((I0
I6
tp88
(I3
I1
tp89
(I4
I8
tp90
tp91
sg14
I9
sbs(iproblems
RoomID
p92
(dp93
g10
I6
sg11
(I3
I1
tp94
sg13
I4
sg14
I8
sg15
I7
sg16
I807570059310326234
sb(imulti_robot_problem
MultiRobotState
p95
(dp96
g19
g20
((lp97
(I6
I3
tp98
a(I4
I2
tp99
ag94
a(I5
I3
tp100
atp101
Rp102
sg15
I7
sg27
g20
((lp103
(I3
I2
tp104
a(I6
I7
tp105
a(I4
I6
tp106
a(I0
I4
tp107
a(I1
I0
tp108
a(I5
I2
tp109
atp110
Rp111
sg13
((I1
I2
tp112
(I0
I1
tp113
(I3
I7
tp114
(I2
I4
tp115
tp116
sg14
I8
sbs(iproblems
RoomID
p117
(dp118
g10
I8
sg11
(I5
I0
tp119
sg13
I4
sg14
I10
sg15
I10
sg16
I3562373307524659409
sb(imulti_robot_problem
MultiRobotState
p120
(dp121
g19
g20
((lp122
(I6
I3
tp123
a(I6
I7
tp124
ag119
a(I3
I6
tp125
a(I8
I1
tp126
a(I7
I0
tp127
a(I6
I0
tp128
atp129
Rp130
sg15
I10
sg27
g20
((lp131
(I1
I3
tp132
a(I2
I9
tp133
a(I7
I6
tp134
a(I7
I7
tp135
a(I8
I9
tp136
a(I1
I8
tp137
a(I1
I6
tp138
a(I2
I2
tp139
atp140
Rp141
sg13
((I9
I8
tp142
(I6
I5
tp143
(I5
I1
tp144
(I8
I8
tp145
tp146
sg14
I10
sbssS'name'
p147
S'easy_roomset'
p148
sbsg147
S"AnytimeBeam-w20-gf(2, 'lin')_with_PowerHeuristic2"
p149
sS'solutions'
p150
(dp151
g8
((lp152
(F0.1599999999962165
I50
tp153
a(F1.2799999999988358
I44
tp154
a(F15.889999999999418
I43
tp155
a(F16.82999999999447
I42
tp156
a(F17.759999999994761
I38
tp157
a(F38.799999999995634
I37
tp158
aF40.0
tp159
sg39
((lp160
(F3.1599999999962165
I7
tp161
aF40.029999999998836
tp162
sg66
((lp163
(F0.08999999999650754
I7
tp164
aF40.019999999996799
tp165
sg92
((lp166
F40.169999999998254
tp167
sg117
((lp168
(F1.1900000000023283
I10
tp169
aF40.0
tp170
ssba(imeasure_core
ProblemSetSolution
p171
(dp172
g3
(imeasure_core
RoomSet
p173
(dp174
g6
(dp175
(iproblems
RoomID
p176
(dp177
g10
I6
sg11
(I6
I2
tp178
sg13
I3
sg14
I11
sg15
I12
sg16
I6832892905590973747
sb(imulti_robot_problem
MultiRobotState
p179
(dp180
g19
g20
((lp181
(I6
I4
tp182
a(I2
I6
tp183
a(I4
I3
tp184
a(I3
I0
tp185
a(I2
I8
tp186
a(I7
I7
tp187
a(I7
I5
tp188
a(I4
I2
tp189
a(I5
I3
tp190
a(I4
I1
tp191
a(I7
I6
tp192
a(I6
I3
tp193
a(I4
I5
tp194
ag178
a(I3
I6
tp195
a(I8
I6
tp196
a(I4
I0
tp197
a(I5
I2
tp198
a(I2
I4
tp199
atp200
Rp201
sg15
I12
sg27
g20
((lp202
(I1
I6
tp203
a(I6
I8
tp204
a(I2
I9
tp205
a(I0
I3
tp206
a(I0
I2
tp207
a(I7
I9
tp208
atp209
Rp210
sg13
((I10
I6
tp211
(I1
I2
tp212
(I0
I0
tp213
tp214
sg14
I11
sbs(iproblems
RoomID
p215
(dp216
g10
I7
sg11
(I3
I1
tp217
sg13
I4
sg14
I9
sg15
I11
sg16
I6924344268699531175
sb(imulti_robot_problem
MultiRobotState
p218
(dp219
g19
g20
((lp220
(I4
I7
tp221
ag217
a(I6
I6
tp222
a(I5
I6
tp223
a(I2
I8
tp224
a(I9
I8
tp225
a(I7
I7
tp226
a(I0
I7
tp227
a(I7
I5
tp228
a(I8
I7
tp229
a(I0
I3
tp230
a(I0
I8
tp231
a(I8
I5
tp232
a(I6
I3
tp233
a(I5
I2
tp234
a(I7
I6
tp235
a(I4
I8
tp236
a(I7
I4
tp237
a(I3
I8
tp238
a(I0
I6
tp239
a(I8
I8
tp240
a(I4
I1
tp241
a(I9
I7
tp242
atp243
Rp244
sg15
I11
sg27
g20
((lp245
(I8
I3
tp246
a(I1
I3
tp247
a(I4
I6
tp248
a(I4
I3
tp249
a(I0
I4
tp250
a(I10
I5
tp251
a(I0
I0
tp252
atp253
Rp254
sg13
((I6
I0
tp255
(I9
I3
tp256
(I1
I1
tp257
(I8
I1
tp258
tp259
sg14
I9
sbs(iproblems
RoomID
p260
(dp261
g10
I10
sg11
(I6
I8
tp262
sg13
I3
sg14
I11
sg15
I10
sg16
I7391799147228763464
sb(imulti_robot_problem
MultiRobotState
p263
(dp264
g19
g20
((lp265
(I5
I9
tp266
a(I4
I7
tp267
a(I4
I6
tp268
a(I4
I8
tp269
a(I4
I5
tp270
a(I6
I9
tp271
a(I0
I7
tp272
a(I1
I4
tp273
a(I3
I7
tp274
a(I5
I8
tp275
ag262
a(I2
I7
tp276
a(I3
I8
tp277
a(I4
I9
tp278
a(I3
I3
tp279
a(I9
I2
tp280
a(I6
I3
tp281
a(I3
I6
tp282
a(I1
I7
tp283
a(I0
I9
tp284
a(I7
I8
tp285
a(I0
I2
tp286
a(I1
I9
tp287
atp288
Rp289
sg15
I10
sg27
g20
((lp290
(I8
I3
tp291
a(I5
I10
tp292
a(I5
I5
tp293
a(I2
I8
tp294
a(I7
I6
tp295
a(I6
I0
tp296
a(I2
I10
tp297
a(I9
I4
tp298
a(I1
I10
tp299
a(I0
I3
tp300
atp301
Rp302
sg13
((I3
I10
tp303
(I7
I1
tp304
(I1
I5
tp305
tp306
sg14
I11
sbs(iproblems
RoomID
p307
(dp308
g10
I8
sg11
(I11
I7
tp309
sg13
I4
sg14
I12
sg15
I12
sg16
I3562373307524659409
sb(imulti_robot_problem
MultiRobotState
p310
(dp311
g19
g20
((lp312
(I6
I4
tp313
a(I6
I9
tp314
a(I3
I2
tp315
a(I9
I1
tp316
a(I6
I6
tp317
a(I5
I6
tp318
a(I9
I8
tp319
a(I3
I11
tp320
a(I7
I1
tp321
ag309
a(I8
I9
tp322
a(I3
I9
tp323
a(I11
I8
tp324
a(I10
I2
tp325
a(I4
I2
tp326
a(I7
I2
tp327
a(I10
I8
tp328
a(I8
I3
tp329
a(I8
I1
tp330
a(I3
I10
tp331
a(I5
I11
tp332
a(I6
I3
tp333
a(I6
I11
tp334
a(I6
I5
tp335
a(I7
I10
tp336
a(I4
I8
tp337
a(I11
I6
tp338
a(I4
I11
tp339
atp340
Rp341
sg15
I12
sg27
g20
((lp342
(I7
I3
tp343
a(I1
I3
tp344
a(I10
I11
tp345
a(I1
I7
tp346
a(I8
I8
tp347
a(I2
I2
tp348
a(I3
I7
tp349
a(I7
I9
tp350
atp351
Rp352
sg13
((I11
I10
tp353
(I7
I6
tp354
(I10
I10
tp355
(I2
I10
tp356
tp357
sg14
I12
sbs(iproblems
RoomID
p358
(dp359
g10
I6
sg11
(I2
I5
tp360
sg13
I4
sg14
I10
sg15
I9
sg16
I807570059310326234
sb(imulti_robot_problem
MultiRobotState
p361
(dp362
g19
g20
((lp363
(I6
I4
tp364
a(I3
I2
tp365
a(I1
I3
tp366
a(I8
I2
tp367
a(I2
I3
tp368
a(I3
I8
tp369
ag360
a(I1
I0
tp370
a(I1
I2
tp371
a(I7
I4
tp372
a(I4
I1
tp373
a(I3
I3
tp374
a(I3
I4
tp375
a(I1
I1
tp376
a(I6
I3
tp377
a(I2
I0
tp378
a(I1
I8
tp379
a(I2
I2
tp380
a(I5
I2
tp381
a(I0
I2
tp382
a(I8
I4
tp383
atp384
Rp385
sg15
I9
sg27
g20
((lp386
(I7
I3
tp387
a(I2
I6
tp388
a(I1
I6
tp389
a(I4
I2
tp390
a(I5
I8
tp391
a(I7
I9
tp392
atp393
Rp394
sg13
((I6
I2
tp395
(I0
I1
tp396
(I3
I9
tp397
(I3
I5
tp398
tp399
sg14
I10
sbssg147
S'mild_roomset'
p400
sbsg147
g149
sg150
(dp401
g176
((lp402
(F0.26000000000203727
I10
tp403
aF40.010000000002037
tp404
sg215
((lp405
(F14.510000000002037
I49
tp406
aF40.349999999998545
tp407
sg260
((lp408
(F1.3700000000026193
I36
tp409
aF40.040000000000873
tp410
sg307
((lp411
(F5.819999999999709
I75
tp412
aF40.319999999999709
tp413
sg358
((lp414
(F8.8100000000049477
I108
tp415
aF40.130000000004657
tp416
ssba(imeasure_core
ProblemSetSolution
p417
(dp418
g3
(imeasure_core
RoomSet
p419
(dp420
g6
(dp421
(iproblems
RoomID
p422
(dp423
g10
I11
sg11
(I4
I2
tp424
sg13
I5
sg14
I12
sg15
I13
sg16
I6832892905590973747
sb(imulti_robot_problem
MultiRobotState
p425
(dp426
g19
g20
((lp427
(I5
I9
tp428
a(I6
I9
tp429
a(I8
I2
tp430
a(I3
I0
tp431
a(I3
I4
tp432
a(I12
I11
tp433
ag424
a(I4
I1
tp434
a(I4
I0
tp435
atp436
Rp437
sg15
I13
sg27
g20
((lp438
(I2
I7
tp439
a(I9
I0
tp440
a(I6
I8
tp441
a(I4
I5
tp442
a(I2
I8
tp443
a(I8
I10
tp444
a(I2
I10
tp445
a(I1
I7
tp446
a(I3
I7
tp447
a(I2
I5
tp448
a(I0
I8
tp449
atp450
Rp451
sg13
((I11
I6
tp452
(I1
I2
tp453
(I1
I0
tp454
(I0
I3
tp455
(I0
I2
tp456
tp457
sg14
I12
sbs(iproblems
RoomID
p458
(dp459
g10
I12
sg11
(I6
I7
tp460
sg13
I7
sg14
I10
sg15
I12
sg16
I6924344268699531175
sb(imulti_robot_problem
MultiRobotState
p461
(dp462
g19
g20
((lp463
(I4
I7
tp464
ag460
a(I2
I9
tp465
a(I4
I8
tp466
a(I9
I6
tp467
a(I5
I7
tp468
a(I0
I6
tp469
a(I3
I9
tp470
a(I0
I9
tp471
a(I4
I9
tp472
a(I4
I1
tp473
atp474
Rp475
sg15
I12
sg27
g20
((lp476
(I7
I3
tp477
a(I5
I4
tp478
a(I1
I3
tp479
a(I9
I1
tp480
a(I8
I3
tp481
a(I0
I7
tp482
a(I8
I8
tp483
a(I0
I0
tp484
a(I0
I4
tp485
a(I0
I8
tp486
a(I11
I6
tp487
a(I9
I7
tp488
atp489
Rp490
sg13
((I6
I0
tp491
(I10
I4
tp492
(I1
I1
tp493
(I8
I2
tp494
(I11
I5
tp495
(I5
I6
tp496
(I10
I9
tp497
tp498
sg14
I10
sbs(iproblems
RoomID
p499
(dp500
g10
I11
sg11
(I5
I1
tp501
sg13
I7
sg14
I11
sg15
I10
sg16
I807570059310326234
sb(imulti_robot_problem
MultiRobotState
p502
(dp503
g19
g20
((lp504
(I7
I3
tp505
a(I4
I6
tp506
a(I7
I4
tp507
a(I6
I2
tp508
a(I1
I9
tp509
a(I9
I4
tp510
ag501
a(I0
I3
tp511
a(I5
I2
tp512
a(I8
I4
tp513
atp514
Rp515
sg15
I10
sg27
g20
((lp516
(I5
I9
tp517
a(I6
I9
tp518
a(I2
I9
tp519
a(I4
I8
tp520
a(I9
I2
tp521
a(I2
I0
tp522
a(I1
I6
tp523
a(I9
I5
tp524
a(I4
I2
tp525
a(I1
I0
tp526
a(I3
I5
tp527
atp528
Rp529
sg13
((I1
I3
tp530
(I0
I2
tp531
(I4
I10
tp532
(I4
I5
tp533
(I8
I10
tp534
(I8
I3
tp535
(I2
I6
tp536
tp537
sg14
I11
sbs(iproblems
RoomID
p538
(dp539
g10
I13
sg11
(I7
I4
tp540
sg13
I6
sg14
I13
sg15
I13
sg16
I3562373307524659409
sb(imulti_robot_problem
MultiRobotState
p541
(dp542
g19
g20
((lp543
(I7
I3
tp544
a(I5
I4
tp545
a(I4
I9
tp546
a(I9
I1
tp547
a(I5
I9
tp548
a(I8
I1
tp549
a(I11
I2
tp550
a(I9
I3
tp551
a(I3
I11
tp552
a(I11
I7
tp553
ag540
a(I10
I1
tp554
a(I3
I10
tp555
a(I10
I5
tp556
a(I8
I2
tp557
atp558
Rp559
sg15
I13
sg27
g20
((lp560
(I8
I3
tp561
a(I3
I12
tp562
a(I4
I8
tp563
a(I6
I10
tp564
a(I9
I9
tp565
a(I12
I6
tp566
a(I8
I9
tp567
a(I1
I8
tp568
a(I4
I3
tp569
a(I2
I2
tp570
a(I4
I2
tp571
a(I11
I12
tp572
a(I2
I4
tp573
atp574
Rp575
sg13
((I12
I11
tp576
(I7
I6
tp577
(I7
I1
tp578
(I10
I11
tp579
(I2
I11
tp580
(I9
I8
tp581
tp582
sg14
I13
sbs(iproblems
RoomID
p583
(dp584
g10
I15
sg11
(I4
I8
tp585
sg13
I6
sg14
I12
sg15
I11
sg16
I7391799147228763464
sb(imulti_robot_problem
MultiRobotState
p586
(dp587
g19
g20
((lp588
(I6
I4
tp589
a(I4
I7
tp590
ag585
a(I5
I6
tp591
a(I2
I8
tp592
a(I5
I7
tp593
a(I6
I9
tp594
a(I4
I2
tp595
a(I9
I2
tp596
a(I1
I6
tp597
a(I10
I7
tp598
a(I8
I6
tp599
a(I2
I4
tp600
atp601
Rp602
sg15
I11
sg27
g20
((lp603
(I7
I0
tp604
a(I10
I4
tp605
a(I6
I11
tp606
a(I7
I6
tp607
a(I1
I4
tp608
a(I8
I9
tp609
a(I1
I8
tp610
a(I3
I9
tp611
a(I0
I10
tp612
a(I9
I4
tp613
a(I7
I10
tp614
a(I1
I10
tp615
a(I4
I3
tp616
a(I0
I3
tp617
a(I0
I2
tp618
atp619
Rp620
sg13
((I4
I6
tp621
(I3
I11
tp622
(I7
I1
tp623
(I2
I5
tp624
(I5
I9
tp625
(I2
I11
tp626
tp627
sg14
I12
sbssg147
S'heavy_roomset'
p628
sbsg147
g149
sg150
(dp629
g422
((lp630
(F12.709999999999127
I24
tp631
aF40.149999999994179
tp632
sg458
((lp633
F57.760000000002037
tp634
sg538
((lp635
(F27.900000000001455
I15
tp636
aF40.220000000001164
tp637
sg499
((lp638
F40.099999999998545
tp639
sg583
((lp640
F40.849999999998545
tp641
ssba(imeasure_core
ProblemSetSolution
p642
(dp643
g3
g4
sg147
S"AnytimeBeam-w20-gf(4, 'lin')_with_PowerHeuristic2"
p644
sg150
(dp645
g8
((lp646
(F0.16000000000349246
I50
tp647
a(F0.69000000000232831
I44
tp648
a(F8.1100000000005821
I43
tp649
a(F9.0500000000029104
I42
tp650
a(F9.9900000000052387
I38
tp651
a(F20.470000000001164
I37
tp652
a(F22.060000000004948
I35
tp653
a(F23.340000000003783
I33
tp654
a(F24.330000000001746
I31
tp655
a(F26.110000000000582
I29
tp656
a(F28.75
I27
tp657
a(F35.020000000004075
I25
tp658
a(F39.560000000004948
I24
tp659
aF40.0
tp660
sg39
((lp661
(F3.6000000000058208
I7
tp662
aF40.290000000000873
tp663
sg66
((lp664
(F0.08000000000174623
I7
tp665
aF40.020000000004075
tp666
sg92
((lp667
F40.19999999999709
tp668
sg117
((lp669
(F1.3799999999973807
I10
tp670
aF40.340000000003783
tp671
ssba(imeasure_core
ProblemSetSolution
p672
(dp673
g3
g173
sg147
g644
sg150
(dp674
g176
((lp675
(F0.25
I10
tp676
aF40.05000000000291
tp677
sg215
((lp678
(F29.080000000001746
I49
tp679
aF40.010000000002037
tp680
sg260
((lp681
(F1.569999999999709
I36
tp682
aF40.019999999996799
tp683
sg307
((lp684
(F6.569999999999709
I75
tp685
aF40.360000000000582
tp686
sg358
((lp687
(F9.9899999999979627
I108
tp688
aF40.0
tp689
ssba(imeasure_core
ProblemSetSolution
p690
(dp691
g3
g419
sg147
g644
sg150
(dp692
g422
((lp693
(F15.400000000001455
I24
tp694
aF40.029999999998836
tp695
sg458
((lp696
F40.130000000004657
tp697
sg538
((lp698
(F30.230000000003201
I15
tp699
aF40.989999999997963
tp700
sg499
((lp701
F40.689999999995052
tp702
sg583
((lp703
F41.520000000004075
tp704
ssba(imeasure_core
ProblemSetSolution
p705
(dp706
g3
g4
sg147
S"AnytimeBeam-w20-gf(8, 'lin')_with_PowerHeuristic2"
p707
sg150
(dp708
g8
((lp709
(F0.1599999999962165
I50
tp710
a(F0.4099999999962165
I44
tp711
a(F4.1900000000023283
I43
tp712
a(F5.1200000000026193
I42
tp713
a(F6.0500000000029104
I38
tp714
a(F10.489999999997963
I37
tp715
a(F12.089999999996508
I35
tp716
a(F13.379999999997381
I33
tp717
a(F14.360000000000582
I31
tp718
a(F16.180000000000291
I29
tp719
a(F18.809999999997672
I27
tp720
a(F22.30000000000291
I25
tp721
a(F26.809999999997672
I22
tp722
a(F29.44999999999709
I20
tp723
aF40.0
tp724
sg39
((lp725
(F4.1500000000014552
I7
tp726
aF40.080000000001746
tp727
sg66
((lp728
(F0.08999999999650754
I7
tp729
aF40.0
tp730
sg92
((lp731
F40.040000000000873
tp732
sg117
((lp733
(F1.4899999999979627
I10
tp734
aF40.379999999997381
tp735
ssba(imeasure_core
ProblemSetSolution
p736
(dp737
g3
g173
sg147
g707
sg150
(dp738
g176
((lp739
(F0.26000000000203727
I10
tp740
aF40.019999999996799
tp741
sg215
((lp742
F40.030000000006112
tp743
sg260
((lp744
(F1.7199999999938882
I36
tp745
aF40.039999999993597
tp746
sg307
((lp747
(F7.1600000000034925
I75
tp748
aF40.540000000000873
tp749
sg358
((lp750
(F11.040000000000873
I108
tp751
aF40.150000000001455
tp752
ssba(imeasure_core
ProblemSetSolution
p753
(dp754
g3
g419
sg147
g707
sg150
(dp755
g422
((lp756
(F18.189999999995052
I24
tp757
aF40.029999999998836
tp758
sg458
((lp759
F40.690000000002328
tp760
sg538
((lp761
(F33.110000000000582
I15
tp762
aF40.419999999998254
tp763
sg499
((lp764
F41.799999999995634
tp765
sg583
((lp766
F40.770000000004075
tp767
ssba(imeasure_core
ProblemSetSolution
p768
(dp769
g3
g4
sg147
S"AnytimeBeam-w20-gf(16, 'lin')_with_PowerHeuristic2"
p770
sg150
(dp771
g8
((lp772
(F0.1599999999962165
I50
tp773
a(F0.43000000000029104
I44
tp774
a(F2.1699999999982538
I43
tp775
a(F3.1200000000026193
I42
tp776
a(F4.0299999999988358
I38
tp777
a(F5.6699999999982538
I37
tp778
a(F7.2799999999988358
I35
tp779
a(F8.569999999999709
I33
tp780
a(F9.5599999999976717
I31
tp781
a(F11.370000000002619
I29
tp782
a(F13.970000000001164
I27
tp783
a(F17.479999999995925
I25
tp784
a(F21.989999999997963
I22
tp785
a(F24.620000000002619
I20
tp786
aF40.0
tp787
sg39
((lp788
(F5.25
I7
tp789
aF40.180000000000291
tp790
sg66
((lp791
(F0.08999999999650754
I7
tp792
aF40.019999999996799
tp793
sg92
((lp794
F40.180000000000291
tp795
sg117
((lp796
(F1.5100000000020373
I10
tp797
aF40.200000000004366
tp798
ssba(imeasure_core
ProblemSetSolution
p799
(dp800
g3
g173
sg147
g770
sg150
(dp801
g176
((lp802
(F0.25
I10
tp803
aF40.040000000000873
tp804
sg215
((lp805
F40.010000000002037
tp806
sg260
((lp807
(F1.7799999999988358
I36
tp808
aF40.010000000002037
tp809
sg307
((lp810
(F8.3099999999976717
I75
tp811
aF40.150000000001455
tp812
sg358
((lp813
(F12.94999999999709
I108
tp814
aF40.259999999994761
tp815
ssba(imeasure_core
ProblemSetSolution
p816
(dp817
g3
g419
sg147
g770
sg150
(dp818
g422
((lp819
(F22.5
I24
tp820
aF40.980000000003201
tp821
sg458
((lp822
F41.619999999995343
tp823
sg538
((lp824
(F37.819999999999709
I15
tp825
aF41.160000000003492
tp826
sg499
((lp827
F45.029999999998836
tp828
sg583
((lp829
F41.610000000000582
tp830
ssba(imeasure_core
ProblemSetSolution
p831
(dp832
g3
g4
sg147
S"AnytimeBeam-w20-gf(2, 'lin')_with_LinearHeuristic"
p833
sg150
(dp834
g8
((lp835
(F0.0099999999947613105
I20
tp836
aF40.0
tp837
sg39
((lp838
(F3.0499999999956344
I7
tp839
aF40.009999999994761
tp840
sg66
((lp841
(F2.0200000000040745
I47
tp842
a(F4.6200000000026193
I46
tp843
a(F10.370000000002619
I45
tp844
a(F15.870000000002619
I44
tp845
a(F22.730000000003201
I43
tp846
a(F27.850000000005821
I42
tp847
a(F33.180000000000291
I41
tp848
aF40.010000000002037
tp849
sg92
((lp850
F40.110000000000582
tp851
sg117
((lp852
F40.379999999997381
tp853
ssba(imeasure_core
ProblemSetSolution
p854
(dp855
g3
g173
sg147
g833
sg150
(dp856
g176
((lp857
(F0.45999999999912689
I12
tp858
aF40.0
tp859
sg215
((lp860
F40.160000000003492
tp861
sg260
((lp862
(F1.2200000000011642
I38
tp863
aF40.099999999998545
tp864
sg307
((lp865
(F2.7399999999979627
I31
tp866
a(F8.2299999999959255
I30
tp867
a(F14.260000000002037
I29
tp868
a(F22.330000000001746
I28
tp869
a(F31.290000000000873
I27
tp870
a(F39.209999999999127
I26
tp871
aF40.080000000001746
tp872
sg358
((lp873
F40.019999999996799
tp874
ssba(imeasure_core
ProblemSetSolution
p875
(dp876
g3
g419
sg147
g833
sg150
(dp877
g422
((lp878
F40.139999999999418
tp879
sg458
((lp880
F42.029999999998836
tp881
sg538
((lp882
F40.870000000002619
tp883
sg499
((lp884
F40.120000000002619
tp885
sg583
((lp886
F41.219999999993888
tp887
ssba(imeasure_core
ProblemSetSolution
p888
(dp889
g3
g4
sg147
S"AnytimeBeam-w20-gf(4, 'lin')_with_LinearHeuristic"
p890
sg150
(dp891
g8
((lp892
(F0.010000000002037268
I20
tp893
aF40.0
tp894
sg39
((lp895
(F3.5200000000040745
I7
tp896
aF40.360000000000582
tp897
sg66
((lp898
(F2.319999999999709
I47
tp899
a(F5.2300000000032014
I46
tp900
a(F11.110000000000582
I45
tp901
a(F16.810000000004948
I44
tp902
a(F23.780000000006112
I43
tp903
a(F29.210000000006403
I42
tp904
a(F35.040000000000873
I41
tp905
aF40.010000000002037
tp906
sg92
((lp907
F40.309999999997672
tp908
sg117
((lp909
F40.0
tp910
ssba(imeasure_core
ProblemSetSolution
p911
(dp912
g3
g173
sg147
g890
sg150
(dp913
g176
((lp914
(F0.48999999999796273
I12
tp915
aF40.069999999999709
tp916
sg215
((lp917
F40.010000000002037
tp918
sg260
((lp919
(F1.3300000000017462
I38
tp920
aF40.029999999998836
tp921
sg307
((lp922
(F3.2399999999979627
I31
tp923
a(F9.3400000000037835
I30
tp924
a(F16.029999999998836
I29
tp925
a(F25.30000000000291
I28
tp926
a(F35.599999999998545
I27
tp927
aF40.090000000003783
tp928
sg358
((lp929
F40.409999999996217
tp930
ssba(imeasure_core
ProblemSetSolution
p931
(dp932
g3
g419
sg147
g890
sg150
(dp933
g422
((lp934
F40.389999999999418
tp935
sg458
((lp936
F42.930000000000291
tp937
sg538
((lp938
F42.169999999998254
tp939
sg499
((lp940
F41.370000000002619
tp941
sg583
((lp942
F40.540000000000873
tp943
ssba(imeasure_core
ProblemSetSolution
p944
(dp945
g3
g4
sg147
S"AnytimeBeam-w20-gf(8, 'lin')_with_LinearHeuristic"
p946
sg150
(dp947
g8
((lp948
(F0.0099999999947613105
I20
tp949
aF40.0
tp950
sg39
((lp951
(F3.8499999999985448
I7
tp952
aF40.539999999993597
tp953
sg66
((lp954
(F2.8700000000026193
I47
tp955
a(F6.5600000000049477
I46
tp956
a(F13.600000000005821
I45
tp957
a(F20.520000000004075
I44
tp958
a(F28.940000000002328
I43
tp959
a(F35.770000000004075
I42
tp960
aF40.030000000006112
tp961
sg92
((lp962
F40.309999999997672
tp963
sg117
((lp964
F40.0
tp965
ssba(imeasure_core
ProblemSetSolution
p966
(dp967
g3
g173
sg147
g946
sg150
(dp968
g176
((lp969
(F0.50999999999476131
I12
tp970
aF40.029999999998836
tp971
sg215
((lp972
F40.309999999997672
tp973
sg260
((lp974
(F1.4199999999982538
I38
tp975
aF40.020000000004075
tp976
sg307
((lp977
(F3.6499999999941792
I31
tp978
a(F10.44999999999709
I30
tp979
a(F17.839999999996508
I29
tp980
a(F27.619999999995343
I28
tp981
a(F38.309999999997672
I27
tp982
aF40.059999999997672
tp983
sg358
((lp984
F40.010000000002037
tp985
ssba(imeasure_core
ProblemSetSolution
p986
(dp987
g3
g419
sg147
g946
sg150
(dp988
g422
((lp989
F40.139999999999418
tp990
sg458
((lp991
F45.460000000006403
tp992
sg538
((lp993
F42.629999999997381
tp994
sg499
((lp995
F47.159999999996217
tp996
sg583
((lp997
F40.130000000004657
tp998
ssba(imeasure_core
ProblemSetSolution
p999
(dp1000
g3
g4
sg147
S"AnytimeBeam-w20-gf(16, 'lin')_with_LinearHeuristic"
p1001
sg150
(dp1002
g8
((lp1003
(F0.010000000002037268
I20
tp1004
aF40.0
tp1005
sg39
((lp1006
(F4.5299999999988358
I7
tp1007
aF40.139999999999418
tp1008
sg66
((lp1009
(F3.3600000000005821
I47
tp1010
a(F7.4199999999982538
I46
tp1011
a(F15.089999999996508
I45
tp1012
a(F22.769999999996799
I44
tp1013
a(F32.040000000000873
I43
tp1014
a(F39.580000000001746
I42
tp1015
aF40.019999999996799
tp1016
sg92
((lp1017
F40.080000000001746
tp1018
sg117
((lp1019
F40.139999999999418
tp1020
ssba(imeasure_core
ProblemSetSolution
p1021
(dp1022
g3
g173
sg147
g1001
sg150
(dp1023
g176
((lp1024
(F0.51000000000203727
I12
tp1025
aF40.120000000002619
tp1026
sg215
((lp1027
F40.119999999995343
tp1028
sg260
((lp1029
(F1.5400000000008731
I38
tp1030
aF40.020000000004075
tp1031
sg307
((lp1032
(F3.8899999999994179
I31
tp1033
a(F11.180000000000291
I30
tp1034
a(F19.150000000001455
I29
tp1035
a(F29.659999999996217
I28
tp1036
aF40.139999999999418
tp1037
sg358
((lp1038
F40.209999999999127
tp1039
ssba(imeasure_core
ProblemSetSolution
p1040
(dp1041
g3
g419
sg147
g1001
sg150
(dp1042
g422
((lp1043
F40.790000000000873
tp1044
sg458
((lp1045
F50.19999999999709
tp1046
sg538
((lp1047
F47.299999999995634
tp1048
sg499
((lp1049
F45.590000000003783
tp1050
sg583
((lp1051
F41.330000000001746
tp1052
ssba.