(lp0
(imeasure_core
ProblemSetSolution
p1
(dp2
S'roomset'
p3
(imeasure_core
RoomSet
p4
(dp5
S'rooms'
p6
(dp7
(iproblems
RoomID
p8
(dp9
S'dusts'
p10
I10
sS'obstacles'
p11
(I0
I8
tp12
sS'robots'
p13
I4
sS'height'
p14
I10
sS'width'
p15
I9
sS'seed'
p16
I4712128852136459333
sb(imulti_robot_problem
MultiRobotState
p17
(dp18
S'obstacle_locations'
p19
c__builtin__
frozenset
p20
((lp21
(I0
I6
tp22
ag12
a(I2
I3
tp23
a(I1
I5
tp24
a(I8
I0
tp25
a(I1
I1
tp26
a(I0
I7
tp27
atp28
Rp29
sg15
I9
sS'dirt_locations'
p30
g20
((lp31
(I4
I7
tp32
a(I1
I3
tp33
a(I4
I9
tp34
a(I8
I1
tp35
a(I7
I6
tp36
a(I2
I6
tp37
a(I8
I7
tp38
a(I2
I2
tp39
a(I4
I1
tp40
a(I2
I4
tp41
atp42
Rp43
sg13
((I5
I8
tp44
(I6
I9
tp45
(I5
I0
tp46
(I3
I1
tp47
tp48
sg14
I10
sbs(iproblems
RoomID
p49
(dp50
g10
I9
sg11
(I3
I4
tp51
sg13
I1
sg14
I7
sg15
I8
sg16
I6613812840851947673
sb(imulti_robot_problem
MultiRobotState
p52
(dp53
g19
g20
((lp54
(I3
I5
tp55
ag51
a(I2
I4
tp56
a(I2
I1
tp57
a(I1
I4
tp58
atp59
Rp60
sg15
I8
sg30
g20
((lp61
(I6
I4
tp62
a(I5
I4
tp63
a(I6
I0
tp64
a(I7
I5
tp65
a(I1
I6
tp66
a(I2
I2
tp67
a(I0
I5
tp68
a(I4
I1
tp69
a(I4
I0
tp70
atp71
Rp72
sg13
((I3
I1
tp73
tp74
sg14
I7
sbs(iproblems
RoomID
p75
(dp76
g10
I10
sg11
(I4
I8
tp77
sg13
I4
sg14
I10
sg15
I7
sg16
I956523682424107605
sb(imulti_robot_problem
MultiRobotState
p78
(dp79
g19
g20
((lp80
(I2
I8
tp81
ag77
a(I3
I7
tp82
a(I2
I9
tp83
a(I4
I2
tp84
atp85
Rp86
sg15
I7
sg30
g20
((lp87
(I5
I9
tp88
a(I4
I7
tp89
a(I1
I3
tp90
a(I3
I3
tp91
a(I5
I5
tp92
a(I6
I1
tp93
a(I5
I4
tp94
a(I0
I4
tp95
a(I5
I2
tp96
a(I5
I3
tp97
atp98
Rp99
sg13
((I1
I9
tp100
(I4
I9
tp101
(I1
I8
tp102
(I0
I3
tp103
tp104
sg14
I10
sbs(iproblems
RoomID
p105
(dp106
g10
I10
sg11
(I4
I5
tp107
sg13
I1
sg14
I8
sg15
I8
sg16
I2893396244277848635
sb(imulti_robot_problem
MultiRobotState
p108
(dp109
g19
g20
((lp110
g107
a(I3
I7
tp111
a(I2
I6
tp112
a(I4
I6
tp113
atp114
Rp115
sg15
I8
sg30
g20
((lp116
(I6
I4
tp117
a(I0
I0
tp118
a(I6
I7
tp119
a(I3
I0
tp120
a(I2
I1
tp121
a(I0
I6
tp122
a(I7
I2
tp123
a(I2
I4
tp124
a(I6
I5
tp125
a(I5
I3
tp126
atp127
Rp128
sg13
((I2
I3
tp129
tp130
sg14
I8
sbs(iproblems
RoomID
p131
(dp132
g10
I9
sg11
(I5
I3
tp133
sg13
I3
sg14
I7
sg15
I8
sg16
I4594210616595436404
sb(imulti_robot_problem
MultiRobotState
p134
(dp135
g19
g20
((lp136
(I0
I1
tp137
a(I3
I3
tp138
a(I4
I3
tp139
a(I4
I2
tp140
a(I6
I1
tp141
ag133
atp142
Rp143
sg15
I8
sg30
g20
((lp144
(I6
I6
tp145
a(I5
I6
tp146
a(I4
I4
tp147
a(I1
I4
tp148
a(I0
I6
tp149
a(I5
I1
tp150
a(I1
I0
tp151
a(I0
I3
tp152
a(I1
I1
tp153
atp154
Rp155
sg13
((I2
I1
tp156
(I3
I4
tp157
(I3
I6
tp158
tp159
sg14
I7
sbssS'name'
p160
S'easy_roomset'
p161
sbsg160
S"AnytimeBeam-w5-gf(1.5, 'exp')_with_PowerHeuristic2"
p162
sS'solutions'
p163
(dp164
g8
((lp165
(F1.8200000000033469
I51
tp166
aF40.0
tp167
sg49
((lp168
(F0.090000000000145519
I36
tp169
a(F0.90000000000145519
I30
tp170
a(F1.6200000000026193
I29
tp171
a(F6.4800000000032014
I28
tp172
a(F12.770000000000437
I27
tp173
a(F24.940000000002328
I26
tp174
a(F35.290000000000873
I25
tp175
aF40.0
tp176
sg75
((lp177
(F1.0500000000029104
I10
tp178
aF40.220000000001164
tp179
sg105
((lp180
(F0.36000000000058208
I61
tp181
a(F1.3400000000001455
I57
tp182
a(F2.2700000000004366
I56
tp183
a(F3.4900000000016007
I54
tp184
a(F4.6300000000010186
I52
tp185
a(F6.6100000000005821
I51
tp186
a(F9.4900000000016007
I50
tp187
a(F12.360000000000582
I48
tp188
a(F15.369999999998981
I46
tp189
a(F18.470000000001164
I44
tp190
a(F27.18999999999869
I43
tp191
a(F35.360000000000582
I42
tp192
aF40.0
tp193
sg131
((lp194
(F7.4399999999986903
I26
tp195
aF40.180000000000291
tp196
ssba(imeasure_core
ProblemSetSolution
p197
(dp198
g3
(imeasure_core
RoomSet
p199
(dp200
g6
(dp201
(iproblems
RoomID
p202
(dp203
g10
I10
sg11
(I8
I7
tp204
sg13
I4
sg14
I12
sg15
I11
sg16
I4712128852136459333
sb(imulti_robot_problem
MultiRobotState
p205
(dp206
g19
g20
((lp207
(I6
I4
tp208
a(I4
I7
tp209
ag204
a(I4
I5
tp210
a(I3
I11
tp211
a(I0
I7
tp212
a(I7
I7
tp213
a(I1
I6
tp214
a(I1
I9
tp215
a(I2
I10
tp216
a(I4
I2
tp217
a(I1
I11
tp218
a(I6
I5
tp219
a(I5
I3
tp220
a(I9
I0
tp221
a(I0
I8
tp222
a(I5
I5
tp223
a(I7
I6
tp224
a(I3
I1
tp225
a(I2
I11
tp226
a(I0
I9
tp227
a(I2
I3
tp228
a(I4
I1
tp229
a(I1
I1
tp230
atp231
Rp232
sg15
I11
sg30
g20
((lp233
(I2
I7
tp234
a(I9
I1
tp235
a(I9
I8
tp236
a(I5
I1
tp237
a(I2
I5
tp238
a(I9
I7
tp239
a(I3
I4
tp240
a(I2
I4
tp241
a(I5
I8
tp242
a(I3
I3
tp243
atp244
Rp245
sg13
((I6
I10
tp246
(I8
I10
tp247
(I7
I0
tp248
(I5
I11
tp249
tp250
sg14
I12
sbs(iproblems
RoomID
p251
(dp252
g10
I9
sg11
(I4
I4
tp253
sg13
I3
sg14
I9
sg15
I10
sg16
I4594210616595436404
sb(imulti_robot_problem
MultiRobotState
p254
(dp255
g19
g20
((lp256
(I1
I3
tp257
a(I3
I0
tp258
a(I2
I1
tp259
a(I1
I6
tp260
a(I9
I4
tp261
a(I3
I7
tp262
a(I0
I3
tp263
a(I1
I2
tp264
a(I5
I5
tp265
a(I1
I5
tp266
a(I7
I6
tp267
ag253
a(I6
I3
tp268
a(I5
I6
tp269
a(I3
I6
tp270
a(I0
I4
tp271
a(I8
I6
tp272
a(I3
I5
tp273
a(I1
I1
tp274
a(I5
I4
tp275
a(I4
I5
tp276
a(I0
I5
tp277
a(I5
I3
tp278
a(I0
I1
tp279
a(I5
I2
tp280
a(I0
I6
tp281
a(I2
I0
tp282
a(I1
I8
tp283
a(I2
I3
tp284
a(I9
I5
tp285
a(I3
I4
tp286
a(I0
I2
tp287
atp288
Rp289
sg15
I10
sg30
g20
((lp290
(I7
I8
tp291
a(I7
I0
tp292
a(I6
I8
tp293
a(I2
I8
tp294
a(I8
I8
tp295
a(I0
I8
tp296
a(I8
I5
tp297
a(I5
I8
tp298
a(I8
I2
tp299
atp300
Rp301
sg13
((I4
I6
tp302
(I2
I5
tp303
(I6
I1
tp304
tp305
sg14
I9
sbs(iproblems
RoomID
p306
(dp307
g10
I8
sg11
(I5
I0
tp308
sg13
I4
sg14
I9
sg15
I9
sg16
I6858376947525423350
sb(imulti_robot_problem
MultiRobotState
p309
(dp310
g19
g20
((lp311
(I6
I4
tp312
a(I4
I7
tp313
a(I1
I3
tp314
a(I4
I3
tp315
a(I7
I1
tp316
a(I3
I0
tp317
a(I2
I8
tp318
a(I6
I0
tp319
a(I2
I1
tp320
a(I1
I6
tp321
a(I5
I1
tp322
a(I2
I5
tp323
a(I0
I8
tp324
a(I7
I2
tp325
a(I2
I7
tp326
a(I3
I8
tp327
a(I5
I5
tp328
a(I6
I1
tp329
a(I5
I7
tp330
a(I6
I3
tp331
a(I1
I8
tp332
ag308
a(I2
I2
tp333
a(I2
I3
tp334
a(I3
I4
tp335
a(I2
I4
tp336
atp337
Rp338
sg15
I9
sg30
g20
((lp339
(I8
I3
tp340
a(I7
I0
tp341
a(I4
I6
tp342
a(I6
I6
tp343
a(I7
I5
tp344
a(I8
I0
tp345
a(I8
I8
tp346
a(I8
I4
tp347
atp348
Rp349
sg13
((I1
I1
tp350
(I6
I5
tp351
(I8
I2
tp352
(I1
I5
tp353
tp354
sg14
I9
sbs(iproblems
RoomID
p355
(dp356
g10
I5
sg11
(I4
I9
tp357
sg13
I4
sg14
I11
sg15
I11
sg16
I1881095652490078568
sb(imulti_robot_problem
MultiRobotState
p358
(dp359
g19
g20
((lp360
(I6
I9
tp361
a(I6
I6
tp362
a(I4
I5
tp363
a(I2
I8
tp364
a(I9
I3
tp365
a(I4
I7
tp366
a(I7
I5
tp367
a(I5
I4
tp368
ag357
a(I6
I5
tp369
a(I3
I5
tp370
a(I7
I4
tp371
a(I1
I7
tp372
a(I6
I7
tp373
a(I4
I6
tp374
a(I7
I6
tp375
a(I4
I4
tp376
a(I8
I10
tp377
a(I6
I3
tp378
a(I7
I10
tp379
a(I2
I2
tp380
a(I4
I8
tp381
a(I7
I8
tp382
a(I1
I1
tp383
a(I8
I4
tp384
atp385
Rp386
sg15
I11
sg30
g20
((lp387
(I1
I10
tp388
a(I5
I9
tp389
a(I0
I0
tp390
a(I10
I2
tp391
a(I9
I7
tp392
atp393
Rp394
sg13
((I5
I7
tp395
(I8
I1
tp396
(I3
I1
tp397
(I8
I8
tp398
tp399
sg14
I11
sbs(iproblems
RoomID
p400
(dp401
g10
I6
sg11
(I8
I8
tp402
sg13
I4
sg14
I11
sg15
I12
sg16
I7529058068588108450
sb(imulti_robot_problem
MultiRobotState
p403
(dp404
g19
g20
((lp405
(I5
I9
tp406
a(I6
I9
tp407
a(I2
I6
tp408
a(I3
I2
tp409
a(I9
I1
tp410
a(I4
I10
tp411
a(I6
I6
tp412
a(I7
I7
tp413
a(I7
I1
tp414
a(I4
I6
tp415
a(I10
I4
tp416
a(I7
I5
tp417
a(I6
I8
tp418
a(I3
I7
tp419
a(I5
I8
tp420
a(I8
I2
tp421
a(I5
I5
tp422
a(I7
I6
tp423
a(I4
I4
tp424
a(I7
I4
tp425
a(I1
I5
tp426
ag402
a(I7
I2
tp427
a(I3
I6
tp428
a(I2
I2
tp429
a(I1
I10
tp430
a(I7
I8
tp431
a(I3
I10
tp432
atp433
Rp434
sg15
I12
sg30
g20
((lp435
(I7
I3
tp436
a(I0
I5
tp437
a(I4
I0
tp438
a(I11
I3
tp439
a(I11
I6
tp440
a(I6
I0
tp441
atp442
Rp443
sg13
((I11
I7
tp444
(I6
I2
tp445
(I11
I5
tp446
(I6
I7
tp447
tp448
sg14
I11
sbssg160
S'mild_roomset'
p449
sbsg160
g162
sg163
(dp450
g202
((lp451
(F3.8400000000001455
I23
tp452
aF40.18999999999869
tp453
sg251
((lp454
F40.430000000000291
tp455
sg306
((lp456
(F0.76000000000203727
I16
tp457
aF40.06000000000131
tp458
sg355
((lp459
(F0.56000000000130967
I7
tp460
aF40.110000000000582
tp461
sg400
((lp462
(F2.9199999999982538
I33
tp463
aF40.409999999999854
tp464
ssba(imeasure_core
ProblemSetSolution
p465
(dp466
g3
(imeasure_core
RoomSet
p467
(dp468
g6
(dp469
(iproblems
RoomID
p470
(dp471
g10
I15
sg11
(I5
I9
tp472
sg13
I7
sg14
I13
sg15
I12
sg16
I4712128852136459333
sb(imulti_robot_problem
MultiRobotState
p473
(dp474
g19
g20
((lp475
g472
a(I4
I9
tp476
a(I5
I5
tp477
a(I4
I12
tp478
a(I2
I8
tp479
a(I3
I1
tp480
a(I3
I9
tp481
a(I9
I4
tp482
a(I1
I7
tp483
a(I1
I10
tp484
a(I3
I12
tp485
a(I0
I8
tp486
a(I5
I2
tp487
atp488
Rp489
sg15
I12
sg30
g20
((lp490
(I6
I9
tp491
a(I3
I3
tp492
a(I1
I12
tp493
a(I5
I6
tp494
a(I7
I7
tp495
a(I3
I5
tp496
a(I3
I8
tp497
a(I8
I8
tp498
a(I10
I0
tp499
a(I2
I5
tp500
a(I10
I2
tp501
a(I3
I4
tp502
a(I1
I1
tp503
a(I5
I8
tp504
a(I9
I7
tp505
atp506
Rp507
sg13
((I6
I11
tp508
(I8
I11
tp509
(I7
I0
tp510
(I4
I1
tp511
(I6
I12
tp512
(I10
I9
tp513
(I6
I1
tp514
tp515
sg14
I13
sbs(iproblems
RoomID
p516
(dp517
g10
I14
sg11
(I5
I5
tp518
sg13
I5
sg14
I10
sg15
I11
sg16
I6613812840851947673
sb(imulti_robot_problem
MultiRobotState
p519
(dp520
g19
g20
((lp521
(I4
I7
tp522
a(I2
I6
tp523
a(I6
I6
tp524
a(I4
I5
tp525
a(I7
I5
tp526
a(I1
I6
tp527
a(I8
I7
tp528
a(I3
I7
tp529
a(I10
I3
tp530
a(I3
I5
tp531
a(I10
I8
tp532
a(I6
I3
tp533
ag518
a(I8
I5
tp534
a(I7
I4
tp535
a(I3
I8
tp536
a(I0
I6
tp537
a(I3
I6
tp538
a(I1
I3
tp539
a(I8
I6
tp540
a(I2
I4
tp541
atp542
Rp543
sg15
I11
sg30
g20
((lp544
(I6
I4
tp545
a(I3
I2
tp546
a(I4
I6
tp547
a(I4
I9
tp548
a(I3
I3
tp549
a(I9
I8
tp550
a(I8
I0
tp551
a(I8
I8
tp552
a(I5
I0
tp553
a(I1
I0
tp554
a(I8
I4
tp555
a(I5
I2
tp556
a(I6
I1
tp557
a(I9
I7
tp558
atp559
Rp560
sg13
((I5
I1
tp561
(I0
I8
tp562
(I2
I9
tp563
(I4
I1
tp564
(I7
I6
tp565
tp566
sg14
I10
sbs(iproblems
RoomID
p567
(dp568
g10
I15
sg11
(I4
I8
tp569
sg13
I6
sg14
I13
sg15
I10
sg16
I956523682424107605
sb(imulti_robot_problem
MultiRobotState
p570
(dp571
g19
g20
((lp572
(I5
I9
tp573
a(I6
I9
tp574
a(I7
I10
tp575
ag569
a(I5
I6
tp576
a(I3
I11
tp577
a(I9
I4
tp578
a(I4
I9
tp579
a(I5
I8
tp580
a(I2
I7
tp581
a(I5
I10
tp582
a(I5
I5
tp583
a(I3
I10
tp584
a(I5
I7
tp585
a(I9
I9
tp586
a(I5
I0
tp587
a(I7
I8
tp588
a(I1
I1
tp589
atp590
Rp591
sg15
I10
sg30
g20
((lp592
(I6
I10
tp593
a(I8
I3
tp594
a(I1
I3
tp595
a(I6
I6
tp596
a(I7
I6
tp597
a(I8
I12
tp598
a(I5
I4
tp599
a(I1
I4
tp600
a(I2
I10
tp601
a(I7
I4
tp602
a(I1
I5
tp603
a(I7
I5
tp604
a(I0
I9
tp605
a(I7
I11
tp606
a(I6
I2
tp607
atp608
Rp609
sg13
((I1
I12
tp610
(I6
I12
tp611
(I2
I11
tp612
(I0
I4
tp613
(I9
I1
tp614
(I7
I7
tp615
tp616
sg14
I13
sbs(iproblems
RoomID
p617
(dp618
g10
I13
sg11
(I1
I6
tp619
sg13
I7
sg14
I10
sg15
I10
sg16
I6858376947525423350
sb(imulti_robot_problem
MultiRobotState
p620
(dp621
g19
g20
((lp622
(I4
I7
tp623
a(I1
I3
tp624
a(I2
I8
tp625
a(I2
I2
tp626
a(I2
I1
tp627
a(I2
I3
tp628
a(I9
I5
tp629
a(I2
I5
tp630
a(I2
I7
tp631
a(I2
I9
tp632
a(I8
I1
tp633
ag619
a(I1
I7
tp634
a(I0
I9
tp635
a(I8
I6
tp636
a(I2
I4
tp637
atp638
Rp639
sg15
I10
sg30
g20
((lp640
(I8
I0
tp641
a(I4
I9
tp642
a(I3
I3
tp643
a(I3
I0
tp644
a(I7
I6
tp645
a(I5
I7
tp646
a(I9
I9
tp647
a(I4
I4
tp648
a(I6
I2
tp649
a(I9
I4
tp650
a(I8
I5
tp651
a(I5
I8
tp652
a(I5
I3
tp653
atp654
Rp655
sg13
((I1
I2
tp656
(I7
I5
tp657
(I7
I2
tp658
(I9
I2
tp659
(I1
I5
tp660
(I9
I0
tp661
(I6
I6
tp662
tp663
sg14
I10
sbs(iproblems
RoomID
p664
(dp665
g10
I15
sg11
(I6
I6
tp666
sg13
I5
sg14
I11
sg15
I11
sg16
I2893396244277848635
sb(imulti_robot_problem
MultiRobotState
p667
(dp668
g19
g20
((lp669
(I7
I3
tp670
a(I4
I7
tp671
a(I5
I5
tp672
a(I4
I8
tp673
a(I5
I6
tp674
a(I2
I8
tp675
ag666
a(I3
I2
tp676
a(I3
I9
tp677
a(I4
I3
tp678
a(I1
I7
tp679
a(I6
I9
tp680
atp681
Rp682
sg15
I11
sg30
g20
((lp683
(I2
I6
tp684
a(I8
I7
tp685
a(I3
I10
tp686
a(I3
I1
tp687
a(I2
I10
tp688
a(I0
I5
tp689
a(I6
I5
tp690
a(I3
I6
tp691
a(I8
I6
tp692
a(I4
I0
tp693
a(I3
I7
tp694
a(I7
I9
tp695
a(I4
I1
tp696
a(I5
I8
tp697
a(I5
I3
tp698
atp699
Rp700
sg13
((I4
I5
tp701
(I0
I9
tp702
(I0
I1
tp703
(I9
I2
tp704
(I8
I10
tp705
tp706
sg14
I11
sbssg160
S'heavy_roomset'
p707
sbsg160
g162
sg163
(dp708
g470
((lp709
F40.340000000000146
tp710
sg516
((lp711
F40.630000000001019
tp712
sg567
((lp713
F40.619999999998981
tp714
sg617
((lp715
F41.569999999999709
tp716
sg664
((lp717
(F30.650000000001455
I27
tp718
aF40.940000000002328
tp719
ssba(imeasure_core
ProblemSetSolution
p720
(dp721
g3
g4
sg160
S"AnytimeBeam-w15-gf(1.5, 'exp')_with_PowerHeuristic2"
p722
sg163
(dp723
g8
((lp724
(F2.6899999999986903
I51
tp725
aF40.309999999997672
tp726
sg49
((lp727
(F0.090000000000145519
I36
tp728
a(F0.90999999999985448
I30
tp729
a(F1.6300000000010186
I29
tp730
a(F6.4700000000011642
I28
tp731
a(F12.740000000001601
I27
tp732
a(F24.900000000001455
I26
tp733
a(F35.270000000000437
I25
tp734
aF40.0
tp735
sg75
((lp736
(F1.0500000000029104
I10
tp737
aF40.130000000004657
tp738
sg105
((lp739
(F0.35999999999330612
I61
tp740
a(F1.3399999999965075
I57
tp741
a(F2.25
I56
tp742
a(F3.4499999999970896
I54
tp743
a(F4.5799999999944703
I52
tp744
a(F6.5399999999935972
I51
tp745
a(F9.3999999999941792
I50
tp746
a(F12.269999999996799
I48
tp747
a(F15.279999999998836
I46
tp748
a(F18.369999999995343
I44
tp749
a(F27.069999999999709
I43
tp750
a(F35.25
I42
tp751
aF40.0
tp752
sg131
((lp753
(F7.4399999999950523
I26
tp754
aF40.049999999995634
tp755
ssba(imeasure_core
ProblemSetSolution
p756
(dp757
g3
g199
sg160
g722
sg163
(dp758
g202
((lp759
(F3.819999999999709
I23
tp760
aF40.319999999999709
tp761
sg251
((lp762
F40.290000000000873
tp763
sg306
((lp764
(F0.76000000000203727
I16
tp765
aF40.139999999999418
tp766
sg355
((lp767
(F0.55999999999767169
I7
tp768
aF40.059999999997672
tp769
sg400
((lp770
(F2.9500000000043656
I33
tp771
aF40.470000000001164
tp772
ssba(imeasure_core
ProblemSetSolution
p773
(dp774
g3
g467
sg160
g722
sg163
(dp775
g470
((lp776
F40.529999999998836
tp777
sg516
((lp778
F40.580000000001746
tp779
sg567
((lp780
F40.610000000000582
tp781
sg617
((lp782
F41.659999999996217
tp783
sg664
((lp784
(F30.740000000005239
I27
tp785
aF41.060000000004948
tp786
ssba(imeasure_core
ProblemSetSolution
p787
(dp788
g3
g4
sg160
S"AnytimeBeam-w25-gf(1.5, 'exp')_with_PowerHeuristic2"
p789
sg163
(dp790
g8
((lp791
(F2.9799999999959255
I51
tp792
aF40.099999999998545
tp793
sg49
((lp794
(F0.08999999999650754
I36
tp795
a(F0.90000000000145519
I30
tp796
a(F1.6299999999973807
I29
tp797
a(F6.4899999999979627
I28
tp798
a(F12.809999999997672
I27
tp799
a(F24.979999999995925
I26
tp800
a(F35.389999999999418
I25
tp801
aF40.0
tp802
sg75
((lp803
(F1.0499999999956344
I10
tp804
aF40.319999999999709
tp805
sg105
((lp806
(F0.34999999999854481
I61
tp807
a(F1.3300000000017462
I57
tp808
a(F2.2399999999979627
I56
tp809
a(F3.4400000000023283
I54
tp810
a(F4.5800000000017462
I52
tp811
a(F6.5299999999988358
I51
tp812
a(F9.3899999999994179
I50
tp813
a(F12.260000000002037
I48
tp814
a(F15.279999999998836
I46
tp815
a(F18.360000000000582
I44
tp816
a(F27.019999999996799
I43
tp817
a(F35.209999999999127
I42
tp818
aF40.0
tp819
sg131
((lp820
(F7.430000000000291
I26
tp821
aF40.089999999996508
tp822
ssba(imeasure_core
ProblemSetSolution
p823
(dp824
g3
g199
sg160
g789
sg163
(dp825
g202
((lp826
(F3.8400000000037835
I23
tp827
aF40.270000000004075
tp828
sg251
((lp829
F40.219999999993888
tp830
sg306
((lp831
(F0.76000000000203727
I16
tp832
aF40.069999999999709
tp833
sg355
((lp834
(F0.55000000000291038
I7
tp835
aF40.030000000006112
tp836
sg400
((lp837
(F2.9599999999991269
I33
tp838
aF40.039999999993597
tp839
ssba(imeasure_core
ProblemSetSolution
p840
(dp841
g3
g467
sg160
g789
sg163
(dp842
g470
((lp843
F40.370000000002619
tp844
sg516
((lp845
F40.389999999999418
tp846
sg567
((lp847
F40.520000000004075
tp848
sg617
((lp849
F41.569999999999709
tp850
sg664
((lp851
(F30.619999999995343
I27
tp852
aF40.930000000000291
tp853
ssba(imeasure_core
ProblemSetSolution
p854
(dp855
g3
g4
sg160
S"AnytimeBeam-w35-gf(1.5, 'exp')_with_PowerHeuristic2"
p856
sg163
(dp857
g8
((lp858
(F3.2900000000008731
I51
tp859
aF40.05000000000291
tp860
sg49
((lp861
(F0.08000000000174623
I36
tp862
a(F0.90000000000145519
I30
tp863
a(F1.6200000000026193
I29
tp864
a(F6.4800000000032014
I28
tp865
a(F12.80000000000291
I27
tp866
a(F24.970000000001164
I26
tp867
a(F35.360000000000582
I25
tp868
aF40.0
tp869
sg75
((lp870
(F1.0599999999976717
I10
tp871
aF40.120000000002619
tp872
sg105
((lp873
(F0.36000000000058208
I61
tp874
a(F1.3399999999965075
I57
tp875
a(F2.25
I56
tp876
a(F3.4499999999970896
I54
tp877
a(F4.5799999999944703
I52
tp878
a(F6.5399999999935972
I51
tp879
a(F9.3999999999941792
I50
tp880
a(F12.239999999997963
I48
tp881
a(F15.239999999997963
I46
tp882
a(F18.32999999999447
I44
tp883
a(F26.989999999997963
I43
tp884
a(F35.149999999994179
I42
tp885
aF40.0
tp886
sg131
((lp887
(F7.3999999999941792
I26
tp888
aF40.019999999996799
tp889
ssba(imeasure_core
ProblemSetSolution
p890
(dp891
g3
g199
sg160
g856
sg163
(dp892
g202
((lp893
(F3.8400000000037835
I23
tp894
aF40.430000000000291
tp895
sg251
((lp896
F40.389999999999418
tp897
sg306
((lp898
(F0.76000000000203727
I16
tp899
aF40.020000000004075
tp900
sg355
((lp901
(F0.54999999999563443
I7
tp902
aF40.009999999994761
tp903
sg400
((lp904
(F2.930000000000291
I33
tp905
aF40.120000000002619
tp906
ssba(imeasure_core
ProblemSetSolution
p907
(dp908
g3
g467
sg160
g856
sg163
(dp909
g470
((lp910
F40.339999999996508
tp911
sg516
((lp912
F40.819999999999709
tp913
sg567
((lp914
F40.560000000004948
tp915
sg617
((lp916
F41.799999999995634
tp917
sg664
((lp918
(F30.75
I27
tp919
aF41.150000000001455
tp920
ssba(imeasure_core
ProblemSetSolution
p921
(dp922
g3
g4
sg160
S"AnytimeBeam-w45-gf(1.5, 'exp')_with_PowerHeuristic2"
p923
sg163
(dp924
g8
((lp925
(F3.5400000000008731
I51
tp926
aF40.059999999997672
tp927
sg49
((lp928
(F0.090000000003783498
I36
tp929
a(F0.91000000000349246
I30
tp930
a(F1.6300000000046566
I29
tp931
a(F6.5100000000020373
I28
tp932
a(F12.810000000004948
I27
tp933
a(F25.0
I26
tp934
a(F35.360000000000582
I25
tp935
aF40.0
tp936
sg75
((lp937
(F1.0500000000029104
I10
tp938
aF40.200000000004366
tp939
sg105
((lp940
(F0.36000000000058208
I61
tp941
a(F1.3300000000017462
I57
tp942
a(F2.25
I56
tp943
a(F3.4599999999991269
I54
tp944
a(F4.5999999999985448
I52
tp945
a(F6.5599999999976717
I51
tp946
a(F9.430000000000291
I50
tp947
a(F12.290000000000873
I48
tp948
a(F15.290000000000873
I46
tp949
a(F18.369999999995343
I44
tp950
a(F27.049999999995634
I43
tp951
a(F35.220000000001164
I42
tp952
aF40.0
tp953
sg131
((lp954
(F7.3799999999973807
I26
tp955
aF40.139999999999418
tp956
ssba(imeasure_core
ProblemSetSolution
p957
(dp958
g3
g199
sg160
g923
sg163
(dp959
g202
((lp960
(F3.8300000000017462
I23
tp961
aF40.479999999995925
tp962
sg251
((lp963
F40.330000000001746
tp964
sg306
((lp965
(F0.76000000000203727
I16
tp966
aF40.010000000002037
tp967
sg355
((lp968
(F0.55999999999767169
I7
tp969
aF40.129999999997381
tp970
sg400
((lp971
(F2.9100000000034925
I33
tp972
aF40.450000000004366
tp973
ssba(imeasure_core
ProblemSetSolution
p974
(dp975
g3
g467
sg160
g923
sg163
(dp976
g470
((lp977
F40.340000000003783
tp978
sg516
((lp979
F40.809999999997672
tp980
sg567
((lp981
F40.5
tp982
sg617
((lp983
F41.790000000000873
tp984
sg664
((lp985
(F30.669999999998254
I27
tp986
aF41.020000000004075
tp987
ssba(imeasure_core
ProblemSetSolution
p988
(dp989
g3
g4
sg160
S"AnytimeBeam-w5-gf(1.5, 'exp')_with_LinearHeuristic"
p990
sg163
(dp991
g8
((lp992
F40.029999999998836
tp993
sg49
((lp994
(F0.0099999999947613105
I25
tp995
aF40.0
tp996
sg75
((lp997
F40.040000000000873
tp998
sg105
((lp999
(F0.029999999998835847
I32
tp1000
a(F0.64999999999417923
I30
tp1001
aF40.009999999994761
tp1002
sg131
((lp1003
(F0.3400000000037835
I8
tp1004
aF40.069999999999709
tp1005
ssba(imeasure_core
ProblemSetSolution
p1006
(dp1007
g3
g199
sg160
g990
sg163
(dp1008
g202
((lp1009
F40.370000000002619
tp1010
sg251
((lp1011
(F30.25
I14
tp1012
aF40.029999999998836
tp1013
sg306
((lp1014
F40.529999999998836
tp1015
sg355
((lp1016
(F1.1399999999994179
I7
tp1017
aF40.559999999997672
tp1018
sg400
((lp1019
F40.209999999999127
tp1020
ssba(imeasure_core
ProblemSetSolution
p1021
(dp1022
g3
g467
sg160
g990
sg163
(dp1023
g470
((lp1024
F40.580000000001746
tp1025
sg516
((lp1026
F43.470000000001164
tp1027
sg567
((lp1028
F49.0
tp1029
sg617
((lp1030
F62.439999999995052
tp1031
sg664
((lp1032
F41.630000000004657
tp1033
ssba(imeasure_core
ProblemSetSolution
p1034
(dp1035
g3
g4
sg160
S"AnytimeBeam-w15-gf(1.5, 'exp')_with_LinearHeuristic"
p1036
sg163
(dp1037
g8
((lp1038
F40.019999999996799
tp1039
sg49
((lp1040
(F0.019999999996798579
I25
tp1041
aF40.0
tp1042
sg75
((lp1043
F40.540000000000873
tp1044
sg105
((lp1045
(F0.029999999998835847
I32
tp1046
a(F0.65000000000145519
I30
tp1047
aF40.010000000002037
tp1048
sg131
((lp1049
(F0.33999999999650754
I8
tp1050
aF40.019999999996799
tp1051
ssba(imeasure_core
ProblemSetSolution
p1052
(dp1053
g3
g199
sg160
g1036
sg163
(dp1054
g202
((lp1055
F40.139999999999418
tp1056
sg251
((lp1057
(F30.830000000001746
I14
tp1058
aF40.029999999998836
tp1059
sg306
((lp1060
F40.569999999999709
tp1061
sg355
((lp1062
(F1.1399999999994179
I7
tp1063
aF40.17000000000553
tp1064
sg400
((lp1065
F40.319999999999709
tp1066
ssba(imeasure_core
ProblemSetSolution
p1067
(dp1068
g3
g467
sg160
g1036
sg163
(dp1069
g470
((lp1070
F40.430000000000291
tp1071
sg516
((lp1072
F40.07999999999447
tp1073
sg567
((lp1074
F48.970000000001164
tp1075
sg617
((lp1076
F62.25
tp1077
sg664
((lp1078
F41.720000000001164
tp1079
ssba(imeasure_core
ProblemSetSolution
p1080
(dp1081
g3
g4
sg160
S"AnytimeBeam-w25-gf(1.5, 'exp')_with_LinearHeuristic"
p1082
sg163
(dp1083
g8
((lp1084
F40.139999999999418
tp1085
sg49
((lp1086
(F0.010000000002037268
I25
tp1087
aF40.0
tp1088
sg75
((lp1089
F40.269999999996799
tp1090
sg105
((lp1091
(F0.029999999998835847
I32
tp1092
a(F0.63999999999941792
I30
tp1093
aF40.010000000002037
tp1094
sg131
((lp1095
(F0.33999999999650754
I8
tp1096
aF40.080000000001746
tp1097
ssba(imeasure_core
ProblemSetSolution
p1098
(dp1099
g3
g199
sg160
g1082
sg163
(dp1100
g202
((lp1101
F40.259999999994761
tp1102
sg251
((lp1103
(F30.140000000006694
I14
tp1104
aF40.030000000006112
tp1105
sg306
((lp1106
F40.549999999995634
tp1107
sg355
((lp1108
(F1.1399999999994179
I7
tp1109
aF40.099999999998545
tp1110
sg400
((lp1111
F40.17000000000553
tp1112
ssba(imeasure_core
ProblemSetSolution
p1113
(dp1114
g3
g467
sg160
g1082
sg163
(dp1115
g470
((lp1116
F40.509999999994761
tp1117
sg516
((lp1118
F40.180000000000291
tp1119
sg567
((lp1120
F49.020000000004075
tp1121
sg617
((lp1122
F62.509999999994761
tp1123
sg664
((lp1124
F41.730000000003201
tp1125
ssba(imeasure_core
ProblemSetSolution
p1126
(dp1127
g3
g4
sg160
S"AnytimeBeam-w35-gf(1.5, 'exp')_with_LinearHeuristic"
p1128
sg163
(dp1129
g8
((lp1130
F40.290000000000873
tp1131
sg49
((lp1132
(F0.019999999996798579
I25
tp1133
aF40.0
tp1134
sg75
((lp1135
F40.319999999999709
tp1136
sg105
((lp1137
(F0.029999999998835847
I32
tp1138
a(F0.63999999999941792
I30
tp1139
aF40.009999999994761
tp1140
sg131
((lp1141
(F0.3400000000037835
I8
tp1142
aF40.010000000002037
tp1143
ssba(imeasure_core
ProblemSetSolution
p1144
(dp1145
g3
g199
sg160
g1128
sg163
(dp1146
g202
((lp1147
F40.190000000002328
tp1148
sg251
((lp1149
(F30.650000000001455
I14
tp1150
aF40.029999999998836
tp1151
sg306
((lp1152
F40.669999999998254
tp1153
sg355
((lp1154
(F1.1300000000046566
I7
tp1155
aF40.279999999998836
tp1156
sg400
((lp1157
F40.200000000004366
tp1158
ssba(imeasure_core
ProblemSetSolution
p1159
(dp1160
g3
g467
sg160
g1128
sg163
(dp1161
g470
((lp1162
F40.710000000006403
tp1163
sg516
((lp1164
F40.32999999999447
tp1165
sg567
((lp1166
F48.970000000001164
tp1167
sg617
((lp1168
F62.230000000003201
tp1169
sg664
((lp1170
F41.779999999998836
tp1171
ssba(imeasure_core
ProblemSetSolution
p1172
(dp1173
g3
g4
sg160
S"AnytimeBeam-w45-gf(1.5, 'exp')_with_LinearHeuristic"
p1174
sg163
(dp1175
g8
((lp1176
F40.069999999999709
tp1177
sg49
((lp1178
(F0.019999999996798579
I25
tp1179
aF40.0
tp1180
sg75
((lp1181
F40.180000000000291
tp1182
sg105
((lp1183
(F0.029999999998835847
I32
tp1184
a(F0.63999999999941792
I30
tp1185
aF40.009999999994761
tp1186
sg131
((lp1187
(F0.3400000000037835
I8
tp1188
aF40.069999999999709
tp1189
ssba(imeasure_core
ProblemSetSolution
p1190
(dp1191
g3
g199
sg160
g1174
sg163
(dp1192
g202
((lp1193
F40.739999999997963
tp1194
sg251
((lp1195
(F30.900000000001455
I14
tp1196
aF40.040000000000873
tp1197
sg306
((lp1198
F40.560000000004948
tp1199
sg355
((lp1200
(F1.1299999999973807
I7
tp1201
aF40.610000000000582
tp1202
sg400
((lp1203
F40.069999999999709
tp1204
ssba(imeasure_core
ProblemSetSolution
p1205
(dp1206
g3
g467
sg160
g1174
sg163
(dp1207
g470
((lp1208
F40.490000000005239
tp1209
sg516
((lp1210
F40.119999999995343
tp1211
sg567
((lp1212
F48.900000000001455
tp1213
sg617
((lp1214
F62.269999999996799
tp1215
sg664
((lp1216
F41.980000000003201
tp1217
ssba.