(lp0
(imeasure_core
ProblemSetSolution
p1
(dp2
S'roomset'
p3
(imeasure_core
RoomSet
p4
(dp5
S'rooms'
p6
(dp7
(iproblems
RoomID
p8
(dp9
S'dusts'
p10
I6
sS'obstacles'
p11
(I5
I1
tp12
sS'robots'
p13
I4
sS'height'
p14
I9
sS'width'
p15
I10
sS'seed'
p16
I2405875930906139466
sb(imulti_robot_problem
MultiRobotState
p17
(dp18
S'obstacle_locations'
p19
c__builtin__
frozenset
p20
((lp21
(I7
I0
tp22
a(I7
I1
tp23
ag12
a(I6
I1
tp24
a(I6
I0
tp25
a(I7
I2
tp26
atp27
Rp28
sg15
I10
sS'dirt_locations'
p29
g20
((lp30
(I7
I3
tp31
a(I2
I1
tp32
a(I6
I4
tp33
a(I5
I6
tp34
a(I5
I2
tp35
a(I0
I7
tp36
atp37
Rp38
sg13
((I7
I6
tp39
(I3
I3
tp40
(I8
I6
tp41
(I0
I2
tp42
tp43
sg14
I9
sbs(iproblems
RoomID
p44
(dp45
g10
I6
sg11
(I6
I7
tp46
sg13
I4
sg14
I10
sg15
I7
sg16
I8744744311366254845
sb(imulti_robot_problem
MultiRobotState
p47
(dp48
g19
g20
((lp49
(I0
I6
tp50
ag46
a(I4
I6
tp51
a(I3
I7
tp52
a(I5
I7
tp53
a(I1
I9
tp54
atp55
Rp56
sg15
I7
sg29
g20
((lp57
(I2
I7
tp58
a(I0
I1
tp59
a(I5
I4
tp60
a(I6
I0
tp61
a(I5
I8
tp62
a(I5
I3
tp63
atp64
Rp65
sg13
((I0
I8
tp66
(I4
I2
tp67
(I3
I0
tp68
(I1
I4
tp69
tp70
sg14
I10
sbs(iproblems
RoomID
p71
(dp72
g10
I10
sg11
(I4
I7
tp73
sg13
I5
sg14
I10
sg15
I8
sg16
I8655808914197340073
sb(imulti_robot_problem
MultiRobotState
p74
(dp75
g19
g20
((lp76
(I2
I7
tp77
ag73
a(I4
I8
tp78
a(I6
I3
tp79
a(I7
I5
tp80
a(I3
I7
tp81
a(I1
I0
tp82
a(I5
I3
tp83
atp84
Rp85
sg15
I8
sg29
g20
((lp86
(I7
I3
tp87
a(I5
I4
tp88
a(I7
I0
tp89
a(I5
I7
tp90
a(I1
I5
tp91
a(I1
I9
tp92
a(I3
I6
tp93
a(I1
I7
tp94
a(I3
I4
tp95
a(I5
I8
tp96
atp97
Rp98
sg13
((I3
I8
tp99
(I7
I9
tp100
(I6
I1
tp101
(I2
I3
tp102
(I5
I5
tp103
tp104
sg14
I10
sbs(iproblems
RoomID
p105
(dp106
g10
I6
sg11
(I4
I6
tp107
sg13
I1
sg14
I8
sg15
I7
sg16
I3537054308274871603
sb(imulti_robot_problem
MultiRobotState
p108
(dp109
g19
g20
((lp110
(I4
I7
tp111
ag107
a(I4
I5
tp112
a(I2
I5
tp113
a(I3
I5
tp114
a(I6
I0
tp115
a(I2
I4
tp116
atp117
Rp118
sg15
I7
sg29
g20
((lp119
(I0
I6
tp120
a(I6
I2
tp121
a(I5
I6
tp122
a(I4
I1
tp123
a(I1
I1
tp124
a(I5
I3
tp125
atp126
Rp127
sg13
((I0
I3
tp128
tp129
sg14
I8
sbs(iproblems
RoomID
p130
(dp131
g10
I8
sg11
(I5
I3
tp132
sg13
I3
sg14
I7
sg15
I7
sg16
I7325839828077136048
sb(imulti_robot_problem
MultiRobotState
p133
(dp134
g19
g20
((lp135
(I6
I4
tp136
a(I5
I4
tp137
a(I5
I5
tp138
a(I6
I6
tp139
a(I3
I1
tp140
a(I6
I0
tp141
a(I2
I0
tp142
a(I0
I4
tp143
ag132
atp144
Rp145
sg15
I7
sg29
g20
((lp146
(I0
I6
tp147
a(I3
I0
tp148
a(I2
I4
tp149
a(I1
I5
tp150
a(I4
I3
tp151
a(I2
I2
tp152
a(I1
I1
tp153
a(I3
I5
tp154
atp155
Rp156
sg13
((I1
I0
tp157
(I3
I3
tp158
(I6
I2
tp159
tp160
sg14
I7
sbssS'name'
p161
S'easy_roomset'
p162
sbsg161
S"AnytimeBeam-w20-gf(1.3, 'exp')_with_PowerHeuristic2"
p163
sS'solutions'
p164
(dp165
g8
((lp166
(F0.48999999999978172
I10
tp167
aF40.440000000000509
tp168
sg44
((lp169
(F1.5799999999999272
I14
tp170
aF40.309999999999491
tp171
sg71
((lp172
(F7.0799999999999272
I9
tp173
aF40.690000000000509
tp174
sg105
((lp175
(F0.11999999999898137
I49
tp176
a(F0.32999999999992724
I47
tp177
a(F0.53999999999905413
I45
tp178
a(F0.7999999999992724
I43
tp179
a(F1.2299999999995634
I41
tp180
a(F1.6499999999996362
I40
tp181
a(F2.6499999999996362
I39
tp182
a(F3.5399999999990541
I38
tp183
a(F4.7899999999990541
I37
tp184
a(F5.9499999999989086
I35
tp185
a(F7.5900000000001455
I33
tp186
a(F9.930000000000291
I31
tp187
a(F11.889999999999418
I29
tp188
a(F13.459999999999127
I27
tp189
a(F15.459999999999127
I25
tp190
a(F19.850000000000364
I24
tp191
a(F23.760000000000218
I22
tp192
a(F27.090000000000146
I20
tp193
aF40.0
tp194
sg130
((lp195
(F28.75
I144
tp196
aF40.0
tp197
ssba(imeasure_core
ProblemSetSolution
p198
(dp199
g3
(imeasure_core
RoomSet
p200
(dp201
g6
(dp202
(iproblems
RoomID
p203
(dp204
g10
I6
sg11
(I1
I8
tp205
sg13
I4
sg14
I11
sg15
I12
sg16
I2405875930906139466
sb(imulti_robot_problem
MultiRobotState
p206
(dp207
g19
g20
((lp208
(I6
I4
tp209
a(I4
I6
tp210
a(I8
I2
tp211
a(I6
I6
tp212
a(I2
I8
tp213
a(I8
I0
tp214
a(I5
I5
tp215
a(I9
I10
tp216
a(I6
I2
tp217
a(I2
I3
tp218
a(I3
I7
tp219
a(I6
I5
tp220
a(I5
I3
tp221
a(I7
I0
tp222
a(I3
I3
tp223
a(I2
I9
tp224
a(I11
I5
tp225
a(I8
I1
tp226
a(I6
I1
tp227
a(I3
I1
tp228
a(I6
I3
tp229
a(I2
I0
tp230
ag205
a(I7
I5
tp231
a(I3
I6
tp232
a(I4
I3
tp233
a(I3
I4
tp234
atp235
Rp236
sg15
I12
sg29
g20
((lp237
(I9
I4
tp238
a(I7
I1
tp239
a(I0
I9
tp240
a(I9
I3
tp241
a(I7
I7
tp242
a(I2
I1
tp243
atp244
Rp245
sg13
((I9
I7
tp246
(I4
I4
tp247
(I10
I8
tp248
(I0
I2
tp249
tp250
sg14
I11
sbs(iproblems
RoomID
p251
(dp252
g10
I10
sg11
(I0
I5
tp253
sg13
I4
sg14
I12
sg15
I10
sg16
I8655808914197340073
sb(imulti_robot_problem
MultiRobotState
p254
(dp255
g19
g20
((lp256
(I5
I9
tp257
a(I5
I4
tp258
a(I5
I7
tp259
a(I6
I6
tp260
a(I4
I8
tp261
a(I8
I0
tp262
a(I0
I7
tp263
a(I7
I5
tp264
a(I2
I3
tp265
a(I1
I4
tp266
a(I6
I8
tp267
a(I1
I11
tp268
a(I9
I6
tp269
a(I5
I8
tp270
a(I4
I6
tp271
a(I3
I8
tp272
a(I6
I7
tp273
a(I5
I5
tp274
a(I3
I4
tp275
a(I4
I4
tp276
a(I6
I3
tp277
a(I2
I0
tp278
a(I6
I5
tp279
ag253
a(I7
I8
tp280
atp281
Rp282
sg15
I10
sg29
g20
((lp283
(I6
I9
tp284
a(I2
I9
tp285
a(I2
I11
tp286
a(I9
I0
tp287
a(I7
I7
tp288
a(I8
I3
tp289
a(I1
I7
tp290
a(I8
I6
tp291
a(I8
I4
tp292
a(I3
I5
tp293
atp294
Rp295
sg13
((I4
I9
tp296
(I8
I11
tp297
(I7
I1
tp298
(I3
I3
tp299
tp300
sg14
I12
sbs(iproblems
RoomID
p301
(dp302
g10
I10
sg11
(I3
I6
tp303
sg13
I4
sg14
I12
sg15
I11
sg16
I4278205817407065157
sb(imulti_robot_problem
MultiRobotState
p304
(dp305
g19
g20
((lp306
(I0
I1
tp307
a(I4
I7
tp308
a(I5
I6
tp309
a(I2
I8
tp310
a(I0
I10
tp311
a(I3
I7
tp312
a(I7
I11
tp313
a(I3
I3
tp314
a(I2
I7
tp315
a(I5
I3
tp316
a(I6
I7
tp317
a(I4
I6
tp318
a(I10
I7
tp319
a(I4
I4
tp320
a(I3
I8
tp321
a(I4
I5
tp322
ag303
a(I1
I10
tp323
a(I3
I5
tp324
a(I1
I9
tp325
atp326
Rp327
sg15
I11
sg29
g20
((lp328
(I1
I2
tp329
a(I8
I1
tp330
a(I9
I2
tp331
a(I6
I1
tp332
a(I5
I7
tp333
a(I8
I9
tp334
a(I3
I0
tp335
a(I9
I4
tp336
a(I0
I2
tp337
a(I4
I0
tp338
atp339
Rp340
sg13
((I6
I10
tp341
(I5
I11
tp342
(I2
I0
tp343
(I9
I1
tp344
tp345
sg14
I12
sbs(iproblems
RoomID
p346
(dp347
g10
I10
sg11
(I11
I0
tp348
sg13
I4
sg14
I9
sg15
I12
sg16
I2796939073032698495
sb(imulti_robot_problem
MultiRobotState
p349
(dp350
g19
g20
((lp351
(I7
I3
tp352
a(I5
I7
tp353
a(I9
I1
tp354
a(I6
I6
tp355
a(I8
I0
tp356
a(I7
I7
tp357
a(I5
I8
tp358
a(I3
I3
tp359
a(I8
I1
tp360
a(I4
I8
tp361
a(I6
I3
tp362
a(I7
I2
tp363
a(I3
I6
tp364
a(I6
I4
tp365
a(I5
I4
tp366
a(I2
I6
tp367
a(I7
I1
tp368
a(I4
I5
tp369
ag348
a(I2
I3
tp370
a(I10
I1
tp371
a(I1
I0
tp372
a(I6
I5
tp373
a(I5
I3
tp374
a(I8
I3
tp375
a(I7
I0
tp376
a(I6
I8
tp377
a(I9
I2
tp378
a(I6
I1
tp379
a(I3
I1
tp380
a(I8
I8
tp381
a(I4
I3
tp382
a(I5
I2
tp383
a(I10
I2
tp384
atp385
Rp386
sg15
I12
sg29
g20
((lp387
(I1
I2
tp388
a(I11
I7
tp389
a(I3
I2
tp390
a(I2
I8
tp391
a(I9
I3
tp392
a(I1
I6
tp393
a(I5
I0
tp394
a(I0
I3
tp395
a(I0
I8
tp396
a(I4
I1
tp397
atp398
Rp399
sg13
((I10
I8
tp400
(I4
I6
tp401
(I11
I4
tp402
(I7
I8
tp403
tp404
sg14
I9
sbs(iproblems
RoomID
p405
(dp406
g10
I6
sg11
(I3
I3
tp407
sg13
I4
sg14
I12
sg15
I12
sg16
I7193062864237573168
sb(imulti_robot_problem
MultiRobotState
p408
(dp409
g19
g20
((lp410
(I6
I4
tp411
a(I5
I4
tp412
a(I1
I3
tp413
a(I6
I6
tp414
a(I7
I1
tp415
a(I9
I3
tp416
a(I0
I7
tp417
a(I1
I6
tp418
a(I2
I5
tp419
a(I0
I8
tp420
a(I10
I3
tp421
a(I8
I3
tp422
a(I3
I1
tp423
ag407
a(I5
I7
tp424
a(I11
I3
tp425
a(I7
I4
tp426
a(I0
I9
tp427
a(I2
I3
tp428
a(I8
I4
tp429
a(I3
I4
tp430
a(I2
I4
tp431
a(I9
I7
tp432
atp433
Rp434
sg15
I12
sg29
g20
((lp435
(I2
I0
tp436
a(I2
I6
tp437
a(I6
I8
tp438
a(I0
I6
tp439
a(I4
I4
tp440
a(I7
I7
tp441
atp442
Rp443
sg13
((I11
I9
tp444
(I11
I2
tp445
(I4
I11
tp446
(I3
I6
tp447
tp448
sg14
I12
sbssg161
S'mild_roomset'
p449
sbsg161
g163
sg164
(dp450
g203
((lp451
(F35.359999999998763
I24
tp452
aF40.099999999998545
tp453
sg251
((lp454
F40.520000000000437
tp455
sg301
((lp456
(F5.0400000000008731
I28
tp457
aF40.1200000000008
tp458
sg346
((lp459
F40.1299999999992
tp460
sg405
((lp461
(F3.4500000000007276
I25
tp462
aF40.140000000001237
tp463
ssba(imeasure_core
ProblemSetSolution
p464
(dp465
g3
(imeasure_core
RoomSet
p466
(dp467
g6
(dp468
(iproblems
RoomID
p469
(dp470
g10
I11
sg11
(I10
I1
tp471
sg13
I7
sg14
I12
sg15
I13
sg16
I2405875930906139466
sb(imulti_robot_problem
MultiRobotState
p472
(dp473
g19
g20
((lp474
(I7
I3
tp475
a(I9
I1
tp476
a(I7
I1
tp477
a(I5
I6
tp478
a(I8
I11
tp479
a(I8
I0
tp480
a(I1
I4
tp481
a(I6
I2
tp482
a(I0
I7
tp483
ag471
a(I10
I3
tp484
a(I7
I2
tp485
a(I10
I4
tp486
a(I11
I7
tp487
a(I9
I0
tp488
a(I11
I5
tp489
a(I7
I4
tp490
a(I1
I5
tp491
a(I10
I2
tp492
a(I11
I6
tp493
a(I8
I4
tp494
atp495
Rp496
sg15
I13
sg29
g20
((lp497
(I12
I5
tp498
a(I10
I11
tp499
a(I8
I1
tp500
a(I7
I8
tp501
a(I8
I6
tp502
a(I6
I3
tp503
a(I2
I0
tp504
a(I2
I3
tp505
a(I5
I1
tp506
a(I10
I0
tp507
a(I3
I4
tp508
atp509
Rp510
sg13
((I10
I8
tp511
(I9
I2
tp512
(I4
I5
tp513
(I11
I8
tp514
(I1
I2
tp515
(I3
I1
tp516
(I0
I10
tp517
tp518
sg14
I12
sbs(iproblems
RoomID
p519
(dp520
g10
I11
sg11
(I7
I9
tp521
sg13
I6
sg14
I13
sg15
I10
sg16
I8744744311366254845
sb(imulti_robot_problem
MultiRobotState
p522
(dp523
g19
g20
((lp524
(I6
I9
tp525
a(I1
I3
tp526
a(I4
I9
tp527
a(I5
I6
tp528
a(I9
I8
tp529
a(I1
I8
tp530
a(I1
I0
tp531
ag521
a(I3
I4
tp532
a(I5
I8
tp533
a(I9
I7
tp534
atp535
Rp536
sg15
I10
sg29
g20
((lp537
(I0
I1
tp538
a(I7
I3
tp539
a(I9
I0
tp540
a(I1
I12
tp541
a(I4
I10
tp542
a(I5
I11
tp543
a(I9
I10
tp544
a(I7
I11
tp545
a(I3
I7
tp546
a(I0
I8
tp547
a(I9
I6
tp548
atp549
Rp550
sg13
((I0
I10
tp551
(I6
I3
tp552
(I4
I0
tp553
(I1
I6
tp554
(I7
I5
tp555
(I9
I9
tp556
tp557
sg14
I13
sbs(iproblems
RoomID
p558
(dp559
g10
I15
sg11
(I5
I8
tp560
sg13
I7
sg14
I13
sg15
I11
sg16
I8655808914197340073
sb(imulti_robot_problem
MultiRobotState
p561
(dp562
g19
g20
((lp563
(I5
I9
tp564
a(I6
I7
tp565
a(I6
I11
tp566
a(I1
I4
tp567
a(I0
I12
tp568
a(I0
I11
tp569
a(I7
I5
tp570
a(I1
I6
tp571
a(I0
I4
tp572
a(I5
I10
tp573
a(I3
I9
tp574
a(I4
I9
tp575
a(I10
I3
tp576
ag560
atp577
Rp578
sg15
I11
sg29
g20
((lp579
(I2
I7
tp580
a(I7
I3
tp581
a(I4
I6
tp582
a(I1
I12
tp583
a(I5
I6
tp584
a(I8
I5
tp585
a(I7
I7
tp586
a(I7
I9
tp587
a(I2
I0
tp588
a(I9
I4
tp589
a(I7
I10
tp590
a(I0
I8
tp591
a(I9
I6
tp592
a(I6
I5
tp593
a(I9
I7
tp594
atp595
Rp596
sg13
((I9
I11
tp597
(I8
I1
tp598
(I3
I4
tp599
(I8
I7
tp600
(I9
I1
tp601
(I2
I10
tp602
(I2
I12
tp603
tp604
sg14
I13
sbs(iproblems
RoomID
p605
(dp606
g10
I15
sg11
(I3
I6
tp607
sg13
I7
sg14
I10
sg15
I13
sg16
I2796939073032698495
sb(imulti_robot_problem
MultiRobotState
p608
(dp609
g19
g20
((lp610
(I5
I9
tp611
a(I6
I9
tp612
a(I4
I6
tp613
a(I5
I0
tp614
a(I6
I6
tp615
a(I4
I5
tp616
a(I5
I4
tp617
a(I6
I7
tp618
a(I6
I2
tp619
a(I0
I5
tp620
a(I8
I7
tp621
a(I5
I1
tp622
a(I6
I4
tp623
a(I12
I9
tp624
a(I5
I8
tp625
a(I5
I3
tp626
a(I2
I7
tp627
a(I4
I9
tp628
a(I5
I5
tp629
a(I3
I1
tp630
a(I4
I8
tp631
a(I2
I0
tp632
a(I3
I9
tp633
a(I6
I5
tp634
ag607
a(I5
I7
tp635
a(I7
I8
tp636
atp637
Rp638
sg15
I13
sg29
g20
((lp639
(I1
I2
tp640
a(I8
I2
tp641
a(I2
I9
tp642
a(I12
I0
tp643
a(I4
I1
tp644
a(I12
I8
tp645
a(I6
I0
tp646
a(I9
I9
tp647
a(I2
I3
tp648
a(I9
I4
tp649
a(I1
I7
tp650
a(I0
I9
tp651
a(I7
I9
tp652
a(I3
I4
tp653
a(I3
I3
tp654
atp655
Rp656
sg13
((I10
I2
tp657
(I11
I8
tp658
(I12
I5
tp659
(I8
I9
tp660
(I10
I3
tp661
(I0
I3
tp662
(I11
I2
tp663
tp664
sg14
I10
sbs(iproblems
RoomID
p665
(dp666
g10
I15
sg11
(I4
I8
tp667
sg13
I6
sg14
I13
sg15
I12
sg16
I4278205817407065157
sb(imulti_robot_problem
MultiRobotState
p668
(dp669
g19
g20
((lp670
(I11
I7
tp671
a(I2
I9
tp672
ag667
a(I5
I6
tp673
a(I2
I8
tp674
a(I6
I10
tp675
a(I3
I8
tp676
a(I11
I8
tp677
a(I3
I9
tp678
a(I1
I10
tp679
a(I1
I11
tp680
a(I7
I8
tp681
a(I2
I4
tp682
atp683
Rp684
sg15
I12
sg29
g20
((lp685
(I1
I2
tp686
a(I0
I1
tp687
a(I5
I4
tp688
a(I5
I7
tp689
a(I10
I4
tp690
a(I7
I1
tp691
a(I3
I1
tp692
a(I10
I5
tp693
a(I4
I7
tp694
a(I9
I9
tp695
a(I0
I10
tp696
a(I4
I3
tp697
a(I8
I12
tp698
a(I4
I1
tp699
a(I0
I2
tp700
atp701
Rp702
sg13
((I7
I10
tp703
(I6
I12
tp704
(I2
I0
tp705
(I9
I1
tp706
(I10
I3
tp707
(I4
I0
tp708
tp709
sg14
I13
sbssg161
S'heavy_roomset'
p710
sbsg161
g163
sg164
(dp711
g469
((lp712
F46.739999999999782
tp713
sg519
((lp714
F42.0
tp715
sg558
((lp716
F43.539999999999054
tp717
sg605
((lp718
F42.780000000000655
tp719
sg665
((lp720
F43.359999999998763
tp721
ssba(imeasure_core
ProblemSetSolution
p722
(dp723
g3
g4
sg161
S"AnytimeBeam-w20-gf(1.5, 'exp')_with_PowerHeuristic2"
p724
sg164
(dp725
g8
((lp726
(F0.48000000000138243
I10
tp727
aF40.329999999999927
tp728
sg44
((lp729
(F1.6000000000003638
I14
tp730
aF40.030000000000655
tp731
sg71
((lp732
(F7.1000000000003638
I9
tp733
aF40.799999999999272
tp734
sg105
((lp735
(F0.12000000000080036
I49
tp736
a(F0.32999999999992724
I47
tp737
a(F0.54000000000087311
I45
tp738
a(F0.81000000000130967
I43
tp739
a(F1.2400000000016007
I41
tp740
a(F1.6600000000016735
I40
tp741
a(F2.6600000000016735
I39
tp742
a(F3.5500000000010914
I38
tp743
a(F4.8000000000010914
I37
tp744
a(F5.9500000000007276
I35
tp745
a(F7.5900000000001455
I33
tp746
a(F9.9000000000014552
I31
tp747
a(F11.860000000000582
I29
tp748
a(F13.420000000000073
I27
tp749
a(F15.420000000000073
I25
tp750
a(F19.800000000001091
I24
tp751
a(F23.710000000000946
I22
tp752
a(F27.020000000000437
I20
tp753
aF40.0
tp754
sg130
((lp755
(F28.790000000000873
I144
tp756
aF40.190000000000509
tp757
ssba(imeasure_core
ProblemSetSolution
p758
(dp759
g3
g200
sg161
g724
sg164
(dp760
g203
((lp761
(F35.420000000000073
I24
tp762
aF40.010000000000218
tp763
sg251
((lp764
F40.020000000000437
tp765
sg301
((lp766
(F5.0499999999992724
I28
tp767
aF40.529999999998836
tp768
sg346
((lp769
F40.1200000000008
tp770
sg405
((lp771
(F3.4699999999993452
I25
tp772
aF40.079999999999927
tp773
ssba(imeasure_core
ProblemSetSolution
p774
(dp775
g3
g466
sg161
g724
sg164
(dp776
g469
((lp777
F46.889999999999418
tp778
sg519
((lp779
F42.200000000000728
tp780
sg558
((lp781
F43.579999999999927
tp782
sg605
((lp783
F42.8799999999992
tp784
sg665
((lp785
F43.520000000000437
tp786
ssba(imeasure_core
ProblemSetSolution
p787
(dp788
g3
g4
sg161
S"AnytimeBeam-w20-gf(1.7, 'exp')_with_PowerHeuristic2"
p789
sg164
(dp790
g8
((lp791
(F0.48000000000320142
I10
tp792
aF40.170000000001892
tp793
sg44
((lp794
(F1.6500000000014552
I14
tp795
aF40.31000000000131
tp796
sg71
((lp797
(F7.0599999999976717
I9
tp798
aF40.909999999999854
tp799
sg105
((lp800
(F0.11999999999898137
I49
tp801
a(F0.32999999999810825
I47
tp802
a(F0.53999999999723514
I45
tp803
a(F0.7999999999992724
I43
tp804
a(F1.2299999999995634
I41
tp805
a(F1.6499999999978172
I40
tp806
a(F2.6399999999994179
I39
tp807
a(F3.5299999999988358
I38
tp808
a(F4.7799999999988358
I37
tp809
a(F5.930000000000291
I35
tp810
a(F7.5599999999976717
I33
tp811
a(F9.8699999999989814
I31
tp812
a(F11.829999999998108
I29
tp813
a(F13.399999999997817
I27
tp814
a(F15.399999999997817
I25
tp815
a(F19.770000000000437
I24
tp816
a(F23.68999999999869
I22
tp817
a(F27.020000000000437
I20
tp818
aF40.0
tp819
sg130
((lp820
(F28.669999999998254
I144
tp821
aF40.049999999999272
tp822
ssba(imeasure_core
ProblemSetSolution
p823
(dp824
g3
g200
sg161
g789
sg164
(dp825
g203
((lp826
(F35.369999999998981
I24
tp827
aF40.130000000001019
tp828
sg251
((lp829
F40.549999999999272
tp830
sg301
((lp831
(F5.0499999999992724
I28
tp832
aF40.559999999997672
tp833
sg346
((lp834
F40.130000000001019
tp835
sg405
((lp836
(F3.4099999999998545
I25
tp837
aF40.090000000000146
tp838
ssba(imeasure_core
ProblemSetSolution
p839
(dp840
g3
g466
sg161
g789
sg164
(dp841
g469
((lp842
F46.889999999999418
tp843
sg519
((lp844
F42.029999999998836
tp845
sg558
((lp846
F43.430000000000291
tp847
sg605
((lp848
F42.669999999998254
tp849
sg665
((lp850
F43.380000000001019
tp851
ssba(imeasure_core
ProblemSetSolution
p852
(dp853
g3
g4
sg161
S"AnytimeBeam-w20-gf(1.8999999999999999, 'exp')_with_PowerHeuristic2"
p854
sg164
(dp855
g8
((lp856
(F0.47999999999956344
I10
tp857
aF40.299999999999272
tp858
sg44
((lp859
(F1.680000000000291
I14
tp860
aF40.130000000001019
tp861
sg71
((lp862
(F7.1199999999989814
I9
tp863
aF41.159999999999854
tp864
sg105
((lp865
(F0.11999999999898137
I49
tp866
a(F0.33000000000174623
I47
tp867
a(F0.54000000000087311
I45
tp868
a(F0.81000000000130967
I43
tp869
a(F1.2400000000016007
I41
tp870
a(F1.6700000000018917
I40
tp871
a(F2.680000000000291
I39
tp872
a(F3.569999999999709
I38
tp873
a(F4.8400000000001455
I37
tp874
a(F6.0
I35
tp875
a(F7.6500000000014552
I33
tp876
a(F9.9900000000016007
I31
tp877
a(F11.959999999999127
I29
tp878
a(F13.529999999998836
I27
tp879
a(F15.540000000000873
I25
tp880
a(F19.920000000001892
I24
tp881
a(F23.799999999999272
I22
tp882
a(F27.090000000000146
I20
tp883
aF40.0
tp884
sg130
((lp885
(F28.68999999999869
I144
tp886
aF40.110000000000582
tp887
ssba(imeasure_core
ProblemSetSolution
p888
(dp889
g3
g200
sg161
g854
sg164
(dp890
g203
((lp891
(F35.409999999999854
I24
tp892
aF40.009999999998399
tp893
sg251
((lp894
F40.190000000002328
tp895
sg301
((lp896
(F5.0900000000001455
I28
tp897
aF40.610000000000582
tp898
sg346
((lp899
F40.069999999999709
tp900
sg405
((lp901
(F3.4699999999975262
I25
tp902
aF40.149999999997817
tp903
ssba(imeasure_core
ProblemSetSolution
p904
(dp905
g3
g466
sg161
g854
sg164
(dp906
g469
((lp907
F46.670000000001892
tp908
sg519
((lp909
F42.009999999998399
tp910
sg558
((lp911
F43.529999999998836
tp912
sg605
((lp913
F42.790000000000873
tp914
sg665
((lp915
F43.409999999999854
tp916
ssba(imeasure_core
ProblemSetSolution
p917
(dp918
g3
g4
sg161
S"AnytimeBeam-w20-gf(1.3, 'exp')_with_LinearHeuristic"
p919
sg164
(dp920
g8
((lp921
F40.370000000002619
tp922
sg44
((lp923
F40.009999999998399
tp924
sg71
((lp925
(F2.4099999999998545
I6
tp926
aF40.5
tp927
sg105
((lp928
(F0.020000000000436557
I22
tp929
a(F0.13999999999941792
I20
tp930
aF40.0
tp931
sg130
((lp932
(F7.569999999999709
I58
tp933
aF40.020000000000437
tp934
ssba(imeasure_core
ProblemSetSolution
p935
(dp936
g3
g200
sg161
g919
sg164
(dp937
g203
((lp938
F40.43999999999869
tp939
sg251
((lp940
F40.979999999999563
tp941
sg301
((lp942
F40.620000000002619
tp943
sg346
((lp944
F40.020000000000437
tp945
sg405
((lp946
F40.299999999999272
tp947
ssba(imeasure_core
ProblemSetSolution
p948
(dp949
g3
g466
sg161
g919
sg164
(dp950
g469
((lp951
F80.959999999999127
tp952
sg519
((lp953
F47.380000000001019
tp954
sg558
((lp955
F81.219999999997526
tp956
sg605
((lp957
F42.409999999999854
tp958
sg665
((lp959
F49.81000000000131
tp960
ssba(imeasure_core
ProblemSetSolution
p961
(dp962
g3
g4
sg161
S"AnytimeBeam-w20-gf(1.5, 'exp')_with_LinearHeuristic"
p963
sg164
(dp964
g8
((lp965
F40.229999999999563
tp966
sg44
((lp967
F40.340000000000146
tp968
sg71
((lp969
(F2.7400000000016007
I6
tp970
aF40.670000000001892
tp971
sg105
((lp972
(F0.019999999996798579
I22
tp973
a(F0.14999999999781721
I20
tp974
aF40.0
tp975
sg130
((lp976
(F7.569999999999709
I58
tp977
aF40.069999999999709
tp978
ssba(imeasure_core
ProblemSetSolution
p979
(dp980
g3
g200
sg161
g963
sg164
(dp981
g203
((lp982
F40.529999999998836
tp983
sg251
((lp984
F41.049999999999272
tp985
sg301
((lp986
F40.069999999999709
tp987
sg346
((lp988
F40.139999999999418
tp989
sg405
((lp990
F40.31000000000131
tp991
ssba(imeasure_core
ProblemSetSolution
p992
(dp993
g3
g466
sg161
g963
sg164
(dp994
g469
((lp995
F80.75
tp996
sg519
((lp997
F47.290000000000873
tp998
sg558
((lp999
F80.840000000000146
tp1000
sg605
((lp1001
F42.630000000001019
tp1002
sg665
((lp1003
F49.679999999996653
tp1004
ssba(imeasure_core
ProblemSetSolution
p1005
(dp1006
g3
g4
sg161
S"AnytimeBeam-w20-gf(1.7, 'exp')_with_LinearHeuristic"
p1007
sg164
(dp1008
g8
((lp1009
F40.460000000002765
tp1010
sg44
((lp1011
F40.219999999997526
tp1012
sg71
((lp1013
(F2.9900000000016007
I6
tp1014
aF40.590000000000146
tp1015
sg105
((lp1016
(F0.020000000000436557
I22
tp1017
a(F0.13999999999941792
I20
tp1018
aF40.0
tp1019
sg130
((lp1020
(F7.5500000000029104
I58
tp1021
aF40.180000000000291
tp1022
ssba(imeasure_core
ProblemSetSolution
p1023
(dp1024
g3
g200
sg161
g1007
sg164
(dp1025
g203
((lp1026
F40.340000000000146
tp1027
sg251
((lp1028
F40.979999999999563
tp1029
sg301
((lp1030
F40.040000000000873
tp1031
sg346
((lp1032
F40.260000000002037
tp1033
sg405
((lp1034
F40.549999999999272
tp1035
ssba(imeasure_core
ProblemSetSolution
p1036
(dp1037
g3
g466
sg161
g1007
sg164
(dp1038
g469
((lp1039
F80.770000000000437
tp1040
sg519
((lp1041
F47.549999999999272
tp1042
sg558
((lp1043
F80.740000000001601
tp1044
sg605
((lp1045
F42.209999999999127
tp1046
sg665
((lp1047
F49.81000000000131
tp1048
ssba(imeasure_core
ProblemSetSolution
p1049
(dp1050
g3
g4
sg161
S"AnytimeBeam-w20-gf(1.8999999999999999, 'exp')_with_LinearHeuristic"
p1051
sg164
(dp1052
g8
((lp1053
F40.619999999998981
tp1054
sg44
((lp1055
F40.290000000000873
tp1056
sg71
((lp1057
(F3.3800000000010186
I6
tp1058
aF40.0
tp1059
sg105
((lp1060
(F0.020000000000436557
I22
tp1061
a(F0.13999999999941792
I20
tp1062
aF40.0
tp1063
sg130
((lp1064
(F7.6100000000005821
I58
tp1065
aF40.209999999999127
tp1066
ssba(imeasure_core
ProblemSetSolution
p1067
(dp1068
g3
g200
sg161
g1051
sg164
(dp1069
g203
((lp1070
F40.599999999998545
tp1071
sg251
((lp1072
F41.030000000002474
tp1073
sg301
((lp1074
F40.549999999999272
tp1075
sg346
((lp1076
F40.159999999999854
tp1077
sg405
((lp1078
F40.340000000000146
tp1079
ssba(imeasure_core
ProblemSetSolution
p1080
(dp1081
g3
g466
sg161
g1051
sg164
(dp1082
g469
((lp1083
F81.139999999999418
tp1084
sg519
((lp1085
F47.389999999999418
tp1086
sg558
((lp1087
F81.0
tp1088
sg605
((lp1089
F42.590000000000146
tp1090
sg665
((lp1091
F49.75
tp1092
ssba.