(lp0
(imeasure_core
ProblemSetSolution
p1
(dp2
S'roomset'
p3
(imeasure_core
RoomSet
p4
(dp5
S'rooms'
p6
(dp7
(iproblems
RoomID
p8
(dp9
S'dusts'
p10
I8
sS'obstacles'
p11
(I5
I7
tp12
sS'robots'
p13
I5
sS'height'
p14
I9
sS'width'
p15
I10
sS'seed'
p16
I5594871498841892311
sb(imulti_robot_problem
MultiRobotState
p17
(dp18
S'obstacle_locations'
p19
c__builtin__
frozenset
p20
((lp21
(I4
I7
tp22
a(I3
I6
tp23
a(I5
I1
tp24
a(I1
I0
tp25
ag12
a(I8
I3
tp26
a(I5
I8
tp27
atp28
Rp29
sg15
I10
sS'dirt_locations'
p30
g20
((lp31
(I0
I1
tp32
a(I9
I0
tp33
a(I8
I2
tp34
a(I6
I0
tp35
a(I1
I1
tp36
a(I1
I5
tp37
a(I9
I4
tp38
a(I2
I4
tp39
atp40
Rp41
sg13
((I7
I6
tp42
(I8
I4
tp43
(I5
I4
tp44
(I7
I2
tp45
(I7
I8
tp46
tp47
sg14
I9
sbs(iproblems
RoomID
p48
(dp49
g10
I6
sg11
(I4
I4
tp50
sg13
I5
sg14
I7
sg15
I8
sg16
I8833747186876682921
sb(imulti_robot_problem
MultiRobotState
p51
(dp52
g19
g20
((lp53
(I2
I2
tp54
ag50
a(I3
I4
tp55
a(I3
I3
tp56
a(I3
I5
tp57
atp58
Rp59
sg15
I8
sg30
g20
((lp60
(I6
I4
tp61
a(I5
I4
tp62
a(I1
I3
tp63
a(I5
I1
tp64
a(I0
I3
tp65
a(I5
I3
tp66
atp67
Rp68
sg13
((I2
I1
tp69
(I6
I1
tp70
(I3
I1
tp71
(I5
I0
tp72
(I7
I3
tp73
tp74
sg14
I7
sbs(iproblems
RoomID
p75
(dp76
g10
I7
sg11
(I5
I2
tp77
sg13
I5
sg14
I8
sg15
I9
sg16
I365562409358139953
sb(imulti_robot_problem
MultiRobotState
p78
(dp79
g19
g20
((lp80
(I6
I4
tp81
a(I5
I5
tp82
a(I2
I1
tp83
a(I3
I7
tp84
a(I2
I5
tp85
ag77
a(I0
I2
tp86
a(I5
I3
tp87
atp88
Rp89
sg15
I9
sg30
g20
((lp90
(I2
I0
tp91
a(I1
I6
tp92
a(I8
I2
tp93
a(I4
I5
tp94
a(I8
I6
tp95
a(I5
I7
tp96
a(I3
I4
tp97
atp98
Rp99
sg13
((I4
I2
tp100
(I8
I3
tp101
(I6
I3
tp102
(I2
I4
tp103
(I6
I7
tp104
tp105
sg14
I8
sbs(iproblems
RoomID
p106
(dp107
g10
I6
sg11
(I2
I3
tp108
sg13
I1
sg14
I8
sg15
I8
sg16
I1085536589165212248
sb(imulti_robot_problem
MultiRobotState
p109
(dp110
g19
g20
((lp111
(I1
I5
tp112
ag108
a(I1
I4
tp113
a(I1
I6
tp114
a(I0
I7
tp115
a(I4
I0
tp116
atp117
Rp118
sg15
I8
sg30
g20
((lp119
(I0
I1
tp120
a(I1
I2
tp121
a(I7
I3
tp122
a(I5
I1
tp123
a(I6
I0
tp124
a(I2
I1
tp125
atp126
Rp127
sg13
((I3
I2
tp128
tp129
sg14
I8
sbs(iproblems
RoomID
p130
(dp131
g10
I5
sg11
(I6
I4
tp132
sg13
I2
sg14
I8
sg15
I10
sg16
I1662056218554549082
sb(imulti_robot_problem
MultiRobotState
p133
(dp134
g19
g20
((lp135
g132
a(I4
I6
tp136
a(I3
I6
tp137
a(I4
I4
tp138
a(I9
I6
tp139
a(I5
I5
tp140
atp141
Rp142
sg15
I10
sg30
g20
((lp143
(I4
I5
tp144
a(I8
I3
tp145
a(I8
I4
tp146
a(I7
I7
tp147
a(I3
I3
tp148
atp149
Rp150
sg13
((I9
I3
tp151
(I2
I0
tp152
tp153
sg14
I8
sbssS'name'
p154
S'easy_roomset'
p155
sbsg154
S"AnytimeBeam-w20-gf(1.3, 'exp')_with_PowerHeuristic2"
p156
sS'solutions'
p157
(dp158
g8
((lp159
(F2.7900000000008731
I13
tp160
aF40.020000000000437
tp161
sg48
((lp162
(F1.5900000000001455
I4
tp163
aF40.740000000001601
tp164
sg75
((lp165
F40.430000000000291
tp166
sg106
((lp167
(F0.059999999997671694
I30
tp168
a(F0.34000000000014552
I28
tp169
a(F0.68999999999869033
I27
tp170
a(F1.069999999999709
I25
tp171
a(F1.3999999999978172
I23
tp172
a(F2.1199999999989814
I21
tp173
a(F3.1999999999970896
I20
tp174
a(F4.6399999999994179
I19
tp175
a(F6.3099999999976717
I17
tp176
a(F7.930000000000291
I15
tp177
aF40.0
tp178
sg130
((lp179
(F0.029999999998835847
I7
tp180
aF40.009999999998399
tp181
ssba(imeasure_core
ProblemSetSolution
p182
(dp183
g3
(imeasure_core
RoomSet
p184
(dp185
g6
(dp186
(iproblems
RoomID
p187
(dp188
g10
I8
sg11
(I9
I3
tp189
sg13
I4
sg14
I11
sg15
I12
sg16
I5594871498841892311
sb(imulti_robot_problem
MultiRobotState
p190
(dp191
g19
g20
((lp192
(I5
I9
tp193
a(I6
I9
tp194
a(I11
I9
tp195
a(I9
I1
tp196
a(I4
I8
tp197
a(I8
I0
tp198
a(I6
I0
tp199
a(I9
I9
tp200
ag189
a(I9
I4
tp201
a(I4
I2
tp202
a(I3
I7
tp203
a(I5
I8
tp204
a(I7
I9
tp205
a(I10
I8
tp206
a(I9
I0
tp207
a(I7
I0
tp208
a(I6
I8
tp209
a(I9
I2
tp210
a(I5
I7
tp211
a(I8
I10
tp212
a(I2
I0
tp213
a(I5
I0
tp214
a(I0
I9
tp215
a(I10
I0
tp216
a(I10
I2
tp217
atp218
Rp219
sg15
I12
sg30
g20
((lp220
(I2
I6
tp221
a(I11
I5
tp222
a(I6
I1
tp223
a(I11
I1
tp224
a(I2
I1
tp225
a(I8
I8
tp226
a(I0
I2
tp227
a(I3
I5
tp228
atp229
Rp230
sg13
((I9
I7
tp231
(I10
I5
tp232
(I6
I5
tp233
(I8
I3
tp234
tp235
sg14
I11
sbs(iproblems
RoomID
p236
(dp237
g10
I6
sg11
(I9
I4
tp238
sg13
I4
sg14
I9
sg15
I10
sg16
I8833747186876682921
sb(imulti_robot_problem
MultiRobotState
p239
(dp240
g19
g20
((lp241
(I4
I7
tp242
a(I4
I8
tp243
a(I4
I5
tp244
a(I2
I1
tp245
a(I7
I5
tp246
a(I2
I3
tp247
ag238
a(I2
I5
tp248
a(I6
I5
tp249
a(I3
I5
tp250
a(I2
I7
tp251
a(I8
I3
tp252
a(I5
I5
tp253
a(I3
I4
tp254
a(I7
I4
tp255
a(I5
I6
tp256
a(I8
I8
tp257
a(I3
I6
tp258
a(I4
I1
tp259
a(I1
I1
tp260
atp261
Rp262
sg15
I10
sg30
g20
((lp263
(I3
I2
tp264
a(I6
I2
tp265
a(I7
I0
tp266
a(I1
I4
tp267
a(I0
I4
tp268
a(I0
I7
tp269
atp270
Rp271
sg13
((I3
I1
tp272
(I8
I1
tp273
(I3
I3
tp274
(I4
I2
tp275
tp276
sg14
I9
sbs(iproblems
RoomID
p277
(dp278
g10
I8
sg11
(I4
I6
tp279
sg13
I3
sg14
I9
sg15
I12
sg16
I4800841617172907184
sb(imulti_robot_problem
MultiRobotState
p280
(dp281
g19
g20
((lp282
(I5
I4
tp283
ag279
a(I8
I7
tp284
a(I6
I6
tp285
a(I4
I5
tp286
a(I9
I8
tp287
a(I9
I3
tp288
a(I6
I0
tp289
a(I2
I1
tp290
a(I10
I1
tp291
a(I4
I2
tp292
a(I8
I5
tp293
a(I7
I2
tp294
a(I5
I3
tp295
a(I8
I3
tp296
a(I3
I1
tp297
a(I3
I3
tp298
a(I11
I8
tp299
a(I7
I1
tp300
a(I11
I3
tp301
a(I6
I3
tp302
a(I0
I6
tp303
a(I4
I3
tp304
a(I8
I6
tp305
a(I8
I4
tp306
a(I9
I7
tp307
atp308
Rp309
sg15
I12
sg30
g20
((lp310
(I11
I4
tp311
a(I8
I2
tp312
a(I10
I7
tp313
a(I7
I6
tp314
a(I1
I4
tp315
a(I11
I0
tp316
a(I9
I2
tp317
a(I0
I2
tp318
atp319
Rp320
sg13
((I9
I1
tp321
(I0
I4
tp322
(I7
I4
tp323
tp324
sg14
I9
sbs(iproblems
RoomID
p325
(dp326
g10
I10
sg11
(I4
I8
tp327
sg13
I3
sg14
I11
sg15
I9
sg16
I6645345695289302126
sb(imulti_robot_problem
MultiRobotState
p328
(dp329
g19
g20
((lp330
(I5
I9
tp331
a(I3
I2
tp332
a(I3
I1
tp333
ag327
a(I4
I5
tp334
a(I1
I4
tp335
a(I4
I2
tp336
a(I3
I7
tp337
a(I4
I6
tp338
a(I3
I3
tp339
a(I4
I1
tp340
a(I6
I1
tp341
a(I4
I4
tp342
a(I2
I4
tp343
a(I3
I8
tp344
a(I1
I5
tp345
a(I4
I3
tp346
a(I3
I5
tp347
a(I3
I4
tp348
a(I1
I1
tp349
a(I8
I4
tp350
atp351
Rp352
sg15
I9
sg30
g20
((lp353
(I0
I1
tp354
a(I5
I4
tp355
a(I6
I7
tp356
a(I8
I2
tp357
a(I8
I7
tp358
a(I8
I8
tp359
a(I2
I3
tp360
a(I3
I6
tp361
a(I1
I0
tp362
a(I5
I5
tp363
atp364
Rp365
sg13
((I1
I6
tp366
(I0
I9
tp367
(I0
I5
tp368
tp369
sg14
I11
sbs(iproblems
RoomID
p370
(dp371
g10
I7
sg11
(I8
I4
tp372
sg13
I4
sg14
I10
sg15
I11
sg16
I365562409358139953
sb(imulti_robot_problem
MultiRobotState
p373
(dp374
g19
g20
((lp375
(I7
I3
tp376
a(I8
I7
tp377
a(I4
I8
tp378
a(I2
I8
tp379
a(I5
I9
tp380
a(I6
I2
tp381
a(I1
I6
tp382
a(I9
I4
tp383
a(I6
I4
tp384
a(I9
I6
tp385
a(I6
I5
tp386
a(I10
I8
tp387
a(I10
I5
tp388
a(I6
I7
tp389
a(I10
I7
tp390
a(I7
I6
tp391
a(I3
I1
tp392
a(I0
I5
tp393
a(I3
I8
tp394
a(I7
I5
tp395
a(I8
I6
tp396
ag372
a(I5
I2
tp397
a(I6
I1
tp398
a(I9
I7
tp399
atp400
Rp401
sg15
I11
sg30
g20
((lp402
(I5
I6
tp403
a(I6
I9
tp404
a(I1
I7
tp405
a(I4
I5
tp406
a(I10
I3
tp407
a(I0
I2
tp408
a(I2
I1
tp409
atp410
Rp411
sg13
((I10
I4
tp412
(I7
I4
tp413
(I3
I6
tp414
(I8
I9
tp415
tp416
sg14
I10
sbssg154
S'mild_roomset'
p417
sbsg154
g156
sg157
(dp418
g187
((lp419
(F6.4500000000007276
I32
tp420
aF40.600000000002183
tp421
sg236
((lp422
(F4.7199999999975262
I32
tp423
aF40.079999999998108
tp424
sg277
((lp425
(F0.42000000000189175
I17
tp426
aF40.009999999998399
tp427
sg325
((lp428
F40.100000000002183
tp429
sg370
((lp430
(F0.73999999999796273
I25
tp431
aF40.029999999998836
tp432
ssba(imeasure_core
ProblemSetSolution
p433
(dp434
g3
(imeasure_core
RoomSet
p435
(dp436
g6
(dp437
(iproblems
RoomID
p438
(dp439
g10
I13
sg11
(I9
I8
tp440
sg13
I7
sg14
I12
sg15
I13
sg16
I5594871498841892311
sb(imulti_robot_problem
MultiRobotState
p441
(dp442
g19
g20
((lp443
(I5
I9
tp444
a(I6
I9
tp445
a(I1
I3
tp446
a(I10
I4
tp447
a(I4
I8
tp448
ag440
a(I1
I4
tp449
a(I11
I3
tp450
a(I8
I6
tp451
a(I9
I6
tp452
a(I5
I5
tp453
a(I9
I5
tp454
a(I6
I7
tp455
a(I6
I8
tp456
a(I6
I10
tp457
a(I8
I10
tp458
a(I5
I0
tp459
a(I10
I0
tp460
a(I7
I9
tp461
a(I9
I7
tp462
atp463
Rp464
sg15
I13
sg30
g20
((lp465
(I2
I7
tp466
a(I10
I5
tp467
a(I11
I5
tp468
a(I6
I1
tp469
a(I8
I0
tp470
a(I2
I1
tp471
a(I2
I0
tp472
a(I0
I10
tp473
a(I7
I10
tp474
a(I12
I10
tp475
a(I5
I2
tp476
a(I0
I2
tp477
a(I3
I5
tp478
atp479
Rp480
sg13
((I10
I8
tp481
(I11
I6
tp482
(I7
I5
tp483
(I9
I3
tp484
(I9
I11
tp485
(I12
I1
tp486
(I9
I9
tp487
tp488
sg14
I12
sbs(iproblems
RoomID
p489
(dp490
g10
I11
sg11
(I8
I7
tp491
sg13
I7
sg14
I10
sg15
I11
sg16
I8833747186876682921
sb(imulti_robot_problem
MultiRobotState
p492
(dp493
g19
g20
((lp494
(I5
I7
tp495
a(I4
I8
tp496
a(I4
I5
tp497
a(I2
I1
tp498
ag491
a(I5
I1
tp499
a(I5
I5
tp500
a(I6
I7
tp501
a(I4
I6
tp502
a(I8
I1
tp503
a(I4
I4
tp504
a(I6
I3
tp505
a(I8
I8
tp506
a(I3
I3
tp507
a(I7
I8
tp508
a(I10
I2
tp509
atp510
Rp511
sg15
I11
sg30
g20
((lp512
(I10
I5
tp513
a(I7
I6
tp514
a(I4
I7
tp515
a(I1
I4
tp516
a(I9
I9
tp517
a(I3
I8
tp518
a(I0
I5
tp519
a(I8
I6
tp520
a(I2
I5
tp521
a(I0
I8
tp522
a(I7
I2
tp523
atp524
Rp525
sg13
((I3
I1
tp526
(I9
I1
tp527
(I5
I2
tp528
(I4
I3
tp529
(I8
I0
tp530
(I10
I4
tp531
(I8
I5
tp532
tp533
sg14
I10
sbs(iproblems
RoomID
p534
(dp535
g10
I11
sg11
(I4
I6
tp536
sg13
I5
sg14
I11
sg15
I11
sg16
I1085536589165212248
sb(imulti_robot_problem
MultiRobotState
p537
(dp538
g19
g20
((lp539
(I10
I5
tp540
a(I2
I6
tp541
ag536
a(I9
I3
tp542
a(I3
I2
tp543
a(I9
I9
tp544
a(I1
I8
tp545
a(I1
I9
tp546
a(I1
I7
tp547
a(I3
I7
tp548
a(I6
I9
tp549
a(I5
I8
tp550
a(I3
I3
tp551
atp552
Rp553
sg15
I11
sg30
g20
((lp554
(I0
I1
tp555
a(I4
I9
tp556
a(I10
I4
tp557
a(I10
I7
tp558
a(I6
I0
tp559
a(I0
I7
tp560
a(I2
I3
tp561
a(I1
I4
tp562
a(I2
I2
tp563
a(I10
I0
tp564
a(I0
I10
tp565
atp566
Rp567
sg13
((I5
I3
tp568
(I0
I2
tp569
(I3
I1
tp570
(I7
I1
tp571
(I9
I0
tp572
tp573
sg14
I11
sbs(iproblems
RoomID
p574
(dp575
g10
I12
sg11
(I0
I5
tp576
sg13
I7
sg14
I11
sg15
I12
sg16
I365562409358139953
sb(imulti_robot_problem
MultiRobotState
p577
(dp578
g19
g20
((lp579
(I1
I3
tp580
a(I6
I6
tp581
a(I0
I4
tp582
a(I7
I5
tp583
ag576
a(I8
I7
tp584
a(I4
I2
tp585
a(I2
I9
tp586
a(I10
I7
tp587
a(I7
I8
tp588
a(I7
I6
tp589
a(I3
I1
tp590
a(I4
I8
tp591
a(I3
I9
tp592
a(I2
I2
tp593
a(I8
I6
tp594
a(I5
I2
tp595
a(I11
I6
tp596
a(I8
I4
tp597
atp598
Rp599
sg15
I12
sg30
g20
((lp600
(I3
I2
tp601
a(I11
I9
tp602
a(I4
I9
tp603
a(I10
I4
tp604
a(I5
I7
tp605
a(I2
I1
tp606
a(I0
I6
tp607
a(I1
I6
tp608
a(I7
I10
tp609
a(I3
I7
tp610
a(I5
I10
tp611
a(I0
I2
tp612
atp613
Rp614
sg13
((I6
I3
tp615
(I10
I5
tp616
(I3
I6
tp617
(I8
I10
tp618
(I4
I6
tp619
(I11
I3
tp620
(I1
I8
tp621
tp622
sg14
I11
sbs(iproblems
RoomID
p623
(dp624
g10
I13
sg11
(I3
I8
tp625
sg13
I5
sg14
I10
sg15
I10
sg16
I5338040351619750409
sb(imulti_robot_problem
MultiRobotState
p626
(dp627
g19
g20
((lp628
(I4
I7
tp629
a(I2
I6
tp630
a(I9
I1
tp631
a(I2
I8
tp632
a(I6
I1
tp633
a(I1
I4
tp634
ag625
a(I1
I6
tp635
a(I4
I3
tp636
a(I1
I7
tp637
a(I2
I5
tp638
a(I9
I7
tp639
a(I2
I4
tp640
a(I6
I8
tp641
atp642
Rp643
sg15
I10
sg30
g20
((lp644
(I6
I9
tp645
a(I1
I3
tp646
a(I4
I9
tp647
a(I4
I6
tp648
a(I6
I6
tp649
a(I8
I3
tp650
a(I2
I1
tp651
a(I8
I9
tp652
a(I1
I8
tp653
a(I7
I5
tp654
a(I3
I6
tp655
a(I9
I6
tp656
a(I4
I0
tp657
atp658
Rp659
sg13
((I2
I0
tp660
(I3
I5
tp661
(I5
I0
tp662
(I5
I2
tp663
(I4
I5
tp664
tp665
sg14
I10
sbssg154
S'heavy_roomset'
p666
sbsg154
g156
sg157
(dp667
g438
((lp668
F44.509999999998399
tp669
sg489
((lp670
F44.950000000000728
tp671
sg623
((lp672
(F7.0399999999972351
I16
tp673
aF40.009999999998399
tp674
sg534
((lp675
(F7.8999999999978172
I15
tp676
aF40.079999999998108
tp677
sg574
((lp678
F47.80000000000291
tp679
ssba(imeasure_core
ProblemSetSolution
p680
(dp681
g3
g4
sg154
S"AnytimeBeam-w20-gf(1.5, 'exp')_with_PowerHeuristic2"
p682
sg157
(dp683
g8
((lp684
(F2.8000000000029104
I13
tp685
aF40.0
tp686
sg48
((lp687
(F2.4000000000014552
I4
tp688
aF41.80000000000291
tp689
sg75
((lp690
F40.19999999999709
tp691
sg106
((lp692
(F0.060000000001309672
I30
tp693
a(F0.34000000000014552
I28
tp694
a(F0.69000000000232831
I27
tp695
a(F1.0800000000017462
I25
tp696
a(F1.4100000000034925
I23
tp697
a(F2.1300000000010186
I21
tp698
a(F3.2200000000011642
I20
tp699
a(F4.6400000000030559
I19
tp700
a(F6.3100000000013097
I17
tp701
a(F7.930000000000291
I15
tp702
aF40.0
tp703
sg130
((lp704
(F0.030000000002473826
I7
tp705
aF40.020000000000437
tp706
ssba(imeasure_core
ProblemSetSolution
p707
(dp708
g3
g184
sg154
g682
sg157
(dp709
g187
((lp710
(F6.430000000000291
I32
tp711
aF40.759999999998399
tp712
sg236
((lp713
(F4.7600000000020373
I32
tp714
aF40.630000000001019
tp715
sg277
((lp716
(F0.40999999999985448
I17
tp717
aF40.040000000000873
tp718
sg325
((lp719
F40.079999999998108
tp720
sg370
((lp721
(F0.74000000000160071
I25
tp722
aF40.100000000002183
tp723
ssba(imeasure_core
ProblemSetSolution
p724
(dp725
g3
g435
sg154
g682
sg157
(dp726
g438
((lp727
F44.520000000000437
tp728
sg489
((lp729
F45.039999999997235
tp730
sg623
((lp731
(F7.0100000000020373
I16
tp732
aF40.25
tp733
sg534
((lp734
(F7.8500000000021828
I15
tp735
aF40.150000000001455
tp736
sg574
((lp737
F47.959999999999127
tp738
ssba(imeasure_core
ProblemSetSolution
p739
(dp740
g3
g4
sg154
S"AnytimeBeam-w20-gf(1.7, 'exp')_with_PowerHeuristic2"
p741
sg157
(dp742
g8
((lp743
(F2.819999999999709
I13
tp744
aF40.43999999999869
tp745
sg48
((lp746
(F2.7700000000004366
I4
tp747
aF40.920000000001892
tp748
sg75
((lp749
F40.270000000000437
tp750
sg106
((lp751
(F0.059999999997671694
I30
tp752
a(F0.34000000000014552
I28
tp753
a(F0.68999999999869033
I27
tp754
a(F1.0799999999981083
I25
tp755
a(F1.4099999999998545
I23
tp756
a(F2.1300000000010186
I21
tp757
a(F3.2099999999991269
I20
tp758
a(F4.6399999999994179
I19
tp759
a(F6.3099999999976717
I17
tp760
a(F7.9399999999986903
I15
tp761
aF40.0
tp762
sg130
((lp763
(F0.029999999998835847
I7
tp764
aF40.009999999998399
tp765
ssba(imeasure_core
ProblemSetSolution
p766
(dp767
g3
g184
sg154
g741
sg157
(dp768
g187
((lp769
(F6.4399999999986903
I32
tp770
aF40.450000000000728
tp771
sg236
((lp772
(F4.7399999999979627
I32
tp773
aF40.059999999997672
tp774
sg277
((lp775
(F0.42000000000189175
I17
tp776
aF40.010000000002037
tp777
sg325
((lp778
F40.069999999999709
tp779
sg370
((lp780
(F0.75
I25
tp781
aF40.049999999999272
tp782
ssba(imeasure_core
ProblemSetSolution
p783
(dp784
g3
g435
sg154
g741
sg157
(dp785
g438
((lp786
F44.5
tp787
sg489
((lp788
F44.600000000002183
tp789
sg623
((lp790
(F7.0300000000024738
I16
tp791
aF40.139999999999418
tp792
sg534
((lp793
(F7.8999999999978172
I15
tp794
aF40.180000000000291
tp795
sg574
((lp796
F47.809999999997672
tp797
ssba(imeasure_core
ProblemSetSolution
p798
(dp799
g3
g4
sg154
S"AnytimeBeam-w20-gf(1.8999999999999999, 'exp')_with_PowerHeuristic2"
p800
sg157
(dp801
g8
((lp802
(F2.7800000000024738
I13
tp803
aF40.920000000001892
tp804
sg48
((lp805
(F2.8100000000013097
I4
tp806
aF41.069999999999709
tp807
sg75
((lp808
F40.68999999999869
tp809
sg106
((lp810
(F0.060000000001309672
I30
tp811
a(F0.34000000000014552
I28
tp812
a(F0.69000000000232831
I27
tp813
a(F1.0800000000017462
I25
tp814
a(F1.4099999999998545
I23
tp815
a(F2.1300000000010186
I21
tp816
a(F3.2100000000027649
I20
tp817
a(F4.6300000000010186
I19
tp818
a(F6.3100000000013097
I17
tp819
a(F7.930000000000291
I15
tp820
aF40.0
tp821
sg130
((lp822
(F0.030000000002473826
I7
tp823
aF40.010000000002037
tp824
ssba(imeasure_core
ProblemSetSolution
p825
(dp826
g3
g184
sg154
g800
sg157
(dp827
g187
((lp828
(F6.3999999999978172
I32
tp829
aF40.569999999999709
tp830
sg236
((lp831
(F4.7200000000011642
I32
tp832
aF40.509999999998399
tp833
sg277
((lp834
(F0.40999999999985448
I17
tp835
aF40.090000000000146
tp836
sg325
((lp837
F40.080000000001746
tp838
sg370
((lp839
(F0.75
I25
tp840
aF40.149999999997817
tp841
ssba(imeasure_core
ProblemSetSolution
p842
(dp843
g3
g435
sg154
g800
sg157
(dp844
g438
((lp845
F44.600000000002183
tp846
sg489
((lp847
F44.549999999999272
tp848
sg623
((lp849
(F7.0
I16
tp850
aF40.119999999998981
tp851
sg534
((lp852
(F7.8800000000010186
I15
tp853
aF40.049999999999272
tp854
sg574
((lp855
F47.740000000001601
tp856
ssba(imeasure_core
ProblemSetSolution
p857
(dp858
g3
g4
sg154
S"AnytimeBeam-w20-gf(1.3, 'exp')_with_LinearHeuristic"
p859
sg157
(dp860
g8
((lp861
F40.380000000001019
tp862
sg48
((lp863
(F0.95999999999912689
I4
tp864
aF40.650000000001455
tp865
sg75
((lp866
(F10.419999999998254
I17
tp867
aF40.509999999998399
tp868
sg106
((lp869
(F0.010000000002037268
I15
tp870
aF40.0
tp871
sg130
((lp872
(F0.040000000000873115
I7
tp873
aF40.030000000002474
tp874
ssba(imeasure_core
ProblemSetSolution
p875
(dp876
g3
g184
sg154
g859
sg157
(dp877
g187
((lp878
F40.75
tp879
sg236
((lp880
F40.959999999999127
tp881
sg277
((lp882
F40.25
tp883
sg325
((lp884
F40.059999999997672
tp885
sg370
((lp886
F40.420000000001892
tp887
ssba(imeasure_core
ProblemSetSolution
p888
(dp889
g3
g435
sg154
g859
sg157
(dp890
g438
((lp891
F54.830000000001746
tp892
sg489
((lp893
F56.700000000000728
tp894
sg623
((lp895
F41.680000000000291
tp896
sg534
((lp897
F41.149999999997817
tp898
sg574
((lp899
F63.220000000001164
tp900
ssba(imeasure_core
ProblemSetSolution
p901
(dp902
g3
g4
sg154
S"AnytimeBeam-w20-gf(1.5, 'exp')_with_LinearHeuristic"
p903
sg157
(dp904
g8
((lp905
F40.369999999998981
tp906
sg48
((lp907
(F0.97999999999956344
I4
tp908
aF41.049999999999272
tp909
sg75
((lp910
(F11.760000000002037
I17
tp911
aF40.360000000000582
tp912
sg106
((lp913
(F0.010000000002037268
I15
tp914
aF40.0
tp915
sg130
((lp916
(F0.040000000000873115
I7
tp917
aF40.020000000000437
tp918
ssba(imeasure_core
ProblemSetSolution
p919
(dp920
g3
g184
sg154
g903
sg157
(dp921
g187
((lp922
F40.479999999999563
tp923
sg236
((lp924
F40.81000000000131
tp925
sg277
((lp926
F40.079999999998108
tp927
sg325
((lp928
F40.069999999999709
tp929
sg370
((lp930
F40.180000000000291
tp931
ssba(imeasure_core
ProblemSetSolution
p932
(dp933
g3
g435
sg154
g903
sg157
(dp934
g438
((lp935
F54.960000000002765
tp936
sg489
((lp937
F57.0
tp938
sg623
((lp939
F41.519999999996799
tp940
sg534
((lp941
F41.299999999999272
tp942
sg574
((lp943
F63.450000000000728
tp944
ssba(imeasure_core
ProblemSetSolution
p945
(dp946
g3
g4
sg154
S"AnytimeBeam-w20-gf(1.7, 'exp')_with_LinearHeuristic"
p947
sg157
(dp948
g8
((lp949
F40.419999999998254
tp950
sg48
((lp951
(F1.069999999999709
I4
tp952
aF40.150000000001455
tp953
sg75
((lp954
(F12.540000000000873
I17
tp955
aF41.490000000001601
tp956
sg106
((lp957
(F0.0099999999983992893
I15
tp958
aF40.0
tp959
sg130
((lp960
(F0.039999999997235136
I7
tp961
aF40.029999999998836
tp962
ssba(imeasure_core
ProblemSetSolution
p963
(dp964
g3
g184
sg154
g947
sg157
(dp965
g187
((lp966
F40.680000000000291
tp967
sg236
((lp968
F40.919999999998254
tp969
sg277
((lp970
F40.049999999999272
tp971
sg325
((lp972
F40.070000000003347
tp973
sg370
((lp974
F40.019999999996799
tp975
ssba(imeasure_core
ProblemSetSolution
p976
(dp977
g3
g435
sg154
g947
sg157
(dp978
g438
((lp979
F54.649999999997817
tp980
sg489
((lp981
F56.890000000003056
tp982
sg623
((lp983
F41.700000000000728
tp984
sg534
((lp985
F41.340000000000146
tp986
sg574
((lp987
F63.579999999998108
tp988
ssba(imeasure_core
ProblemSetSolution
p989
(dp990
g3
g4
sg154
S"AnytimeBeam-w20-gf(1.8999999999999999, 'exp')_with_LinearHeuristic"
p991
sg157
(dp992
g8
((lp993
F40.610000000000582
tp994
sg48
((lp995
(F1.0999999999985448
I4
tp996
aF40.270000000000437
tp997
sg75
((lp998
(F12.299999999999272
I17
tp999
aF41.18999999999869
tp1000
sg106
((lp1001
(F0.0099999999983992893
I15
tp1002
aF40.0
tp1003
sg130
((lp1004
(F0.040000000000873115
I7
tp1005
aF40.020000000000437
tp1006
ssba(imeasure_core
ProblemSetSolution
p1007
(dp1008
g3
g184
sg154
g991
sg157
(dp1009
g187
((lp1010
F40.600000000002183
tp1011
sg236
((lp1012
F41.049999999999272
tp1013
sg277
((lp1014
F40.159999999999854
tp1015
sg325
((lp1016
F40.079999999998108
tp1017
sg370
((lp1018
F40.190000000002328
tp1019
ssba(imeasure_core
ProblemSetSolution
p1020
(dp1021
g3
g435
sg154
g991
sg157
(dp1022
g438
((lp1023
F54.619999999998981
tp1024
sg489
((lp1025
F56.700000000000728
tp1026
sg623
((lp1027
F41.609999999996944
tp1028
sg534
((lp1029
F41.279999999998836
tp1030
sg574
((lp1031
F63.100000000002183
tp1032
ssba.