(lp0
(imeasure_core
ProblemSetSolution
p1
(dp2
S'roomset'
p3
(imeasure_core
RoomSet
p4
(dp5
S'rooms'
p6
(dp7
(iproblems
RoomID
p8
(dp9
S'dusts'
p10
I8
sS'obstacles'
p11
(I0
I4
tp12
sS'robots'
p13
I4
sS'height'
p14
I7
sS'width'
p15
I9
sS'seed'
p16
I1689441204489037471
sb(imulti_robot_problem
MultiRobotState
p17
(dp18
S'obstacle_locations'
p19
c__builtin__
frozenset
p20
((lp21
(I0
I1
tp22
a(I1
I2
tp23
a(I3
I2
tp24
a(I8
I1
tp25
a(I4
I3
tp26
ag12
a(I0
I3
tp27
a(I4
I0
tp28
atp29
Rp30
sg15
I9
sS'dirt_locations'
p31
g20
((lp32
(I0
I0
tp33
a(I7
I0
tp34
a(I7
I6
tp35
a(I1
I4
tp36
a(I6
I2
tp37
a(I2
I3
tp38
a(I5
I1
tp39
a(I3
I5
tp40
atp41
Rp42
sg13
((I6
I0
tp43
(I5
I4
tp44
(I6
I6
tp45
(I5
I0
tp46
tp47
sg14
I7
sbs(iproblems
RoomID
p48
(dp49
g10
I10
sg11
(I4
I5
tp50
sg13
I3
sg14
I8
sg15
I10
sg16
I6660334802794327005
sb(imulti_robot_problem
MultiRobotState
p51
(dp52
g19
g20
((lp53
(I9
I0
tp54
a(I2
I6
tp55
a(I1
I6
tp56
a(I3
I6
tp57
ag50
a(I8
I4
tp58
atp59
Rp60
sg15
I10
sg31
g20
((lp61
(I9
I1
tp62
a(I5
I6
tp63
a(I9
I6
tp64
a(I1
I5
tp65
a(I7
I5
tp66
a(I9
I4
tp67
a(I1
I7
tp68
a(I4
I1
tp69
a(I7
I2
tp70
a(I8
I2
tp71
atp72
Rp73
sg13
((I7
I3
tp74
(I4
I7
tp75
(I4
I2
tp76
tp77
sg14
I8
sbs(iproblems
RoomID
p78
(dp79
g10
I6
sg11
(I8
I4
tp80
sg13
I4
sg14
I10
sg15
I9
sg16
I3119042104763040036
sb(imulti_robot_problem
MultiRobotState
p81
(dp82
g19
g20
((lp83
(I1
I2
tp84
a(I6
I7
tp85
a(I4
I8
tp86
a(I7
I6
tp87
a(I8
I5
tp88
ag80
atp89
Rp90
sg15
I9
sg31
g20
((lp91
(I6
I8
tp92
a(I8
I7
tp93
a(I6
I6
tp94
a(I3
I0
tp95
a(I7
I2
tp96
a(I6
I5
tp97
atp98
Rp99
sg13
((I5
I9
tp100
(I6
I1
tp101
(I3
I4
tp102
(I2
I7
tp103
tp104
sg14
I10
sbs(iproblems
RoomID
p105
(dp106
g10
I7
sg11
(I2
I5
tp107
sg13
I5
sg14
I9
sg15
I9
sg16
I4640892725076559864
sb(imulti_robot_problem
MultiRobotState
p108
(dp109
g19
g20
((lp110
(I2
I6
tp111
a(I6
I7
tp112
a(I0
I6
tp113
a(I3
I1
tp114
a(I1
I5
tp115
a(I1
I6
tp116
a(I0
I4
tp117
ag107
a(I3
I4
tp118
atp119
Rp120
sg15
I9
sg31
g20
((lp121
(I3
I8
tp122
a(I7
I3
tp123
a(I7
I1
tp124
a(I8
I1
tp125
a(I8
I6
tp126
a(I4
I2
tp127
a(I5
I3
tp128
atp129
Rp130
sg13
((I6
I5
tp131
(I8
I4
tp132
(I7
I6
tp133
(I6
I0
tp134
(I6
I3
tp135
tp136
sg14
I9
sbs(iproblems
RoomID
p137
(dp138
g10
I6
sg11
(I3
I0
tp139
sg13
I4
sg14
I10
sg15
I7
sg16
I3914746131789064238
sb(imulti_robot_problem
MultiRobotState
p140
(dp141
g19
g20
((lp142
g139
a(I6
I1
tp143
a(I2
I3
tp144
a(I5
I0
tp145
a(I2
I2
tp146
a(I0
I3
tp147
a(I0
I8
tp148
a(I4
I1
tp149
a(I3
I5
tp150
atp151
Rp152
sg15
I7
sg31
g20
((lp153
(I6
I5
tp154
a(I3
I3
tp155
a(I1
I7
tp156
a(I0
I4
tp157
a(I3
I4
tp158
a(I0
I7
tp159
atp160
Rp161
sg13
((I1
I8
tp162
(I5
I1
tp163
(I5
I3
tp164
(I1
I9
tp165
tp166
sg14
I10
sbssS'name'
p167
S'easy_roomset'
p168
sbsg167
S"AnytimeBeam-w20-gf(2, 'lin')_with_PowerHeuristic2"
p169
sS'solutions'
p170
(dp171
g8
((lp172
(F0.34000000000014552
I8
tp173
aF40.150000000001455
tp174
sg48
((lp175
(F0.48999999999978172
I23
tp176
aF40.0
tp177
sg78
((lp178
(F1.0399999999990541
I11
tp179
aF40.069999999999709
tp180
sg105
((lp181
(F2.5399999999990541
I6
tp182
aF40.199999999998909
tp183
sg137
((lp184
(F0.5
I7
tp185
aF40.0
tp186
ssba(imeasure_core
ProblemSetSolution
p187
(dp188
g3
(imeasure_core
RoomSet
p189
(dp190
g6
(dp191
(iproblems
RoomID
p192
(dp193
g10
I6
sg11
(I5
I5
tp194
sg13
I4
sg14
I12
sg15
I11
sg16
I3119042104763040036
sb(imulti_robot_problem
MultiRobotState
p195
(dp196
g19
g20
((lp197
(I4
I6
tp198
a(I10
I4
tp199
a(I3
I0
tp200
a(I9
I8
tp201
a(I10
I6
tp202
a(I2
I1
tp203
a(I8
I9
tp204
a(I2
I3
tp205
a(I0
I10
tp206
a(I9
I5
tp207
a(I10
I3
tp208
a(I7
I9
tp209
ag194
a(I10
I7
tp210
a(I7
I8
tp211
a(I4
I4
tp212
a(I9
I2
tp213
a(I2
I4
tp214
a(I4
I5
tp215
a(I2
I2
tp216
a(I3
I3
tp217
a(I3
I4
tp218
a(I1
I1
tp219
atp220
Rp221
sg15
I11
sg31
g20
((lp222
(I8
I3
tp223
a(I8
I8
tp224
a(I5
I10
tp225
a(I9
I4
tp226
a(I8
I6
tp227
a(I10
I9
tp228
atp229
Rp230
sg13
((I6
I11
tp231
(I7
I2
tp232
(I2
I8
tp233
(I8
I10
tp234
tp235
sg14
I12
sbs(iproblems
RoomID
p236
(dp237
g10
I6
sg11
(I4
I8
tp238
sg13
I4
sg14
I12
sg15
I9
sg16
I3914746131789064238
sb(imulti_robot_problem
MultiRobotState
p239
(dp240
g19
g20
((lp241
(I4
I6
tp242
a(I6
I6
tp243
a(I4
I5
tp244
a(I5
I7
tp245
a(I0
I5
tp246
a(I0
I10
tp247
a(I8
I7
tp248
a(I7
I0
tp249
a(I0
I3
tp250
a(I8
I5
tp251
a(I4
I0
tp252
a(I2
I3
tp253
a(I6
I7
tp254
a(I3
I3
tp255
a(I8
I1
tp256
a(I7
I6
tp257
a(I3
I1
tp258
ag238
a(I5
I0
tp259
a(I2
I2
tp260
a(I0
I9
tp261
a(I8
I6
tp262
a(I5
I3
tp263
a(I6
I1
tp264
atp265
Rp266
sg15
I9
sg31
g20
((lp267
(I1
I8
tp268
a(I1
I9
tp269
a(I4
I3
tp270
a(I4
I4
tp271
a(I2
I11
tp272
a(I2
I10
tp273
atp274
Rp275
sg13
((I1
I10
tp276
(I6
I2
tp277
(I7
I3
tp278
(I1
I11
tp279
tp280
sg14
I12
sbs(iproblems
RoomID
p281
(dp282
g10
I9
sg11
(I9
I9
tp283
sg13
I3
sg14
I10
sg15
I10
sg16
I3273124617966689144
sb(imulti_robot_problem
MultiRobotState
p284
(dp285
g19
g20
((lp286
(I7
I3
tp287
a(I5
I4
tp288
a(I1
I3
tp289
a(I6
I4
tp290
a(I4
I5
tp291
a(I9
I8
tp292
a(I3
I2
tp293
a(I7
I5
tp294
a(I1
I6
tp295
a(I2
I5
tp296
a(I0
I8
tp297
a(I9
I6
tp298
a(I6
I5
tp299
a(I5
I3
tp300
a(I3
I3
tp301
a(I5
I5
tp302
a(I7
I6
tp303
ag283
a(I6
I3
tp304
a(I4
I3
tp305
a(I2
I3
tp306
a(I8
I6
tp307
a(I2
I4
tp308
a(I9
I7
tp309
atp310
Rp311
sg15
I10
sg31
g20
((lp312
(I7
I0
tp313
a(I3
I0
tp314
a(I6
I1
tp315
a(I3
I1
tp316
a(I5
I0
tp317
a(I2
I2
tp318
a(I3
I4
tp319
a(I1
I1
tp320
a(I8
I4
tp321
atp322
Rp323
sg13
((I0
I7
tp324
(I2
I1
tp325
(I6
I6
tp326
tp327
sg14
I10
sbs(iproblems
RoomID
p328
(dp329
g10
I5
sg11
(I5
I7
tp330
sg13
I4
sg14
I9
sg15
I12
sg16
I659184109953178577
sb(imulti_robot_problem
MultiRobotState
p331
(dp332
g19
g20
((lp333
(I7
I3
tp334
a(I4
I7
tp335
a(I8
I2
tp336
a(I6
I6
tp337
a(I4
I5
tp338
a(I7
I7
tp339
a(I11
I0
tp340
a(I7
I5
tp341
a(I9
I4
tp342
a(I2
I5
tp343
a(I0
I8
tp344
a(I10
I3
tp345
a(I7
I2
tp346
a(I4
I6
tp347
a(I6
I4
tp348
a(I4
I3
tp349
a(I3
I3
tp350
a(I6
I1
tp351
ag330
a(I6
I5
tp352
a(I3
I6
tp353
a(I8
I6
tp354
a(I3
I4
tp355
atp356
Rp357
sg15
I12
sg31
g20
((lp358
(I10
I8
tp359
a(I4
I1
tp360
a(I0
I2
tp361
a(I1
I6
tp362
a(I10
I4
tp363
atp364
Rp365
sg13
((I10
I0
tp366
(I7
I0
tp367
(I2
I6
tp368
(I8
I3
tp369
tp370
sg14
I9
sbs(iproblems
RoomID
p371
(dp372
g10
I9
sg11
(I9
I10
tp373
sg13
I3
sg14
I11
sg15
I10
sg16
I4253868527325451640
sb(imulti_robot_problem
MultiRobotState
p374
(dp375
g19
g20
((lp376
(I7
I3
tp377
a(I4
I7
tp378
a(I2
I6
tp379
a(I7
I10
tp380
a(I4
I8
tp381
a(I6
I9
tp382
ag373
a(I3
I9
tp383
a(I1
I6
tp384
a(I3
I7
tp385
a(I2
I5
tp386
a(I8
I5
tp387
a(I5
I8
tp388
a(I7
I9
tp389
a(I7
I1
tp390
a(I8
I10
tp391
a(I5
I0
tp392
a(I2
I3
tp393
a(I3
I5
tp394
a(I3
I4
tp395
a(I2
I4
tp396
atp397
Rp398
sg15
I10
sg31
g20
((lp399
(I8
I9
tp400
a(I5
I10
tp401
a(I6
I8
tp402
a(I7
I6
tp403
a(I3
I8
tp404
a(I0
I10
tp405
a(I9
I4
tp406
a(I0
I9
tp407
a(I5
I3
tp408
atp409
Rp410
sg13
((I3
I6
tp411
(I0
I8
tp412
(I2
I1
tp413
tp414
sg14
I11
sbssg167
S'mild_roomset'
p415
sbsg167
g169
sg170
(dp416
g192
((lp417
(F12.380000000001019
I164
tp418
aF40.380000000001019
tp419
sg236
((lp420
(F0.70999999999912689
I6
tp421
aF40.010000000000218
tp422
sg281
((lp423
(F7.3400000000001455
I52
tp424
aF40.010000000000218
tp425
sg328
((lp426
(F2.7799999999988358
I18
tp427
aF40.0
tp428
sg371
((lp429
(F0.88999999999941792
I32
tp430
aF40.019999999998618
tp431
ssba(imeasure_core
ProblemSetSolution
p432
(dp433
g3
(imeasure_core
RoomSet
p434
(dp435
g6
(dp436
(iproblems
RoomID
p437
(dp438
g10
I13
sg11
(I3
I4
tp439
sg13
I6
sg14
I10
sg15
I12
sg16
I1689441204489037471
sb(imulti_robot_problem
MultiRobotState
p440
(dp441
g19
g20
((lp442
(I7
I3
tp443
a(I1
I3
tp444
a(I8
I7
tp445
a(I10
I6
tp446
a(I7
I7
tp447
a(I6
I2
tp448
a(I1
I6
tp449
a(I9
I4
tp450
a(I4
I2
tp451
a(I5
I1
tp452
a(I10
I3
tp453
a(I2
I7
tp454
a(I9
I3
tp455
a(I9
I5
tp456
a(I0
I5
tp457
a(I11
I5
tp458
a(I8
I5
tp459
a(I5
I2
tp460
a(I0
I2
tp461
a(I3
I8
tp462
a(I4
I3
tp463
a(I0
I4
tp464
ag439
a(I8
I6
tp465
a(I4
I1
tp466
a(I1
I1
tp467
a(I8
I4
tp468
atp469
Rp470
sg15
I12
sg31
g20
((lp471
(I8
I9
tp472
a(I9
I0
tp473
a(I0
I0
tp474
a(I10
I4
tp475
a(I4
I8
tp476
a(I8
I1
tp477
a(I11
I2
tp478
a(I5
I4
tp479
a(I7
I4
tp480
a(I11
I8
tp481
a(I2
I6
tp482
a(I2
I3
tp483
a(I1
I5
tp484
atp485
Rp486
sg13
((I8
I0
tp487
(I7
I6
tp488
(I8
I8
tp489
(I7
I0
tp490
(I2
I4
tp491
(I9
I9
tp492
tp493
sg14
I10
sbs(iproblems
RoomID
p494
(dp495
g10
I15
sg11
(I10
I7
tp496
sg13
I6
sg14
I11
sg15
I13
sg16
I6660334802794327005
sb(imulti_robot_problem
MultiRobotState
p497
(dp498
g19
g20
((lp499
(I4
I7
tp500
a(I11
I7
tp501
a(I5
I6
tp502
a(I2
I8
tp503
a(I9
I9
tp504
a(I9
I10
tp505
a(I10
I8
tp506
a(I9
I0
tp507
ag496
a(I5
I7
tp508
a(I8
I10
tp509
a(I3
I8
tp510
a(I1
I5
tp511
a(I1
I8
tp512
a(I1
I10
tp513
a(I10
I0
tp514
a(I2
I4
tp515
atp516
Rp517
sg15
I13
sg31
g20
((lp518
(I2
I7
tp519
a(I12
I2
tp520
a(I6
I9
tp521
a(I6
I10
tp522
a(I12
I1
tp523
a(I2
I9
tp524
a(I12
I0
tp525
a(I12
I9
tp526
a(I11
I2
tp527
a(I10
I6
tp528
a(I1
I7
tp529
a(I12
I5
tp530
a(I6
I3
tp531
a(I10
I3
tp532
a(I12
I8
tp533
atp534
Rp535
sg13
((I9
I5
tp536
(I5
I10
tp537
(I5
I3
tp538
(I5
I1
tp539
(I9
I3
tp540
(I7
I8
tp541
tp542
sg14
I11
sbs(iproblems
RoomID
p543
(dp544
g10
I12
sg11
(I8
I7
tp545
sg13
I7
sg14
I12
sg15
I12
sg16
I4640892725076559864
sb(imulti_robot_problem
MultiRobotState
p546
(dp547
g19
g20
((lp548
(I5
I9
tp549
a(I6
I9
tp550
a(I4
I8
tp551
a(I5
I6
tp552
a(I2
I8
tp553
a(I6
I0
tp554
a(I2
I10
tp555
a(I0
I9
tp556
a(I6
I2
tp557
ag545
a(I3
I7
tp558
a(I5
I1
tp559
a(I1
I0
tp560
a(I8
I5
tp561
a(I7
I9
tp562
a(I7
I4
tp563
a(I7
I0
tp564
a(I6
I8
tp565
a(I2
I9
tp566
a(I0
I6
tp567
a(I7
I6
tp568
a(I5
I7
tp569
a(I8
I10
tp570
a(I0
I2
tp571
a(I6
I3
tp572
a(I2
I0
tp573
a(I1
I8
tp574
a(I4
I5
tp575
a(I5
I2
tp576
a(I1
I1
tp577
a(I9
I7
tp578
atp579
Rp580
sg15
I12
sg31
g20
((lp581
(I2
I7
tp582
a(I6
I4
tp583
a(I11
I10
tp584
a(I4
I6
tp585
a(I11
I8
tp586
a(I11
I2
tp587
a(I9
I3
tp588
a(I3
I2
tp589
a(I8
I8
tp590
a(I0
I5
tp591
a(I10
I3
tp592
a(I5
I3
tp593
atp594
Rp595
sg13
((I8
I6
tp596
(I11
I5
tp597
(I10
I8
tp598
(I9
I0
tp599
(I9
I4
tp600
(I9
I2
tp601
(I4
I11
tp602
tp603
sg14
I12
sbs(iproblems
RoomID
p604
(dp605
g10
I11
sg11
(I6
I1
tp606
sg13
I7
sg14
I13
sg15
I10
sg16
I3914746131789064238
sb(imulti_robot_problem
MultiRobotState
p607
(dp608
g19
g20
((lp609
(I0
I0
tp610
a(I7
I0
tp611
a(I9
I1
tp612
a(I2
I9
tp613
a(I7
I1
tp614
a(I9
I2
tp615
ag606
a(I6
I3
tp616
a(I8
I1
tp617
a(I7
I2
tp618
a(I5
I1
tp619
a(I7
I8
tp620
a(I6
I5
tp621
a(I5
I5
tp622
atp623
Rp624
sg15
I10
sg31
g20
((lp625
(I4
I7
tp626
a(I3
I3
tp627
a(I4
I5
tp628
a(I4
I4
tp629
a(I1
I4
tp630
a(I0
I11
tp631
a(I0
I5
tp632
a(I0
I10
tp633
a(I8
I7
tp634
a(I9
I5
tp635
a(I5
I3
tp636
atp637
Rp638
sg13
((I1
I11
tp639
(I8
I4
tp640
(I2
I12
tp641
(I1
I9
tp642
(I2
I11
tp643
(I5
I4
tp644
(I5
I0
tp645
tp646
sg14
I13
sbs(iproblems
RoomID
p647
(dp648
g10
I11
sg11
(I7
I6
tp649
sg13
I7
sg14
I13
sg15
I12
sg16
I3119042104763040036
sb(imulti_robot_problem
MultiRobotState
p650
(dp651
g19
g20
((lp652
(I5
I4
tp653
a(I4
I5
tp654
a(I9
I8
tp655
a(I10
I6
tp656
a(I9
I0
tp657
a(I6
I0
tp658
a(I8
I9
tp659
a(I2
I12
tp660
a(I9
I6
tp661
a(I10
I5
tp662
a(I5
I10
tp663
a(I10
I7
tp664
ag649
a(I9
I9
tp665
a(I8
I6
tp666
a(I11
I6
tp667
a(I9
I7
tp668
atp669
Rp670
sg15
I12
sg31
g20
((lp671
(I1
I2
tp672
a(I4
I4
tp673
a(I5
I11
tp674
a(I5
I6
tp675
a(I3
I4
tp676
a(I8
I0
tp677
a(I8
I10
tp678
a(I0
I11
tp679
a(I2
I3
tp680
a(I7
I8
tp681
a(I4
I0
tp682
atp683
Rp684
sg13
((I7
I12
tp685
(I8
I2
tp686
(I4
I6
tp687
(I3
I9
tp688
(I9
I11
tp689
(I11
I9
tp690
(I9
I3
tp691
tp692
sg14
I13
sbssg167
S'heavy_roomset'
p693
sbsg167
g169
sg170
(dp694
g437
((lp695
F40.270000000000437
tp696
sg494
((lp697
(F19.649999999999636
I11
tp698
aF41.010000000000218
tp699
sg647
((lp700
F46.179999999998472
tp701
sg604
((lp702
F40.150000000001455
tp703
sg543
((lp704
F40.719999999999345
tp705
ssba(imeasure_core
ProblemSetSolution
p706
(dp707
g3
g4
sg167
S"AnytimeBeam-w20-gf(4, 'lin')_with_PowerHeuristic2"
p708
sg170
(dp709
g8
((lp710
(F0.3500000000003638
I8
tp711
aF40.070000000001528
tp712
sg48
((lp713
(F0.5
I23
tp714
aF40.019999999998618
tp715
sg78
((lp716
(F1.3000000000010914
I11
tp717
aF40.030000000000655
tp718
sg105
((lp719
(F2.8899999999994179
I6
tp720
aF40.889999999999418
tp721
sg137
((lp722
(F0.55000000000109139
I7
tp723
aF40.180000000000291
tp724
ssba(imeasure_core
ProblemSetSolution
p725
(dp726
g3
g189
sg167
g708
sg170
(dp727
g192
((lp728
(F13.030000000000655
I164
tp729
aF40.020000000000437
tp730
sg236
((lp731
(F0.73999999999978172
I6
tp732
aF40.069999999999709
tp733
sg281
((lp734
(F7.8600000000005821
I52
tp735
aF40.0
tp736
sg328
((lp737
(F2.9400000000005093
I18
tp738
aF40.139999999999418
tp739
sg371
((lp740
(F0.88000000000101863
I32
tp741
aF40.1200000000008
tp742
ssba(imeasure_core
ProblemSetSolution
p743
(dp744
g3
g434
sg167
g708
sg170
(dp745
g437
((lp746
F40.949999999998909
tp747
sg494
((lp748
(F20.300000000001091
I11
tp749
aF40.010000000000218
tp750
sg647
((lp751
F46.739999999999782
tp752
sg604
((lp753
F41.369999999998981
tp754
sg543
((lp755
F40.300000000001091
tp756
ssba(imeasure_core
ProblemSetSolution
p757
(dp758
g3
g4
sg167
S"AnytimeBeam-w20-gf(8, 'lin')_with_PowerHeuristic2"
p759
sg170
(dp760
g8
((lp761
(F0.3500000000003638
I8
tp762
aF40.070000000001528
tp763
sg48
((lp764
(F0.50999999999839929
I23
tp765
aF40.039999999999054
tp766
sg78
((lp767
(F1.5599999999994907
I11
tp768
aF40.100000000000364
tp769
sg105
((lp770
(F3.2899999999990541
I6
tp771
aF40.829999999999927
tp772
sg137
((lp773
(F0.59000000000014552
I7
tp774
aF40.270000000000437
tp775
ssba(imeasure_core
ProblemSetSolution
p776
(dp777
g3
g189
sg167
g759
sg170
(dp778
g192
((lp779
(F14.149999999999636
I164
tp780
aF40.559999999999491
tp781
sg236
((lp782
(F0.7999999999992724
I6
tp783
aF40.020000000000437
tp784
sg281
((lp785
(F14.259999999998399
I47
tp786
aF40.209999999999127
tp787
sg328
((lp788
(F3.2800000000006548
I18
tp789
aF40.090000000000146
tp790
sg371
((lp791
(F0.8999999999996362
I32
tp792
aF40.030000000000655
tp793
ssba(imeasure_core
ProblemSetSolution
p794
(dp795
g3
g434
sg167
g759
sg170
(dp796
g437
((lp797
F40.549999999999272
tp798
sg494
((lp799
(F21.860000000000582
I11
tp800
aF40.5
tp801
sg647
((lp802
F47.010000000000218
tp803
sg604
((lp804
F41.909999999999854
tp805
sg543
((lp806
F40.440000000000509
tp807
ssba(imeasure_core
ProblemSetSolution
p808
(dp809
g3
g4
sg167
S"AnytimeBeam-w20-gf(16, 'lin')_with_PowerHeuristic2"
p810
sg170
(dp811
g8
((lp812
(F0.34999999999854481
I8
tp813
aF40.25
tp814
sg48
((lp815
(F0.5
I23
tp816
aF40.049999999999272
tp817
sg78
((lp818
(F1.7099999999991269
I11
tp819
aF40.270000000000437
tp820
sg105
((lp821
(F3.8099999999994907
I6
tp822
aF41.090000000000146
tp823
sg137
((lp824
(F0.60999999999876309
I7
tp825
aF40.279999999998836
tp826
ssba(imeasure_core
ProblemSetSolution
p827
(dp828
g3
g189
sg167
g810
sg170
(dp829
g192
((lp830
(F16.680000000000291
I164
tp831
aF40.159999999999854
tp832
sg236
((lp833
(F0.79000000000087311
I6
tp834
aF40.180000000000291
tp835
sg281
((lp836
(F16.030000000000655
I47
tp837
aF40.079999999999927
tp838
sg328
((lp839
(F3.6200000000008004
I18
tp840
aF40.390000000001237
tp841
sg371
((lp842
(F0.88999999999941792
I32
tp843
aF40.009999999998399
tp844
ssba(imeasure_core
ProblemSetSolution
p845
(dp846
g3
g434
sg167
g810
sg170
(dp847
g437
((lp848
F40.450000000000728
tp849
sg494
((lp850
(F23.760000000000218
I11
tp851
aF40.289999999999054
tp852
sg647
((lp853
F47.909999999999854
tp854
sg604
((lp855
F41.020000000000437
tp856
sg543
((lp857
F40.140000000001237
tp858
ssba(imeasure_core
ProblemSetSolution
p859
(dp860
g3
g4
sg167
S"AnytimeBeam-w20-gf(2, 'lin')_with_LinearHeuristic"
p861
sg170
(dp862
g8
((lp863
(F32.830000000001746
I223
tp864
aF40.030000000000655
tp865
sg48
((lp866
(F2.8800000000010186
I49
tp867
aF40.040000000000873
tp868
sg78
((lp869
(F21.319999999999709
I165
tp870
aF40.25
tp871
sg105
((lp872
(F2.1299999999991996
I6
tp873
aF40.3799999999992
tp874
sg137
((lp875
F40.090000000000146
tp876
ssba(imeasure_core
ProblemSetSolution
p877
(dp878
g3
g189
sg167
g861
sg170
(dp879
g192
((lp880
F40.739999999999782
tp881
sg236
((lp882
(F0.52000000000043656
I12
tp883
aF40.300000000001091
tp884
sg281
((lp885
F40.049999999999272
tp886
sg328
((lp887
F40.030000000000655
tp888
sg371
((lp889
F40.049999999999272
tp890
ssba(imeasure_core
ProblemSetSolution
p891
(dp892
g3
g434
sg167
g861
sg170
(dp893
g437
((lp894
F40.360000000000582
tp895
sg494
((lp896
F40.8799999999992
tp897
sg647
((lp898
F45.090000000000146
tp899
sg604
((lp900
F45.8700000000008
tp901
sg543
((lp902
F41.469999999999345
tp903
ssba(imeasure_core
ProblemSetSolution
p904
(dp905
g3
g4
sg167
S"AnytimeBeam-w20-gf(4, 'lin')_with_LinearHeuristic"
p906
sg170
(dp907
g8
((lp908
(F32.920000000000073
I223
tp909
aF40.069999999999709
tp910
sg48
((lp911
(F4.0100000000002183
I49
tp912
aF40.020000000000437
tp913
sg78
((lp914
(F21.989999999999782
I165
tp915
aF40.0
tp916
sg105
((lp917
(F2.2799999999988358
I6
tp918
aF41.090000000000146
tp919
sg137
((lp920
F40.099999999998545
tp921
ssba(imeasure_core
ProblemSetSolution
p922
(dp923
g3
g189
sg167
g906
sg170
(dp924
g192
((lp925
F40.360000000000582
tp926
sg236
((lp927
(F0.6000000000003638
I12
tp928
aF40.059999999999491
tp929
sg281
((lp930
F40.100000000000364
tp931
sg328
((lp932
F40.300000000001091
tp933
sg371
((lp934
F40.099999999998545
tp935
ssba(imeasure_core
ProblemSetSolution
p936
(dp937
g3
g434
sg167
g906
sg170
(dp938
g437
((lp939
F40.31000000000131
tp940
sg494
((lp941
F40.119999999998981
tp942
sg647
((lp943
F45.809999999999491
tp944
sg604
((lp945
F46.940000000000509
tp946
sg543
((lp947
F41.100000000000364
tp948
ssba(imeasure_core
ProblemSetSolution
p949
(dp950
g3
g4
sg167
S"AnytimeBeam-w20-gf(8, 'lin')_with_LinearHeuristic"
p951
sg170
(dp952
g8
((lp953
(F32.779999999998836
I223
tp954
aF40.090000000000146
tp955
sg48
((lp956
(F6.25
I49
tp957
aF40.039999999999054
tp958
sg78
((lp959
(F24.970000000001164
I165
tp960
aF40.079999999999927
tp961
sg105
((lp962
(F2.6200000000008004
I6
tp963
aF40.239999999999782
tp964
sg137
((lp965
F40.240000000001601
tp966
ssba(imeasure_core
ProblemSetSolution
p967
(dp968
g3
g189
sg167
g951
sg170
(dp969
g192
((lp970
F40.329999999999927
tp971
sg236
((lp972
(F0.89000000000123691
I12
tp973
aF40.1200000000008
tp974
sg281
((lp975
F40.040000000000873
tp976
sg328
((lp977
F40.569999999999709
tp978
sg371
((lp979
F40.099999999998545
tp980
ssba(imeasure_core
ProblemSetSolution
p981
(dp982
g3
g434
sg167
g951
sg170
(dp983
g437
((lp984
F40.270000000000437
tp985
sg494
((lp986
F41.3700000000008
tp987
sg647
((lp988
F47.010000000000218
tp989
sg604
((lp990
F52.809999999999491
tp991
sg543
((lp992
F41.590000000000146
tp993
ssba(imeasure_core
ProblemSetSolution
p994
(dp995
g3
g4
sg167
S"AnytimeBeam-w20-gf(16, 'lin')_with_LinearHeuristic"
p996
sg170
(dp997
g8
((lp998
(F32.819999999999709
I223
tp999
aF40.020000000000437
tp1000
sg48
((lp1001
(F11.069999999999709
I49
tp1002
aF40.019999999998618
tp1003
sg78
((lp1004
(F27.579999999999927
I165
tp1005
aF40.050000000001091
tp1006
sg105
((lp1007
(F3.1499999999996362
I6
tp1008
aF40.229999999999563
tp1009
sg137
((lp1010
F40.010000000000218
tp1011
ssba(imeasure_core
ProblemSetSolution
p1012
(dp1013
g3
g189
sg167
g996
sg170
(dp1014
g192
((lp1015
F40.049999999999272
tp1016
sg236
((lp1017
(F1.1200000000008004
I12
tp1018
aF40.050000000001091
tp1019
sg281
((lp1020
F40.090000000000146
tp1021
sg328
((lp1022
F40.549999999999272
tp1023
sg371
((lp1024
F40.139999999999418
tp1025
ssba(imeasure_core
ProblemSetSolution
p1026
(dp1027
g3
g434
sg167
g996
sg170
(dp1028
g437
((lp1029
F41.430000000000291
tp1030
sg494
((lp1031
F40.6299999999992
tp1032
sg647
((lp1033
F48.549999999999272
tp1034
sg604
((lp1035
F59.510000000000218
tp1036
sg543
((lp1037
F41.190000000000509
tp1038
ssba.