(lp0
(imeasure_core
ProblemSetSolution
p1
(dp2
S'roomset'
p3
(imeasure_core
RoomSet
p4
(dp5
S'rooms'
p6
(dp7
(iproblems
RoomID
p8
(dp9
S'dusts'
p10
I6
sS'obstacles'
p11
(I5
I1
tp12
sS'robots'
p13
I4
sS'height'
p14
I9
sS'width'
p15
I10
sS'seed'
p16
I2405875930906139466
sb(imulti_robot_problem
MultiRobotState
p17
(dp18
S'obstacle_locations'
p19
c__builtin__
frozenset
p20
((lp21
(I7
I0
tp22
a(I7
I1
tp23
ag12
a(I6
I1
tp24
a(I6
I0
tp25
a(I7
I2
tp26
atp27
Rp28
sg15
I10
sS'dirt_locations'
p29
g20
((lp30
(I7
I3
tp31
a(I2
I1
tp32
a(I6
I4
tp33
a(I5
I6
tp34
a(I5
I2
tp35
a(I0
I7
tp36
atp37
Rp38
sg13
((I7
I6
tp39
(I3
I3
tp40
(I8
I6
tp41
(I0
I2
tp42
tp43
sg14
I9
sbs(iproblems
RoomID
p44
(dp45
g10
I6
sg11
(I6
I7
tp46
sg13
I4
sg14
I10
sg15
I7
sg16
I8744744311366254845
sb(imulti_robot_problem
MultiRobotState
p47
(dp48
g19
g20
((lp49
(I0
I6
tp50
ag46
a(I4
I6
tp51
a(I3
I7
tp52
a(I5
I7
tp53
a(I1
I9
tp54
atp55
Rp56
sg15
I7
sg29
g20
((lp57
(I2
I7
tp58
a(I0
I1
tp59
a(I5
I4
tp60
a(I6
I0
tp61
a(I5
I8
tp62
a(I5
I3
tp63
atp64
Rp65
sg13
((I0
I8
tp66
(I4
I2
tp67
(I3
I0
tp68
(I1
I4
tp69
tp70
sg14
I10
sbs(iproblems
RoomID
p71
(dp72
g10
I10
sg11
(I4
I7
tp73
sg13
I5
sg14
I10
sg15
I8
sg16
I8655808914197340073
sb(imulti_robot_problem
MultiRobotState
p74
(dp75
g19
g20
((lp76
(I2
I7
tp77
ag73
a(I4
I8
tp78
a(I6
I3
tp79
a(I7
I5
tp80
a(I3
I7
tp81
a(I1
I0
tp82
a(I5
I3
tp83
atp84
Rp85
sg15
I8
sg29
g20
((lp86
(I7
I3
tp87
a(I5
I4
tp88
a(I7
I0
tp89
a(I5
I7
tp90
a(I1
I5
tp91
a(I1
I9
tp92
a(I3
I6
tp93
a(I1
I7
tp94
a(I3
I4
tp95
a(I5
I8
tp96
atp97
Rp98
sg13
((I3
I8
tp99
(I7
I9
tp100
(I6
I1
tp101
(I2
I3
tp102
(I5
I5
tp103
tp104
sg14
I10
sbs(iproblems
RoomID
p105
(dp106
g10
I8
sg11
(I5
I3
tp107
sg13
I3
sg14
I7
sg15
I7
sg16
I7325839828077136048
sb(imulti_robot_problem
MultiRobotState
p108
(dp109
g19
g20
((lp110
(I6
I4
tp111
a(I5
I4
tp112
a(I5
I5
tp113
a(I6
I6
tp114
a(I3
I1
tp115
a(I6
I0
tp116
a(I2
I0
tp117
a(I0
I4
tp118
ag107
atp119
Rp120
sg15
I7
sg29
g20
((lp121
(I0
I6
tp122
a(I3
I0
tp123
a(I2
I4
tp124
a(I1
I5
tp125
a(I4
I3
tp126
a(I2
I2
tp127
a(I1
I1
tp128
a(I3
I5
tp129
atp130
Rp131
sg13
((I1
I0
tp132
(I3
I3
tp133
(I6
I2
tp134
tp135
sg14
I7
sbs(iproblems
RoomID
p136
(dp137
g10
I6
sg11
(I4
I6
tp138
sg13
I1
sg14
I8
sg15
I7
sg16
I3537054308274871603
sb(imulti_robot_problem
MultiRobotState
p139
(dp140
g19
g20
((lp141
(I4
I7
tp142
ag138
a(I4
I5
tp143
a(I2
I5
tp144
a(I3
I5
tp145
a(I6
I0
tp146
a(I2
I4
tp147
atp148
Rp149
sg15
I7
sg29
g20
((lp150
(I0
I6
tp151
a(I6
I2
tp152
a(I5
I6
tp153
a(I4
I1
tp154
a(I1
I1
tp155
a(I5
I3
tp156
atp157
Rp158
sg13
((I0
I3
tp159
tp160
sg14
I8
sbssS'name'
p161
S'easy_roomset'
p162
sbsg161
S'LimitedTimeAStar_with_PowerHeuristic2'
p163
sS'solutions'
p164
(dp165
g8
((lp166
F0.42999999999983629
tp167
sg44
((lp168
F0.65999999999985448
tp169
sg71
((lp170
F7.5400000000004184
tp171
sg105
((lp172
F0.68999999999959982
tp173
sg136
((lp174
F0.070000000000163709
tp175
ssba(imeasure_core
ProblemSetSolution
p176
(dp177
g3
(imeasure_core
RoomSet
p178
(dp179
g6
(dp180
(iproblems
RoomID
p181
(dp182
g10
I6
sg11
(I1
I8
tp183
sg13
I4
sg14
I11
sg15
I12
sg16
I2405875930906139466
sb(imulti_robot_problem
MultiRobotState
p184
(dp185
g19
g20
((lp186
(I6
I4
tp187
a(I4
I6
tp188
a(I8
I2
tp189
a(I6
I6
tp190
a(I2
I8
tp191
a(I8
I0
tp192
a(I5
I5
tp193
a(I9
I10
tp194
a(I6
I2
tp195
a(I2
I3
tp196
a(I3
I7
tp197
a(I6
I5
tp198
a(I5
I3
tp199
a(I7
I0
tp200
a(I3
I3
tp201
a(I2
I9
tp202
a(I11
I5
tp203
a(I8
I1
tp204
a(I6
I1
tp205
a(I3
I1
tp206
a(I6
I3
tp207
a(I2
I0
tp208
ag183
a(I7
I5
tp209
a(I3
I6
tp210
a(I4
I3
tp211
a(I3
I4
tp212
atp213
Rp214
sg15
I12
sg29
g20
((lp215
(I9
I4
tp216
a(I7
I1
tp217
a(I0
I9
tp218
a(I9
I3
tp219
a(I7
I7
tp220
a(I2
I1
tp221
atp222
Rp223
sg13
((I9
I7
tp224
(I4
I4
tp225
(I10
I8
tp226
(I0
I2
tp227
tp228
sg14
I11
sbs(iproblems
RoomID
p229
(dp230
g10
I10
sg11
(I0
I5
tp231
sg13
I4
sg14
I12
sg15
I10
sg16
I8655808914197340073
sb(imulti_robot_problem
MultiRobotState
p232
(dp233
g19
g20
((lp234
(I5
I9
tp235
a(I5
I4
tp236
a(I5
I7
tp237
a(I6
I6
tp238
a(I4
I8
tp239
a(I8
I0
tp240
a(I0
I7
tp241
a(I7
I5
tp242
a(I2
I3
tp243
a(I1
I4
tp244
a(I6
I8
tp245
a(I1
I11
tp246
a(I9
I6
tp247
a(I5
I8
tp248
a(I4
I6
tp249
a(I3
I8
tp250
a(I6
I7
tp251
a(I5
I5
tp252
a(I3
I4
tp253
a(I4
I4
tp254
a(I6
I3
tp255
a(I2
I0
tp256
a(I6
I5
tp257
ag231
a(I7
I8
tp258
atp259
Rp260
sg15
I10
sg29
g20
((lp261
(I6
I9
tp262
a(I2
I9
tp263
a(I2
I11
tp264
a(I9
I0
tp265
a(I7
I7
tp266
a(I8
I3
tp267
a(I1
I7
tp268
a(I8
I6
tp269
a(I8
I4
tp270
a(I3
I5
tp271
atp272
Rp273
sg13
((I4
I9
tp274
(I8
I11
tp275
(I7
I1
tp276
(I3
I3
tp277
tp278
sg14
I12
sbs(iproblems
RoomID
p279
(dp280
g10
I10
sg11
(I11
I0
tp281
sg13
I4
sg14
I9
sg15
I12
sg16
I2796939073032698495
sb(imulti_robot_problem
MultiRobotState
p282
(dp283
g19
g20
((lp284
(I7
I3
tp285
a(I5
I7
tp286
a(I9
I1
tp287
a(I6
I6
tp288
a(I8
I0
tp289
a(I7
I7
tp290
a(I5
I8
tp291
a(I3
I3
tp292
a(I8
I1
tp293
a(I4
I8
tp294
a(I6
I3
tp295
a(I7
I2
tp296
a(I3
I6
tp297
a(I6
I4
tp298
a(I5
I4
tp299
a(I2
I6
tp300
a(I7
I1
tp301
a(I4
I5
tp302
ag281
a(I2
I3
tp303
a(I10
I1
tp304
a(I1
I0
tp305
a(I6
I5
tp306
a(I5
I3
tp307
a(I8
I3
tp308
a(I7
I0
tp309
a(I6
I8
tp310
a(I9
I2
tp311
a(I6
I1
tp312
a(I3
I1
tp313
a(I8
I8
tp314
a(I4
I3
tp315
a(I5
I2
tp316
a(I10
I2
tp317
atp318
Rp319
sg15
I12
sg29
g20
((lp320
(I1
I2
tp321
a(I11
I7
tp322
a(I3
I2
tp323
a(I2
I8
tp324
a(I9
I3
tp325
a(I1
I6
tp326
a(I5
I0
tp327
a(I0
I3
tp328
a(I0
I8
tp329
a(I4
I1
tp330
atp331
Rp332
sg13
((I10
I8
tp333
(I4
I6
tp334
(I11
I4
tp335
(I7
I8
tp336
tp337
sg14
I9
sbs(iproblems
RoomID
p338
(dp339
g10
I10
sg11
(I3
I6
tp340
sg13
I4
sg14
I12
sg15
I11
sg16
I4278205817407065157
sb(imulti_robot_problem
MultiRobotState
p341
(dp342
g19
g20
((lp343
(I0
I1
tp344
a(I4
I7
tp345
a(I5
I6
tp346
a(I2
I8
tp347
a(I0
I10
tp348
a(I3
I7
tp349
a(I7
I11
tp350
a(I3
I3
tp351
a(I2
I7
tp352
a(I5
I3
tp353
a(I6
I7
tp354
a(I4
I6
tp355
a(I10
I7
tp356
a(I4
I4
tp357
a(I3
I8
tp358
a(I4
I5
tp359
ag340
a(I1
I10
tp360
a(I3
I5
tp361
a(I1
I9
tp362
atp363
Rp364
sg15
I11
sg29
g20
((lp365
(I1
I2
tp366
a(I8
I1
tp367
a(I9
I2
tp368
a(I6
I1
tp369
a(I5
I7
tp370
a(I8
I9
tp371
a(I3
I0
tp372
a(I9
I4
tp373
a(I0
I2
tp374
a(I4
I0
tp375
atp376
Rp377
sg13
((I6
I10
tp378
(I5
I11
tp379
(I2
I0
tp380
(I9
I1
tp381
tp382
sg14
I12
sbs(iproblems
RoomID
p383
(dp384
g10
I6
sg11
(I3
I3
tp385
sg13
I4
sg14
I12
sg15
I12
sg16
I7193062864237573168
sb(imulti_robot_problem
MultiRobotState
p386
(dp387
g19
g20
((lp388
(I6
I4
tp389
a(I5
I4
tp390
a(I1
I3
tp391
a(I6
I6
tp392
a(I7
I1
tp393
a(I9
I3
tp394
a(I0
I7
tp395
a(I1
I6
tp396
a(I2
I5
tp397
a(I0
I8
tp398
a(I10
I3
tp399
a(I8
I3
tp400
a(I3
I1
tp401
ag385
a(I5
I7
tp402
a(I11
I3
tp403
a(I7
I4
tp404
a(I0
I9
tp405
a(I2
I3
tp406
a(I8
I4
tp407
a(I3
I4
tp408
a(I2
I4
tp409
a(I9
I7
tp410
atp411
Rp412
sg15
I12
sg29
g20
((lp413
(I2
I0
tp414
a(I2
I6
tp415
a(I6
I8
tp416
a(I0
I6
tp417
a(I4
I4
tp418
a(I7
I7
tp419
atp420
Rp421
sg13
((I11
I9
tp422
(I11
I2
tp423
(I4
I11
tp424
(I3
I6
tp425
tp426
sg14
I12
sbssg161
S'mild_roomset'
p427
sbsg161
g163
sg164
(dp428
g181
((lp429
F1.5299999999997453
tp430
sg229
((lp431
F70.829999999999927
tp432
sg279
((lp433
F298.78999999999996
tp434
sg338
((lp435
F13.539999999999964
tp436
sg383
((lp437
F294.7800000000002
tp438
ssba(imeasure_core
ProblemSetSolution
p439
(dp440
g3
(imeasure_core
RoomSet
p441
(dp442
g6
(dp443
(iproblems
RoomID
p444
(dp445
g10
I11
sg11
(I10
I1
tp446
sg13
I7
sg14
I12
sg15
I13
sg16
I2405875930906139466
sb(imulti_robot_problem
MultiRobotState
p447
(dp448
g19
g20
((lp449
(I7
I3
tp450
a(I9
I1
tp451
a(I7
I1
tp452
a(I5
I6
tp453
a(I8
I11
tp454
a(I8
I0
tp455
a(I1
I4
tp456
a(I6
I2
tp457
a(I0
I7
tp458
ag446
a(I10
I3
tp459
a(I7
I2
tp460
a(I10
I4
tp461
a(I11
I7
tp462
a(I9
I0
tp463
a(I11
I5
tp464
a(I7
I4
tp465
a(I1
I5
tp466
a(I10
I2
tp467
a(I11
I6
tp468
a(I8
I4
tp469
atp470
Rp471
sg15
I13
sg29
g20
((lp472
(I12
I5
tp473
a(I10
I11
tp474
a(I8
I1
tp475
a(I7
I8
tp476
a(I8
I6
tp477
a(I6
I3
tp478
a(I2
I0
tp479
a(I2
I3
tp480
a(I5
I1
tp481
a(I10
I0
tp482
a(I3
I4
tp483
atp484
Rp485
sg13
((I10
I8
tp486
(I9
I2
tp487
(I4
I5
tp488
(I11
I8
tp489
(I1
I2
tp490
(I3
I1
tp491
(I0
I10
tp492
tp493
sg14
I12
sbs(iproblems
RoomID
p494
(dp495
g10
I11
sg11
(I7
I9
tp496
sg13
I6
sg14
I13
sg15
I10
sg16
I8744744311366254845
sb(imulti_robot_problem
MultiRobotState
p497
(dp498
g19
g20
((lp499
(I6
I9
tp500
a(I1
I3
tp501
a(I4
I9
tp502
a(I5
I6
tp503
a(I9
I8
tp504
a(I1
I8
tp505
a(I1
I0
tp506
ag496
a(I3
I4
tp507
a(I5
I8
tp508
a(I9
I7
tp509
atp510
Rp511
sg15
I10
sg29
g20
((lp512
(I0
I1
tp513
a(I7
I3
tp514
a(I9
I0
tp515
a(I1
I12
tp516
a(I4
I10
tp517
a(I5
I11
tp518
a(I9
I10
tp519
a(I7
I11
tp520
a(I3
I7
tp521
a(I0
I8
tp522
a(I9
I6
tp523
atp524
Rp525
sg13
((I0
I10
tp526
(I6
I3
tp527
(I4
I0
tp528
(I1
I6
tp529
(I7
I5
tp530
(I9
I9
tp531
tp532
sg14
I13
sbs(iproblems
RoomID
p533
(dp534
g10
I15
sg11
(I3
I6
tp535
sg13
I7
sg14
I10
sg15
I13
sg16
I2796939073032698495
sb(imulti_robot_problem
MultiRobotState
p536
(dp537
g19
g20
((lp538
(I5
I9
tp539
a(I6
I9
tp540
a(I4
I6
tp541
a(I5
I0
tp542
a(I6
I6
tp543
a(I4
I5
tp544
a(I5
I4
tp545
a(I6
I7
tp546
a(I6
I2
tp547
a(I0
I5
tp548
a(I8
I7
tp549
a(I5
I1
tp550
a(I6
I4
tp551
a(I12
I9
tp552
a(I5
I8
tp553
a(I5
I3
tp554
a(I2
I7
tp555
a(I4
I9
tp556
a(I5
I5
tp557
a(I3
I1
tp558
a(I4
I8
tp559
a(I2
I0
tp560
a(I3
I9
tp561
a(I6
I5
tp562
ag535
a(I5
I7
tp563
a(I7
I8
tp564
atp565
Rp566
sg15
I13
sg29
g20
((lp567
(I1
I2
tp568
a(I8
I2
tp569
a(I2
I9
tp570
a(I12
I0
tp571
a(I4
I1
tp572
a(I12
I8
tp573
a(I6
I0
tp574
a(I9
I9
tp575
a(I2
I3
tp576
a(I9
I4
tp577
a(I1
I7
tp578
a(I0
I9
tp579
a(I7
I9
tp580
a(I3
I4
tp581
a(I3
I3
tp582
atp583
Rp584
sg13
((I10
I2
tp585
(I11
I8
tp586
(I12
I5
tp587
(I8
I9
tp588
(I10
I3
tp589
(I0
I3
tp590
(I11
I2
tp591
tp592
sg14
I10
sbs(iproblems
RoomID
p593
(dp594
g10
I15
sg11
(I4
I8
tp595
sg13
I6
sg14
I13
sg15
I12
sg16
I4278205817407065157
sb(imulti_robot_problem
MultiRobotState
p596
(dp597
g19
g20
((lp598
(I11
I7
tp599
a(I2
I9
tp600
ag595
a(I5
I6
tp601
a(I2
I8
tp602
a(I6
I10
tp603
a(I3
I8
tp604
a(I11
I8
tp605
a(I3
I9
tp606
a(I1
I10
tp607
a(I1
I11
tp608
a(I7
I8
tp609
a(I2
I4
tp610
atp611
Rp612
sg15
I12
sg29
g20
((lp613
(I1
I2
tp614
a(I0
I1
tp615
a(I5
I4
tp616
a(I5
I7
tp617
a(I10
I4
tp618
a(I7
I1
tp619
a(I3
I1
tp620
a(I10
I5
tp621
a(I4
I7
tp622
a(I9
I9
tp623
a(I0
I10
tp624
a(I4
I3
tp625
a(I8
I12
tp626
a(I4
I1
tp627
a(I0
I2
tp628
atp629
Rp630
sg13
((I7
I10
tp631
(I6
I12
tp632
(I2
I0
tp633
(I9
I1
tp634
(I10
I3
tp635
(I4
I0
tp636
tp637
sg14
I13
sbs(iproblems
RoomID
p638
(dp639
g10
I15
sg11
(I5
I8
tp640
sg13
I7
sg14
I13
sg15
I11
sg16
I8655808914197340073
sb(imulti_robot_problem
MultiRobotState
p641
(dp642
g19
g20
((lp643
(I5
I9
tp644
a(I6
I7
tp645
a(I6
I11
tp646
a(I1
I4
tp647
a(I0
I12
tp648
a(I0
I11
tp649
a(I7
I5
tp650
a(I1
I6
tp651
a(I0
I4
tp652
a(I5
I10
tp653
a(I3
I9
tp654
a(I4
I9
tp655
a(I10
I3
tp656
ag640
atp657
Rp658
sg15
I11
sg29
g20
((lp659
(I2
I7
tp660
a(I7
I3
tp661
a(I4
I6
tp662
a(I1
I12
tp663
a(I5
I6
tp664
a(I8
I5
tp665
a(I7
I7
tp666
a(I7
I9
tp667
a(I2
I0
tp668
a(I9
I4
tp669
a(I7
I10
tp670
a(I0
I8
tp671
a(I9
I6
tp672
a(I6
I5
tp673
a(I9
I7
tp674
atp675
Rp676
sg13
((I9
I11
tp677
(I8
I1
tp678
(I3
I4
tp679
(I8
I7
tp680
(I9
I1
tp681
(I2
I10
tp682
(I2
I12
tp683
tp684
sg14
I13
sbssg161
S'heavy_roomset'
p685
sbsg161
g163
sg164
(dp686
g444
((lp687
F299.63999999999987
tp688
sg494
((lp689
F12.460000000000036
tp690
sg593
((lp691
F303.78999999999996
tp692
sg533
((lp693
F288.0
tp694
sg638
((lp695
F127.09000000000015
tp696
ssba.