(lp0
(imeasure_core
ProblemSetSolution
p1
(dp2
S'roomset'
p3
(imeasure_core
RoomSet
p4
(dp5
S'rooms'
p6
(dp7
(iproblems
RoomID
p8
(dp9
S'dusts'
p10
I8
sS'obstacles'
p11
(I2
I4
tp12
sS'robots'
p13
I4
sS'height'
p14
I9
sS'width'
p15
I7
sS'seed'
p16
I7283207964119141687
sb(imulti_robot_problem
MultiRobotState
p17
(dp18
S'obstacle_locations'
p19
c__builtin__
frozenset
p20
((lp21
(I4
I6
tp22
a(I4
I3
tp23
a(I3
I0
tp24
a(I4
I2
tp25
a(I3
I4
tp26
ag12
a(I3
I3
tp27
atp28
Rp29
sg15
I7
sS'dirt_locations'
p30
g20
((lp31
(I4
I5
tp32
a(I5
I7
tp33
a(I0
I6
tp34
a(I1
I6
tp35
a(I5
I0
tp36
a(I5
I1
tp37
a(I5
I2
tp38
a(I1
I1
tp39
atp40
Rp41
sg13
((I1
I5
tp42
(I5
I5
tp43
(I3
I1
tp44
(I3
I5
tp45
tp46
sg14
I9
sbs(iproblems
RoomID
p47
(dp48
g10
I8
sg11
(I4
I6
tp49
sg13
I2
sg14
I10
sg15
I8
sg16
I890727360438182992
sb(imulti_robot_problem
MultiRobotState
p50
(dp51
g19
g20
((lp52
(I0
I0
tp53
ag49
a(I6
I6
tp54
a(I5
I6
tp55
a(I7
I6
tp56
a(I7
I4
tp57
a(I4
I2
tp58
a(I2
I4
tp59
atp60
Rp61
sg15
I8
sg30
g20
((lp62
(I7
I0
tp63
a(I7
I1
tp64
a(I6
I3
tp65
a(I1
I8
tp66
a(I0
I5
tp67
a(I5
I1
tp68
a(I1
I0
tp69
a(I0
I3
tp70
atp71
Rp72
sg13
((I2
I8
tp73
(I2
I5
tp74
tp75
sg14
I10
sbs(iproblems
RoomID
p76
(dp77
g10
I7
sg11
(I4
I1
tp78
sg13
I3
sg14
I10
sg15
I10
sg16
I1585446675937841368
sb(imulti_robot_problem
MultiRobotState
p79
(dp80
g19
g20
((lp81
(I3
I2
tp82
a(I2
I6
tp83
a(I6
I7
tp84
a(I6
I1
tp85
a(I7
I2
tp86
a(I5
I0
tp87
ag78
a(I2
I4
tp88
a(I5
I8
tp89
atp90
Rp91
sg15
I10
sg30
g20
((lp92
(I7
I3
tp93
a(I9
I4
tp94
a(I2
I9
tp95
a(I1
I7
tp96
a(I2
I2
tp97
a(I5
I2
tp98
a(I9
I7
tp99
atp100
Rp101
sg13
((I8
I9
tp102
(I4
I4
tp103
(I9
I8
tp104
tp105
sg14
I10
sbs(iproblems
RoomID
p106
(dp107
g10
I5
sg11
(I7
I3
tp108
sg13
I1
sg14
I7
sg15
I8
sg16
I1736392818365009963
sb(imulti_robot_problem
MultiRobotState
p109
(dp110
g19
g20
((lp111
g108
a(I2
I6
tp112
a(I7
I0
tp113
a(I7
I1
tp114
a(I2
I1
tp115
a(I6
I3
tp116
a(I0
I4
tp117
a(I7
I2
tp118
atp119
Rp120
sg15
I8
sg30
g20
((lp121
(I0
I1
tp122
a(I6
I2
tp123
a(I1
I6
tp124
a(I4
I4
tp125
a(I0
I0
tp126
atp127
Rp128
sg13
((I3
I1
tp129
tp130
sg14
I7
sbs(iproblems
RoomID
p131
(dp132
g10
I10
sg11
(I6
I5
tp133
sg13
I5
sg14
I8
sg15
I9
sg16
I3960482443532127989
sb(imulti_robot_problem
MultiRobotState
p134
(dp135
g19
g20
((lp136
(I4
I5
tp137
a(I5
I5
tp138
ag133
a(I6
I6
tp139
atp140
Rp141
sg15
I9
sg30
g20
((lp142
(I2
I7
tp143
a(I2
I6
tp144
a(I5
I0
tp145
a(I5
I7
tp146
a(I1
I4
tp147
a(I1
I5
tp148
a(I3
I6
tp149
a(I8
I0
tp150
a(I8
I5
tp151
a(I5
I3
tp152
atp153
Rp154
sg13
((I4
I3
tp155
(I8
I7
tp156
(I1
I6
tp157
(I7
I3
tp158
(I6
I4
tp159
tp160
sg14
I8
sbssS'name'
p161
S'easy_roomset'
p162
sbsg161
S"AnytimeBeam-w20-gf(1.3, 'exp')_with_PowerHeuristic2"
p163
sS'solutions'
p164
(dp165
g8
((lp166
(F1.8000000000029104
I28
tp167
aF40.220000000001164
tp168
sg47
((lp169
(F0.099999999998544808
I19
tp170
aF40.0
tp171
sg76
((lp172
(F0.47000000000116415
I14
tp173
aF40.080000000001746
tp174
sg106
((lp175
(F0.069999999999708962
I30
tp176
a(F0.1599999999962165
I28
tp177
a(F0.48000000000320142
I27
tp178
a(F0.90000000000145519
I25
tp179
a(F1.25
I23
tp180
a(F1.5500000000029104
I22
tp181
a(F2.7699999999967986
I21
tp182
a(F3.8399999999965075
I20
tp183
aF40.0
tp184
sg131
((lp185
(F9.1500000000014552
I10
tp186
aF40.05000000000291
tp187
ssba(imeasure_core
ProblemSetSolution
p188
(dp189
g3
(imeasure_core
RoomSet
p190
(dp191
g6
(dp192
(iproblems
RoomID
p193
(dp194
g10
I8
sg11
(I2
I6
tp195
sg13
I4
sg14
I11
sg15
I9
sg16
I7283207964119141687
sb(imulti_robot_problem
MultiRobotState
p196
(dp197
g19
g20
((lp198
(I4
I7
tp199
a(I1
I3
tp200
a(I4
I3
tp201
a(I4
I5
tp202
a(I5
I4
tp203
a(I1
I4
tp204
a(I8
I9
tp205
a(I6
I2
tp206
a(I0
I10
tp207
a(I3
I7
tp208
a(I0
I3
tp209
a(I8
I5
tp210
a(I4
I0
tp211
a(I5
I3
tp212
a(I5
I5
tp213
a(I5
I2
tp214
a(I6
I1
tp215
a(I6
I10
tp216
ag195
a(I6
I3
tp217
a(I3
I6
tp218
a(I3
I5
tp219
a(I3
I4
tp220
a(I2
I4
tp221
atp222
Rp223
sg15
I9
sg30
g20
((lp224
(I7
I0
tp225
a(I6
I8
tp226
a(I7
I1
tp227
a(I5
I6
tp228
a(I1
I8
tp229
a(I0
I8
tp230
a(I4
I1
tp231
a(I5
I8
tp232
atp233
Rp234
sg13
((I1
I7
tp235
(I6
I6
tp236
(I4
I6
tp237
(I2
I1
tp238
tp239
sg14
I11
sbs(iproblems
RoomID
p240
(dp241
g10
I8
sg11
(I3
I5
tp242
sg13
I3
sg14
I12
sg15
I10
sg16
I890727360438182992
sb(imulti_robot_problem
MultiRobotState
p243
(dp244
g19
g20
((lp245
(I4
I7
tp246
a(I0
I0
tp247
a(I3
I0
tp248
a(I3
I2
tp249
a(I1
I4
tp250
a(I8
I9
tp251
a(I7
I5
tp252
a(I2
I3
tp253
a(I3
I4
tp254
a(I5
I8
tp255
ag242
a(I3
I1
tp256
a(I6
I7
tp257
a(I6
I8
tp258
a(I5
I2
tp259
a(I5
I7
tp260
a(I8
I8
tp261
a(I3
I9
tp262
a(I4
I11
tp263
a(I7
I10
tp264
a(I2
I2
tp265
a(I0
I9
tp266
a(I7
I8
tp267
atp268
Rp269
sg15
I10
sg30
g20
((lp270
(I9
I2
tp271
a(I6
I1
tp272
a(I8
I0
tp273
a(I2
I10
tp274
a(I0
I6
tp275
a(I0
I4
tp276
a(I9
I5
tp277
a(I1
I1
tp278
atp279
Rp280
sg13
((I2
I9
tp281
(I2
I6
tp282
(I8
I4
tp283
tp284
sg14
I12
sbs(iproblems
RoomID
p285
(dp286
g10
I7
sg11
(I6
I3
tp287
sg13
I3
sg14
I12
sg15
I12
sg16
I1585446675937841368
sb(imulti_robot_problem
MultiRobotState
p288
(dp289
g19
g20
((lp290
(I5
I9
tp291
a(I4
I3
tp292
a(I5
I7
tp293
a(I8
I2
tp294
a(I4
I10
tp295
a(I7
I3
tp296
a(I2
I8
tp297
a(I9
I3
tp298
a(I3
I11
tp299
a(I7
I1
tp300
a(I7
I7
tp301
a(I6
I2
tp302
a(I5
I1
tp303
a(I1
I11
tp304
a(I8
I5
tp305
a(I7
I2
tp306
a(I2
I7
tp307
a(I6
I7
tp308
a(I6
I8
tp309
a(I2
I9
tp310
a(I5
I2
tp311
a(I7
I6
tp312
a(I6
I6
tp313
a(I2
I11
tp314
ag287
a(I4
I11
tp315
a(I7
I10
tp316
a(I3
I4
tp317
a(I8
I6
tp318
a(I7
I8
tp319
a(I8
I4
tp320
atp321
Rp322
sg15
I12
sg30
g20
((lp323
(I3
I2
tp324
a(I1
I9
tp325
a(I9
I4
tp326
a(I11
I5
tp327
a(I11
I8
tp328
a(I2
I5
tp329
a(I6
I10
tp330
atp331
Rp332
sg13
((I10
I10
tp333
(I5
I5
tp334
(I11
I10
tp335
tp336
sg14
I12
sbs(iproblems
RoomID
p337
(dp338
g10
I9
sg11
(I1
I3
tp339
sg13
I4
sg14
I9
sg15
I10
sg16
I7713914763314685786
sb(imulti_robot_problem
MultiRobotState
p340
(dp341
g19
g20
((lp342
(I3
I2
tp343
ag339
a(I7
I1
tp344
a(I9
I3
tp345
a(I6
I0
tp346
a(I2
I1
tp347
a(I4
I2
tp348
a(I5
I1
tp349
a(I9
I6
tp350
a(I7
I2
tp351
a(I4
I0
tp352
a(I1
I2
tp353
a(I7
I0
tp354
a(I5
I2
tp355
a(I6
I1
tp356
a(I3
I1
tp357
a(I1
I5
tp358
a(I1
I8
tp359
a(I2
I2
tp360
a(I3
I5
tp361
a(I4
I1
tp362
a(I1
I1
tp363
atp364
Rp365
sg15
I10
sg30
g20
((lp366
(I7
I3
tp367
a(I5
I4
tp368
a(I7
I6
tp369
a(I7
I5
tp370
a(I0
I5
tp371
a(I8
I7
tp372
a(I8
I6
tp373
a(I8
I5
tp374
a(I9
I7
tp375
atp376
Rp377
sg13
((I3
I0
tp378
(I7
I7
tp379
(I2
I0
tp380
(I4
I6
tp381
tp382
sg14
I9
sbs(iproblems
RoomID
p383
(dp384
g10
I5
sg11
(I7
I6
tp385
sg13
I3
sg14
I9
sg15
I10
sg16
I1736392818365009963
sb(imulti_robot_problem
MultiRobotState
p386
(dp387
g19
g20
((lp388
(I7
I3
tp389
a(I9
I1
tp390
a(I4
I8
tp391
a(I9
I3
tp392
a(I7
I7
tp393
a(I6
I2
tp394
a(I0
I5
tp395
a(I0
I4
tp396
a(I8
I5
tp397
a(I7
I2
tp398
a(I1
I2
tp399
a(I3
I8
tp400
a(I9
I0
tp401
a(I9
I2
tp402
ag385
a(I7
I4
tp403
a(I7
I5
tp404
a(I6
I5
tp405
a(I4
I3
tp406
a(I2
I2
tp407
a(I0
I1
tp408
a(I5
I2
tp409
a(I8
I4
tp410
atp411
Rp412
sg15
I10
sg30
g20
((lp413
(I1
I8
tp414
a(I3
I1
tp415
a(I4
I1
tp416
a(I0
I2
tp417
a(I5
I5
tp418
atp419
Rp420
sg13
((I4
I2
tp421
(I1
I0
tp422
(I8
I2
tp423
tp424
sg14
I9
sbssg161
S'mild_roomset'
p425
sbsg161
g163
sg164
(dp426
g193
((lp427
(F0.31999999999970896
I7
tp428
aF40.279999999998836
tp429
sg240
((lp430
F40.239999999997963
tp431
sg285
((lp432
(F0.58999999999650754
I20
tp433
aF40.069999999999709
tp434
sg337
((lp435
(F2.3400000000037835
I15
tp436
aF40.220000000001164
tp437
sg383
((lp438
(F6.4400000000023283
I66
tp439
aF40.229999999995925
tp440
ssba(imeasure_core
ProblemSetSolution
p441
(dp442
g3
(imeasure_core
RoomSet
p443
(dp444
g6
(dp445
(iproblems
RoomID
p446
(dp447
g10
I13
sg11
(I8
I4
tp448
sg13
I7
sg14
I12
sg15
I10
sg16
I7283207964119141687
sb(imulti_robot_problem
MultiRobotState
p449
(dp450
g19
g20
((lp451
(I6
I3
tp452
a(I5
I2
tp453
a(I6
I10
tp454
a(I6
I0
tp455
a(I7
I4
tp456
a(I0
I11
tp457
a(I6
I2
tp458
a(I3
I6
tp459
a(I2
I2
tp460
a(I0
I4
tp461
a(I3
I4
tp462
a(I5
I8
tp463
ag448
atp464
Rp465
sg15
I10
sg30
g20
((lp466
(I7
I3
tp467
a(I6
I7
tp468
a(I6
I8
tp469
a(I7
I1
tp470
a(I8
I1
tp471
a(I4
I4
tp472
a(I6
I6
tp473
a(I5
I6
tp474
a(I1
I9
tp475
a(I5
I0
tp476
a(I9
I10
tp477
a(I9
I6
tp478
a(I7
I9
tp479
atp480
Rp481
sg13
((I1
I7
tp482
(I7
I6
tp483
(I4
I6
tp484
(I2
I1
tp485
(I6
I4
tp486
(I0
I9
tp487
(I8
I0
tp488
tp489
sg14
I12
sbs(iproblems
RoomID
p490
(dp491
g10
I13
sg11
(I8
I3
tp492
sg13
I5
sg14
I13
sg15
I11
sg16
I890727360438182992
sb(imulti_robot_problem
MultiRobotState
p493
(dp494
g19
g20
((lp495
(I4
I10
tp496
a(I6
I9
tp497
a(I8
I2
tp498
a(I5
I9
tp499
a(I9
I8
tp500
ag492
a(I4
I12
tp501
a(I0
I10
tp502
a(I8
I7
tp503
a(I9
I1
tp504
a(I9
I0
tp505
a(I6
I8
tp506
a(I6
I10
tp507
a(I8
I8
tp508
a(I8
I6
tp509
a(I7
I8
tp510
a(I0
I2
tp511
atp512
Rp513
sg15
I11
sg30
g20
((lp514
(I10
I5
tp515
a(I0
I0
tp516
a(I4
I6
tp517
a(I0
I6
tp518
a(I9
I2
tp519
a(I8
I11
tp520
a(I2
I1
tp521
a(I9
I10
tp522
a(I1
I5
tp523
a(I0
I4
tp524
a(I0
I9
tp525
a(I5
I2
tp526
a(I4
I11
tp527
atp528
Rp529
sg13
((I3
I10
tp530
(I2
I7
tp531
(I9
I4
tp532
(I2
I11
tp533
(I7
I1
tp534
tp535
sg14
I13
sbs(iproblems
RoomID
p536
(dp537
g10
I10
sg11
(I10
I4
tp538
sg13
I5
sg14
I10
sg15
I11
sg16
I1736392818365009963
sb(imulti_robot_problem
MultiRobotState
p539
(dp540
g19
g20
((lp541
(I0
I1
tp542
a(I1
I2
tp543
a(I3
I2
tp544
ag538
a(I4
I5
tp545
a(I7
I4
tp546
a(I6
I2
tp547
a(I2
I3
tp548
a(I10
I1
tp549
a(I3
I8
tp550
a(I10
I0
tp551
a(I10
I3
tp552
a(I10
I2
tp553
atp554
Rp555
sg15
I11
sg30
g20
((lp556
(I5
I9
tp557
a(I5
I5
tp558
a(I3
I1
tp559
a(I8
I8
tp560
a(I0
I5
tp561
a(I3
I9
tp562
a(I8
I4
tp563
a(I4
I1
tp564
a(I6
I5
tp565
a(I5
I3
tp566
atp567
Rp568
sg13
((I4
I2
tp569
(I1
I0
tp570
(I9
I3
tp571
(I1
I9
tp572
(I0
I2
tp573
tp574
sg14
I10
sbs(iproblems
RoomID
p575
(dp576
g10
I12
sg11
(I6
I9
tp577
sg13
I6
sg14
I13
sg15
I13
sg16
I1585446675937841368
sb(imulti_robot_problem
MultiRobotState
p578
(dp579
g19
g20
((lp580
(I7
I3
tp581
ag577
a(I8
I11
tp582
a(I7
I7
tp583
a(I4
I12
tp584
a(I10
I3
tp585
a(I5
I8
tp586
a(I7
I4
tp587
a(I1
I12
tp588
a(I2
I9
tp589
a(I8
I1
tp590
a(I7
I6
tp591
a(I6
I3
tp592
a(I9
I2
tp593
a(I7
I5
tp594
a(I7
I2
tp595
a(I7
I10
tp596
a(I8
I4
tp597
a(I3
I4
tp598
a(I2
I4
tp599
a(I9
I12
tp600
a(I9
I7
tp601
atp602
Rp603
sg15
I13
sg30
g20
((lp604
(I3
I3
tp605
a(I2
I8
tp606
a(I12
I9
tp607
a(I6
I10
tp608
a(I8
I10
tp609
a(I2
I10
tp610
a(I12
I5
tp611
a(I4
I3
tp612
a(I5
I1
tp613
a(I7
I9
tp614
a(I5
I2
tp615
a(I3
I5
tp616
atp617
Rp618
sg13
((I10
I11
tp619
(I5
I5
tp620
(I12
I11
tp621
(I1
I10
tp622
(I3
I12
tp623
(I10
I4
tp624
tp625
sg14
I13
sbs(iproblems
RoomID
p626
(dp627
g10
I15
sg11
(I6
I9
tp628
sg13
I7
sg14
I11
sg15
I12
sg16
I3960482443532127989
sb(imulti_robot_problem
MultiRobotState
p629
(dp630
g19
g20
((lp631
(I5
I9
tp632
ag628
a(I9
I1
tp633
a(I4
I10
tp634
a(I5
I6
tp635
a(I7
I7
tp636
a(I2
I10
tp637
a(I3
I9
tp638
a(I9
I4
tp639
a(I5
I10
tp640
a(I6
I4
tp641
a(I6
I5
tp642
a(I1
I2
tp643
a(I7
I4
tp644
a(I8
I3
tp645
a(I6
I7
tp646
a(I2
I9
tp647
a(I10
I7
tp648
a(I5
I7
tp649
a(I6
I3
tp650
a(I8
I1
tp651
a(I0
I9
tp652
a(I8
I6
tp653
a(I7
I8
tp654
a(I11
I6
tp655
a(I9
I7
tp656
atp657
Rp658
sg15
I12
sg30
g20
((lp659
(I7
I3
tp660
a(I2
I6
tp661
a(I5
I5
tp662
a(I3
I0
tp663
a(I3
I8
tp664
a(I0
I6
tp665
a(I11
I1
tp666
a(I1
I6
tp667
a(I4
I3
tp668
a(I1
I7
tp669
a(I1
I3
tp670
a(I1
I0
tp671
a(I10
I1
tp672
a(I1
I1
tp673
a(I10
I2
tp674
atp675
Rp676
sg13
((I11
I10
tp677
(I1
I8
tp678
(I10
I5
tp679
(I11
I0
tp680
(I4
I8
tp681
(I7
I9
tp682
(I7
I1
tp683
tp684
sg14
I11
sbssg161
S'heavy_roomset'
p685
sbsg161
g163
sg164
(dp686
g446
((lp687
F40.489999999997963
tp688
sg490
((lp689
F41.210000000006403
tp690
sg536
((lp691
(F4.9199999999982538
I9
tp692
aF40.180000000000291
tp693
sg575
((lp694
F42.059999999997672
tp695
sg626
((lp696
F41.119999999995343
tp697
ssba(imeasure_core
ProblemSetSolution
p698
(dp699
g3
g4
sg161
S"AnytimeBeam-w20-gf(1.5, 'exp')_with_PowerHeuristic2"
p700
sg164
(dp701
g8
((lp702
(F1.7700000000040745
I28
tp703
aF40.320000000006985
tp704
sg47
((lp705
(F0.099999999998544808
I19
tp706
aF40.019999999996799
tp707
sg76
((lp708
(F0.45999999999912689
I14
tp709
aF40.040000000000873
tp710
sg106
((lp711
(F0.069999999999708962
I30
tp712
a(F0.1599999999962165
I28
tp713
a(F0.47999999999592546
I27
tp714
a(F0.88999999999941792
I25
tp715
a(F1.2399999999979627
I23
tp716
a(F1.5400000000008731
I22
tp717
a(F2.75
I21
tp718
a(F3.8300000000017462
I20
tp719
aF40.0
tp720
sg131
((lp721
(F9.0800000000017462
I10
tp722
aF42.080000000001746
tp723
ssba(imeasure_core
ProblemSetSolution
p724
(dp725
g3
g190
sg161
g700
sg164
(dp726
g193
((lp727
(F0.30999999999767169
I7
tp728
aF40.049999999995634
tp729
sg240
((lp730
F40.200000000004366
tp731
sg285
((lp732
(F0.57999999999447027
I20
tp733
aF40.049999999995634
tp734
sg337
((lp735
(F2.3300000000017462
I15
tp736
aF40.05000000000291
tp737
sg383
((lp738
(F6.430000000000291
I66
tp739
aF40.129999999997381
tp740
ssba(imeasure_core
ProblemSetSolution
p741
(dp742
g3
g443
sg161
g700
sg164
(dp743
g446
((lp744
F40.319999999999709
tp745
sg490
((lp746
F41.180000000000291
tp747
sg536
((lp748
(F4.930000000000291
I9
tp749
aF40.200000000004366
tp750
sg575
((lp751
F42.009999999994761
tp752
sg626
((lp753
F40.990000000005239
tp754
ssba(imeasure_core
ProblemSetSolution
p755
(dp756
g3
g4
sg161
S"AnytimeBeam-w20-gf(1.7, 'exp')_with_PowerHeuristic2"
p757
sg164
(dp758
g8
((lp759
(F1.7700000000040745
I28
tp760
aF40.490000000005239
tp761
sg47
((lp762
(F0.08999999999650754
I19
tp763
a(F29.369999999995343
I18
tp764
aF40.0
tp765
sg76
((lp766
(F0.4699999999938882
I14
tp767
aF40.139999999999418
tp768
sg106
((lp769
(F0.069999999999708962
I30
tp770
a(F0.1599999999962165
I28
tp771
a(F0.47999999999592546
I27
tp772
a(F0.88999999999941792
I25
tp773
a(F1.2399999999979627
I23
tp774
a(F1.5400000000008731
I22
tp775
a(F2.75
I21
tp776
a(F3.8399999999965075
I20
tp777
aF40.0
tp778
sg131
((lp779
(F9.0899999999965075
I10
tp780
aF42.139999999999418
tp781
ssba(imeasure_core
ProblemSetSolution
p782
(dp783
g3
g190
sg161
g757
sg164
(dp784
g193
((lp785
(F0.30999999999767169
I7
tp786
aF40.009999999994761
tp787
sg240
((lp788
F40.160000000003492
tp789
sg285
((lp790
(F0.59999999999854481
I20
tp791
aF40.069999999999709
tp792
sg337
((lp793
(F2.3399999999965075
I15
tp794
aF40.099999999998545
tp795
sg383
((lp796
(F6.4800000000032014
I66
tp797
aF40.029999999998836
tp798
ssba(imeasure_core
ProblemSetSolution
p799
(dp800
g3
g443
sg161
g757
sg164
(dp801
g446
((lp802
F40.330000000001746
tp803
sg490
((lp804
F41.239999999997963
tp805
sg536
((lp806
(F4.9500000000043656
I9
tp807
aF40.020000000004075
tp808
sg575
((lp809
F42.169999999998254
tp810
sg626
((lp811
F41.189999999995052
tp812
ssba(imeasure_core
ProblemSetSolution
p813
(dp814
g3
g4
sg161
S"AnytimeBeam-w20-gf(1.8999999999999999, 'exp')_with_PowerHeuristic2"
p815
sg164
(dp816
g8
((lp817
(F1.7700000000040745
I28
tp818
aF40.05000000000291
tp819
sg47
((lp820
(F0.099999999998544808
I19
tp821
aF40.010000000002037
tp822
sg76
((lp823
(F0.4699999999938882
I14
tp824
aF40.059999999997672
tp825
sg106
((lp826
(F0.069999999999708962
I30
tp827
a(F0.1599999999962165
I28
tp828
a(F0.47999999999592546
I27
tp829
a(F0.88999999999941792
I25
tp830
a(F1.25
I23
tp831
a(F1.5400000000008731
I22
tp832
a(F2.7600000000020373
I21
tp833
a(F3.8399999999965075
I20
tp834
aF40.0
tp835
sg131
((lp836
(F9.1199999999953434
I10
tp837
aF42.139999999999418
tp838
ssba(imeasure_core
ProblemSetSolution
p839
(dp840
g3
g190
sg161
g815
sg164
(dp841
g193
((lp842
(F0.31999999999970896
I7
tp843
aF40.180000000000291
tp844
sg240
((lp845
F40.139999999999418
tp846
sg285
((lp847
(F0.58999999999650754
I20
tp848
aF40.019999999996799
tp849
sg337
((lp850
(F2.3500000000058208
I15
tp851
aF40.310000000004948
tp852
sg383
((lp853
(F6.4799999999959255
I66
tp854
aF40.089999999996508
tp855
ssba(imeasure_core
ProblemSetSolution
p856
(dp857
g3
g443
sg161
g815
sg164
(dp858
g446
((lp859
F40.44999999999709
tp860
sg490
((lp861
F41.230000000003201
tp862
sg536
((lp863
(F4.930000000000291
I9
tp864
aF40.979999999995925
tp865
sg575
((lp866
F42.010000000002037
tp867
sg626
((lp868
F40.849999999998545
tp869
ssba(imeasure_core
ProblemSetSolution
p870
(dp871
g3
g4
sg161
S"AnytimeBeam-w20-gf(1.3, 'exp')_with_LinearHeuristic"
p872
sg164
(dp873
g8
((lp874
(F0.37000000000261934
I5
tp875
aF40.330000000001746
tp876
sg47
((lp877
(F0.26000000000203727
I22
tp878
aF40.010000000002037
tp879
sg76
((lp880
F40.009999999994761
tp881
sg106
((lp882
(F0.010000000002037268
I20
tp883
aF40.0
tp884
sg131
((lp885
(F10.160000000003492
I10
tp886
aF40.610000000000582
tp887
ssba(imeasure_core
ProblemSetSolution
p888
(dp889
g3
g190
sg161
g872
sg164
(dp890
g193
((lp891
F40.720000000001164
tp892
sg240
((lp893
F40.139999999999418
tp894
sg285
((lp895
F40.309999999997672
tp896
sg337
((lp897
F40.069999999999709
tp898
sg383
((lp899
(F1.0400000000008731
I23
tp900
a(F22.680000000000291
I21
tp901
a(F32.510000000002037
I20
tp902
aF40.05000000000291
tp903
ssba(imeasure_core
ProblemSetSolution
p904
(dp905
g3
g443
sg161
g872
sg164
(dp906
g446
((lp907
F87.260000000002037
tp908
sg490
((lp909
F40.509999999994761
tp910
sg536
((lp911
F41.230000000003201
tp912
sg575
((lp913
F45.139999999999418
tp914
sg626
((lp915
F47.620000000002619
tp916
ssba(imeasure_core
ProblemSetSolution
p917
(dp918
g3
g4
sg161
S"AnytimeBeam-w20-gf(1.5, 'exp')_with_LinearHeuristic"
p919
sg164
(dp920
g8
((lp921
(F0.38000000000465661
I5
tp922
aF40.120000000002619
tp923
sg47
((lp924
(F0.26000000000203727
I22
tp925
aF40.010000000002037
tp926
sg76
((lp927
F40.119999999995343
tp928
sg106
((lp929
(F0.020000000004074536
I20
tp930
aF40.0
tp931
sg131
((lp932
(F10.160000000003492
I10
tp933
aF40.599999999998545
tp934
ssba(imeasure_core
ProblemSetSolution
p935
(dp936
g3
g190
sg161
g919
sg164
(dp937
g193
((lp938
F40.450000000004366
tp939
sg240
((lp940
F40.049999999995634
tp941
sg285
((lp942
F40.290000000000873
tp943
sg337
((lp944
F40.090000000003783
tp945
sg383
((lp946
(F1.0399999999935972
I23
tp947
a(F22.689999999995052
I21
tp948
a(F32.489999999997963
I20
tp949
aF40.029999999998836
tp950
ssba(imeasure_core
ProblemSetSolution
p951
(dp952
g3
g443
sg161
g919
sg164
(dp953
g446
((lp954
F87.369999999995343
tp955
sg490
((lp956
F40.580000000001746
tp957
sg536
((lp958
F41.059999999997672
tp959
sg575
((lp960
F45.110000000000582
tp961
sg626
((lp962
F47.720000000001164
tp963
ssba(imeasure_core
ProblemSetSolution
p964
(dp965
g3
g4
sg161
S"AnytimeBeam-w20-gf(1.7, 'exp')_with_LinearHeuristic"
p966
sg164
(dp967
g8
((lp968
(F0.38000000000465661
I5
tp969
aF40.120000000002619
tp970
sg47
((lp971
(F0.26000000000203727
I22
tp972
aF40.0
tp973
sg76
((lp974
F40.010000000002037
tp975
sg106
((lp976
(F0.019999999996798579
I20
tp977
aF40.0
tp978
sg131
((lp979
(F10.159999999996217
I10
tp980
aF40.649999999994179
tp981
ssba(imeasure_core
ProblemSetSolution
p982
(dp983
g3
g190
sg161
g966
sg164
(dp984
g193
((lp985
F40.529999999998836
tp986
sg240
((lp987
F40.17000000000553
tp988
sg285
((lp989
F40.349999999998545
tp990
sg337
((lp991
F40.239999999997963
tp992
sg383
((lp993
(F1.0400000000008731
I23
tp994
a(F22.5
I21
tp995
a(F32.230000000003201
I20
tp996
aF40.069999999999709
tp997
ssba(imeasure_core
ProblemSetSolution
p998
(dp999
g3
g443
sg161
g966
sg164
(dp1000
g446
((lp1001
F88.169999999998254
tp1002
sg490
((lp1003
F40.650000000001455
tp1004
sg536
((lp1005
F41.459999999999127
tp1006
sg575
((lp1007
F40.209999999999127
tp1008
sg626
((lp1009
F47.639999999999418
tp1010
ssba(imeasure_core
ProblemSetSolution
p1011
(dp1012
g3
g4
sg161
S"AnytimeBeam-w20-gf(1.8999999999999999, 'exp')_with_LinearHeuristic"
p1013
sg164
(dp1014
g8
((lp1015
(F0.38000000000465661
I5
tp1016
aF40.290000000000873
tp1017
sg47
((lp1018
(F0.26000000000203727
I22
tp1019
aF40.0
tp1020
sg76
((lp1021
F40.25
tp1022
sg106
((lp1023
(F0.020000000004074536
I20
tp1024
aF40.0
tp1025
sg131
((lp1026
(F10.150000000001455
I10
tp1027
aF40.620000000002619
tp1028
ssba(imeasure_core
ProblemSetSolution
p1029
(dp1030
g3
g190
sg161
g1013
sg164
(dp1031
g193
((lp1032
F40.519999999996799
tp1033
sg240
((lp1034
F40.180000000000291
tp1035
sg285
((lp1036
F40.510000000002037
tp1037
sg337
((lp1038
F40.309999999997672
tp1039
sg383
((lp1040
(F1.0500000000029104
I23
tp1041
a(F22.790000000000873
I21
tp1042
a(F32.620000000002619
I20
tp1043
aF40.040000000000873
tp1044
ssba(imeasure_core
ProblemSetSolution
p1045
(dp1046
g3
g443
sg161
g1013
sg164
(dp1047
g446
((lp1048
F87.790000000000873
tp1049
sg490
((lp1050
F40.509999999994761
tp1051
sg536
((lp1052
F41.350000000005821
tp1053
sg575
((lp1054
F45.07999999999447
tp1055
sg626
((lp1056
F47.630000000004657
tp1057
ssba.