(lp0
(imeasure_core
ProblemSetSolution
p1
(dp2
S'roomset'
p3
(imeasure_core
RoomSet
p4
(dp5
S'rooms'
p6
(dp7
(iproblems
RoomID
p8
(dp9
S'dusts'
p10
I8
sS'obstacles'
p11
(I2
I4
tp12
sS'robots'
p13
I4
sS'height'
p14
I9
sS'width'
p15
I7
sS'seed'
p16
I7283207964119141687
sb(imulti_robot_problem
MultiRobotState
p17
(dp18
S'obstacle_locations'
p19
c__builtin__
frozenset
p20
((lp21
(I4
I6
tp22
a(I4
I3
tp23
a(I3
I0
tp24
a(I4
I2
tp25
a(I3
I4
tp26
ag12
a(I3
I3
tp27
atp28
Rp29
sg15
I7
sS'dirt_locations'
p30
g20
((lp31
(I4
I5
tp32
a(I5
I7
tp33
a(I0
I6
tp34
a(I1
I6
tp35
a(I5
I0
tp36
a(I5
I1
tp37
a(I5
I2
tp38
a(I1
I1
tp39
atp40
Rp41
sg13
((I1
I5
tp42
(I5
I5
tp43
(I3
I1
tp44
(I3
I5
tp45
tp46
sg14
I9
sbs(iproblems
RoomID
p47
(dp48
g10
I8
sg11
(I4
I6
tp49
sg13
I2
sg14
I10
sg15
I8
sg16
I890727360438182992
sb(imulti_robot_problem
MultiRobotState
p50
(dp51
g19
g20
((lp52
(I0
I0
tp53
ag49
a(I6
I6
tp54
a(I5
I6
tp55
a(I7
I6
tp56
a(I7
I4
tp57
a(I4
I2
tp58
a(I2
I4
tp59
atp60
Rp61
sg15
I8
sg30
g20
((lp62
(I7
I0
tp63
a(I7
I1
tp64
a(I6
I3
tp65
a(I1
I8
tp66
a(I0
I5
tp67
a(I5
I1
tp68
a(I1
I0
tp69
a(I0
I3
tp70
atp71
Rp72
sg13
((I2
I8
tp73
(I2
I5
tp74
tp75
sg14
I10
sbs(iproblems
RoomID
p76
(dp77
g10
I10
sg11
(I6
I5
tp78
sg13
I5
sg14
I8
sg15
I9
sg16
I3960482443532127989
sb(imulti_robot_problem
MultiRobotState
p79
(dp80
g19
g20
((lp81
(I4
I5
tp82
a(I5
I5
tp83
ag78
a(I6
I6
tp84
atp85
Rp86
sg15
I9
sg30
g20
((lp87
(I2
I7
tp88
a(I2
I6
tp89
a(I5
I0
tp90
a(I5
I7
tp91
a(I1
I4
tp92
a(I1
I5
tp93
a(I3
I6
tp94
a(I8
I0
tp95
a(I8
I5
tp96
a(I5
I3
tp97
atp98
Rp99
sg13
((I4
I3
tp100
(I8
I7
tp101
(I1
I6
tp102
(I7
I3
tp103
(I6
I4
tp104
tp105
sg14
I8
sbs(iproblems
RoomID
p106
(dp107
g10
I7
sg11
(I4
I1
tp108
sg13
I3
sg14
I10
sg15
I10
sg16
I1585446675937841368
sb(imulti_robot_problem
MultiRobotState
p109
(dp110
g19
g20
((lp111
(I3
I2
tp112
a(I2
I6
tp113
a(I6
I7
tp114
a(I6
I1
tp115
a(I7
I2
tp116
a(I5
I0
tp117
ag108
a(I2
I4
tp118
a(I5
I8
tp119
atp120
Rp121
sg15
I10
sg30
g20
((lp122
(I7
I3
tp123
a(I9
I4
tp124
a(I2
I9
tp125
a(I1
I7
tp126
a(I2
I2
tp127
a(I5
I2
tp128
a(I9
I7
tp129
atp130
Rp131
sg13
((I8
I9
tp132
(I4
I4
tp133
(I9
I8
tp134
tp135
sg14
I10
sbs(iproblems
RoomID
p136
(dp137
g10
I5
sg11
(I7
I3
tp138
sg13
I1
sg14
I7
sg15
I8
sg16
I1736392818365009963
sb(imulti_robot_problem
MultiRobotState
p139
(dp140
g19
g20
((lp141
g138
a(I2
I6
tp142
a(I7
I0
tp143
a(I7
I1
tp144
a(I2
I1
tp145
a(I6
I3
tp146
a(I0
I4
tp147
a(I7
I2
tp148
atp149
Rp150
sg15
I8
sg30
g20
((lp151
(I0
I1
tp152
a(I6
I2
tp153
a(I1
I6
tp154
a(I4
I4
tp155
a(I0
I0
tp156
atp157
Rp158
sg13
((I3
I1
tp159
tp160
sg14
I7
sbssS'name'
p161
S'easy_roomset'
p162
sbsg161
S"AnytimeBeam-w20-gf(2, 'lin')_with_PowerHeuristic2"
p163
sS'solutions'
p164
(dp165
g8
((lp166
(F1.7599999999947613
I28
tp167
aF40.009999999994761
tp168
sg47
((lp169
(F0.090000000003783498
I19
tp170
aF40.0
tp171
sg76
((lp172
(F3.0600000000049477
I10
tp173
aF40.520000000004075
tp174
sg136
((lp175
(F0.069999999999708962
I30
tp176
a(F0.16000000000349246
I28
tp177
a(F0.48000000000320142
I27
tp178
a(F0.88999999999941792
I25
tp179
a(F1.2399999999979627
I23
tp180
a(F1.5400000000008731
I22
tp181
a(F2.75
I21
tp182
a(F3.8300000000017462
I20
tp183
aF40.0
tp184
sg106
((lp185
(F0.45999999999912689
I14
tp186
aF40.029999999998836
tp187
ssba(imeasure_core
ProblemSetSolution
p188
(dp189
g3
(imeasure_core
RoomSet
p190
(dp191
g6
(dp192
(iproblems
RoomID
p193
(dp194
g10
I8
sg11
(I2
I6
tp195
sg13
I4
sg14
I11
sg15
I9
sg16
I7283207964119141687
sb(imulti_robot_problem
MultiRobotState
p196
(dp197
g19
g20
((lp198
(I4
I7
tp199
a(I1
I3
tp200
a(I4
I3
tp201
a(I4
I5
tp202
a(I5
I4
tp203
a(I1
I4
tp204
a(I8
I9
tp205
a(I6
I2
tp206
a(I0
I10
tp207
a(I3
I7
tp208
a(I0
I3
tp209
a(I8
I5
tp210
a(I4
I0
tp211
a(I5
I3
tp212
a(I5
I5
tp213
a(I5
I2
tp214
a(I6
I1
tp215
a(I6
I10
tp216
ag195
a(I6
I3
tp217
a(I3
I6
tp218
a(I3
I5
tp219
a(I3
I4
tp220
a(I2
I4
tp221
atp222
Rp223
sg15
I9
sg30
g20
((lp224
(I7
I0
tp225
a(I6
I8
tp226
a(I7
I1
tp227
a(I5
I6
tp228
a(I1
I8
tp229
a(I0
I8
tp230
a(I4
I1
tp231
a(I5
I8
tp232
atp233
Rp234
sg13
((I1
I7
tp235
(I6
I6
tp236
(I4
I6
tp237
(I2
I1
tp238
tp239
sg14
I11
sbs(iproblems
RoomID
p240
(dp241
g10
I8
sg11
(I3
I5
tp242
sg13
I3
sg14
I12
sg15
I10
sg16
I890727360438182992
sb(imulti_robot_problem
MultiRobotState
p243
(dp244
g19
g20
((lp245
(I4
I7
tp246
a(I0
I0
tp247
a(I3
I0
tp248
a(I3
I2
tp249
a(I1
I4
tp250
a(I8
I9
tp251
a(I7
I5
tp252
a(I2
I3
tp253
a(I3
I4
tp254
a(I5
I8
tp255
ag242
a(I3
I1
tp256
a(I6
I7
tp257
a(I6
I8
tp258
a(I5
I2
tp259
a(I5
I7
tp260
a(I8
I8
tp261
a(I3
I9
tp262
a(I4
I11
tp263
a(I7
I10
tp264
a(I2
I2
tp265
a(I0
I9
tp266
a(I7
I8
tp267
atp268
Rp269
sg15
I10
sg30
g20
((lp270
(I9
I2
tp271
a(I6
I1
tp272
a(I8
I0
tp273
a(I2
I10
tp274
a(I0
I6
tp275
a(I0
I4
tp276
a(I9
I5
tp277
a(I1
I1
tp278
atp279
Rp280
sg13
((I2
I9
tp281
(I2
I6
tp282
(I8
I4
tp283
tp284
sg14
I12
sbs(iproblems
RoomID
p285
(dp286
g10
I5
sg11
(I7
I6
tp287
sg13
I3
sg14
I9
sg15
I10
sg16
I1736392818365009963
sb(imulti_robot_problem
MultiRobotState
p288
(dp289
g19
g20
((lp290
(I7
I3
tp291
a(I9
I1
tp292
a(I4
I8
tp293
a(I9
I3
tp294
a(I7
I7
tp295
a(I6
I2
tp296
a(I0
I5
tp297
a(I0
I4
tp298
a(I8
I5
tp299
a(I7
I2
tp300
a(I1
I2
tp301
a(I3
I8
tp302
a(I9
I0
tp303
a(I9
I2
tp304
ag287
a(I7
I4
tp305
a(I7
I5
tp306
a(I6
I5
tp307
a(I4
I3
tp308
a(I2
I2
tp309
a(I0
I1
tp310
a(I5
I2
tp311
a(I8
I4
tp312
atp313
Rp314
sg15
I10
sg30
g20
((lp315
(I1
I8
tp316
a(I3
I1
tp317
a(I4
I1
tp318
a(I0
I2
tp319
a(I5
I5
tp320
atp321
Rp322
sg13
((I4
I2
tp323
(I1
I0
tp324
(I8
I2
tp325
tp326
sg14
I9
sbs(iproblems
RoomID
p327
(dp328
g10
I7
sg11
(I6
I3
tp329
sg13
I3
sg14
I12
sg15
I12
sg16
I1585446675937841368
sb(imulti_robot_problem
MultiRobotState
p330
(dp331
g19
g20
((lp332
(I5
I9
tp333
a(I4
I3
tp334
a(I5
I7
tp335
a(I8
I2
tp336
a(I4
I10
tp337
a(I7
I3
tp338
a(I2
I8
tp339
a(I9
I3
tp340
a(I3
I11
tp341
a(I7
I1
tp342
a(I7
I7
tp343
a(I6
I2
tp344
a(I5
I1
tp345
a(I1
I11
tp346
a(I8
I5
tp347
a(I7
I2
tp348
a(I2
I7
tp349
a(I6
I7
tp350
a(I6
I8
tp351
a(I2
I9
tp352
a(I5
I2
tp353
a(I7
I6
tp354
a(I6
I6
tp355
a(I2
I11
tp356
ag329
a(I4
I11
tp357
a(I7
I10
tp358
a(I3
I4
tp359
a(I8
I6
tp360
a(I7
I8
tp361
a(I8
I4
tp362
atp363
Rp364
sg15
I12
sg30
g20
((lp365
(I3
I2
tp366
a(I1
I9
tp367
a(I9
I4
tp368
a(I11
I5
tp369
a(I11
I8
tp370
a(I2
I5
tp371
a(I6
I10
tp372
atp373
Rp374
sg13
((I10
I10
tp375
(I5
I5
tp376
(I11
I10
tp377
tp378
sg14
I12
sbs(iproblems
RoomID
p379
(dp380
g10
I9
sg11
(I1
I3
tp381
sg13
I4
sg14
I9
sg15
I10
sg16
I7713914763314685786
sb(imulti_robot_problem
MultiRobotState
p382
(dp383
g19
g20
((lp384
(I3
I2
tp385
ag381
a(I7
I1
tp386
a(I9
I3
tp387
a(I6
I0
tp388
a(I2
I1
tp389
a(I4
I2
tp390
a(I5
I1
tp391
a(I9
I6
tp392
a(I7
I2
tp393
a(I4
I0
tp394
a(I1
I2
tp395
a(I7
I0
tp396
a(I5
I2
tp397
a(I6
I1
tp398
a(I3
I1
tp399
a(I1
I5
tp400
a(I1
I8
tp401
a(I2
I2
tp402
a(I3
I5
tp403
a(I4
I1
tp404
a(I1
I1
tp405
atp406
Rp407
sg15
I10
sg30
g20
((lp408
(I7
I3
tp409
a(I5
I4
tp410
a(I7
I6
tp411
a(I7
I5
tp412
a(I0
I5
tp413
a(I8
I7
tp414
a(I8
I6
tp415
a(I8
I5
tp416
a(I9
I7
tp417
atp418
Rp419
sg13
((I3
I0
tp420
(I7
I7
tp421
(I2
I0
tp422
(I4
I6
tp423
tp424
sg14
I9
sbssg161
S'mild_roomset'
p425
sbsg161
g163
sg164
(dp426
g193
((lp427
(F0.30999999999767169
I7
tp428
aF40.040000000000873
tp429
sg240
((lp430
F40.089999999996508
tp431
sg285
((lp432
(F4.0900000000037835
I66
tp433
aF40.040000000000873
tp434
sg327
((lp435
(F0.58000000000174623
I20
tp436
aF40.0
tp437
sg379
((lp438
(F1.9599999999991269
I15
tp439
aF40.110000000000582
tp440
ssba(imeasure_core
ProblemSetSolution
p441
(dp442
g3
(imeasure_core
RoomSet
p443
(dp444
g6
(dp445
(iproblems
RoomID
p446
(dp447
g10
I13
sg11
(I8
I4
tp448
sg13
I7
sg14
I12
sg15
I10
sg16
I7283207964119141687
sb(imulti_robot_problem
MultiRobotState
p449
(dp450
g19
g20
((lp451
(I6
I3
tp452
a(I5
I2
tp453
a(I6
I10
tp454
a(I6
I0
tp455
a(I7
I4
tp456
a(I0
I11
tp457
a(I6
I2
tp458
a(I3
I6
tp459
a(I2
I2
tp460
a(I0
I4
tp461
a(I3
I4
tp462
a(I5
I8
tp463
ag448
atp464
Rp465
sg15
I10
sg30
g20
((lp466
(I7
I3
tp467
a(I6
I7
tp468
a(I6
I8
tp469
a(I7
I1
tp470
a(I8
I1
tp471
a(I4
I4
tp472
a(I6
I6
tp473
a(I5
I6
tp474
a(I1
I9
tp475
a(I5
I0
tp476
a(I9
I10
tp477
a(I9
I6
tp478
a(I7
I9
tp479
atp480
Rp481
sg13
((I1
I7
tp482
(I7
I6
tp483
(I4
I6
tp484
(I2
I1
tp485
(I6
I4
tp486
(I0
I9
tp487
(I8
I0
tp488
tp489
sg14
I12
sbs(iproblems
RoomID
p490
(dp491
g10
I13
sg11
(I8
I3
tp492
sg13
I5
sg14
I13
sg15
I11
sg16
I890727360438182992
sb(imulti_robot_problem
MultiRobotState
p493
(dp494
g19
g20
((lp495
(I4
I10
tp496
a(I6
I9
tp497
a(I8
I2
tp498
a(I5
I9
tp499
a(I9
I8
tp500
ag492
a(I4
I12
tp501
a(I0
I10
tp502
a(I8
I7
tp503
a(I9
I1
tp504
a(I9
I0
tp505
a(I6
I8
tp506
a(I6
I10
tp507
a(I8
I8
tp508
a(I8
I6
tp509
a(I7
I8
tp510
a(I0
I2
tp511
atp512
Rp513
sg15
I11
sg30
g20
((lp514
(I10
I5
tp515
a(I0
I0
tp516
a(I4
I6
tp517
a(I0
I6
tp518
a(I9
I2
tp519
a(I8
I11
tp520
a(I2
I1
tp521
a(I9
I10
tp522
a(I1
I5
tp523
a(I0
I4
tp524
a(I0
I9
tp525
a(I5
I2
tp526
a(I4
I11
tp527
atp528
Rp529
sg13
((I3
I10
tp530
(I2
I7
tp531
(I9
I4
tp532
(I2
I11
tp533
(I7
I1
tp534
tp535
sg14
I13
sbs(iproblems
RoomID
p536
(dp537
g10
I10
sg11
(I10
I4
tp538
sg13
I5
sg14
I10
sg15
I11
sg16
I1736392818365009963
sb(imulti_robot_problem
MultiRobotState
p539
(dp540
g19
g20
((lp541
(I0
I1
tp542
a(I1
I2
tp543
a(I3
I2
tp544
ag538
a(I4
I5
tp545
a(I7
I4
tp546
a(I6
I2
tp547
a(I2
I3
tp548
a(I10
I1
tp549
a(I3
I8
tp550
a(I10
I0
tp551
a(I10
I3
tp552
a(I10
I2
tp553
atp554
Rp555
sg15
I11
sg30
g20
((lp556
(I5
I9
tp557
a(I5
I5
tp558
a(I3
I1
tp559
a(I8
I8
tp560
a(I0
I5
tp561
a(I3
I9
tp562
a(I8
I4
tp563
a(I4
I1
tp564
a(I6
I5
tp565
a(I5
I3
tp566
atp567
Rp568
sg13
((I4
I2
tp569
(I1
I0
tp570
(I9
I3
tp571
(I1
I9
tp572
(I0
I2
tp573
tp574
sg14
I10
sbs(iproblems
RoomID
p575
(dp576
g10
I15
sg11
(I6
I9
tp577
sg13
I7
sg14
I11
sg15
I12
sg16
I3960482443532127989
sb(imulti_robot_problem
MultiRobotState
p578
(dp579
g19
g20
((lp580
(I5
I9
tp581
ag577
a(I9
I1
tp582
a(I4
I10
tp583
a(I5
I6
tp584
a(I7
I7
tp585
a(I2
I10
tp586
a(I3
I9
tp587
a(I9
I4
tp588
a(I5
I10
tp589
a(I6
I4
tp590
a(I6
I5
tp591
a(I1
I2
tp592
a(I7
I4
tp593
a(I8
I3
tp594
a(I6
I7
tp595
a(I2
I9
tp596
a(I10
I7
tp597
a(I5
I7
tp598
a(I6
I3
tp599
a(I8
I1
tp600
a(I0
I9
tp601
a(I8
I6
tp602
a(I7
I8
tp603
a(I11
I6
tp604
a(I9
I7
tp605
atp606
Rp607
sg15
I12
sg30
g20
((lp608
(I7
I3
tp609
a(I2
I6
tp610
a(I5
I5
tp611
a(I3
I0
tp612
a(I3
I8
tp613
a(I0
I6
tp614
a(I11
I1
tp615
a(I1
I6
tp616
a(I4
I3
tp617
a(I1
I7
tp618
a(I1
I3
tp619
a(I1
I0
tp620
a(I10
I1
tp621
a(I1
I1
tp622
a(I10
I2
tp623
atp624
Rp625
sg13
((I11
I10
tp626
(I1
I8
tp627
(I10
I5
tp628
(I11
I0
tp629
(I4
I8
tp630
(I7
I9
tp631
(I7
I1
tp632
tp633
sg14
I11
sbs(iproblems
RoomID
p634
(dp635
g10
I12
sg11
(I6
I9
tp636
sg13
I6
sg14
I13
sg15
I13
sg16
I1585446675937841368
sb(imulti_robot_problem
MultiRobotState
p637
(dp638
g19
g20
((lp639
(I7
I3
tp640
ag636
a(I8
I11
tp641
a(I7
I7
tp642
a(I4
I12
tp643
a(I10
I3
tp644
a(I5
I8
tp645
a(I7
I4
tp646
a(I1
I12
tp647
a(I2
I9
tp648
a(I8
I1
tp649
a(I7
I6
tp650
a(I6
I3
tp651
a(I9
I2
tp652
a(I7
I5
tp653
a(I7
I2
tp654
a(I7
I10
tp655
a(I8
I4
tp656
a(I3
I4
tp657
a(I2
I4
tp658
a(I9
I12
tp659
a(I9
I7
tp660
atp661
Rp662
sg15
I13
sg30
g20
((lp663
(I3
I3
tp664
a(I2
I8
tp665
a(I12
I9
tp666
a(I6
I10
tp667
a(I8
I10
tp668
a(I2
I10
tp669
a(I12
I5
tp670
a(I4
I3
tp671
a(I5
I1
tp672
a(I7
I9
tp673
a(I5
I2
tp674
a(I3
I5
tp675
atp676
Rp677
sg13
((I10
I11
tp678
(I5
I5
tp679
(I12
I11
tp680
(I1
I10
tp681
(I3
I12
tp682
(I10
I4
tp683
tp684
sg14
I13
sbssg161
S'heavy_roomset'
p685
sbsg161
g163
sg164
(dp686
g446
((lp687
F40.440000000002328
tp688
sg490
((lp689
F40.069999999999709
tp690
sg536
((lp691
(F3.0
I9
tp692
aF40.180000000000291
tp693
sg575
((lp694
F40.25
tp695
sg634
((lp696
F41.019999999996799
tp697
ssba(imeasure_core
ProblemSetSolution
p698
(dp699
g3
g4
sg161
S"AnytimeBeam-w20-gf(4, 'lin')_with_PowerHeuristic2"
p700
sg164
(dp701
g8
((lp702
(F1.7799999999988358
I28
tp703
aF40.090000000003783
tp704
sg47
((lp705
(F0.099999999998544808
I19
tp706
aF40.0
tp707
sg76
((lp708
(F3.7099999999991269
I10
tp709
aF40.489999999997963
tp710
sg136
((lp711
(F0.08000000000174623
I30
tp712
a(F0.16000000000349246
I28
tp713
a(F0.48000000000320142
I27
tp714
a(F0.87999999999738066
I25
tp715
a(F1.2300000000032014
I23
tp716
a(F1.5299999999988358
I22
tp717
a(F2.7399999999979627
I21
tp718
a(F3.819999999999709
I20
tp719
aF40.0
tp720
sg106
((lp721
(F0.45999999999912689
I14
tp722
aF40.0
tp723
ssba(imeasure_core
ProblemSetSolution
p724
(dp725
g3
g190
sg161
g700
sg164
(dp726
g193
((lp727
(F0.30999999999767169
I7
tp728
aF40.099999999998545
tp729
sg240
((lp730
F40.230000000003201
tp731
sg285
((lp732
(F5.2900000000008731
I66
tp733
aF40.029999999998836
tp734
sg327
((lp735
(F0.58000000000174623
I20
tp736
aF40.0
tp737
sg379
((lp738
(F2.1399999999994179
I15
tp739
aF40.040000000000873
tp740
ssba(imeasure_core
ProblemSetSolution
p741
(dp742
g3
g443
sg161
g700
sg164
(dp743
g446
((lp744
F42.869999999995343
tp745
sg490
((lp746
F40.069999999999709
tp747
sg536
((lp748
(F3.6399999999994179
I9
tp749
aF40.319999999999709
tp750
sg575
((lp751
F40.700000000004366
tp752
sg634
((lp753
F40.379999999997381
tp754
ssba(imeasure_core
ProblemSetSolution
p755
(dp756
g3
g4
sg161
S"AnytimeBeam-w20-gf(8, 'lin')_with_PowerHeuristic2"
p757
sg164
(dp758
g8
((lp759
(F1.75
I28
tp760
aF40.0
tp761
sg47
((lp762
(F0.08999999999650754
I19
tp763
aF40.010000000002037
tp764
sg76
((lp765
(F4.2199999999938882
I10
tp766
aF41.059999999997672
tp767
sg136
((lp768
(F0.079999999994470272
I30
tp769
a(F0.1599999999962165
I28
tp770
a(F0.47999999999592546
I27
tp771
a(F0.88999999999941792
I25
tp772
a(F1.2399999999979627
I23
tp773
a(F1.5299999999988358
I22
tp774
a(F2.7299999999959255
I21
tp775
a(F3.8099999999976717
I20
tp776
aF40.0
tp777
sg106
((lp778
(F0.45999999999912689
I14
tp779
aF40.010000000002037
tp780
ssba(imeasure_core
ProblemSetSolution
p781
(dp782
g3
g190
sg161
g757
sg164
(dp783
g193
((lp784
(F0.30999999999767169
I7
tp785
aF40.269999999996799
tp786
sg240
((lp787
F40.080000000001746
tp788
sg285
((lp789
(F5.9799999999959255
I66
tp790
aF40.040000000000873
tp791
sg327
((lp792
(F0.57999999999447027
I20
tp793
aF40.0
tp794
sg379
((lp795
(F2.2599999999947613
I15
tp796
aF40.139999999999418
tp797
ssba(imeasure_core
ProblemSetSolution
p798
(dp799
g3
g443
sg161
g757
sg164
(dp800
g446
((lp801
F41.709999999999127
tp802
sg490
((lp803
F40.080000000001746
tp804
sg536
((lp805
(F4.3999999999941792
I9
tp806
aF40.110000000000582
tp807
sg575
((lp808
F40.869999999995343
tp809
sg634
((lp810
F40.739999999997963
tp811
ssba(imeasure_core
ProblemSetSolution
p812
(dp813
g3
g4
sg161
S"AnytimeBeam-w20-gf(16, 'lin')_with_PowerHeuristic2"
p814
sg164
(dp815
g8
((lp816
(F1.7600000000020373
I28
tp817
aF40.05000000000291
tp818
sg47
((lp819
(F0.099999999998544808
I19
tp820
aF40.009999999994761
tp821
sg76
((lp822
(F5.1100000000005821
I10
tp823
aF40.700000000004366
tp824
sg136
((lp825
(F0.069999999999708962
I30
tp826
a(F0.16000000000349246
I28
tp827
a(F0.48000000000320142
I27
tp828
a(F0.88999999999941792
I25
tp829
a(F1.25
I23
tp830
a(F1.5400000000008731
I22
tp831
a(F2.7700000000040745
I21
tp832
a(F3.8600000000005821
I20
tp833
aF40.0
tp834
sg106
((lp835
(F0.47000000000116415
I14
tp836
aF40.059999999997672
tp837
ssba(imeasure_core
ProblemSetSolution
p838
(dp839
g3
g190
sg161
g814
sg164
(dp840
g193
((lp841
(F0.31000000000494765
I7
tp842
aF40.080000000001746
tp843
sg240
((lp844
F40.089999999996508
tp845
sg285
((lp846
(F6.1900000000023283
I66
tp847
aF40.080000000001746
tp848
sg327
((lp849
(F0.5900000000037835
I20
tp850
aF40.029999999998836
tp851
sg379
((lp852
(F2.3400000000037835
I15
tp853
aF40.180000000000291
tp854
ssba(imeasure_core
ProblemSetSolution
p855
(dp856
g3
g443
sg161
g814
sg164
(dp857
g446
((lp858
F43.090000000003783
tp859
sg490
((lp860
F40.389999999999418
tp861
sg536
((lp862
(F4.8499999999985448
I9
tp863
aF40.369999999995343
tp864
sg575
((lp865
F40.930000000000291
tp866
sg634
((lp867
F41.599999999998545
tp868
ssba(imeasure_core
ProblemSetSolution
p869
(dp870
g3
g4
sg161
S"AnytimeBeam-w20-gf(2, 'lin')_with_LinearHeuristic"
p871
sg164
(dp872
g8
((lp873
(F0.37000000000261934
I5
tp874
aF40.0
tp875
sg47
((lp876
(F0.23000000000320142
I22
tp877
aF40.0
tp878
sg76
((lp879
(F4.3799999999973807
I10
tp880
aF40.0
tp881
sg136
((lp882
(F0.019999999996798579
I20
tp883
aF40.0
tp884
sg106
((lp885
F40.05000000000291
tp886
ssba(imeasure_core
ProblemSetSolution
p887
(dp888
g3
g190
sg161
g871
sg164
(dp889
g193
((lp890
(F19.049999999995634
I177
tp891
aF40.519999999996799
tp892
sg240
((lp893
F40.029999999998836
tp894
sg285
((lp895
(F0.83000000000174623
I23
tp896
a(F15.340000000003783
I21
tp897
a(F22.480000000003201
I20
tp898
a(F33.459999999999127
I19
tp899
aF40.020000000004075
tp900
sg327
((lp901
F40.009999999994761
tp902
sg379
((lp903
F40.320000000006985
tp904
ssba(imeasure_core
ProblemSetSolution
p905
(dp906
g3
g443
sg161
g871
sg164
(dp907
g446
((lp908
F46.25
tp909
sg490
((lp910
F40.040000000000873
tp911
sg536
((lp912
(F32.870000000002619
I95
tp913
aF40.010000000002037
tp914
sg575
((lp915
F41.879999999997381
tp916
sg634
((lp917
F40.169999999998254
tp918
ssba(imeasure_core
ProblemSetSolution
p919
(dp920
g3
g4
sg161
S"AnytimeBeam-w20-gf(4, 'lin')_with_LinearHeuristic"
p921
sg164
(dp922
g8
((lp923
(F0.38000000000465661
I5
tp924
aF40.060000000004948
tp925
sg47
((lp926
(F0.25
I22
tp927
aF40.0
tp928
sg76
((lp929
(F4.8600000000005821
I10
tp930
aF40.44999999999709
tp931
sg136
((lp932
(F0.0099999999947613105
I20
tp933
aF40.0
tp934
sg106
((lp935
F40.05000000000291
tp936
ssba(imeasure_core
ProblemSetSolution
p937
(dp938
g3
g190
sg161
g921
sg164
(dp939
g193
((lp940
(F21.720000000001164
I177
tp941
aF40.040000000000873
tp942
sg240
((lp943
F40.120000000002619
tp944
sg285
((lp945
(F0.87000000000261934
I23
tp946
a(F17.25
I21
tp947
a(F25.120000000002619
I20
tp948
a(F37.309999999997672
I19
tp949
aF40.019999999996799
tp950
sg327
((lp951
F40.100000000005821
tp952
sg379
((lp953
F40.430000000000291
tp954
ssba(imeasure_core
ProblemSetSolution
p955
(dp956
g3
g443
sg161
g921
sg164
(dp957
g446
((lp958
F50.730000000003201
tp959
sg490
((lp960
F40.110000000000582
tp961
sg536
((lp962
(F38.639999999999418
I95
tp963
aF40.409999999996217
tp964
sg575
((lp965
F41.67000000000553
tp966
sg634
((lp967
F40.149999999994179
tp968
ssba(imeasure_core
ProblemSetSolution
p969
(dp970
g3
g4
sg161
S"AnytimeBeam-w20-gf(8, 'lin')_with_LinearHeuristic"
p971
sg164
(dp972
g8
((lp973
(F0.37999999999738066
I5
tp974
aF40.020000000004075
tp975
sg47
((lp976
(F0.25
I22
tp977
aF40.0
tp978
sg76
((lp979
(F5.7299999999959255
I10
tp980
aF41.279999999998836
tp981
sg136
((lp982
(F0.0099999999947613105
I20
tp983
aF40.0
tp984
sg106
((lp985
F40.040000000000873
tp986
ssba(imeasure_core
ProblemSetSolution
p987
(dp988
g3
g190
sg161
g971
sg164
(dp989
g193
((lp990
(F24.039999999993597
I177
tp991
aF40.089999999996508
tp992
sg240
((lp993
F40.010000000002037
tp994
sg285
((lp995
(F0.94999999999708962
I23
tp996
a(F18.529999999998836
I21
tp997
a(F26.889999999999418
I20
tp998
a(F39.909999999996217
I19
tp999
aF40.019999999996799
tp1000
sg327
((lp1001
F40.110000000000582
tp1002
sg379
((lp1003
F40.160000000003492
tp1004
ssba(imeasure_core
ProblemSetSolution
p1005
(dp1006
g3
g443
sg161
g971
sg164
(dp1007
g446
((lp1008
F44.360000000000582
tp1009
sg490
((lp1010
F40.069999999999709
tp1011
sg536
((lp1012
F40.339999999996508
tp1013
sg575
((lp1014
F41.809999999997672
tp1015
sg634
((lp1016
F40.440000000002328
tp1017
ssba(imeasure_core
ProblemSetSolution
p1018
(dp1019
g3
g4
sg161
S"AnytimeBeam-w20-gf(16, 'lin')_with_LinearHeuristic"
p1020
sg164
(dp1021
g8
((lp1022
(F0.37999999999738066
I5
tp1023
aF40.190000000002328
tp1024
sg47
((lp1025
(F0.25999999999476131
I22
tp1026
aF40.0
tp1027
sg76
((lp1028
(F6.1599999999962165
I10
tp1029
aF40.229999999995925
tp1030
sg136
((lp1031
(F0.019999999996798579
I20
tp1032
aF40.0
tp1033
sg106
((lp1034
F40.060000000004948
tp1035
ssba(imeasure_core
ProblemSetSolution
p1036
(dp1037
g3
g190
sg161
g1020
sg164
(dp1038
g193
((lp1039
(F25.969999999993888
I177
tp1040
aF40.089999999996508
tp1041
sg240
((lp1042
F40.05000000000291
tp1043
sg285
((lp1044
(F0.98999999999796273
I23
tp1045
a(F18.989999999997963
I21
tp1046
a(F27.589999999996508
I20
tp1047
aF40.029999999998836
tp1048
sg327
((lp1049
F40.010000000002037
tp1050
sg379
((lp1051
F40.049999999995634
tp1052
ssba(imeasure_core
ProblemSetSolution
p1053
(dp1054
g3
g443
sg161
g1020
sg164
(dp1055
g446
((lp1056
F47.099999999998545
tp1057
sg490
((lp1058
F40.150000000001455
tp1059
sg536
((lp1060
F40.190000000002328
tp1061
sg575
((lp1062
F40.549999999995634
tp1063
sg634
((lp1064
F40.150000000001455
tp1065
ssba.