(lp0
(imeasure_core
ProblemSetSolution
p1
(dp2
S'roomset'
p3
(imeasure_core
RoomSet
p4
(dp5
S'rooms'
p6
(dp7
(iproblems
RoomID
p8
(dp9
S'dusts'
p10
I8
sS'obstacles'
p11
(I0
I4
tp12
sS'robots'
p13
I4
sS'height'
p14
I7
sS'width'
p15
I9
sS'seed'
p16
I1689441204489037471
sb(imulti_robot_problem
MultiRobotState
p17
(dp18
S'obstacle_locations'
p19
c__builtin__
frozenset
p20
((lp21
(I0
I1
tp22
a(I1
I2
tp23
a(I3
I2
tp24
a(I8
I1
tp25
a(I4
I3
tp26
ag12
a(I0
I3
tp27
a(I4
I0
tp28
atp29
Rp30
sg15
I9
sS'dirt_locations'
p31
g20
((lp32
(I0
I0
tp33
a(I7
I0
tp34
a(I7
I6
tp35
a(I1
I4
tp36
a(I6
I2
tp37
a(I2
I3
tp38
a(I5
I1
tp39
a(I3
I5
tp40
atp41
Rp42
sg13
((I6
I0
tp43
(I5
I4
tp44
(I6
I6
tp45
(I5
I0
tp46
tp47
sg14
I7
sbs(iproblems
RoomID
p48
(dp49
g10
I10
sg11
(I4
I5
tp50
sg13
I3
sg14
I8
sg15
I10
sg16
I6660334802794327005
sb(imulti_robot_problem
MultiRobotState
p51
(dp52
g19
g20
((lp53
(I9
I0
tp54
a(I2
I6
tp55
a(I1
I6
tp56
a(I3
I6
tp57
ag50
a(I8
I4
tp58
atp59
Rp60
sg15
I10
sg31
g20
((lp61
(I9
I1
tp62
a(I5
I6
tp63
a(I9
I6
tp64
a(I1
I5
tp65
a(I7
I5
tp66
a(I9
I4
tp67
a(I1
I7
tp68
a(I4
I1
tp69
a(I7
I2
tp70
a(I8
I2
tp71
atp72
Rp73
sg13
((I7
I3
tp74
(I4
I7
tp75
(I4
I2
tp76
tp77
sg14
I8
sbs(iproblems
RoomID
p78
(dp79
g10
I7
sg11
(I2
I5
tp80
sg13
I5
sg14
I9
sg15
I9
sg16
I4640892725076559864
sb(imulti_robot_problem
MultiRobotState
p81
(dp82
g19
g20
((lp83
(I2
I6
tp84
a(I6
I7
tp85
a(I0
I6
tp86
a(I3
I1
tp87
a(I1
I5
tp88
a(I1
I6
tp89
a(I0
I4
tp90
ag80
a(I3
I4
tp91
atp92
Rp93
sg15
I9
sg31
g20
((lp94
(I3
I8
tp95
a(I7
I3
tp96
a(I7
I1
tp97
a(I8
I1
tp98
a(I8
I6
tp99
a(I4
I2
tp100
a(I5
I3
tp101
atp102
Rp103
sg13
((I6
I5
tp104
(I8
I4
tp105
(I7
I6
tp106
(I6
I0
tp107
(I6
I3
tp108
tp109
sg14
I9
sbs(iproblems
RoomID
p110
(dp111
g10
I6
sg11
(I8
I4
tp112
sg13
I4
sg14
I10
sg15
I9
sg16
I3119042104763040036
sb(imulti_robot_problem
MultiRobotState
p113
(dp114
g19
g20
((lp115
(I1
I2
tp116
a(I6
I7
tp117
a(I4
I8
tp118
a(I7
I6
tp119
a(I8
I5
tp120
ag112
atp121
Rp122
sg15
I9
sg31
g20
((lp123
(I6
I8
tp124
a(I8
I7
tp125
a(I6
I6
tp126
a(I3
I0
tp127
a(I7
I2
tp128
a(I6
I5
tp129
atp130
Rp131
sg13
((I5
I9
tp132
(I6
I1
tp133
(I3
I4
tp134
(I2
I7
tp135
tp136
sg14
I10
sbs(iproblems
RoomID
p137
(dp138
g10
I6
sg11
(I3
I0
tp139
sg13
I4
sg14
I10
sg15
I7
sg16
I3914746131789064238
sb(imulti_robot_problem
MultiRobotState
p140
(dp141
g19
g20
((lp142
g139
a(I6
I1
tp143
a(I2
I3
tp144
a(I5
I0
tp145
a(I2
I2
tp146
a(I0
I3
tp147
a(I0
I8
tp148
a(I4
I1
tp149
a(I3
I5
tp150
atp151
Rp152
sg15
I7
sg31
g20
((lp153
(I6
I5
tp154
a(I3
I3
tp155
a(I1
I7
tp156
a(I0
I4
tp157
a(I3
I4
tp158
a(I0
I7
tp159
atp160
Rp161
sg13
((I1
I8
tp162
(I5
I1
tp163
(I5
I3
tp164
(I1
I9
tp165
tp166
sg14
I10
sbssS'name'
p167
S'easy_roomset'
p168
sbsg167
S'AnytimeBest-d10_with_PowerHeuristic2'
p169
sS'solutions'
p170
(dp171
g8
((lp172
(F0.31999999999970896
I8
tp173
aF40.050000000001091
tp174
sg48
((lp175
F40.059999999999491
tp176
sg78
((lp177
(F1.2399999999997817
I6
tp178
aF40.049999999999272
tp179
sg110
((lp180
F40.090000000000146
tp181
sg137
((lp182
(F0.19000000000050932
I7
tp183
aF40.030000000000655
tp184
ssba(imeasure_core
ProblemSetSolution
p185
(dp186
g3
(imeasure_core
RoomSet
p187
(dp188
g6
(dp189
(iproblems
RoomID
p190
(dp191
g10
I6
sg11
(I5
I5
tp192
sg13
I4
sg14
I12
sg15
I11
sg16
I3119042104763040036
sb(imulti_robot_problem
MultiRobotState
p193
(dp194
g19
g20
((lp195
(I4
I6
tp196
a(I10
I4
tp197
a(I3
I0
tp198
a(I9
I8
tp199
a(I10
I6
tp200
a(I2
I1
tp201
a(I8
I9
tp202
a(I2
I3
tp203
a(I0
I10
tp204
a(I9
I5
tp205
a(I10
I3
tp206
a(I7
I9
tp207
ag192
a(I10
I7
tp208
a(I7
I8
tp209
a(I4
I4
tp210
a(I9
I2
tp211
a(I2
I4
tp212
a(I4
I5
tp213
a(I2
I2
tp214
a(I3
I3
tp215
a(I3
I4
tp216
a(I1
I1
tp217
atp218
Rp219
sg15
I11
sg31
g20
((lp220
(I8
I3
tp221
a(I8
I8
tp222
a(I5
I10
tp223
a(I9
I4
tp224
a(I8
I6
tp225
a(I10
I9
tp226
atp227
Rp228
sg13
((I6
I11
tp229
(I7
I2
tp230
(I2
I8
tp231
(I8
I10
tp232
tp233
sg14
I12
sbs(iproblems
RoomID
p234
(dp235
g10
I6
sg11
(I4
I8
tp236
sg13
I4
sg14
I12
sg15
I9
sg16
I3914746131789064238
sb(imulti_robot_problem
MultiRobotState
p237
(dp238
g19
g20
((lp239
(I4
I6
tp240
a(I6
I6
tp241
a(I4
I5
tp242
a(I5
I7
tp243
a(I0
I5
tp244
a(I0
I10
tp245
a(I8
I7
tp246
a(I7
I0
tp247
a(I0
I3
tp248
a(I8
I5
tp249
a(I4
I0
tp250
a(I2
I3
tp251
a(I6
I7
tp252
a(I3
I3
tp253
a(I8
I1
tp254
a(I7
I6
tp255
a(I3
I1
tp256
ag236
a(I5
I0
tp257
a(I2
I2
tp258
a(I0
I9
tp259
a(I8
I6
tp260
a(I5
I3
tp261
a(I6
I1
tp262
atp263
Rp264
sg15
I9
sg31
g20
((lp265
(I1
I8
tp266
a(I1
I9
tp267
a(I4
I3
tp268
a(I4
I4
tp269
a(I2
I11
tp270
a(I2
I10
tp271
atp272
Rp273
sg13
((I1
I10
tp274
(I6
I2
tp275
(I7
I3
tp276
(I1
I11
tp277
tp278
sg14
I12
sbs(iproblems
RoomID
p279
(dp280
g10
I9
sg11
(I9
I10
tp281
sg13
I3
sg14
I11
sg15
I10
sg16
I4253868527325451640
sb(imulti_robot_problem
MultiRobotState
p282
(dp283
g19
g20
((lp284
(I7
I3
tp285
a(I4
I7
tp286
a(I2
I6
tp287
a(I7
I10
tp288
a(I4
I8
tp289
a(I6
I9
tp290
ag281
a(I3
I9
tp291
a(I1
I6
tp292
a(I3
I7
tp293
a(I2
I5
tp294
a(I8
I5
tp295
a(I5
I8
tp296
a(I7
I9
tp297
a(I7
I1
tp298
a(I8
I10
tp299
a(I5
I0
tp300
a(I2
I3
tp301
a(I3
I5
tp302
a(I3
I4
tp303
a(I2
I4
tp304
atp305
Rp306
sg15
I10
sg31
g20
((lp307
(I8
I9
tp308
a(I5
I10
tp309
a(I6
I8
tp310
a(I7
I6
tp311
a(I3
I8
tp312
a(I0
I10
tp313
a(I9
I4
tp314
a(I0
I9
tp315
a(I5
I3
tp316
atp317
Rp318
sg13
((I3
I6
tp319
(I0
I8
tp320
(I2
I1
tp321
tp322
sg14
I11
sbs(iproblems
RoomID
p323
(dp324
g10
I9
sg11
(I9
I9
tp325
sg13
I3
sg14
I10
sg15
I10
sg16
I3273124617966689144
sb(imulti_robot_problem
MultiRobotState
p326
(dp327
g19
g20
((lp328
(I7
I3
tp329
a(I5
I4
tp330
a(I1
I3
tp331
a(I6
I4
tp332
a(I4
I5
tp333
a(I9
I8
tp334
a(I3
I2
tp335
a(I7
I5
tp336
a(I1
I6
tp337
a(I2
I5
tp338
a(I0
I8
tp339
a(I9
I6
tp340
a(I6
I5
tp341
a(I5
I3
tp342
a(I3
I3
tp343
a(I5
I5
tp344
a(I7
I6
tp345
ag325
a(I6
I3
tp346
a(I4
I3
tp347
a(I2
I3
tp348
a(I8
I6
tp349
a(I2
I4
tp350
a(I9
I7
tp351
atp352
Rp353
sg15
I10
sg31
g20
((lp354
(I7
I0
tp355
a(I3
I0
tp356
a(I6
I1
tp357
a(I3
I1
tp358
a(I5
I0
tp359
a(I2
I2
tp360
a(I3
I4
tp361
a(I1
I1
tp362
a(I8
I4
tp363
atp364
Rp365
sg13
((I0
I7
tp366
(I2
I1
tp367
(I6
I6
tp368
tp369
sg14
I10
sbs(iproblems
RoomID
p370
(dp371
g10
I5
sg11
(I5
I7
tp372
sg13
I4
sg14
I9
sg15
I12
sg16
I659184109953178577
sb(imulti_robot_problem
MultiRobotState
p373
(dp374
g19
g20
((lp375
(I7
I3
tp376
a(I4
I7
tp377
a(I8
I2
tp378
a(I6
I6
tp379
a(I4
I5
tp380
a(I7
I7
tp381
a(I11
I0
tp382
a(I7
I5
tp383
a(I9
I4
tp384
a(I2
I5
tp385
a(I0
I8
tp386
a(I10
I3
tp387
a(I7
I2
tp388
a(I4
I6
tp389
a(I6
I4
tp390
a(I4
I3
tp391
a(I3
I3
tp392
a(I6
I1
tp393
ag372
a(I6
I5
tp394
a(I3
I6
tp395
a(I8
I6
tp396
a(I3
I4
tp397
atp398
Rp399
sg15
I12
sg31
g20
((lp400
(I10
I8
tp401
a(I4
I1
tp402
a(I0
I2
tp403
a(I1
I6
tp404
a(I10
I4
tp405
atp406
Rp407
sg13
((I10
I0
tp408
(I7
I0
tp409
(I2
I6
tp410
(I8
I3
tp411
tp412
sg14
I9
sbssg167
S'mild_roomset'
p413
sbsg167
g169
sg170
(dp414
g190
((lp415
F40.239999999999782
tp416
sg234
((lp417
(F0.2000000000007276
I6
tp418
aF40.040000000000873
tp419
sg370
((lp420
F40.100000000000364
tp421
sg323
((lp422
F40.090000000000146
tp423
sg279
((lp424
F40.019999999998618
tp425
ssba(imeasure_core
ProblemSetSolution
p426
(dp427
g3
(imeasure_core
RoomSet
p428
(dp429
g6
(dp430
(iproblems
RoomID
p431
(dp432
g10
I13
sg11
(I3
I4
tp433
sg13
I6
sg14
I10
sg15
I12
sg16
I1689441204489037471
sb(imulti_robot_problem
MultiRobotState
p434
(dp435
g19
g20
((lp436
(I7
I3
tp437
a(I1
I3
tp438
a(I8
I7
tp439
a(I10
I6
tp440
a(I7
I7
tp441
a(I6
I2
tp442
a(I1
I6
tp443
a(I9
I4
tp444
a(I4
I2
tp445
a(I5
I1
tp446
a(I10
I3
tp447
a(I2
I7
tp448
a(I9
I3
tp449
a(I9
I5
tp450
a(I0
I5
tp451
a(I11
I5
tp452
a(I8
I5
tp453
a(I5
I2
tp454
a(I0
I2
tp455
a(I3
I8
tp456
a(I4
I3
tp457
a(I0
I4
tp458
ag433
a(I8
I6
tp459
a(I4
I1
tp460
a(I1
I1
tp461
a(I8
I4
tp462
atp463
Rp464
sg15
I12
sg31
g20
((lp465
(I8
I9
tp466
a(I9
I0
tp467
a(I0
I0
tp468
a(I10
I4
tp469
a(I4
I8
tp470
a(I8
I1
tp471
a(I11
I2
tp472
a(I5
I4
tp473
a(I7
I4
tp474
a(I11
I8
tp475
a(I2
I6
tp476
a(I2
I3
tp477
a(I1
I5
tp478
atp479
Rp480
sg13
((I8
I0
tp481
(I7
I6
tp482
(I8
I8
tp483
(I7
I0
tp484
(I2
I4
tp485
(I9
I9
tp486
tp487
sg14
I10
sbs(iproblems
RoomID
p488
(dp489
g10
I15
sg11
(I10
I7
tp490
sg13
I6
sg14
I11
sg15
I13
sg16
I6660334802794327005
sb(imulti_robot_problem
MultiRobotState
p491
(dp492
g19
g20
((lp493
(I4
I7
tp494
a(I11
I7
tp495
a(I5
I6
tp496
a(I2
I8
tp497
a(I9
I9
tp498
a(I9
I10
tp499
a(I10
I8
tp500
a(I9
I0
tp501
ag490
a(I5
I7
tp502
a(I8
I10
tp503
a(I3
I8
tp504
a(I1
I5
tp505
a(I1
I8
tp506
a(I1
I10
tp507
a(I10
I0
tp508
a(I2
I4
tp509
atp510
Rp511
sg15
I13
sg31
g20
((lp512
(I2
I7
tp513
a(I12
I2
tp514
a(I6
I9
tp515
a(I6
I10
tp516
a(I12
I1
tp517
a(I2
I9
tp518
a(I12
I0
tp519
a(I12
I9
tp520
a(I11
I2
tp521
a(I10
I6
tp522
a(I1
I7
tp523
a(I12
I5
tp524
a(I6
I3
tp525
a(I10
I3
tp526
a(I12
I8
tp527
atp528
Rp529
sg13
((I9
I5
tp530
(I5
I10
tp531
(I5
I3
tp532
(I5
I1
tp533
(I9
I3
tp534
(I7
I8
tp535
tp536
sg14
I11
sbs(iproblems
RoomID
p537
(dp538
g10
I11
sg11
(I6
I1
tp539
sg13
I7
sg14
I13
sg15
I10
sg16
I3914746131789064238
sb(imulti_robot_problem
MultiRobotState
p540
(dp541
g19
g20
((lp542
(I0
I0
tp543
a(I7
I0
tp544
a(I9
I1
tp545
a(I2
I9
tp546
a(I7
I1
tp547
a(I9
I2
tp548
ag539
a(I6
I3
tp549
a(I8
I1
tp550
a(I7
I2
tp551
a(I5
I1
tp552
a(I7
I8
tp553
a(I6
I5
tp554
a(I5
I5
tp555
atp556
Rp557
sg15
I10
sg31
g20
((lp558
(I4
I7
tp559
a(I3
I3
tp560
a(I4
I5
tp561
a(I4
I4
tp562
a(I1
I4
tp563
a(I0
I11
tp564
a(I0
I5
tp565
a(I0
I10
tp566
a(I8
I7
tp567
a(I9
I5
tp568
a(I5
I3
tp569
atp570
Rp571
sg13
((I1
I11
tp572
(I8
I4
tp573
(I2
I12
tp574
(I1
I9
tp575
(I2
I11
tp576
(I5
I4
tp577
(I5
I0
tp578
tp579
sg14
I13
sbs(iproblems
RoomID
p580
(dp581
g10
I11
sg11
(I7
I6
tp582
sg13
I7
sg14
I13
sg15
I12
sg16
I3119042104763040036
sb(imulti_robot_problem
MultiRobotState
p583
(dp584
g19
g20
((lp585
(I5
I4
tp586
a(I4
I5
tp587
a(I9
I8
tp588
a(I10
I6
tp589
a(I9
I0
tp590
a(I6
I0
tp591
a(I8
I9
tp592
a(I2
I12
tp593
a(I9
I6
tp594
a(I10
I5
tp595
a(I5
I10
tp596
a(I10
I7
tp597
ag582
a(I9
I9
tp598
a(I8
I6
tp599
a(I11
I6
tp600
a(I9
I7
tp601
atp602
Rp603
sg15
I12
sg31
g20
((lp604
(I1
I2
tp605
a(I4
I4
tp606
a(I5
I11
tp607
a(I5
I6
tp608
a(I3
I4
tp609
a(I8
I0
tp610
a(I8
I10
tp611
a(I0
I11
tp612
a(I2
I3
tp613
a(I7
I8
tp614
a(I4
I0
tp615
atp616
Rp617
sg13
((I7
I12
tp618
(I8
I2
tp619
(I4
I6
tp620
(I3
I9
tp621
(I9
I11
tp622
(I11
I9
tp623
(I9
I3
tp624
tp625
sg14
I13
sbs(iproblems
RoomID
p626
(dp627
g10
I12
sg11
(I8
I7
tp628
sg13
I7
sg14
I12
sg15
I12
sg16
I4640892725076559864
sb(imulti_robot_problem
MultiRobotState
p629
(dp630
g19
g20
((lp631
(I5
I9
tp632
a(I6
I9
tp633
a(I4
I8
tp634
a(I5
I6
tp635
a(I2
I8
tp636
a(I6
I0
tp637
a(I2
I10
tp638
a(I0
I9
tp639
a(I6
I2
tp640
ag628
a(I3
I7
tp641
a(I5
I1
tp642
a(I1
I0
tp643
a(I8
I5
tp644
a(I7
I9
tp645
a(I7
I4
tp646
a(I7
I0
tp647
a(I6
I8
tp648
a(I2
I9
tp649
a(I0
I6
tp650
a(I7
I6
tp651
a(I5
I7
tp652
a(I8
I10
tp653
a(I0
I2
tp654
a(I6
I3
tp655
a(I2
I0
tp656
a(I1
I8
tp657
a(I4
I5
tp658
a(I5
I2
tp659
a(I1
I1
tp660
a(I9
I7
tp661
atp662
Rp663
sg15
I12
sg31
g20
((lp664
(I2
I7
tp665
a(I6
I4
tp666
a(I11
I10
tp667
a(I4
I6
tp668
a(I11
I8
tp669
a(I11
I2
tp670
a(I9
I3
tp671
a(I3
I2
tp672
a(I8
I8
tp673
a(I0
I5
tp674
a(I10
I3
tp675
a(I5
I3
tp676
atp677
Rp678
sg13
((I8
I6
tp679
(I11
I5
tp680
(I10
I8
tp681
(I9
I0
tp682
(I9
I4
tp683
(I9
I2
tp684
(I4
I11
tp685
tp686
sg14
I12
sbssg167
S'heavy_roomset'
p687
sbsg167
g169
sg170
(dp688
g431
((lp689
F40.600000000000364
tp690
sg488
((lp691
F40.479999999999563
tp692
sg580
((lp693
F50.25
tp694
sg537
((lp695
F41.210000000000946
tp696
sg626
((lp697
F41.590000000000146
tp698
ssba(imeasure_core
ProblemSetSolution
p699
(dp700
g3
g4
sg167
S'AnytimeBest-d80_with_PowerHeuristic2'
p701
sg170
(dp702
g8
((lp703
(F0.31999999999970896
I8
tp704
aF40.029999999998836
tp705
sg48
((lp706
(F0.23999999999978172
I23
tp707
aF40.0
tp708
sg78
((lp709
(F1.2199999999993452
I6
tp710
aF40.059999999999491
tp711
sg110
((lp712
(F0.48000000000138243
I11
tp713
aF40.070000000001528
tp714
sg137
((lp715
(F0.18999999999869033
I7
tp716
aF40.159999999999854
tp717
ssba(imeasure_core
ProblemSetSolution
p718
(dp719
g3
g187
sg167
g701
sg170
(dp720
g190
((lp721
F40.139999999999418
tp722
sg234
((lp723
(F0.2000000000007276
I6
tp724
aF40.040000000000873
tp725
sg370
((lp726
(F1.1600000000016735
I18
tp727
aF40.030000000000655
tp728
sg323
((lp729
(F16.140000000001237
I47
tp730
aF40.079999999999927
tp731
sg279
((lp732
(F0.37999999999919964
I32
tp733
aF40.009999999998399
tp734
ssba(imeasure_core
ProblemSetSolution
p735
(dp736
g3
g428
sg167
g701
sg170
(dp737
g431
((lp738
F40.489999999999782
tp739
sg488
((lp740
(F17.25
I11
tp741
aF40.170000000000073
tp742
sg580
((lp743
F50.300000000001091
tp744
sg537
((lp745
F41.069999999999709
tp746
sg626
((lp747
F40.8799999999992
tp748
ssba(imeasure_core
ProblemSetSolution
p749
(dp750
g3
g4
sg167
S'AnytimeBest-d150_with_PowerHeuristic2'
p751
sg170
(dp752
g8
((lp753
(F0.31999999999970896
I8
tp754
aF40.039999999999054
tp755
sg48
((lp756
(F0.23000000000138243
I23
tp757
aF40.010000000000218
tp758
sg78
((lp759
(F1.2300000000013824
I6
tp760
aF40.050000000001091
tp761
sg110
((lp762
(F0.46999999999934516
I11
tp763
aF40.069999999999709
tp764
sg137
((lp765
(F0.19000000000050932
I7
tp766
aF40.030000000000655
tp767
ssba(imeasure_core
ProblemSetSolution
p768
(dp769
g3
g187
sg167
g751
sg170
(dp770
g190
((lp771
F40.289999999999054
tp772
sg234
((lp773
(F0.2000000000007276
I6
tp774
aF40.090000000000146
tp775
sg370
((lp776
(F1.1599999999998545
I18
tp777
aF40.030000000000655
tp778
sg323
((lp779
(F16.1200000000008
I47
tp780
aF40.050000000001091
tp781
sg279
((lp782
(F0.37999999999919964
I32
tp783
aF40.039999999999054
tp784
ssba(imeasure_core
ProblemSetSolution
p785
(dp786
g3
g428
sg167
g751
sg170
(dp787
g431
((lp788
F40.280000000000655
tp789
sg488
((lp790
(F17.159999999999854
I11
tp791
aF40.170000000000073
tp792
sg580
((lp793
F50.090000000000146
tp794
sg537
((lp795
F41.670000000000073
tp796
sg626
((lp797
F40.729999999999563
tp798
ssba(imeasure_core
ProblemSetSolution
p799
(dp800
g3
g4
sg167
S'AnytimeBest-d250_with_PowerHeuristic2'
p801
sg170
(dp802
g8
((lp803
(F0.31999999999970896
I8
tp804
aF40.040000000000873
tp805
sg48
((lp806
(F0.21999999999934516
I23
tp807
aF40.009999999998399
tp808
sg78
((lp809
(F1.2200000000011642
I6
tp810
aF40.050000000001091
tp811
sg110
((lp812
(F0.46999999999934516
I11
tp813
aF40.049999999999272
tp814
sg137
((lp815
(F0.18000000000029104
I7
tp816
aF40.030000000000655
tp817
ssba(imeasure_core
ProblemSetSolution
p818
(dp819
g3
g187
sg167
g801
sg170
(dp820
g190
((lp821
(F15.909999999999854
I164
tp822
aF40.170000000000073
tp823
sg234
((lp824
(F0.19999999999890861
I6
tp825
aF40.039999999999054
tp826
sg370
((lp827
(F1.1700000000000728
I18
tp828
aF40.040000000000873
tp829
sg323
((lp830
(F16.110000000000582
I47
tp831
aF40.059999999999491
tp832
sg279
((lp833
(F0.38000000000101863
I32
tp834
aF40.010000000000218
tp835
ssba(imeasure_core
ProblemSetSolution
p836
(dp837
g3
g428
sg167
g801
sg170
(dp838
g431
((lp839
F40.899999999999636
tp840
sg488
((lp841
(F17.25
I11
tp842
aF40.170000000000073
tp843
sg580
((lp844
F50.489999999999782
tp845
sg537
((lp846
F41.319999999999709
tp847
sg626
((lp848
F41.070000000001528
tp849
ssba(imeasure_core
ProblemSetSolution
p850
(dp851
g3
g4
sg167
S'AnytimeBest-d400_with_PowerHeuristic2'
p852
sg170
(dp853
g8
((lp854
(F0.31999999999970896
I8
tp855
aF40.039999999999054
tp856
sg48
((lp857
(F0.22999999999956344
I23
tp858
aF40.010000000000218
tp859
sg78
((lp860
(F1.2399999999997817
I6
tp861
aF40.049999999999272
tp862
sg110
((lp863
(F0.47000000000116415
I11
tp864
aF40.050000000001091
tp865
sg137
((lp866
(F0.18000000000029104
I7
tp867
aF40.029999999998836
tp868
ssba(imeasure_core
ProblemSetSolution
p869
(dp870
g3
g187
sg167
g852
sg170
(dp871
g190
((lp872
(F15.819999999999709
I164
tp873
aF40.050000000001091
tp874
sg234
((lp875
(F0.19999999999890861
I6
tp876
aF40.039999999999054
tp877
sg370
((lp878
(F1.1700000000000728
I18
tp879
aF40.030000000000655
tp880
sg323
((lp881
(F16.139999999999418
I47
tp882
aF40.049999999999272
tp883
sg279
((lp884
(F0.38000000000101863
I32
tp885
aF40.020000000000437
tp886
ssba(imeasure_core
ProblemSetSolution
p887
(dp888
g3
g428
sg167
g852
sg170
(dp889
g431
((lp890
F40.520000000000437
tp891
sg488
((lp892
(F17.170000000000073
I11
tp893
aF40.170000000000073
tp894
sg580
((lp895
F50.139999999999418
tp896
sg537
((lp897
F41.670000000000073
tp898
sg626
((lp899
F40.860000000000582
tp900
ssba(imeasure_core
ProblemSetSolution
p901
(dp902
g3
g4
sg167
S'AnytimeBest-d10_with_LinearHeuristic'
p903
sg170
(dp904
g8
((lp905
F40.109999999998763
tp906
sg48
((lp907
F40.050000000001091
tp908
sg78
((lp909
(F1.930000000000291
I6
tp910
aF40.219999999999345
tp911
sg110
((lp912
F40.180000000000291
tp913
sg137
((lp914
F40.1299999999992
tp915
ssba(imeasure_core
ProblemSetSolution
p916
(dp917
g3
g187
sg167
g903
sg170
(dp918
g190
((lp919
F40.150000000001455
tp920
sg234
((lp921
(F1.429999999998472
I10
tp922
a(F11.479999999999563
I9
tp923
a(F21.309999999999491
I8
tp924
aF40.219999999999345
tp925
sg370
((lp926
F40.030000000000655
tp927
sg323
((lp928
F40.059999999999491
tp929
sg279
((lp930
F40.030000000000655
tp931
ssba(imeasure_core
ProblemSetSolution
p932
(dp933
g3
g428
sg167
g903
sg170
(dp934
g431
((lp935
F40.239999999999782
tp936
sg488
((lp937
F40.469999999999345
tp938
sg580
((lp939
F40.729999999999563
tp940
sg537
((lp941
F46.940000000000509
tp942
sg626
((lp943
F40.840000000000146
tp944
ssba(imeasure_core
ProblemSetSolution
p945
(dp946
g3
g4
sg167
S'AnytimeBest-d80_with_LinearHeuristic'
p947
sg170
(dp948
g8
((lp949
F40.239999999999782
tp950
sg48
((lp951
F40.079999999999927
tp952
sg78
((lp953
(F1.9400000000005093
I6
tp954
aF40.440000000000509
tp955
sg110
((lp956
F40.039999999999054
tp957
sg137
((lp958
F40.040000000000873
tp959
ssba(imeasure_core
ProblemSetSolution
p960
(dp961
g3
g187
sg167
g947
sg170
(dp962
g190
((lp963
F40.069999999999709
tp964
sg234
((lp965
(F0.46999999999934516
I12
tp966
a(F4.6000000000003638
I11
tp967
a(F7.9899999999997817
I10
tp968
a(F18.409999999999854
I9
tp969
a(F28.639999999999418
I8
tp970
aF40.219999999999345
tp971
sg370
((lp972
F40.040000000000873
tp973
sg323
((lp974
F40.039999999999054
tp975
sg279
((lp976
(F35.659999999999854
I80
tp977
aF40.040000000000873
tp978
ssba(imeasure_core
ProblemSetSolution
p979
(dp980
g3
g428
sg167
g947
sg170
(dp981
g431
((lp982
F40.6299999999992
tp983
sg488
((lp984
F40.800000000001091
tp985
sg580
((lp986
F40.340000000000146
tp987
sg537
((lp988
F47.359999999998763
tp989
sg626
((lp990
F41.030000000000655
tp991
ssba(imeasure_core
ProblemSetSolution
p992
(dp993
g3
g4
sg167
S'AnytimeBest-d150_with_LinearHeuristic'
p994
sg170
(dp995
g8
((lp996
F40.409999999999854
tp997
sg48
((lp998
F40.069999999999709
tp999
sg78
((lp1000
(F1.9200000000000728
I6
tp1001
aF40.219999999999345
tp1002
sg110
((lp1003
F40.210000000000946
tp1004
sg137
((lp1005
F40.039999999999054
tp1006
ssba(imeasure_core
ProblemSetSolution
p1007
(dp1008
g3
g187
sg167
g994
sg170
(dp1009
g190
((lp1010
F40.239999999999782
tp1011
sg234
((lp1012
(F0.47000000000116415
I12
tp1013
a(F4.6000000000003638
I11
tp1014
a(F7.9700000000011642
I10
tp1015
a(F18.360000000000582
I9
tp1016
a(F28.550000000001091
I8
tp1017
aF40.220000000001164
tp1018
sg370
((lp1019
F40.040000000000873
tp1020
sg323
((lp1021
F40.059999999999491
tp1022
sg279
((lp1023
F40.049999999999272
tp1024
ssba(imeasure_core
ProblemSetSolution
p1025
(dp1026
g3
g428
sg167
g994
sg170
(dp1027
g431
((lp1028
F40.640000000001237
tp1029
sg488
((lp1030
F40.849999999998545
tp1031
sg580
((lp1032
F40.440000000002328
tp1033
sg537
((lp1034
F46.799999999999272
tp1035
sg626
((lp1036
F41.079999999998108
tp1037
ssba(imeasure_core
ProblemSetSolution
p1038
(dp1039
g3
g4
sg167
S'AnytimeBest-d250_with_LinearHeuristic'
p1040
sg170
(dp1041
g8
((lp1042
F40.400000000001455
tp1043
sg48
((lp1044
F40.069999999999709
tp1045
sg78
((lp1046
(F1.9400000000023283
I6
tp1047
aF40.220000000001164
tp1048
sg110
((lp1049
(F34.720000000001164
I165
tp1050
aF40.059999999997672
tp1051
sg137
((lp1052
F40.080000000001746
tp1053
ssba(imeasure_core
ProblemSetSolution
p1054
(dp1055
g3
g187
sg167
g1040
sg170
(dp1056
g190
((lp1057
F40.119999999998981
tp1058
sg234
((lp1059
(F0.47999999999956344
I12
tp1060
a(F4.6000000000021828
I11
tp1061
a(F7.9700000000011642
I10
tp1062
a(F18.350000000002183
I9
tp1063
a(F28.549999999999272
I8
tp1064
aF40.280000000002474
tp1065
sg370
((lp1066
F40.30000000000291
tp1067
sg323
((lp1068
F40.059999999997672
tp1069
sg279
((lp1070
F40.049999999999272
tp1071
ssba(imeasure_core
ProblemSetSolution
p1072
(dp1073
g3
g428
sg167
g1040
sg170
(dp1074
g431
((lp1075
F40.539999999997235
tp1076
sg488
((lp1077
F40.640000000003056
tp1078
sg580
((lp1079
F57.770000000000437
tp1080
sg537
((lp1081
F47.179999999996653
tp1082
sg626
((lp1083
F41.330000000001746
tp1084
ssba(imeasure_core
ProblemSetSolution
p1085
(dp1086
g3
g4
sg167
S'AnytimeBest-d400_with_LinearHeuristic'
p1087
sg170
(dp1088
g8
((lp1089
F40.200000000000728
tp1090
sg48
((lp1091
F40.079999999998108
tp1092
sg78
((lp1093
(F1.9400000000023283
I6
tp1094
aF40.220000000001164
tp1095
sg110
((lp1096
(F34.919999999998254
I165
tp1097
aF40.090000000000146
tp1098
sg137
((lp1099
F40.149999999997817
tp1100
ssba(imeasure_core
ProblemSetSolution
p1101
(dp1102
g3
g187
sg167
g1087
sg170
(dp1103
g190
((lp1104
F40.090000000000146
tp1105
sg234
((lp1106
(F0.47000000000116415
I12
tp1107
a(F4.5900000000001455
I11
tp1108
a(F7.9600000000027649
I10
tp1109
a(F18.360000000000582
I9
tp1110
a(F28.55000000000291
I8
tp1111
aF40.220000000001164
tp1112
sg370
((lp1113
F40.049999999999272
tp1114
sg323
((lp1115
F40.029999999998836
tp1116
sg279
((lp1117
F40.06000000000131
tp1118
ssba(imeasure_core
ProblemSetSolution
p1119
(dp1120
g3
g428
sg167
g1087
sg170
(dp1121
g431
((lp1122
F40.559999999997672
tp1123
sg488
((lp1124
F40.840000000000146
tp1125
sg580
((lp1126
F40.5
tp1127
sg537
((lp1128
F46.75
tp1129
sg626
((lp1130
F41.080000000001746
tp1131
ssba.