(lp0
(imeasure_core
ProblemSetSolution
p1
(dp2
S'roomset'
p3
(imeasure_core
RoomSet
p4
(dp5
S'rooms'
p6
(dp7
(iproblems
RoomID
p8
(dp9
S'dusts'
p10
I8
sS'obstacles'
p11
(I5
I3
tp12
sS'robots'
p13
I3
sS'height'
p14
I7
sS'width'
p15
I7
sS'seed'
p16
I7325839828077136048
sb(imulti_robot_problem
MultiRobotState
p17
(dp18
S'obstacle_locations'
p19
c__builtin__
frozenset
p20
((lp21
(I6
I4
tp22
a(I5
I4
tp23
a(I5
I5
tp24
a(I6
I6
tp25
a(I3
I1
tp26
a(I6
I0
tp27
a(I2
I0
tp28
a(I0
I4
tp29
ag12
atp30
Rp31
sg15
I7
sS'dirt_locations'
p32
g20
((lp33
(I0
I6
tp34
a(I3
I0
tp35
a(I2
I4
tp36
a(I1
I5
tp37
a(I4
I3
tp38
a(I2
I2
tp39
a(I1
I1
tp40
a(I3
I5
tp41
atp42
Rp43
sg13
((I1
I0
tp44
(I3
I3
tp45
(I6
I2
tp46
tp47
sg14
I7
sbs(iproblems
RoomID
p48
(dp49
g10
I6
sg11
(I5
I1
tp50
sg13
I4
sg14
I9
sg15
I10
sg16
I2405875930906139466
sb(imulti_robot_problem
MultiRobotState
p51
(dp52
g19
g20
((lp53
(I7
I0
tp54
a(I7
I1
tp55
ag50
a(I6
I1
tp56
a(I6
I0
tp57
a(I7
I2
tp58
atp59
Rp60
sg15
I10
sg32
g20
((lp61
(I7
I3
tp62
a(I2
I1
tp63
a(I6
I4
tp64
a(I5
I6
tp65
a(I5
I2
tp66
a(I0
I7
tp67
atp68
Rp69
sg13
((I7
I6
tp70
(I3
I3
tp71
(I8
I6
tp72
(I0
I2
tp73
tp74
sg14
I9
sbs(iproblems
RoomID
p75
(dp76
g10
I6
sg11
(I4
I6
tp77
sg13
I1
sg14
I8
sg15
I7
sg16
I3537054308274871603
sb(imulti_robot_problem
MultiRobotState
p78
(dp79
g19
g20
((lp80
(I4
I7
tp81
ag77
a(I4
I5
tp82
a(I2
I5
tp83
a(I3
I5
tp84
a(I6
I0
tp85
a(I2
I4
tp86
atp87
Rp88
sg15
I7
sg32
g20
((lp89
(I0
I6
tp90
a(I6
I2
tp91
a(I5
I6
tp92
a(I4
I1
tp93
a(I1
I1
tp94
a(I5
I3
tp95
atp96
Rp97
sg13
((I0
I3
tp98
tp99
sg14
I8
sbs(iproblems
RoomID
p100
(dp101
g10
I10
sg11
(I4
I7
tp102
sg13
I5
sg14
I10
sg15
I8
sg16
I8655808914197340073
sb(imulti_robot_problem
MultiRobotState
p103
(dp104
g19
g20
((lp105
(I2
I7
tp106
ag102
a(I4
I8
tp107
a(I6
I3
tp108
a(I7
I5
tp109
a(I3
I7
tp110
a(I1
I0
tp111
a(I5
I3
tp112
atp113
Rp114
sg15
I8
sg32
g20
((lp115
(I7
I3
tp116
a(I5
I4
tp117
a(I7
I0
tp118
a(I5
I7
tp119
a(I1
I5
tp120
a(I1
I9
tp121
a(I3
I6
tp122
a(I1
I7
tp123
a(I3
I4
tp124
a(I5
I8
tp125
atp126
Rp127
sg13
((I3
I8
tp128
(I7
I9
tp129
(I6
I1
tp130
(I2
I3
tp131
(I5
I5
tp132
tp133
sg14
I10
sbs(iproblems
RoomID
p134
(dp135
g10
I6
sg11
(I6
I7
tp136
sg13
I4
sg14
I10
sg15
I7
sg16
I8744744311366254845
sb(imulti_robot_problem
MultiRobotState
p137
(dp138
g19
g20
((lp139
(I0
I6
tp140
ag136
a(I4
I6
tp141
a(I3
I7
tp142
a(I5
I7
tp143
a(I1
I9
tp144
atp145
Rp146
sg15
I7
sg32
g20
((lp147
(I2
I7
tp148
a(I0
I1
tp149
a(I5
I4
tp150
a(I6
I0
tp151
a(I5
I8
tp152
a(I5
I3
tp153
atp154
Rp155
sg13
((I0
I8
tp156
(I4
I2
tp157
(I3
I0
tp158
(I1
I4
tp159
tp160
sg14
I10
sbssS'name'
p161
S'easy_roomset'
p162
sbsg161
S"AnytimeBeam-w5-gf(1.5, 'exp')_with_PowerHeuristic2"
p163
sS'solutions'
p164
(dp165
g8
((lp166
(F4.6599999999998545
I144
tp167
aF40.06999999999971
tp168
sg48
((lp169
(F0.8700000000026193
I10
tp170
aF40.210000000002765
tp171
sg75
((lp172
(F0.11999999999898137
I49
tp173
a(F0.31999999999970896
I47
tp174
a(F0.5200000000004366
I45
tp175
a(F0.7799999999988358
I43
tp176
a(F1.1999999999970896
I41
tp177
a(F1.610000000000582
I40
tp178
a(F2.5799999999981083
I39
tp179
a(F3.4499999999970896
I38
tp180
a(F4.669999999998254
I37
tp181
a(F5.799999999999272
I35
tp182
a(F7.379999999997381
I33
tp183
a(F9.62999999999738
I31
tp184
a(F11.520000000000437
I29
tp185
a(F13.020000000000437
I27
tp186
a(F14.93999999999869
I25
tp187
a(F19.139999999999418
I24
tp188
a(F22.87999999999738
I22
tp189
a(F26.05999999999767
I20
tp190
aF40.0
tp191
sg100
((lp192
(F6.69999999999709
I9
tp193
aF40.63999999999942
tp194
sg134
((lp195
(F1.6199999999989814
I14
tp196
aF40.39999999999782
tp197
ssba(imeasure_core
ProblemSetSolution
p198
(dp199
g3
(imeasure_core
RoomSet
p200
(dp201
g6
(dp202
(iproblems
RoomID
p203
(dp204
g10
I10
sg11
(I3
I6
tp205
sg13
I4
sg14
I12
sg15
I11
sg16
I4278205817407065157
sb(imulti_robot_problem
MultiRobotState
p206
(dp207
g19
g20
((lp208
(I0
I1
tp209
a(I4
I7
tp210
a(I5
I6
tp211
a(I2
I8
tp212
a(I0
I10
tp213
a(I3
I7
tp214
a(I7
I11
tp215
a(I3
I3
tp216
a(I2
I7
tp217
a(I5
I3
tp218
a(I6
I7
tp219
a(I4
I6
tp220
a(I10
I7
tp221
a(I4
I4
tp222
a(I3
I8
tp223
a(I4
I5
tp224
ag205
a(I1
I10
tp225
a(I3
I5
tp226
a(I1
I9
tp227
atp228
Rp229
sg15
I11
sg32
g20
((lp230
(I1
I2
tp231
a(I8
I1
tp232
a(I9
I2
tp233
a(I6
I1
tp234
a(I5
I7
tp235
a(I8
I9
tp236
a(I3
I0
tp237
a(I9
I4
tp238
a(I0
I2
tp239
a(I4
I0
tp240
atp241
Rp242
sg13
((I6
I10
tp243
(I5
I11
tp244
(I2
I0
tp245
(I9
I1
tp246
tp247
sg14
I12
sbs(iproblems
RoomID
p248
(dp249
g10
I10
sg11
(I0
I5
tp250
sg13
I4
sg14
I12
sg15
I10
sg16
I8655808914197340073
sb(imulti_robot_problem
MultiRobotState
p251
(dp252
g19
g20
((lp253
(I5
I9
tp254
a(I5
I4
tp255
a(I5
I7
tp256
a(I6
I6
tp257
a(I4
I8
tp258
a(I8
I0
tp259
a(I0
I7
tp260
a(I7
I5
tp261
a(I2
I3
tp262
a(I1
I4
tp263
a(I6
I8
tp264
a(I1
I11
tp265
a(I9
I6
tp266
a(I5
I8
tp267
a(I4
I6
tp268
a(I3
I8
tp269
a(I6
I7
tp270
a(I5
I5
tp271
a(I3
I4
tp272
a(I4
I4
tp273
a(I6
I3
tp274
a(I2
I0
tp275
a(I6
I5
tp276
ag250
a(I7
I8
tp277
atp278
Rp279
sg15
I10
sg32
g20
((lp280
(I6
I9
tp281
a(I2
I9
tp282
a(I2
I11
tp283
a(I9
I0
tp284
a(I7
I7
tp285
a(I8
I3
tp286
a(I1
I7
tp287
a(I8
I6
tp288
a(I8
I4
tp289
a(I3
I5
tp290
atp291
Rp292
sg13
((I4
I9
tp293
(I8
I11
tp294
(I7
I1
tp295
(I3
I3
tp296
tp297
sg14
I12
sbs(iproblems
RoomID
p298
(dp299
g10
I6
sg11
(I3
I3
tp300
sg13
I4
sg14
I12
sg15
I12
sg16
I7193062864237573168
sb(imulti_robot_problem
MultiRobotState
p301
(dp302
g19
g20
((lp303
(I6
I4
tp304
a(I5
I4
tp305
a(I1
I3
tp306
a(I6
I6
tp307
a(I7
I1
tp308
a(I9
I3
tp309
a(I0
I7
tp310
a(I1
I6
tp311
a(I2
I5
tp312
a(I0
I8
tp313
a(I10
I3
tp314
a(I8
I3
tp315
a(I3
I1
tp316
ag300
a(I5
I7
tp317
a(I11
I3
tp318
a(I7
I4
tp319
a(I0
I9
tp320
a(I2
I3
tp321
a(I8
I4
tp322
a(I3
I4
tp323
a(I2
I4
tp324
a(I9
I7
tp325
atp326
Rp327
sg15
I12
sg32
g20
((lp328
(I2
I0
tp329
a(I2
I6
tp330
a(I6
I8
tp331
a(I0
I6
tp332
a(I4
I4
tp333
a(I7
I7
tp334
atp335
Rp336
sg13
((I11
I9
tp337
(I11
I2
tp338
(I4
I11
tp339
(I3
I6
tp340
tp341
sg14
I12
sbs(iproblems
RoomID
p342
(dp343
g10
I6
sg11
(I1
I8
tp344
sg13
I4
sg14
I11
sg15
I12
sg16
I2405875930906139466
sb(imulti_robot_problem
MultiRobotState
p345
(dp346
g19
g20
((lp347
(I6
I4
tp348
a(I4
I6
tp349
a(I8
I2
tp350
a(I6
I6
tp351
a(I2
I8
tp352
a(I8
I0
tp353
a(I5
I5
tp354
a(I9
I10
tp355
a(I6
I2
tp356
a(I2
I3
tp357
a(I3
I7
tp358
a(I6
I5
tp359
a(I5
I3
tp360
a(I7
I0
tp361
a(I3
I3
tp362
a(I2
I9
tp363
a(I11
I5
tp364
a(I8
I1
tp365
a(I6
I1
tp366
a(I3
I1
tp367
a(I6
I3
tp368
a(I2
I0
tp369
ag344
a(I7
I5
tp370
a(I3
I6
tp371
a(I4
I3
tp372
a(I3
I4
tp373
atp374
Rp375
sg15
I12
sg32
g20
((lp376
(I9
I4
tp377
a(I7
I1
tp378
a(I0
I9
tp379
a(I9
I3
tp380
a(I7
I7
tp381
a(I2
I1
tp382
atp383
Rp384
sg13
((I9
I7
tp385
(I4
I4
tp386
(I10
I8
tp387
(I0
I2
tp388
tp389
sg14
I11
sbs(iproblems
RoomID
p390
(dp391
g10
I10
sg11
(I11
I0
tp392
sg13
I4
sg14
I9
sg15
I12
sg16
I2796939073032698495
sb(imulti_robot_problem
MultiRobotState
p393
(dp394
g19
g20
((lp395
(I7
I3
tp396
a(I5
I7
tp397
a(I9
I1
tp398
a(I6
I6
tp399
a(I8
I0
tp400
a(I7
I7
tp401
a(I5
I8
tp402
a(I3
I3
tp403
a(I8
I1
tp404
a(I4
I8
tp405
a(I6
I3
tp406
a(I7
I2
tp407
a(I3
I6
tp408
a(I6
I4
tp409
a(I5
I4
tp410
a(I2
I6
tp411
a(I7
I1
tp412
a(I4
I5
tp413
ag392
a(I2
I3
tp414
a(I10
I1
tp415
a(I1
I0
tp416
a(I6
I5
tp417
a(I5
I3
tp418
a(I8
I3
tp419
a(I7
I0
tp420
a(I6
I8
tp421
a(I9
I2
tp422
a(I6
I1
tp423
a(I3
I1
tp424
a(I8
I8
tp425
a(I4
I3
tp426
a(I5
I2
tp427
a(I10
I2
tp428
atp429
Rp430
sg15
I12
sg32
g20
((lp431
(I1
I2
tp432
a(I11
I7
tp433
a(I3
I2
tp434
a(I2
I8
tp435
a(I9
I3
tp436
a(I1
I6
tp437
a(I5
I0
tp438
a(I0
I3
tp439
a(I0
I8
tp440
a(I4
I1
tp441
atp442
Rp443
sg13
((I10
I8
tp444
(I4
I6
tp445
(I11
I4
tp446
(I7
I8
tp447
tp448
sg14
I9
sbssg161
S'mild_roomset'
p449
sbsg161
g163
sg164
(dp450
g342
((lp451
(F33.470000000001164
I24
tp452
aF40.04000000000087
tp453
sg248
((lp454
F40.169999999998254
tp455
sg390
((lp456
F40.12999999999738
tp457
sg203
((lp458
(F4.880000000001019
I28
tp459
aF40.76000000000204
tp460
sg298
((lp461
(F3.2700000000004366
I25
tp462
aF40.2400000000016
tp463
ssba(imeasure_core
ProblemSetSolution
p464
(dp465
g3
(imeasure_core
RoomSet
p466
(dp467
g6
(dp468
(iproblems
RoomID
p469
(dp470
g10
I15
sg11
(I5
I8
tp471
sg13
I7
sg14
I13
sg15
I11
sg16
I8655808914197340073
sb(imulti_robot_problem
MultiRobotState
p472
(dp473
g19
g20
((lp474
(I5
I9
tp475
a(I6
I7
tp476
a(I6
I11
tp477
a(I1
I4
tp478
a(I0
I12
tp479
a(I0
I11
tp480
a(I7
I5
tp481
a(I1
I6
tp482
a(I0
I4
tp483
a(I5
I10
tp484
a(I3
I9
tp485
a(I4
I9
tp486
a(I10
I3
tp487
ag471
atp488
Rp489
sg15
I11
sg32
g20
((lp490
(I2
I7
tp491
a(I7
I3
tp492
a(I4
I6
tp493
a(I1
I12
tp494
a(I5
I6
tp495
a(I8
I5
tp496
a(I7
I7
tp497
a(I7
I9
tp498
a(I2
I0
tp499
a(I9
I4
tp500
a(I7
I10
tp501
a(I0
I8
tp502
a(I9
I6
tp503
a(I6
I5
tp504
a(I9
I7
tp505
atp506
Rp507
sg13
((I9
I11
tp508
(I8
I1
tp509
(I3
I4
tp510
(I8
I7
tp511
(I9
I1
tp512
(I2
I10
tp513
(I2
I12
tp514
tp515
sg14
I13
sbs(iproblems
RoomID
p516
(dp517
g10
I15
sg11
(I3
I6
tp518
sg13
I7
sg14
I10
sg15
I13
sg16
I2796939073032698495
sb(imulti_robot_problem
MultiRobotState
p519
(dp520
g19
g20
((lp521
(I5
I9
tp522
a(I6
I9
tp523
a(I4
I6
tp524
a(I5
I0
tp525
a(I6
I6
tp526
a(I4
I5
tp527
a(I5
I4
tp528
a(I6
I7
tp529
a(I6
I2
tp530
a(I0
I5
tp531
a(I8
I7
tp532
a(I5
I1
tp533
a(I6
I4
tp534
a(I12
I9
tp535
a(I5
I8
tp536
a(I5
I3
tp537
a(I2
I7
tp538
a(I4
I9
tp539
a(I5
I5
tp540
a(I3
I1
tp541
a(I4
I8
tp542
a(I2
I0
tp543
a(I3
I9
tp544
a(I6
I5
tp545
ag518
a(I5
I7
tp546
a(I7
I8
tp547
atp548
Rp549
sg15
I13
sg32
g20
((lp550
(I1
I2
tp551
a(I8
I2
tp552
a(I2
I9
tp553
a(I12
I0
tp554
a(I4
I1
tp555
a(I12
I8
tp556
a(I6
I0
tp557
a(I9
I9
tp558
a(I2
I3
tp559
a(I9
I4
tp560
a(I1
I7
tp561
a(I0
I9
tp562
a(I7
I9
tp563
a(I3
I4
tp564
a(I3
I3
tp565
atp566
Rp567
sg13
((I10
I2
tp568
(I11
I8
tp569
(I12
I5
tp570
(I8
I9
tp571
(I10
I3
tp572
(I0
I3
tp573
(I11
I2
tp574
tp575
sg14
I10
sbs(iproblems
RoomID
p576
(dp577
g10
I11
sg11
(I7
I9
tp578
sg13
I6
sg14
I13
sg15
I10
sg16
I8744744311366254845
sb(imulti_robot_problem
MultiRobotState
p579
(dp580
g19
g20
((lp581
(I6
I9
tp582
a(I1
I3
tp583
a(I4
I9
tp584
a(I5
I6
tp585
a(I9
I8
tp586
a(I1
I8
tp587
a(I1
I0
tp588
ag578
a(I3
I4
tp589
a(I5
I8
tp590
a(I9
I7
tp591
atp592
Rp593
sg15
I10
sg32
g20
((lp594
(I0
I1
tp595
a(I7
I3
tp596
a(I9
I0
tp597
a(I1
I12
tp598
a(I4
I10
tp599
a(I5
I11
tp600
a(I9
I10
tp601
a(I7
I11
tp602
a(I3
I7
tp603
a(I0
I8
tp604
a(I9
I6
tp605
atp606
Rp607
sg13
((I0
I10
tp608
(I6
I3
tp609
(I4
I0
tp610
(I1
I6
tp611
(I7
I5
tp612
(I9
I9
tp613
tp614
sg14
I13
sbs(iproblems
RoomID
p615
(dp616
g10
I11
sg11
(I10
I1
tp617
sg13
I7
sg14
I12
sg15
I13
sg16
I2405875930906139466
sb(imulti_robot_problem
MultiRobotState
p618
(dp619
g19
g20
((lp620
(I7
I3
tp621
a(I9
I1
tp622
a(I7
I1
tp623
a(I5
I6
tp624
a(I8
I11
tp625
a(I8
I0
tp626
a(I1
I4
tp627
a(I6
I2
tp628
a(I0
I7
tp629
ag617
a(I10
I3
tp630
a(I7
I2
tp631
a(I10
I4
tp632
a(I11
I7
tp633
a(I9
I0
tp634
a(I11
I5
tp635
a(I7
I4
tp636
a(I1
I5
tp637
a(I10
I2
tp638
a(I11
I6
tp639
a(I8
I4
tp640
atp641
Rp642
sg15
I13
sg32
g20
((lp643
(I12
I5
tp644
a(I10
I11
tp645
a(I8
I1
tp646
a(I7
I8
tp647
a(I8
I6
tp648
a(I6
I3
tp649
a(I2
I0
tp650
a(I2
I3
tp651
a(I5
I1
tp652
a(I10
I0
tp653
a(I3
I4
tp654
atp655
Rp656
sg13
((I10
I8
tp657
(I9
I2
tp658
(I4
I5
tp659
(I11
I8
tp660
(I1
I2
tp661
(I3
I1
tp662
(I0
I10
tp663
tp664
sg14
I12
sbs(iproblems
RoomID
p665
(dp666
g10
I15
sg11
(I4
I8
tp667
sg13
I6
sg14
I13
sg15
I12
sg16
I4278205817407065157
sb(imulti_robot_problem
MultiRobotState
p668
(dp669
g19
g20
((lp670
(I11
I7
tp671
a(I2
I9
tp672
ag667
a(I5
I6
tp673
a(I2
I8
tp674
a(I6
I10
tp675
a(I3
I8
tp676
a(I11
I8
tp677
a(I3
I9
tp678
a(I1
I10
tp679
a(I1
I11
tp680
a(I7
I8
tp681
a(I2
I4
tp682
atp683
Rp684
sg15
I12
sg32
g20
((lp685
(I1
I2
tp686
a(I0
I1
tp687
a(I5
I4
tp688
a(I5
I7
tp689
a(I10
I4
tp690
a(I7
I1
tp691
a(I3
I1
tp692
a(I10
I5
tp693
a(I4
I7
tp694
a(I9
I9
tp695
a(I0
I10
tp696
a(I4
I3
tp697
a(I8
I12
tp698
a(I4
I1
tp699
a(I0
I2
tp700
atp701
Rp702
sg13
((I7
I10
tp703
(I6
I12
tp704
(I2
I0
tp705
(I9
I1
tp706
(I10
I3
tp707
(I4
I0
tp708
tp709
sg14
I13
sbssg161
S'heavy_roomset'
p710
sbsg161
g163
sg164
(dp711
g469
((lp712
F43.31999999999971
tp713
sg516
((lp714
F42.11000000000058
tp715
sg576
((lp716
F40.169999999998254
tp717
sg615
((lp718
F45.330000000001746
tp719
sg665
((lp720
F41.70000000000073
tp721
ssba(imeasure_core
ProblemSetSolution
p722
(dp723
g3
g4
sg161
S"AnytimeBeam-w15-gf(1.5, 'exp')_with_PowerHeuristic2"
p724
sg164
(dp725
g8
((lp726
(F4.330000000001746
I144
tp727
aF40.0
tp728
sg48
((lp729
(F0.7999999999992724
I10
tp730
aF40.38999999999942
tp731
sg75
((lp732
(F0.11000000000058208
I49
tp733
a(F0.31999999999970896
I47
tp734
a(F0.5299999999988358
I45
tp735
a(F0.7900000000008731
I43
tp736
a(F1.2200000000011642
I41
tp737
a(F1.6300000000010186
I40
tp738
a(F2.6199999999989814
I39
tp739
a(F3.5
I38
tp740
a(F4.729999999999563
I37
tp741
a(F5.869999999998981
I35
tp742
a(F7.479999999999563
I33
tp743
a(F9.75
I31
tp744
a(F11.670000000001892
I29
tp745
a(F13.190000000002328
I27
tp746
a(F15.130000000001019
I25
tp747
a(F19.31999999999971
I24
tp748
a(F23.040000000000873
I22
tp749
a(F26.19000000000233
I20
tp750
aF40.0
tp751
sg100
((lp752
(F6.720000000001164
I9
tp753
aF40.659999999999854
tp754
sg134
((lp755
(F1.6199999999989814
I14
tp756
aF40.030000000002474
tp757
ssba(imeasure_core
ProblemSetSolution
p758
(dp759
g3
g200
sg161
g724
sg164
(dp760
g342
((lp761
(F33.5199999999968
I24
tp762
aF40.06999999999971
tp763
sg248
((lp764
F40.25
tp765
sg390
((lp766
F40.11999999999898
tp767
sg203
((lp768
(F4.819999999999709
I28
tp769
aF40.36999999999898
tp770
sg298
((lp771
(F3.279999999998836
I25
tp772
aF40.20000000000073
tp773
ssba(imeasure_core
ProblemSetSolution
p774
(dp775
g3
g466
sg161
g724
sg164
(dp776
g469
((lp777
F43.43000000000029
tp778
sg516
((lp779
F41.970000000001164
tp780
sg576
((lp781
F40.150000000001455
tp782
sg615
((lp783
F45.20999999999913
tp784
sg665
((lp785
F41.72999999999956
tp786
ssba(imeasure_core
ProblemSetSolution
p787
(dp788
g3
g4
sg161
S"AnytimeBeam-w25-gf(1.5, 'exp')_with_PowerHeuristic2"
p789
sg164
(dp790
g8
((lp791
(F4.990000000001601
I144
tp792
aF40.0099999999984
tp793
sg48
((lp794
(F0.8300000000017462
I10
tp795
aF40.390000000003056
tp796
sg75
((lp797
(F0.11999999999898137
I49
tp798
a(F0.31999999999970896
I47
tp799
a(F0.5199999999967986
I45
tp800
a(F0.7799999999988358
I43
tp801
a(F1.1899999999986903
I41
tp802
a(F1.5999999999985448
I40
tp803
a(F2.5599999999976717
I39
tp804
a(F3.4199999999982538
I38
tp805
a(F4.629999999997381
I37
tp806
a(F5.739999999997963
I35
tp807
a(F7.309999999997672
I33
tp808
a(F9.539999999997235
I31
tp809
a(F11.419999999998254
I29
tp810
a(F12.909999999999854
I27
tp811
a(F14.819999999999709
I25
tp812
a(F19.0199999999968
I24
tp813
a(F22.7599999999984
I22
tp814
a(F25.93999999999869
I20
tp815
aF40.0
tp816
sg100
((lp817
(F6.769999999996799
I9
tp818
aF41.04999999999927
tp819
sg134
((lp820
(F1.639999999999418
I14
tp821
aF40.18000000000029
tp822
ssba(imeasure_core
ProblemSetSolution
p823
(dp824
g3
g200
sg161
g789
sg164
(dp825
g342
((lp826
(F33.57999999999811
I24
tp827
aF40.07999999999811
tp828
sg248
((lp829
F40.4800000000032
tp830
sg390
((lp831
F40.07000000000335
tp832
sg203
((lp833
(F4.880000000001019
I28
tp834
aF40.43999999999869
tp835
sg298
((lp836
(F3.319999999999709
I25
tp837
aF40.18999999999869
tp838
ssba(imeasure_core
ProblemSetSolution
p839
(dp840
g3
g466
sg161
g789
sg164
(dp841
g469
((lp842
F43.419999999998254
tp843
sg516
((lp844
F42.20000000000073
tp845
sg576
((lp846
F40.25
tp847
sg615
((lp848
F45.35000000000218
tp849
sg665
((lp850
F41.75
tp851
ssba(imeasure_core
ProblemSetSolution
p852
(dp853
g3
g4
sg161
S"AnytimeBeam-w35-gf(1.5, 'exp')_with_PowerHeuristic2"
p854
sg164
(dp855
g8
((lp856
(F5.490000000001601
I144
tp857
aF40.06999999999971
tp858
sg48
((lp859
(F0.8100000000013097
I10
tp860
aF40.38000000000102
tp861
sg75
((lp862
(F0.11000000000058208
I49
tp863
a(F0.31999999999970896
I47
tp864
a(F0.5299999999988358
I45
tp865
a(F0.7900000000008731
I43
tp866
a(F1.2200000000011642
I41
tp867
a(F1.6300000000010186
I40
tp868
a(F2.6199999999989814
I39
tp869
a(F3.5
I38
tp870
a(F4.729999999999563
I37
tp871
a(F5.869999999998981
I35
tp872
a(F7.479999999999563
I33
tp873
a(F9.739999999997963
I31
tp874
a(F11.650000000001455
I29
tp875
a(F13.169999999998254
I27
tp876
a(F15.090000000000146
I25
tp877
a(F19.25
I24
tp878
a(F22.959999999999127
I22
tp879
a(F26.110000000000582
I20
tp880
aF40.0
tp881
sg100
((lp882
(F6.739999999997963
I9
tp883
aF40.68999999999869
tp884
sg134
((lp885
(F1.610000000000582
I14
tp886
aF40.26000000000204
tp887
ssba(imeasure_core
ProblemSetSolution
p888
(dp889
g3
g200
sg161
g854
sg164
(dp890
g342
((lp891
(F33.43999999999869
I24
tp892
aF40.04999999999927
tp893
sg248
((lp894
F40.080000000001746
tp895
sg390
((lp896
F40.11000000000058
tp897
sg203
((lp898
(F4.850000000002183
I28
tp899
aF40.11000000000058
tp900
sg298
((lp901
(F3.2699999999967986
I25
tp902
aF40.11999999999898
tp903
ssba(imeasure_core
ProblemSetSolution
p904
(dp905
g3
g466
sg161
g854
sg164
(dp906
g469
((lp907
F43.43000000000029
tp908
sg516
((lp909
F41.95999999999913
tp910
sg576
((lp911
F40.13000000000102
tp912
sg615
((lp913
F45.36000000000058
tp914
sg665
((lp915
F41.95000000000073
tp916
ssba(imeasure_core
ProblemSetSolution
p917
(dp918
g3
g4
sg161
S"AnytimeBeam-w45-gf(1.5, 'exp')_with_PowerHeuristic2"
p919
sg164
(dp920
g8
((lp921
(F5.829999999998108
I144
tp922
aF40.05999999999767
tp923
sg48
((lp924
(F0.9099999999998545
I10
tp925
aF40.220000000001164
tp926
sg75
((lp927
(F0.11000000000058208
I49
tp928
a(F0.3100000000013097
I47
tp929
a(F0.5100000000020373
I45
tp930
a(F0.7700000000004366
I43
tp931
a(F1.1899999999986903
I41
tp932
a(F1.5900000000001455
I40
tp933
a(F2.5600000000013097
I39
tp934
a(F3.4200000000018917
I38
tp935
a(F4.630000000001019
I37
tp936
a(F5.75
I35
tp937
a(F7.319999999999709
I33
tp938
a(F9.56000000000131
I31
tp939
a(F11.43999999999869
I29
tp940
a(F12.93999999999869
I27
tp941
a(F14.840000000000146
I25
tp942
a(F19.020000000000437
I24
tp943
a(F22.729999999999563
I22
tp944
a(F25.900000000001455
I20
tp945
aF40.0
tp946
sg100
((lp947
(F6.6599999999998545
I9
tp948
aF40.52000000000044
tp949
sg134
((lp950
(F1.610000000000582
I14
tp951
aF40.340000000000146
tp952
ssba(imeasure_core
ProblemSetSolution
p953
(dp954
g3
g200
sg161
g919
sg164
(dp955
g342
((lp956
(F33.68999999999869
I24
tp957
aF40.04999999999927
tp958
sg248
((lp959
F40.45000000000073
tp960
sg390
((lp961
F40.13999999999942
tp962
sg203
((lp963
(F4.880000000001019
I28
tp964
aF40.76000000000204
tp965
sg298
((lp966
(F3.2700000000004366
I25
tp967
aF40.22999999999956
tp968
ssba(imeasure_core
ProblemSetSolution
p969
(dp970
g3
g466
sg161
g919
sg164
(dp971
g469
((lp972
F43.18999999999869
tp973
sg516
((lp974
F41.92000000000189
tp975
sg576
((lp976
F40.159999999999854
tp977
sg615
((lp978
F45.36999999999898
tp979
sg665
((lp980
F41.72999999999956
tp981
ssba(imeasure_core
ProblemSetSolution
p982
(dp983
g3
g4
sg161
S"AnytimeBeam-w5-gf(1.5, 'exp')_with_LinearHeuristic"
p984
sg164
(dp985
g8
((lp986
(F1.4900000000016007
I58
tp987
a(F30.56000000000131
I56
tp988
aF40.05000000000291
tp989
sg48
((lp990
F40.669999999998254
tp991
sg75
((lp992
(F0.020000000000436557
I22
tp993
a(F0.13999999999941792
I20
tp994
aF40.0
tp995
sg100
((lp996
(F8.110000000000582
I6
tp997
aF41.70000000000073
tp998
sg134
((lp999
F40.52000000000044
tp1000
ssba(imeasure_core
ProblemSetSolution
p1001
(dp1002
g3
g200
sg161
g984
sg164
(dp1003
g342
((lp1004
F40.340000000000146
tp1005
sg248
((lp1006
F40.0199999999968
tp1007
sg390
((lp1008
F40.12000000000262
tp1009
sg203
((lp1010
F40.530000000002474
tp1011
sg298
((lp1012
F40.159999999999854
tp1013
ssba(imeasure_core
ProblemSetSolution
p1014
(dp1015
g3
g466
sg161
g984
sg164
(dp1016
g469
((lp1017
F76.38999999999942
tp1018
sg516
((lp1019
F40.17000000000189
tp1020
sg576
((lp1021
F44.969999999997526
tp1022
sg615
((lp1023
F76.34000000000015
tp1024
sg665
((lp1025
F47.10000000000218
tp1026
ssba(imeasure_core
ProblemSetSolution
p1027
(dp1028
g3
g4
sg161
S"AnytimeBeam-w15-gf(1.5, 'exp')_with_LinearHeuristic"
p1029
sg164
(dp1030
g8
((lp1031
(F1.0200000000004366
I58
tp1032
a(F26.350000000002183
I56
tp1033
aF40.06000000000131
tp1034
sg48
((lp1035
F40.0
tp1036
sg75
((lp1037
(F0.020000000000436557
I22
tp1038
a(F0.13999999999941792
I20
tp1039
aF40.0
tp1040
sg100
((lp1041
(F8.180000000000291
I6
tp1042
aF40.18000000000029
tp1043
sg134
((lp1044
F40.419999999998254
tp1045
ssba(imeasure_core
ProblemSetSolution
p1046
(dp1047
g3
g200
sg161
g1029
sg164
(dp1048
g342
((lp1049
F40.219999999997526
tp1050
sg248
((lp1051
F41.159999999999854
tp1052
sg390
((lp1053
F40.20000000000073
tp1054
sg203
((lp1055
F40.409999999999854
tp1056
sg298
((lp1057
F40.5
tp1058
ssba(imeasure_core
ProblemSetSolution
p1059
(dp1060
g3
g466
sg161
g1029
sg164
(dp1061
g469
((lp1062
F76.62000000000262
tp1063
sg516
((lp1064
F40.07999999999811
tp1065
sg576
((lp1066
F44.79000000000087
tp1067
sg615
((lp1068
F76.32999999999811
tp1069
sg665
((lp1070
F47.19000000000233
tp1071
ssba(imeasure_core
ProblemSetSolution
p1072
(dp1073
g3
g4
sg161
S"AnytimeBeam-w25-gf(1.5, 'exp')_with_LinearHeuristic"
p1074
sg164
(dp1075
g8
((lp1076
(F1.0900000000001455
I58
tp1077
a(F26.729999999999563
I56
tp1078
aF40.0
tp1079
sg48
((lp1080
F40.29999999999927
tp1081
sg75
((lp1082
(F0.010000000002037268
I22
tp1083
a(F0.13000000000101863
I20
tp1084
aF40.0
tp1085
sg100
((lp1086
(F8.180000000000291
I6
tp1087
aF40.090000000000146
tp1088
sg134
((lp1089
F40.61000000000058
tp1090
ssba(imeasure_core
ProblemSetSolution
p1091
(dp1092
g3
g200
sg161
g1074
sg164
(dp1093
g342
((lp1094
F40.2699999999968
tp1095
sg248
((lp1096
F41.11000000000058
tp1097
sg390
((lp1098
F40.030000000002474
tp1099
sg203
((lp1100
F40.409999999999854
tp1101
sg298
((lp1102
F40.4900000000016
tp1103
ssba(imeasure_core
ProblemSetSolution
p1104
(dp1105
g3
g466
sg161
g1074
sg164
(dp1106
g469
((lp1107
F76.83000000000175
tp1108
sg516
((lp1109
F40.22999999999956
tp1110
sg576
((lp1111
F44.840000000000146
tp1112
sg615
((lp1113
F76.27999999999884
tp1114
sg665
((lp1115
F47.330000000001746
tp1116
ssba(imeasure_core
ProblemSetSolution
p1117
(dp1118
g3
g4
sg161
S"AnytimeBeam-w35-gf(1.5, 'exp')_with_LinearHeuristic"
p1119
sg164
(dp1120
g8
((lp1121
(F1.1899999999986903
I58
tp1122
a(F23.970000000001164
I56
tp1123
aF40.01000000000204
tp1124
sg48
((lp1125
F40.169999999998254
tp1126
sg75
((lp1127
(F0.020000000000436557
I22
tp1128
a(F0.13999999999941792
I20
tp1129
aF40.0
tp1130
sg100
((lp1131
(F8.119999999998981
I6
tp1132
aF40.06999999999971
tp1133
sg134
((lp1134
F40.45999999999913
tp1135
ssba(imeasure_core
ProblemSetSolution
p1136
(dp1137
g3
g200
sg161
g1119
sg164
(dp1138
g342
((lp1139
F40.55999999999767
tp1140
sg248
((lp1141
F41.11000000000058
tp1142
sg390
((lp1143
F40.25
tp1144
sg203
((lp1145
F40.43000000000029
tp1146
sg298
((lp1147
F40.13999999999942
tp1148
ssba(imeasure_core
ProblemSetSolution
p1149
(dp1150
g3
g466
sg161
g1119
sg164
(dp1151
g469
((lp1152
F77.29000000000087
tp1153
sg516
((lp1154
F40.31000000000131
tp1155
sg576
((lp1156
F44.779999999998836
tp1157
sg615
((lp1158
F76.61000000000058
tp1159
sg665
((lp1160
F47.54000000000087
tp1161
ssba(imeasure_core
ProblemSetSolution
p1162
(dp1163
g3
g4
sg161
S"AnytimeBeam-w45-gf(1.5, 'exp')_with_LinearHeuristic"
p1164
sg164
(dp1165
g8
((lp1166
(F1.2399999999979627
I58
tp1167
a(F31.919999999998254
I56
tp1168
aF40.06999999999971
tp1169
sg48
((lp1170
F40.11999999999898
tp1171
sg75
((lp1172
(F0.00999999999839929
I22
tp1173
a(F0.13000000000101863
I20
tp1174
aF40.0
tp1175
sg100
((lp1176
(F8.229999999999563
I6
tp1177
aF40.13999999999942
tp1178
sg134
((lp1179
F40.4900000000016
tp1180
ssba(imeasure_core
ProblemSetSolution
p1181
(dp1182
g3
g200
sg161
g1164
sg164
(dp1183
g342
((lp1184
F40.159999999999854
tp1185
sg248
((lp1186
F41.11999999999898
tp1187
sg390
((lp1188
F40.090000000000146
tp1189
sg203
((lp1190
F40.409999999999854
tp1191
sg298
((lp1192
F40.38000000000102
tp1193
ssba(imeasure_core
ProblemSetSolution
p1194
(dp1195
g3
g466
sg161
g1164
sg164
(dp1196
g469
((lp1197
F76.61999999999898
tp1198
sg516
((lp1199
F64.59999999999854
tp1200
sg576
((lp1201
F44.900000000001455
tp1202
sg615
((lp1203
F76.5
tp1204
sg665
((lp1205
F47.400000000001455
tp1206
ssba.