(lp0
(imeasure_core
ProblemSetSolution
p1
(dp2
S'roomset'
p3
(imeasure_core
RoomSet
p4
(dp5
S'rooms'
p6
(dp7
(iproblems
RoomID
p8
(dp9
S'dusts'
p10
I7
sS'obstacles'
p11
(I1
I3
tp12
sS'robots'
p13
I1
sS'height'
p14
I7
sS'width'
p15
I9
sS'seed'
p16
I1486246605650367638
sb(imulti_robot_problem
MultiRobotState
p17
(dp18
S'obstacle_locations'
p19
c__builtin__
frozenset
p20
((lp21
(I0
I1
tp22
a(I8
I3
tp23
ag12
a(I0
I3
tp24
a(I0
I2
tp25
atp26
Rp27
sg15
I9
sS'dirt_locations'
p28
g20
((lp29
(I7
I5
tp30
a(I7
I0
tp31
a(I0
I4
tp32
a(I1
I0
tp33
a(I4
I4
tp34
a(I6
I5
tp35
a(I4
I0
tp36
atp37
Rp38
sg13
((I5
I1
tp39
tp40
sg14
I7
sbs(iproblems
RoomID
p41
(dp42
g10
I9
sg11
(I7
I5
tp43
sg13
I4
sg14
I10
sg15
I10
sg16
I679259829289197625
sb(imulti_robot_problem
MultiRobotState
p44
(dp45
g19
g20
((lp46
(I9
I6
tp47
a(I8
I6
tp48
a(I7
I6
tp49
ag43
a(I7
I0
tp50
atp51
Rp52
sg15
I10
sg28
g20
((lp53
(I5
I4
tp54
a(I2
I6
tp55
a(I7
I1
tp56
a(I6
I1
tp57
a(I1
I6
tp58
a(I0
I5
tp59
a(I8
I7
tp60
a(I0
I9
tp61
a(I9
I5
tp62
atp63
Rp64
sg13
((I7
I8
tp65
(I6
I7
tp66
(I3
I5
tp67
(I3
I9
tp68
tp69
sg14
I10
sbs(iproblems
RoomID
p70
(dp71
g10
I5
sg11
(I3
I4
tp72
sg13
I1
sg14
I9
sg15
I9
sg16
I2685440357799139976
sb(imulti_robot_problem
MultiRobotState
p73
(dp74
g19
g20
((lp75
(I8
I3
tp76
a(I1
I3
tp77
a(I5
I6
tp78
ag72
a(I2
I4
tp79
a(I3
I8
tp80
a(I2
I3
tp81
a(I7
I8
tp82
a(I1
I1
tp83
atp84
Rp85
sg15
I9
sg28
g20
((lp86
(I0
I1
tp87
a(I0
I0
tp88
a(I3
I1
tp89
a(I8
I7
tp90
a(I5
I0
tp91
atp92
Rp93
sg13
((I5
I5
tp94
tp95
sg14
I9
sbs(iproblems
RoomID
p96
(dp97
g10
I6
sg11
(I4
I4
tp98
sg13
I4
sg14
I9
sg15
I9
sg16
I5891625650498269233
sb(imulti_robot_problem
MultiRobotState
p99
(dp100
g19
g20
((lp101
(I2
I7
tp102
a(I4
I5
tp103
ag98
a(I3
I6
tp104
atp105
Rp106
sg15
I9
sg28
g20
((lp107
(I7
I4
tp108
a(I8
I3
tp109
a(I0
I5
tp110
a(I5
I5
tp111
a(I6
I6
tp112
a(I4
I0
tp113
atp114
Rp115
sg13
((I4
I6
tp116
(I7
I1
tp117
(I0
I4
tp118
(I7
I2
tp119
tp120
sg14
I9
sbs(iproblems
RoomID
p121
(dp122
g10
I6
sg11
(I1
I6
tp123
sg13
I4
sg14
I8
sg15
I10
sg16
I403795515464475257
sb(imulti_robot_problem
MultiRobotState
p124
(dp125
g19
g20
((lp126
(I8
I3
tp127
a(I1
I3
tp128
a(I6
I7
tp129
a(I0
I4
tp130
ag123
a(I4
I1
tp131
a(I0
I5
tp132
atp133
Rp134
sg15
I10
sg28
g20
((lp135
(I7
I3
tp136
a(I4
I7
tp137
a(I2
I2
tp138
a(I8
I0
tp139
a(I0
I2
tp140
a(I0
I7
tp141
atp142
Rp143
sg13
((I8
I2
tp144
(I6
I1
tp145
(I5
I0
tp146
(I2
I0
tp147
tp148
sg14
I8
sbssS'name'
p149
S'easy_roomset'
p150
sbsg149
S"AnytimeBeam-w20-gf(2, 'lin')_with_PowerHeuristic2"
p151
sS'solutions'
p152
(dp153
g8
((lp154
(F0.11000000000058208
I45
tp155
a(F8.75
I44
tp156
a(F15.100000000002183
I42
tp157
a(F15.580000000001746
I39
tp158
a(F15.889999999999418
I37
tp159
a(F16.490000000001601
I36
tp160
a(F17.110000000000582
I34
tp161
a(F19.150000000001455
I33
tp162
a(F23.819999999999709
I31
tp163
a(F34.709999999999127
I30
tp164
aF40.0
tp165
sg41
((lp166
(F1.3899999999994179
I20
tp167
aF40.029999999998836
tp168
sg70
((lp169
(F0.15999999999985448
I47
tp170
a(F1.25
I45
tp171
a(F2.2900000000008731
I43
tp172
a(F3.2800000000024738
I35
tp173
a(F4.4099999999998545
I33
tp174
a(F5.6700000000018917
I31
tp175
a(F6.9800000000032014
I29
tp176
a(F9.2900000000008731
I27
tp177
a(F12.480000000003201
I25
tp178
a(F15.220000000001164
I23
tp179
aF40.0
tp180
sg96
((lp181
(F1.1100000000005821
I8
tp182
aF40.090000000000146
tp183
sg121
((lp184
(F13.490000000001601
I134
tp185
aF40.260000000002037
tp186
ssba(imeasure_core
ProblemSetSolution
p187
(dp188
g3
(imeasure_core
RoomSet
p189
(dp190
g6
(dp191
(iproblems
RoomID
p192
(dp193
g10
I9
sg11
(I7
I7
tp194
sg13
I4
sg14
I12
sg15
I12
sg16
I679259829289197625
sb(imulti_robot_problem
MultiRobotState
p195
(dp196
g19
g20
((lp197
(I6
I4
tp198
a(I6
I9
tp199
a(I6
I6
tp200
a(I5
I6
tp201
a(I9
I8
tp202
a(I11
I9
tp203
ag194
a(I1
I4
tp204
a(I11
I7
tp205
a(I7
I5
tp206
a(I8
I7
tp207
a(I4
I2
tp208
a(I8
I5
tp209
a(I6
I5
tp210
a(I10
I8
tp211
a(I10
I5
tp212
a(I6
I7
tp213
a(I6
I8
tp214
a(I10
I7
tp215
a(I9
I6
tp216
a(I7
I6
tp217
a(I8
I10
tp218
a(I7
I4
tp219
a(I11
I8
tp220
a(I7
I10
tp221
a(I8
I6
tp222
a(I6
I1
tp223
a(I9
I7
tp224
atp225
Rp226
sg15
I12
sg28
g20
((lp227
(I2
I7
tp228
a(I9
I0
tp229
a(I8
I2
tp230
a(I7
I1
tp231
a(I11
I0
tp232
a(I0
I11
tp233
a(I1
I6
tp234
a(I1
I7
tp235
a(I11
I6
tp236
atp237
Rp238
sg13
((I9
I10
tp239
(I8
I9
tp240
(I3
I7
tp241
(I3
I11
tp242
tp243
sg14
I12
sbs(iproblems
RoomID
p244
(dp245
g10
I5
sg11
(I9
I1
tp246
sg13
I3
sg14
I11
sg15
I11
sg16
I2685440357799139976
sb(imulti_robot_problem
MultiRobotState
p247
(dp248
g19
g20
((lp249
(I7
I3
tp250
a(I10
I4
tp251
a(I9
I3
tp252
ag246
a(I7
I1
tp253
a(I5
I6
tp254
a(I10
I6
tp255
a(I1
I4
tp256
a(I9
I9
tp257
a(I3
I9
tp258
a(I9
I4
tp259
a(I6
I8
tp260
a(I9
I6
tp261
a(I3
I4
tp262
a(I10
I3
tp263
a(I7
I2
tp264
a(I5
I3
tp265
a(I8
I3
tp266
a(I5
I5
tp267
a(I10
I7
tp268
a(I8
I5
tp269
a(I9
I2
tp270
a(I3
I6
tp271
a(I4
I5
tp272
a(I6
I5
tp273
a(I7
I10
tp274
a(I9
I5
tp275
a(I3
I5
tp276
a(I7
I8
tp277
a(I2
I4
tp278
a(I10
I9
tp279
atp280
Rp281
sg15
I11
sg28
g20
((lp282
(I1
I2
tp283
a(I9
I10
tp284
a(I6
I1
tp285
a(I4
I1
tp286
a(I0
I2
tp287
atp288
Rp289
sg13
((I6
I6
tp290
(I0
I0
tp291
(I10
I8
tp292
tp293
sg14
I11
sbs(iproblems
RoomID
p294
(dp295
g10
I10
sg11
(I1
I5
tp296
sg13
I4
sg14
I12
sg15
I10
sg16
I1737871632067391849
sb(imulti_robot_problem
MultiRobotState
p297
(dp298
g19
g20
((lp299
(I3
I2
tp300
a(I0
I0
tp301
a(I6
I6
tp302
a(I5
I6
tp303
a(I2
I8
tp304
a(I2
I10
tp305
a(I8
I9
tp306
a(I6
I2
tp307
a(I2
I3
tp308
a(I8
I7
tp309
a(I5
I1
tp310
a(I8
I5
tp311
a(I5
I8
tp312
a(I8
I3
tp313
a(I5
I5
tp314
a(I7
I8
tp315
a(I7
I6
tp316
a(I8
I10
tp317
ag296
a(I6
I5
tp318
a(I2
I2
tp319
a(I4
I1
tp320
a(I2
I4
tp321
atp322
Rp323
sg15
I10
sg28
g20
((lp324
(I0
I1
tp325
a(I4
I10
tp326
a(I4
I8
tp327
a(I3
I0
tp328
a(I9
I6
tp329
a(I3
I10
tp330
a(I5
I11
tp331
a(I2
I7
tp332
a(I1
I9
tp333
a(I3
I4
tp334
atp335
Rp336
sg13
((I4
I9
tp337
(I8
I11
tp338
(I4
I0
tp339
(I3
I9
tp340
tp341
sg14
I12
sbs(iproblems
RoomID
p342
(dp343
g10
I6
sg11
(I3
I9
tp344
sg13
I4
sg14
I11
sg15
I11
sg16
I5891625650498269233
sb(imulti_robot_problem
MultiRobotState
p345
(dp346
g19
g20
((lp347
(I7
I3
tp348
a(I4
I7
tp349
a(I6
I6
tp350
a(I5
I6
tp351
a(I2
I8
tp352
a(I6
I2
tp353
a(I5
I1
tp354
a(I3
I7
tp355
a(I8
I5
tp356
a(I5
I5
tp357
a(I2
I9
tp358
a(I7
I6
tp359
a(I4
I4
tp360
a(I2
I2
tp361
a(I1
I1
tp362
a(I9
I7
tp363
a(I3
I2
tp364
a(I10
I4
tp365
a(I4
I5
tp366
a(I9
I3
tp367
a(I10
I5
tp368
a(I2
I10
tp369
a(I7
I5
tp370
a(I2
I3
tp371
a(I8
I3
tp372
a(I4
I6
tp373
a(I5
I2
tp374
a(I6
I1
tp375
a(I3
I8
tp376
a(I1
I8
tp377
ag344
a(I4
I3
tp378
a(I9
I5
tp379
a(I3
I4
tp380
a(I8
I4
tp381
atp382
Rp383
sg15
I11
sg28
g20
((lp384
(I8
I8
tp385
a(I5
I10
tp386
a(I9
I1
tp387
a(I10
I7
tp388
a(I1
I6
tp389
a(I7
I9
tp390
atp391
Rp392
sg13
((I5
I7
tp393
(I8
I1
tp394
(I0
I5
tp395
(I4
I0
tp396
tp397
sg14
I11
sbs(iproblems
RoomID
p398
(dp399
g10
I7
sg11
(I8
I8
tp400
sg13
I3
sg14
I9
sg15
I9
sg16
I7834319822419845881
sb(imulti_robot_problem
MultiRobotState
p401
(dp402
g19
g20
((lp403
(I4
I7
tp404
a(I1
I3
tp405
a(I5
I0
tp406
a(I6
I6
tp407
a(I5
I6
tp408
a(I2
I8
tp409
a(I3
I5
tp410
a(I4
I6
tp411
a(I2
I6
tp412
a(I0
I5
tp413
a(I3
I7
tp414
a(I0
I3
tp415
a(I0
I8
tp416
a(I8
I5
tp417
a(I5
I8
tp418
a(I3
I3
tp419
a(I2
I7
tp420
a(I6
I7
tp421
a(I5
I5
tp422
a(I7
I8
tp423
a(I4
I4
tp424
a(I1
I5
tp425
a(I1
I8
tp426
ag400
a(I3
I6
tp427
a(I1
I7
tp428
a(I4
I5
tp429
a(I5
I3
tp430
a(I3
I4
tp431
atp432
Rp433
sg15
I9
sg28
g20
((lp434
(I7
I4
tp435
a(I2
I0
tp436
a(I6
I2
tp437
a(I7
I0
tp438
a(I8
I7
tp439
a(I7
I1
tp440
a(I1
I4
tp441
atp442
Rp443
sg13
((I2
I1
tp444
(I2
I3
tp445
(I5
I7
tp446
tp447
sg14
I9
sbssg149
S'mild_roomset'
p448
sbsg149
g151
sg152
(dp449
g192
((lp450
F40.080000000001746
tp451
sg244
((lp452
(F7.6199999999989814
I127
tp453
aF40.0
tp454
sg294
((lp455
(F1.1300000000010186
I12
tp456
aF40.25
tp457
sg342
((lp458
(F4.7799999999988358
I64
tp459
aF40.200000000000728
tp460
sg398
((lp461
(F0.12999999999738066
I25
tp462
aF40.009999999998399
tp463
ssba(imeasure_core
ProblemSetSolution
p464
(dp465
g3
(imeasure_core
RoomSet
p466
(dp467
g6
(dp468
(iproblems
RoomID
p469
(dp470
g10
I12
sg11
(I6
I3
tp471
sg13
I5
sg14
I10
sg15
I12
sg16
I1486246605650367638
sb(imulti_robot_problem
MultiRobotState
p472
(dp473
g19
g20
((lp474
(I5
I9
tp475
a(I1
I3
tp476
a(I7
I1
tp477
a(I2
I7
tp478
a(I1
I4
tp479
a(I6
I2
tp480
a(I1
I6
tp481
a(I2
I1
tp482
a(I0
I3
tp483
a(I6
I5
tp484
a(I1
I2
tp485
a(I1
I5
tp486
a(I4
I1
tp487
a(I3
I1
tp488
ag471
a(I2
I0
tp489
a(I10
I0
tp490
a(I5
I2
tp491
a(I1
I1
tp492
a(I8
I4
tp493
atp494
Rp495
sg15
I12
sg28
g20
((lp496
(I11
I7
tp497
a(I11
I4
tp498
a(I9
I1
tp499
a(I11
I8
tp500
a(I2
I8
tp501
a(I6
I0
tp502
a(I0
I6
tp503
a(I11
I1
tp504
a(I0
I4
tp505
a(I4
I9
tp506
a(I10
I9
tp507
a(I9
I7
tp508
atp509
Rp510
sg13
((I2
I4
tp511
(I10
I1
tp512
(I2
I5
tp513
(I9
I8
tp514
(I6
I6
tp515
tp516
sg14
I10
sbs(iproblems
RoomID
p517
(dp518
g10
I14
sg11
(I7
I6
tp519
sg13
I7
sg14
I13
sg15
I13
sg16
I679259829289197625
sb(imulti_robot_problem
MultiRobotState
p520
(dp521
g19
g20
((lp522
(I6
I4
tp523
a(I4
I8
tp524
a(I12
I7
tp525
a(I10
I6
tp526
a(I7
I5
tp527
a(I12
I11
tp528
a(I9
I6
tp529
a(I1
I2
tp530
a(I11
I7
tp531
a(I10
I7
tp532
ag519
a(I6
I3
tp533
a(I6
I2
tp534
a(I4
I3
tp535
a(I3
I4
tp536
a(I12
I8
tp537
atp538
Rp539
sg15
I13
sg28
g20
((lp540
(I2
I7
tp541
a(I12
I1
tp542
a(I9
I2
tp543
a(I2
I8
tp544
a(I5
I7
tp545
a(I10
I0
tp546
a(I1
I4
tp547
a(I0
I12
tp548
a(I7
I4
tp549
a(I10
I9
tp550
a(I4
I2
tp551
a(I11
I4
tp552
a(I11
I6
tp553
a(I1
I9
tp554
atp555
Rp556
sg13
((I9
I11
tp557
(I9
I10
tp558
(I4
I7
tp559
(I4
I12
tp560
(I7
I1
tp561
(I1
I8
tp562
(I1
I6
tp563
tp564
sg14
I13
sbs(iproblems
RoomID
p565
(dp566
g10
I10
sg11
(I6
I9
tp567
sg13
I5
sg14
I12
sg15
I12
sg16
I2685440357799139976
sb(imulti_robot_problem
MultiRobotState
p568
(dp569
g19
g20
((lp570
(I4
I10
tp571
ag567
a(I9
I1
tp572
a(I5
I11
tp573
a(I3
I0
tp574
a(I0
I7
tp575
a(I3
I9
tp576
a(I0
I5
tp577
a(I1
I4
tp578
a(I0
I3
tp579
a(I4
I0
tp580
a(I1
I2
tp581
a(I11
I10
tp582
a(I6
I10
tp583
a(I5
I6
tp584
a(I9
I11
tp585
a(I7
I9
tp586
a(I4
I5
tp587
a(I3
I5
tp588
a(I3
I4
tp589
a(I2
I4
tp590
a(I1
I9
tp591
atp592
Rp593
sg15
I12
sg28
g20
((lp594
(I11
I7
tp595
a(I8
I3
tp596
a(I10
I11
tp597
a(I7
I1
tp598
a(I10
I5
tp599
a(I8
I10
tp600
a(I6
I3
tp601
a(I3
I6
tp602
a(I9
I10
tp603
a(I6
I5
tp604
atp605
Rp606
sg13
((I7
I7
tp607
(I0
I0
tp608
(I11
I9
tp609
(I0
I2
tp610
(I4
I1
tp611
tp612
sg14
I12
sbs(iproblems
RoomID
p613
(dp614
g10
I11
sg11
(I2
I7
tp615
sg13
I6
sg14
I11
sg15
I13
sg16
I403795515464475257
sb(imulti_robot_problem
MultiRobotState
p616
(dp617
g19
g20
((lp618
g615
a(I10
I8
tp619
a(I1
I7
tp620
a(I3
I10
tp621
a(I4
I4
tp622
a(I1
I4
tp623
a(I12
I5
tp624
a(I0
I6
tp625
a(I0
I5
tp626
a(I3
I6
tp627
a(I2
I2
tp628
a(I0
I8
tp629
a(I7
I9
tp630
atp631
Rp632
sg15
I13
sg28
g20
((lp633
(I6
I4
tp634
a(I0
I0
tp635
a(I2
I9
tp636
a(I11
I5
tp637
a(I8
I9
tp638
a(I11
I1
tp639
a(I2
I3
tp640
a(I1
I10
tp641
a(I12
I2
tp642
a(I0
I3
tp643
a(I5
I2
tp644
atp645
Rp646
sg13
((I10
I3
tp647
(I7
I2
tp648
(I7
I0
tp649
(I3
I1
tp650
(I5
I10
tp651
(I9
I4
tp652
tp653
sg14
I11
sbs(iproblems
RoomID
p654
(dp655
g10
I11
sg11
(I11
I9
tp656
sg13
I7
sg14
I12
sg15
I12
sg16
I5891625650498269233
sb(imulti_robot_problem
MultiRobotState
p657
(dp658
g19
g20
((lp659
(I4
I4
tp660
a(I4
I8
tp661
a(I5
I6
tp662
a(I8
I11
tp663
ag656
a(I7
I7
tp664
a(I7
I1
tp665
a(I9
I10
tp666
a(I3
I9
tp667
a(I1
I9
tp668
a(I6
I7
tp669
a(I10
I7
tp670
a(I7
I6
tp671
a(I5
I7
tp672
a(I2
I11
tp673
a(I6
I11
tp674
a(I9
I11
tp675
a(I7
I10
tp676
a(I10
I9
tp677
atp678
Rp679
sg15
I12
sg28
g20
((lp680
(I11
I7
tp681
a(I11
I4
tp682
a(I4
I6
tp683
a(I5
I11
tp684
a(I8
I10
tp685
a(I0
I5
tp686
a(I8
I7
tp687
a(I1
I7
tp688
a(I10
I1
tp689
a(I1
I1
tp690
a(I5
I5
tp691
atp692
Rp693
sg13
((I6
I8
tp694
(I9
I2
tp695
(I0
I6
tp696
(I10
I3
tp697
(I9
I5
tp698
(I5
I0
tp699
(I9
I8
tp700
tp701
sg14
I12
sbssg149
S'heavy_roomset'
p702
sbsg149
g151
sg152
(dp703
g469
((lp704
(F29.30000000000291
I113
tp705
aF40.040000000000873
tp706
sg517
((lp707
F42.510000000002037
tp708
sg565
((lp709
(F9.5499999999992724
I58
tp710
aF40.039999999997235
tp711
sg613
((lp712
(F28.490000000001601
I19
tp713
aF42.110000000000582
tp714
sg654
((lp715
F42.930000000000291
tp716
ssba(imeasure_core
ProblemSetSolution
p717
(dp718
g3
g4
sg149
S"AnytimeBeam-w20-gf(4, 'lin')_with_PowerHeuristic2"
p719
sg152
(dp720
g8
((lp721
(F0.11999999999898137
I45
tp722
a(F4.8100000000013097
I44
tp723
a(F7.8899999999994179
I41
tp724
a(F8.3100000000013097
I37
tp725
a(F8.9099999999998545
I36
tp726
a(F9.5300000000024738
I34
tp727
a(F11.56000000000131
I33
tp728
a(F13.770000000000437
I31
tp729
a(F16.700000000000728
I30
tp730
a(F19.880000000001019
I28
tp731
a(F22.290000000000873
I26
tp732
a(F27.280000000002474
I25
tp733
aF40.0
tp734
sg41
((lp735
(F1.5300000000024738
I20
tp736
aF40.260000000002037
tp737
sg70
((lp738
(F0.16999999999825377
I47
tp739
a(F1.25
I45
tp740
a(F2.2799999999988358
I43
tp741
a(F3.2599999999983993
I35
tp742
a(F4.4099999999998545
I33
tp743
a(F5.680000000000291
I31
tp744
a(F6.9899999999979627
I29
tp745
a(F9.3099999999976717
I27
tp746
a(F12.529999999998836
I25
tp747
a(F15.239999999997963
I23
tp748
aF40.0
tp749
sg96
((lp750
(F1.3599999999969441
I8
tp751
aF40.020000000000437
tp752
sg121
((lp753
(F14.959999999999127
I134
tp754
aF40.049999999999272
tp755
ssba(imeasure_core
ProblemSetSolution
p756
(dp757
g3
g189
sg149
g719
sg152
(dp758
g192
((lp759
F40.180000000000291
tp760
sg244
((lp761
(F9.2600000000020373
I127
tp762
aF40.040000000000873
tp763
sg294
((lp764
(F1.1599999999998545
I12
tp765
aF40.020000000000437
tp766
sg342
((lp767
(F5.2000000000007276
I64
tp768
aF40.0
tp769
sg398
((lp770
(F0.13999999999941792
I25
tp771
aF40.009999999998399
tp772
ssba(imeasure_core
ProblemSetSolution
p773
(dp774
g3
g466
sg149
g719
sg152
(dp775
g469
((lp776
(F33.830000000001746
I113
tp777
aF40.209999999999127
tp778
sg517
((lp779
F42.600000000002183
tp780
sg565
((lp781
(F10.610000000000582
I58
tp782
aF41.0
tp783
sg613
((lp784
(F30.540000000000873
I19
tp785
aF41.829999999998108
tp786
sg654
((lp787
F43.180000000000291
tp788
ssba(imeasure_core
ProblemSetSolution
p789
(dp790
g3
g4
sg149
S"AnytimeBeam-w20-gf(8, 'lin')_with_PowerHeuristic2"
p791
sg152
(dp792
g8
((lp793
(F0.11000000000058208
I45
tp794
a(F2.5300000000024738
I44
tp795
a(F4.4200000000018917
I39
tp796
a(F4.7299999999995634
I37
tp797
a(F5.319999999999709
I36
tp798
a(F5.9400000000023283
I34
tp799
a(F7.9900000000016007
I33
tp800
a(F10.220000000001164
I31
tp801
a(F13.159999999999854
I30
tp802
a(F16.330000000001746
I28
tp803
a(F18.760000000002037
I26
tp804
a(F23.770000000000437
I25
tp805
a(F30.229999999999563
I24
tp806
aF40.0
tp807
sg41
((lp808
(F1.7700000000004366
I20
tp809
aF40.0
tp810
sg70
((lp811
(F0.15999999999985448
I47
tp812
a(F1.25
I45
tp813
a(F2.2800000000024738
I43
tp814
a(F3.25
I35
tp815
a(F4.3800000000010186
I33
tp816
a(F5.6399999999994179
I31
tp817
a(F6.9400000000023283
I29
tp818
a(F9.25
I27
tp819
a(F12.440000000002328
I25
tp820
a(F15.150000000001455
I23
tp821
aF40.0
tp822
sg96
((lp823
(F1.5400000000008731
I8
tp824
aF40.080000000001746
tp825
sg121
((lp826
(F15.989999999997963
I134
tp827
aF40.229999999999563
tp828
ssba(imeasure_core
ProblemSetSolution
p829
(dp830
g3
g189
sg149
g791
sg152
(dp831
g192
((lp832
F40.240000000001601
tp833
sg244
((lp834
(F10.590000000000146
I127
tp835
aF40.0
tp836
sg294
((lp837
(F1.1699999999982538
I12
tp838
aF40.009999999998399
tp839
sg342
((lp840
(F5.7200000000011642
I64
tp841
aF40.100000000002183
tp842
sg398
((lp843
(F0.12999999999738066
I25
tp844
aF40.009999999998399
tp845
ssba(imeasure_core
ProblemSetSolution
p846
(dp847
g3
g466
sg149
g791
sg152
(dp848
g469
((lp849
(F39.0
I113
tp850
aF40.069999999999709
tp851
sg517
((lp852
F42.830000000001746
tp853
sg565
((lp854
(F12.069999999999709
I58
tp855
aF40.040000000000873
tp856
sg613
((lp857
(F32.43999999999869
I19
tp858
aF41.429999999996653
tp859
sg654
((lp860
F43.360000000000582
tp861
ssba(imeasure_core
ProblemSetSolution
p862
(dp863
g3
g4
sg149
S"AnytimeBeam-w20-gf(16, 'lin')_with_PowerHeuristic2"
p864
sg152
(dp865
g8
((lp866
(F0.11000000000058208
I45
tp867
a(F1.4000000000014552
I44
tp868
a(F2.680000000000291
I37
tp869
a(F3.2700000000004366
I36
tp870
a(F3.8800000000010186
I34
tp871
a(F5.930000000000291
I33
tp872
a(F8.1300000000010186
I31
tp873
a(F11.040000000000873
I30
tp874
a(F14.190000000002328
I28
tp875
a(F16.590000000000146
I26
tp876
a(F21.569999999999709
I25
tp877
a(F27.990000000001601
I24
tp878
aF40.0
tp879
sg41
((lp880
(F2.1200000000026193
I20
tp881
aF40.110000000000582
tp882
sg70
((lp883
(F0.15999999999985448
I47
tp884
a(F1.25
I45
tp885
a(F2.2700000000004366
I43
tp886
a(F3.25
I35
tp887
a(F4.3800000000010186
I33
tp888
a(F5.6300000000010186
I31
tp889
a(F6.9399999999986903
I29
tp890
a(F9.2700000000004366
I27
tp891
a(F12.490000000001601
I25
tp892
a(F15.229999999999563
I23
tp893
aF40.0
tp894
sg96
((lp895
(F1.7099999999991269
I8
tp896
aF40.029999999998836
tp897
sg121
((lp898
(F18.830000000001746
I134
tp899
aF41.010000000002037
tp900
ssba(imeasure_core
ProblemSetSolution
p901
(dp902
g3
g189
sg149
g864
sg152
(dp903
g192
((lp904
F40.280000000002474
tp905
sg244
((lp906
(F15.489999999997963
I127
tp907
aF40.020000000000437
tp908
sg294
((lp909
(F1.1699999999982538
I12
tp910
aF40.169999999998254
tp911
sg342
((lp912
(F7.0400000000008731
I64
tp913
aF40.110000000000582
tp914
sg398
((lp915
(F0.13999999999941792
I25
tp916
aF40.0
tp917
ssba(imeasure_core
ProblemSetSolution
p918
(dp919
g3
g466
sg149
g864
sg152
(dp920
g469
((lp921
F40.180000000000291
tp922
sg517
((lp923
F43.169999999998254
tp924
sg565
((lp925
(F14.040000000000873
I58
tp926
aF42.880000000001019
tp927
sg613
((lp928
(F35.869999999998981
I19
tp929
aF41.569999999999709
tp930
sg654
((lp931
F44.5
tp932
ssba(imeasure_core
ProblemSetSolution
p933
(dp934
g3
g4
sg149
S"AnytimeBeam-w20-gf(2, 'lin')_with_LinearHeuristic"
p935
sg152
(dp936
g8
((lp937
(F0.020000000000436557
I24
tp938
aF40.0
tp939
sg41
((lp940
F40.139999999999418
tp941
sg70
((lp942
(F0.020000000000436557
I23
tp943
aF40.0
tp944
sg96
((lp945
(F0.72999999999956344
I4
tp946
aF40.130000000001019
tp947
sg121
((lp948
F40.150000000001455
tp949
ssba(imeasure_core
ProblemSetSolution
p950
(dp951
g3
g189
sg149
g935
sg152
(dp952
g192
((lp953
F40.069999999999709
tp954
sg244
((lp955
F40.200000000000728
tp956
sg294
((lp957
F40.020000000000437
tp958
sg342
((lp959
F40.079999999998108
tp960
sg398
((lp961
F40.030000000002474
tp962
ssba(imeasure_core
ProblemSetSolution
p963
(dp964
g3
g466
sg149
g935
sg152
(dp965
g469
((lp966
F40.269999999996799
tp967
sg517
((lp968
F48.159999999999854
tp969
sg565
((lp970
F40.540000000000873
tp971
sg613
((lp972
(F23.450000000000728
I10
tp973
aF40.970000000001164
tp974
sg654
((lp975
F42.169999999998254
tp976
ssba(imeasure_core
ProblemSetSolution
p977
(dp978
g3
g4
sg149
S"AnytimeBeam-w20-gf(4, 'lin')_with_LinearHeuristic"
p979
sg152
(dp980
g8
((lp981
(F0.020000000000436557
I24
tp982
aF40.0
tp983
sg41
((lp984
F40.400000000001455
tp985
sg70
((lp986
(F0.020000000000436557
I23
tp987
aF40.0
tp988
sg96
((lp989
(F0.79000000000087311
I4
tp990
aF40.240000000001601
tp991
sg121
((lp992
F40.049999999999272
tp993
ssba(imeasure_core
ProblemSetSolution
p994
(dp995
g3
g189
sg149
g979
sg152
(dp996
g192
((lp997
F40.200000000000728
tp998
sg244
((lp999
F40.169999999998254
tp1000
sg294
((lp1001
F40.459999999999127
tp1002
sg342
((lp1003
F40.049999999999272
tp1004
sg398
((lp1005
F40.080000000001746
tp1006
ssba(imeasure_core
ProblemSetSolution
p1007
(dp1008
g3
g466
sg149
g979
sg152
(dp1009
g469
((lp1010
F40.099999999998545
tp1011
sg517
((lp1012
F48.980000000003201
tp1013
sg565
((lp1014
F41.119999999995343
tp1015
sg613
((lp1016
(F25.160000000003492
I10
tp1017
aF41.200000000004366
tp1018
sg654
((lp1019
F42.549999999995634
tp1020
ssba(imeasure_core
ProblemSetSolution
p1021
(dp1022
g3
g4
sg149
S"AnytimeBeam-w20-gf(8, 'lin')_with_LinearHeuristic"
p1023
sg152
(dp1024
g8
((lp1025
(F0.010000000002037268
I24
tp1026
aF40.0
tp1027
sg41
((lp1028
F40.139999999999418
tp1029
sg70
((lp1030
(F0.020000000004074536
I23
tp1031
aF40.0
tp1032
sg96
((lp1033
(F0.88000000000465661
I4
tp1034
aF40.200000000004366
tp1035
sg121
((lp1036
F40.209999999999127
tp1037
ssba(imeasure_core
ProblemSetSolution
p1038
(dp1039
g3
g189
sg149
g1023
sg152
(dp1040
g192
((lp1041
F40.139999999999418
tp1042
sg244
((lp1043
F40.139999999999418
tp1044
sg294
((lp1045
F40.120000000002619
tp1046
sg342
((lp1047
F40.139999999999418
tp1048
sg398
((lp1049
F40.009999999994761
tp1050
ssba(imeasure_core
ProblemSetSolution
p1051
(dp1052
g3
g466
sg149
g1023
sg152
(dp1053
g469
((lp1054
F40.25
tp1055
sg517
((lp1056
F49.790000000000873
tp1057
sg565
((lp1058
F40.440000000002328
tp1059
sg613
((lp1060
(F26.089999999996508
I10
tp1061
aF40.549999999995634
tp1062
sg654
((lp1063
F43.370000000002619
tp1064
ssba(imeasure_core
ProblemSetSolution
p1065
(dp1066
g3
g4
sg149
S"AnytimeBeam-w20-gf(16, 'lin')_with_LinearHeuristic"
p1067
sg152
(dp1068
g8
((lp1069
(F0.019999999996798579
I24
tp1070
aF40.0
tp1071
sg41
((lp1072
F40.040000000000873
tp1073
sg70
((lp1074
(F0.019999999996798579
I23
tp1075
aF40.0
tp1076
sg96
((lp1077
(F1.0099999999947613
I4
tp1078
aF40.19999999999709
tp1079
sg121
((lp1080
F40.069999999999709
tp1081
ssba(imeasure_core
ProblemSetSolution
p1082
(dp1083
g3
g189
sg149
g1067
sg152
(dp1084
g192
((lp1085
F40.059999999997672
tp1086
sg244
((lp1087
F40.120000000002619
tp1088
sg294
((lp1089
F40.160000000003492
tp1090
sg342
((lp1091
F40.07999999999447
tp1092
sg398
((lp1093
F40.010000000002037
tp1094
ssba(imeasure_core
ProblemSetSolution
p1095
(dp1096
g3
g466
sg149
g1067
sg152
(dp1097
g469
((lp1098
F40.029999999998836
tp1099
sg517
((lp1100
F52.980000000003201
tp1101
sg565
((lp1102
F40.719999999993888
tp1103
sg613
((lp1104
(F29.319999999999709
I10
tp1105
aF42.639999999999418
tp1106
sg654
((lp1107
F45.5
tp1108
ssba.