(lp0
(imeasure_core
ProblemSetSolution
p1
(dp2
S'roomset'
p3
(imeasure_core
RoomSet
p4
(dp5
S'rooms'
p6
(dp7
(iproblems
RoomID
p8
(dp9
S'dusts'
p10
I8
sS'obstacles'
p11
(I1
I6
tp12
sS'robots'
p13
I4
sS'height'
p14
I10
sS'width'
p15
I9
sS'seed'
p16
I3433768247134474666
sb(imulti_robot_problem
MultiRobotState
p17
(dp18
S'obstacle_locations'
p19
c__builtin__
frozenset
p20
((lp21
(I4
I9
tp22
a(I4
I6
tp23
a(I0
I7
tp24
ag12
a(I0
I9
tp25
a(I8
I6
tp26
a(I0
I8
tp27
a(I3
I3
tp28
atp29
Rp30
sg15
I9
sS'dirt_locations'
p31
g20
((lp32
(I3
I2
tp33
a(I7
I7
tp34
a(I1
I9
tp35
a(I8
I7
tp36
a(I5
I4
tp37
a(I1
I1
tp38
a(I5
I8
tp39
a(I7
I9
tp40
atp41
Rp42
sg13
((I5
I9
tp43
(I5
I5
tp44
(I6
I9
tp45
(I2
I0
tp46
tp47
sg14
I10
sbs(iproblems
RoomID
p48
(dp49
g10
I7
sg11
(I2
I2
tp50
sg13
I3
sg14
I9
sg15
I9
sg16
I6241004153072892496
sb(imulti_robot_problem
MultiRobotState
p51
(dp52
g19
g20
((lp53
(I7
I3
tp54
a(I3
I2
tp55
a(I7
I1
tp56
a(I5
I1
tp57
ag50
a(I4
I1
tp58
a(I7
I7
tp59
atp60
Rp61
sg15
I9
sg31
g20
((lp62
(I3
I8
tp63
a(I1
I5
tp64
a(I4
I8
tp65
a(I3
I7
tp66
a(I5
I7
tp67
a(I3
I4
tp68
a(I6
I0
tp69
atp70
Rp71
sg13
((I6
I5
tp72
(I4
I3
tp73
(I3
I5
tp74
tp75
sg14
I9
sbs(iproblems
RoomID
p76
(dp77
g10
I6
sg11
(I7
I4
tp78
sg13
I4
sg14
I8
sg15
I9
sg16
I8554152435637441414
sb(imulti_robot_problem
MultiRobotState
p79
(dp80
g19
g20
((lp81
(I6
I6
tp82
a(I5
I7
tp83
ag78
a(I2
I0
tp84
a(I7
I5
tp85
a(I3
I7
tp86
a(I0
I3
tp87
a(I4
I1
tp88
atp89
Rp90
sg15
I9
sg31
g20
((lp91
(I7
I3
tp92
a(I1
I6
tp93
a(I5
I1
tp94
a(I8
I6
tp95
a(I0
I2
tp96
a(I4
I0
tp97
atp98
Rp99
sg13
((I5
I3
tp100
(I6
I2
tp101
(I6
I3
tp102
(I6
I4
tp103
tp104
sg14
I8
sbs(iproblems
RoomID
p105
(dp106
g10
I9
sg11
(I4
I3
tp107
sg13
I3
sg14
I9
sg15
I8
sg16
I6161655336973386967
sb(imulti_robot_problem
MultiRobotState
p108
(dp109
g19
g20
((lp110
(I6
I3
tp111
a(I7
I3
tp112
a(I5
I4
tp113
ag107
a(I6
I6
tp114
a(I5
I2
tp115
a(I2
I1
tp116
atp117
Rp118
sg15
I8
sg31
g20
((lp119
(I6
I4
tp120
a(I6
I8
tp121
a(I2
I0
tp122
a(I5
I7
tp123
a(I1
I4
tp124
a(I1
I5
tp125
a(I0
I5
tp126
a(I2
I5
tp127
a(I4
I1
tp128
atp129
Rp130
sg13
((I3
I5
tp131
(I4
I6
tp132
(I4
I5
tp133
tp134
sg14
I9
sbs(iproblems
RoomID
p135
(dp136
g10
I10
sg11
(I6
I4
tp137
sg13
I4
sg14
I7
sg15
I10
sg16
I3125140389427113411
sb(imulti_robot_problem
MultiRobotState
p138
(dp139
g19
g20
((lp140
(I6
I3
tp141
a(I5
I1
tp142
a(I5
I2
tp143
ag137
atp144
Rp145
sg15
I10
sg31
g20
((lp146
(I1
I2
tp147
a(I7
I3
tp148
a(I0
I0
tp149
a(I3
I3
tp150
a(I6
I2
tp151
a(I1
I6
tp152
a(I9
I4
tp153
a(I2
I5
tp154
a(I0
I2
tp155
a(I7
I2
tp156
atp157
Rp158
sg13
((I9
I0
tp159
(I6
I5
tp160
(I1
I4
tp161
(I1
I3
tp162
tp163
sg14
I7
sbssS'name'
p164
S'easy_roomset'
p165
sbsg164
S'LimitedTimeAStar_with_PowerHeuristic2'
p166
sS'solutions'
p167
(dp168
g8
((lp169
F0.36000000000058208
tp170
sg48
((lp171
F0.07999999999992724
tp172
sg76
((lp173
F0.27000000000043656
tp174
sg105
((lp175
F0.35999999999876309
tp176
sg135
((lp177
F0.79000000000087311
tp178
ssba(imeasure_core
ProblemSetSolution
p179
(dp180
g3
(imeasure_core
RoomSet
p181
(dp182
g6
(dp183
(iproblems
RoomID
p184
(dp185
g10
I10
sg11
(I1
I6
tp186
sg13
I3
sg14
I12
sg15
I9
sg16
I4927760411464392432
sb(imulti_robot_problem
MultiRobotState
p187
(dp188
g19
g20
((lp189
(I5
I9
tp190
a(I1
I3
tp191
a(I4
I5
tp192
a(I7
I7
tp193
a(I6
I0
tp194
a(I3
I9
tp195
ag186
a(I8
I7
tp196
a(I3
I7
tp197
a(I2
I5
tp198
a(I7
I9
tp199
a(I3
I1
tp200
a(I4
I6
tp201
a(I2
I9
tp202
a(I3
I10
tp203
a(I6
I10
tp204
a(I2
I11
tp205
a(I3
I8
tp206
a(I0
I6
tp207
a(I3
I6
tp208
a(I2
I2
tp209
a(I2
I3
tp210
a(I3
I4
tp211
a(I7
I6
tp212
atp213
Rp214
sg15
I9
sg31
g20
((lp215
(I1
I2
tp216
a(I6
I4
tp217
a(I6
I9
tp218
a(I8
I2
tp219
a(I8
I0
tp220
a(I1
I10
tp221
a(I0
I9
tp222
a(I1
I0
tp223
a(I0
I2
tp224
a(I4
I11
tp225
atp226
Rp227
sg13
((I1
I11
tp228
(I0
I11
tp229
(I7
I5
tp230
tp231
sg14
I12
sbs(iproblems
RoomID
p232
(dp233
g10
I8
sg11
(I1
I11
tp234
sg13
I4
sg14
I12
sg15
I11
sg16
I3433768247134474666
sb(imulti_robot_problem
MultiRobotState
p235
(dp236
g19
g20
((lp237
(I9
I3
tp238
a(I3
I6
tp239
a(I4
I8
tp240
a(I4
I5
tp241
a(I2
I8
tp242
a(I10
I6
tp243
a(I2
I10
tp244
a(I8
I7
tp245
a(I2
I3
tp246
a(I0
I10
tp247
a(I9
I4
tp248
a(I3
I7
tp249
ag234
a(I10
I3
tp250
a(I5
I8
tp251
a(I10
I4
tp252
a(I2
I7
tp253
a(I10
I5
tp254
a(I6
I7
tp255
a(I2
I9
tp256
a(I9
I6
tp257
a(I1
I8
tp258
a(I3
I8
tp259
a(I0
I11
tp260
a(I8
I8
tp261
a(I4
I11
tp262
a(I5
I0
tp263
a(I0
I9
tp264
a(I4
I9
tp265
a(I7
I8
tp266
atp267
Rp268
sg15
I11
sg31
g20
((lp269
(I4
I3
tp270
a(I5
I11
tp271
a(I9
I8
tp272
a(I2
I11
tp273
a(I9
I11
tp274
a(I7
I10
tp275
a(I1
I1
tp276
a(I6
I5
tp277
atp278
Rp279
sg13
((I7
I11
tp280
(I7
I7
tp281
(I2
I0
tp282
(I10
I9
tp283
tp284
sg14
I12
sbs(iproblems
RoomID
p285
(dp286
g10
I10
sg11
(I5
I4
tp287
sg13
I4
sg14
I9
sg15
I12
sg16
I3125140389427113411
sb(imulti_robot_problem
MultiRobotState
p288
(dp289
g19
g20
((lp290
(I7
I3
tp291
a(I4
I7
tp292
a(I2
I6
tp293
a(I2
I7
tp294
a(I6
I6
tp295
a(I5
I6
tp296
ag287
a(I1
I4
tp297
a(I6
I2
tp298
a(I10
I1
tp299
a(I3
I7
tp300
a(I5
I1
tp301
a(I2
I5
tp302
a(I6
I5
tp303
a(I3
I3
tp304
a(I6
I4
tp305
a(I9
I5
tp306
a(I6
I7
tp307
a(I5
I5
tp308
a(I10
I7
tp309
a(I6
I1
tp310
a(I7
I4
tp311
a(I8
I6
tp312
a(I5
I3
tp313
a(I5
I2
tp314
a(I8
I4
tp315
atp316
Rp317
sg15
I12
sg31
g20
((lp318
(I0
I0
tp319
a(I11
I4
tp320
a(I8
I2
tp321
a(I3
I0
tp322
a(I6
I0
tp323
a(I1
I8
tp324
a(I2
I3
tp325
a(I0
I3
tp326
a(I11
I6
tp327
a(I3
I5
tp328
atp329
Rp330
sg13
((I11
I0
tp331
(I7
I7
tp332
(I1
I5
tp333
(I2
I4
tp334
tp335
sg14
I9
sbs(iproblems
RoomID
p336
(dp337
g10
I6
sg11
(I5
I4
tp338
sg13
I4
sg14
I10
sg15
I11
sg16
I8554152435637441414
sb(imulti_robot_problem
MultiRobotState
p339
(dp340
g19
g20
((lp341
(I6
I4
tp342
ag338
a(I4
I5
tp343
a(I2
I8
tp344
a(I9
I3
tp345
a(I7
I7
tp346
a(I0
I7
tp347
a(I6
I2
tp348
a(I2
I1
tp349
a(I3
I7
tp350
a(I5
I1
tp351
a(I0
I3
tp352
a(I8
I5
tp353
a(I5
I3
tp354
a(I3
I8
tp355
a(I8
I3
tp356
a(I4
I9
tp357
a(I6
I8
tp358
a(I7
I0
tp359
a(I6
I3
tp360
a(I7
I5
tp361
a(I3
I6
tp362
a(I8
I6
tp363
a(I7
I8
tp364
a(I10
I9
tp365
atp366
Rp367
sg15
I11
sg31
g20
((lp368
(I1
I3
tp369
a(I9
I4
tp370
a(I5
I0
tp371
a(I3
I0
tp372
a(I4
I2
tp373
a(I7
I2
tp374
atp375
Rp376
sg13
((I8
I2
tp377
(I8
I4
tp378
(I9
I7
tp379
(I0
I2
tp380
tp381
sg14
I10
sbs(iproblems
RoomID
p382
(dp383
g10
I7
sg11
(I10
I3
tp384
sg13
I3
sg14
I11
sg15
I11
sg16
I6241004153072892496
sb(imulti_robot_problem
MultiRobotState
p385
(dp386
g19
g20
((lp387
(I3
I2
tp388
a(I0
I0
tp389
a(I9
I8
tp390
a(I7
I7
tp391
a(I8
I9
tp392
a(I6
I2
tp393
a(I2
I3
tp394
a(I9
I4
tp395
a(I4
I2
tp396
a(I5
I1
tp397
a(I0
I3
tp398
ag384
a(I1
I2
tp399
a(I9
I5
tp400
a(I5
I5
tp401
a(I10
I7
tp402
a(I8
I5
tp403
a(I6
I1
tp404
a(I1
I8
tp405
a(I8
I8
tp406
a(I8
I6
tp407
a(I7
I8
tp408
a(I2
I4
tp409
atp410
Rp411
sg15
I11
sg31
g20
((lp412
(I4
I10
tp413
a(I6
I9
tp414
a(I4
I9
tp415
a(I9
I1
tp416
a(I5
I10
tp417
a(I3
I10
tp418
a(I8
I0
tp419
atp420
Rp421
sg13
((I5
I4
tp422
(I4
I6
tp423
(I1
I6
tp424
tp425
sg14
I11
sbssg164
S'mild_roomset'
p426
sbsg164
g166
sg167
(dp427
g184
((lp428
F127.52999999999884
tp429
sg232
((lp430
F38.730000000001382
tp431
sg285
((lp432
F300.77999999999884
tp433
sg382
((lp434
F0.1499999999996362
tp435
sg336
((lp436
F1.6700000000000728
tp437
ssba(imeasure_core
ProblemSetSolution
p438
(dp439
g3
(imeasure_core
RoomSet
p440
(dp441
g6
(dp442
(iproblems
RoomID
p443
(dp444
g10
I15
sg11
(I3
I3
tp445
sg13
I5
sg14
I13
sg15
I10
sg16
I4927760411464392432
sb(imulti_robot_problem
MultiRobotState
p446
(dp447
g19
g20
((lp448
(I6
I10
tp449
a(I6
I11
tp450
a(I3
I11
tp451
a(I2
I1
tp452
a(I2
I10
tp453
a(I3
I9
tp454
a(I2
I3
tp455
a(I1
I0
tp456
a(I4
I0
tp457
a(I1
I2
tp458
ag445
a(I7
I6
tp459
a(I3
I1
tp460
a(I1
I1
tp461
a(I1
I7
tp462
a(I1
I3
tp463
a(I3
I10
tp464
a(I9
I12
tp465
atp466
Rp467
sg15
I10
sg31
g20
((lp468
(I9
I0
tp469
a(I9
I7
tp470
a(I7
I0
tp471
a(I8
I2
tp472
a(I5
I5
tp473
a(I8
I10
tp474
a(I1
I4
tp475
a(I8
I8
tp476
a(I2
I12
tp477
a(I8
I7
tp478
a(I1
I10
tp479
a(I7
I11
tp480
a(I4
I12
tp481
a(I0
I2
tp482
a(I0
I10
tp483
atp484
Rp485
sg13
((I1
I12
tp486
(I0
I12
tp487
(I8
I5
tp488
(I7
I9
tp489
(I7
I4
tp490
tp491
sg14
I13
sbs(iproblems
RoomID
p492
(dp493
g10
I13
sg11
(I4
I11
tp494
sg13
I6
sg14
I13
sg15
I12
sg16
I3433768247134474666
sb(imulti_robot_problem
MultiRobotState
p495
(dp496
g19
g20
((lp497
(I4
I10
tp498
a(I5
I11
tp499
a(I6
I11
tp500
a(I9
I8
tp501
a(I6
I0
tp502
a(I0
I12
tp503
a(I4
I12
tp504
a(I2
I3
tp505
a(I2
I12
tp506
a(I10
I3
tp507
ag494
a(I11
I7
tp508
a(I3
I12
tp509
a(I3
I10
tp510
a(I11
I3
tp511
a(I0
I11
tp512
a(I8
I8
tp513
a(I1
I9
tp514
a(I1
I6
tp515
a(I1
I1
tp516
a(I0
I10
tp517
atp518
Rp519
sg15
I12
sg31
g20
((lp520
(I10
I8
tp521
a(I10
I5
tp522
a(I6
I7
tp523
a(I6
I8
tp524
a(I4
I4
tp525
a(I10
I12
tp526
a(I9
I9
tp527
a(I8
I10
tp528
a(I7
I5
tp529
a(I7
I10
tp530
a(I6
I12
tp531
a(I5
I10
tp532
a(I5
I3
tp533
atp534
Rp535
sg13
((I7
I12
tp536
(I7
I7
tp537
(I8
I12
tp538
(I2
I0
tp539
(I11
I9
tp540
(I1
I2
tp541
tp542
sg14
I13
sbs(iproblems
RoomID
p543
(dp544
g10
I15
sg11
(I1
I6
tp545
sg13
I6
sg14
I10
sg15
I13
sg16
I3125140389427113411
sb(imulti_robot_problem
MultiRobotState
p546
(dp547
g19
g20
((lp548
(I7
I3
tp549
a(I3
I3
tp550
a(I1
I5
tp551
a(I6
I1
tp552
a(I1
I4
tp553
a(I7
I4
tp554
a(I2
I0
tp555
a(I11
I1
tp556
a(I2
I3
tp557
a(I0
I7
tp558
a(I8
I7
tp559
a(I6
I2
tp560
ag545
atp561
Rp562
sg15
I13
sg31
g20
((lp563
(I0
I1
tp564
a(I2
I6
tp565
a(I2
I9
tp566
a(I11
I8
tp567
a(I2
I8
tp568
a(I9
I3
tp569
a(I6
I0
tp570
a(I3
I0
tp571
a(I7
I7
tp572
a(I6
I3
tp573
a(I9
I2
tp574
a(I12
I4
tp575
a(I0
I4
tp576
a(I2
I4
tp577
a(I9
I7
tp578
atp579
Rp580
sg13
((I12
I0
tp581
(I7
I8
tp582
(I2
I5
tp583
(I4
I5
tp584
(I12
I7
tp585
(I9
I4
tp586
tp587
sg14
I10
sbs(iproblems
RoomID
p588
(dp589
g10
I12
sg11
(I3
I3
tp590
sg13
I6
sg14
I12
sg15
I12
sg16
I6241004153072892496
sb(imulti_robot_problem
MultiRobotState
p591
(dp592
g19
g20
((lp593
(I9
I3
tp594
ag590
a(I2
I9
tp595
a(I7
I1
tp596
a(I11
I8
tp597
a(I3
I4
tp598
a(I6
I1
tp599
a(I3
I1
tp600
a(I5
I2
tp601
a(I4
I3
tp602
a(I4
I2
tp603
a(I8
I5
tp604
a(I11
I6
tp605
atp606
Rp607
sg15
I12
sg31
g20
((lp608
(I4
I10
tp609
a(I0
I0
tp610
a(I7
I10
tp611
a(I5
I11
tp612
a(I8
I0
tp613
a(I9
I10
tp614
a(I8
I7
tp615
a(I10
I1
tp616
a(I2
I5
tp617
a(I8
I9
tp618
a(I4
I11
tp619
a(I10
I4
tp620
atp621
Rp622
sg13
((I8
I6
tp623
(I5
I4
tp624
(I7
I2
tp625
(I4
I7
tp626
(I1
I7
tp627
(I5
I6
tp628
tp629
sg14
I12
sbs(iproblems
RoomID
p630
(dp631
g10
I11
sg11
(I3
I6
tp632
sg13
I7
sg14
I11
sg15
I12
sg16
I8554152435637441414
sb(imulti_robot_problem
MultiRobotState
p633
(dp634
g19
g20
((lp635
(I3
I1
tp636
a(I3
I8
tp637
a(I4
I5
tp638
a(I2
I8
tp639
a(I11
I2
tp640
a(I1
I7
tp641
a(I7
I5
tp642
a(I9
I4
tp643
a(I3
I7
tp644
a(I5
I1
tp645
a(I9
I6
tp646
a(I7
I9
tp647
a(I6
I3
tp648
a(I7
I6
tp649
a(I4
I4
tp650
a(I7
I4
tp651
a(I1
I8
tp652
a(I8
I8
tp653
ag632
a(I0
I4
tp654
a(I0
I9
tp655
a(I8
I6
tp656
a(I9
I7
tp657
atp658
Rp659
sg15
I12
sg31
g20
((lp660
(I11
I10
tp661
a(I4
I9
tp662
a(I2
I9
tp663
a(I3
I0
tp664
a(I8
I0
tp665
a(I4
I7
tp666
a(I1
I4
tp667
a(I0
I3
tp668
a(I0
I8
tp669
a(I5
I2
tp670
a(I7
I2
tp671
atp672
Rp673
sg13
((I6
I4
tp674
(I8
I2
tp675
(I8
I5
tp676
(I10
I8
tp677
(I1
I2
tp678
(I6
I0
tp679
(I10
I4
tp680
tp681
sg14
I11
sbssg164
S'heavy_roomset'
p682
sbsg164
g166
sg167
(dp683
g443
((lp684
F304.13000000000102
tp685
sg492
((lp686
F18.659999999999854
tp687
sg543
((lp688
F303.03999999999905
tp689
sg588
((lp690
F302.0
tp691
sg630
((lp692
F48.180000000000291
tp693
ssba.