(lp0
(imeasure_core
ProblemSetSolution
p1
(dp2
S'roomset'
p3
(imeasure_core
RoomSet
p4
(dp5
S'rooms'
p6
(dp7
(iproblems
RoomID
p8
(dp9
S'dusts'
p10
I6
sS'obstacles'
p11
(I3
I2
tp12
sS'robots'
p13
I1
sS'height'
p14
I9
sS'width'
p15
I10
sS'seed'
p16
I6832892905590973747
sb(imulti_robot_problem
MultiRobotState
p17
(dp18
S'obstacle_locations'
p19
c__builtin__
frozenset
p20
((lp21
(I3
I0
tp22
a(I2
I0
tp23
ag12
a(I3
I1
tp24
atp25
Rp26
sg15
I10
sS'dirt_locations'
p27
g20
((lp28
(I1
I2
tp29
a(I2
I7
tp30
a(I0
I0
tp31
a(I0
I5
tp32
a(I5
I6
tp33
a(I0
I2
tp34
atp35
Rp36
sg13
((I8
I4
tp37
tp38
sg14
I9
sbs(iproblems
RoomID
p39
(dp40
g10
I7
sg11
(I3
I5
tp41
sg13
I5
sg14
I7
sg15
I9
sg16
I6924344268699531175
sb(imulti_robot_problem
MultiRobotState
p42
(dp43
g19
g20
((lp44
(I2
I6
tp45
a(I1
I6
tp46
a(I3
I6
tp47
ag41
atp48
Rp49
sg15
I9
sg27
g20
((lp50
(I1
I2
tp51
a(I0
I0
tp52
a(I5
I0
tp53
a(I7
I1
tp54
a(I8
I6
tp55
a(I3
I4
tp56
a(I6
I5
tp57
atp58
Rp59
sg13
((I4
I0
tp60
(I7
I2
tp61
(I1
I1
tp62
(I6
I1
tp63
(I8
I4
tp64
tp65
sg14
I7
sbs(iproblems
RoomID
p66
(dp67
g10
I8
sg11
(I5
I0
tp68
sg13
I4
sg14
I10
sg15
I10
sg16
I3562373307524659409
sb(imulti_robot_problem
MultiRobotState
p69
(dp70
g19
g20
((lp71
(I6
I3
tp72
a(I6
I7
tp73
ag68
a(I3
I6
tp74
a(I8
I1
tp75
a(I7
I0
tp76
a(I6
I0
tp77
atp78
Rp79
sg15
I10
sg27
g20
((lp80
(I1
I3
tp81
a(I2
I9
tp82
a(I7
I6
tp83
a(I7
I7
tp84
a(I8
I9
tp85
a(I1
I8
tp86
a(I1
I6
tp87
a(I2
I2
tp88
atp89
Rp90
sg13
((I9
I8
tp91
(I6
I5
tp92
(I5
I1
tp93
(I8
I8
tp94
tp95
sg14
I10
sbs(iproblems
RoomID
p96
(dp97
g10
I5
sg11
(I4
I7
tp98
sg13
I3
sg14
I9
sg15
I7
sg16
I2524308075868763041
sb(imulti_robot_problem
MultiRobotState
p99
(dp100
g19
g20
((lp101
(I1
I2
tp102
a(I3
I8
tp103
ag98
a(I4
I6
tp104
a(I4
I1
tp105
a(I2
I4
tp106
a(I3
I5
tp107
atp108
Rp109
sg15
I7
sg27
g20
((lp110
(I2
I6
tp111
a(I5
I2
tp112
a(I3
I3
tp113
a(I0
I7
tp114
a(I3
I6
tp115
atp116
Rp117
sg13
((I0
I6
tp118
(I3
I1
tp119
(I4
I8
tp120
tp121
sg14
I9
sbs(iproblems
RoomID
p122
(dp123
g10
I6
sg11
(I3
I1
tp124
sg13
I4
sg14
I8
sg15
I7
sg16
I807570059310326234
sb(imulti_robot_problem
MultiRobotState
p125
(dp126
g19
g20
((lp127
(I6
I3
tp128
a(I4
I2
tp129
ag124
a(I5
I3
tp130
atp131
Rp132
sg15
I7
sg27
g20
((lp133
(I3
I2
tp134
a(I6
I7
tp135
a(I4
I6
tp136
a(I0
I4
tp137
a(I1
I0
tp138
a(I5
I2
tp139
atp140
Rp141
sg13
((I1
I2
tp142
(I0
I1
tp143
(I3
I7
tp144
(I2
I4
tp145
tp146
sg14
I8
sbssS'name'
p147
S'easy_roomset'
p148
sbsg147
S'AnytimeBest-d10_with_PowerHeuristic2'
p149
sS'solutions'
p150
(dp151
g8
((lp152
F0.22000000000116415
tp153
sg39
((lp154
(F1.8599999999933061
I7
tp155
aF40.049999999995634
tp156
sg66
((lp157
(F0.44000000000232831
I10
tp158
aF40.020000000004075
tp159
sg96
((lp160
(F0.029999999998835847
I7
tp161
aF40.0
tp162
sg122
((lp163
F40.029999999998836
tp164
ssba(imeasure_core
ProblemSetSolution
p165
(dp166
g3
(imeasure_core
RoomSet
p167
(dp168
g6
(dp169
(iproblems
RoomID
p170
(dp171
g10
I6
sg11
(I6
I2
tp172
sg13
I3
sg14
I11
sg15
I12
sg16
I6832892905590973747
sb(imulti_robot_problem
MultiRobotState
p173
(dp174
g19
g20
((lp175
(I6
I4
tp176
a(I2
I6
tp177
a(I4
I3
tp178
a(I3
I0
tp179
a(I2
I8
tp180
a(I7
I7
tp181
a(I7
I5
tp182
a(I4
I2
tp183
a(I5
I3
tp184
a(I4
I1
tp185
a(I7
I6
tp186
a(I6
I3
tp187
a(I4
I5
tp188
ag172
a(I3
I6
tp189
a(I8
I6
tp190
a(I4
I0
tp191
a(I5
I2
tp192
a(I2
I4
tp193
atp194
Rp195
sg15
I12
sg27
g20
((lp196
(I1
I6
tp197
a(I6
I8
tp198
a(I2
I9
tp199
a(I0
I3
tp200
a(I0
I2
tp201
a(I7
I9
tp202
atp203
Rp204
sg13
((I10
I6
tp205
(I1
I2
tp206
(I0
I0
tp207
tp208
sg14
I11
sbs(iproblems
RoomID
p209
(dp210
g10
I7
sg11
(I3
I1
tp211
sg13
I4
sg14
I9
sg15
I11
sg16
I6924344268699531175
sb(imulti_robot_problem
MultiRobotState
p212
(dp213
g19
g20
((lp214
(I4
I7
tp215
ag211
a(I6
I6
tp216
a(I5
I6
tp217
a(I2
I8
tp218
a(I9
I8
tp219
a(I7
I7
tp220
a(I0
I7
tp221
a(I7
I5
tp222
a(I8
I7
tp223
a(I0
I3
tp224
a(I0
I8
tp225
a(I8
I5
tp226
a(I6
I3
tp227
a(I5
I2
tp228
a(I7
I6
tp229
a(I4
I8
tp230
a(I7
I4
tp231
a(I3
I8
tp232
a(I0
I6
tp233
a(I8
I8
tp234
a(I4
I1
tp235
a(I9
I7
tp236
atp237
Rp238
sg15
I11
sg27
g20
((lp239
(I8
I3
tp240
a(I1
I3
tp241
a(I4
I6
tp242
a(I4
I3
tp243
a(I0
I4
tp244
a(I10
I5
tp245
a(I0
I0
tp246
atp247
Rp248
sg13
((I6
I0
tp249
(I9
I3
tp250
(I1
I1
tp251
(I8
I1
tp252
tp253
sg14
I9
sbs(iproblems
RoomID
p254
(dp255
g10
I8
sg11
(I11
I7
tp256
sg13
I4
sg14
I12
sg15
I12
sg16
I3562373307524659409
sb(imulti_robot_problem
MultiRobotState
p257
(dp258
g19
g20
((lp259
(I6
I4
tp260
a(I6
I9
tp261
a(I3
I2
tp262
a(I9
I1
tp263
a(I6
I6
tp264
a(I5
I6
tp265
a(I9
I8
tp266
a(I3
I11
tp267
a(I7
I1
tp268
ag256
a(I8
I9
tp269
a(I3
I9
tp270
a(I11
I8
tp271
a(I10
I2
tp272
a(I4
I2
tp273
a(I7
I2
tp274
a(I10
I8
tp275
a(I8
I3
tp276
a(I8
I1
tp277
a(I3
I10
tp278
a(I5
I11
tp279
a(I6
I3
tp280
a(I6
I11
tp281
a(I6
I5
tp282
a(I7
I10
tp283
a(I4
I8
tp284
a(I11
I6
tp285
a(I4
I11
tp286
atp287
Rp288
sg15
I12
sg27
g20
((lp289
(I7
I3
tp290
a(I1
I3
tp291
a(I10
I11
tp292
a(I1
I7
tp293
a(I8
I8
tp294
a(I2
I2
tp295
a(I3
I7
tp296
a(I7
I9
tp297
atp298
Rp299
sg13
((I11
I10
tp300
(I7
I6
tp301
(I10
I10
tp302
(I2
I10
tp303
tp304
sg14
I12
sbs(iproblems
RoomID
p305
(dp306
g10
I10
sg11
(I6
I8
tp307
sg13
I3
sg14
I11
sg15
I10
sg16
I7391799147228763464
sb(imulti_robot_problem
MultiRobotState
p308
(dp309
g19
g20
((lp310
(I5
I9
tp311
a(I4
I7
tp312
a(I4
I6
tp313
a(I4
I8
tp314
a(I4
I5
tp315
a(I6
I9
tp316
a(I0
I7
tp317
a(I1
I4
tp318
a(I3
I7
tp319
a(I5
I8
tp320
ag307
a(I2
I7
tp321
a(I3
I8
tp322
a(I4
I9
tp323
a(I3
I3
tp324
a(I9
I2
tp325
a(I6
I3
tp326
a(I3
I6
tp327
a(I1
I7
tp328
a(I0
I9
tp329
a(I7
I8
tp330
a(I0
I2
tp331
a(I1
I9
tp332
atp333
Rp334
sg15
I10
sg27
g20
((lp335
(I8
I3
tp336
a(I5
I10
tp337
a(I5
I5
tp338
a(I2
I8
tp339
a(I7
I6
tp340
a(I6
I0
tp341
a(I2
I10
tp342
a(I9
I4
tp343
a(I1
I10
tp344
a(I0
I3
tp345
atp346
Rp347
sg13
((I3
I10
tp348
(I7
I1
tp349
(I1
I5
tp350
tp351
sg14
I11
sbs(iproblems
RoomID
p352
(dp353
g10
I6
sg11
(I2
I5
tp354
sg13
I4
sg14
I10
sg15
I9
sg16
I807570059310326234
sb(imulti_robot_problem
MultiRobotState
p355
(dp356
g19
g20
((lp357
(I6
I4
tp358
a(I3
I2
tp359
a(I1
I3
tp360
a(I8
I2
tp361
a(I2
I3
tp362
a(I3
I8
tp363
ag354
a(I1
I0
tp364
a(I1
I2
tp365
a(I7
I4
tp366
a(I4
I1
tp367
a(I3
I3
tp368
a(I3
I4
tp369
a(I1
I1
tp370
a(I6
I3
tp371
a(I2
I0
tp372
a(I1
I8
tp373
a(I2
I2
tp374
a(I5
I2
tp375
a(I0
I2
tp376
a(I8
I4
tp377
atp378
Rp379
sg15
I9
sg27
g20
((lp380
(I7
I3
tp381
a(I2
I6
tp382
a(I1
I6
tp383
a(I4
I2
tp384
a(I5
I8
tp385
a(I7
I9
tp386
atp387
Rp388
sg13
((I6
I2
tp389
(I0
I1
tp390
(I3
I9
tp391
(I3
I5
tp392
tp393
sg14
I10
sbssg147
S'mild_roomset'
p394
sbsg147
g149
sg150
(dp395
g170
((lp396
(F0.090000000003783498
I10
tp397
aF40.010000000002037
tp398
sg209
((lp399
F40.180000000000291
tp400
sg254
((lp401
F40.200000000004366
tp402
sg305
((lp403
F40.179999999993015
tp404
sg352
((lp405
F40.05000000000291
tp406
ssba(imeasure_core
ProblemSetSolution
p407
(dp408
g3
(imeasure_core
RoomSet
p409
(dp410
g6
(dp411
(iproblems
RoomID
p412
(dp413
g10
I11
sg11
(I4
I2
tp414
sg13
I5
sg14
I12
sg15
I13
sg16
I6832892905590973747
sb(imulti_robot_problem
MultiRobotState
p415
(dp416
g19
g20
((lp417
(I5
I9
tp418
a(I6
I9
tp419
a(I8
I2
tp420
a(I3
I0
tp421
a(I3
I4
tp422
a(I12
I11
tp423
ag414
a(I4
I1
tp424
a(I4
I0
tp425
atp426
Rp427
sg15
I13
sg27
g20
((lp428
(I2
I7
tp429
a(I9
I0
tp430
a(I6
I8
tp431
a(I4
I5
tp432
a(I2
I8
tp433
a(I8
I10
tp434
a(I2
I10
tp435
a(I1
I7
tp436
a(I3
I7
tp437
a(I2
I5
tp438
a(I0
I8
tp439
atp440
Rp441
sg13
((I11
I6
tp442
(I1
I2
tp443
(I1
I0
tp444
(I0
I3
tp445
(I0
I2
tp446
tp447
sg14
I12
sbs(iproblems
RoomID
p448
(dp449
g10
I12
sg11
(I6
I7
tp450
sg13
I7
sg14
I10
sg15
I12
sg16
I6924344268699531175
sb(imulti_robot_problem
MultiRobotState
p451
(dp452
g19
g20
((lp453
(I4
I7
tp454
ag450
a(I2
I9
tp455
a(I4
I8
tp456
a(I9
I6
tp457
a(I5
I7
tp458
a(I0
I6
tp459
a(I3
I9
tp460
a(I0
I9
tp461
a(I4
I9
tp462
a(I4
I1
tp463
atp464
Rp465
sg15
I12
sg27
g20
((lp466
(I7
I3
tp467
a(I5
I4
tp468
a(I1
I3
tp469
a(I9
I1
tp470
a(I8
I3
tp471
a(I0
I7
tp472
a(I8
I8
tp473
a(I0
I0
tp474
a(I0
I4
tp475
a(I0
I8
tp476
a(I11
I6
tp477
a(I9
I7
tp478
atp479
Rp480
sg13
((I6
I0
tp481
(I10
I4
tp482
(I1
I1
tp483
(I8
I2
tp484
(I11
I5
tp485
(I5
I6
tp486
(I10
I9
tp487
tp488
sg14
I10
sbs(iproblems
RoomID
p489
(dp490
g10
I11
sg11
(I5
I1
tp491
sg13
I7
sg14
I11
sg15
I10
sg16
I807570059310326234
sb(imulti_robot_problem
MultiRobotState
p492
(dp493
g19
g20
((lp494
(I7
I3
tp495
a(I4
I6
tp496
a(I7
I4
tp497
a(I6
I2
tp498
a(I1
I9
tp499
a(I9
I4
tp500
ag491
a(I0
I3
tp501
a(I5
I2
tp502
a(I8
I4
tp503
atp504
Rp505
sg15
I10
sg27
g20
((lp506
(I5
I9
tp507
a(I6
I9
tp508
a(I2
I9
tp509
a(I4
I8
tp510
a(I9
I2
tp511
a(I2
I0
tp512
a(I1
I6
tp513
a(I9
I5
tp514
a(I4
I2
tp515
a(I1
I0
tp516
a(I3
I5
tp517
atp518
Rp519
sg13
((I1
I3
tp520
(I0
I2
tp521
(I4
I10
tp522
(I4
I5
tp523
(I8
I10
tp524
(I8
I3
tp525
(I2
I6
tp526
tp527
sg14
I11
sbs(iproblems
RoomID
p528
(dp529
g10
I15
sg11
(I4
I8
tp530
sg13
I6
sg14
I12
sg15
I11
sg16
I7391799147228763464
sb(imulti_robot_problem
MultiRobotState
p531
(dp532
g19
g20
((lp533
(I6
I4
tp534
a(I4
I7
tp535
ag530
a(I5
I6
tp536
a(I2
I8
tp537
a(I5
I7
tp538
a(I6
I9
tp539
a(I4
I2
tp540
a(I9
I2
tp541
a(I1
I6
tp542
a(I10
I7
tp543
a(I8
I6
tp544
a(I2
I4
tp545
atp546
Rp547
sg15
I11
sg27
g20
((lp548
(I7
I0
tp549
a(I10
I4
tp550
a(I6
I11
tp551
a(I7
I6
tp552
a(I1
I4
tp553
a(I8
I9
tp554
a(I1
I8
tp555
a(I3
I9
tp556
a(I0
I10
tp557
a(I9
I4
tp558
a(I7
I10
tp559
a(I1
I10
tp560
a(I4
I3
tp561
a(I0
I3
tp562
a(I0
I2
tp563
atp564
Rp565
sg13
((I4
I6
tp566
(I3
I11
tp567
(I7
I1
tp568
(I2
I5
tp569
(I5
I9
tp570
(I2
I11
tp571
tp572
sg14
I12
sbs(iproblems
RoomID
p573
(dp574
g10
I13
sg11
(I7
I4
tp575
sg13
I6
sg14
I13
sg15
I13
sg16
I3562373307524659409
sb(imulti_robot_problem
MultiRobotState
p576
(dp577
g19
g20
((lp578
(I7
I3
tp579
a(I5
I4
tp580
a(I4
I9
tp581
a(I9
I1
tp582
a(I5
I9
tp583
a(I8
I1
tp584
a(I11
I2
tp585
a(I9
I3
tp586
a(I3
I11
tp587
a(I11
I7
tp588
ag575
a(I10
I1
tp589
a(I3
I10
tp590
a(I10
I5
tp591
a(I8
I2
tp592
atp593
Rp594
sg15
I13
sg27
g20
((lp595
(I8
I3
tp596
a(I3
I12
tp597
a(I4
I8
tp598
a(I6
I10
tp599
a(I9
I9
tp600
a(I12
I6
tp601
a(I8
I9
tp602
a(I1
I8
tp603
a(I4
I3
tp604
a(I2
I2
tp605
a(I4
I2
tp606
a(I11
I12
tp607
a(I2
I4
tp608
atp609
Rp610
sg13
((I12
I11
tp611
(I7
I6
tp612
(I7
I1
tp613
(I10
I11
tp614
(I2
I11
tp615
(I9
I8
tp616
tp617
sg14
I13
sbssg147
S'heavy_roomset'
p618
sbsg147
g149
sg150
(dp619
g412
((lp620
F40.540000000000873
tp621
sg448
((lp622
F42.5
tp623
sg489
((lp624
F40.430000000000291
tp625
sg528
((lp626
F40.529999999998836
tp627
sg573
((lp628
F40.5
tp629
ssba(imeasure_core
ProblemSetSolution
p630
(dp631
g3
g4
sg147
S'AnytimeBest-d80_with_PowerHeuristic2'
p632
sg150
(dp633
g8
((lp634
(F0.5
I44
tp635
a(F1.9100000000034925
I43
tp636
a(F2.0599999999976717
I42
tp637
a(F2.3000000000029104
I38
tp638
a(F4.3899999999994179
I37
tp639
a(F4.6699999999982538
I35
tp640
a(F4.9499999999970896
I33
tp641
a(F5.2099999999991269
I31
tp642
a(F7.2200000000011642
I29
tp643
a(F9.6900000000023283
I27
tp644
a(F12.900000000001455
I25
tp645
a(F16.779999999998836
I22
tp646
a(F17.730000000003201
I20
tp647
aF18.44999999999709
tp648
sg39
((lp649
(F1.8800000000046566
I7
tp650
aF40.090000000003783
tp651
sg66
((lp652
(F0.44000000000232831
I10
tp653
aF40.010000000002037
tp654
sg96
((lp655
(F0.040000000000873115
I7
tp656
aF40.0
tp657
sg122
((lp658
F40.269999999996799
tp659
ssba(imeasure_core
ProblemSetSolution
p660
(dp661
g3
g167
sg147
g632
sg150
(dp662
g170
((lp663
(F0.099999999998544808
I10
tp664
aF40.010000000002037
tp665
sg209
((lp666
F40.19999999999709
tp667
sg254
((lp668
(F4.2400000000052387
I75
tp669
aF40.029999999998836
tp670
sg305
((lp671
(F0.58000000000174623
I36
tp672
aF40.010000000002037
tp673
sg352
((lp674
F40.010000000002037
tp675
ssba(imeasure_core
ProblemSetSolution
p676
(dp677
g3
g409
sg147
g632
sg150
(dp678
g412
((lp679
(F7.5499999999956344
I24
tp680
aF40.089999999996508
tp681
sg448
((lp682
F42.940000000002328
tp683
sg489
((lp684
F40.650000000001455
tp685
sg528
((lp686
F40.319999999999709
tp687
sg573
((lp688
(F23.629999999997381
I15
tp689
aF40.229999999995925
tp690
ssba(imeasure_core
ProblemSetSolution
p691
(dp692
g3
g4
sg147
S'AnytimeBest-d150_with_PowerHeuristic2'
p693
sg150
(dp694
g8
((lp695
(F0.48999999999796273
I44
tp696
a(F1.9199999999982538
I43
tp697
a(F2.069999999999709
I42
tp698
a(F2.3099999999976717
I38
tp699
a(F4.4099999999962165
I37
tp700
a(F4.6900000000023283
I35
tp701
a(F4.9700000000011642
I33
tp702
a(F5.2399999999979627
I31
tp703
a(F7.2699999999967986
I29
tp704
a(F9.7399999999979627
I27
tp705
a(F12.940000000002328
I25
tp706
a(F16.809999999997672
I22
tp707
a(F17.75
I20
tp708
aF18.479999999995925
tp709
sg39
((lp710
(F1.8899999999994179
I7
tp711
aF40.05000000000291
tp712
sg66
((lp713
(F0.44000000000232831
I10
tp714
aF40.010000000002037
tp715
sg96
((lp716
(F0.040000000000873115
I7
tp717
aF40.019999999996799
tp718
sg122
((lp719
F40.309999999997672
tp720
ssba(imeasure_core
ProblemSetSolution
p721
(dp722
g3
g167
sg147
g693
sg150
(dp723
g170
((lp724
(F0.08999999999650754
I10
tp725
aF40.010000000002037
tp726
sg209
((lp727
F40.19999999999709
tp728
sg254
((lp729
(F4.25
I75
tp730
aF40.150000000001455
tp731
sg305
((lp732
(F0.58000000000174623
I36
tp733
aF40.010000000002037
tp734
sg352
((lp735
(F9.3099999999976717
I108
tp736
aF40.019999999996799
tp737
ssba(imeasure_core
ProblemSetSolution
p738
(dp739
g3
g409
sg147
g693
sg150
(dp740
g412
((lp741
(F7.5099999999947613
I24
tp742
aF40.089999999996508
tp743
sg448
((lp744
F42.599999999998545
tp745
sg489
((lp746
F41.210000000006403
tp747
sg528
((lp748
F41.459999999999127
tp749
sg573
((lp750
(F23.540000000000873
I15
tp751
aF40.229999999995925
tp752
ssba(imeasure_core
ProblemSetSolution
p753
(dp754
g3
g4
sg147
S'AnytimeBest-d250_with_PowerHeuristic2'
p755
sg150
(dp756
g8
((lp757
(F0.48999999999796273
I44
tp758
a(F1.9099999999962165
I43
tp759
a(F2.0500000000029104
I42
tp760
a(F2.2900000000008731
I38
tp761
a(F4.3799999999973807
I37
tp762
a(F4.6599999999962165
I35
tp763
a(F4.9400000000023283
I33
tp764
a(F5.1900000000023283
I31
tp765
a(F7.1999999999970896
I29
tp766
a(F9.6699999999982538
I27
tp767
a(F12.870000000002619
I25
tp768
a(F16.69999999999709
I22
tp769
a(F17.650000000001455
I20
tp770
aF18.370000000002619
tp771
sg39
((lp772
(F1.8899999999994179
I7
tp773
aF40.049999999995634
tp774
sg66
((lp775
(F0.43000000000029104
I10
tp776
aF40.020000000004075
tp777
sg96
((lp778
(F0.029999999998835847
I7
tp779
aF40.0
tp780
sg122
((lp781
F40.44999999999709
tp782
ssba(imeasure_core
ProblemSetSolution
p783
(dp784
g3
g167
sg147
g755
sg150
(dp785
g170
((lp786
(F0.08999999999650754
I10
tp787
aF40.009999999994761
tp788
sg209
((lp789
F40.210000000006403
tp790
sg254
((lp791
(F4.1999999999970896
I75
tp792
aF40.029999999998836
tp793
sg305
((lp794
(F0.58999999999650754
I36
tp795
aF40.009999999994761
tp796
sg352
((lp797
(F9.3000000000029104
I108
tp798
aF40.080000000001746
tp799
ssba(imeasure_core
ProblemSetSolution
p800
(dp801
g3
g409
sg147
g755
sg150
(dp802
g412
((lp803
(F7.5999999999985448
I24
tp804
aF40.089999999996508
tp805
sg448
((lp806
F42.319999999999709
tp807
sg489
((lp808
F41.760000000002037
tp809
sg528
((lp810
F40.400000000001455
tp811
sg573
((lp812
(F23.5
I15
tp813
aF40.230000000003201
tp814
ssba(imeasure_core
ProblemSetSolution
p815
(dp816
g3
g4
sg147
S'AnytimeBest-d400_with_PowerHeuristic2'
p817
sg150
(dp818
g8
((lp819
(F0.49000000000523869
I44
tp820
a(F1.930000000000291
I43
tp821
a(F2.069999999999709
I42
tp822
a(F2.319999999999709
I38
tp823
a(F4.430000000000291
I37
tp824
a(F4.7099999999991269
I35
tp825
a(F4.9900000000052387
I33
tp826
a(F5.2600000000020373
I31
tp827
a(F7.2900000000008731
I29
tp828
a(F9.7799999999988358
I27
tp829
a(F13.020000000004075
I25
tp830
a(F16.880000000004657
I22
tp831
a(F17.819999999999709
I20
tp832
aF18.540000000000873
tp833
sg39
((lp834
(F1.8700000000026193
I7
tp835
aF40.200000000004366
tp836
sg66
((lp837
(F0.43999999999505235
I10
tp838
aF40.019999999996799
tp839
sg96
((lp840
(F0.029999999998835847
I7
tp841
aF40.010000000002037
tp842
sg122
((lp843
F40.409999999996217
tp844
ssba(imeasure_core
ProblemSetSolution
p845
(dp846
g3
g167
sg147
g817
sg150
(dp847
g170
((lp848
(F0.08999999999650754
I10
tp849
aF40.029999999998836
tp850
sg209
((lp851
F40.19999999999709
tp852
sg254
((lp853
(F4.2400000000052387
I75
tp854
aF40.17000000000553
tp855
sg305
((lp856
(F0.58999999999650754
I36
tp857
aF40.040000000000873
tp858
sg352
((lp859
(F9.3299999999944703
I108
tp860
aF40.069999999999709
tp861
ssba(imeasure_core
ProblemSetSolution
p862
(dp863
g3
g409
sg147
g817
sg150
(dp864
g412
((lp865
(F7.5900000000037835
I24
tp866
aF40.090000000003783
tp867
sg448
((lp868
F42.260000000002037
tp869
sg489
((lp870
F40.859999999993306
tp871
sg528
((lp872
F41.700000000004366
tp873
sg573
((lp874
(F23.599999999998545
I15
tp875
aF40.229999999995925
tp876
ssba(imeasure_core
ProblemSetSolution
p877
(dp878
g3
g4
sg147
S'AnytimeBest-d10_with_LinearHeuristic'
p879
sg150
(dp880
g8
((lp881
F0.62000000000261934
tp882
sg39
((lp883
(F2.0599999999976717
I7
tp884
aF40.269999999996799
tp885
sg66
((lp886
F40.110000000000582
tp887
sg96
((lp888
F40.020000000004075
tp889
sg122
((lp890
F40.19999999999709
tp891
ssba(imeasure_core
ProblemSetSolution
p892
(dp893
g3
g167
sg147
g879
sg150
(dp894
g170
((lp895
F40.019999999996799
tp896
sg209
((lp897
F40.139999999999418
tp898
sg254
((lp899
F40.080000000001746
tp900
sg305
((lp901
F40.029999999998836
tp902
sg352
((lp903
F40.099999999998545
tp904
ssba(imeasure_core
ProblemSetSolution
p905
(dp906
g3
g409
sg147
g879
sg150
(dp907
g412
((lp908
F40.270000000004075
tp909
sg448
((lp910
F40.900000000001455
tp911
sg489
((lp912
F43.269999999996799
tp913
sg528
((lp914
F40.80000000000291
tp915
sg573
((lp916
F40.819999999999709
tp917
ssba(imeasure_core
ProblemSetSolution
p918
(dp919
g3
g4
sg147
S'AnytimeBest-d80_with_LinearHeuristic'
p920
sg150
(dp921
g8
((lp922
(F0.0099999999947613105
I20
tp923
aF10.149999999994179
tp924
sg39
((lp925
(F2.0400000000008731
I7
tp926
aF40.340000000003783
tp927
sg66
((lp928
F40.339999999996508
tp929
sg96
((lp930
(F1.3700000000026193
I47
tp931
a(F1.5500000000029104
I46
tp932
a(F3.5800000000017462
I45
tp933
a(F4.9900000000052387
I44
tp934
a(F7.0200000000040745
I43
tp935
a(F7.7300000000032014
I42
tp936
a(F9.0500000000029104
I41
tp937
a(F12.660000000003492
I39
tp938
a(F13.410000000003492
I37
tp939
a(F16.120000000002619
I36
tp940
a(F17.040000000000873
I35
tp941
a(F22.150000000001455
I34
tp942
a(F26.770000000004075
I33
tp943
a(F29.180000000000291
I32
tp944
a(F32.290000000000873
I31
tp945
a(F33.430000000000291
I30
tp946
a(F35.940000000002328
I29
tp947
aF40.060000000004948
tp948
sg122
((lp949
F40.119999999995343
tp950
ssba(imeasure_core
ProblemSetSolution
p951
(dp952
g3
g167
sg147
g920
sg150
(dp953
g170
((lp954
(F0.19000000000232831
I12
tp955
aF40.030000000006112
tp956
sg209
((lp957
F40.069999999999709
tp958
sg254
((lp959
(F1.2399999999979627
I31
tp960
a(F2.1100000000005821
I30
tp961
a(F2.9099999999962165
I29
tp962
a(F4.3299999999944703
I28
tp963
a(F5.7699999999967986
I27
tp964
a(F6.8499999999985448
I26
tp965
aF40.069999999999709
tp966
sg305
((lp967
(F0.56999999999970896
I38
tp968
aF40.019999999996799
tp969
sg352
((lp970
F40.099999999998545
tp971
ssba(imeasure_core
ProblemSetSolution
p972
(dp973
g3
g409
sg147
g920
sg150
(dp974
g412
((lp975
F40.370000000002619
tp976
sg448
((lp977
F40.919999999998254
tp978
sg489
((lp979
F43.450000000004366
tp980
sg528
((lp981
F41.089999999996508
tp982
sg573
((lp983
F40.970000000001164
tp984
ssba(imeasure_core
ProblemSetSolution
p985
(dp986
g3
g4
sg147
S'AnytimeBest-d150_with_LinearHeuristic'
p987
sg150
(dp988
g8
((lp989
(F0.0
I20
tp990
aF10.110000000000582
tp991
sg39
((lp992
(F2.0599999999976717
I7
tp993
aF40.159999999996217
tp994
sg66
((lp995
F40.19999999999709
tp996
sg96
((lp997
(F1.3600000000005821
I47
tp998
a(F1.5400000000008731
I46
tp999
a(F3.5600000000049477
I45
tp1000
a(F4.9700000000011642
I44
tp1001
a(F6.9900000000052387
I43
tp1002
a(F7.7000000000043656
I42
tp1003
a(F9.0100000000020373
I41
tp1004
a(F12.590000000003783
I39
tp1005
a(F13.330000000001746
I37
tp1006
a(F16.030000000006112
I36
tp1007
a(F16.960000000006403
I35
tp1008
a(F22.030000000006112
I34
tp1009
a(F26.67000000000553
I33
tp1010
a(F29.110000000000582
I32
tp1011
a(F32.210000000006403
I31
tp1012
a(F33.350000000005821
I30
tp1013
a(F35.860000000000582
I29
tp1014
aF40.060000000004948
tp1015
sg122
((lp1016
F40.319999999999709
tp1017
ssba(imeasure_core
ProblemSetSolution
p1018
(dp1019
g3
g167
sg147
g987
sg150
(dp1020
g170
((lp1021
(F0.16999999999825377
I12
tp1022
aF40.029999999998836
tp1023
sg209
((lp1024
F40.059999999997672
tp1025
sg254
((lp1026
(F1.2600000000020373
I31
tp1027
a(F2.1100000000005821
I30
tp1028
a(F2.930000000000291
I29
tp1029
a(F4.3399999999965075
I28
tp1030
a(F5.8000000000029104
I27
tp1031
a(F6.8499999999985448
I26
tp1032
aF40.05000000000291
tp1033
sg305
((lp1034
(F0.56999999999970896
I38
tp1035
aF40.039999999993597
tp1036
sg352
((lp1037
F40.150000000001455
tp1038
ssba(imeasure_core
ProblemSetSolution
p1039
(dp1040
g3
g409
sg147
g987
sg150
(dp1041
g412
((lp1042
F40.340000000003783
tp1043
sg448
((lp1044
F41.180000000000291
tp1045
sg489
((lp1046
F43.69999999999709
tp1047
sg528
((lp1048
F41.279999999998836
tp1049
sg573
((lp1050
F40.720000000001164
tp1051
ssba(imeasure_core
ProblemSetSolution
p1052
(dp1053
g3
g4
sg147
S'AnytimeBest-d250_with_LinearHeuristic'
p1054
sg150
(dp1055
g8
((lp1056
(F0.010000000002037268
I20
tp1057
aF10.239999999997963
tp1058
sg39
((lp1059
(F2.069999999999709
I7
tp1060
aF40.280000000006112
tp1061
sg66
((lp1062
F40.609999999993306
tp1063
sg96
((lp1064
(F1.3700000000026193
I47
tp1065
a(F1.5500000000029104
I46
tp1066
a(F3.5700000000069849
I45
tp1067
a(F4.9800000000032014
I44
tp1068
a(F6.9900000000052387
I43
tp1069
a(F7.7200000000011642
I42
tp1070
a(F9.0400000000008731
I41
tp1071
a(F12.610000000000582
I39
tp1072
a(F13.350000000005821
I37
tp1073
a(F15.990000000005239
I36
tp1074
a(F16.940000000002328
I35
tp1075
a(F22.020000000004075
I34
tp1076
a(F26.620000000002619
I33
tp1077
a(F29.030000000006112
I32
tp1078
a(F32.110000000000582
I31
tp1079
a(F33.160000000003492
I30
tp1080
a(F35.740000000005239
I29
tp1081
aF40.060000000004948
tp1082
sg122
((lp1083
F40.139999999999418
tp1084
ssba(imeasure_core
ProblemSetSolution
p1085
(dp1086
g3
g167
sg147
g1054
sg150
(dp1087
g170
((lp1088
(F0.18000000000029104
I12
tp1089
aF40.039999999993597
tp1090
sg209
((lp1091
F40.120000000002619
tp1092
sg254
((lp1093
(F1.25
I31
tp1094
a(F2.0999999999985448
I30
tp1095
a(F2.9100000000034925
I29
tp1096
a(F4.3499999999985448
I28
tp1097
a(F5.7799999999988358
I27
tp1098
a(F6.8300000000017462
I26
tp1099
aF40.090000000003783
tp1100
sg305
((lp1101
(F0.56999999999970896
I38
tp1102
aF40.039999999993597
tp1103
sg352
((lp1104
F40.040000000000873
tp1105
ssba(imeasure_core
ProblemSetSolution
p1106
(dp1107
g3
g409
sg147
g1054
sg150
(dp1108
g412
((lp1109
F40.819999999999709
tp1110
sg448
((lp1111
F41.260000000002037
tp1112
sg489
((lp1113
F43.680000000000291
tp1114
sg528
((lp1115
F41.279999999998836
tp1116
sg573
((lp1117
F40.790000000000873
tp1118
ssba(imeasure_core
ProblemSetSolution
p1119
(dp1120
g3
g4
sg147
S'AnytimeBest-d400_with_LinearHeuristic'
p1121
sg150
(dp1122
g8
((lp1123
(F0.019999999996798579
I20
tp1124
aF10.129999999997381
tp1125
sg39
((lp1126
(F2.0800000000017462
I7
tp1127
aF40.180000000000291
tp1128
sg66
((lp1129
F40.559999999997672
tp1130
sg96
((lp1131
(F1.3700000000026193
I47
tp1132
a(F1.5300000000061118
I46
tp1133
a(F3.5600000000049477
I45
tp1134
a(F4.9600000000064028
I44
tp1135
a(F6.9600000000064028
I43
tp1136
a(F7.6700000000055297
I42
tp1137
a(F9.0100000000020373
I41
tp1138
a(F12.580000000001746
I39
tp1139
a(F13.330000000001746
I37
tp1140
a(F15.960000000006403
I36
tp1141
a(F16.880000000004657
I35
tp1142
a(F22.010000000002037
I34
tp1143
a(F26.630000000004657
I33
tp1144
a(F29.040000000000873
I32
tp1145
a(F32.130000000004657
I31
tp1146
a(F33.180000000000291
I30
tp1147
a(F35.760000000002037
I29
tp1148
aF40.060000000004948
tp1149
sg122
((lp1150
F40.19999999999709
tp1151
ssba(imeasure_core
ProblemSetSolution
p1152
(dp1153
g3
g167
sg147
g1121
sg150
(dp1154
g170
((lp1155
(F0.19000000000232831
I12
tp1156
aF40.029999999998836
tp1157
sg209
((lp1158
F40.150000000001455
tp1159
sg254
((lp1160
(F1.25
I31
tp1161
a(F2.0999999999985448
I30
tp1162
a(F2.9000000000014552
I29
tp1163
a(F4.3499999999985448
I28
tp1164
a(F5.7799999999988358
I27
tp1165
a(F6.8300000000017462
I26
tp1166
aF40.110000000000582
tp1167
sg305
((lp1168
(F0.56999999999970896
I38
tp1169
aF40.020000000004075
tp1170
sg352
((lp1171
F40.109999999993306
tp1172
ssba(imeasure_core
ProblemSetSolution
p1173
(dp1174
g3
g409
sg147
g1121
sg150
(dp1175
g412
((lp1176
F40.200000000004366
tp1177
sg448
((lp1178
F40.669999999998254
tp1179
sg489
((lp1180
F43.049999999995634
tp1181
sg528
((lp1182
F40.940000000002328
tp1183
sg573
((lp1184
F40.660000000003492
tp1185
ssba.