(lp0
(imeasure_core
ProblemSetSolution
p1
(dp2
S'roomset'
p3
(imeasure_core
RoomSet
p4
(dp5
S'rooms'
p6
(dp7
(iproblems
RoomID
p8
(dp9
S'dusts'
p10
I6
sS'obstacles'
p11
(I5
I1
tp12
sS'robots'
p13
I4
sS'height'
p14
I9
sS'width'
p15
I10
sS'seed'
p16
I2405875930906139466
sb(imulti_robot_problem
MultiRobotState
p17
(dp18
S'obstacle_locations'
p19
c__builtin__
frozenset
p20
((lp21
(I7
I0
tp22
a(I7
I1
tp23
ag12
a(I6
I1
tp24
a(I6
I0
tp25
a(I7
I2
tp26
atp27
Rp28
sg15
I10
sS'dirt_locations'
p29
g20
((lp30
(I7
I3
tp31
a(I2
I1
tp32
a(I6
I4
tp33
a(I5
I6
tp34
a(I5
I2
tp35
a(I0
I7
tp36
atp37
Rp38
sg13
((I7
I6
tp39
(I3
I3
tp40
(I8
I6
tp41
(I0
I2
tp42
tp43
sg14
I9
sbs(iproblems
RoomID
p44
(dp45
g10
I6
sg11
(I6
I7
tp46
sg13
I4
sg14
I10
sg15
I7
sg16
I8744744311366254845
sb(imulti_robot_problem
MultiRobotState
p47
(dp48
g19
g20
((lp49
(I0
I6
tp50
ag46
a(I4
I6
tp51
a(I3
I7
tp52
a(I5
I7
tp53
a(I1
I9
tp54
atp55
Rp56
sg15
I7
sg29
g20
((lp57
(I2
I7
tp58
a(I0
I1
tp59
a(I5
I4
tp60
a(I6
I0
tp61
a(I5
I8
tp62
a(I5
I3
tp63
atp64
Rp65
sg13
((I0
I8
tp66
(I4
I2
tp67
(I3
I0
tp68
(I1
I4
tp69
tp70
sg14
I10
sbs(iproblems
RoomID
p71
(dp72
g10
I8
sg11
(I5
I3
tp73
sg13
I3
sg14
I7
sg15
I7
sg16
I7325839828077136048
sb(imulti_robot_problem
MultiRobotState
p74
(dp75
g19
g20
((lp76
(I6
I4
tp77
a(I5
I4
tp78
a(I5
I5
tp79
a(I6
I6
tp80
a(I3
I1
tp81
a(I6
I0
tp82
a(I2
I0
tp83
a(I0
I4
tp84
ag73
atp85
Rp86
sg15
I7
sg29
g20
((lp87
(I0
I6
tp88
a(I3
I0
tp89
a(I2
I4
tp90
a(I1
I5
tp91
a(I4
I3
tp92
a(I2
I2
tp93
a(I1
I1
tp94
a(I3
I5
tp95
atp96
Rp97
sg13
((I1
I0
tp98
(I3
I3
tp99
(I6
I2
tp100
tp101
sg14
I7
sbs(iproblems
RoomID
p102
(dp103
g10
I10
sg11
(I4
I7
tp104
sg13
I5
sg14
I10
sg15
I8
sg16
I8655808914197340073
sb(imulti_robot_problem
MultiRobotState
p105
(dp106
g19
g20
((lp107
(I2
I7
tp108
ag104
a(I4
I8
tp109
a(I6
I3
tp110
a(I7
I5
tp111
a(I3
I7
tp112
a(I1
I0
tp113
a(I5
I3
tp114
atp115
Rp116
sg15
I8
sg29
g20
((lp117
(I7
I3
tp118
a(I5
I4
tp119
a(I7
I0
tp120
a(I5
I7
tp121
a(I1
I5
tp122
a(I1
I9
tp123
a(I3
I6
tp124
a(I1
I7
tp125
a(I3
I4
tp126
a(I5
I8
tp127
atp128
Rp129
sg13
((I3
I8
tp130
(I7
I9
tp131
(I6
I1
tp132
(I2
I3
tp133
(I5
I5
tp134
tp135
sg14
I10
sbs(iproblems
RoomID
p136
(dp137
g10
I6
sg11
(I4
I6
tp138
sg13
I1
sg14
I8
sg15
I7
sg16
I3537054308274871603
sb(imulti_robot_problem
MultiRobotState
p139
(dp140
g19
g20
((lp141
(I4
I7
tp142
ag138
a(I4
I5
tp143
a(I2
I5
tp144
a(I3
I5
tp145
a(I6
I0
tp146
a(I2
I4
tp147
atp148
Rp149
sg15
I7
sg29
g20
((lp150
(I0
I6
tp151
a(I6
I2
tp152
a(I5
I6
tp153
a(I4
I1
tp154
a(I1
I1
tp155
a(I5
I3
tp156
atp157
Rp158
sg13
((I0
I3
tp159
tp160
sg14
I8
sbssS'name'
p161
S'easy_roomset'
p162
sbsg161
S'LimitedTimeAStar_with_PowerHeuristic2'
p163
sS'solutions'
p164
(dp165
g8
((lp166
F0.42000000000007276
tp167
sg44
((lp168
F0.65999999999985448
tp169
sg71
((lp170
F0.6999999999998181
tp171
sg102
((lp172
F7.6900000000005093
tp173
sg136
((lp174
F0.069999999999708962
tp175
ssba(imeasure_core
ProblemSetSolution
p176
(dp177
g3
(imeasure_core
RoomSet
p178
(dp179
g6
(dp180
(iproblems
RoomID
p181
(dp182
g10
I6
sg11
(I1
I8
tp183
sg13
I4
sg14
I11
sg15
I12
sg16
I2405875930906139466
sb(imulti_robot_problem
MultiRobotState
p184
(dp185
g19
g20
((lp186
(I6
I4
tp187
a(I4
I6
tp188
a(I8
I2
tp189
a(I6
I6
tp190
a(I2
I8
tp191
a(I8
I0
tp192
a(I5
I5
tp193
a(I9
I10
tp194
a(I6
I2
tp195
a(I2
I3
tp196
a(I3
I7
tp197
a(I6
I5
tp198
a(I5
I3
tp199
a(I7
I0
tp200
a(I3
I3
tp201
a(I2
I9
tp202
a(I11
I5
tp203
a(I8
I1
tp204
a(I6
I1
tp205
a(I3
I1
tp206
a(I6
I3
tp207
a(I2
I0
tp208
ag183
a(I7
I5
tp209
a(I3
I6
tp210
a(I4
I3
tp211
a(I3
I4
tp212
atp213
Rp214
sg15
I12
sg29
g20
((lp215
(I9
I4
tp216
a(I7
I1
tp217
a(I0
I9
tp218
a(I9
I3
tp219
a(I7
I7
tp220
a(I2
I1
tp221
atp222
Rp223
sg13
((I9
I7
tp224
(I4
I4
tp225
(I10
I8
tp226
(I0
I2
tp227
tp228
sg14
I11
sbs(iproblems
RoomID
p229
(dp230
g10
I10
sg11
(I0
I5
tp231
sg13
I4
sg14
I12
sg15
I10
sg16
I8655808914197340073
sb(imulti_robot_problem
MultiRobotState
p232
(dp233
g19
g20
((lp234
(I5
I9
tp235
a(I5
I4
tp236
a(I5
I7
tp237
a(I6
I6
tp238
a(I4
I8
tp239
a(I8
I0
tp240
a(I0
I7
tp241
a(I7
I5
tp242
a(I2
I3
tp243
a(I1
I4
tp244
a(I6
I8
tp245
a(I1
I11
tp246
a(I9
I6
tp247
a(I5
I8
tp248
a(I4
I6
tp249
a(I3
I8
tp250
a(I6
I7
tp251
a(I5
I5
tp252
a(I3
I4
tp253
a(I4
I4
tp254
a(I6
I3
tp255
a(I2
I0
tp256
a(I6
I5
tp257
ag231
a(I7
I8
tp258
atp259
Rp260
sg15
I10
sg29
g20
((lp261
(I6
I9
tp262
a(I2
I9
tp263
a(I2
I11
tp264
a(I9
I0
tp265
a(I7
I7
tp266
a(I8
I3
tp267
a(I1
I7
tp268
a(I8
I6
tp269
a(I8
I4
tp270
a(I3
I5
tp271
atp272
Rp273
sg13
((I4
I9
tp274
(I8
I11
tp275
(I7
I1
tp276
(I3
I3
tp277
tp278
sg14
I12
sbs(iproblems
RoomID
p279
(dp280
g10
I10
sg11
(I11
I0
tp281
sg13
I4
sg14
I9
sg15
I12
sg16
I2796939073032698495
sb(imulti_robot_problem
MultiRobotState
p282
(dp283
g19
g20
((lp284
(I7
I3
tp285
a(I5
I7
tp286
a(I9
I1
tp287
a(I6
I6
tp288
a(I8
I0
tp289
a(I7
I7
tp290
a(I5
I8
tp291
a(I3
I3
tp292
a(I8
I1
tp293
a(I4
I8
tp294
a(I6
I3
tp295
a(I7
I2
tp296
a(I3
I6
tp297
a(I6
I4
tp298
a(I5
I4
tp299
a(I2
I6
tp300
a(I7
I1
tp301
a(I4
I5
tp302
ag281
a(I2
I3
tp303
a(I10
I1
tp304
a(I1
I0
tp305
a(I6
I5
tp306
a(I5
I3
tp307
a(I8
I3
tp308
a(I7
I0
tp309
a(I6
I8
tp310
a(I9
I2
tp311
a(I6
I1
tp312
a(I3
I1
tp313
a(I8
I8
tp314
a(I4
I3
tp315
a(I5
I2
tp316
a(I10
I2
tp317
atp318
Rp319
sg15
I12
sg29
g20
((lp320
(I1
I2
tp321
a(I11
I7
tp322
a(I3
I2
tp323
a(I2
I8
tp324
a(I9
I3
tp325
a(I1
I6
tp326
a(I5
I0
tp327
a(I0
I3
tp328
a(I0
I8
tp329
a(I4
I1
tp330
atp331
Rp332
sg13
((I10
I8
tp333
(I4
I6
tp334
(I11
I4
tp335
(I7
I8
tp336
tp337
sg14
I9
sbs(iproblems
RoomID
p338
(dp339
g10
I10
sg11
(I3
I6
tp340
sg13
I4
sg14
I12
sg15
I11
sg16
I4278205817407065157
sb(imulti_robot_problem
MultiRobotState
p341
(dp342
g19
g20
((lp343
(I0
I1
tp344
a(I4
I7
tp345
a(I5
I6
tp346
a(I2
I8
tp347
a(I0
I10
tp348
a(I3
I7
tp349
a(I7
I11
tp350
a(I3
I3
tp351
a(I2
I7
tp352
a(I5
I3
tp353
a(I6
I7
tp354
a(I4
I6
tp355
a(I10
I7
tp356
a(I4
I4
tp357
a(I3
I8
tp358
a(I4
I5
tp359
ag340
a(I1
I10
tp360
a(I3
I5
tp361
a(I1
I9
tp362
atp363
Rp364
sg15
I11
sg29
g20
((lp365
(I1
I2
tp366
a(I8
I1
tp367
a(I9
I2
tp368
a(I6
I1
tp369
a(I5
I7
tp370
a(I8
I9
tp371
a(I3
I0
tp372
a(I9
I4
tp373
a(I0
I2
tp374
a(I4
I0
tp375
atp376
Rp377
sg13
((I6
I10
tp378
(I5
I11
tp379
(I2
I0
tp380
(I9
I1
tp381
tp382
sg14
I12
sbs(iproblems
RoomID
p383
(dp384
g10
I6
sg11
(I3
I3
tp385
sg13
I4
sg14
I12
sg15
I12
sg16
I7193062864237573168
sb(imulti_robot_problem
MultiRobotState
p386
(dp387
g19
g20
((lp388
(I6
I4
tp389
a(I5
I4
tp390
a(I1
I3
tp391
a(I6
I6
tp392
a(I7
I1
tp393
a(I9
I3
tp394
a(I0
I7
tp395
a(I1
I6
tp396
a(I2
I5
tp397
a(I0
I8
tp398
a(I10
I3
tp399
a(I8
I3
tp400
a(I3
I1
tp401
ag385
a(I5
I7
tp402
a(I11
I3
tp403
a(I7
I4
tp404
a(I0
I9
tp405
a(I2
I3
tp406
a(I8
I4
tp407
a(I3
I4
tp408
a(I2
I4
tp409
a(I9
I7
tp410
atp411
Rp412
sg15
I12
sg29
g20
((lp413
(I2
I0
tp414
a(I2
I6
tp415
a(I6
I8
tp416
a(I0
I6
tp417
a(I4
I4
tp418
a(I7
I7
tp419
atp420
Rp421
sg13
((I11
I9
tp422
(I11
I2
tp423
(I4
I11
tp424
(I3
I6
tp425
tp426
sg14
I12
sbssg161
S'mild_roomset'
p427
sbsg161
g163
sg164
(dp428
g181
((lp429
F1.5500000000001819
tp430
sg229
((lp431
F71.169999999999163
tp432
sg279
((lp433
F599.86000000000058
tp434
sg338
((lp435
F13.479999999999563
tp436
sg383
((lp437
F590.65000000000055
tp438
ssba(imeasure_core
ProblemSetSolution
p439
(dp440
g3
(imeasure_core
RoomSet
p441
(dp442
g6
(dp443
(iproblems
RoomID
p444
(dp445
g10
I11
sg11
(I10
I1
tp446
sg13
I7
sg14
I12
sg15
I13
sg16
I2405875930906139466
sb(imulti_robot_problem
MultiRobotState
p447
(dp448
g19
g20
((lp449
(I7
I3
tp450
a(I9
I1
tp451
a(I7
I1
tp452
a(I5
I6
tp453
a(I8
I11
tp454
a(I8
I0
tp455
a(I1
I4
tp456
a(I6
I2
tp457
a(I0
I7
tp458
ag446
a(I10
I3
tp459
a(I7
I2
tp460
a(I10
I4
tp461
a(I11
I7
tp462
a(I9
I0
tp463
a(I11
I5
tp464
a(I7
I4
tp465
a(I1
I5
tp466
a(I10
I2
tp467
a(I11
I6
tp468
a(I8
I4
tp469
atp470
Rp471
sg15
I13
sg29
g20
((lp472
(I12
I5
tp473
a(I10
I11
tp474
a(I8
I1
tp475
a(I7
I8
tp476
a(I8
I6
tp477
a(I6
I3
tp478
a(I2
I0
tp479
a(I2
I3
tp480
a(I5
I1
tp481
a(I10
I0
tp482
a(I3
I4
tp483
atp484
Rp485
sg13
((I10
I8
tp486
(I9
I2
tp487
(I4
I5
tp488
(I11
I8
tp489
(I1
I2
tp490
(I3
I1
tp491
(I0
I10
tp492
tp493
sg14
I12
sbs(iproblems
RoomID
p494
(dp495
g10
I11
sg11
(I7
I9
tp496
sg13
I6
sg14
I13
sg15
I10
sg16
I8744744311366254845
sb(imulti_robot_problem
MultiRobotState
p497
(dp498
g19
g20
((lp499
(I6
I9
tp500
a(I1
I3
tp501
a(I4
I9
tp502
a(I5
I6
tp503
a(I9
I8
tp504
a(I1
I8
tp505
a(I1
I0
tp506
ag496
a(I3
I4
tp507
a(I5
I8
tp508
a(I9
I7
tp509
atp510
Rp511
sg15
I10
sg29
g20
((lp512
(I0
I1
tp513
a(I7
I3
tp514
a(I9
I0
tp515
a(I1
I12
tp516
a(I4
I10
tp517
a(I5
I11
tp518
a(I9
I10
tp519
a(I7
I11
tp520
a(I3
I7
tp521
a(I0
I8
tp522
a(I9
I6
tp523
atp524
Rp525
sg13
((I0
I10
tp526
(I6
I3
tp527
(I4
I0
tp528
(I1
I6
tp529
(I7
I5
tp530
(I9
I9
tp531
tp532
sg14
I13
sbs(iproblems
RoomID
p533
(dp534
g10
I15
sg11
(I5
I8
tp535
sg13
I7
sg14
I13
sg15
I11
sg16
I8655808914197340073
sb(imulti_robot_problem
MultiRobotState
p536
(dp537
g19
g20
((lp538
(I5
I9
tp539
a(I6
I7
tp540
a(I6
I11
tp541
a(I1
I4
tp542
a(I0
I12
tp543
a(I0
I11
tp544
a(I7
I5
tp545
a(I1
I6
tp546
a(I0
I4
tp547
a(I5
I10
tp548
a(I3
I9
tp549
a(I4
I9
tp550
a(I10
I3
tp551
ag535
atp552
Rp553
sg15
I11
sg29
g20
((lp554
(I2
I7
tp555
a(I7
I3
tp556
a(I4
I6
tp557
a(I1
I12
tp558
a(I5
I6
tp559
a(I8
I5
tp560
a(I7
I7
tp561
a(I7
I9
tp562
a(I2
I0
tp563
a(I9
I4
tp564
a(I7
I10
tp565
a(I0
I8
tp566
a(I9
I6
tp567
a(I6
I5
tp568
a(I9
I7
tp569
atp570
Rp571
sg13
((I9
I11
tp572
(I8
I1
tp573
(I3
I4
tp574
(I8
I7
tp575
(I9
I1
tp576
(I2
I10
tp577
(I2
I12
tp578
tp579
sg14
I13
sbs(iproblems
RoomID
p580
(dp581
g10
I15
sg11
(I3
I6
tp582
sg13
I7
sg14
I10
sg15
I13
sg16
I2796939073032698495
sb(imulti_robot_problem
MultiRobotState
p583
(dp584
g19
g20
((lp585
(I5
I9
tp586
a(I6
I9
tp587
a(I4
I6
tp588
a(I5
I0
tp589
a(I6
I6
tp590
a(I4
I5
tp591
a(I5
I4
tp592
a(I6
I7
tp593
a(I6
I2
tp594
a(I0
I5
tp595
a(I8
I7
tp596
a(I5
I1
tp597
a(I6
I4
tp598
a(I12
I9
tp599
a(I5
I8
tp600
a(I5
I3
tp601
a(I2
I7
tp602
a(I4
I9
tp603
a(I5
I5
tp604
a(I3
I1
tp605
a(I4
I8
tp606
a(I2
I0
tp607
a(I3
I9
tp608
a(I6
I5
tp609
ag582
a(I5
I7
tp610
a(I7
I8
tp611
atp612
Rp613
sg15
I13
sg29
g20
((lp614
(I1
I2
tp615
a(I8
I2
tp616
a(I2
I9
tp617
a(I12
I0
tp618
a(I4
I1
tp619
a(I12
I8
tp620
a(I6
I0
tp621
a(I9
I9
tp622
a(I2
I3
tp623
a(I9
I4
tp624
a(I1
I7
tp625
a(I0
I9
tp626
a(I7
I9
tp627
a(I3
I4
tp628
a(I3
I3
tp629
atp630
Rp631
sg13
((I10
I2
tp632
(I11
I8
tp633
(I12
I5
tp634
(I8
I9
tp635
(I10
I3
tp636
(I0
I3
tp637
(I11
I2
tp638
tp639
sg14
I10
sbs(iproblems
RoomID
p640
(dp641
g10
I15
sg11
(I4
I8
tp642
sg13
I6
sg14
I13
sg15
I12
sg16
I4278205817407065157
sb(imulti_robot_problem
MultiRobotState
p643
(dp644
g19
g20
((lp645
(I11
I7
tp646
a(I2
I9
tp647
ag642
a(I5
I6
tp648
a(I2
I8
tp649
a(I6
I10
tp650
a(I3
I8
tp651
a(I11
I8
tp652
a(I3
I9
tp653
a(I1
I10
tp654
a(I1
I11
tp655
a(I7
I8
tp656
a(I2
I4
tp657
atp658
Rp659
sg15
I12
sg29
g20
((lp660
(I1
I2
tp661
a(I0
I1
tp662
a(I5
I4
tp663
a(I5
I7
tp664
a(I10
I4
tp665
a(I7
I1
tp666
a(I3
I1
tp667
a(I10
I5
tp668
a(I4
I7
tp669
a(I9
I9
tp670
a(I0
I10
tp671
a(I4
I3
tp672
a(I8
I12
tp673
a(I4
I1
tp674
a(I0
I2
tp675
atp676
Rp677
sg13
((I7
I10
tp678
(I6
I12
tp679
(I2
I0
tp680
(I9
I1
tp681
(I10
I3
tp682
(I4
I0
tp683
tp684
sg14
I13
sbssg161
S'heavy_roomset'
p685
sbsg161
g163
sg164
(dp686
g444
((lp687
F515.46000000000004
tp688
sg494
((lp689
F12.789999999999964
tp690
sg533
((lp691
F130.86000000000058
tp692
sg580
((lp693
F395.73999999999978
tp694
sg640
((lp695
F494.26000000000022
tp696
ssba.