(lp0
(imeasure_core
ProblemSetSolution
p1
(dp2
S'roomset'
p3
(imeasure_core
RoomSet
p4
(dp5
S'rooms'
p6
(dp7
(iproblems
RoomID
p8
(dp9
S'dusts'
p10
I8
sS'obstacles'
p11
(I1
I6
tp12
sS'robots'
p13
I4
sS'height'
p14
I10
sS'width'
p15
I9
sS'seed'
p16
I3433768247134474666
sb(imulti_robot_problem
MultiRobotState
p17
(dp18
S'obstacle_locations'
p19
c__builtin__
frozenset
p20
((lp21
(I4
I9
tp22
a(I4
I6
tp23
a(I0
I7
tp24
ag12
a(I0
I9
tp25
a(I8
I6
tp26
a(I0
I8
tp27
a(I3
I3
tp28
atp29
Rp30
sg15
I9
sS'dirt_locations'
p31
g20
((lp32
(I3
I2
tp33
a(I7
I7
tp34
a(I1
I9
tp35
a(I8
I7
tp36
a(I5
I4
tp37
a(I1
I1
tp38
a(I5
I8
tp39
a(I7
I9
tp40
atp41
Rp42
sg13
((I5
I9
tp43
(I5
I5
tp44
(I6
I9
tp45
(I2
I0
tp46
tp47
sg14
I10
sbs(iproblems
RoomID
p48
(dp49
g10
I7
sg11
(I2
I2
tp50
sg13
I3
sg14
I9
sg15
I9
sg16
I6241004153072892496
sb(imulti_robot_problem
MultiRobotState
p51
(dp52
g19
g20
((lp53
(I7
I3
tp54
a(I3
I2
tp55
a(I7
I1
tp56
a(I5
I1
tp57
ag50
a(I4
I1
tp58
a(I7
I7
tp59
atp60
Rp61
sg15
I9
sg31
g20
((lp62
(I3
I8
tp63
a(I1
I5
tp64
a(I4
I8
tp65
a(I3
I7
tp66
a(I5
I7
tp67
a(I3
I4
tp68
a(I6
I0
tp69
atp70
Rp71
sg13
((I6
I5
tp72
(I4
I3
tp73
(I3
I5
tp74
tp75
sg14
I9
sbs(iproblems
RoomID
p76
(dp77
g10
I10
sg11
(I6
I4
tp78
sg13
I4
sg14
I7
sg15
I10
sg16
I3125140389427113411
sb(imulti_robot_problem
MultiRobotState
p79
(dp80
g19
g20
((lp81
(I6
I3
tp82
a(I5
I1
tp83
a(I5
I2
tp84
ag78
atp85
Rp86
sg15
I10
sg31
g20
((lp87
(I1
I2
tp88
a(I7
I3
tp89
a(I0
I0
tp90
a(I3
I3
tp91
a(I6
I2
tp92
a(I1
I6
tp93
a(I9
I4
tp94
a(I2
I5
tp95
a(I0
I2
tp96
a(I7
I2
tp97
atp98
Rp99
sg13
((I9
I0
tp100
(I6
I5
tp101
(I1
I4
tp102
(I1
I3
tp103
tp104
sg14
I7
sbs(iproblems
RoomID
p105
(dp106
g10
I9
sg11
(I4
I3
tp107
sg13
I3
sg14
I9
sg15
I8
sg16
I6161655336973386967
sb(imulti_robot_problem
MultiRobotState
p108
(dp109
g19
g20
((lp110
(I6
I3
tp111
a(I7
I3
tp112
a(I5
I4
tp113
ag107
a(I6
I6
tp114
a(I5
I2
tp115
a(I2
I1
tp116
atp117
Rp118
sg15
I8
sg31
g20
((lp119
(I6
I4
tp120
a(I6
I8
tp121
a(I2
I0
tp122
a(I5
I7
tp123
a(I1
I4
tp124
a(I1
I5
tp125
a(I0
I5
tp126
a(I2
I5
tp127
a(I4
I1
tp128
atp129
Rp130
sg13
((I3
I5
tp131
(I4
I6
tp132
(I4
I5
tp133
tp134
sg14
I9
sbs(iproblems
RoomID
p135
(dp136
g10
I6
sg11
(I7
I4
tp137
sg13
I4
sg14
I8
sg15
I9
sg16
I8554152435637441414
sb(imulti_robot_problem
MultiRobotState
p138
(dp139
g19
g20
((lp140
(I6
I6
tp141
a(I5
I7
tp142
ag137
a(I2
I0
tp143
a(I7
I5
tp144
a(I3
I7
tp145
a(I0
I3
tp146
a(I4
I1
tp147
atp148
Rp149
sg15
I9
sg31
g20
((lp150
(I7
I3
tp151
a(I1
I6
tp152
a(I5
I1
tp153
a(I8
I6
tp154
a(I0
I2
tp155
a(I4
I0
tp156
atp157
Rp158
sg13
((I5
I3
tp159
(I6
I2
tp160
(I6
I3
tp161
(I6
I4
tp162
tp163
sg14
I8
sbssS'name'
p164
S'easy_roomset'
p165
sbsg164
S"AnytimeBeam-w20-gf(2, 'lin')_with_PowerHeuristic2"
p166
sS'solutions'
p167
(dp168
g8
((lp169
(F0.4099999999962165
I10
tp170
aF40.019999999996799
tp171
sg48
((lp172
(F0.19999999999708962
I8
tp173
aF40.029999999998836
tp174
sg76
((lp175
(F1.1699999999982538
I13
tp176
aF40.010000000002037
tp177
sg105
((lp178
(F1.569999999999709
I48
tp179
aF40.010000000002037
tp180
sg135
((lp181
(F0.94999999999708962
I8
tp182
aF40.019999999996799
tp183
ssba(imeasure_core
ProblemSetSolution
p184
(dp185
g3
(imeasure_core
RoomSet
p186
(dp187
g6
(dp188
(iproblems
RoomID
p189
(dp190
g10
I10
sg11
(I1
I6
tp191
sg13
I3
sg14
I12
sg15
I9
sg16
I4927760411464392432
sb(imulti_robot_problem
MultiRobotState
p192
(dp193
g19
g20
((lp194
(I5
I9
tp195
a(I1
I3
tp196
a(I4
I5
tp197
a(I7
I7
tp198
a(I6
I0
tp199
a(I3
I9
tp200
ag191
a(I8
I7
tp201
a(I3
I7
tp202
a(I2
I5
tp203
a(I7
I9
tp204
a(I3
I1
tp205
a(I4
I6
tp206
a(I2
I9
tp207
a(I3
I10
tp208
a(I6
I10
tp209
a(I2
I11
tp210
a(I3
I8
tp211
a(I0
I6
tp212
a(I3
I6
tp213
a(I2
I2
tp214
a(I2
I3
tp215
a(I3
I4
tp216
a(I7
I6
tp217
atp218
Rp219
sg15
I9
sg31
g20
((lp220
(I1
I2
tp221
a(I6
I4
tp222
a(I6
I9
tp223
a(I8
I2
tp224
a(I8
I0
tp225
a(I1
I10
tp226
a(I0
I9
tp227
a(I1
I0
tp228
a(I0
I2
tp229
a(I4
I11
tp230
atp231
Rp232
sg13
((I1
I11
tp233
(I0
I11
tp234
(I7
I5
tp235
tp236
sg14
I12
sbs(iproblems
RoomID
p237
(dp238
g10
I8
sg11
(I1
I11
tp239
sg13
I4
sg14
I12
sg15
I11
sg16
I3433768247134474666
sb(imulti_robot_problem
MultiRobotState
p240
(dp241
g19
g20
((lp242
(I9
I3
tp243
a(I3
I6
tp244
a(I4
I8
tp245
a(I4
I5
tp246
a(I2
I8
tp247
a(I10
I6
tp248
a(I2
I10
tp249
a(I8
I7
tp250
a(I2
I3
tp251
a(I0
I10
tp252
a(I9
I4
tp253
a(I3
I7
tp254
ag239
a(I10
I3
tp255
a(I5
I8
tp256
a(I10
I4
tp257
a(I2
I7
tp258
a(I10
I5
tp259
a(I6
I7
tp260
a(I2
I9
tp261
a(I9
I6
tp262
a(I1
I8
tp263
a(I3
I8
tp264
a(I0
I11
tp265
a(I8
I8
tp266
a(I4
I11
tp267
a(I5
I0
tp268
a(I0
I9
tp269
a(I4
I9
tp270
a(I7
I8
tp271
atp272
Rp273
sg15
I11
sg31
g20
((lp274
(I4
I3
tp275
a(I5
I11
tp276
a(I9
I8
tp277
a(I2
I11
tp278
a(I9
I11
tp279
a(I7
I10
tp280
a(I1
I1
tp281
a(I6
I5
tp282
atp283
Rp284
sg13
((I7
I11
tp285
(I7
I7
tp286
(I2
I0
tp287
(I10
I9
tp288
tp289
sg14
I12
sbs(iproblems
RoomID
p290
(dp291
g10
I10
sg11
(I5
I4
tp292
sg13
I4
sg14
I9
sg15
I12
sg16
I3125140389427113411
sb(imulti_robot_problem
MultiRobotState
p293
(dp294
g19
g20
((lp295
(I7
I3
tp296
a(I4
I7
tp297
a(I2
I6
tp298
a(I2
I7
tp299
a(I6
I6
tp300
a(I5
I6
tp301
ag292
a(I1
I4
tp302
a(I6
I2
tp303
a(I10
I1
tp304
a(I3
I7
tp305
a(I5
I1
tp306
a(I2
I5
tp307
a(I6
I5
tp308
a(I3
I3
tp309
a(I6
I4
tp310
a(I9
I5
tp311
a(I6
I7
tp312
a(I5
I5
tp313
a(I10
I7
tp314
a(I6
I1
tp315
a(I7
I4
tp316
a(I8
I6
tp317
a(I5
I3
tp318
a(I5
I2
tp319
a(I8
I4
tp320
atp321
Rp322
sg15
I12
sg31
g20
((lp323
(I0
I0
tp324
a(I11
I4
tp325
a(I8
I2
tp326
a(I3
I0
tp327
a(I6
I0
tp328
a(I1
I8
tp329
a(I2
I3
tp330
a(I0
I3
tp331
a(I11
I6
tp332
a(I3
I5
tp333
atp334
Rp335
sg13
((I11
I0
tp336
(I7
I7
tp337
(I1
I5
tp338
(I2
I4
tp339
tp340
sg14
I9
sbs(iproblems
RoomID
p341
(dp342
g10
I7
sg11
(I10
I3
tp343
sg13
I3
sg14
I11
sg15
I11
sg16
I6241004153072892496
sb(imulti_robot_problem
MultiRobotState
p344
(dp345
g19
g20
((lp346
(I3
I2
tp347
a(I0
I0
tp348
a(I9
I8
tp349
a(I7
I7
tp350
a(I8
I9
tp351
a(I6
I2
tp352
a(I2
I3
tp353
a(I9
I4
tp354
a(I4
I2
tp355
a(I5
I1
tp356
a(I0
I3
tp357
ag343
a(I1
I2
tp358
a(I9
I5
tp359
a(I5
I5
tp360
a(I10
I7
tp361
a(I8
I5
tp362
a(I6
I1
tp363
a(I1
I8
tp364
a(I8
I8
tp365
a(I8
I6
tp366
a(I7
I8
tp367
a(I2
I4
tp368
atp369
Rp370
sg15
I11
sg31
g20
((lp371
(I4
I10
tp372
a(I6
I9
tp373
a(I4
I9
tp374
a(I9
I1
tp375
a(I5
I10
tp376
a(I3
I10
tp377
a(I8
I0
tp378
atp379
Rp380
sg13
((I5
I4
tp381
(I4
I6
tp382
(I1
I6
tp383
tp384
sg14
I11
sbs(iproblems
RoomID
p385
(dp386
g10
I6
sg11
(I5
I4
tp387
sg13
I4
sg14
I10
sg15
I11
sg16
I8554152435637441414
sb(imulti_robot_problem
MultiRobotState
p388
(dp389
g19
g20
((lp390
(I6
I4
tp391
ag387
a(I4
I5
tp392
a(I2
I8
tp393
a(I9
I3
tp394
a(I7
I7
tp395
a(I0
I7
tp396
a(I6
I2
tp397
a(I2
I1
tp398
a(I3
I7
tp399
a(I5
I1
tp400
a(I0
I3
tp401
a(I8
I5
tp402
a(I5
I3
tp403
a(I3
I8
tp404
a(I8
I3
tp405
a(I4
I9
tp406
a(I6
I8
tp407
a(I7
I0
tp408
a(I6
I3
tp409
a(I7
I5
tp410
a(I3
I6
tp411
a(I8
I6
tp412
a(I7
I8
tp413
a(I10
I9
tp414
atp415
Rp416
sg15
I11
sg31
g20
((lp417
(I1
I3
tp418
a(I9
I4
tp419
a(I5
I0
tp420
a(I3
I0
tp421
a(I4
I2
tp422
a(I7
I2
tp423
atp424
Rp425
sg13
((I8
I2
tp426
(I8
I4
tp427
(I9
I7
tp428
(I0
I2
tp429
tp430
sg14
I10
sbssg164
S'mild_roomset'
p431
sbsg164
g166
sg167
(dp432
g189
((lp433
F40.010000000002037
tp434
sg237
((lp435
(F2.2999999999956344
I30
tp436
aF40.110000000000582
tp437
sg290
((lp438
F40.029999999998836
tp439
sg341
((lp440
(F0.66999999999825377
I13
tp441
aF40.0
tp442
sg385
((lp443
(F5.7699999999967986
I55
tp444
aF40.049999999995634
tp445
ssba(imeasure_core
ProblemSetSolution
p446
(dp447
g3
(imeasure_core
RoomSet
p448
(dp449
g6
(dp450
(iproblems
RoomID
p451
(dp452
g10
I15
sg11
(I3
I3
tp453
sg13
I5
sg14
I13
sg15
I10
sg16
I4927760411464392432
sb(imulti_robot_problem
MultiRobotState
p454
(dp455
g19
g20
((lp456
(I6
I10
tp457
a(I6
I11
tp458
a(I3
I11
tp459
a(I2
I1
tp460
a(I2
I10
tp461
a(I3
I9
tp462
a(I2
I3
tp463
a(I1
I0
tp464
a(I4
I0
tp465
a(I1
I2
tp466
ag453
a(I7
I6
tp467
a(I3
I1
tp468
a(I1
I1
tp469
a(I1
I7
tp470
a(I1
I3
tp471
a(I3
I10
tp472
a(I9
I12
tp473
atp474
Rp475
sg15
I10
sg31
g20
((lp476
(I9
I0
tp477
a(I9
I7
tp478
a(I7
I0
tp479
a(I8
I2
tp480
a(I5
I5
tp481
a(I8
I10
tp482
a(I1
I4
tp483
a(I8
I8
tp484
a(I2
I12
tp485
a(I8
I7
tp486
a(I1
I10
tp487
a(I7
I11
tp488
a(I4
I12
tp489
a(I0
I2
tp490
a(I0
I10
tp491
atp492
Rp493
sg13
((I1
I12
tp494
(I0
I12
tp495
(I8
I5
tp496
(I7
I9
tp497
(I7
I4
tp498
tp499
sg14
I13
sbs(iproblems
RoomID
p500
(dp501
g10
I13
sg11
(I4
I11
tp502
sg13
I6
sg14
I13
sg15
I12
sg16
I3433768247134474666
sb(imulti_robot_problem
MultiRobotState
p503
(dp504
g19
g20
((lp505
(I4
I10
tp506
a(I5
I11
tp507
a(I6
I11
tp508
a(I9
I8
tp509
a(I6
I0
tp510
a(I0
I12
tp511
a(I4
I12
tp512
a(I2
I3
tp513
a(I2
I12
tp514
a(I10
I3
tp515
ag502
a(I11
I7
tp516
a(I3
I12
tp517
a(I3
I10
tp518
a(I11
I3
tp519
a(I0
I11
tp520
a(I8
I8
tp521
a(I1
I9
tp522
a(I1
I6
tp523
a(I1
I1
tp524
a(I0
I10
tp525
atp526
Rp527
sg15
I12
sg31
g20
((lp528
(I10
I8
tp529
a(I10
I5
tp530
a(I6
I7
tp531
a(I6
I8
tp532
a(I4
I4
tp533
a(I10
I12
tp534
a(I9
I9
tp535
a(I8
I10
tp536
a(I7
I5
tp537
a(I7
I10
tp538
a(I6
I12
tp539
a(I5
I10
tp540
a(I5
I3
tp541
atp542
Rp543
sg13
((I7
I12
tp544
(I7
I7
tp545
(I8
I12
tp546
(I2
I0
tp547
(I11
I9
tp548
(I1
I2
tp549
tp550
sg14
I13
sbs(iproblems
RoomID
p551
(dp552
g10
I11
sg11
(I3
I6
tp553
sg13
I7
sg14
I11
sg15
I12
sg16
I8554152435637441414
sb(imulti_robot_problem
MultiRobotState
p554
(dp555
g19
g20
((lp556
(I3
I1
tp557
a(I3
I8
tp558
a(I4
I5
tp559
a(I2
I8
tp560
a(I11
I2
tp561
a(I1
I7
tp562
a(I7
I5
tp563
a(I9
I4
tp564
a(I3
I7
tp565
a(I5
I1
tp566
a(I9
I6
tp567
a(I7
I9
tp568
a(I6
I3
tp569
a(I7
I6
tp570
a(I4
I4
tp571
a(I7
I4
tp572
a(I1
I8
tp573
a(I8
I8
tp574
ag553
a(I0
I4
tp575
a(I0
I9
tp576
a(I8
I6
tp577
a(I9
I7
tp578
atp579
Rp580
sg15
I12
sg31
g20
((lp581
(I11
I10
tp582
a(I4
I9
tp583
a(I2
I9
tp584
a(I3
I0
tp585
a(I8
I0
tp586
a(I4
I7
tp587
a(I1
I4
tp588
a(I0
I3
tp589
a(I0
I8
tp590
a(I5
I2
tp591
a(I7
I2
tp592
atp593
Rp594
sg13
((I6
I4
tp595
(I8
I2
tp596
(I8
I5
tp597
(I10
I8
tp598
(I1
I2
tp599
(I6
I0
tp600
(I10
I4
tp601
tp602
sg14
I11
sbs(iproblems
RoomID
p603
(dp604
g10
I15
sg11
(I1
I6
tp605
sg13
I6
sg14
I10
sg15
I13
sg16
I3125140389427113411
sb(imulti_robot_problem
MultiRobotState
p606
(dp607
g19
g20
((lp608
(I7
I3
tp609
a(I3
I3
tp610
a(I1
I5
tp611
a(I6
I1
tp612
a(I1
I4
tp613
a(I7
I4
tp614
a(I2
I0
tp615
a(I11
I1
tp616
a(I2
I3
tp617
a(I0
I7
tp618
a(I8
I7
tp619
a(I6
I2
tp620
ag605
atp621
Rp622
sg15
I13
sg31
g20
((lp623
(I0
I1
tp624
a(I2
I6
tp625
a(I2
I9
tp626
a(I11
I8
tp627
a(I2
I8
tp628
a(I9
I3
tp629
a(I6
I0
tp630
a(I3
I0
tp631
a(I7
I7
tp632
a(I6
I3
tp633
a(I9
I2
tp634
a(I12
I4
tp635
a(I0
I4
tp636
a(I2
I4
tp637
a(I9
I7
tp638
atp639
Rp640
sg13
((I12
I0
tp641
(I7
I8
tp642
(I2
I5
tp643
(I4
I5
tp644
(I12
I7
tp645
(I9
I4
tp646
tp647
sg14
I10
sbs(iproblems
RoomID
p648
(dp649
g10
I12
sg11
(I3
I3
tp650
sg13
I6
sg14
I12
sg15
I12
sg16
I6241004153072892496
sb(imulti_robot_problem
MultiRobotState
p651
(dp652
g19
g20
((lp653
(I9
I3
tp654
ag650
a(I2
I9
tp655
a(I7
I1
tp656
a(I11
I8
tp657
a(I3
I4
tp658
a(I6
I1
tp659
a(I3
I1
tp660
a(I5
I2
tp661
a(I4
I3
tp662
a(I4
I2
tp663
a(I8
I5
tp664
a(I11
I6
tp665
atp666
Rp667
sg15
I12
sg31
g20
((lp668
(I4
I10
tp669
a(I0
I0
tp670
a(I7
I10
tp671
a(I5
I11
tp672
a(I8
I0
tp673
a(I9
I10
tp674
a(I8
I7
tp675
a(I10
I1
tp676
a(I2
I5
tp677
a(I8
I9
tp678
a(I4
I11
tp679
a(I10
I4
tp680
atp681
Rp682
sg13
((I8
I6
tp683
(I5
I4
tp684
(I7
I2
tp685
(I4
I7
tp686
(I1
I7
tp687
(I5
I6
tp688
tp689
sg14
I12
sbssg164
S'heavy_roomset'
p690
sbsg164
g166
sg167
(dp691
g451
((lp692
F40.5
tp693
sg500
((lp694
(F24.059999999997672
I17
tp695
aF40.270000000004075
tp696
sg551
((lp697
F41.279999999998836
tp698
sg648
((lp699
F40.379999999997381
tp700
sg603
((lp701
(F29.139999999999418
I29
tp702
aF40.5
tp703
ssba(imeasure_core
ProblemSetSolution
p704
(dp705
g3
g4
sg164
S"AnytimeBeam-w20-gf(4, 'lin')_with_PowerHeuristic2"
p706
sg167
(dp707
g8
((lp708
(F0.41999999999825377
I10
tp709
aF40.090000000003783
tp710
sg48
((lp711
(F0.19999999999708962
I8
tp712
aF40.019999999996799
tp713
sg76
((lp714
(F1.2900000000008731
I13
tp715
aF40.099999999998545
tp716
sg105
((lp717
(F1.9599999999991269
I48
tp718
aF40.099999999998545
tp719
sg135
((lp720
(F1.0
I8
tp721
aF40.0
tp722
ssba(imeasure_core
ProblemSetSolution
p723
(dp724
g3
g186
sg164
g706
sg167
(dp725
g189
((lp726
F40.0
tp727
sg237
((lp728
(F2.4000000000014552
I30
tp729
aF40.020000000004075
tp730
sg290
((lp731
F40.010000000002037
tp732
sg341
((lp733
(F0.69999999999708962
I13
tp734
aF40.009999999994761
tp735
sg385
((lp736
(F6.1500000000014552
I55
tp737
aF40.060000000004948
tp738
ssba(imeasure_core
ProblemSetSolution
p739
(dp740
g3
g448
sg164
g706
sg167
(dp741
g451
((lp742
F40.049999999995634
tp743
sg500
((lp744
(F25.380000000004657
I17
tp745
aF41.120000000002619
tp746
sg551
((lp747
F40.279999999998836
tp748
sg648
((lp749
F40.189999999995052
tp750
sg603
((lp751
(F31.959999999999127
I29
tp752
aF41.010000000002037
tp753
ssba(imeasure_core
ProblemSetSolution
p754
(dp755
g3
g4
sg164
S"AnytimeBeam-w20-gf(8, 'lin')_with_PowerHeuristic2"
p756
sg167
(dp757
g8
((lp758
(F0.40000000000145519
I10
tp759
aF40.099999999998545
tp760
sg48
((lp761
(F0.19000000000232831
I8
tp762
aF40.030000000006112
tp763
sg76
((lp764
(F1.4199999999982538
I13
tp765
aF40.0
tp766
sg105
((lp767
(F2.3299999999944703
I48
tp768
aF40.149999999994179
tp769
sg135
((lp770
(F1.0100000000020373
I8
tp771
aF40.080000000001746
tp772
ssba(imeasure_core
ProblemSetSolution
p773
(dp774
g3
g186
sg164
g756
sg167
(dp775
g189
((lp776
F40.010000000002037
tp777
sg237
((lp778
(F2.5299999999988358
I30
tp779
aF40.099999999998545
tp780
sg290
((lp781
F40.029999999998836
tp782
sg341
((lp783
(F0.76999999999679858
I13
tp784
aF40.040000000000873
tp785
sg385
((lp786
(F6.6100000000005821
I55
tp787
aF40.369999999995343
tp788
ssba(imeasure_core
ProblemSetSolution
p789
(dp790
g3
g448
sg164
g756
sg167
(dp791
g451
((lp792
F40.040000000000873
tp793
sg500
((lp794
(F27.529999999998836
I17
tp795
aF41.169999999998254
tp796
sg551
((lp797
F42.340000000003783
tp798
sg648
((lp799
F40.459999999999127
tp800
sg603
((lp801
(F35.689999999995052
I29
tp802
aF40.059999999997672
tp803
ssba(imeasure_core
ProblemSetSolution
p804
(dp805
g3
g4
sg164
S"AnytimeBeam-w20-gf(16, 'lin')_with_PowerHeuristic2"
p806
sg167
(dp807
g8
((lp808
(F0.41999999999825377
I10
tp809
aF40.029999999998836
tp810
sg48
((lp811
(F0.20000000000436557
I8
tp812
aF40.05000000000291
tp813
sg76
((lp814
(F1.5
I13
tp815
aF40.0
tp816
sg105
((lp817
(F2.6999999999970896
I48
tp818
aF40.069999999999709
tp819
sg135
((lp820
(F1.0199999999967986
I8
tp821
aF40.0
tp822
ssba(imeasure_core
ProblemSetSolution
p823
(dp824
g3
g186
sg164
g806
sg167
(dp825
g189
((lp826
F40.0
tp827
sg237
((lp828
(F2.9800000000032014
I30
tp829
aF40.040000000000873
tp830
sg290
((lp831
F40.0
tp832
sg341
((lp833
(F0.83000000000174623
I13
tp834
aF40.010000000002037
tp835
sg385
((lp836
(F7.25
I55
tp837
aF40.369999999995343
tp838
ssba(imeasure_core
ProblemSetSolution
p839
(dp840
g3
g448
sg164
g806
sg167
(dp841
g451
((lp842
F40.55000000000291
tp843
sg500
((lp844
(F30.509999999994761
I17
tp845
aF40.299999999995634
tp846
sg551
((lp847
F41.30000000000291
tp848
sg648
((lp849
F40.279999999998836
tp850
sg603
((lp851
F40.220000000001164
tp852
ssba(imeasure_core
ProblemSetSolution
p853
(dp854
g3
g4
sg164
S"AnytimeBeam-w20-gf(2, 'lin')_with_LinearHeuristic"
p855
sg167
(dp856
g8
((lp857
(F1.2300000000032014
I29
tp858
aF40.060000000004948
tp859
sg48
((lp860
(F0.20999999999912689
I7
tp861
aF40.0
tp862
sg76
((lp863
F40.150000000001455
tp864
sg105
((lp865
F40.339999999996508
tp866
sg135
((lp867
F40.360000000000582
tp868
ssba(imeasure_core
ProblemSetSolution
p869
(dp870
g3
g186
sg164
g855
sg167
(dp871
g189
((lp872
F40.040000000000873
tp873
sg237
((lp874
F40.029999999998836
tp875
sg290
((lp876
F40.559999999997672
tp877
sg341
((lp878
(F1.3300000000017462
I27
tp879
aF40.110000000000582
tp880
sg385
((lp881
(F0.77999999999883585
I8
tp882
aF40.029999999998836
tp883
ssba(imeasure_core
ProblemSetSolution
p884
(dp885
g3
g448
sg164
g855
sg167
(dp886
g451
((lp887
F40.0
tp888
sg500
((lp889
F40.180000000000291
tp890
sg551
((lp891
F40.110000000000582
tp892
sg648
((lp893
(F28.180000000000291
I10
tp894
aF41.510000000002037
tp895
sg603
((lp896
F40.720000000001164
tp897
ssba(imeasure_core
ProblemSetSolution
p898
(dp899
g3
g4
sg164
S"AnytimeBeam-w20-gf(4, 'lin')_with_LinearHeuristic"
p900
sg167
(dp901
g8
((lp902
(F1.2399999999979627
I29
tp903
aF40.049999999995634
tp904
sg48
((lp905
(F0.24000000000523869
I7
tp906
aF40.020000000004075
tp907
sg76
((lp908
F40.089999999996508
tp909
sg105
((lp910
F40.020000000004075
tp911
sg135
((lp912
F40.220000000001164
tp913
ssba(imeasure_core
ProblemSetSolution
p914
(dp915
g3
g186
sg164
g900
sg167
(dp916
g189
((lp917
F40.030000000006112
tp918
sg237
((lp919
F40.379999999997381
tp920
sg290
((lp921
F40.25
tp922
sg341
((lp923
(F1.3899999999994179
I27
tp924
aF40.059999999997672
tp925
sg385
((lp926
(F0.79000000000087311
I8
tp927
aF40.069999999999709
tp928
ssba(imeasure_core
ProblemSetSolution
p929
(dp930
g3
g448
sg164
g900
sg167
(dp931
g451
((lp932
F40.220000000001164
tp933
sg500
((lp934
F40.919999999998254
tp935
sg551
((lp936
F40.620000000002619
tp937
sg648
((lp938
(F30.629999999997381
I10
tp939
aF42.690000000002328
tp940
sg603
((lp941
F40.790000000000873
tp942
ssba(imeasure_core
ProblemSetSolution
p943
(dp944
g3
g4
sg164
S"AnytimeBeam-w20-gf(8, 'lin')_with_LinearHeuristic"
p945
sg167
(dp946
g8
((lp947
(F1.2299999999959255
I29
tp948
aF40.039999999993597
tp949
sg48
((lp950
(F0.27000000000407454
I7
tp951
aF40.020000000004075
tp952
sg76
((lp953
F40.190000000002328
tp954
sg105
((lp955
F40.019999999996799
tp956
sg135
((lp957
F40.0
tp958
ssba(imeasure_core
ProblemSetSolution
p959
(dp960
g3
g186
sg164
g945
sg167
(dp961
g189
((lp962
F40.049999999995634
tp963
sg237
((lp964
F40.090000000003783
tp965
sg290
((lp966
F40.119999999995343
tp967
sg341
((lp968
(F1.4700000000011642
I27
tp969
aF40.0
tp970
sg385
((lp971
(F0.81999999999970896
I8
tp972
aF40.020000000004075
tp973
ssba(imeasure_core
ProblemSetSolution
p974
(dp975
g3
g448
sg164
g945
sg167
(dp976
g451
((lp977
F40.139999999999418
tp978
sg500
((lp979
F41.279999999998836
tp980
sg551
((lp981
F40.040000000000873
tp982
sg648
((lp983
(F31.05000000000291
I10
tp984
aF43.310000000004948
tp985
sg603
((lp986
F41.089999999996508
tp987
ssba(imeasure_core
ProblemSetSolution
p988
(dp989
g3
g4
sg164
S"AnytimeBeam-w20-gf(16, 'lin')_with_LinearHeuristic"
p990
sg167
(dp991
g8
((lp992
(F1.2299999999959255
I29
tp993
aF40.009999999994761
tp994
sg48
((lp995
(F0.2800000000061118
I7
tp996
aF40.030000000006112
tp997
sg76
((lp998
F40.019999999996799
tp999
sg105
((lp1000
F40.0
tp1001
sg135
((lp1002
F40.160000000003492
tp1003
ssba(imeasure_core
ProblemSetSolution
p1004
(dp1005
g3
g186
sg164
g990
sg167
(dp1006
g189
((lp1007
F40.039999999993597
tp1008
sg237
((lp1009
F40.440000000002328
tp1010
sg290
((lp1011
F40.220000000001164
tp1012
sg341
((lp1013
(F1.6100000000005821
I27
tp1014
aF40.059999999997672
tp1015
sg385
((lp1016
(F0.86000000000058208
I8
tp1017
aF40.020000000004075
tp1018
ssba(imeasure_core
ProblemSetSolution
p1019
(dp1020
g3
g448
sg164
g990
sg167
(dp1021
g451
((lp1022
F40.769999999996799
tp1023
sg500
((lp1024
F44.25
tp1025
sg551
((lp1026
F40.319999999999709
tp1027
sg648
((lp1028
(F34.930000000000291
I10
tp1029
aF44.360000000000582
tp1030
sg603
((lp1031
F40.840000000003783
tp1032
ssba.