(lp0
(imeasure_core
ProblemSetSolution
p1
(dp2
S'roomset'
p3
(imeasure_core
RoomSet
p4
(dp5
S'rooms'
p6
(dp7
(iproblems
RoomID
p8
(dp9
S'dusts'
p10
I8
sS'obstacles'
p11
(I5
I7
tp12
sS'robots'
p13
I5
sS'height'
p14
I9
sS'width'
p15
I10
sS'seed'
p16
I5594871498841892311
sb(imulti_robot_problem
MultiRobotState
p17
(dp18
S'obstacle_locations'
p19
c__builtin__
frozenset
p20
((lp21
(I4
I7
tp22
a(I3
I6
tp23
a(I5
I1
tp24
a(I1
I0
tp25
ag12
a(I8
I3
tp26
a(I5
I8
tp27
atp28
Rp29
sg15
I10
sS'dirt_locations'
p30
g20
((lp31
(I0
I1
tp32
a(I9
I0
tp33
a(I8
I2
tp34
a(I6
I0
tp35
a(I1
I1
tp36
a(I1
I5
tp37
a(I9
I4
tp38
a(I2
I4
tp39
atp40
Rp41
sg13
((I7
I6
tp42
(I8
I4
tp43
(I5
I4
tp44
(I7
I2
tp45
(I7
I8
tp46
tp47
sg14
I9
sbs(iproblems
RoomID
p48
(dp49
g10
I6
sg11
(I4
I4
tp50
sg13
I5
sg14
I7
sg15
I8
sg16
I8833747186876682921
sb(imulti_robot_problem
MultiRobotState
p51
(dp52
g19
g20
((lp53
(I2
I2
tp54
ag50
a(I3
I4
tp55
a(I3
I3
tp56
a(I3
I5
tp57
atp58
Rp59
sg15
I8
sg30
g20
((lp60
(I6
I4
tp61
a(I5
I4
tp62
a(I1
I3
tp63
a(I5
I1
tp64
a(I0
I3
tp65
a(I5
I3
tp66
atp67
Rp68
sg13
((I2
I1
tp69
(I6
I1
tp70
(I3
I1
tp71
(I5
I0
tp72
(I7
I3
tp73
tp74
sg14
I7
sbs(iproblems
RoomID
p75
(dp76
g10
I7
sg11
(I5
I2
tp77
sg13
I5
sg14
I8
sg15
I9
sg16
I365562409358139953
sb(imulti_robot_problem
MultiRobotState
p78
(dp79
g19
g20
((lp80
(I6
I4
tp81
a(I5
I5
tp82
a(I2
I1
tp83
a(I3
I7
tp84
a(I2
I5
tp85
ag77
a(I0
I2
tp86
a(I5
I3
tp87
atp88
Rp89
sg15
I9
sg30
g20
((lp90
(I2
I0
tp91
a(I1
I6
tp92
a(I8
I2
tp93
a(I4
I5
tp94
a(I8
I6
tp95
a(I5
I7
tp96
a(I3
I4
tp97
atp98
Rp99
sg13
((I4
I2
tp100
(I8
I3
tp101
(I6
I3
tp102
(I2
I4
tp103
(I6
I7
tp104
tp105
sg14
I8
sbs(iproblems
RoomID
p106
(dp107
g10
I6
sg11
(I2
I3
tp108
sg13
I1
sg14
I8
sg15
I8
sg16
I1085536589165212248
sb(imulti_robot_problem
MultiRobotState
p109
(dp110
g19
g20
((lp111
(I1
I5
tp112
ag108
a(I1
I4
tp113
a(I1
I6
tp114
a(I0
I7
tp115
a(I4
I0
tp116
atp117
Rp118
sg15
I8
sg30
g20
((lp119
(I0
I1
tp120
a(I1
I2
tp121
a(I7
I3
tp122
a(I5
I1
tp123
a(I6
I0
tp124
a(I2
I1
tp125
atp126
Rp127
sg13
((I3
I2
tp128
tp129
sg14
I8
sbs(iproblems
RoomID
p130
(dp131
g10
I5
sg11
(I6
I4
tp132
sg13
I2
sg14
I8
sg15
I10
sg16
I1662056218554549082
sb(imulti_robot_problem
MultiRobotState
p133
(dp134
g19
g20
((lp135
g132
a(I4
I6
tp136
a(I3
I6
tp137
a(I4
I4
tp138
a(I9
I6
tp139
a(I5
I5
tp140
atp141
Rp142
sg15
I10
sg30
g20
((lp143
(I4
I5
tp144
a(I8
I3
tp145
a(I8
I4
tp146
a(I7
I7
tp147
a(I3
I3
tp148
atp149
Rp150
sg13
((I9
I3
tp151
(I2
I0
tp152
tp153
sg14
I8
sbssS'name'
p154
S'easy_roomset'
p155
sbsg154
S'AnytimeBest-d10_with_PowerHeuristic2'
p156
sS'solutions'
p157
(dp158
g8
((lp159
F40.059999999997672
tp160
sg48
((lp161
(F0.60000000000218279
I4
tp162
aF40.030000000002474
tp163
sg75
((lp164
F40.090000000000146
tp165
sg106
((lp166
F0.40999999999985448
tp167
sg130
((lp168
(F0.0099999999983992893
I7
tp169
aF40.0
tp170
ssba(imeasure_core
ProblemSetSolution
p171
(dp172
g3
(imeasure_core
RoomSet
p173
(dp174
g6
(dp175
(iproblems
RoomID
p176
(dp177
g10
I8
sg11
(I9
I3
tp178
sg13
I4
sg14
I11
sg15
I12
sg16
I5594871498841892311
sb(imulti_robot_problem
MultiRobotState
p179
(dp180
g19
g20
((lp181
(I5
I9
tp182
a(I6
I9
tp183
a(I11
I9
tp184
a(I9
I1
tp185
a(I4
I8
tp186
a(I8
I0
tp187
a(I6
I0
tp188
a(I9
I9
tp189
ag178
a(I9
I4
tp190
a(I4
I2
tp191
a(I3
I7
tp192
a(I5
I8
tp193
a(I7
I9
tp194
a(I10
I8
tp195
a(I9
I0
tp196
a(I7
I0
tp197
a(I6
I8
tp198
a(I9
I2
tp199
a(I5
I7
tp200
a(I8
I10
tp201
a(I2
I0
tp202
a(I5
I0
tp203
a(I0
I9
tp204
a(I10
I0
tp205
a(I10
I2
tp206
atp207
Rp208
sg15
I12
sg30
g20
((lp209
(I2
I6
tp210
a(I11
I5
tp211
a(I6
I1
tp212
a(I11
I1
tp213
a(I2
I1
tp214
a(I8
I8
tp215
a(I0
I2
tp216
a(I3
I5
tp217
atp218
Rp219
sg13
((I9
I7
tp220
(I10
I5
tp221
(I6
I5
tp222
(I8
I3
tp223
tp224
sg14
I11
sbs(iproblems
RoomID
p225
(dp226
g10
I6
sg11
(I9
I4
tp227
sg13
I4
sg14
I9
sg15
I10
sg16
I8833747186876682921
sb(imulti_robot_problem
MultiRobotState
p228
(dp229
g19
g20
((lp230
(I4
I7
tp231
a(I4
I8
tp232
a(I4
I5
tp233
a(I2
I1
tp234
a(I7
I5
tp235
a(I2
I3
tp236
ag227
a(I2
I5
tp237
a(I6
I5
tp238
a(I3
I5
tp239
a(I2
I7
tp240
a(I8
I3
tp241
a(I5
I5
tp242
a(I3
I4
tp243
a(I7
I4
tp244
a(I5
I6
tp245
a(I8
I8
tp246
a(I3
I6
tp247
a(I4
I1
tp248
a(I1
I1
tp249
atp250
Rp251
sg15
I10
sg30
g20
((lp252
(I3
I2
tp253
a(I6
I2
tp254
a(I7
I0
tp255
a(I1
I4
tp256
a(I0
I4
tp257
a(I0
I7
tp258
atp259
Rp260
sg13
((I3
I1
tp261
(I8
I1
tp262
(I3
I3
tp263
(I4
I2
tp264
tp265
sg14
I9
sbs(iproblems
RoomID
p266
(dp267
g10
I7
sg11
(I8
I4
tp268
sg13
I4
sg14
I10
sg15
I11
sg16
I365562409358139953
sb(imulti_robot_problem
MultiRobotState
p269
(dp270
g19
g20
((lp271
(I7
I3
tp272
a(I8
I7
tp273
a(I4
I8
tp274
a(I2
I8
tp275
a(I5
I9
tp276
a(I6
I2
tp277
a(I1
I6
tp278
a(I9
I4
tp279
a(I6
I4
tp280
a(I9
I6
tp281
a(I6
I5
tp282
a(I10
I8
tp283
a(I10
I5
tp284
a(I6
I7
tp285
a(I10
I7
tp286
a(I7
I6
tp287
a(I3
I1
tp288
a(I0
I5
tp289
a(I3
I8
tp290
a(I7
I5
tp291
a(I8
I6
tp292
ag268
a(I5
I2
tp293
a(I6
I1
tp294
a(I9
I7
tp295
atp296
Rp297
sg15
I11
sg30
g20
((lp298
(I5
I6
tp299
a(I6
I9
tp300
a(I1
I7
tp301
a(I4
I5
tp302
a(I10
I3
tp303
a(I0
I2
tp304
a(I2
I1
tp305
atp306
Rp307
sg13
((I10
I4
tp308
(I7
I4
tp309
(I3
I6
tp310
(I8
I9
tp311
tp312
sg14
I10
sbs(iproblems
RoomID
p313
(dp314
g10
I8
sg11
(I4
I6
tp315
sg13
I3
sg14
I9
sg15
I12
sg16
I4800841617172907184
sb(imulti_robot_problem
MultiRobotState
p316
(dp317
g19
g20
((lp318
(I5
I4
tp319
ag315
a(I8
I7
tp320
a(I6
I6
tp321
a(I4
I5
tp322
a(I9
I8
tp323
a(I9
I3
tp324
a(I6
I0
tp325
a(I2
I1
tp326
a(I10
I1
tp327
a(I4
I2
tp328
a(I8
I5
tp329
a(I7
I2
tp330
a(I5
I3
tp331
a(I8
I3
tp332
a(I3
I1
tp333
a(I3
I3
tp334
a(I11
I8
tp335
a(I7
I1
tp336
a(I11
I3
tp337
a(I6
I3
tp338
a(I0
I6
tp339
a(I4
I3
tp340
a(I8
I6
tp341
a(I8
I4
tp342
a(I9
I7
tp343
atp344
Rp345
sg15
I12
sg30
g20
((lp346
(I11
I4
tp347
a(I8
I2
tp348
a(I10
I7
tp349
a(I7
I6
tp350
a(I1
I4
tp351
a(I11
I0
tp352
a(I9
I2
tp353
a(I0
I2
tp354
atp355
Rp356
sg13
((I9
I1
tp357
(I0
I4
tp358
(I7
I4
tp359
tp360
sg14
I9
sbs(iproblems
RoomID
p361
(dp362
g10
I10
sg11
(I4
I8
tp363
sg13
I3
sg14
I11
sg15
I9
sg16
I6645345695289302126
sb(imulti_robot_problem
MultiRobotState
p364
(dp365
g19
g20
((lp366
(I5
I9
tp367
a(I3
I2
tp368
a(I3
I1
tp369
ag363
a(I4
I5
tp370
a(I1
I4
tp371
a(I4
I2
tp372
a(I3
I7
tp373
a(I4
I6
tp374
a(I3
I3
tp375
a(I4
I1
tp376
a(I6
I1
tp377
a(I4
I4
tp378
a(I2
I4
tp379
a(I3
I8
tp380
a(I1
I5
tp381
a(I4
I3
tp382
a(I3
I5
tp383
a(I3
I4
tp384
a(I1
I1
tp385
a(I8
I4
tp386
atp387
Rp388
sg15
I9
sg30
g20
((lp389
(I0
I1
tp390
a(I5
I4
tp391
a(I6
I7
tp392
a(I8
I2
tp393
a(I8
I7
tp394
a(I8
I8
tp395
a(I2
I3
tp396
a(I3
I6
tp397
a(I1
I0
tp398
a(I5
I5
tp399
atp400
Rp401
sg13
((I1
I6
tp402
(I0
I9
tp403
(I0
I5
tp404
tp405
sg14
I11
sbssg154
S'mild_roomset'
p406
sbsg154
g156
sg157
(dp407
g176
((lp408
F40.220000000001164
tp409
sg225
((lp410
F40.020000000000437
tp411
sg266
((lp412
F40.039999999997235
tp413
sg313
((lp414
F40.090000000000146
tp415
sg361
((lp416
F40.080000000001746
tp417
ssba(imeasure_core
ProblemSetSolution
p418
(dp419
g3
(imeasure_core
RoomSet
p420
(dp421
g6
(dp422
(iproblems
RoomID
p423
(dp424
g10
I13
sg11
(I9
I8
tp425
sg13
I7
sg14
I12
sg15
I13
sg16
I5594871498841892311
sb(imulti_robot_problem
MultiRobotState
p426
(dp427
g19
g20
((lp428
(I5
I9
tp429
a(I6
I9
tp430
a(I1
I3
tp431
a(I10
I4
tp432
a(I4
I8
tp433
ag425
a(I1
I4
tp434
a(I11
I3
tp435
a(I8
I6
tp436
a(I9
I6
tp437
a(I5
I5
tp438
a(I9
I5
tp439
a(I6
I7
tp440
a(I6
I8
tp441
a(I6
I10
tp442
a(I8
I10
tp443
a(I5
I0
tp444
a(I10
I0
tp445
a(I7
I9
tp446
a(I9
I7
tp447
atp448
Rp449
sg15
I13
sg30
g20
((lp450
(I2
I7
tp451
a(I10
I5
tp452
a(I11
I5
tp453
a(I6
I1
tp454
a(I8
I0
tp455
a(I2
I1
tp456
a(I2
I0
tp457
a(I0
I10
tp458
a(I7
I10
tp459
a(I12
I10
tp460
a(I5
I2
tp461
a(I0
I2
tp462
a(I3
I5
tp463
atp464
Rp465
sg13
((I10
I8
tp466
(I11
I6
tp467
(I7
I5
tp468
(I9
I3
tp469
(I9
I11
tp470
(I12
I1
tp471
(I9
I9
tp472
tp473
sg14
I12
sbs(iproblems
RoomID
p474
(dp475
g10
I11
sg11
(I8
I7
tp476
sg13
I7
sg14
I10
sg15
I11
sg16
I8833747186876682921
sb(imulti_robot_problem
MultiRobotState
p477
(dp478
g19
g20
((lp479
(I5
I7
tp480
a(I4
I8
tp481
a(I4
I5
tp482
a(I2
I1
tp483
ag476
a(I5
I1
tp484
a(I5
I5
tp485
a(I6
I7
tp486
a(I4
I6
tp487
a(I8
I1
tp488
a(I4
I4
tp489
a(I6
I3
tp490
a(I8
I8
tp491
a(I3
I3
tp492
a(I7
I8
tp493
a(I10
I2
tp494
atp495
Rp496
sg15
I11
sg30
g20
((lp497
(I10
I5
tp498
a(I7
I6
tp499
a(I4
I7
tp500
a(I1
I4
tp501
a(I9
I9
tp502
a(I3
I8
tp503
a(I0
I5
tp504
a(I8
I6
tp505
a(I2
I5
tp506
a(I0
I8
tp507
a(I7
I2
tp508
atp509
Rp510
sg13
((I3
I1
tp511
(I9
I1
tp512
(I5
I2
tp513
(I4
I3
tp514
(I8
I0
tp515
(I10
I4
tp516
(I8
I5
tp517
tp518
sg14
I10
sbs(iproblems
RoomID
p519
(dp520
g10
I12
sg11
(I0
I5
tp521
sg13
I7
sg14
I11
sg15
I12
sg16
I365562409358139953
sb(imulti_robot_problem
MultiRobotState
p522
(dp523
g19
g20
((lp524
(I1
I3
tp525
a(I6
I6
tp526
a(I0
I4
tp527
a(I7
I5
tp528
ag521
a(I8
I7
tp529
a(I4
I2
tp530
a(I2
I9
tp531
a(I10
I7
tp532
a(I7
I8
tp533
a(I7
I6
tp534
a(I3
I1
tp535
a(I4
I8
tp536
a(I3
I9
tp537
a(I2
I2
tp538
a(I8
I6
tp539
a(I5
I2
tp540
a(I11
I6
tp541
a(I8
I4
tp542
atp543
Rp544
sg15
I12
sg30
g20
((lp545
(I3
I2
tp546
a(I11
I9
tp547
a(I4
I9
tp548
a(I10
I4
tp549
a(I5
I7
tp550
a(I2
I1
tp551
a(I0
I6
tp552
a(I1
I6
tp553
a(I7
I10
tp554
a(I3
I7
tp555
a(I5
I10
tp556
a(I0
I2
tp557
atp558
Rp559
sg13
((I6
I3
tp560
(I10
I5
tp561
(I3
I6
tp562
(I8
I10
tp563
(I4
I6
tp564
(I11
I3
tp565
(I1
I8
tp566
tp567
sg14
I11
sbs(iproblems
RoomID
p568
(dp569
g10
I13
sg11
(I3
I8
tp570
sg13
I5
sg14
I10
sg15
I10
sg16
I5338040351619750409
sb(imulti_robot_problem
MultiRobotState
p571
(dp572
g19
g20
((lp573
(I4
I7
tp574
a(I2
I6
tp575
a(I9
I1
tp576
a(I2
I8
tp577
a(I6
I1
tp578
a(I1
I4
tp579
ag570
a(I1
I6
tp580
a(I4
I3
tp581
a(I1
I7
tp582
a(I2
I5
tp583
a(I9
I7
tp584
a(I2
I4
tp585
a(I6
I8
tp586
atp587
Rp588
sg15
I10
sg30
g20
((lp589
(I6
I9
tp590
a(I1
I3
tp591
a(I4
I9
tp592
a(I4
I6
tp593
a(I6
I6
tp594
a(I8
I3
tp595
a(I2
I1
tp596
a(I8
I9
tp597
a(I1
I8
tp598
a(I7
I5
tp599
a(I3
I6
tp600
a(I9
I6
tp601
a(I4
I0
tp602
atp603
Rp604
sg13
((I2
I0
tp605
(I3
I5
tp606
(I5
I0
tp607
(I5
I2
tp608
(I4
I5
tp609
tp610
sg14
I10
sbs(iproblems
RoomID
p611
(dp612
g10
I11
sg11
(I4
I6
tp613
sg13
I5
sg14
I11
sg15
I11
sg16
I1085536589165212248
sb(imulti_robot_problem
MultiRobotState
p614
(dp615
g19
g20
((lp616
(I10
I5
tp617
a(I2
I6
tp618
ag613
a(I9
I3
tp619
a(I3
I2
tp620
a(I9
I9
tp621
a(I1
I8
tp622
a(I1
I9
tp623
a(I1
I7
tp624
a(I3
I7
tp625
a(I6
I9
tp626
a(I5
I8
tp627
a(I3
I3
tp628
atp629
Rp630
sg15
I11
sg30
g20
((lp631
(I0
I1
tp632
a(I4
I9
tp633
a(I10
I4
tp634
a(I10
I7
tp635
a(I6
I0
tp636
a(I0
I7
tp637
a(I2
I3
tp638
a(I1
I4
tp639
a(I2
I2
tp640
a(I10
I0
tp641
a(I0
I10
tp642
atp643
Rp644
sg13
((I5
I3
tp645
(I0
I2
tp646
(I3
I1
tp647
(I7
I1
tp648
(I9
I0
tp649
tp650
sg14
I11
sbssg154
S'heavy_roomset'
p651
sbsg154
g156
sg157
(dp652
g423
((lp653
F41.360000000000582
tp654
sg474
((lp655
F40.369999999998981
tp656
sg519
((lp657
F41.040000000000873
tp658
sg568
((lp659
F40.100000000002183
tp660
sg611
((lp661
F40.299999999999272
tp662
ssba(imeasure_core
ProblemSetSolution
p663
(dp664
g3
g4
sg154
S'AnytimeBest-d80_with_PowerHeuristic2'
p665
sg157
(dp666
g8
((lp667
(F2.4000000000014552
I13
tp668
aF40.06000000000131
tp669
sg48
((lp670
(F0.61000000000058208
I4
tp671
aF40.029999999998836
tp672
sg75
((lp673
F40.090000000000146
tp674
sg106
((lp675
(F0.08000000000174623
I30
tp676
a(F0.49000000000160071
I28
tp677
a(F0.75
I27
tp678
a(F0.90000000000145519
I25
tp679
a(F1.0299999999988358
I23
tp680
a(F1.9000000000014552
I21
tp681
a(F2.9000000000014552
I20
tp682
a(F3.819999999999709
I19
tp683
a(F4.6300000000010186
I17
tp684
a(F5.4399999999986903
I15
tp685
aF5.9500000000007276
tp686
sg130
((lp687
(F0.020000000000436557
I7
tp688
aF40.009999999998399
tp689
ssba(imeasure_core
ProblemSetSolution
p690
(dp691
g3
g173
sg154
g665
sg157
(dp692
g176
((lp693
(F1.3600000000005821
I32
tp694
aF40.05000000000291
tp695
sg225
((lp696
(F1.4099999999998545
I32
tp697
aF40.029999999998836
tp698
sg266
((lp699
(F0.25
I25
tp700
aF40.020000000000437
tp701
sg313
((lp702
(F0.13999999999941792
I17
tp703
aF40.009999999998399
tp704
sg361
((lp705
F40.110000000000582
tp706
ssba(imeasure_core
ProblemSetSolution
p707
(dp708
g3
g420
sg154
g665
sg157
(dp709
g423
((lp710
F41.640000000003056
tp711
sg474
((lp712
(F25.349999999998545
I19
tp713
aF40.259999999998399
tp714
sg519
((lp715
F41.220000000001164
tp716
sg568
((lp717
(F2.3099999999976717
I16
tp718
aF40.029999999998836
tp719
sg611
((lp720
(F2.180000000000291
I15
tp721
aF40.049999999999272
tp722
ssba(imeasure_core
ProblemSetSolution
p723
(dp724
g3
g4
sg154
S'AnytimeBest-d150_with_PowerHeuristic2'
p725
sg157
(dp726
g8
((lp727
(F2.430000000000291
I13
tp728
aF40.069999999999709
tp729
sg48
((lp730
(F0.60000000000218279
I4
tp731
aF40.030000000002474
tp732
sg75
((lp733
F40.149999999997817
tp734
sg106
((lp735
(F0.08000000000174623
I30
tp736
a(F0.49000000000160071
I28
tp737
a(F0.75
I27
tp738
a(F0.90000000000145519
I25
tp739
a(F1.0400000000008731
I23
tp740
a(F1.9099999999998545
I21
tp741
a(F2.9200000000018917
I20
tp742
a(F3.8400000000001455
I19
tp743
a(F4.6700000000018917
I17
tp744
a(F5.4900000000016007
I15
tp745
aF6.0100000000020373
tp746
sg130
((lp747
(F0.0099999999983992893
I7
tp748
aF40.0
tp749
ssba(imeasure_core
ProblemSetSolution
p750
(dp751
g3
g173
sg154
g725
sg157
(dp752
g176
((lp753
(F1.3400000000001455
I32
tp754
aF40.040000000000873
tp755
sg225
((lp756
(F1.4000000000014552
I32
tp757
aF40.099999999998545
tp758
sg266
((lp759
(F0.25
I25
tp760
aF40.020000000000437
tp761
sg313
((lp762
(F0.13999999999941792
I17
tp763
aF40.010000000002037
tp764
sg361
((lp765
F40.109999999996944
tp766
ssba(imeasure_core
ProblemSetSolution
p767
(dp768
g3
g420
sg154
g725
sg157
(dp769
g423
((lp770
F41.390000000003056
tp771
sg474
((lp772
(F25.579999999998108
I19
tp773
aF40.259999999998399
tp774
sg519
((lp775
F41.360000000000582
tp776
sg568
((lp777
(F2.2999999999992724
I16
tp778
aF40.029999999998836
tp779
sg611
((lp780
(F2.2000000000007276
I15
tp781
aF40.049999999999272
tp782
ssba(imeasure_core
ProblemSetSolution
p783
(dp784
g3
g4
sg154
S'AnytimeBest-d250_with_PowerHeuristic2'
p785
sg157
(dp786
g8
((lp787
(F2.3800000000010186
I13
tp788
aF40.069999999999709
tp789
sg48
((lp790
(F0.61000000000058208
I4
tp791
aF40.029999999998836
tp792
sg75
((lp793
F40.270000000000437
tp794
sg106
((lp795
(F0.08000000000174623
I30
tp796
a(F0.49000000000160071
I28
tp797
a(F0.75
I27
tp798
a(F0.88999999999941792
I25
tp799
a(F1.0299999999988358
I23
tp800
a(F1.9099999999998545
I21
tp801
a(F2.9099999999998545
I20
tp802
a(F3.819999999999709
I19
tp803
a(F4.6300000000010186
I17
tp804
a(F5.4400000000023283
I15
tp805
aF5.9500000000007276
tp806
sg130
((lp807
(F0.020000000000436557
I7
tp808
aF40.0
tp809
ssba(imeasure_core
ProblemSetSolution
p810
(dp811
g3
g173
sg154
g785
sg157
(dp812
g176
((lp813
(F1.3300000000017462
I32
tp814
aF40.040000000000873
tp815
sg225
((lp816
(F1.4200000000018917
I32
tp817
aF40.029999999998836
tp818
sg266
((lp819
(F0.25
I25
tp820
aF40.020000000000437
tp821
sg313
((lp822
(F0.13000000000101863
I17
tp823
aF40.020000000000437
tp824
sg361
((lp825
F40.110000000000582
tp826
ssba(imeasure_core
ProblemSetSolution
p827
(dp828
g3
g420
sg154
g785
sg157
(dp829
g423
((lp830
F41.519999999996799
tp831
sg474
((lp832
(F25.720000000001164
I19
tp833
aF40.270000000000437
tp834
sg519
((lp835
F41.580000000001746
tp836
sg568
((lp837
(F2.3099999999976717
I16
tp838
aF40.059999999997672
tp839
sg611
((lp840
(F2.1700000000018917
I15
tp841
aF40.05000000000291
tp842
ssba(imeasure_core
ProblemSetSolution
p843
(dp844
g3
g4
sg154
S'AnytimeBest-d400_with_PowerHeuristic2'
p845
sg157
(dp846
g8
((lp847
(F2.4199999999982538
I13
tp848
aF40.069999999999709
tp849
sg48
((lp850
(F0.59999999999854481
I4
tp851
aF40.029999999998836
tp852
sg75
((lp853
F40.170000000001892
tp854
sg106
((lp855
(F0.079999999998108251
I30
tp856
a(F0.5
I28
tp857
a(F0.75999999999839929
I27
tp858
a(F0.89999999999781721
I25
tp859
a(F1.0399999999972351
I23
tp860
a(F1.9199999999982538
I21
tp861
a(F2.9299999999966531
I20
tp862
a(F3.8499999999985448
I19
tp863
a(F4.6599999999998545
I17
tp864
a(F5.4799999999995634
I15
tp865
aF5.9899999999979627
tp866
sg130
((lp867
(F0.010000000002037268
I7
tp868
aF40.010000000002037
tp869
ssba(imeasure_core
ProblemSetSolution
p870
(dp871
g3
g173
sg154
g845
sg157
(dp872
g176
((lp873
(F1.3599999999969441
I32
tp874
aF40.129999999997381
tp875
sg225
((lp876
(F1.3899999999994179
I32
tp877
aF40.030000000002474
tp878
sg266
((lp879
(F0.25
I25
tp880
aF40.049999999999272
tp881
sg313
((lp882
(F0.12999999999738066
I17
tp883
aF40.009999999998399
tp884
sg361
((lp885
F40.110000000000582
tp886
ssba(imeasure_core
ProblemSetSolution
p887
(dp888
g3
g420
sg154
g845
sg157
(dp889
g423
((lp890
F41.259999999998399
tp891
sg474
((lp892
(F25.390000000003056
I19
tp893
aF40.260000000002037
tp894
sg519
((lp895
F41.389999999999418
tp896
sg568
((lp897
(F2.2999999999992724
I16
tp898
aF40.029999999998836
tp899
sg611
((lp900
(F2.180000000000291
I15
tp901
aF40.05000000000291
tp902
ssba(imeasure_core
ProblemSetSolution
p903
(dp904
g3
g4
sg154
S'AnytimeBest-d10_with_LinearHeuristic'
p905
sg157
(dp906
g8
((lp907
F40.419999999998254
tp908
sg48
((lp909
(F1.0100000000020373
I4
tp910
aF40.18999999999869
tp911
sg75
((lp912
F40.280000000002474
tp913
sg106
((lp914
F1.1599999999998545
tp915
sg130
((lp916
(F0.029999999998835847
I7
tp917
aF40.020000000000437
tp918
ssba(imeasure_core
ProblemSetSolution
p919
(dp920
g3
g173
sg154
g905
sg157
(dp921
g176
((lp922
F40.169999999998254
tp923
sg225
((lp924
F40.069999999999709
tp925
sg266
((lp926
F40.06000000000131
tp927
sg313
((lp928
F40.029999999998836
tp929
sg361
((lp930
F40.090000000000146
tp931
ssba(imeasure_core
ProblemSetSolution
p932
(dp933
g3
g420
sg154
g905
sg157
(dp934
g423
((lp935
F40.559999999997672
tp936
sg474
((lp937
F40.260000000002037
tp938
sg519
((lp939
F40.68999999999869
tp940
sg568
((lp941
F40.290000000000873
tp942
sg611
((lp943
F41.040000000000873
tp944
ssba(imeasure_core
ProblemSetSolution
p945
(dp946
g3
g4
sg154
S'AnytimeBest-d80_with_LinearHeuristic'
p947
sg157
(dp948
g8
((lp949
F40.5
tp950
sg48
((lp951
(F1.0199999999967986
I4
tp952
aF40.19999999999709
tp953
sg75
((lp954
(F3.2800000000024738
I17
tp955
aF40.330000000001746
tp956
sg106
((lp957
(F0.0099999999983992893
I15
tp958
aF5.7099999999991269
tp959
sg130
((lp960
(F0.029999999998835847
I7
tp961
aF40.020000000000437
tp962
ssba(imeasure_core
ProblemSetSolution
p963
(dp964
g3
g173
sg154
g947
sg157
(dp965
g176
((lp966
F40.18999999999869
tp967
sg225
((lp968
F40.040000000000873
tp969
sg266
((lp970
F40.029999999998836
tp971
sg313
((lp972
F40.040000000000873
tp973
sg361
((lp974
F40.080000000001746
tp975
ssba(imeasure_core
ProblemSetSolution
p976
(dp977
g3
g420
sg154
g947
sg157
(dp978
g423
((lp979
F40.350000000002183
tp980
sg474
((lp981
F40.549999999999272
tp982
sg519
((lp983
F42.549999999999272
tp984
sg568
((lp985
F40.380000000001019
tp986
sg611
((lp987
F40.319999999999709
tp988
ssba(imeasure_core
ProblemSetSolution
p989
(dp990
g3
g4
sg154
S'AnytimeBest-d150_with_LinearHeuristic'
p991
sg157
(dp992
g8
((lp993
F40.200000000000728
tp994
sg48
((lp995
(F1.0099999999983993
I4
tp996
aF40.68999999999869
tp997
sg75
((lp998
(F3.25
I17
tp999
aF40.119999999998981
tp1000
sg106
((lp1001
(F0.010000000002037268
I15
tp1002
aF5.6599999999998545
tp1003
sg130
((lp1004
(F0.020000000000436557
I7
tp1005
aF40.020000000000437
tp1006
ssba(imeasure_core
ProblemSetSolution
p1007
(dp1008
g3
g173
sg154
g991
sg157
(dp1009
g176
((lp1010
F40.069999999999709
tp1011
sg225
((lp1012
F40.049999999999272
tp1013
sg266
((lp1014
F40.030000000002474
tp1015
sg313
((lp1016
F40.029999999998836
tp1017
sg361
((lp1018
F40.080000000001746
tp1019
ssba(imeasure_core
ProblemSetSolution
p1020
(dp1021
g3
g420
sg154
g991
sg157
(dp1022
g423
((lp1023
F40.450000000000728
tp1024
sg474
((lp1025
F40.319999999999709
tp1026
sg519
((lp1027
F40.669999999998254
tp1028
sg568
((lp1029
F40.840000000000146
tp1030
sg611
((lp1031
F40.319999999999709
tp1032
ssba(imeasure_core
ProblemSetSolution
p1033
(dp1034
g3
g4
sg154
S'AnytimeBest-d250_with_LinearHeuristic'
p1035
sg157
(dp1036
g8
((lp1037
F40.559999999997672
tp1038
sg48
((lp1039
(F1.0
I4
tp1040
aF40.200000000000728
tp1041
sg75
((lp1042
(F3.25
I17
tp1043
aF40.120000000002619
tp1044
sg106
((lp1045
(F0.0099999999983992893
I15
tp1046
aF5.7299999999995634
tp1047
sg130
((lp1048
(F0.020000000000436557
I7
tp1049
aF40.020000000000437
tp1050
ssba(imeasure_core
ProblemSetSolution
p1051
(dp1052
g3
g173
sg154
g1035
sg157
(dp1053
g176
((lp1054
F40.479999999999563
tp1055
sg225
((lp1056
F40.090000000000146
tp1057
sg266
((lp1058
F40.059999999997672
tp1059
sg313
((lp1060
F40.220000000001164
tp1061
sg361
((lp1062
F40.110000000000582
tp1063
ssba(imeasure_core
ProblemSetSolution
p1064
(dp1065
g3
g420
sg154
g1035
sg157
(dp1066
g423
((lp1067
F40.430000000000291
tp1068
sg474
((lp1069
F40.559999999997672
tp1070
sg519
((lp1071
F40.390000000003056
tp1072
sg568
((lp1073
F40.649999999997817
tp1074
sg611
((lp1075
F40.389999999999418
tp1076
ssba(imeasure_core
ProblemSetSolution
p1077
(dp1078
g3
g4
sg154
S'AnytimeBest-d400_with_LinearHeuristic'
p1079
sg157
(dp1080
g8
((lp1081
F40.409999999999854
tp1082
sg48
((lp1083
(F1.0100000000020373
I4
tp1084
aF40.190000000002328
tp1085
sg75
((lp1086
(F3.2700000000004366
I17
tp1087
aF40.419999999998254
tp1088
sg106
((lp1089
(F0.010000000002037268
I15
tp1090
aF5.6900000000023283
tp1091
sg130
((lp1092
(F0.019999999996798579
I7
tp1093
aF40.019999999996799
tp1094
ssba(imeasure_core
ProblemSetSolution
p1095
(dp1096
g3
g173
sg154
g1079
sg157
(dp1097
g176
((lp1098
F40.390000000003056
tp1099
sg225
((lp1100
F40.309999999997672
tp1101
sg266
((lp1102
F40.100000000002183
tp1103
sg313
((lp1104
F40.219999999997526
tp1105
sg361
((lp1106
F40.080000000001746
tp1107
ssba(imeasure_core
ProblemSetSolution
p1108
(dp1109
g3
g420
sg154
g1079
sg157
(dp1110
g423
((lp1111
F49.659999999999854
tp1112
sg474
((lp1113
F40.540000000000873
tp1114
sg519
((lp1115
F40.399999999997817
tp1116
sg568
((lp1117
F40.580000000001746
tp1118
sg611
((lp1119
F40.409999999999854
tp1120
ssba.