(lp0
(imeasure_core
ProblemSetSolution
p1
(dp2
S'roomset'
p3
(imeasure_core
RoomSet
p4
(dp5
S'rooms'
p6
(dp7
(iproblems
RoomID
p8
(dp9
S'dusts'
p10
I8
sS'obstacles'
p11
(I2
I8
tp12
sS'robots'
p13
I4
sS'height'
p14
I10
sS'width'
p15
I7
sS'seed'
p16
I7106521602475165645
sb(imulti_robot_problem
MultiRobotState
p17
(dp18
S'obstacle_locations'
p19
c__builtin__
frozenset
p20
((lp21
(I3
I8
tp22
a(I5
I9
tp23
a(I4
I9
tp24
ag12
a(I5
I2
tp25
a(I5
I8
tp26
atp27
Rp28
sg15
I7
sS'dirt_locations'
p29
g20
((lp30
(I1
I2
tp31
a(I2
I7
tp32
a(I0
I0
tp33
a(I3
I1
tp34
a(I6
I0
tp35
a(I2
I1
tp36
a(I2
I3
tp37
a(I2
I5
tp38
atp39
Rp40
sg13
((I0
I8
tp41
(I4
I5
tp42
(I3
I9
tp43
(I1
I8
tp44
tp45
sg14
I10
sbs(iproblems
RoomID
p46
(dp47
g10
I10
sg11
(I3
I3
tp48
sg13
I4
sg14
I10
sg15
I8
sg16
I746805015404516437
sb(imulti_robot_problem
MultiRobotState
p49
(dp50
g19
g20
((lp51
(I7
I4
tp52
ag48
a(I4
I2
tp53
a(I6
I1
tp54
a(I3
I1
tp55
a(I4
I1
tp56
a(I1
I4
tp57
atp58
Rp59
sg15
I8
sg29
g20
((lp60
(I4
I6
tp61
a(I6
I3
tp62
a(I2
I0
tp63
a(I3
I9
tp64
a(I2
I3
tp65
a(I3
I6
tp66
a(I5
I1
tp67
a(I1
I0
tp68
a(I0
I8
tp69
a(I5
I8
tp70
atp71
Rp72
sg13
((I3
I8
tp73
(I4
I8
tp74
(I4
I9
tp75
(I0
I3
tp76
tp77
sg14
I10
sbs(iproblems
RoomID
p78
(dp79
g10
I5
sg11
(I4
I5
tp80
sg13
I1
sg14
I9
sg15
I8
sg16
I6604845167042249220
sb(imulti_robot_problem
MultiRobotState
p81
(dp82
g19
g20
((lp83
(I7
I4
tp84
ag80
a(I5
I4
tp85
a(I6
I1
tp86
a(I6
I5
tp87
atp88
Rp89
sg15
I8
sg29
g20
((lp90
(I2
I8
tp91
a(I1
I0
tp92
a(I1
I1
tp93
a(I4
I3
tp94
a(I4
I8
tp95
atp96
Rp97
sg13
((I3
I6
tp98
tp99
sg14
I9
sbs(iproblems
RoomID
p100
(dp101
g10
I9
sg11
(I7
I6
tp102
sg13
I5
sg14
I9
sg15
I9
sg16
I8963783824838420066
sb(imulti_robot_problem
MultiRobotState
p103
(dp104
g19
g20
((lp105
(I2
I7
tp106
a(I5
I5
tp107
a(I6
I6
tp108
ag102
a(I4
I4
tp109
a(I7
I1
tp110
a(I7
I5
tp111
a(I2
I2
tp112
a(I6
I5
tp113
atp114
Rp115
sg15
I9
sg29
g20
((lp116
(I3
I0
tp117
a(I2
I1
tp118
a(I6
I3
tp119
a(I0
I7
tp120
a(I3
I7
tp121
a(I8
I6
tp122
a(I0
I8
tp123
a(I8
I5
tp124
a(I7
I2
tp125
atp126
Rp127
sg13
((I7
I7
tp128
(I2
I4
tp129
(I3
I2
tp130
(I4
I7
tp131
(I5
I0
tp132
tp133
sg14
I9
sbs(iproblems
RoomID
p134
(dp135
g10
I6
sg11
(I7
I4
tp136
sg13
I2
sg14
I7
sg15
I9
sg16
I4029557120079369747
sb(imulti_robot_problem
MultiRobotState
p137
(dp138
g19
g20
((lp139
g136
a(I7
I5
tp140
a(I4
I1
tp141
a(I6
I1
tp142
a(I8
I5
tp143
a(I8
I4
tp144
atp145
Rp146
sg15
I9
sg29
g20
((lp147
(I2
I6
tp148
a(I6
I6
tp149
a(I3
I0
tp150
a(I2
I5
tp151
a(I1
I1
tp152
a(I5
I3
tp153
atp154
Rp155
sg13
((I6
I0
tp156
(I3
I1
tp157
tp158
sg14
I7
sbssS'name'
p159
S'easy_roomset'
p160
sbsg159
S'AnytimeBest-d10_with_PowerHeuristic2'
p161
sS'solutions'
p162
(dp163
g8
((lp164
F40.120000000000005
tp165
sg46
((lp166
F40.319999999999993
tp167
sg78
((lp168
F0.24000000000000909
tp169
sg100
((lp170
(F1.3199999999999932
I7
tp171
aF40.280000000000001
tp172
sg134
((lp173
F40.029999999999987
tp174
ssba(imeasure_core
ProblemSetSolution
p175
(dp176
g3
(imeasure_core
RoomSet
p177
(dp178
g6
(dp179
(iproblems
RoomID
p180
(dp181
g10
I6
sg11
(I5
I8
tp182
sg13
I3
sg14
I9
sg15
I11
sg16
I4029557120079369747
sb(imulti_robot_problem
MultiRobotState
p183
(dp184
g19
g20
((lp185
(I7
I3
tp186
a(I1
I3
tp187
a(I4
I8
tp188
a(I10
I6
tp189
a(I7
I1
tp190
a(I1
I4
tp191
a(I3
I7
tp192
a(I5
I1
tp193
a(I2
I5
tp194
a(I8
I5
tp195
ag182
a(I10
I5
tp196
a(I4
I6
tp197
a(I10
I7
tp198
a(I9
I6
tp199
a(I6
I1
tp200
a(I4
I4
tp201
a(I6
I3
tp202
a(I3
I6
tp203
a(I1
I7
tp204
a(I9
I5
tp205
a(I2
I4
tp206
a(I8
I4
tp207
atp208
Rp209
sg15
I11
sg29
g20
((lp210
(I3
I8
tp211
a(I8
I8
tp212
a(I7
I2
tp213
a(I5
I2
tp214
a(I1
I1
tp215
a(I2
I1
tp216
atp217
Rp218
sg13
((I8
I0
tp219
(I3
I1
tp220
(I4
I0
tp221
tp222
sg14
I9
sbs(iproblems
RoomID
p223
(dp224
g10
I10
sg11
(I4
I4
tp225
sg13
I4
sg14
I12
sg15
I12
sg16
I2569146471088859254
sb(imulti_robot_problem
MultiRobotState
p226
(dp227
g19
g20
((lp228
(I5
I4
tp229
a(I4
I8
tp230
a(I4
I5
tp231
a(I11
I2
tp232
a(I4
I7
tp233
a(I1
I9
tp234
a(I10
I3
tp235
a(I5
I8
tp236
a(I5
I5
tp237
a(I3
I3
tp238
ag225
a(I2
I11
tp239
a(I5
I6
tp240
a(I7
I2
tp241
a(I4
I3
tp242
a(I2
I2
tp243
a(I10
I0
tp244
a(I5
I11
tp245
a(I1
I1
tp246
atp247
Rp248
sg15
I12
sg29
g20
((lp249
(I2
I7
tp250
a(I10
I10
tp251
a(I3
I0
tp252
a(I3
I11
tp253
a(I0
I2
tp254
a(I1
I5
tp255
a(I9
I4
tp256
a(I0
I8
tp257
a(I2
I4
tp258
a(I11
I6
tp259
atp260
Rp261
sg13
((I9
I11
tp262
(I7
I10
tp263
(I6
I0
tp264
(I10
I1
tp265
tp266
sg14
I12
sbs(iproblems
RoomID
p267
(dp268
g10
I7
sg11
(I5
I4
tp269
sg13
I3
sg14
I11
sg15
I12
sg16
I2577854692418029171
sb(imulti_robot_problem
MultiRobotState
p270
(dp271
g19
g20
((lp272
(I4
I7
tp273
a(I3
I0
tp274
a(I8
I0
tp275
a(I2
I1
tp276
a(I6
I2
tp277
a(I1
I6
tp278
a(I5
I1
tp279
a(I4
I0
tp280
a(I1
I2
tp281
a(I4
I9
tp282
a(I3
I3
tp283
a(I8
I1
tp284
a(I3
I10
tp285
a(I6
I3
tp286
a(I3
I6
tp287
a(I1
I10
tp288
a(I8
I6
tp289
a(I3
I5
tp290
ag269
a(I2
I6
tp291
a(I7
I1
tp292
a(I6
I0
tp293
a(I1
I9
tp294
a(I4
I2
tp295
a(I0
I8
tp296
a(I5
I3
tp297
a(I0
I1
tp298
a(I7
I0
tp299
a(I5
I2
tp300
a(I6
I1
tp301
a(I3
I1
tp302
a(I3
I8
tp303
a(I3
I4
tp304
a(I2
I4
tp305
atp306
Rp307
sg15
I12
sg29
g20
((lp308
(I4
I10
tp309
a(I10
I5
tp310
a(I10
I1
tp311
a(I2
I8
tp312
a(I7
I6
tp313
a(I4
I4
tp314
a(I9
I7
tp315
atp316
Rp317
sg13
((I10
I6
tp318
(I1
I4
tp319
(I11
I8
tp320
tp321
sg14
I11
sbs(iproblems
RoomID
p322
(dp323
g10
I6
sg11
(I4
I5
tp324
sg13
I3
sg14
I12
sg15
I12
sg16
I1360307757430227195
sb(imulti_robot_problem
MultiRobotState
p325
(dp326
g19
g20
((lp327
(I6
I4
tp328
a(I3
I2
tp329
a(I10
I4
tp330
a(I3
I0
tp331
a(I5
I4
tp332
a(I7
I5
tp333
a(I5
I1
tp334
a(I8
I5
tp335
a(I6
I5
tp336
a(I4
I0
tp337
a(I7
I4
tp338
a(I8
I3
tp339
a(I6
I7
tp340
a(I5
I5
tp341
a(I8
I10
tp342
a(I6
I3
tp343
a(I5
I6
tp344
a(I6
I2
tp345
ag324
a(I9
I5
tp346
a(I5
I3
tp347
atp348
Rp349
sg15
I12
sg29
g20
((lp350
(I3
I3
tp351
a(I4
I3
tp352
a(I9
I2
tp353
a(I5
I7
tp354
a(I0
I2
tp355
a(I11
I6
tp356
atp357
Rp358
sg13
((I11
I11
tp359
(I1
I3
tp360
(I0
I1
tp361
tp362
sg14
I12
sbs(iproblems
RoomID
p363
(dp364
g10
I6
sg11
(I2
I4
tp365
sg13
I3
sg14
I10
sg15
I10
sg16
I1821862095355237593
sb(imulti_robot_problem
MultiRobotState
p366
(dp367
g19
g20
((lp368
(I6
I4
tp369
a(I4
I7
tp370
a(I2
I6
tp371
a(I5
I6
tp372
a(I6
I0
tp373
a(I1
I9
tp374
a(I8
I5
tp375
a(I7
I2
tp376
a(I7
I9
tp377
a(I5
I3
tp378
a(I6
I7
tp379
a(I3
I3
tp380
a(I5
I5
tp381
a(I4
I4
tp382
a(I6
I3
tp383
a(I4
I5
tp384
a(I6
I5
tp385
a(I4
I3
tp386
a(I0
I4
tp387
a(I8
I6
tp388
a(I3
I5
tp389
a(I3
I4
tp390
ag365
atp391
Rp392
sg15
I10
sg29
g20
((lp393
(I0
I6
tp394
a(I7
I0
tp395
a(I5
I1
tp396
a(I2
I3
tp397
a(I2
I8
tp398
a(I9
I6
tp399
atp400
Rp401
sg13
((I2
I2
tp402
(I4
I2
tp403
(I0
I7
tp404
tp405
sg14
I10
sbssg159
S'mild_roomset'
p406
sbsg159
g161
sg162
(dp407
g180
((lp408
F40.019999999999982
tp409
sg223
((lp410
F40.629999999999995
tp411
sg267
((lp412
F40.120000000000033
tp413
sg363
((lp414
F40.0
tp415
sg322
((lp416
F40.039999999999964
tp417
ssba(imeasure_core
ProblemSetSolution
p418
(dp419
g3
(imeasure_core
RoomSet
p420
(dp421
g6
(dp422
(iproblems
RoomID
p423
(dp424
g10
I13
sg11
(I5
I3
tp425
sg13
I6
sg14
I13
sg15
I10
sg16
I7106521602475165645
sb(imulti_robot_problem
MultiRobotState
p426
(dp427
g19
g20
((lp428
(I5
I6
tp429
a(I5
I11
tp430
a(I7
I12
tp431
a(I0
I12
tp432
a(I2
I3
tp433
a(I6
I12
tp434
a(I7
I2
tp435
ag425
a(I1
I2
tp436
a(I4
I5
tp437
a(I8
I12
tp438
a(I7
I1
tp439
a(I2
I11
tp440
a(I6
I3
tp441
a(I6
I11
tp442
a(I0
I4
tp443
a(I0
I9
tp444
a(I0
I5
tp445
a(I3
I4
tp446
atp447
Rp448
sg15
I10
sg29
g20
((lp449
(I0
I1
tp450
a(I8
I3
tp451
a(I4
I6
tp452
a(I7
I11
tp453
a(I6
I9
tp454
a(I0
I11
tp455
a(I3
I9
tp456
a(I2
I12
tp457
a(I8
I6
tp458
a(I5
I1
tp459
a(I3
I7
tp460
a(I0
I3
tp461
a(I3
I5
tp462
atp463
Rp464
sg13
((I0
I10
tp465
(I6
I7
tp466
(I4
I11
tp467
(I1
I11
tp468
(I9
I0
tp469
(I3
I1
tp470
tp471
sg14
I13
sbs(iproblems
RoomID
p472
(dp473
g10
I15
sg11
(I9
I4
tp474
sg13
I6
sg14
I13
sg15
I11
sg16
I746805015404516437
sb(imulti_robot_problem
MultiRobotState
p475
(dp476
g19
g20
((lp477
(I8
I0
tp478
a(I4
I8
tp479
a(I4
I5
tp480
a(I10
I6
tp481
a(I6
I0
tp482
a(I3
I5
tp483
a(I3
I9
tp484
ag474
a(I4
I2
tp485
a(I7
I2
tp486
a(I7
I9
tp487
a(I10
I5
tp488
a(I5
I5
tp489
a(I4
I4
tp490
a(I1
I8
tp491
a(I8
I6
tp492
a(I5
I3
tp493
a(I5
I2
tp494
a(I2
I4
tp495
a(I9
I7
tp496
atp497
Rp498
sg15
I11
sg29
g20
((lp499
(I3
I12
tp500
a(I9
I1
tp501
a(I7
I1
tp502
a(I8
I1
tp503
a(I6
I10
tp504
a(I8
I9
tp505
a(I2
I0
tp506
a(I2
I3
tp507
a(I0
I10
tp508
a(I2
I2
tp509
a(I7
I11
tp510
a(I2
I5
tp511
a(I8
I5
tp512
a(I5
I8
tp513
a(I4
I11
tp514
atp515
Rp516
sg13
((I4
I10
tp517
(I6
I11
tp518
(I5
I12
tp519
(I0
I5
tp520
(I1
I0
tp521
(I7
I10
tp522
tp523
sg14
I13
sbs(iproblems
RoomID
p524
(dp525
g10
I11
sg11
(I9
I6
tp526
sg13
I6
sg14
I10
sg15
I12
sg16
I4029557120079369747
sb(imulti_robot_problem
MultiRobotState
p527
(dp528
g19
g20
((lp529
(I11
I7
tp530
a(I10
I6
tp531
a(I5
I5
tp532
a(I7
I1
tp533
a(I10
I7
tp534
a(I9
I8
tp535
a(I4
I4
tp536
a(I1
I6
tp537
a(I3
I6
tp538
a(I1
I7
tp539
ag526
a(I11
I6
tp540
atp541
Rp542
sg15
I12
sg29
g20
((lp543
(I1
I2
tp544
a(I1
I3
tp545
a(I4
I9
tp546
a(I8
I2
tp547
a(I8
I1
tp548
a(I6
I1
tp549
a(I2
I1
tp550
a(I7
I4
tp551
a(I1
I8
tp552
a(I5
I2
tp553
a(I1
I1
tp554
atp555
Rp556
sg13
((I8
I0
tp557
(I4
I1
tp558
(I4
I0
tp559
(I3
I9
tp560
(I8
I9
tp561
(I3
I8
tp562
tp563
sg14
I10
sbs(iproblems
RoomID
p564
(dp565
g10
I10
sg11
(I6
I7
tp566
sg13
I5
sg14
I12
sg15
I11
sg16
I6604845167042249220
sb(imulti_robot_problem
MultiRobotState
p567
(dp568
g19
g20
((lp569
(I9
I0
tp570
ag566
a(I7
I1
tp571
a(I2
I8
tp572
a(I10
I6
tp573
a(I7
I7
tp574
a(I8
I8
tp575
a(I9
I4
tp576
a(I8
I6
tp577
a(I7
I11
tp578
a(I9
I7
tp579
atp580
Rp581
sg15
I11
sg29
g20
((lp582
(I10
I5
tp583
a(I3
I3
tp584
a(I5
I11
tp585
a(I8
I1
tp586
a(I9
I8
tp587
a(I6
I9
tp588
a(I0
I7
tp589
a(I0
I10
tp590
a(I4
I1
tp591
a(I8
I4
tp592
atp593
Rp594
sg13
((I4
I8
tp595
(I1
I0
tp596
(I2
I2
tp597
(I3
I11
tp598
(I6
I5
tp599
tp600
sg14
I12
sbs(iproblems
RoomID
p601
(dp602
g10
I15
sg11
(I5
I5
tp603
sg13
I6
sg14
I13
sg15
I13
sg16
I2569146471088859254
sb(imulti_robot_problem
MultiRobotState
p604
(dp605
g19
g20
((lp606
(I12
I2
tp607
a(I5
I4
tp608
a(I3
I3
tp609
a(I5
I9
tp610
a(I4
I5
tp611
a(I6
I1
tp612
a(I10
I10
tp613
a(I8
I8
tp614
a(I4
I3
tp615
a(I2
I2
tp616
a(I9
I11
tp617
a(I8
I12
tp618
a(I1
I1
tp619
a(I12
I3
tp620
ag603
atp621
Rp622
sg15
I13
sg29
g20
((lp623
(I10
I5
tp624
a(I3
I12
tp625
a(I8
I2
tp626
a(I5
I6
tp627
a(I12
I7
tp628
a(I11
I3
tp629
a(I0
I2
tp630
a(I11
I0
tp631
a(I0
I9
tp632
a(I2
I12
tp633
a(I1
I10
tp634
a(I3
I7
tp635
a(I10
I11
tp636
a(I2
I4
tp637
a(I5
I12
tp638
atp639
Rp640
sg13
((I9
I12
tp641
(I7
I11
tp642
(I7
I0
tp643
(I10
I1
tp644
(I1
I5
tp645
(I4
I0
tp646
tp647
sg14
I13
sbssg159
S'heavy_roomset'
p648
sbsg159
g161
sg162
(dp649
g423
((lp650
F40.580000000000041
tp651
sg472
((lp652
F40.889999999999986
tp653
sg524
((lp654
(F7.1599999999999682
I6
tp655
aF40.199999999999989
tp656
sg564
((lp657
F40.28000000000003
tp658
sg601
((lp659
F41.090000000000032
tp660
ssba(imeasure_core
ProblemSetSolution
p661
(dp662
g3
g4
sg159
S'AnytimeBest-d80_with_PowerHeuristic2'
p663
sg162
(dp664
g8
((lp665
(F0.53999999999996362
I15
tp666
aF40.039999999999964
tp667
sg46
((lp668
(F1.8099999999999454
I20
tp669
aF40.059999999999945
tp670
sg78
((lp671
(F0.15000000000009095
I35
tp672
a(F1.3300000000000409
I33
tp673
a(F1.9500000000000455
I30
tp674
a(F2.3100000000000591
I26
tp675
a(F3.3000000000000682
I25
tp676
a(F3.5199999999999818
I23
tp677
a(F3.9300000000000637
I21
tp678
a(F5.3000000000000682
I20
tp679
a(F5.5400000000000773
I18
tp680
aF6.6299999999999955
tp681
sg100
((lp682
(F1.3400000000000318
I7
tp683
aF40.190000000000055
tp684
sg134
((lp685
(F0.069999999999936335
I18
tp686
aF40.0
tp687
ssba(imeasure_core
ProblemSetSolution
p688
(dp689
g3
g177
sg159
g663
sg162
(dp690
g180
((lp691
(F0.10000000000002274
I15
tp692
aF40.009999999999991
tp693
sg223
((lp694
F40.07000000000005
tp695
sg267
((lp696
(F0.53999999999996362
I29
tp697
aF40.009999999999991
tp698
sg363
((lp699
(F0.11000000000001364
I13
tp700
aF40.009999999999991
tp701
sg322
((lp702
F40.009999999999991
tp703
ssba(imeasure_core
ProblemSetSolution
p704
(dp705
g3
g420
sg159
g663
sg162
(dp706
g423
((lp707
F40.450000000000045
tp708
sg472
((lp709
F41.409999999999968
tp710
sg524
((lp711
(F7.1899999999999409
I6
tp712
aF40.159999999999968
tp713
sg564
((lp714
(F5.6800000000000637
I21
tp715
aF40.309999999999945
tp716
sg601
((lp717
F40.740000000000009
tp718
ssba(imeasure_core
ProblemSetSolution
p719
(dp720
g3
g4
sg159
S'AnytimeBest-d150_with_PowerHeuristic2'
p721
sg162
(dp722
g8
((lp723
(F0.52999999999997272
I15
tp724
aF40.039999999999964
tp725
sg46
((lp726
(F1.8500000000001364
I20
tp727
aF40.060000000000173
tp728
sg78
((lp729
(F0.13999999999987267
I35
tp730
a(F1.3199999999999363
I33
tp731
a(F1.9399999999998272
I30
tp732
a(F2.3099999999999454
I26
tp733
a(F3.2899999999999636
I25
tp734
a(F3.5
I23
tp735
a(F3.9199999999998454
I21
tp736
a(F5.2899999999999636
I20
tp737
a(F5.5399999999999636
I18
tp738
aF6.6199999999998909
tp739
sg100
((lp740
(F1.3400000000001455
I7
tp741
aF40.350000000000136
tp742
sg134
((lp743
(F0.069999999999936335
I18
tp744
aF40.0
tp745
ssba(imeasure_core
ProblemSetSolution
p746
(dp747
g3
g177
sg159
g721
sg162
(dp748
g180
((lp749
(F0.099999999999909051
I15
tp750
aF40.009999999999991
tp751
sg223
((lp752
(F8.4099999999998545
I122
tp753
aF40.049999999999955
tp754
sg267
((lp755
(F0.52999999999997272
I29
tp756
aF40.009999999999991
tp757
sg363
((lp758
(F0.099999999999909051
I13
tp759
aF40.009999999999991
tp760
sg322
((lp761
F40.009999999999991
tp762
ssba(imeasure_core
ProblemSetSolution
p763
(dp764
g3
g420
sg159
g721
sg162
(dp765
g423
((lp766
F41.079999999999927
tp767
sg472
((lp768
F41.490000000000009
tp769
sg524
((lp770
(F7.2599999999999909
I6
tp771
aF40.160000000000082
tp772
sg564
((lp773
(F5.6700000000000728
I21
tp774
aF40.210000000000036
tp775
sg601
((lp776
(F39.960000000000036
I27
tp777
aF40.319999999999936
tp778
ssba(imeasure_core
ProblemSetSolution
p779
(dp780
g3
g4
sg159
S'AnytimeBest-d250_with_PowerHeuristic2'
p781
sg162
(dp782
g8
((lp783
(F0.52999999999997272
I15
tp784
aF40.039999999999964
tp785
sg46
((lp786
(F1.8199999999999363
I20
tp787
aF40.059999999999945
tp788
sg78
((lp789
(F0.14000000000010004
I35
tp790
a(F1.3100000000001728
I33
tp791
a(F1.9200000000000728
I30
tp792
a(F2.2800000000002001
I26
tp793
a(F3.2599999999999909
I25
tp794
a(F3.4700000000000273
I23
tp795
a(F3.8800000000001091
I21
tp796
a(F5.2400000000000091
I20
tp797
a(F5.4800000000000182
I18
tp798
aF6.5600000000001728
tp799
sg100
((lp800
(F1.3399999999999181
I7
tp801
aF40.069999999999936
tp802
sg134
((lp803
(F0.069999999999936335
I18
tp804
aF40.0
tp805
ssba(imeasure_core
ProblemSetSolution
p806
(dp807
g3
g177
sg159
g781
sg162
(dp808
g180
((lp809
(F0.099999999999909051
I15
tp810
aF40.009999999999991
tp811
sg223
((lp812
(F8.3399999999999181
I122
tp813
aF40.049999999999955
tp814
sg267
((lp815
(F0.53999999999996362
I29
tp816
aF40.009999999999991
tp817
sg363
((lp818
(F0.11000000000012733
I13
tp819
aF40.010000000000218
tp820
sg322
((lp821
F40.009999999999991
tp822
ssba(imeasure_core
ProblemSetSolution
p823
(dp824
g3
g420
sg159
g781
sg162
(dp825
g423
((lp826
F41.050000000000182
tp827
sg472
((lp828
F41.409999999999854
tp829
sg524
((lp830
(F7.25
I6
tp831
aF40.159999999999854
tp832
sg564
((lp833
(F5.7000000000002728
I21
tp834
aF40.100000000000364
tp835
sg601
((lp836
(F39.869999999999891
I27
tp837
aF40.319999999999709
tp838
ssba(imeasure_core
ProblemSetSolution
p839
(dp840
g3
g4
sg159
S'AnytimeBest-d400_with_PowerHeuristic2'
p841
sg162
(dp842
g8
((lp843
(F0.52999999999974534
I15
tp844
aF40.099999999999909
tp845
sg46
((lp846
(F1.8200000000001637
I20
tp847
aF40.090000000000146
tp848
sg78
((lp849
(F0.1499999999996362
I35
tp850
a(F1.319999999999709
I33
tp851
a(F1.9299999999998363
I30
tp852
a(F2.2899999999999636
I26
tp853
a(F3.2799999999997453
I25
tp854
a(F3.4899999999997817
I23
tp855
a(F3.8999999999996362
I21
tp856
a(F5.2699999999999818
I20
tp857
a(F5.5099999999997635
I18
tp858
aF6.5899999999996908
tp859
sg100
((lp860
(F1.3500000000003638
I7
tp861
aF40.070000000000164
tp862
sg134
((lp863
(F0.070000000000163709
I18
tp864
aF40.010000000000218
tp865
ssba(imeasure_core
ProblemSetSolution
p866
(dp867
g3
g177
sg159
g841
sg162
(dp868
g180
((lp869
(F0.10999999999967258
I15
tp870
aF40.009999999999764
tp871
sg223
((lp872
(F8.3699999999998909
I122
tp873
aF40.050000000000182
tp874
sg267
((lp875
(F0.53999999999996362
I29
tp876
aF40.009999999999764
tp877
sg363
((lp878
(F0.11000000000012733
I13
tp879
aF40.009999999999764
tp880
sg322
((lp881
F40.110000000000127
tp882
ssba(imeasure_core
ProblemSetSolution
p883
(dp884
g3
g420
sg159
g841
sg162
(dp885
g423
((lp886
F41.059999999999945
tp887
sg472
((lp888
F41.490000000000236
tp889
sg524
((lp890
(F7.2299999999995634
I6
tp891
aF40.159999999999854
tp892
sg564
((lp893
(F5.6700000000000728
I21
tp894
aF40.269999999999982
tp895
sg601
((lp896
F40.349999999999909
tp897
ssba(imeasure_core
ProblemSetSolution
p898
(dp899
g3
g4
sg159
S'AnytimeBest-d10_with_LinearHeuristic'
p900
sg162
(dp901
g8
((lp902
F40.179999999999836
tp903
sg46
((lp904
F40.160000000000309
tp905
sg78
((lp906
F0.75999999999976353
tp907
sg100
((lp908
F40.220000000000255
tp909
sg134
((lp910
(F0.029999999999745341
I10
tp911
aF40.019999999999982
tp912
ssba(imeasure_core
ProblemSetSolution
p913
(dp914
g3
g177
sg159
g900
sg162
(dp915
g180
((lp916
F40.029999999999745
tp917
sg223
((lp918
F40.160000000000309
tp919
sg267
((lp920
F40.079999999999927
tp921
sg363
((lp922
F40.019999999999982
tp923
sg322
((lp924
F40.059999999999945
tp925
ssba(imeasure_core
ProblemSetSolution
p926
(dp927
g3
g420
sg159
g900
sg162
(dp928
g423
((lp929
F40.75
tp930
sg472
((lp931
F40.300000000000182
tp932
sg524
((lp933
(F11.319999999999709
I7
tp934
aF40.419999999999618
tp935
sg564
((lp936
F40.130000000000109
tp937
sg601
((lp938
F40.829999999999927
tp939
ssba(imeasure_core
ProblemSetSolution
p940
(dp941
g3
g4
sg159
S'AnytimeBest-d80_with_LinearHeuristic'
p942
sg162
(dp943
g8
((lp944
F40.210000000000036
tp945
sg46
((lp946
(F1.8699999999998909
I24
tp947
aF40.119999999999891
tp948
sg78
((lp949
(F0.010000000000218279
I18
tp950
aF6.330000000000382
tp951
sg100
((lp952
F40.159999999999854
tp953
sg134
((lp954
(F0.030000000000200089
I10
tp955
aF40.019999999999982
tp956
ssba(imeasure_core
ProblemSetSolution
p957
(dp958
g3
g177
sg159
g942
sg162
(dp959
g180
((lp960
F40.070000000000164
tp961
sg223
((lp962
F40.109999999999673
tp963
sg267
((lp964
F40.0300000000002
tp965
sg363
((lp966
F40.019999999999982
tp967
sg322
((lp968
F40.150000000000091
tp969
ssba(imeasure_core
ProblemSetSolution
p970
(dp971
g3
g420
sg159
g942
sg162
(dp972
g423
((lp973
F40.670000000000073
tp974
sg472
((lp975
F42.4399999999996
tp976
sg524
((lp977
(F11.240000000000236
I7
tp978
aF40.730000000000018
tp979
sg564
((lp980
F41.240000000000236
tp981
sg601
((lp982
F40.480000000000018
tp983
ssba(imeasure_core
ProblemSetSolution
p984
(dp985
g3
g4
sg159
S'AnytimeBest-d150_with_LinearHeuristic'
p986
sg162
(dp987
g8
((lp988
F40.110000000000127
tp989
sg46
((lp990
(F1.8699999999998909
I24
tp991
aF40.110000000000127
tp992
sg78
((lp993
(F0.01999999999998181
I18
tp994
aF6.3400000000001455
tp995
sg100
((lp996
(F30.789999999999964
I91
tp997
aF40.880000000000109
tp998
sg134
((lp999
(F0.029999999999745341
I10
tp1000
aF40.019999999999527
tp1001
ssba(imeasure_core
ProblemSetSolution
p1002
(dp1003
g3
g177
sg159
g986
sg162
(dp1004
g180
((lp1005
F40.029999999999745
tp1006
sg223
((lp1007
F40.110000000000582
tp1008
sg267
((lp1009
F40.019999999999527
tp1010
sg363
((lp1011
(F10.039999999999964
I134
tp1012
a(F10.989999999999782
I133
tp1013
a(F12.079999999999927
I132
tp1014
a(F12.6899999999996
I131
tp1015
aF40.019999999999527
tp1016
sg322
((lp1017
F40.030000000000655
tp1018
ssba(imeasure_core
ProblemSetSolution
p1019
(dp1020
g3
g420
sg159
g986
sg162
(dp1021
g423
((lp1022
F40.489999999999782
tp1023
sg472
((lp1024
F42.860000000000582
tp1025
sg524
((lp1026
(F11.369999999999891
I7
tp1027
aF40.579999999999927
tp1028
sg564
((lp1029
F41.019999999999527
tp1030
sg601
((lp1031
F40.850000000000364
tp1032
ssba(imeasure_core
ProblemSetSolution
p1033
(dp1034
g3
g4
sg159
S'AnytimeBest-d250_with_LinearHeuristic'
p1035
sg162
(dp1036
g8
((lp1037
(F29.819999999999709
I155
tp1038
aF40.069999999999709
tp1039
sg46
((lp1040
(F1.8599999999996726
I24
tp1041
aF40.340000000000146
tp1042
sg78
((lp1043
(F0.010000000000218279
I18
tp1044
aF6.3099999999994907
tp1045
sg100
((lp1046
(F30.860000000000582
I91
tp1047
aF40.170000000000073
tp1048
sg134
((lp1049
(F0.030000000000654836
I10
tp1050
aF40.020000000000437
tp1051
ssba(imeasure_core
ProblemSetSolution
p1052
(dp1053
g3
g177
sg159
g1035
sg162
(dp1054
g180
((lp1055
F40.119999999999891
tp1056
sg223
((lp1057
F40.359999999999673
tp1058
sg267
((lp1059
F40.029999999999745
tp1060
sg363
((lp1061
(F10.020000000000437
I134
tp1062
a(F11.0
I133
tp1063
a(F12.090000000000146
I132
tp1064
a(F12.710000000000036
I131
tp1065
aF40.020000000000437
tp1066
sg322
((lp1067
F40.090000000000146
tp1068
ssba(imeasure_core
ProblemSetSolution
p1069
(dp1070
g3
g420
sg159
g1035
sg162
(dp1071
g423
((lp1072
F40.650000000000546
tp1073
sg472
((lp1074
F42.430000000000291
tp1075
sg524
((lp1076
(F11.25
I7
tp1077
aF40.729999999999563
tp1078
sg564
((lp1079
F40.159999999999854
tp1080
sg601
((lp1081
F40.630000000000109
tp1082
ssba(imeasure_core
ProblemSetSolution
p1083
(dp1084
g3
g4
sg159
S'AnytimeBest-d400_with_LinearHeuristic'
p1085
sg162
(dp1086
g8
((lp1087
(F29.829999999999927
I155
tp1088
aF40.069999999999709
tp1089
sg46
((lp1090
(F1.8700000000008004
I24
tp1091
aF40.110000000000582
tp1092
sg78
((lp1093
(F0.019999999999527063
I18
tp1094
aF6.3299999999999272
tp1095
sg100
((lp1096
(F30.789999999999964
I91
tp1097
aF40.869999999999891
tp1098
sg134
((lp1099
(F0.029999999999745341
I10
tp1100
aF40.019999999999527
tp1101
ssba(imeasure_core
ProblemSetSolution
p1102
(dp1103
g3
g177
sg159
g1085
sg162
(dp1104
g180
((lp1105
F40.050000000000182
tp1106
sg223
((lp1107
F40.470000000000255
tp1108
sg267
((lp1109
F40.0600000000004
tp1110
sg363
((lp1111
(F10.039999999999964
I134
tp1112
a(F10.990000000000691
I133
tp1113
a(F12.080000000000837
I132
tp1114
a(F12.690000000000509
I131
tp1115
aF40.030000000000655
tp1116
sg322
((lp1117
F40.1299999999992
tp1118
ssba(imeasure_core
ProblemSetSolution
p1119
(dp1120
g3
g420
sg159
g1085
sg162
(dp1121
g423
((lp1122
F40.829999999999927
tp1123
sg472
((lp1124
F42.809999999999491
tp1125
sg524
((lp1126
(F11.360000000000582
I7
tp1127
aF40.980000000000473
tp1128
sg564
((lp1129
F41.130000000000109
tp1130
sg601
((lp1131
F40.759999999999309
tp1132
ssba.