(imeasure_core
RoomSet
p0
(dp1
S'rooms'
p2
(dp3
(iproblems
RoomID
p4
(dp5
S'dusts'
p6
I15
sS'obstacles'
p7
(I5
I9
tp8
sS'robots'
p9
I7
sS'height'
p10
I13
sS'width'
p11
I12
sS'seed'
p12
I4712128852136459333
sb(imulti_robot_problem
MultiRobotState
p13
(dp14
S'obstacle_locations'
p15
c__builtin__
frozenset
p16
((lp17
g8
a(I4
I9
tp18
a(I5
I5
tp19
a(I4
I12
tp20
a(I2
I8
tp21
a(I3
I1
tp22
a(I3
I9
tp23
a(I9
I4
tp24
a(I1
I7
tp25
a(I1
I10
tp26
a(I3
I12
tp27
a(I0
I8
tp28
a(I5
I2
tp29
atp30
Rp31
sg11
I12
sS'dirt_locations'
p32
g16
((lp33
(I6
I9
tp34
a(I3
I3
tp35
a(I1
I12
tp36
a(I5
I6
tp37
a(I7
I7
tp38
a(I3
I5
tp39
a(I3
I8
tp40
a(I8
I8
tp41
a(I10
I0
tp42
a(I2
I5
tp43
a(I10
I2
tp44
a(I3
I4
tp45
a(I1
I1
tp46
a(I5
I8
tp47
a(I9
I7
tp48
atp49
Rp50
sg9
((I6
I11
tp51
(I8
I11
tp52
(I7
I0
tp53
(I4
I1
tp54
(I6
I12
tp55
(I10
I9
tp56
(I6
I1
tp57
tp58
sg10
I13
sbs(iproblems
RoomID
p59
(dp60
g6
I14
sg7
(I5
I5
tp61
sg9
I5
sg10
I10
sg11
I11
sg12
I6613812840851947673
sb(imulti_robot_problem
MultiRobotState
p62
(dp63
g15
g16
((lp64
(I4
I7
tp65
a(I2
I6
tp66
a(I6
I6
tp67
a(I4
I5
tp68
a(I7
I5
tp69
a(I1
I6
tp70
a(I8
I7
tp71
a(I3
I7
tp72
a(I10
I3
tp73
a(I3
I5
tp74
a(I10
I8
tp75
a(I6
I3
tp76
ag61
a(I8
I5
tp77
a(I7
I4
tp78
a(I3
I8
tp79
a(I0
I6
tp80
a(I3
I6
tp81
a(I1
I3
tp82
a(I8
I6
tp83
a(I2
I4
tp84
atp85
Rp86
sg11
I11
sg32
g16
((lp87
(I6
I4
tp88
a(I3
I2
tp89
a(I4
I6
tp90
a(I4
I9
tp91
a(I3
I3
tp92
a(I9
I8
tp93
a(I8
I0
tp94
a(I8
I8
tp95
a(I5
I0
tp96
a(I1
I0
tp97
a(I8
I4
tp98
a(I5
I2
tp99
a(I6
I1
tp100
a(I9
I7
tp101
atp102
Rp103
sg9
((I5
I1
tp104
(I0
I8
tp105
(I2
I9
tp106
(I4
I1
tp107
(I7
I6
tp108
tp109
sg10
I10
sbs(iproblems
RoomID
p110
(dp111
g6
I15
sg7
(I6
I6
tp112
sg9
I5
sg10
I11
sg11
I11
sg12
I2893396244277848635
sb(imulti_robot_problem
MultiRobotState
p113
(dp114
g15
g16
((lp115
(I7
I3
tp116
a(I4
I7
tp117
a(I5
I5
tp118
a(I4
I8
tp119
a(I5
I6
tp120
a(I2
I8
tp121
ag112
a(I3
I2
tp122
a(I3
I9
tp123
a(I4
I3
tp124
a(I1
I7
tp125
a(I6
I9
tp126
atp127
Rp128
sg11
I11
sg32
g16
((lp129
(I2
I6
tp130
a(I8
I7
tp131
a(I3
I10
tp132
a(I3
I1
tp133
a(I2
I10
tp134
a(I0
I5
tp135
a(I6
I5
tp136
a(I3
I6
tp137
a(I8
I6
tp138
a(I4
I0
tp139
a(I3
I7
tp140
a(I7
I9
tp141
a(I4
I1
tp142
a(I5
I8
tp143
a(I5
I3
tp144
atp145
Rp146
sg9
((I4
I5
tp147
(I0
I9
tp148
(I0
I1
tp149
(I9
I2
tp150
(I8
I10
tp151
tp152
sg10
I11
sbs(iproblems
RoomID
p153
(dp154
g6
I15
sg7
(I4
I8
tp155
sg9
I6
sg10
I13
sg11
I10
sg12
I956523682424107605
sb(imulti_robot_problem
MultiRobotState
p156
(dp157
g15
g16
((lp158
(I5
I9
tp159
a(I6
I9
tp160
a(I7
I10
tp161
ag155
a(I5
I6
tp162
a(I3
I11
tp163
a(I9
I4
tp164
a(I4
I9
tp165
a(I5
I8
tp166
a(I2
I7
tp167
a(I5
I10
tp168
a(I5
I5
tp169
a(I3
I10
tp170
a(I5
I7
tp171
a(I9
I9
tp172
a(I5
I0
tp173
a(I7
I8
tp174
a(I1
I1
tp175
atp176
Rp177
sg11
I10
sg32
g16
((lp178
(I6
I10
tp179
a(I8
I3
tp180
a(I1
I3
tp181
a(I6
I6
tp182
a(I7
I6
tp183
a(I8
I12
tp184
a(I5
I4
tp185
a(I1
I4
tp186
a(I2
I10
tp187
a(I7
I4
tp188
a(I1
I5
tp189
a(I7
I5
tp190
a(I0
I9
tp191
a(I7
I11
tp192
a(I6
I2
tp193
atp194
Rp195
sg9
((I1
I12
tp196
(I6
I12
tp197
(I2
I11
tp198
(I0
I4
tp199
(I9
I1
tp200
(I7
I7
tp201
tp202
sg10
I13
sbs(iproblems
RoomID
p203
(dp204
g6
I13
sg7
(I1
I6
tp205
sg9
I7
sg10
I10
sg11
I10
sg12
I6858376947525423350
sb(imulti_robot_problem
MultiRobotState
p206
(dp207
g15
g16
((lp208
(I4
I7
tp209
a(I1
I3
tp210
a(I2
I8
tp211
a(I2
I2
tp212
a(I2
I1
tp213
a(I2
I3
tp214
a(I9
I5
tp215
a(I2
I5
tp216
a(I2
I7
tp217
a(I2
I9
tp218
a(I8
I1
tp219
ag205
a(I1
I7
tp220
a(I0
I9
tp221
a(I8
I6
tp222
a(I2
I4
tp223
atp224
Rp225
sg11
I10
sg32
g16
((lp226
(I8
I0
tp227
a(I4
I9
tp228
a(I3
I3
tp229
a(I3
I0
tp230
a(I7
I6
tp231
a(I5
I7
tp232
a(I9
I9
tp233
a(I4
I4
tp234
a(I6
I2
tp235
a(I9
I4
tp236
a(I8
I5
tp237
a(I5
I8
tp238
a(I5
I3
tp239
atp240
Rp241
sg9
((I1
I2
tp242
(I7
I5
tp243
(I7
I2
tp244
(I9
I2
tp245
(I1
I5
tp246
(I9
I0
tp247
(I6
I6
tp248
tp249
sg10
I10
sbssS'name'
p250
S'heavy_roomset'
p251
sb.