(imeasure_core
RoomSet
p0
(dp1
S'rooms'
p2
(dp3
(iproblems
RoomID
p4
(dp5
S'dusts'
p6
I11
sS'obstacles'
p7
(I10
I1
tp8
sS'robots'
p9
I7
sS'height'
p10
I12
sS'width'
p11
I13
sS'seed'
p12
I2405875930906139466
sb(imulti_robot_problem
MultiRobotState
p13
(dp14
S'obstacle_locations'
p15
c__builtin__
frozenset
p16
((lp17
(I7
I3
tp18
a(I9
I1
tp19
a(I7
I1
tp20
a(I5
I6
tp21
a(I8
I11
tp22
a(I8
I0
tp23
a(I1
I4
tp24
a(I6
I2
tp25
a(I0
I7
tp26
ag8
a(I10
I3
tp27
a(I7
I2
tp28
a(I10
I4
tp29
a(I11
I7
tp30
a(I9
I0
tp31
a(I11
I5
tp32
a(I7
I4
tp33
a(I1
I5
tp34
a(I10
I2
tp35
a(I11
I6
tp36
a(I8
I4
tp37
atp38
Rp39
sg11
I13
sS'dirt_locations'
p40
g16
((lp41
(I12
I5
tp42
a(I10
I11
tp43
a(I8
I1
tp44
a(I7
I8
tp45
a(I8
I6
tp46
a(I6
I3
tp47
a(I2
I0
tp48
a(I2
I3
tp49
a(I5
I1
tp50
a(I10
I0
tp51
a(I3
I4
tp52
atp53
Rp54
sg9
((I10
I8
tp55
(I9
I2
tp56
(I4
I5
tp57
(I11
I8
tp58
(I1
I2
tp59
(I3
I1
tp60
(I0
I10
tp61
tp62
sg10
I12
sbs(iproblems
RoomID
p63
(dp64
g6
I11
sg7
(I7
I9
tp65
sg9
I6
sg10
I13
sg11
I10
sg12
I8744744311366254845
sb(imulti_robot_problem
MultiRobotState
p66
(dp67
g15
g16
((lp68
(I6
I9
tp69
a(I1
I3
tp70
a(I4
I9
tp71
a(I5
I6
tp72
a(I9
I8
tp73
a(I1
I8
tp74
a(I1
I0
tp75
ag65
a(I3
I4
tp76
a(I5
I8
tp77
a(I9
I7
tp78
atp79
Rp80
sg11
I10
sg40
g16
((lp81
(I0
I1
tp82
a(I7
I3
tp83
a(I9
I0
tp84
a(I1
I12
tp85
a(I4
I10
tp86
a(I5
I11
tp87
a(I9
I10
tp88
a(I7
I11
tp89
a(I3
I7
tp90
a(I0
I8
tp91
a(I9
I6
tp92
atp93
Rp94
sg9
((I0
I10
tp95
(I6
I3
tp96
(I4
I0
tp97
(I1
I6
tp98
(I7
I5
tp99
(I9
I9
tp100
tp101
sg10
I13
sbs(iproblems
RoomID
p102
(dp103
g6
I15
sg7
(I4
I8
tp104
sg9
I6
sg10
I13
sg11
I12
sg12
I4278205817407065157
sb(imulti_robot_problem
MultiRobotState
p105
(dp106
g15
g16
((lp107
(I11
I7
tp108
a(I2
I9
tp109
ag104
a(I5
I6
tp110
a(I2
I8
tp111
a(I6
I10
tp112
a(I3
I8
tp113
a(I11
I8
tp114
a(I3
I9
tp115
a(I1
I10
tp116
a(I1
I11
tp117
a(I7
I8
tp118
a(I2
I4
tp119
atp120
Rp121
sg11
I12
sg40
g16
((lp122
(I1
I2
tp123
a(I0
I1
tp124
a(I5
I4
tp125
a(I5
I7
tp126
a(I10
I4
tp127
a(I7
I1
tp128
a(I3
I1
tp129
a(I10
I5
tp130
a(I4
I7
tp131
a(I9
I9
tp132
a(I0
I10
tp133
a(I4
I3
tp134
a(I8
I12
tp135
a(I4
I1
tp136
a(I0
I2
tp137
atp138
Rp139
sg9
((I7
I10
tp140
(I6
I12
tp141
(I2
I0
tp142
(I9
I1
tp143
(I10
I3
tp144
(I4
I0
tp145
tp146
sg10
I13
sbs(iproblems
RoomID
p147
(dp148
g6
I15
sg7
(I5
I8
tp149
sg9
I7
sg10
I13
sg11
I11
sg12
I8655808914197340073
sb(imulti_robot_problem
MultiRobotState
p150
(dp151
g15
g16
((lp152
(I5
I9
tp153
a(I6
I7
tp154
a(I6
I11
tp155
a(I1
I4
tp156
a(I0
I12
tp157
a(I0
I11
tp158
a(I7
I5
tp159
a(I1
I6
tp160
a(I0
I4
tp161
a(I5
I10
tp162
a(I3
I9
tp163
a(I4
I9
tp164
a(I10
I3
tp165
ag149
atp166
Rp167
sg11
I11
sg40
g16
((lp168
(I2
I7
tp169
a(I7
I3
tp170
a(I4
I6
tp171
a(I1
I12
tp172
a(I5
I6
tp173
a(I8
I5
tp174
a(I7
I7
tp175
a(I7
I9
tp176
a(I2
I0
tp177
a(I9
I4
tp178
a(I7
I10
tp179
a(I0
I8
tp180
a(I9
I6
tp181
a(I6
I5
tp182
a(I9
I7
tp183
atp184
Rp185
sg9
((I9
I11
tp186
(I8
I1
tp187
(I3
I4
tp188
(I8
I7
tp189
(I9
I1
tp190
(I2
I10
tp191
(I2
I12
tp192
tp193
sg10
I13
sbs(iproblems
RoomID
p194
(dp195
g6
I15
sg7
(I3
I6
tp196
sg9
I7
sg10
I10
sg11
I13
sg12
I2796939073032698495
sb(imulti_robot_problem
MultiRobotState
p197
(dp198
g15
g16
((lp199
(I5
I9
tp200
a(I6
I9
tp201
a(I4
I6
tp202
a(I5
I0
tp203
a(I6
I6
tp204
a(I4
I5
tp205
a(I5
I4
tp206
a(I6
I7
tp207
a(I6
I2
tp208
a(I0
I5
tp209
a(I8
I7
tp210
a(I5
I1
tp211
a(I6
I4
tp212
a(I12
I9
tp213
a(I5
I8
tp214
a(I5
I3
tp215
a(I2
I7
tp216
a(I4
I9
tp217
a(I5
I5
tp218
a(I3
I1
tp219
a(I4
I8
tp220
a(I2
I0
tp221
a(I3
I9
tp222
a(I6
I5
tp223
ag196
a(I5
I7
tp224
a(I7
I8
tp225
atp226
Rp227
sg11
I13
sg40
g16
((lp228
(I1
I2
tp229
a(I8
I2
tp230
a(I2
I9
tp231
a(I12
I0
tp232
a(I4
I1
tp233
a(I12
I8
tp234
a(I6
I0
tp235
a(I9
I9
tp236
a(I2
I3
tp237
a(I9
I4
tp238
a(I1
I7
tp239
a(I0
I9
tp240
a(I7
I9
tp241
a(I3
I4
tp242
a(I3
I3
tp243
atp244
Rp245
sg9
((I10
I2
tp246
(I11
I8
tp247
(I12
I5
tp248
(I8
I9
tp249
(I10
I3
tp250
(I0
I3
tp251
(I11
I2
tp252
tp253
sg10
I10
sbssS'name'
p254
S'heavy_roomset'
p255
sb.