(imeasure_core
RoomSet
p0
(dp1
S'rooms'
p2
(dp3
(iproblems
RoomID
p4
(dp5
S'dusts'
p6
I12
sS'obstacles'
p7
(I6
I3
tp8
sS'robots'
p9
I5
sS'height'
p10
I10
sS'width'
p11
I12
sS'seed'
p12
I1486246605650367638
sb(imulti_robot_problem
MultiRobotState
p13
(dp14
S'obstacle_locations'
p15
c__builtin__
frozenset
p16
((lp17
(I5
I9
tp18
a(I1
I3
tp19
a(I7
I1
tp20
a(I2
I7
tp21
a(I1
I4
tp22
a(I6
I2
tp23
a(I1
I6
tp24
a(I2
I1
tp25
a(I0
I3
tp26
a(I6
I5
tp27
a(I1
I2
tp28
a(I1
I5
tp29
a(I4
I1
tp30
a(I3
I1
tp31
ag8
a(I2
I0
tp32
a(I10
I0
tp33
a(I5
I2
tp34
a(I1
I1
tp35
a(I8
I4
tp36
atp37
Rp38
sg11
I12
sS'dirt_locations'
p39
g16
((lp40
(I11
I7
tp41
a(I11
I4
tp42
a(I9
I1
tp43
a(I11
I8
tp44
a(I2
I8
tp45
a(I6
I0
tp46
a(I0
I6
tp47
a(I11
I1
tp48
a(I0
I4
tp49
a(I4
I9
tp50
a(I10
I9
tp51
a(I9
I7
tp52
atp53
Rp54
sg9
((I2
I4
tp55
(I10
I1
tp56
(I2
I5
tp57
(I9
I8
tp58
(I6
I6
tp59
tp60
sg10
I10
sbs(iproblems
RoomID
p61
(dp62
g6
I14
sg7
(I7
I6
tp63
sg9
I7
sg10
I13
sg11
I13
sg12
I679259829289197625
sb(imulti_robot_problem
MultiRobotState
p64
(dp65
g15
g16
((lp66
(I6
I4
tp67
a(I4
I8
tp68
a(I12
I7
tp69
a(I10
I6
tp70
a(I7
I5
tp71
a(I12
I11
tp72
a(I9
I6
tp73
a(I1
I2
tp74
a(I11
I7
tp75
a(I10
I7
tp76
ag63
a(I6
I3
tp77
a(I6
I2
tp78
a(I4
I3
tp79
a(I3
I4
tp80
a(I12
I8
tp81
atp82
Rp83
sg11
I13
sg39
g16
((lp84
(I2
I7
tp85
a(I12
I1
tp86
a(I9
I2
tp87
a(I2
I8
tp88
a(I5
I7
tp89
a(I10
I0
tp90
a(I1
I4
tp91
a(I0
I12
tp92
a(I7
I4
tp93
a(I10
I9
tp94
a(I4
I2
tp95
a(I11
I4
tp96
a(I11
I6
tp97
a(I1
I9
tp98
atp99
Rp100
sg9
((I9
I11
tp101
(I9
I10
tp102
(I4
I7
tp103
(I4
I12
tp104
(I7
I1
tp105
(I1
I8
tp106
(I1
I6
tp107
tp108
sg10
I13
sbs(iproblems
RoomID
p109
(dp110
g6
I11
sg7
(I11
I9
tp111
sg9
I7
sg10
I12
sg11
I12
sg12
I5891625650498269233
sb(imulti_robot_problem
MultiRobotState
p112
(dp113
g15
g16
((lp114
(I4
I4
tp115
a(I4
I8
tp116
a(I5
I6
tp117
a(I8
I11
tp118
ag111
a(I7
I7
tp119
a(I7
I1
tp120
a(I9
I10
tp121
a(I3
I9
tp122
a(I1
I9
tp123
a(I6
I7
tp124
a(I10
I7
tp125
a(I7
I6
tp126
a(I5
I7
tp127
a(I2
I11
tp128
a(I6
I11
tp129
a(I9
I11
tp130
a(I7
I10
tp131
a(I10
I9
tp132
atp133
Rp134
sg11
I12
sg39
g16
((lp135
(I11
I7
tp136
a(I11
I4
tp137
a(I4
I6
tp138
a(I5
I11
tp139
a(I8
I10
tp140
a(I0
I5
tp141
a(I8
I7
tp142
a(I1
I7
tp143
a(I10
I1
tp144
a(I1
I1
tp145
a(I5
I5
tp146
atp147
Rp148
sg9
((I6
I8
tp149
(I9
I2
tp150
(I0
I6
tp151
(I10
I3
tp152
(I9
I5
tp153
(I5
I0
tp154
(I9
I8
tp155
tp156
sg10
I12
sbs(iproblems
RoomID
p157
(dp158
g6
I10
sg7
(I6
I9
tp159
sg9
I5
sg10
I12
sg11
I12
sg12
I2685440357799139976
sb(imulti_robot_problem
MultiRobotState
p160
(dp161
g15
g16
((lp162
(I4
I10
tp163
ag159
a(I9
I1
tp164
a(I5
I11
tp165
a(I3
I0
tp166
a(I0
I7
tp167
a(I3
I9
tp168
a(I0
I5
tp169
a(I1
I4
tp170
a(I0
I3
tp171
a(I4
I0
tp172
a(I1
I2
tp173
a(I11
I10
tp174
a(I6
I10
tp175
a(I5
I6
tp176
a(I9
I11
tp177
a(I7
I9
tp178
a(I4
I5
tp179
a(I3
I5
tp180
a(I3
I4
tp181
a(I2
I4
tp182
a(I1
I9
tp183
atp184
Rp185
sg11
I12
sg39
g16
((lp186
(I11
I7
tp187
a(I8
I3
tp188
a(I10
I11
tp189
a(I7
I1
tp190
a(I10
I5
tp191
a(I8
I10
tp192
a(I6
I3
tp193
a(I3
I6
tp194
a(I9
I10
tp195
a(I6
I5
tp196
atp197
Rp198
sg9
((I7
I7
tp199
(I0
I0
tp200
(I11
I9
tp201
(I0
I2
tp202
(I4
I1
tp203
tp204
sg10
I12
sbs(iproblems
RoomID
p205
(dp206
g6
I11
sg7
(I2
I7
tp207
sg9
I6
sg10
I11
sg11
I13
sg12
I403795515464475257
sb(imulti_robot_problem
MultiRobotState
p208
(dp209
g15
g16
((lp210
g207
a(I10
I8
tp211
a(I1
I7
tp212
a(I3
I10
tp213
a(I4
I4
tp214
a(I1
I4
tp215
a(I12
I5
tp216
a(I0
I6
tp217
a(I0
I5
tp218
a(I3
I6
tp219
a(I2
I2
tp220
a(I0
I8
tp221
a(I7
I9
tp222
atp223
Rp224
sg11
I13
sg39
g16
((lp225
(I6
I4
tp226
a(I0
I0
tp227
a(I2
I9
tp228
a(I11
I5
tp229
a(I8
I9
tp230
a(I11
I1
tp231
a(I2
I3
tp232
a(I1
I10
tp233
a(I12
I2
tp234
a(I0
I3
tp235
a(I5
I2
tp236
atp237
Rp238
sg9
((I10
I3
tp239
(I7
I2
tp240
(I7
I0
tp241
(I3
I1
tp242
(I5
I10
tp243
(I9
I4
tp244
tp245
sg10
I11
sbssS'name'
p246
S'heavy_roomset'
p247
sb.