(imeasure_core
RoomSet
p0
(dp1
S'rooms'
p2
(dp3
(iproblems
RoomID
p4
(dp5
S'dusts'
p6
I13
sS'obstacles'
p7
(I8
I4
tp8
sS'robots'
p9
I7
sS'height'
p10
I12
sS'width'
p11
I10
sS'seed'
p12
I7283207964119141687
sb(imulti_robot_problem
MultiRobotState
p13
(dp14
S'obstacle_locations'
p15
c__builtin__
frozenset
p16
((lp17
(I6
I3
tp18
a(I5
I2
tp19
a(I6
I10
tp20
a(I6
I0
tp21
a(I7
I4
tp22
a(I0
I11
tp23
a(I6
I2
tp24
a(I3
I6
tp25
a(I2
I2
tp26
a(I0
I4
tp27
a(I3
I4
tp28
a(I5
I8
tp29
ag8
atp30
Rp31
sg11
I10
sS'dirt_locations'
p32
g16
((lp33
(I7
I3
tp34
a(I6
I7
tp35
a(I6
I8
tp36
a(I7
I1
tp37
a(I8
I1
tp38
a(I4
I4
tp39
a(I6
I6
tp40
a(I5
I6
tp41
a(I1
I9
tp42
a(I5
I0
tp43
a(I9
I10
tp44
a(I9
I6
tp45
a(I7
I9
tp46
atp47
Rp48
sg9
((I1
I7
tp49
(I7
I6
tp50
(I4
I6
tp51
(I2
I1
tp52
(I6
I4
tp53
(I0
I9
tp54
(I8
I0
tp55
tp56
sg10
I12
sbs(iproblems
RoomID
p57
(dp58
g6
I13
sg7
(I8
I3
tp59
sg9
I5
sg10
I13
sg11
I11
sg12
I890727360438182992
sb(imulti_robot_problem
MultiRobotState
p60
(dp61
g15
g16
((lp62
(I4
I10
tp63
a(I6
I9
tp64
a(I8
I2
tp65
a(I5
I9
tp66
a(I9
I8
tp67
ag59
a(I4
I12
tp68
a(I0
I10
tp69
a(I8
I7
tp70
a(I9
I1
tp71
a(I9
I0
tp72
a(I6
I8
tp73
a(I6
I10
tp74
a(I8
I8
tp75
a(I8
I6
tp76
a(I7
I8
tp77
a(I0
I2
tp78
atp79
Rp80
sg11
I11
sg32
g16
((lp81
(I10
I5
tp82
a(I0
I0
tp83
a(I4
I6
tp84
a(I0
I6
tp85
a(I9
I2
tp86
a(I8
I11
tp87
a(I2
I1
tp88
a(I9
I10
tp89
a(I1
I5
tp90
a(I0
I4
tp91
a(I0
I9
tp92
a(I5
I2
tp93
a(I4
I11
tp94
atp95
Rp96
sg9
((I3
I10
tp97
(I2
I7
tp98
(I9
I4
tp99
(I2
I11
tp100
(I7
I1
tp101
tp102
sg10
I13
sbs(iproblems
RoomID
p103
(dp104
g6
I15
sg7
(I6
I9
tp105
sg9
I7
sg10
I11
sg11
I12
sg12
I3960482443532127989
sb(imulti_robot_problem
MultiRobotState
p106
(dp107
g15
g16
((lp108
(I5
I9
tp109
ag105
a(I9
I1
tp110
a(I4
I10
tp111
a(I5
I6
tp112
a(I7
I7
tp113
a(I2
I10
tp114
a(I3
I9
tp115
a(I9
I4
tp116
a(I5
I10
tp117
a(I6
I4
tp118
a(I6
I5
tp119
a(I1
I2
tp120
a(I7
I4
tp121
a(I8
I3
tp122
a(I6
I7
tp123
a(I2
I9
tp124
a(I10
I7
tp125
a(I5
I7
tp126
a(I6
I3
tp127
a(I8
I1
tp128
a(I0
I9
tp129
a(I8
I6
tp130
a(I7
I8
tp131
a(I11
I6
tp132
a(I9
I7
tp133
atp134
Rp135
sg11
I12
sg32
g16
((lp136
(I7
I3
tp137
a(I2
I6
tp138
a(I5
I5
tp139
a(I3
I0
tp140
a(I3
I8
tp141
a(I0
I6
tp142
a(I11
I1
tp143
a(I1
I6
tp144
a(I4
I3
tp145
a(I1
I7
tp146
a(I1
I3
tp147
a(I1
I0
tp148
a(I10
I1
tp149
a(I1
I1
tp150
a(I10
I2
tp151
atp152
Rp153
sg9
((I11
I10
tp154
(I1
I8
tp155
(I10
I5
tp156
(I11
I0
tp157
(I4
I8
tp158
(I7
I9
tp159
(I7
I1
tp160
tp161
sg10
I11
sbs(iproblems
RoomID
p162
(dp163
g6
I10
sg7
(I10
I4
tp164
sg9
I5
sg10
I10
sg11
I11
sg12
I1736392818365009963
sb(imulti_robot_problem
MultiRobotState
p165
(dp166
g15
g16
((lp167
(I0
I1
tp168
a(I1
I2
tp169
a(I3
I2
tp170
ag164
a(I4
I5
tp171
a(I7
I4
tp172
a(I6
I2
tp173
a(I2
I3
tp174
a(I10
I1
tp175
a(I3
I8
tp176
a(I10
I0
tp177
a(I10
I3
tp178
a(I10
I2
tp179
atp180
Rp181
sg11
I11
sg32
g16
((lp182
(I5
I9
tp183
a(I5
I5
tp184
a(I3
I1
tp185
a(I8
I8
tp186
a(I0
I5
tp187
a(I3
I9
tp188
a(I8
I4
tp189
a(I4
I1
tp190
a(I6
I5
tp191
a(I5
I3
tp192
atp193
Rp194
sg9
((I4
I2
tp195
(I1
I0
tp196
(I9
I3
tp197
(I1
I9
tp198
(I0
I2
tp199
tp200
sg10
I10
sbs(iproblems
RoomID
p201
(dp202
g6
I12
sg7
(I6
I9
tp203
sg9
I6
sg10
I13
sg11
I13
sg12
I1585446675937841368
sb(imulti_robot_problem
MultiRobotState
p204
(dp205
g15
g16
((lp206
(I7
I3
tp207
ag203
a(I8
I11
tp208
a(I7
I7
tp209
a(I4
I12
tp210
a(I10
I3
tp211
a(I5
I8
tp212
a(I7
I4
tp213
a(I1
I12
tp214
a(I2
I9
tp215
a(I8
I1
tp216
a(I7
I6
tp217
a(I6
I3
tp218
a(I9
I2
tp219
a(I7
I5
tp220
a(I7
I2
tp221
a(I7
I10
tp222
a(I8
I4
tp223
a(I3
I4
tp224
a(I2
I4
tp225
a(I9
I12
tp226
a(I9
I7
tp227
atp228
Rp229
sg11
I13
sg32
g16
((lp230
(I3
I3
tp231
a(I2
I8
tp232
a(I12
I9
tp233
a(I6
I10
tp234
a(I8
I10
tp235
a(I2
I10
tp236
a(I12
I5
tp237
a(I4
I3
tp238
a(I5
I1
tp239
a(I7
I9
tp240
a(I5
I2
tp241
a(I3
I5
tp242
atp243
Rp244
sg9
((I10
I11
tp245
(I5
I5
tp246
(I12
I11
tp247
(I1
I10
tp248
(I3
I12
tp249
(I10
I4
tp250
tp251
sg10
I13
sbssS'name'
p252
S'heavy_roomset'
p253
sb.