(imeasure_core
RoomSet
p0
(dp1
S'rooms'
p2
(dp3
(iproblems
RoomID
p4
(dp5
S'dusts'
p6
I13
sS'obstacles'
p7
(I3
I4
tp8
sS'robots'
p9
I6
sS'height'
p10
I10
sS'width'
p11
I12
sS'seed'
p12
I1689441204489037471
sb(imulti_robot_problem
MultiRobotState
p13
(dp14
S'obstacle_locations'
p15
c__builtin__
frozenset
p16
((lp17
(I7
I3
tp18
a(I1
I3
tp19
a(I8
I7
tp20
a(I10
I6
tp21
a(I7
I7
tp22
a(I6
I2
tp23
a(I1
I6
tp24
a(I9
I4
tp25
a(I4
I2
tp26
a(I5
I1
tp27
a(I10
I3
tp28
a(I2
I7
tp29
a(I9
I3
tp30
a(I9
I5
tp31
a(I0
I5
tp32
a(I11
I5
tp33
a(I8
I5
tp34
a(I5
I2
tp35
a(I0
I2
tp36
a(I3
I8
tp37
a(I4
I3
tp38
a(I0
I4
tp39
ag8
a(I8
I6
tp40
a(I4
I1
tp41
a(I1
I1
tp42
a(I8
I4
tp43
atp44
Rp45
sg11
I12
sS'dirt_locations'
p46
g16
((lp47
(I8
I9
tp48
a(I9
I0
tp49
a(I0
I0
tp50
a(I10
I4
tp51
a(I4
I8
tp52
a(I8
I1
tp53
a(I11
I2
tp54
a(I5
I4
tp55
a(I7
I4
tp56
a(I11
I8
tp57
a(I2
I6
tp58
a(I2
I3
tp59
a(I1
I5
tp60
atp61
Rp62
sg9
((I8
I0
tp63
(I7
I6
tp64
(I8
I8
tp65
(I7
I0
tp66
(I2
I4
tp67
(I9
I9
tp68
tp69
sg10
I10
sbs(iproblems
RoomID
p70
(dp71
g6
I15
sg7
(I10
I7
tp72
sg9
I6
sg10
I11
sg11
I13
sg12
I6660334802794327005
sb(imulti_robot_problem
MultiRobotState
p73
(dp74
g15
g16
((lp75
(I4
I7
tp76
a(I11
I7
tp77
a(I5
I6
tp78
a(I2
I8
tp79
a(I9
I9
tp80
a(I9
I10
tp81
a(I10
I8
tp82
a(I9
I0
tp83
ag72
a(I5
I7
tp84
a(I8
I10
tp85
a(I3
I8
tp86
a(I1
I5
tp87
a(I1
I8
tp88
a(I1
I10
tp89
a(I10
I0
tp90
a(I2
I4
tp91
atp92
Rp93
sg11
I13
sg46
g16
((lp94
(I2
I7
tp95
a(I12
I2
tp96
a(I6
I9
tp97
a(I6
I10
tp98
a(I12
I1
tp99
a(I2
I9
tp100
a(I12
I0
tp101
a(I12
I9
tp102
a(I11
I2
tp103
a(I10
I6
tp104
a(I1
I7
tp105
a(I12
I5
tp106
a(I6
I3
tp107
a(I10
I3
tp108
a(I12
I8
tp109
atp110
Rp111
sg9
((I9
I5
tp112
(I5
I10
tp113
(I5
I3
tp114
(I5
I1
tp115
(I9
I3
tp116
(I7
I8
tp117
tp118
sg10
I11
sbs(iproblems
RoomID
p119
(dp120
g6
I11
sg7
(I7
I6
tp121
sg9
I7
sg10
I13
sg11
I12
sg12
I3119042104763040036
sb(imulti_robot_problem
MultiRobotState
p122
(dp123
g15
g16
((lp124
(I5
I4
tp125
a(I4
I5
tp126
a(I9
I8
tp127
a(I10
I6
tp128
a(I9
I0
tp129
a(I6
I0
tp130
a(I8
I9
tp131
a(I2
I12
tp132
a(I9
I6
tp133
a(I10
I5
tp134
a(I5
I10
tp135
a(I10
I7
tp136
ag121
a(I9
I9
tp137
a(I8
I6
tp138
a(I11
I6
tp139
a(I9
I7
tp140
atp141
Rp142
sg11
I12
sg46
g16
((lp143
(I1
I2
tp144
a(I4
I4
tp145
a(I5
I11
tp146
a(I5
I6
tp147
a(I3
I4
tp148
a(I8
I0
tp149
a(I8
I10
tp150
a(I0
I11
tp151
a(I2
I3
tp152
a(I7
I8
tp153
a(I4
I0
tp154
atp155
Rp156
sg9
((I7
I12
tp157
(I8
I2
tp158
(I4
I6
tp159
(I3
I9
tp160
(I9
I11
tp161
(I11
I9
tp162
(I9
I3
tp163
tp164
sg10
I13
sbs(iproblems
RoomID
p165
(dp166
g6
I11
sg7
(I6
I1
tp167
sg9
I7
sg10
I13
sg11
I10
sg12
I3914746131789064238
sb(imulti_robot_problem
MultiRobotState
p168
(dp169
g15
g16
((lp170
(I0
I0
tp171
a(I7
I0
tp172
a(I9
I1
tp173
a(I2
I9
tp174
a(I7
I1
tp175
a(I9
I2
tp176
ag167
a(I6
I3
tp177
a(I8
I1
tp178
a(I7
I2
tp179
a(I5
I1
tp180
a(I7
I8
tp181
a(I6
I5
tp182
a(I5
I5
tp183
atp184
Rp185
sg11
I10
sg46
g16
((lp186
(I4
I7
tp187
a(I3
I3
tp188
a(I4
I5
tp189
a(I4
I4
tp190
a(I1
I4
tp191
a(I0
I11
tp192
a(I0
I5
tp193
a(I0
I10
tp194
a(I8
I7
tp195
a(I9
I5
tp196
a(I5
I3
tp197
atp198
Rp199
sg9
((I1
I11
tp200
(I8
I4
tp201
(I2
I12
tp202
(I1
I9
tp203
(I2
I11
tp204
(I5
I4
tp205
(I5
I0
tp206
tp207
sg10
I13
sbs(iproblems
RoomID
p208
(dp209
g6
I12
sg7
(I8
I7
tp210
sg9
I7
sg10
I12
sg11
I12
sg12
I4640892725076559864
sb(imulti_robot_problem
MultiRobotState
p211
(dp212
g15
g16
((lp213
(I5
I9
tp214
a(I6
I9
tp215
a(I4
I8
tp216
a(I5
I6
tp217
a(I2
I8
tp218
a(I6
I0
tp219
a(I2
I10
tp220
a(I0
I9
tp221
a(I6
I2
tp222
ag210
a(I3
I7
tp223
a(I5
I1
tp224
a(I1
I0
tp225
a(I8
I5
tp226
a(I7
I9
tp227
a(I7
I4
tp228
a(I7
I0
tp229
a(I6
I8
tp230
a(I2
I9
tp231
a(I0
I6
tp232
a(I7
I6
tp233
a(I5
I7
tp234
a(I8
I10
tp235
a(I0
I2
tp236
a(I6
I3
tp237
a(I2
I0
tp238
a(I1
I8
tp239
a(I4
I5
tp240
a(I5
I2
tp241
a(I1
I1
tp242
a(I9
I7
tp243
atp244
Rp245
sg11
I12
sg46
g16
((lp246
(I2
I7
tp247
a(I6
I4
tp248
a(I11
I10
tp249
a(I4
I6
tp250
a(I11
I8
tp251
a(I11
I2
tp252
a(I9
I3
tp253
a(I3
I2
tp254
a(I8
I8
tp255
a(I0
I5
tp256
a(I10
I3
tp257
a(I5
I3
tp258
atp259
Rp260
sg9
((I8
I6
tp261
(I11
I5
tp262
(I10
I8
tp263
(I9
I0
tp264
(I9
I4
tp265
(I9
I2
tp266
(I4
I11
tp267
tp268
sg10
I12
sbssS'name'
p269
S'heavy_roomset'
p270
sb.