(imeasure_core
RoomSet
p0
(dp1
S'rooms'
p2
(dp3
(iproblems
RoomID
p4
(dp5
S'dusts'
p6
I13
sS'obstacles'
p7
(I5
I3
tp8
sS'robots'
p9
I6
sS'height'
p10
I13
sS'width'
p11
I10
sS'seed'
p12
I7106521602475165645
sb(imulti_robot_problem
MultiRobotState
p13
(dp14
S'obstacle_locations'
p15
c__builtin__
frozenset
p16
((lp17
(I5
I6
tp18
a(I5
I11
tp19
a(I7
I12
tp20
a(I0
I12
tp21
a(I2
I3
tp22
a(I6
I12
tp23
a(I7
I2
tp24
ag8
a(I1
I2
tp25
a(I4
I5
tp26
a(I8
I12
tp27
a(I7
I1
tp28
a(I2
I11
tp29
a(I6
I3
tp30
a(I6
I11
tp31
a(I0
I4
tp32
a(I0
I9
tp33
a(I0
I5
tp34
a(I3
I4
tp35
atp36
Rp37
sg11
I10
sS'dirt_locations'
p38
g16
((lp39
(I0
I1
tp40
a(I8
I3
tp41
a(I4
I6
tp42
a(I7
I11
tp43
a(I6
I9
tp44
a(I0
I11
tp45
a(I3
I9
tp46
a(I2
I12
tp47
a(I8
I6
tp48
a(I5
I1
tp49
a(I3
I7
tp50
a(I0
I3
tp51
a(I3
I5
tp52
atp53
Rp54
sg9
((I0
I10
tp55
(I6
I7
tp56
(I4
I11
tp57
(I1
I11
tp58
(I9
I0
tp59
(I3
I1
tp60
tp61
sg10
I13
sbs(iproblems
RoomID
p62
(dp63
g6
I15
sg7
(I9
I4
tp64
sg9
I6
sg10
I13
sg11
I11
sg12
I746805015404516437
sb(imulti_robot_problem
MultiRobotState
p65
(dp66
g15
g16
((lp67
(I8
I0
tp68
a(I4
I8
tp69
a(I4
I5
tp70
a(I10
I6
tp71
a(I6
I0
tp72
a(I3
I5
tp73
a(I3
I9
tp74
ag64
a(I4
I2
tp75
a(I7
I2
tp76
a(I7
I9
tp77
a(I10
I5
tp78
a(I5
I5
tp79
a(I4
I4
tp80
a(I1
I8
tp81
a(I8
I6
tp82
a(I5
I3
tp83
a(I5
I2
tp84
a(I2
I4
tp85
a(I9
I7
tp86
atp87
Rp88
sg11
I11
sg38
g16
((lp89
(I3
I12
tp90
a(I9
I1
tp91
a(I7
I1
tp92
a(I8
I1
tp93
a(I6
I10
tp94
a(I8
I9
tp95
a(I2
I0
tp96
a(I2
I3
tp97
a(I0
I10
tp98
a(I2
I2
tp99
a(I7
I11
tp100
a(I2
I5
tp101
a(I8
I5
tp102
a(I5
I8
tp103
a(I4
I11
tp104
atp105
Rp106
sg9
((I4
I10
tp107
(I6
I11
tp108
(I5
I12
tp109
(I0
I5
tp110
(I1
I0
tp111
(I7
I10
tp112
tp113
sg10
I13
sbs(iproblems
RoomID
p114
(dp115
g6
I10
sg7
(I6
I7
tp116
sg9
I5
sg10
I12
sg11
I11
sg12
I6604845167042249220
sb(imulti_robot_problem
MultiRobotState
p117
(dp118
g15
g16
((lp119
(I9
I0
tp120
ag116
a(I7
I1
tp121
a(I2
I8
tp122
a(I10
I6
tp123
a(I7
I7
tp124
a(I8
I8
tp125
a(I9
I4
tp126
a(I8
I6
tp127
a(I7
I11
tp128
a(I9
I7
tp129
atp130
Rp131
sg11
I11
sg38
g16
((lp132
(I10
I5
tp133
a(I3
I3
tp134
a(I5
I11
tp135
a(I8
I1
tp136
a(I9
I8
tp137
a(I6
I9
tp138
a(I0
I7
tp139
a(I0
I10
tp140
a(I4
I1
tp141
a(I8
I4
tp142
atp143
Rp144
sg9
((I4
I8
tp145
(I1
I0
tp146
(I2
I2
tp147
(I3
I11
tp148
(I6
I5
tp149
tp150
sg10
I12
sbs(iproblems
RoomID
p151
(dp152
g6
I15
sg7
(I5
I5
tp153
sg9
I6
sg10
I13
sg11
I13
sg12
I2569146471088859254
sb(imulti_robot_problem
MultiRobotState
p154
(dp155
g15
g16
((lp156
(I12
I2
tp157
a(I5
I4
tp158
a(I3
I3
tp159
a(I5
I9
tp160
a(I4
I5
tp161
a(I6
I1
tp162
a(I10
I10
tp163
a(I8
I8
tp164
a(I4
I3
tp165
a(I2
I2
tp166
a(I9
I11
tp167
a(I8
I12
tp168
a(I1
I1
tp169
a(I12
I3
tp170
ag153
atp171
Rp172
sg11
I13
sg38
g16
((lp173
(I10
I5
tp174
a(I3
I12
tp175
a(I8
I2
tp176
a(I5
I6
tp177
a(I12
I7
tp178
a(I11
I3
tp179
a(I0
I2
tp180
a(I11
I0
tp181
a(I0
I9
tp182
a(I2
I12
tp183
a(I1
I10
tp184
a(I3
I7
tp185
a(I10
I11
tp186
a(I2
I4
tp187
a(I5
I12
tp188
atp189
Rp190
sg9
((I9
I12
tp191
(I7
I11
tp192
(I7
I0
tp193
(I10
I1
tp194
(I1
I5
tp195
(I4
I0
tp196
tp197
sg10
I13
sbs(iproblems
RoomID
p198
(dp199
g6
I11
sg7
(I9
I6
tp200
sg9
I6
sg10
I10
sg11
I12
sg12
I4029557120079369747
sb(imulti_robot_problem
MultiRobotState
p201
(dp202
g15
g16
((lp203
(I11
I7
tp204
a(I10
I6
tp205
a(I5
I5
tp206
a(I7
I1
tp207
a(I10
I7
tp208
a(I9
I8
tp209
a(I4
I4
tp210
a(I1
I6
tp211
a(I3
I6
tp212
a(I1
I7
tp213
ag200
a(I11
I6
tp214
atp215
Rp216
sg11
I12
sg38
g16
((lp217
(I1
I2
tp218
a(I1
I3
tp219
a(I4
I9
tp220
a(I8
I2
tp221
a(I8
I1
tp222
a(I6
I1
tp223
a(I2
I1
tp224
a(I7
I4
tp225
a(I1
I8
tp226
a(I5
I2
tp227
a(I1
I1
tp228
atp229
Rp230
sg9
((I8
I0
tp231
(I4
I1
tp232
(I4
I0
tp233
(I3
I9
tp234
(I8
I9
tp235
(I3
I8
tp236
tp237
sg10
I10
sbssS'name'
p238
S'heavy_roomset'
p239
sb.