(imeasure_core
RoomSet
p0
(dp1
S'rooms'
p2
(dp3
(iproblems
RoomID
p4
(dp5
S'dusts'
p6
I11
sS'obstacles'
p7
(I7
I9
tp8
sS'robots'
p9
I5
sS'height'
p10
I12
sS'width'
p11
I12
sS'seed'
p12
I1164115433906158532
sb(imulti_robot_problem
MultiRobotState
p13
(dp14
S'obstacle_locations'
p15
c__builtin__
frozenset
p16
((lp17
(I4
I7
tp18
a(I1
I3
tp19
a(I5
I6
tp20
a(I9
I3
tp21
a(I1
I4
tp22
a(I0
I5
tp23
a(I7
I11
tp24
a(I1
I0
tp25
a(I5
I8
tp26
a(I3
I3
tp27
a(I3
I1
tp28
a(I6
I7
tp29
a(I6
I8
tp30
a(I7
I8
tp31
a(I5
I7
tp32
ag8
a(I4
I1
tp33
a(I0
I2
tp34
atp35
Rp36
sg11
I12
sS'dirt_locations'
p37
g16
((lp38
(I4
I10
tp39
a(I9
I0
tp40
a(I2
I6
tp41
a(I5
I10
tp42
a(I9
I2
tp43
a(I0
I7
tp44
a(I8
I9
tp45
a(I1
I6
tp46
a(I8
I5
tp47
a(I4
I11
tp48
a(I5
I3
tp49
atp50
Rp51
sg9
((I1
I2
tp52
(I2
I11
tp53
(I2
I0
tp54
(I2
I9
tp55
(I11
I7
tp56
tp57
sg10
I12
sbs(iproblems
RoomID
p58
(dp59
g6
I10
sg7
(I0
I7
tp60
sg9
I7
sg10
I10
sg11
I10
sg12
I8711387064946514083
sb(imulti_robot_problem
MultiRobotState
p61
(dp62
g15
g16
((lp63
(I5
I9
tp64
a(I6
I9
tp65
a(I2
I6
tp66
a(I2
I9
tp67
a(I0
I6
tp68
ag60
a(I1
I5
tp69
a(I8
I8
tp70
a(I0
I5
tp71
a(I4
I3
tp72
a(I0
I4
tp73
a(I0
I3
tp74
a(I9
I7
tp75
a(I0
I2
tp76
a(I7
I9
tp77
atp78
Rp79
sg11
I10
sg37
g16
((lp80
(I9
I0
tp81
a(I3
I3
tp82
a(I7
I1
tp83
a(I8
I1
tp84
a(I9
I8
tp85
a(I4
I4
tp86
a(I9
I9
tp87
a(I3
I6
tp88
a(I1
I7
tp89
a(I8
I6
tp90
atp91
Rp92
sg9
((I1
I1
tp93
(I8
I0
tp94
(I7
I0
tp95
(I2
I5
tp96
(I6
I7
tp97
(I8
I9
tp98
(I5
I8
tp99
tp100
sg10
I10
sbs(iproblems
RoomID
p101
(dp102
g6
I10
sg7
(I6
I7
tp103
sg9
I6
sg10
I10
sg11
I13
sg12
I8999366892653588108
sb(imulti_robot_problem
MultiRobotState
p104
(dp105
g15
g16
((lp106
(I5
I4
tp107
ag103
a(I5
I5
tp108
a(I5
I6
tp109
a(I7
I6
tp110
a(I4
I2
tp111
a(I2
I3
tp112
a(I8
I6
tp113
a(I12
I1
tp114
a(I5
I3
tp115
a(I6
I5
tp116
a(I3
I3
tp117
atp118
Rp119
sg11
I13
sg37
g16
((lp120
(I6
I9
tp121
a(I7
I0
tp122
a(I5
I7
tp123
a(I12
I6
tp124
a(I2
I1
tp125
a(I0
I5
tp126
a(I10
I1
tp127
a(I0
I3
tp128
a(I7
I9
tp129
a(I3
I5
tp130
atp131
Rp132
sg9
((I12
I0
tp133
(I6
I1
tp134
(I2
I2
tp135
(I6
I4
tp136
(I4
I6
tp137
(I7
I1
tp138
tp139
sg10
I10
sbs(iproblems
RoomID
p140
(dp141
g6
I14
sg7
(I0
I3
tp142
sg9
I7
sg10
I12
sg11
I13
sg12
I7002664860023442459
sb(imulti_robot_problem
MultiRobotState
p143
(dp144
g15
g16
((lp145
(I1
I2
tp146
a(I11
I4
tp147
a(I9
I8
tp148
a(I10
I6
tp149
ag142
a(I0
I8
tp150
a(I10
I3
tp151
a(I0
I1
tp152
a(I10
I5
tp153
a(I10
I7
tp154
a(I7
I8
tp155
a(I9
I9
tp156
a(I0
I9
tp157
a(I9
I5
tp158
a(I3
I4
tp159
a(I0
I2
tp160
a(I11
I6
tp161
a(I9
I7
tp162
atp163
Rp164
sg11
I13
sg37
g16
((lp165
(I6
I4
tp166
a(I11
I9
tp167
a(I4
I6
tp168
a(I2
I9
tp169
a(I5
I9
tp170
a(I12
I2
tp171
a(I3
I1
tp172
a(I3
I11
tp173
a(I10
I10
tp174
a(I7
I4
tp175
a(I0
I0
tp176
a(I11
I5
tp177
a(I2
I5
tp178
a(I12
I9
tp179
atp180
Rp181
sg9
((I2
I10
tp182
(I1
I8
tp183
(I8
I10
tp184
(I7
I2
tp185
(I3
I8
tp186
(I6
I2
tp187
(I7
I9
tp188
tp189
sg10
I12
sbs(iproblems
RoomID
p190
(dp191
g6
I14
sg7
(I5
I10
tp192
sg9
I5
sg10
I12
sg11
I10
sg12
I3872982626502034966
sb(imulti_robot_problem
MultiRobotState
p193
(dp194
g15
g16
((lp195
(I5
I9
tp196
a(I6
I9
tp197
a(I5
I7
tp198
a(I3
I2
tp199
ag192
a(I4
I10
tp200
a(I4
I8
tp201
a(I3
I11
tp202
a(I2
I1
tp203
a(I6
I2
tp204
a(I1
I4
tp205
a(I8
I7
tp206
a(I6
I8
tp207
a(I6
I7
tp208
a(I5
I8
tp209
a(I3
I5
tp210
a(I4
I9
tp211
a(I4
I6
tp212
a(I8
I1
tp213
a(I7
I1
tp214
a(I3
I8
tp215
a(I4
I3
tp216
a(I5
I2
tp217
a(I1
I1
tp218
atp219
Rp220
sg11
I10
sg37
g16
((lp221
(I5
I3
tp222
a(I3
I1
tp223
a(I8
I11
tp224
a(I9
I3
tp225
a(I0
I2
tp226
a(I6
I3
tp227
a(I3
I9
tp228
a(I2
I3
tp229
a(I9
I5
tp230
a(I7
I11
tp231
a(I0
I8
tp232
a(I3
I10
tp233
a(I7
I2
tp234
a(I9
I7
tp235
atp236
Rp237
sg9
((I1
I8
tp238
(I2
I9
tp239
(I1
I9
tp240
(I1
I5
tp241
(I6
I5
tp242
tp243
sg10
I12
sbssS'name'
p244
S'heavy_roomset'
p245
sb.