(imeasure_core
RoomSet
p0
(dp1
S'rooms'
p2
(dp3
(iproblems
RoomID
p4
(dp5
S'dusts'
p6
I13
sS'obstacles'
p7
(I9
I8
tp8
sS'robots'
p9
I7
sS'height'
p10
I12
sS'width'
p11
I13
sS'seed'
p12
I5594871498841892311
sb(imulti_robot_problem
MultiRobotState
p13
(dp14
S'obstacle_locations'
p15
c__builtin__
frozenset
p16
((lp17
(I5
I9
tp18
a(I6
I9
tp19
a(I1
I3
tp20
a(I10
I4
tp21
a(I4
I8
tp22
ag8
a(I1
I4
tp23
a(I11
I3
tp24
a(I8
I6
tp25
a(I9
I6
tp26
a(I5
I5
tp27
a(I9
I5
tp28
a(I6
I7
tp29
a(I6
I8
tp30
a(I6
I10
tp31
a(I8
I10
tp32
a(I5
I0
tp33
a(I10
I0
tp34
a(I7
I9
tp35
a(I9
I7
tp36
atp37
Rp38
sg11
I13
sS'dirt_locations'
p39
g16
((lp40
(I2
I7
tp41
a(I10
I5
tp42
a(I11
I5
tp43
a(I6
I1
tp44
a(I8
I0
tp45
a(I2
I1
tp46
a(I2
I0
tp47
a(I0
I10
tp48
a(I7
I10
tp49
a(I12
I10
tp50
a(I5
I2
tp51
a(I0
I2
tp52
a(I3
I5
tp53
atp54
Rp55
sg9
((I10
I8
tp56
(I11
I6
tp57
(I7
I5
tp58
(I9
I3
tp59
(I9
I11
tp60
(I12
I1
tp61
(I9
I9
tp62
tp63
sg10
I12
sbs(iproblems
RoomID
p64
(dp65
g6
I11
sg7
(I8
I7
tp66
sg9
I7
sg10
I10
sg11
I11
sg12
I8833747186876682921
sb(imulti_robot_problem
MultiRobotState
p67
(dp68
g15
g16
((lp69
(I5
I7
tp70
a(I4
I8
tp71
a(I4
I5
tp72
a(I2
I1
tp73
ag66
a(I5
I1
tp74
a(I5
I5
tp75
a(I6
I7
tp76
a(I4
I6
tp77
a(I8
I1
tp78
a(I4
I4
tp79
a(I6
I3
tp80
a(I8
I8
tp81
a(I3
I3
tp82
a(I7
I8
tp83
a(I10
I2
tp84
atp85
Rp86
sg11
I11
sg39
g16
((lp87
(I10
I5
tp88
a(I7
I6
tp89
a(I4
I7
tp90
a(I1
I4
tp91
a(I9
I9
tp92
a(I3
I8
tp93
a(I0
I5
tp94
a(I8
I6
tp95
a(I2
I5
tp96
a(I0
I8
tp97
a(I7
I2
tp98
atp99
Rp100
sg9
((I3
I1
tp101
(I9
I1
tp102
(I5
I2
tp103
(I4
I3
tp104
(I8
I0
tp105
(I10
I4
tp106
(I8
I5
tp107
tp108
sg10
I10
sbs(iproblems
RoomID
p109
(dp110
g6
I12
sg7
(I0
I5
tp111
sg9
I7
sg10
I11
sg11
I12
sg12
I365562409358139953
sb(imulti_robot_problem
MultiRobotState
p112
(dp113
g15
g16
((lp114
(I1
I3
tp115
a(I6
I6
tp116
a(I0
I4
tp117
a(I7
I5
tp118
ag111
a(I8
I7
tp119
a(I4
I2
tp120
a(I2
I9
tp121
a(I10
I7
tp122
a(I7
I8
tp123
a(I7
I6
tp124
a(I3
I1
tp125
a(I4
I8
tp126
a(I3
I9
tp127
a(I2
I2
tp128
a(I8
I6
tp129
a(I5
I2
tp130
a(I11
I6
tp131
a(I8
I4
tp132
atp133
Rp134
sg11
I12
sg39
g16
((lp135
(I3
I2
tp136
a(I11
I9
tp137
a(I4
I9
tp138
a(I10
I4
tp139
a(I5
I7
tp140
a(I2
I1
tp141
a(I0
I6
tp142
a(I1
I6
tp143
a(I7
I10
tp144
a(I3
I7
tp145
a(I5
I10
tp146
a(I0
I2
tp147
atp148
Rp149
sg9
((I6
I3
tp150
(I10
I5
tp151
(I3
I6
tp152
(I8
I10
tp153
(I4
I6
tp154
(I11
I3
tp155
(I1
I8
tp156
tp157
sg10
I11
sbs(iproblems
RoomID
p158
(dp159
g6
I11
sg7
(I4
I6
tp160
sg9
I5
sg10
I11
sg11
I11
sg12
I1085536589165212248
sb(imulti_robot_problem
MultiRobotState
p161
(dp162
g15
g16
((lp163
(I10
I5
tp164
a(I2
I6
tp165
ag160
a(I9
I3
tp166
a(I3
I2
tp167
a(I9
I9
tp168
a(I1
I8
tp169
a(I1
I9
tp170
a(I1
I7
tp171
a(I3
I7
tp172
a(I6
I9
tp173
a(I5
I8
tp174
a(I3
I3
tp175
atp176
Rp177
sg11
I11
sg39
g16
((lp178
(I0
I1
tp179
a(I4
I9
tp180
a(I10
I4
tp181
a(I10
I7
tp182
a(I6
I0
tp183
a(I0
I7
tp184
a(I2
I3
tp185
a(I1
I4
tp186
a(I2
I2
tp187
a(I10
I0
tp188
a(I0
I10
tp189
atp190
Rp191
sg9
((I5
I3
tp192
(I0
I2
tp193
(I3
I1
tp194
(I7
I1
tp195
(I9
I0
tp196
tp197
sg10
I11
sbs(iproblems
RoomID
p198
(dp199
g6
I13
sg7
(I3
I8
tp200
sg9
I5
sg10
I10
sg11
I10
sg12
I5338040351619750409
sb(imulti_robot_problem
MultiRobotState
p201
(dp202
g15
g16
((lp203
(I4
I7
tp204
a(I2
I6
tp205
a(I9
I1
tp206
a(I2
I8
tp207
a(I6
I1
tp208
a(I1
I4
tp209
ag200
a(I1
I6
tp210
a(I4
I3
tp211
a(I1
I7
tp212
a(I2
I5
tp213
a(I9
I7
tp214
a(I2
I4
tp215
a(I6
I8
tp216
atp217
Rp218
sg11
I10
sg39
g16
((lp219
(I6
I9
tp220
a(I1
I3
tp221
a(I4
I9
tp222
a(I4
I6
tp223
a(I6
I6
tp224
a(I8
I3
tp225
a(I2
I1
tp226
a(I8
I9
tp227
a(I1
I8
tp228
a(I7
I5
tp229
a(I3
I6
tp230
a(I9
I6
tp231
a(I4
I0
tp232
atp233
Rp234
sg9
((I2
I0
tp235
(I3
I5
tp236
(I5
I0
tp237
(I5
I2
tp238
(I4
I5
tp239
tp240
sg10
I10
sbssS'name'
p241
S'heavy_roomset'
p242
sb.