(imeasure_core
RoomSet
p0
(dp1
S'rooms'
p2
(dp3
(iproblems
RoomID
p4
(dp5
S'dusts'
p6
I15
sS'obstacles'
p7
(I3
I3
tp8
sS'robots'
p9
I5
sS'height'
p10
I13
sS'width'
p11
I10
sS'seed'
p12
I4927760411464392432
sb(imulti_robot_problem
MultiRobotState
p13
(dp14
S'obstacle_locations'
p15
c__builtin__
frozenset
p16
((lp17
(I6
I10
tp18
a(I6
I11
tp19
a(I3
I11
tp20
a(I2
I1
tp21
a(I2
I10
tp22
a(I3
I9
tp23
a(I2
I3
tp24
a(I1
I0
tp25
a(I4
I0
tp26
a(I1
I2
tp27
ag8
a(I7
I6
tp28
a(I3
I1
tp29
a(I1
I1
tp30
a(I1
I7
tp31
a(I1
I3
tp32
a(I3
I10
tp33
a(I9
I12
tp34
atp35
Rp36
sg11
I10
sS'dirt_locations'
p37
g16
((lp38
(I9
I0
tp39
a(I9
I7
tp40
a(I7
I0
tp41
a(I8
I2
tp42
a(I5
I5
tp43
a(I8
I10
tp44
a(I1
I4
tp45
a(I8
I8
tp46
a(I2
I12
tp47
a(I8
I7
tp48
a(I1
I10
tp49
a(I7
I11
tp50
a(I4
I12
tp51
a(I0
I2
tp52
a(I0
I10
tp53
atp54
Rp55
sg9
((I1
I12
tp56
(I0
I12
tp57
(I8
I5
tp58
(I7
I9
tp59
(I7
I4
tp60
tp61
sg10
I13
sbs(iproblems
RoomID
p62
(dp63
g6
I13
sg7
(I4
I11
tp64
sg9
I6
sg10
I13
sg11
I12
sg12
I3433768247134474666
sb(imulti_robot_problem
MultiRobotState
p65
(dp66
g15
g16
((lp67
(I4
I10
tp68
a(I5
I11
tp69
a(I6
I11
tp70
a(I9
I8
tp71
a(I6
I0
tp72
a(I0
I12
tp73
a(I4
I12
tp74
a(I2
I3
tp75
a(I2
I12
tp76
a(I10
I3
tp77
ag64
a(I11
I7
tp78
a(I3
I12
tp79
a(I3
I10
tp80
a(I11
I3
tp81
a(I0
I11
tp82
a(I8
I8
tp83
a(I1
I9
tp84
a(I1
I6
tp85
a(I1
I1
tp86
a(I0
I10
tp87
atp88
Rp89
sg11
I12
sg37
g16
((lp90
(I10
I8
tp91
a(I10
I5
tp92
a(I6
I7
tp93
a(I6
I8
tp94
a(I4
I4
tp95
a(I10
I12
tp96
a(I9
I9
tp97
a(I8
I10
tp98
a(I7
I5
tp99
a(I7
I10
tp100
a(I6
I12
tp101
a(I5
I10
tp102
a(I5
I3
tp103
atp104
Rp105
sg9
((I7
I12
tp106
(I7
I7
tp107
(I8
I12
tp108
(I2
I0
tp109
(I11
I9
tp110
(I1
I2
tp111
tp112
sg10
I13
sbs(iproblems
RoomID
p113
(dp114
g6
I12
sg7
(I3
I3
tp115
sg9
I6
sg10
I12
sg11
I12
sg12
I6241004153072892496
sb(imulti_robot_problem
MultiRobotState
p116
(dp117
g15
g16
((lp118
(I9
I3
tp119
ag115
a(I2
I9
tp120
a(I7
I1
tp121
a(I11
I8
tp122
a(I3
I4
tp123
a(I6
I1
tp124
a(I3
I1
tp125
a(I5
I2
tp126
a(I4
I3
tp127
a(I4
I2
tp128
a(I8
I5
tp129
a(I11
I6
tp130
atp131
Rp132
sg11
I12
sg37
g16
((lp133
(I4
I10
tp134
a(I0
I0
tp135
a(I7
I10
tp136
a(I5
I11
tp137
a(I8
I0
tp138
a(I9
I10
tp139
a(I8
I7
tp140
a(I10
I1
tp141
a(I2
I5
tp142
a(I8
I9
tp143
a(I4
I11
tp144
a(I10
I4
tp145
atp146
Rp147
sg9
((I8
I6
tp148
(I5
I4
tp149
(I7
I2
tp150
(I4
I7
tp151
(I1
I7
tp152
(I5
I6
tp153
tp154
sg10
I12
sbs(iproblems
RoomID
p155
(dp156
g6
I15
sg7
(I1
I6
tp157
sg9
I6
sg10
I10
sg11
I13
sg12
I3125140389427113411
sb(imulti_robot_problem
MultiRobotState
p158
(dp159
g15
g16
((lp160
(I7
I3
tp161
a(I3
I3
tp162
a(I1
I5
tp163
a(I6
I1
tp164
a(I1
I4
tp165
a(I7
I4
tp166
a(I2
I0
tp167
a(I11
I1
tp168
a(I2
I3
tp169
a(I0
I7
tp170
a(I8
I7
tp171
a(I6
I2
tp172
ag157
atp173
Rp174
sg11
I13
sg37
g16
((lp175
(I0
I1
tp176
a(I2
I6
tp177
a(I2
I9
tp178
a(I11
I8
tp179
a(I2
I8
tp180
a(I9
I3
tp181
a(I6
I0
tp182
a(I3
I0
tp183
a(I7
I7
tp184
a(I6
I3
tp185
a(I9
I2
tp186
a(I12
I4
tp187
a(I0
I4
tp188
a(I2
I4
tp189
a(I9
I7
tp190
atp191
Rp192
sg9
((I12
I0
tp193
(I7
I8
tp194
(I2
I5
tp195
(I4
I5
tp196
(I12
I7
tp197
(I9
I4
tp198
tp199
sg10
I10
sbs(iproblems
RoomID
p200
(dp201
g6
I11
sg7
(I3
I6
tp202
sg9
I7
sg10
I11
sg11
I12
sg12
I8554152435637441414
sb(imulti_robot_problem
MultiRobotState
p203
(dp204
g15
g16
((lp205
(I3
I1
tp206
a(I3
I8
tp207
a(I4
I5
tp208
a(I2
I8
tp209
a(I11
I2
tp210
a(I1
I7
tp211
a(I7
I5
tp212
a(I9
I4
tp213
a(I3
I7
tp214
a(I5
I1
tp215
a(I9
I6
tp216
a(I7
I9
tp217
a(I6
I3
tp218
a(I7
I6
tp219
a(I4
I4
tp220
a(I7
I4
tp221
a(I1
I8
tp222
a(I8
I8
tp223
ag202
a(I0
I4
tp224
a(I0
I9
tp225
a(I8
I6
tp226
a(I9
I7
tp227
atp228
Rp229
sg11
I12
sg37
g16
((lp230
(I11
I10
tp231
a(I4
I9
tp232
a(I2
I9
tp233
a(I3
I0
tp234
a(I8
I0
tp235
a(I4
I7
tp236
a(I1
I4
tp237
a(I0
I3
tp238
a(I0
I8
tp239
a(I5
I2
tp240
a(I7
I2
tp241
atp242
Rp243
sg9
((I6
I4
tp244
(I8
I2
tp245
(I8
I5
tp246
(I10
I8
tp247
(I1
I2
tp248
(I6
I0
tp249
(I10
I4
tp250
tp251
sg10
I11
sbssS'name'
p252
S'heavy_roomset'
p253
sb.