(imeasure_core
RoomSet
p0
(dp1
S'rooms'
p2
(dp3
(iproblems
RoomID
p4
(dp5
S'dusts'
p6
I9
sS'obstacles'
p7
(I7
I7
tp8
sS'robots'
p9
I4
sS'height'
p10
I12
sS'width'
p11
I12
sS'seed'
p12
I679259829289197625
sb(imulti_robot_problem
MultiRobotState
p13
(dp14
S'obstacle_locations'
p15
c__builtin__
frozenset
p16
((lp17
(I6
I4
tp18
a(I6
I9
tp19
a(I6
I6
tp20
a(I5
I6
tp21
a(I9
I8
tp22
a(I11
I9
tp23
ag8
a(I1
I4
tp24
a(I11
I7
tp25
a(I7
I5
tp26
a(I8
I7
tp27
a(I4
I2
tp28
a(I8
I5
tp29
a(I6
I5
tp30
a(I10
I8
tp31
a(I10
I5
tp32
a(I6
I7
tp33
a(I6
I8
tp34
a(I10
I7
tp35
a(I9
I6
tp36
a(I7
I6
tp37
a(I8
I10
tp38
a(I7
I4
tp39
a(I11
I8
tp40
a(I7
I10
tp41
a(I8
I6
tp42
a(I6
I1
tp43
a(I9
I7
tp44
atp45
Rp46
sg11
I12
sS'dirt_locations'
p47
g16
((lp48
(I2
I7
tp49
a(I9
I0
tp50
a(I8
I2
tp51
a(I7
I1
tp52
a(I11
I0
tp53
a(I0
I11
tp54
a(I1
I6
tp55
a(I1
I7
tp56
a(I11
I6
tp57
atp58
Rp59
sg9
((I9
I10
tp60
(I8
I9
tp61
(I3
I7
tp62
(I3
I11
tp63
tp64
sg10
I12
sbs(iproblems
RoomID
p65
(dp66
g6
I5
sg7
(I9
I1
tp67
sg9
I3
sg10
I11
sg11
I11
sg12
I2685440357799139976
sb(imulti_robot_problem
MultiRobotState
p68
(dp69
g15
g16
((lp70
(I7
I3
tp71
a(I10
I4
tp72
a(I9
I3
tp73
ag67
a(I7
I1
tp74
a(I5
I6
tp75
a(I10
I6
tp76
a(I1
I4
tp77
a(I9
I9
tp78
a(I3
I9
tp79
a(I9
I4
tp80
a(I6
I8
tp81
a(I9
I6
tp82
a(I3
I4
tp83
a(I10
I3
tp84
a(I7
I2
tp85
a(I5
I3
tp86
a(I8
I3
tp87
a(I5
I5
tp88
a(I10
I7
tp89
a(I8
I5
tp90
a(I9
I2
tp91
a(I3
I6
tp92
a(I4
I5
tp93
a(I6
I5
tp94
a(I7
I10
tp95
a(I9
I5
tp96
a(I3
I5
tp97
a(I7
I8
tp98
a(I2
I4
tp99
a(I10
I9
tp100
atp101
Rp102
sg11
I11
sg47
g16
((lp103
(I1
I2
tp104
a(I9
I10
tp105
a(I6
I1
tp106
a(I4
I1
tp107
a(I0
I2
tp108
atp109
Rp110
sg9
((I6
I6
tp111
(I0
I0
tp112
(I10
I8
tp113
tp114
sg10
I11
sbs(iproblems
RoomID
p115
(dp116
g6
I6
sg7
(I3
I9
tp117
sg9
I4
sg10
I11
sg11
I11
sg12
I5891625650498269233
sb(imulti_robot_problem
MultiRobotState
p118
(dp119
g15
g16
((lp120
(I7
I3
tp121
a(I4
I7
tp122
a(I6
I6
tp123
a(I5
I6
tp124
a(I2
I8
tp125
a(I6
I2
tp126
a(I5
I1
tp127
a(I3
I7
tp128
a(I8
I5
tp129
a(I5
I5
tp130
a(I2
I9
tp131
a(I7
I6
tp132
a(I4
I4
tp133
a(I2
I2
tp134
a(I1
I1
tp135
a(I9
I7
tp136
a(I3
I2
tp137
a(I10
I4
tp138
a(I4
I5
tp139
a(I9
I3
tp140
a(I10
I5
tp141
a(I2
I10
tp142
a(I7
I5
tp143
a(I2
I3
tp144
a(I8
I3
tp145
a(I4
I6
tp146
a(I5
I2
tp147
a(I6
I1
tp148
a(I3
I8
tp149
a(I1
I8
tp150
ag117
a(I4
I3
tp151
a(I9
I5
tp152
a(I3
I4
tp153
a(I8
I4
tp154
atp155
Rp156
sg11
I11
sg47
g16
((lp157
(I8
I8
tp158
a(I5
I10
tp159
a(I9
I1
tp160
a(I10
I7
tp161
a(I1
I6
tp162
a(I7
I9
tp163
atp164
Rp165
sg9
((I5
I7
tp166
(I8
I1
tp167
(I0
I5
tp168
(I4
I0
tp169
tp170
sg10
I11
sbs(iproblems
RoomID
p171
(dp172
g6
I10
sg7
(I1
I5
tp173
sg9
I4
sg10
I12
sg11
I10
sg12
I1737871632067391849
sb(imulti_robot_problem
MultiRobotState
p174
(dp175
g15
g16
((lp176
(I3
I2
tp177
a(I0
I0
tp178
a(I6
I6
tp179
a(I5
I6
tp180
a(I2
I8
tp181
a(I2
I10
tp182
a(I8
I9
tp183
a(I6
I2
tp184
a(I2
I3
tp185
a(I8
I7
tp186
a(I5
I1
tp187
a(I8
I5
tp188
a(I5
I8
tp189
a(I8
I3
tp190
a(I5
I5
tp191
a(I7
I8
tp192
a(I7
I6
tp193
a(I8
I10
tp194
ag173
a(I6
I5
tp195
a(I2
I2
tp196
a(I4
I1
tp197
a(I2
I4
tp198
atp199
Rp200
sg11
I10
sg47
g16
((lp201
(I0
I1
tp202
a(I4
I10
tp203
a(I4
I8
tp204
a(I3
I0
tp205
a(I9
I6
tp206
a(I3
I10
tp207
a(I5
I11
tp208
a(I2
I7
tp209
a(I1
I9
tp210
a(I3
I4
tp211
atp212
Rp213
sg9
((I4
I9
tp214
(I8
I11
tp215
(I4
I0
tp216
(I3
I9
tp217
tp218
sg10
I12
sbs(iproblems
RoomID
p219
(dp220
g6
I7
sg7
(I8
I8
tp221
sg9
I3
sg10
I9
sg11
I9
sg12
I7834319822419845881
sb(imulti_robot_problem
MultiRobotState
p222
(dp223
g15
g16
((lp224
(I4
I7
tp225
a(I1
I3
tp226
a(I5
I0
tp227
a(I6
I6
tp228
a(I5
I6
tp229
a(I2
I8
tp230
a(I3
I5
tp231
a(I4
I6
tp232
a(I2
I6
tp233
a(I0
I5
tp234
a(I3
I7
tp235
a(I0
I3
tp236
a(I0
I8
tp237
a(I8
I5
tp238
a(I5
I8
tp239
a(I3
I3
tp240
a(I2
I7
tp241
a(I6
I7
tp242
a(I5
I5
tp243
a(I7
I8
tp244
a(I4
I4
tp245
a(I1
I5
tp246
a(I1
I8
tp247
ag221
a(I3
I6
tp248
a(I1
I7
tp249
a(I4
I5
tp250
a(I5
I3
tp251
a(I3
I4
tp252
atp253
Rp254
sg11
I9
sg47
g16
((lp255
(I7
I4
tp256
a(I2
I0
tp257
a(I6
I2
tp258
a(I7
I0
tp259
a(I8
I7
tp260
a(I7
I1
tp261
a(I1
I4
tp262
atp263
Rp264
sg9
((I2
I1
tp265
(I2
I3
tp266
(I5
I7
tp267
tp268
sg10
I9
sbssS'name'
p269
S'mild_roomset'
p270
sb.