(imeasure_core
RoomSet
p0
(dp1
S'rooms'
p2
(dp3
(iproblems
RoomID
p4
(dp5
S'dusts'
p6
I6
sS'obstacles'
p7
(I5
I8
tp8
sS'robots'
p9
I3
sS'height'
p10
I9
sS'width'
p11
I11
sS'seed'
p12
I4029557120079369747
sb(imulti_robot_problem
MultiRobotState
p13
(dp14
S'obstacle_locations'
p15
c__builtin__
frozenset
p16
((lp17
(I7
I3
tp18
a(I1
I3
tp19
a(I4
I8
tp20
a(I10
I6
tp21
a(I7
I1
tp22
a(I1
I4
tp23
a(I3
I7
tp24
a(I5
I1
tp25
a(I2
I5
tp26
a(I8
I5
tp27
ag8
a(I10
I5
tp28
a(I4
I6
tp29
a(I10
I7
tp30
a(I9
I6
tp31
a(I6
I1
tp32
a(I4
I4
tp33
a(I6
I3
tp34
a(I3
I6
tp35
a(I1
I7
tp36
a(I9
I5
tp37
a(I2
I4
tp38
a(I8
I4
tp39
atp40
Rp41
sg11
I11
sS'dirt_locations'
p42
g16
((lp43
(I3
I8
tp44
a(I8
I8
tp45
a(I7
I2
tp46
a(I5
I2
tp47
a(I1
I1
tp48
a(I2
I1
tp49
atp50
Rp51
sg9
((I8
I0
tp52
(I3
I1
tp53
(I4
I0
tp54
tp55
sg10
I9
sbs(iproblems
RoomID
p56
(dp57
g6
I10
sg7
(I4
I4
tp58
sg9
I4
sg10
I12
sg11
I12
sg12
I2569146471088859254
sb(imulti_robot_problem
MultiRobotState
p59
(dp60
g15
g16
((lp61
(I5
I4
tp62
a(I4
I8
tp63
a(I4
I5
tp64
a(I11
I2
tp65
a(I4
I7
tp66
a(I1
I9
tp67
a(I10
I3
tp68
a(I5
I8
tp69
a(I5
I5
tp70
a(I3
I3
tp71
ag58
a(I2
I11
tp72
a(I5
I6
tp73
a(I7
I2
tp74
a(I4
I3
tp75
a(I2
I2
tp76
a(I10
I0
tp77
a(I5
I11
tp78
a(I1
I1
tp79
atp80
Rp81
sg11
I12
sg42
g16
((lp82
(I2
I7
tp83
a(I10
I10
tp84
a(I3
I0
tp85
a(I3
I11
tp86
a(I0
I2
tp87
a(I1
I5
tp88
a(I9
I4
tp89
a(I0
I8
tp90
a(I2
I4
tp91
a(I11
I6
tp92
atp93
Rp94
sg9
((I9
I11
tp95
(I7
I10
tp96
(I6
I0
tp97
(I10
I1
tp98
tp99
sg10
I12
sbs(iproblems
RoomID
p100
(dp101
g6
I7
sg7
(I5
I4
tp102
sg9
I3
sg10
I11
sg11
I12
sg12
I2577854692418029171
sb(imulti_robot_problem
MultiRobotState
p103
(dp104
g15
g16
((lp105
(I4
I7
tp106
a(I3
I0
tp107
a(I8
I0
tp108
a(I2
I1
tp109
a(I6
I2
tp110
a(I1
I6
tp111
a(I5
I1
tp112
a(I4
I0
tp113
a(I1
I2
tp114
a(I4
I9
tp115
a(I3
I3
tp116
a(I8
I1
tp117
a(I3
I10
tp118
a(I6
I3
tp119
a(I3
I6
tp120
a(I1
I10
tp121
a(I8
I6
tp122
a(I3
I5
tp123
ag102
a(I2
I6
tp124
a(I7
I1
tp125
a(I6
I0
tp126
a(I1
I9
tp127
a(I4
I2
tp128
a(I0
I8
tp129
a(I5
I3
tp130
a(I0
I1
tp131
a(I7
I0
tp132
a(I5
I2
tp133
a(I6
I1
tp134
a(I3
I1
tp135
a(I3
I8
tp136
a(I3
I4
tp137
a(I2
I4
tp138
atp139
Rp140
sg11
I12
sg42
g16
((lp141
(I4
I10
tp142
a(I10
I5
tp143
a(I10
I1
tp144
a(I2
I8
tp145
a(I7
I6
tp146
a(I4
I4
tp147
a(I9
I7
tp148
atp149
Rp150
sg9
((I10
I6
tp151
(I1
I4
tp152
(I11
I8
tp153
tp154
sg10
I11
sbs(iproblems
RoomID
p155
(dp156
g6
I6
sg7
(I4
I5
tp157
sg9
I3
sg10
I12
sg11
I12
sg12
I1360307757430227195
sb(imulti_robot_problem
MultiRobotState
p158
(dp159
g15
g16
((lp160
(I6
I4
tp161
a(I3
I2
tp162
a(I10
I4
tp163
a(I3
I0
tp164
a(I5
I4
tp165
a(I7
I5
tp166
a(I5
I1
tp167
a(I8
I5
tp168
a(I6
I5
tp169
a(I4
I0
tp170
a(I7
I4
tp171
a(I8
I3
tp172
a(I6
I7
tp173
a(I5
I5
tp174
a(I8
I10
tp175
a(I6
I3
tp176
a(I5
I6
tp177
a(I6
I2
tp178
ag157
a(I9
I5
tp179
a(I5
I3
tp180
atp181
Rp182
sg11
I12
sg42
g16
((lp183
(I3
I3
tp184
a(I4
I3
tp185
a(I9
I2
tp186
a(I5
I7
tp187
a(I0
I2
tp188
a(I11
I6
tp189
atp190
Rp191
sg9
((I11
I11
tp192
(I1
I3
tp193
(I0
I1
tp194
tp195
sg10
I12
sbs(iproblems
RoomID
p196
(dp197
g6
I6
sg7
(I2
I4
tp198
sg9
I3
sg10
I10
sg11
I10
sg12
I1821862095355237593
sb(imulti_robot_problem
MultiRobotState
p199
(dp200
g15
g16
((lp201
(I6
I4
tp202
a(I4
I7
tp203
a(I2
I6
tp204
a(I5
I6
tp205
a(I6
I0
tp206
a(I1
I9
tp207
a(I8
I5
tp208
a(I7
I2
tp209
a(I7
I9
tp210
a(I5
I3
tp211
a(I6
I7
tp212
a(I3
I3
tp213
a(I5
I5
tp214
a(I4
I4
tp215
a(I6
I3
tp216
a(I4
I5
tp217
a(I6
I5
tp218
a(I4
I3
tp219
a(I0
I4
tp220
a(I8
I6
tp221
a(I3
I5
tp222
a(I3
I4
tp223
ag198
atp224
Rp225
sg11
I10
sg42
g16
((lp226
(I0
I6
tp227
a(I7
I0
tp228
a(I5
I1
tp229
a(I2
I3
tp230
a(I2
I8
tp231
a(I9
I6
tp232
atp233
Rp234
sg9
((I2
I2
tp235
(I4
I2
tp236
(I0
I7
tp237
tp238
sg10
I10
sbssS'name'
p239
S'mild_roomset'
p240
sb.