(imeasure_core
RoomSet
p0
(dp1
S'rooms'
p2
(dp3
(iproblems
RoomID
p4
(dp5
S'dusts'
p6
I8
sS'obstacles'
p7
(I2
I6
tp8
sS'robots'
p9
I4
sS'height'
p10
I11
sS'width'
p11
I9
sS'seed'
p12
I7283207964119141687
sb(imulti_robot_problem
MultiRobotState
p13
(dp14
S'obstacle_locations'
p15
c__builtin__
frozenset
p16
((lp17
(I4
I7
tp18
a(I1
I3
tp19
a(I4
I3
tp20
a(I4
I5
tp21
a(I5
I4
tp22
a(I1
I4
tp23
a(I8
I9
tp24
a(I6
I2
tp25
a(I0
I10
tp26
a(I3
I7
tp27
a(I0
I3
tp28
a(I8
I5
tp29
a(I4
I0
tp30
a(I5
I3
tp31
a(I5
I5
tp32
a(I5
I2
tp33
a(I6
I1
tp34
a(I6
I10
tp35
ag8
a(I6
I3
tp36
a(I3
I6
tp37
a(I3
I5
tp38
a(I3
I4
tp39
a(I2
I4
tp40
atp41
Rp42
sg11
I9
sS'dirt_locations'
p43
g16
((lp44
(I7
I0
tp45
a(I6
I8
tp46
a(I7
I1
tp47
a(I5
I6
tp48
a(I1
I8
tp49
a(I0
I8
tp50
a(I4
I1
tp51
a(I5
I8
tp52
atp53
Rp54
sg9
((I1
I7
tp55
(I6
I6
tp56
(I4
I6
tp57
(I2
I1
tp58
tp59
sg10
I11
sbs(iproblems
RoomID
p60
(dp61
g6
I8
sg7
(I3
I5
tp62
sg9
I3
sg10
I12
sg11
I10
sg12
I890727360438182992
sb(imulti_robot_problem
MultiRobotState
p63
(dp64
g15
g16
((lp65
(I4
I7
tp66
a(I0
I0
tp67
a(I3
I0
tp68
a(I3
I2
tp69
a(I1
I4
tp70
a(I8
I9
tp71
a(I7
I5
tp72
a(I2
I3
tp73
a(I3
I4
tp74
a(I5
I8
tp75
ag62
a(I3
I1
tp76
a(I6
I7
tp77
a(I6
I8
tp78
a(I5
I2
tp79
a(I5
I7
tp80
a(I8
I8
tp81
a(I3
I9
tp82
a(I4
I11
tp83
a(I7
I10
tp84
a(I2
I2
tp85
a(I0
I9
tp86
a(I7
I8
tp87
atp88
Rp89
sg11
I10
sg43
g16
((lp90
(I9
I2
tp91
a(I6
I1
tp92
a(I8
I0
tp93
a(I2
I10
tp94
a(I0
I6
tp95
a(I0
I4
tp96
a(I9
I5
tp97
a(I1
I1
tp98
atp99
Rp100
sg9
((I2
I9
tp101
(I2
I6
tp102
(I8
I4
tp103
tp104
sg10
I12
sbs(iproblems
RoomID
p105
(dp106
g6
I7
sg7
(I6
I3
tp107
sg9
I3
sg10
I12
sg11
I12
sg12
I1585446675937841368
sb(imulti_robot_problem
MultiRobotState
p108
(dp109
g15
g16
((lp110
(I5
I9
tp111
a(I4
I3
tp112
a(I5
I7
tp113
a(I8
I2
tp114
a(I4
I10
tp115
a(I7
I3
tp116
a(I2
I8
tp117
a(I9
I3
tp118
a(I3
I11
tp119
a(I7
I1
tp120
a(I7
I7
tp121
a(I6
I2
tp122
a(I5
I1
tp123
a(I1
I11
tp124
a(I8
I5
tp125
a(I7
I2
tp126
a(I2
I7
tp127
a(I6
I7
tp128
a(I6
I8
tp129
a(I2
I9
tp130
a(I5
I2
tp131
a(I7
I6
tp132
a(I6
I6
tp133
a(I2
I11
tp134
ag107
a(I4
I11
tp135
a(I7
I10
tp136
a(I3
I4
tp137
a(I8
I6
tp138
a(I7
I8
tp139
a(I8
I4
tp140
atp141
Rp142
sg11
I12
sg43
g16
((lp143
(I3
I2
tp144
a(I1
I9
tp145
a(I9
I4
tp146
a(I11
I5
tp147
a(I11
I8
tp148
a(I2
I5
tp149
a(I6
I10
tp150
atp151
Rp152
sg9
((I10
I10
tp153
(I5
I5
tp154
(I11
I10
tp155
tp156
sg10
I12
sbs(iproblems
RoomID
p157
(dp158
g6
I9
sg7
(I1
I3
tp159
sg9
I4
sg10
I9
sg11
I10
sg12
I7713914763314685786
sb(imulti_robot_problem
MultiRobotState
p160
(dp161
g15
g16
((lp162
(I3
I2
tp163
ag159
a(I7
I1
tp164
a(I9
I3
tp165
a(I6
I0
tp166
a(I2
I1
tp167
a(I4
I2
tp168
a(I5
I1
tp169
a(I9
I6
tp170
a(I7
I2
tp171
a(I4
I0
tp172
a(I1
I2
tp173
a(I7
I0
tp174
a(I5
I2
tp175
a(I6
I1
tp176
a(I3
I1
tp177
a(I1
I5
tp178
a(I1
I8
tp179
a(I2
I2
tp180
a(I3
I5
tp181
a(I4
I1
tp182
a(I1
I1
tp183
atp184
Rp185
sg11
I10
sg43
g16
((lp186
(I7
I3
tp187
a(I5
I4
tp188
a(I7
I6
tp189
a(I7
I5
tp190
a(I0
I5
tp191
a(I8
I7
tp192
a(I8
I6
tp193
a(I8
I5
tp194
a(I9
I7
tp195
atp196
Rp197
sg9
((I3
I0
tp198
(I7
I7
tp199
(I2
I0
tp200
(I4
I6
tp201
tp202
sg10
I9
sbs(iproblems
RoomID
p203
(dp204
g6
I5
sg7
(I7
I6
tp205
sg9
I3
sg10
I9
sg11
I10
sg12
I1736392818365009963
sb(imulti_robot_problem
MultiRobotState
p206
(dp207
g15
g16
((lp208
(I7
I3
tp209
a(I9
I1
tp210
a(I4
I8
tp211
a(I9
I3
tp212
a(I7
I7
tp213
a(I6
I2
tp214
a(I0
I5
tp215
a(I0
I4
tp216
a(I8
I5
tp217
a(I7
I2
tp218
a(I1
I2
tp219
a(I3
I8
tp220
a(I9
I0
tp221
a(I9
I2
tp222
ag205
a(I7
I4
tp223
a(I7
I5
tp224
a(I6
I5
tp225
a(I4
I3
tp226
a(I2
I2
tp227
a(I0
I1
tp228
a(I5
I2
tp229
a(I8
I4
tp230
atp231
Rp232
sg11
I10
sg43
g16
((lp233
(I1
I8
tp234
a(I3
I1
tp235
a(I4
I1
tp236
a(I0
I2
tp237
a(I5
I5
tp238
atp239
Rp240
sg9
((I4
I2
tp241
(I1
I0
tp242
(I8
I2
tp243
tp244
sg10
I9
sbssS'name'
p245
S'mild_roomset'
p246
sb.