(imeasure_core
RoomSet
p0
(dp1
S'rooms'
p2
(dp3
(iproblems
RoomID
p4
(dp5
S'dusts'
p6
I6
sS'obstacles'
p7
(I5
I5
tp8
sS'robots'
p9
I4
sS'height'
p10
I12
sS'width'
p11
I11
sS'seed'
p12
I3119042104763040036
sb(imulti_robot_problem
MultiRobotState
p13
(dp14
S'obstacle_locations'
p15
c__builtin__
frozenset
p16
((lp17
(I4
I6
tp18
a(I10
I4
tp19
a(I3
I0
tp20
a(I9
I8
tp21
a(I10
I6
tp22
a(I2
I1
tp23
a(I8
I9
tp24
a(I2
I3
tp25
a(I0
I10
tp26
a(I9
I5
tp27
a(I10
I3
tp28
a(I7
I9
tp29
ag8
a(I10
I7
tp30
a(I7
I8
tp31
a(I4
I4
tp32
a(I9
I2
tp33
a(I2
I4
tp34
a(I4
I5
tp35
a(I2
I2
tp36
a(I3
I3
tp37
a(I3
I4
tp38
a(I1
I1
tp39
atp40
Rp41
sg11
I11
sS'dirt_locations'
p42
g16
((lp43
(I8
I3
tp44
a(I8
I8
tp45
a(I5
I10
tp46
a(I9
I4
tp47
a(I8
I6
tp48
a(I10
I9
tp49
atp50
Rp51
sg9
((I6
I11
tp52
(I7
I2
tp53
(I2
I8
tp54
(I8
I10
tp55
tp56
sg10
I12
sbs(iproblems
RoomID
p57
(dp58
g6
I6
sg7
(I4
I8
tp59
sg9
I4
sg10
I12
sg11
I9
sg12
I3914746131789064238
sb(imulti_robot_problem
MultiRobotState
p60
(dp61
g15
g16
((lp62
(I4
I6
tp63
a(I6
I6
tp64
a(I4
I5
tp65
a(I5
I7
tp66
a(I0
I5
tp67
a(I0
I10
tp68
a(I8
I7
tp69
a(I7
I0
tp70
a(I0
I3
tp71
a(I8
I5
tp72
a(I4
I0
tp73
a(I2
I3
tp74
a(I6
I7
tp75
a(I3
I3
tp76
a(I8
I1
tp77
a(I7
I6
tp78
a(I3
I1
tp79
ag59
a(I5
I0
tp80
a(I2
I2
tp81
a(I0
I9
tp82
a(I8
I6
tp83
a(I5
I3
tp84
a(I6
I1
tp85
atp86
Rp87
sg11
I9
sg42
g16
((lp88
(I1
I8
tp89
a(I1
I9
tp90
a(I4
I3
tp91
a(I4
I4
tp92
a(I2
I11
tp93
a(I2
I10
tp94
atp95
Rp96
sg9
((I1
I10
tp97
(I6
I2
tp98
(I7
I3
tp99
(I1
I11
tp100
tp101
sg10
I12
sbs(iproblems
RoomID
p102
(dp103
g6
I5
sg7
(I5
I7
tp104
sg9
I4
sg10
I9
sg11
I12
sg12
I659184109953178577
sb(imulti_robot_problem
MultiRobotState
p105
(dp106
g15
g16
((lp107
(I7
I3
tp108
a(I4
I7
tp109
a(I8
I2
tp110
a(I6
I6
tp111
a(I4
I5
tp112
a(I7
I7
tp113
a(I11
I0
tp114
a(I7
I5
tp115
a(I9
I4
tp116
a(I2
I5
tp117
a(I0
I8
tp118
a(I10
I3
tp119
a(I7
I2
tp120
a(I4
I6
tp121
a(I6
I4
tp122
a(I4
I3
tp123
a(I3
I3
tp124
a(I6
I1
tp125
ag104
a(I6
I5
tp126
a(I3
I6
tp127
a(I8
I6
tp128
a(I3
I4
tp129
atp130
Rp131
sg11
I12
sg42
g16
((lp132
(I10
I8
tp133
a(I4
I1
tp134
a(I0
I2
tp135
a(I1
I6
tp136
a(I10
I4
tp137
atp138
Rp139
sg9
((I10
I0
tp140
(I7
I0
tp141
(I2
I6
tp142
(I8
I3
tp143
tp144
sg10
I9
sbs(iproblems
RoomID
p145
(dp146
g6
I9
sg7
(I9
I10
tp147
sg9
I3
sg10
I11
sg11
I10
sg12
I4253868527325451640
sb(imulti_robot_problem
MultiRobotState
p148
(dp149
g15
g16
((lp150
(I7
I3
tp151
a(I4
I7
tp152
a(I2
I6
tp153
a(I7
I10
tp154
a(I4
I8
tp155
a(I6
I9
tp156
ag147
a(I3
I9
tp157
a(I1
I6
tp158
a(I3
I7
tp159
a(I2
I5
tp160
a(I8
I5
tp161
a(I5
I8
tp162
a(I7
I9
tp163
a(I7
I1
tp164
a(I8
I10
tp165
a(I5
I0
tp166
a(I2
I3
tp167
a(I3
I5
tp168
a(I3
I4
tp169
a(I2
I4
tp170
atp171
Rp172
sg11
I10
sg42
g16
((lp173
(I8
I9
tp174
a(I5
I10
tp175
a(I6
I8
tp176
a(I7
I6
tp177
a(I3
I8
tp178
a(I0
I10
tp179
a(I9
I4
tp180
a(I0
I9
tp181
a(I5
I3
tp182
atp183
Rp184
sg9
((I3
I6
tp185
(I0
I8
tp186
(I2
I1
tp187
tp188
sg10
I11
sbs(iproblems
RoomID
p189
(dp190
g6
I9
sg7
(I9
I9
tp191
sg9
I3
sg10
I10
sg11
I10
sg12
I3273124617966689144
sb(imulti_robot_problem
MultiRobotState
p192
(dp193
g15
g16
((lp194
(I7
I3
tp195
a(I5
I4
tp196
a(I1
I3
tp197
a(I6
I4
tp198
a(I4
I5
tp199
a(I9
I8
tp200
a(I3
I2
tp201
a(I7
I5
tp202
a(I1
I6
tp203
a(I2
I5
tp204
a(I0
I8
tp205
a(I9
I6
tp206
a(I6
I5
tp207
a(I5
I3
tp208
a(I3
I3
tp209
a(I5
I5
tp210
a(I7
I6
tp211
ag191
a(I6
I3
tp212
a(I4
I3
tp213
a(I2
I3
tp214
a(I8
I6
tp215
a(I2
I4
tp216
a(I9
I7
tp217
atp218
Rp219
sg11
I10
sg42
g16
((lp220
(I7
I0
tp221
a(I3
I0
tp222
a(I6
I1
tp223
a(I3
I1
tp224
a(I5
I0
tp225
a(I2
I2
tp226
a(I3
I4
tp227
a(I1
I1
tp228
a(I8
I4
tp229
atp230
Rp231
sg9
((I0
I7
tp232
(I2
I1
tp233
(I6
I6
tp234
tp235
sg10
I10
sbssS'name'
p236
S'mild_roomset'
p237
sb.