(imeasure_core
RoomSet
p0
(dp1
S'rooms'
p2
(dp3
(iproblems
RoomID
p4
(dp5
S'dusts'
p6
I6
sS'obstacles'
p7
(I6
I2
tp8
sS'robots'
p9
I3
sS'height'
p10
I11
sS'width'
p11
I12
sS'seed'
p12
I6832892905590973747
sb(imulti_robot_problem
MultiRobotState
p13
(dp14
S'obstacle_locations'
p15
c__builtin__
frozenset
p16
((lp17
(I6
I4
tp18
a(I2
I6
tp19
a(I4
I3
tp20
a(I3
I0
tp21
a(I2
I8
tp22
a(I7
I7
tp23
a(I7
I5
tp24
a(I4
I2
tp25
a(I5
I3
tp26
a(I4
I1
tp27
a(I7
I6
tp28
a(I6
I3
tp29
a(I4
I5
tp30
ag8
a(I3
I6
tp31
a(I8
I6
tp32
a(I4
I0
tp33
a(I5
I2
tp34
a(I2
I4
tp35
atp36
Rp37
sg11
I12
sS'dirt_locations'
p38
g16
((lp39
(I1
I6
tp40
a(I6
I8
tp41
a(I2
I9
tp42
a(I0
I3
tp43
a(I0
I2
tp44
a(I7
I9
tp45
atp46
Rp47
sg9
((I10
I6
tp48
(I1
I2
tp49
(I0
I0
tp50
tp51
sg10
I11
sbs(iproblems
RoomID
p52
(dp53
g6
I7
sg7
(I3
I1
tp54
sg9
I4
sg10
I9
sg11
I11
sg12
I6924344268699531175
sb(imulti_robot_problem
MultiRobotState
p55
(dp56
g15
g16
((lp57
(I4
I7
tp58
ag54
a(I6
I6
tp59
a(I5
I6
tp60
a(I2
I8
tp61
a(I9
I8
tp62
a(I7
I7
tp63
a(I0
I7
tp64
a(I7
I5
tp65
a(I8
I7
tp66
a(I0
I3
tp67
a(I0
I8
tp68
a(I8
I5
tp69
a(I6
I3
tp70
a(I5
I2
tp71
a(I7
I6
tp72
a(I4
I8
tp73
a(I7
I4
tp74
a(I3
I8
tp75
a(I0
I6
tp76
a(I8
I8
tp77
a(I4
I1
tp78
a(I9
I7
tp79
atp80
Rp81
sg11
I11
sg38
g16
((lp82
(I8
I3
tp83
a(I1
I3
tp84
a(I4
I6
tp85
a(I4
I3
tp86
a(I0
I4
tp87
a(I10
I5
tp88
a(I0
I0
tp89
atp90
Rp91
sg9
((I6
I0
tp92
(I9
I3
tp93
(I1
I1
tp94
(I8
I1
tp95
tp96
sg10
I9
sbs(iproblems
RoomID
p97
(dp98
g6
I6
sg7
(I2
I5
tp99
sg9
I4
sg10
I10
sg11
I9
sg12
I807570059310326234
sb(imulti_robot_problem
MultiRobotState
p100
(dp101
g15
g16
((lp102
(I6
I4
tp103
a(I3
I2
tp104
a(I1
I3
tp105
a(I8
I2
tp106
a(I2
I3
tp107
a(I3
I8
tp108
ag99
a(I1
I0
tp109
a(I1
I2
tp110
a(I7
I4
tp111
a(I4
I1
tp112
a(I3
I3
tp113
a(I3
I4
tp114
a(I1
I1
tp115
a(I6
I3
tp116
a(I2
I0
tp117
a(I1
I8
tp118
a(I2
I2
tp119
a(I5
I2
tp120
a(I0
I2
tp121
a(I8
I4
tp122
atp123
Rp124
sg11
I9
sg38
g16
((lp125
(I7
I3
tp126
a(I2
I6
tp127
a(I1
I6
tp128
a(I4
I2
tp129
a(I5
I8
tp130
a(I7
I9
tp131
atp132
Rp133
sg9
((I6
I2
tp134
(I0
I1
tp135
(I3
I9
tp136
(I3
I5
tp137
tp138
sg10
I10
sbs(iproblems
RoomID
p139
(dp140
g6
I8
sg7
(I11
I7
tp141
sg9
I4
sg10
I12
sg11
I12
sg12
I3562373307524659409
sb(imulti_robot_problem
MultiRobotState
p142
(dp143
g15
g16
((lp144
(I6
I4
tp145
a(I6
I9
tp146
a(I3
I2
tp147
a(I9
I1
tp148
a(I6
I6
tp149
a(I5
I6
tp150
a(I9
I8
tp151
a(I3
I11
tp152
a(I7
I1
tp153
ag141
a(I8
I9
tp154
a(I3
I9
tp155
a(I11
I8
tp156
a(I10
I2
tp157
a(I4
I2
tp158
a(I7
I2
tp159
a(I10
I8
tp160
a(I8
I3
tp161
a(I8
I1
tp162
a(I3
I10
tp163
a(I5
I11
tp164
a(I6
I3
tp165
a(I6
I11
tp166
a(I6
I5
tp167
a(I7
I10
tp168
a(I4
I8
tp169
a(I11
I6
tp170
a(I4
I11
tp171
atp172
Rp173
sg11
I12
sg38
g16
((lp174
(I7
I3
tp175
a(I1
I3
tp176
a(I10
I11
tp177
a(I1
I7
tp178
a(I8
I8
tp179
a(I2
I2
tp180
a(I3
I7
tp181
a(I7
I9
tp182
atp183
Rp184
sg9
((I11
I10
tp185
(I7
I6
tp186
(I10
I10
tp187
(I2
I10
tp188
tp189
sg10
I12
sbs(iproblems
RoomID
p190
(dp191
g6
I10
sg7
(I6
I8
tp192
sg9
I3
sg10
I11
sg11
I10
sg12
I7391799147228763464
sb(imulti_robot_problem
MultiRobotState
p193
(dp194
g15
g16
((lp195
(I5
I9
tp196
a(I4
I7
tp197
a(I4
I6
tp198
a(I4
I8
tp199
a(I4
I5
tp200
a(I6
I9
tp201
a(I0
I7
tp202
a(I1
I4
tp203
a(I3
I7
tp204
a(I5
I8
tp205
ag192
a(I2
I7
tp206
a(I3
I8
tp207
a(I4
I9
tp208
a(I3
I3
tp209
a(I9
I2
tp210
a(I6
I3
tp211
a(I3
I6
tp212
a(I1
I7
tp213
a(I0
I9
tp214
a(I7
I8
tp215
a(I0
I2
tp216
a(I1
I9
tp217
atp218
Rp219
sg11
I10
sg38
g16
((lp220
(I8
I3
tp221
a(I5
I10
tp222
a(I5
I5
tp223
a(I2
I8
tp224
a(I7
I6
tp225
a(I6
I0
tp226
a(I2
I10
tp227
a(I9
I4
tp228
a(I1
I10
tp229
a(I0
I3
tp230
atp231
Rp232
sg9
((I3
I10
tp233
(I7
I1
tp234
(I1
I5
tp235
tp236
sg10
I11
sbssS'name'
p237
S'mild_roomset'
p238
sb.