(imeasure_core
RoomSet
p0
(dp1
S'rooms'
p2
(dp3
(iproblems
RoomID
p4
(dp5
S'dusts'
p6
I10
sS'obstacles'
p7
(I8
I7
tp8
sS'robots'
p9
I4
sS'height'
p10
I12
sS'width'
p11
I11
sS'seed'
p12
I4712128852136459333
sb(imulti_robot_problem
MultiRobotState
p13
(dp14
S'obstacle_locations'
p15
c__builtin__
frozenset
p16
((lp17
(I6
I4
tp18
a(I4
I7
tp19
ag8
a(I4
I5
tp20
a(I3
I11
tp21
a(I0
I7
tp22
a(I7
I7
tp23
a(I1
I6
tp24
a(I1
I9
tp25
a(I2
I10
tp26
a(I4
I2
tp27
a(I1
I11
tp28
a(I6
I5
tp29
a(I5
I3
tp30
a(I9
I0
tp31
a(I0
I8
tp32
a(I5
I5
tp33
a(I7
I6
tp34
a(I3
I1
tp35
a(I2
I11
tp36
a(I0
I9
tp37
a(I2
I3
tp38
a(I4
I1
tp39
a(I1
I1
tp40
atp41
Rp42
sg11
I11
sS'dirt_locations'
p43
g16
((lp44
(I2
I7
tp45
a(I9
I1
tp46
a(I9
I8
tp47
a(I5
I1
tp48
a(I2
I5
tp49
a(I9
I7
tp50
a(I3
I4
tp51
a(I2
I4
tp52
a(I5
I8
tp53
a(I3
I3
tp54
atp55
Rp56
sg9
((I6
I10
tp57
(I8
I10
tp58
(I7
I0
tp59
(I5
I11
tp60
tp61
sg10
I12
sbs(iproblems
RoomID
p62
(dp63
g6
I9
sg7
(I4
I4
tp64
sg9
I3
sg10
I9
sg11
I10
sg12
I4594210616595436404
sb(imulti_robot_problem
MultiRobotState
p65
(dp66
g15
g16
((lp67
(I1
I3
tp68
a(I3
I0
tp69
a(I2
I1
tp70
a(I1
I6
tp71
a(I9
I4
tp72
a(I3
I7
tp73
a(I0
I3
tp74
a(I1
I2
tp75
a(I5
I5
tp76
a(I1
I5
tp77
a(I7
I6
tp78
ag64
a(I6
I3
tp79
a(I5
I6
tp80
a(I3
I6
tp81
a(I0
I4
tp82
a(I8
I6
tp83
a(I3
I5
tp84
a(I1
I1
tp85
a(I5
I4
tp86
a(I4
I5
tp87
a(I0
I5
tp88
a(I5
I3
tp89
a(I0
I1
tp90
a(I5
I2
tp91
a(I0
I6
tp92
a(I2
I0
tp93
a(I1
I8
tp94
a(I2
I3
tp95
a(I9
I5
tp96
a(I3
I4
tp97
a(I0
I2
tp98
atp99
Rp100
sg11
I10
sg43
g16
((lp101
(I7
I8
tp102
a(I7
I0
tp103
a(I6
I8
tp104
a(I2
I8
tp105
a(I8
I8
tp106
a(I0
I8
tp107
a(I8
I5
tp108
a(I5
I8
tp109
a(I8
I2
tp110
atp111
Rp112
sg9
((I4
I6
tp113
(I2
I5
tp114
(I6
I1
tp115
tp116
sg10
I9
sbs(iproblems
RoomID
p117
(dp118
g6
I6
sg7
(I8
I8
tp119
sg9
I4
sg10
I11
sg11
I12
sg12
I7529058068588108450
sb(imulti_robot_problem
MultiRobotState
p120
(dp121
g15
g16
((lp122
(I5
I9
tp123
a(I6
I9
tp124
a(I2
I6
tp125
a(I3
I2
tp126
a(I9
I1
tp127
a(I4
I10
tp128
a(I6
I6
tp129
a(I7
I7
tp130
a(I7
I1
tp131
a(I4
I6
tp132
a(I10
I4
tp133
a(I7
I5
tp134
a(I6
I8
tp135
a(I3
I7
tp136
a(I5
I8
tp137
a(I8
I2
tp138
a(I5
I5
tp139
a(I7
I6
tp140
a(I4
I4
tp141
a(I7
I4
tp142
a(I1
I5
tp143
ag119
a(I7
I2
tp144
a(I3
I6
tp145
a(I2
I2
tp146
a(I1
I10
tp147
a(I7
I8
tp148
a(I3
I10
tp149
atp150
Rp151
sg11
I12
sg43
g16
((lp152
(I7
I3
tp153
a(I0
I5
tp154
a(I4
I0
tp155
a(I11
I3
tp156
a(I11
I6
tp157
a(I6
I0
tp158
atp159
Rp160
sg9
((I11
I7
tp161
(I6
I2
tp162
(I11
I5
tp163
(I6
I7
tp164
tp165
sg10
I11
sbs(iproblems
RoomID
p166
(dp167
g6
I8
sg7
(I5
I0
tp168
sg9
I4
sg10
I9
sg11
I9
sg12
I6858376947525423350
sb(imulti_robot_problem
MultiRobotState
p169
(dp170
g15
g16
((lp171
(I6
I4
tp172
a(I4
I7
tp173
a(I1
I3
tp174
a(I4
I3
tp175
a(I7
I1
tp176
a(I3
I0
tp177
a(I2
I8
tp178
a(I6
I0
tp179
a(I2
I1
tp180
a(I1
I6
tp181
a(I5
I1
tp182
a(I2
I5
tp183
a(I0
I8
tp184
a(I7
I2
tp185
a(I2
I7
tp186
a(I3
I8
tp187
a(I5
I5
tp188
a(I6
I1
tp189
a(I5
I7
tp190
a(I6
I3
tp191
a(I1
I8
tp192
ag168
a(I2
I2
tp193
a(I2
I3
tp194
a(I3
I4
tp195
a(I2
I4
tp196
atp197
Rp198
sg11
I9
sg43
g16
((lp199
(I8
I3
tp200
a(I7
I0
tp201
a(I4
I6
tp202
a(I6
I6
tp203
a(I7
I5
tp204
a(I8
I0
tp205
a(I8
I8
tp206
a(I8
I4
tp207
atp208
Rp209
sg9
((I1
I1
tp210
(I6
I5
tp211
(I8
I2
tp212
(I1
I5
tp213
tp214
sg10
I9
sbs(iproblems
RoomID
p215
(dp216
g6
I5
sg7
(I4
I9
tp217
sg9
I4
sg10
I11
sg11
I11
sg12
I1881095652490078568
sb(imulti_robot_problem
MultiRobotState
p218
(dp219
g15
g16
((lp220
(I6
I9
tp221
a(I6
I6
tp222
a(I4
I5
tp223
a(I2
I8
tp224
a(I9
I3
tp225
a(I4
I7
tp226
a(I7
I5
tp227
a(I5
I4
tp228
ag217
a(I6
I5
tp229
a(I3
I5
tp230
a(I7
I4
tp231
a(I1
I7
tp232
a(I6
I7
tp233
a(I4
I6
tp234
a(I7
I6
tp235
a(I4
I4
tp236
a(I8
I10
tp237
a(I6
I3
tp238
a(I7
I10
tp239
a(I2
I2
tp240
a(I4
I8
tp241
a(I7
I8
tp242
a(I1
I1
tp243
a(I8
I4
tp244
atp245
Rp246
sg11
I11
sg43
g16
((lp247
(I1
I10
tp248
a(I5
I9
tp249
a(I0
I0
tp250
a(I10
I2
tp251
a(I9
I7
tp252
atp253
Rp254
sg9
((I5
I7
tp255
(I8
I1
tp256
(I3
I1
tp257
(I8
I8
tp258
tp259
sg10
I11
sbssS'name'
p260
S'mild_roomset'
p261
sb.