(imeasure_core
RoomSet
p0
(dp1
S'rooms'
p2
(dp3
(iproblems
RoomID
p4
(dp5
S'dusts'
p6
I8
sS'obstacles'
p7
(I9
I3
tp8
sS'robots'
p9
I4
sS'height'
p10
I11
sS'width'
p11
I12
sS'seed'
p12
I5594871498841892311
sb(imulti_robot_problem
MultiRobotState
p13
(dp14
S'obstacle_locations'
p15
c__builtin__
frozenset
p16
((lp17
(I5
I9
tp18
a(I6
I9
tp19
a(I11
I9
tp20
a(I9
I1
tp21
a(I4
I8
tp22
a(I8
I0
tp23
a(I6
I0
tp24
a(I9
I9
tp25
ag8
a(I9
I4
tp26
a(I4
I2
tp27
a(I3
I7
tp28
a(I5
I8
tp29
a(I7
I9
tp30
a(I10
I8
tp31
a(I9
I0
tp32
a(I7
I0
tp33
a(I6
I8
tp34
a(I9
I2
tp35
a(I5
I7
tp36
a(I8
I10
tp37
a(I2
I0
tp38
a(I5
I0
tp39
a(I0
I9
tp40
a(I10
I0
tp41
a(I10
I2
tp42
atp43
Rp44
sg11
I12
sS'dirt_locations'
p45
g16
((lp46
(I2
I6
tp47
a(I11
I5
tp48
a(I6
I1
tp49
a(I11
I1
tp50
a(I2
I1
tp51
a(I8
I8
tp52
a(I0
I2
tp53
a(I3
I5
tp54
atp55
Rp56
sg9
((I9
I7
tp57
(I10
I5
tp58
(I6
I5
tp59
(I8
I3
tp60
tp61
sg10
I11
sbs(iproblems
RoomID
p62
(dp63
g6
I6
sg7
(I9
I4
tp64
sg9
I4
sg10
I9
sg11
I10
sg12
I8833747186876682921
sb(imulti_robot_problem
MultiRobotState
p65
(dp66
g15
g16
((lp67
(I4
I7
tp68
a(I4
I8
tp69
a(I4
I5
tp70
a(I2
I1
tp71
a(I7
I5
tp72
a(I2
I3
tp73
ag64
a(I2
I5
tp74
a(I6
I5
tp75
a(I3
I5
tp76
a(I2
I7
tp77
a(I8
I3
tp78
a(I5
I5
tp79
a(I3
I4
tp80
a(I7
I4
tp81
a(I5
I6
tp82
a(I8
I8
tp83
a(I3
I6
tp84
a(I4
I1
tp85
a(I1
I1
tp86
atp87
Rp88
sg11
I10
sg45
g16
((lp89
(I3
I2
tp90
a(I6
I2
tp91
a(I7
I0
tp92
a(I1
I4
tp93
a(I0
I4
tp94
a(I0
I7
tp95
atp96
Rp97
sg9
((I3
I1
tp98
(I8
I1
tp99
(I3
I3
tp100
(I4
I2
tp101
tp102
sg10
I9
sbs(iproblems
RoomID
p103
(dp104
g6
I10
sg7
(I4
I8
tp105
sg9
I3
sg10
I11
sg11
I9
sg12
I6645345695289302126
sb(imulti_robot_problem
MultiRobotState
p106
(dp107
g15
g16
((lp108
(I5
I9
tp109
a(I3
I2
tp110
a(I3
I1
tp111
ag105
a(I4
I5
tp112
a(I1
I4
tp113
a(I4
I2
tp114
a(I3
I7
tp115
a(I4
I6
tp116
a(I3
I3
tp117
a(I4
I1
tp118
a(I6
I1
tp119
a(I4
I4
tp120
a(I2
I4
tp121
a(I3
I8
tp122
a(I1
I5
tp123
a(I4
I3
tp124
a(I3
I5
tp125
a(I3
I4
tp126
a(I1
I1
tp127
a(I8
I4
tp128
atp129
Rp130
sg11
I9
sg45
g16
((lp131
(I0
I1
tp132
a(I5
I4
tp133
a(I6
I7
tp134
a(I8
I2
tp135
a(I8
I7
tp136
a(I8
I8
tp137
a(I2
I3
tp138
a(I3
I6
tp139
a(I1
I0
tp140
a(I5
I5
tp141
atp142
Rp143
sg9
((I1
I6
tp144
(I0
I9
tp145
(I0
I5
tp146
tp147
sg10
I11
sbs(iproblems
RoomID
p148
(dp149
g6
I8
sg7
(I4
I6
tp150
sg9
I3
sg10
I9
sg11
I12
sg12
I4800841617172907184
sb(imulti_robot_problem
MultiRobotState
p151
(dp152
g15
g16
((lp153
(I5
I4
tp154
ag150
a(I8
I7
tp155
a(I6
I6
tp156
a(I4
I5
tp157
a(I9
I8
tp158
a(I9
I3
tp159
a(I6
I0
tp160
a(I2
I1
tp161
a(I10
I1
tp162
a(I4
I2
tp163
a(I8
I5
tp164
a(I7
I2
tp165
a(I5
I3
tp166
a(I8
I3
tp167
a(I3
I1
tp168
a(I3
I3
tp169
a(I11
I8
tp170
a(I7
I1
tp171
a(I11
I3
tp172
a(I6
I3
tp173
a(I0
I6
tp174
a(I4
I3
tp175
a(I8
I6
tp176
a(I8
I4
tp177
a(I9
I7
tp178
atp179
Rp180
sg11
I12
sg45
g16
((lp181
(I11
I4
tp182
a(I8
I2
tp183
a(I10
I7
tp184
a(I7
I6
tp185
a(I1
I4
tp186
a(I11
I0
tp187
a(I9
I2
tp188
a(I0
I2
tp189
atp190
Rp191
sg9
((I9
I1
tp192
(I0
I4
tp193
(I7
I4
tp194
tp195
sg10
I9
sbs(iproblems
RoomID
p196
(dp197
g6
I7
sg7
(I8
I4
tp198
sg9
I4
sg10
I10
sg11
I11
sg12
I365562409358139953
sb(imulti_robot_problem
MultiRobotState
p199
(dp200
g15
g16
((lp201
(I7
I3
tp202
a(I8
I7
tp203
a(I4
I8
tp204
a(I2
I8
tp205
a(I5
I9
tp206
a(I6
I2
tp207
a(I1
I6
tp208
a(I9
I4
tp209
a(I6
I4
tp210
a(I9
I6
tp211
a(I6
I5
tp212
a(I10
I8
tp213
a(I10
I5
tp214
a(I6
I7
tp215
a(I10
I7
tp216
a(I7
I6
tp217
a(I3
I1
tp218
a(I0
I5
tp219
a(I3
I8
tp220
a(I7
I5
tp221
a(I8
I6
tp222
ag198
a(I5
I2
tp223
a(I6
I1
tp224
a(I9
I7
tp225
atp226
Rp227
sg11
I11
sg45
g16
((lp228
(I5
I6
tp229
a(I6
I9
tp230
a(I1
I7
tp231
a(I4
I5
tp232
a(I10
I3
tp233
a(I0
I2
tp234
a(I2
I1
tp235
atp236
Rp237
sg9
((I10
I4
tp238
(I7
I4
tp239
(I3
I6
tp240
(I8
I9
tp241
tp242
sg10
I10
sbssS'name'
p243
S'mild_roomset'
p244
sb.