(imeasure_core
RoomSet
p0
(dp1
S'rooms'
p2
(dp3
(iproblems
RoomID
p4
(dp5
S'dusts'
p6
I6
sS'obstacles'
p7
(I1
I8
tp8
sS'robots'
p9
I4
sS'height'
p10
I11
sS'width'
p11
I12
sS'seed'
p12
I2405875930906139466
sb(imulti_robot_problem
MultiRobotState
p13
(dp14
S'obstacle_locations'
p15
c__builtin__
frozenset
p16
((lp17
(I6
I4
tp18
a(I4
I6
tp19
a(I8
I2
tp20
a(I6
I6
tp21
a(I2
I8
tp22
a(I8
I0
tp23
a(I5
I5
tp24
a(I9
I10
tp25
a(I6
I2
tp26
a(I2
I3
tp27
a(I3
I7
tp28
a(I6
I5
tp29
a(I5
I3
tp30
a(I7
I0
tp31
a(I3
I3
tp32
a(I2
I9
tp33
a(I11
I5
tp34
a(I8
I1
tp35
a(I6
I1
tp36
a(I3
I1
tp37
a(I6
I3
tp38
a(I2
I0
tp39
ag8
a(I7
I5
tp40
a(I3
I6
tp41
a(I4
I3
tp42
a(I3
I4
tp43
atp44
Rp45
sg11
I12
sS'dirt_locations'
p46
g16
((lp47
(I9
I4
tp48
a(I7
I1
tp49
a(I0
I9
tp50
a(I9
I3
tp51
a(I7
I7
tp52
a(I2
I1
tp53
atp54
Rp55
sg9
((I9
I7
tp56
(I4
I4
tp57
(I10
I8
tp58
(I0
I2
tp59
tp60
sg10
I11
sbs(iproblems
RoomID
p61
(dp62
g6
I10
sg7
(I0
I5
tp63
sg9
I4
sg10
I12
sg11
I10
sg12
I8655808914197340073
sb(imulti_robot_problem
MultiRobotState
p64
(dp65
g15
g16
((lp66
(I5
I9
tp67
a(I5
I4
tp68
a(I5
I7
tp69
a(I6
I6
tp70
a(I4
I8
tp71
a(I8
I0
tp72
a(I0
I7
tp73
a(I7
I5
tp74
a(I2
I3
tp75
a(I1
I4
tp76
a(I6
I8
tp77
a(I1
I11
tp78
a(I9
I6
tp79
a(I5
I8
tp80
a(I4
I6
tp81
a(I3
I8
tp82
a(I6
I7
tp83
a(I5
I5
tp84
a(I3
I4
tp85
a(I4
I4
tp86
a(I6
I3
tp87
a(I2
I0
tp88
a(I6
I5
tp89
ag63
a(I7
I8
tp90
atp91
Rp92
sg11
I10
sg46
g16
((lp93
(I6
I9
tp94
a(I2
I9
tp95
a(I2
I11
tp96
a(I9
I0
tp97
a(I7
I7
tp98
a(I8
I3
tp99
a(I1
I7
tp100
a(I8
I6
tp101
a(I8
I4
tp102
a(I3
I5
tp103
atp104
Rp105
sg9
((I4
I9
tp106
(I8
I11
tp107
(I7
I1
tp108
(I3
I3
tp109
tp110
sg10
I12
sbs(iproblems
RoomID
p111
(dp112
g6
I10
sg7
(I11
I0
tp113
sg9
I4
sg10
I9
sg11
I12
sg12
I2796939073032698495
sb(imulti_robot_problem
MultiRobotState
p114
(dp115
g15
g16
((lp116
(I7
I3
tp117
a(I5
I7
tp118
a(I9
I1
tp119
a(I6
I6
tp120
a(I8
I0
tp121
a(I7
I7
tp122
a(I5
I8
tp123
a(I3
I3
tp124
a(I8
I1
tp125
a(I4
I8
tp126
a(I6
I3
tp127
a(I7
I2
tp128
a(I3
I6
tp129
a(I6
I4
tp130
a(I5
I4
tp131
a(I2
I6
tp132
a(I7
I1
tp133
a(I4
I5
tp134
ag113
a(I2
I3
tp135
a(I10
I1
tp136
a(I1
I0
tp137
a(I6
I5
tp138
a(I5
I3
tp139
a(I8
I3
tp140
a(I7
I0
tp141
a(I6
I8
tp142
a(I9
I2
tp143
a(I6
I1
tp144
a(I3
I1
tp145
a(I8
I8
tp146
a(I4
I3
tp147
a(I5
I2
tp148
a(I10
I2
tp149
atp150
Rp151
sg11
I12
sg46
g16
((lp152
(I1
I2
tp153
a(I11
I7
tp154
a(I3
I2
tp155
a(I2
I8
tp156
a(I9
I3
tp157
a(I1
I6
tp158
a(I5
I0
tp159
a(I0
I3
tp160
a(I0
I8
tp161
a(I4
I1
tp162
atp163
Rp164
sg9
((I10
I8
tp165
(I4
I6
tp166
(I11
I4
tp167
(I7
I8
tp168
tp169
sg10
I9
sbs(iproblems
RoomID
p170
(dp171
g6
I6
sg7
(I3
I3
tp172
sg9
I4
sg10
I12
sg11
I12
sg12
I7193062864237573168
sb(imulti_robot_problem
MultiRobotState
p173
(dp174
g15
g16
((lp175
(I6
I4
tp176
a(I5
I4
tp177
a(I1
I3
tp178
a(I6
I6
tp179
a(I7
I1
tp180
a(I9
I3
tp181
a(I0
I7
tp182
a(I1
I6
tp183
a(I2
I5
tp184
a(I0
I8
tp185
a(I10
I3
tp186
a(I8
I3
tp187
a(I3
I1
tp188
ag172
a(I5
I7
tp189
a(I11
I3
tp190
a(I7
I4
tp191
a(I0
I9
tp192
a(I2
I3
tp193
a(I8
I4
tp194
a(I3
I4
tp195
a(I2
I4
tp196
a(I9
I7
tp197
atp198
Rp199
sg11
I12
sg46
g16
((lp200
(I2
I0
tp201
a(I2
I6
tp202
a(I6
I8
tp203
a(I0
I6
tp204
a(I4
I4
tp205
a(I7
I7
tp206
atp207
Rp208
sg9
((I11
I9
tp209
(I11
I2
tp210
(I4
I11
tp211
(I3
I6
tp212
tp213
sg10
I12
sbs(iproblems
RoomID
p214
(dp215
g6
I10
sg7
(I3
I6
tp216
sg9
I4
sg10
I12
sg11
I11
sg12
I4278205817407065157
sb(imulti_robot_problem
MultiRobotState
p217
(dp218
g15
g16
((lp219
(I0
I1
tp220
a(I4
I7
tp221
a(I5
I6
tp222
a(I2
I8
tp223
a(I0
I10
tp224
a(I3
I7
tp225
a(I7
I11
tp226
a(I3
I3
tp227
a(I2
I7
tp228
a(I5
I3
tp229
a(I6
I7
tp230
a(I4
I6
tp231
a(I10
I7
tp232
a(I4
I4
tp233
a(I3
I8
tp234
a(I4
I5
tp235
ag216
a(I1
I10
tp236
a(I3
I5
tp237
a(I1
I9
tp238
atp239
Rp240
sg11
I11
sg46
g16
((lp241
(I1
I2
tp242
a(I8
I1
tp243
a(I9
I2
tp244
a(I6
I1
tp245
a(I5
I7
tp246
a(I8
I9
tp247
a(I3
I0
tp248
a(I9
I4
tp249
a(I0
I2
tp250
a(I4
I0
tp251
atp252
Rp253
sg9
((I6
I10
tp254
(I5
I11
tp255
(I2
I0
tp256
(I9
I1
tp257
tp258
sg10
I12
sbssS'name'
p259
S'mild_roomset'
p260
sb.